                                                                      Page 1
                                                              C:\Users\YINGAO~1\AppData\Local\Temp\gh_00001q41.si
Command Line: C:\ghs\comp_201355\ease850.exe -w -elf -b0 -I../../../../../Device -I../../../../../Driver/ADCE -I../../../../../Driver/CLOCK -I../../../../../Driver/DIO -I../../../../../Driver/DSPI -I../../../../../Driver/Interrupt -I../../../../../Driver/ISM -I../../../../../Driver/OSTM -I../../../../../Driver/PWM -I../../../../../Driver/RSTC -I../../../../../Driver/RTCA -I../../../../../Driver/STBC -I../../../../../Driver/TAUB -I../../../../../Driver/WDT -I../../../../../middleware\ADM -I../../../../../middleware\BPM -I../../../../../middleware\EED -I../../../../../middleware\IOM -I../../../../../middleware\LRM -I../../../../../middleware\MOM -I../../../../../middleware\PWMM -I../../../../../Common -I../../../../../Applayer\DSM -I../../../../../Applayer\FM -I../../../../../Applayer\TPM -I../../../../../Applayer\ACC -I../../../../../Applayer\ASS -I../../../../../Applayer\BAT -I../../../../../Applayer\COM -I../../../../../Applayer\COM\vtp -I../../../../../Applayer\COM\vtp\lib -I../../../../../Applayer\CRUS -I../../../../../Applayer\DIAG -I../../../../../Applayer\FC -I../../../../../Applayer\FL -I../../../../../Applayer\HSD -I../../../../../Applayer\IDLE -I../../../../../Applayer\ILLU -I../../../../../Applayer\LED -I../../../../../Applayer\MSG -I../../../../../Applayer\NVM -I../../../../../Applayer\ODO -I../../../../../Applayer\PWR -I../../../../../Applayer\RANG -I../../../../../Applayer\RST -I../../../../../Applayer\RTC -I../../../../../Applayer\SCS -I../../../../../Applayer\SSB -I../../../../../Applayer\ST -I../../../../../Applayer\STSMG -I../../../../../Applayer\SYS -I../../../../../Applayer\TIP -I../../../../../Applayer\TRIP -I../../../../../Applayer\CHM -I../../../../../Applayer\DM -I../../../../../Applayer\EVT -I../../../../../Applayer\FTR -I../../../../../Applayer\SLF -I../../../../../Applayer\NWD -I../../../../../Applayer\TPMS -I../../../../../Applayer\WFM -I../../../../../Applayer\NZM -I../../../../../app/gfx_apps/simple_draw_d1l2/src -I../../../../../bsp/board//config -I../../../../../bsp/board//src/gfx -I../../../../../bsp/board//src/hmi -I../../../../../bsp/board//src/stdio -I../../../../../bsp/board/d1lx_mango/config -I../../../../../bsp/board/d1lx_mango/src -I../../../../../bsp/board/d1lx_mango/src/gfx -I../../../../../bsp/board/d1lx_mango/src/hmi -I../../../../../bsp/board/d1lx_mango/src/stdio -I../../../../../bsp/gfx/lib -I../../../../../bsp/gfx/src -I../../../../../bsp/hmi/lib -I../../../../../bsp/hmi/src -I../../../../../bsp/lib -I../../../../../bsp/stdio/lib -I../../../../../bsp/stdio/src -I../../../../../cdi/lib -I../../../../../cdi/src -I../../../../../compiler/rh850_ghs/inc -I../../../../../device/d1lx/lib -I../../../../../device/d1lx/macro_cfg -I../../../../../device/d1lx/src/dev -I../../../../../device/d1lx/src/rh850_ghs -I../../../../../device/d1x_common/macro_cfg -I../../../../../device/d1x_common/src/csisw -I../../../../../device/d1x_common/src/ddb -I../../../../../device/d1x_common/src/dev -I../../../../../device/d1x_common/src/gfxbus -I../../../../../device/d1x_common/src/gpio -I../../../../../device/d1x_common/src/ostm -I../../../../../device/d1x_common/src/pbg -I../../../../../device/d1x_common/src/riic -I../../../../../device/d1x_common/src/sfma -I../../../../../device/d1x_common/src/spea -I../../../../../device/d1x_common/src/tauj -I../../../../../device/d1x_common/src/tick -I../../../../../device/d1x_common/src/vdce -I../../../../../device/d1x_common/src/wm -I../../../../../device/d1x_common/src/xbus -I../../../../../device/lib -I../../../../../macro/bus/pbg/lib -I../../../../../macro/bus/pbg/src -I../../../../../macro/csi/csisw/lib -I../../../../../macro/csi/csisw/src -I../../../../../macro/drw2d/lib -I../../../../../macro/drw2d/platform/cpu -I../../../../../macro/drw2d/platform/os/no_os -I../../../../../macro/drw2d/src -I../../../../../macro/flashc/sfcdb/lib -I../../../../../macro/flashc/sfcdb/src -I../../../../../macro/flashc/sfma/lib -I../../../../../macro/flashc/sfma/src -I../../../../../macro/gfxbus/lib -I../../../../../macro/gfxbus/src -I../../../../../macro/gfxbus/xbus/lib -I../../../../../macro/gfxbus/xbus/src -I../../../../../macro/gpio/lib -I../../../../../macro/gpio/src -I../../../../../macro/i2c/riic/lib -I../../../../../macro/i2c/riic/src -I../../../../../macro/tick/lib -I../../../../../macro/tick/src -I../../../../../macro/timer/ostm/lib -I../../../../../macro/timer/ostm/src -I../../../../../macro/timer/tauj/lib -I../../../../../macro/timer/tauj/src -I../../../../../macro/vdce/lib -I../../../../../macro/vdce/src -I../../../../../macro/vo/ddb/lib -I../../../../../macro/vo/ddb/src -I../../../../../macro/vo/spea/lib -I../../../../../macro/vo/spea/src -I../../../../../macro/wm/lib -I../../../../../macro/wm/src -I../../../../../app/gfx_apps/simple_draw_d1l2/src/QD_HMI -I../../../../../app/gfx_apps/simple_draw_d1l2/src/QD_HMI/HMI_Data -IC:\ghs\comp_201355\lib\rh850_22 -cg_underscore -cpu=rh850g3m -no_v850_simd -nomacro -patch_dbo=D:\Renesas_Electronics\D1x_RGL\rgl_ghs_D1Lx_obj_V1.2.0\vlib\app\gfx_apps\simple_draw_d1l2\target\d1lx_mango_ghs\obj\acc.dbo -source=acc.c -o .\obj\gh_00001q41.o -list=.\obj\acc.lst C:\Users\YINGAO~1\AppData\Local\Temp\gh_00001q41.si 
Original File: C:\Users\YINGAO~1\AppData\Local\Temp\gh_00001q41.si
Source File: acc.c
Directory: D:\Renesas_Electronics\D1x_RGL\rgl_ghs_D1Lx_obj_V1.2.0\vlib\app\gfx_apps\simple_draw_d1l2\target\d1lx_mango_ghs
Host OS: Windows 7 Service Pack 1
EASE: Copyright (C) 1983-2013 Green Hills Software.  All Rights Reversed.
Release: Compiler v2013.5.5
Build Directory: [Directory] BTOWINBOX:c:/build_2013_5_bto/2013-10-04.1311-2013_5_bto/win32-comp-ecom
Revision: [VCInfo] http://toolsvc/branches/release-branch-2013-5-bto/src@496240 (built by build)
Revision Date: Sat Oct 05 04:54:43 2013

Release Date: Sat Oct 05 05:20:49 2013

                           1 --Driver Command: ccv850 -c -MD -I../../../../../Device
                           2 --		-I../../../../../Driver/ADCE -I../../../../../Driver/CLOCK
                           3 --		-I../../../../../Driver/DIO -I../../../../../Driver/DSPI
                           4 --		-I../../../../../Driver/Interrupt -I../../../../../Driver/ISM
                           5 --		-I../../../../../Driver/OSTM -I../../../../../Driver/PWM
                           6 --		-I../../../../../Driver/RSTC -I../../../../../Driver/RTCA
                           7 --		-I../../../../../Driver/STBC -I../../../../../Driver/TAUB
                           8 --		-I../../../../../Driver/WDT -I../../../../../middleware\ADM
                           9 --		-I../../../../../middleware\BPM -I../../../../../middleware\EED
                          10 --		-I../../../../../middleware\IOM -I../../../../../middleware\LRM
                          11 --		-I../../../../../middleware\MOM -I../../../../../middleware\PWMM
                          12 --		-I../../../../../Common -I../../../../../Applayer\DSM
                          13 --		-I../../../../../Applayer\FM -I../../../../../Applayer\TPM
                          14 --		-I../../../../../Applayer\ACC -I../../../../../Applayer\ASS
                          15 --		-I../../../../../Applayer\BAT -I../../../../../Applayer\COM
                          16 --		-I../../../../../Applayer\COM\vtp
                          17 --		-I../../../../../Applayer\COM\vtp\lib
                          18 --		-I../../../../../Applayer\CRUS -I../../../../../Applayer\DIAG
                          19 --		-I../../../../../Applayer\FC -I../../../../../Applayer\FL
                          20 --		-I../../../../../Applayer\HSD -I../../../../../Applayer\IDLE
                          21 --		-I../../../../../Applayer\ILLU -I../../../../../Applayer\LED
                          22 --		-I../../../../../Applayer\MSG -I../../../../../Applayer\NVM
                          23 --		-I../../../../../Applayer\ODO -I../../../../../Applayer\PWR
                          24 --		-I../../../../../Applayer\RANG -I../../../../../Applayer\RST
                          25 --		-I../../../../../Applayer\RTC -I../../../../../Applayer\SCS
                          26 --		-I../../../../../Applayer\SSB -I../../../../../Applayer\ST
                          27 --		-I../../../../../Applayer\STSMG -I../../../../../Applayer\SYS
                          28 --		-I../../../../../Applayer\TIP -I../../../../../Applayer\TRIP
                          29 --		-I../../../../../Applayer\CHM -I../../../../../Applayer\DM
                          30 --		-I../../../../../Applayer\EVT -I../../../../../Applayer\FTR
                          31 --		-I../../../../../Applayer\SLF -I../../../../../Applayer\NWD
                          32 --		-I../../../../../Applayer\TPMS -I../../../../../Applayer\WFM
                          33 --		-I../../../../../Applayer\NZM
                          34 --		-I../../../../../app/gfx_apps/simple_draw_d1l2/src
                          35 --		-I../../../../../bsp/board//config
                          36 --		-I../../../../../bsp/board//src/gfx
                          37 --		-I../../../../../bsp/board//src/hmi
                          38 --		-I../../../../../bsp/board//src/stdio
                          39 --		-I../../../../../bsp/board/d1lx_mango/config
                          40 --		-I../../../../../bsp/board/d1lx_mango/src
                          41 --		-I../../../../../bsp/board/d1lx_mango/src/gfx
                          42 --		-I../../../../../bsp/board/d1lx_mango/src/hmi
                          43 --		-I../../../../../bsp/board/d1lx_mango/src/stdio
                          44 --		-I../../../../../bsp/gfx/lib -I../../../../../bsp/gfx/src
                          45 --		-I../../../../../bsp/hmi/lib -I../../../../../bsp/hmi/src
                          46 --		-I../../../../../bsp/lib -I../../../../../bsp/stdio/lib
                          47 --		-I../../../../../bsp/stdio/src -I../../../../../cdi/lib
                          48 --		-I../../../../../cdi/src -I../../../../../compiler/rh850_ghs/inc
                          49 --		-I../../../../../device/d1lx/lib
                          50 --		-I../../../../../device/d1lx/macro_cfg

                                                                      Page 2
                                                              C:\Users\YINGAO~1\AppData\Local\Temp\gh_00001q41.si
                          51 --		-I../../../../../device/d1lx/src/dev
                          52 --		-I../../../../../device/d1lx/src/rh850_ghs
                          53 --		-I../../../../../device/d1x_common/macro_cfg
                          54 --		-I../../../../../device/d1x_common/src/csisw
                          55 --		-I../../../../../device/d1x_common/src/ddb
                          56 --		-I../../../../../device/d1x_common/src/dev
                          57 --		-I../../../../../device/d1x_common/src/gfxbus
                          58 --		-I../../../../../device/d1x_common/src/gpio
                          59 --		-I../../../../../device/d1x_common/src/ostm
                          60 --		-I../../../../../device/d1x_common/src/pbg
                          61 --		-I../../../../../device/d1x_common/src/riic
                          62 --		-I../../../../../device/d1x_common/src/sfma
                          63 --		-I../../../../../device/d1x_common/src/spea
                          64 --		-I../../../../../device/d1x_common/src/tauj
                          65 --		-I../../../../../device/d1x_common/src/tick
                          66 --		-I../../../../../device/d1x_common/src/vdce
                          67 --		-I../../../../../device/d1x_common/src/wm
                          68 --		-I../../../../../device/d1x_common/src/xbus
                          69 --		-I../../../../../device/lib -I../../../../../macro/bus/pbg/lib
                          70 --		-I../../../../../macro/bus/pbg/src
                          71 --		-I../../../../../macro/csi/csisw/lib
                          72 --		-I../../../../../macro/csi/csisw/src
                          73 --		-I../../../../../macro/drw2d/lib
                          74 --		-I../../../../../macro/drw2d/platform/cpu
                          75 --		-I../../../../../macro/drw2d/platform/os/no_os
                          76 --		-I../../../../../macro/drw2d/src
                          77 --		-I../../../../../macro/flashc/sfcdb/lib
                          78 --		-I../../../../../macro/flashc/sfcdb/src
                          79 --		-I../../../../../macro/flashc/sfma/lib
                          80 --		-I../../../../../macro/flashc/sfma/src
                          81 --		-I../../../../../macro/gfxbus/lib
                          82 --		-I../../../../../macro/gfxbus/src
                          83 --		-I../../../../../macro/gfxbus/xbus/lib
                          84 --		-I../../../../../macro/gfxbus/xbus/src
                          85 --		-I../../../../../macro/gpio/lib -I../../../../../macro/gpio/src
                          86 --		-I../../../../../macro/i2c/riic/lib
                          87 --		-I../../../../../macro/i2c/riic/src
                          88 --		-I../../../../../macro/tick/lib -I../../../../../macro/tick/src
                          89 --		-I../../../../../macro/timer/ostm/lib
                          90 --		-I../../../../../macro/timer/ostm/src
                          91 --		-I../../../../../macro/timer/tauj/lib
                          92 --		-I../../../../../macro/timer/tauj/src
                          93 --		-I../../../../../macro/vdce/lib -I../../../../../macro/vdce/src
                          94 --		-I../../../../../macro/vo/ddb/lib
                          95 --		-I../../../../../macro/vo/ddb/src
                          96 --		-I../../../../../macro/vo/spea/lib
                          97 --		-I../../../../../macro/vo/spea/src -I../../../../../macro/wm/lib
                          98 --		-I../../../../../macro/wm/src
                          99 --		-I../../../../../app/gfx_apps/simple_draw_d1l2/src/QD_HMI
                         100 --		-I../../../../../app/gfx_apps/simple_draw_d1l2/src/QD_HMI/HMI_Data
                         101 --		-G --no_commons --no_implicit_include --prototype_errors
                         102 --		-DR_DRW2D_OS_NO_OS -DR_DRW2D_SYS_CPU -DUSED_CPU=RH850G3M
                         103 --		-DUSE_BSP_GFX -DUSE_BSP_HMI -DUSE_BSP_STDIO -DUSE_CDI -DUSE_CSISW
                         104 --		-DUSE_DDB -DUSE_DRW2D -DUSE_GFXBUS -DUSE_GPIO -DUSE_OSTM
                         105 --		-DUSE_PBG -DUSE_RIIC -DUSE_SFCDB -DUSE_SFMA -DUSE_SPEA -DUSE_TAUJ
                         106 --		-DUSE_TICK -DUSE_VDCE -DUSE_WM -DUSE_XBUS -MD -Mn -Mx -Zuse1bit
                         107 --		-allocate_ep -cpu=rh850g3m -entry=_RESET -large_sda -list
                         108 --		-no_callt -notda -passsource -preprocess_assembly_files
                         109 --		-registermode=22 -reserve_r2 --diag_warning 1 -object_dir=./obj
                         110 --		-filetype.c
                         111 --		D:\Renesas_Electronics\D1x_RGL\rgl_ghs_D1Lx_obj_V1.2.0\vlib\Applayer\ACC\acc.c

                                                                      Page 3
                                                              C:\Users\YINGAO~1\AppData\Local\Temp\gh_00001q41.si
                         112 --		-o .\obj\acc.o
                         113 --Source File:   D:\Renesas_Electronics\D1x_RGL\rgl_ghs_D1Lx_obj_V1.2.0\vlib\Applayer\ACC\acc.c
                         114 --Directory:     
                         115 --		D:\Renesas_Electronics\D1x_RGL\rgl_ghs_D1Lx_obj_V1.2.0\vlib\app\gfx_apps\simple_draw_d1l2\target\d1lx_mango_ghs
                         116 --Compile Date:  Fri Feb 02 14:21:39 2018
                         117 --Host OS:       Win32
                         118 --Version:       C-RH850 2013.5.5 DEVELOPMENT VERSION
                         119 --Release:       Compiler v2013.5.5
                         120 --Revision Date: Sat Oct 05 05:01:20 2013
                         121 --Release Date:  Sat Oct 05 05:22:44 2013
                         122 -- ecom  -g -w
                         123 
                         124 --1: /*****************************************************************************
                         125 --2: * Copyright (C) 2016 ShenZhen Yeedon Media co.,LTD. All rights reserved.
                         126 --3: *
                         127 --4: * File Name : acc.c
                         128 --5: * Description : ACC module applayer
                         129 --6: * Author: Xiaojie.Zheng
                         130 --7: * Date: 2016-12-06
                         131 --8: *autohor:zxx
                         132 --9: *Date:20170628-modfiy
                         133 --10: ******************************************************************************/
                         134 --12: /* Files for including */
                         135 --13: #include "acc_info.inc"
                         136 --14: static BOOL acc_InitSts = FALSE;                             /*ACC模块初始化状态*/
                         137 --15: static BOOL acc_InvalidFlag = FALSE;                         /*存储瞬时油耗计算值的有效性*/
                         138 --16: static U16 acc_FuelCsumpCounter = 0;                      /*燃油计算次数*/
                         139 --17: static U8 acc_NetUpdateCounter = 0;                   	 /*网络事件计算次数*/
                         140 --18: static U32 acc_ODOValuePre = 0;                          /*存储前一次的里程表行程*/
                         141 --19: static U16 acc_FuelCsumpPre = 0;                         /*存储前一次的耗油量*/
                         142 --20: static BOOL acc_NetEnRunA = FALSE;                           /*发动机是否运行*/
                         143 --22: static U8 insTCFuelConsUpperLimitPrm = INSTCFUELCONSUPPERLIMITPRM_DEF_VALUE;                /*瞬时油耗值的上限*/
                         144 --23: static U8 insTCFuelConsLowerLimitPrm = INSTCFUELCONSLOWERLIMITPRM_DEF_VALUE;                /*计算瞬时油耗值的下限*/
                         145 --24: static U8 insGearShiftUpDwnWarnPrm = INSGEARSHIFTUPDWNWARNPRM_DEF_VALUE;
                         146 --25: static BOOL acc_ClstrDspdTrWrnng = FALSE;
                         147 --27: static U8 insTCFuelCapUpperLimitPrm = 0x03;//YEEDON DEFINE AS CONST VALUE
                         148 --29: static AccInstantFuelcsump_ST acc_InstantFuel;
                         149 --30: static AccGearOutput_ST acc_GearOutputData;
                         150 --32: static U16 acc_NetOdoDec;
                         151 --33: static U16 acc_NetFcDec;
                         152 --36: /***************************************************
                         153 --37: * Function: ACC_Init
                         154 --38: * Description: ACC module initialization status
                         155 --39: * Parameters:  input: none
                         156 --40: * Returns: none
                         157 --41: * $Create & Verlog:$
                         158 --42: * Author: Xiaojie.Zheng     Date:2016-12-06   Version:V1.0
                         159 --43: ****************************************************/
                         160 --44: void ACC_Init(void)
                         161 	.text
                         162 ..bof.D.3A.5CRenesas_Electronics.5CD1x_RGL.5Crgl_ghs_D1Lx_obj_V1.2E2.2E0.5Cvlib.5Capp.5Cgfx_apps.5Csimple_draw_d1l2.5Ctarget.5Cd1lx_mango_ghs.5Cobj.5Cacc...44.3A.5CRenesas_Electronics.5CD1x_RGL.5Crgl_ghs_D1Lx_obj_V1.2E2.2E0.5Cvlib.5Capp.5Cgfx_apps.5Csimple_draw_d1l2.5Ctarget.5Cd1lx_mango_ghs..5A740374..0::
                         163 	.align	2
                         164 	.global	_ACC_Init
                         165 _ACC_Init:
00000000 8007e170        166 	prepare	{r25,r26,r27,r28,r29,r31},0
00000004 3d0600000000*   167 	mov	.L78,r29
0000000a 3c0600000000*   168 	mov	_acc_GearOutputData,r28
00000010 3b0600000000*   169 	mov	_acc_InstantFuel,r27
00000016 3dce0800        170 	movea	8,r29,r25
                         171 --	    .bf
                         172 .LDW01:

                                                                      Page 4
                                                              C:\Users\YINGAO~1\AppData\Local\Temp\gh_00001q41.si
                         173 --45: {
                         174 --46:     U8  res = RET_FAIL;
0000001a 00d2            175 	mov	0,r26
                         176 --47: 	
                         177 --48:     acc_InitSts = FALSE;
0000001c 5d070800        178 	st.b	zero,8[r29]
                         179 --49:     acc_InvalidFlag = INVALID;
00000020 010a            180 	mov	1,r1
00000022 5d0f0900        181 	st.b	r1,9[r29]
                         182 --50:     acc_FuelCsumpCounter = 0;
00000026 7d070400        183 	st.h	zero,4[r29]
                         184 --51:     acc_NetUpdateCounter = 0;
0000002a 5d070a00        185 	st.b	zero,10[r29]
                         186 --52:     acc_ODOValuePre = 0;
0000002e 7d070100        187 	st.w	zero,0[r29]
                         188 --53:     acc_FuelCsumpPre = 0;
00000032 7d070600        189 	st.h	zero,6[r29]
                         190 --54:     acc_ClstrDspdTrWrnng = FALSE;                 /*网络信号丢失*/
00000036 5d070f00        191 	st.b	zero,15[r29]
                         192 --56:     acc_InstantFuel.InstantFuel = 0;
0000003a 7b070100        193 	st.w	zero,0[r27]
                         194 --57:     acc_InstantFuel.type = TYPE_ACC_LITERPERHOUR;
0000003e 7b070500        195 	st.w	zero,4[r27]
                         196 --58:     acc_InstantFuel.valid = VALID;
00000042 5b070800        197 	st.b	zero,8[r27]
                         198 --60:     acc_GearOutputData.DrvrShftCtrlTrgtGear = STATUS_ACC_NOTSOPPORTED;
00000046 5c070900        199 	st.b	zero,9[r28]
                         200 --61:     acc_GearOutputData.TrNonEmsnRltdMalfA = FALSE;
0000004a 5c070000        201 	st.b	zero,0[r28]
                         202 --62:     acc_GearOutputData.TrShftLvrPos = STATUS_ACC_BETWEENRANGE;
0000004e 7c070500        203 	st.w	zero,4[r28]
                         204 --63:     acc_GearOutputData.TrShftLvrPosV = VALID;
00000052 5c070800        205 	st.b	zero,8[r28]
                         206 --64:     acc_GearOutputData.TrShftPtrnASts = STATUS_ACC_DEFAULTSHIFT;
00000056 5c070a00        207 	st.b	zero,10[r28]
                         208 --65:     acc_GearOutputData.TrTapUpTapDwnMdSts = STATUS_ACC_NOACTICATION;
0000005a 5c070b00        209 	st.b	zero,11[r28]
                         210 --66:     acc_GearOutputData.display.level= TYPE_ACC_GEARNONE;
0000005e 0e0a            211 	mov	14,r1
00000060 7c0f0d00        212 	st.w	r1,12[r28]
                         213 --67:     acc_GearOutputData.display.Dir= TYPE_GEAR_DIR_NULL;
00000064 7c071100        214 	st.w	zero,16[r28]
                         215 --69: 	acc_NetOdoDec = 0;
00000068 2b0600000000*   216 	mov	_acc_NetOdoDec,r11
0000006e 6b070000        217 	st.h	zero,0[r11]
                         218 --70: 	acc_NetFcDec = 0;
00000072 2b0600000000*   219 	mov	_acc_NetFcDec,r11
00000078 6b070000        220 	st.h	zero,0[r11]
                         221 --73: 	/*配置字变量赋备份值*/
                         222 --74:     insTCFuelConsUpperLimitPrm = DIAG_GetTCFuelConsUpperLimit();
                         223 	jarl	_DIAG_GetTCFuelConsUpperLimit,lp
                         223 <EXPANSION BEGIN>
                         223 jarl22 _DIAG_GetTCFuelConsUpperLimit , lp 
0000007c 80ff0000*       223 <EXPANSION END>
00000080 5d570c00        224 	st.b	r10,12[r29]
                         225 --75:     insTCFuelConsLowerLimitPrm = DIAG_GetTCFuelConsLowerLimit();
                         226 --line75
                         227 ..lin.D.3A.5CRenesas_Electronics.5CD1x_RGL.5Crgl_ghs_D1Lx_obj_V1.2E2.2E0.5Cvlib.5Capp.5Cgfx_apps.5Csimple_draw_d1l2.5Ctarget.5Cd1lx_mango_ghs.5Cobj.5Cacc.1::
                         228 .LDWlin1:
                         229 	jarl	_DIAG_GetTCFuelConsLowerLimit,lp
                         229 <EXPANSION BEGIN>

                                                                      Page 5
                                                              C:\Users\YINGAO~1\AppData\Local\Temp\gh_00001q41.si
                         229 jarl22 _DIAG_GetTCFuelConsLowerLimit , lp 
00000084 80ff0000*       229 <EXPANSION END>
00000088 5d570d00        230 	st.b	r10,13[r29]
                         231 --76: 	insGearShiftUpDwnWarnPrm = DIAG_GetGearShiftUpDwnWarn();
                         232 --line76
                         233 ..lin.D.3A.5CRenesas_Electronics.5CD1x_RGL.5Crgl_ghs_D1Lx_obj_V1.2E2.2E0.5Cvlib.5Capp.5Cgfx_apps.5Csimple_draw_d1l2.5Ctarget.5Cd1lx_mango_ghs.5Cobj.5Cacc.2::
                         234 .LDWlin2:
                         235 	jarl	_DIAG_GetGearShiftUpDwnWarn,lp
                         235 <EXPANSION BEGIN>
                         235 jarl22 _DIAG_GetGearShiftUpDwnWarn , lp 
0000008c 80ff0000*       235 <EXPANSION END>
00000090 5d570e00        236 	st.b	r10,14[r29]
                         237 --77:     
                         238 --78:     if ((TRUE == IOM_GetModuleStatus()) && (TRUE == ADM_GetInitStatus()))
                         239 --line78
                         240 ..lin.D.3A.5CRenesas_Electronics.5CD1x_RGL.5Crgl_ghs_D1Lx_obj_V1.2E2.2E0.5Cvlib.5Capp.5Cgfx_apps.5Csimple_draw_d1l2.5Ctarget.5Cd1lx_mango_ghs.5Cobj.5Cacc.3::
                         241 .LDWlin3:
                         242 	jarl	_IOM_GetModuleStatus,lp
                         242 <EXPANSION BEGIN>
                         242 jarl22 _IOM_GetModuleStatus , lp 
00000094 80ff0000*       242 <EXPANSION END>
00000098 6152            243 	cmp	1,r10
0000009a 8a0d*           244 	bne	.L7
                         245 	jarl	_ADM_GetInitStatus,lp
                         245 <EXPANSION BEGIN>
                         245 jarl22 _ADM_GetInitStatus , lp 
0000009c 80ff0000*       245 <EXPANSION END>
000000a0 6152            246 	cmp	1,r10
000000a2 ca05*           247 	bne	.L7
                         248 --79:     {
                         249 --80:         acc_InitSts = TRUE;
                         250 --line80
                         251 ..lin.D.3A.5CRenesas_Electronics.5CD1x_RGL.5Crgl_ghs_D1Lx_obj_V1.2E2.2E0.5Cvlib.5Capp.5Cgfx_apps.5Csimple_draw_d1l2.5Ctarget.5Cd1lx_mango_ghs.5Cobj.5Cacc.4::
                         252 .LDWlin4:
000000a4 010a            253 	mov	1,r1
000000a6 5d0f0800        254 	st.b	r1,8[r29]
                         255 .L7:
                         256 --81:     }
                         257 --82:    else
                         258 --83:    {
                         259 --84:    	/*do nothing*/
                         260 --85:    }
                         261 --86: }
000000aa 0000            262 	nop
                         263 --	    .ef
                         264 .LDW11:
000000ac 4006ff70        265 	dispose	0,{r25,r26,r27,r28,r29,r31},[lp]
                         266 	.type	_ACC_Init,@function
                         267 	.size	_ACC_Init,.-_ACC_Init
                         268 	.align	2
                         269 .LDW21:
                         270 --_res	r26	local
                         271 
                         272 	.data
                         273 	.align	4
                         274 .L78:
                         275 	.type	.L78,@object
                         276 	.size	.L78,0
                         277 	.global	_acc_ODOValuePre..D.3A.5CRenesas_Electronics.5CD1x_RGL.5Crgl_ghs_D1Lx_obj_V1.2E2.2E0.5Cvlib.5Capp.5Cgfx_apps.5Csimple_draw_d1l2.5Ctarget.5Cd1lx_mango_ghs.5Cobj.5Cacc.
                         278 _acc_ODOValuePre..D.3A.5CRenesas_Electronics.5CD1x_RGL.5Crgl_ghs_D1Lx_obj_V1.2E2.2E0.5Cvlib.5Capp.5Cgfx_apps.5Csimple_draw_d1l2.5Ctarget.5Cd1lx_mango_ghs.5Cobj.5Cacc.:
                         279 	.type	_acc_ODOValuePre..D.3A.5CRenesas_Electronics.5CD1x_RGL.5Crgl_ghs_D1Lx_obj_V1.2E2.2E0.5Cvlib.5Capp.5Cgfx_apps.5Csimple_draw_d1l2.5Ctarget.5Cd1lx_mango_ghs.5Cobj.5Cacc.,@object

                                                                      Page 6
                                                              C:\Users\YINGAO~1\AppData\Local\Temp\gh_00001q41.si
                         280 	.size	_acc_ODOValuePre..D.3A.5CRenesas_Electronics.5CD1x_RGL.5Crgl_ghs_D1Lx_obj_V1.2E2.2E0.5Cvlib.5Capp.5Cgfx_apps.5Csimple_draw_d1l2.5Ctarget.5Cd1lx_mango_ghs.5Cobj.5Cacc.,4
00000000 00000000        281 _acc_ODOValuePre:	.byte	0,0,0,0
                         282 	.type	_acc_ODOValuePre,@object
                         283 	.size	_acc_ODOValuePre,4
                         284 	.global	_acc_FuelCsumpCounter..D.3A.5CRenesas_Electronics.5CD1x_RGL.5Crgl_ghs_D1Lx_obj_V1.2E2.2E0.5Cvlib.5Capp.5Cgfx_apps.5Csimple_draw_d1l2.5Ctarget.5Cd1lx_mango_ghs.5Cobj.5Cacc.
                         285 _acc_FuelCsumpCounter..D.3A.5CRenesas_Electronics.5CD1x_RGL.5Crgl_ghs_D1Lx_obj_V1.2E2.2E0.5Cvlib.5Capp.5Cgfx_apps.5Csimple_draw_d1l2.5Ctarget.5Cd1lx_mango_ghs.5Cobj.5Cacc.:
                         286 	.type	_acc_FuelCsumpCounter..D.3A.5CRenesas_Electronics.5CD1x_RGL.5Crgl_ghs_D1Lx_obj_V1.2E2.2E0.5Cvlib.5Capp.5Cgfx_apps.5Csimple_draw_d1l2.5Ctarget.5Cd1lx_mango_ghs.5Cobj.5Cacc.,@object
                         287 	.size	_acc_FuelCsumpCounter..D.3A.5CRenesas_Electronics.5CD1x_RGL.5Crgl_ghs_D1Lx_obj_V1.2E2.2E0.5Cvlib.5Capp.5Cgfx_apps.5Csimple_draw_d1l2.5Ctarget.5Cd1lx_mango_ghs.5Cobj.5Cacc.,2
00000004 0000            288 _acc_FuelCsumpCounter:	.byte	0,0
                         289 	.type	_acc_FuelCsumpCounter,@object
                         290 	.size	_acc_FuelCsumpCounter,2
                         291 	.global	_acc_FuelCsumpPre..D.3A.5CRenesas_Electronics.5CD1x_RGL.5Crgl_ghs_D1Lx_obj_V1.2E2.2E0.5Cvlib.5Capp.5Cgfx_apps.5Csimple_draw_d1l2.5Ctarget.5Cd1lx_mango_ghs.5Cobj.5Cacc.
                         292 _acc_FuelCsumpPre..D.3A.5CRenesas_Electronics.5CD1x_RGL.5Crgl_ghs_D1Lx_obj_V1.2E2.2E0.5Cvlib.5Capp.5Cgfx_apps.5Csimple_draw_d1l2.5Ctarget.5Cd1lx_mango_ghs.5Cobj.5Cacc.:
                         293 	.type	_acc_FuelCsumpPre..D.3A.5CRenesas_Electronics.5CD1x_RGL.5Crgl_ghs_D1Lx_obj_V1.2E2.2E0.5Cvlib.5Capp.5Cgfx_apps.5Csimple_draw_d1l2.5Ctarget.5Cd1lx_mango_ghs.5Cobj.5Cacc.,@object
                         294 	.size	_acc_FuelCsumpPre..D.3A.5CRenesas_Electronics.5CD1x_RGL.5Crgl_ghs_D1Lx_obj_V1.2E2.2E0.5Cvlib.5Capp.5Cgfx_apps.5Csimple_draw_d1l2.5Ctarget.5Cd1lx_mango_ghs.5Cobj.5Cacc.,2
00000006 0000            295 _acc_FuelCsumpPre:	.byte	0,0
                         296 	.type	_acc_FuelCsumpPre,@object
                         297 	.size	_acc_FuelCsumpPre,2
                         298 	.section ".bss","awb"
                         299 	.align	4
                         300 	.global	_acc_NetOdoDec..D.3A.5CRenesas_Electronics.5CD1x_RGL.5Crgl_ghs_D1Lx_obj_V1.2E2.2E0.5Cvlib.5Capp.5Cgfx_apps.5Csimple_draw_d1l2.5Ctarget.5Cd1lx_mango_ghs.5Cobj.5Cacc.
                         301 _acc_NetOdoDec..D.3A.5CRenesas_Electronics.5CD1x_RGL.5Crgl_ghs_D1Lx_obj_V1.2E2.2E0.5Cvlib.5Capp.5Cgfx_apps.5Csimple_draw_d1l2.5Ctarget.5Cd1lx_mango_ghs.5Cobj.5Cacc.:
                         302 	.type	_acc_NetOdoDec..D.3A.5CRenesas_Electronics.5CD1x_RGL.5Crgl_ghs_D1Lx_obj_V1.2E2.2E0.5Cvlib.5Capp.5Cgfx_apps.5Csimple_draw_d1l2.5Ctarget.5Cd1lx_mango_ghs.5Cobj.5Cacc.,@object
                         303 	.size	_acc_NetOdoDec..D.3A.5CRenesas_Electronics.5CD1x_RGL.5Crgl_ghs_D1Lx_obj_V1.2E2.2E0.5Cvlib.5Capp.5Cgfx_apps.5Csimple_draw_d1l2.5Ctarget.5Cd1lx_mango_ghs.5Cobj.5Cacc.,2
00000000 0000            304 _acc_NetOdoDec:	.space	2
                         305 	.type	_acc_NetOdoDec,@object
                         306 	.size	_acc_NetOdoDec,2
                         307 	.global	_acc_NetFcDec..D.3A.5CRenesas_Electronics.5CD1x_RGL.5Crgl_ghs_D1Lx_obj_V1.2E2.2E0.5Cvlib.5Capp.5Cgfx_apps.5Csimple_draw_d1l2.5Ctarget.5Cd1lx_mango_ghs.5Cobj.5Cacc.
                         308 _acc_NetFcDec..D.3A.5CRenesas_Electronics.5CD1x_RGL.5Crgl_ghs_D1Lx_obj_V1.2E2.2E0.5Cvlib.5Capp.5Cgfx_apps.5Csimple_draw_d1l2.5Ctarget.5Cd1lx_mango_ghs.5Cobj.5Cacc.:
                         309 	.type	_acc_NetFcDec..D.3A.5CRenesas_Electronics.5CD1x_RGL.5Crgl_ghs_D1Lx_obj_V1.2E2.2E0.5Cvlib.5Capp.5Cgfx_apps.5Csimple_draw_d1l2.5Ctarget.5Cd1lx_mango_ghs.5Cobj.5Cacc.,@object
                         310 	.size	_acc_NetFcDec..D.3A.5CRenesas_Electronics.5CD1x_RGL.5Crgl_ghs_D1Lx_obj_V1.2E2.2E0.5Cvlib.5Capp.5Cgfx_apps.5Csimple_draw_d1l2.5Ctarget.5Cd1lx_mango_ghs.5Cobj.5Cacc.,2
00000002 0000            311 _acc_NetFcDec:	.space	2
                         312 	.type	_acc_NetFcDec,@object
                         313 	.size	_acc_NetFcDec,2
                         314 	.data
                         315 	.global	_acc_InitSts..D.3A.5CRenesas_Electronics.5CD1x_RGL.5Crgl_ghs_D1Lx_obj_V1.2E2.2E0.5Cvlib.5Capp.5Cgfx_apps.5Csimple_draw_d1l2.5Ctarget.5Cd1lx_mango_ghs.5Cobj.5Cacc.
                         316 _acc_InitSts..D.3A.5CRenesas_Electronics.5CD1x_RGL.5Crgl_ghs_D1Lx_obj_V1.2E2.2E0.5Cvlib.5Capp.5Cgfx_apps.5Csimple_draw_d1l2.5Ctarget.5Cd1lx_mango_ghs.5Cobj.5Cacc.:
                         317 	.type	_acc_InitSts..D.3A.5CRenesas_Electronics.5CD1x_RGL.5Crgl_ghs_D1Lx_obj_V1.2E2.2E0.5Cvlib.5Capp.5Cgfx_apps.5Csimple_draw_d1l2.5Ctarget.5Cd1lx_mango_ghs.5Cobj.5Cacc.,@object
                         318 	.size	_acc_InitSts..D.3A.5CRenesas_Electronics.5CD1x_RGL.5Crgl_ghs_D1Lx_obj_V1.2E2.2E0.5Cvlib.5Capp.5Cgfx_apps.5Csimple_draw_d1l2.5Ctarget.5Cd1lx_mango_ghs.5Cobj.5Cacc.,1
00000008 00              319 _acc_InitSts:	.byte	0
                         320 	.type	_acc_InitSts,@object
                         321 	.size	_acc_InitSts,1
                         322 	.global	_acc_InvalidFlag..D.3A.5CRenesas_Electronics.5CD1x_RGL.5Crgl_ghs_D1Lx_obj_V1.2E2.2E0.5Cvlib.5Capp.5Cgfx_apps.5Csimple_draw_d1l2.5Ctarget.5Cd1lx_mango_ghs.5Cobj.5Cacc.
                         323 _acc_InvalidFlag..D.3A.5CRenesas_Electronics.5CD1x_RGL.5Crgl_ghs_D1Lx_obj_V1.2E2.2E0.5Cvlib.5Capp.5Cgfx_apps.5Csimple_draw_d1l2.5Ctarget.5Cd1lx_mango_ghs.5Cobj.5Cacc.:
                         324 	.type	_acc_InvalidFlag..D.3A.5CRenesas_Electronics.5CD1x_RGL.5Crgl_ghs_D1Lx_obj_V1.2E2.2E0.5Cvlib.5Capp.5Cgfx_apps.5Csimple_draw_d1l2.5Ctarget.5Cd1lx_mango_ghs.5Cobj.5Cacc.,@object
                         325 	.size	_acc_InvalidFlag..D.3A.5CRenesas_Electronics.5CD1x_RGL.5Crgl_ghs_D1Lx_obj_V1.2E2.2E0.5Cvlib.5Capp.5Cgfx_apps.5Csimple_draw_d1l2.5Ctarget.5Cd1lx_mango_ghs.5Cobj.5Cacc.,1
00000009 00              326 _acc_InvalidFlag:	.byte	0
                         327 	.type	_acc_InvalidFlag,@object
                         328 	.size	_acc_InvalidFlag,1
                         329 	.global	_acc_NetUpdateCounter..D.3A.5CRenesas_Electronics.5CD1x_RGL.5Crgl_ghs_D1Lx_obj_V1.2E2.2E0.5Cvlib.5Capp.5Cgfx_apps.5Csimple_draw_d1l2.5Ctarget.5Cd1lx_mango_ghs.5Cobj.5Cacc.
                         330 _acc_NetUpdateCounter..D.3A.5CRenesas_Electronics.5CD1x_RGL.5Crgl_ghs_D1Lx_obj_V1.2E2.2E0.5Cvlib.5Capp.5Cgfx_apps.5Csimple_draw_d1l2.5Ctarget.5Cd1lx_mango_ghs.5Cobj.5Cacc.:
                         331 	.type	_acc_NetUpdateCounter..D.3A.5CRenesas_Electronics.5CD1x_RGL.5Crgl_ghs_D1Lx_obj_V1.2E2.2E0.5Cvlib.5Capp.5Cgfx_apps.5Csimple_draw_d1l2.5Ctarget.5Cd1lx_mango_ghs.5Cobj.5Cacc.,@object
                         332 	.size	_acc_NetUpdateCounter..D.3A.5CRenesas_Electronics.5CD1x_RGL.5Crgl_ghs_D1Lx_obj_V1.2E2.2E0.5Cvlib.5Capp.5Cgfx_apps.5Csimple_draw_d1l2.5Ctarget.5Cd1lx_mango_ghs.5Cobj.5Cacc.,1
0000000a 00              333 _acc_NetUpdateCounter:	.byte	0
                         334 	.type	_acc_NetUpdateCounter,@object
                         335 	.size	_acc_NetUpdateCounter,1
                         336 	.global	_acc_NetEnRunA..D.3A.5CRenesas_Electronics.5CD1x_RGL.5Crgl_ghs_D1Lx_obj_V1.2E2.2E0.5Cvlib.5Capp.5Cgfx_apps.5Csimple_draw_d1l2.5Ctarget.5Cd1lx_mango_ghs.5Cobj.5Cacc.
                         337 _acc_NetEnRunA..D.3A.5CRenesas_Electronics.5CD1x_RGL.5Crgl_ghs_D1Lx_obj_V1.2E2.2E0.5Cvlib.5Capp.5Cgfx_apps.5Csimple_draw_d1l2.5Ctarget.5Cd1lx_mango_ghs.5Cobj.5Cacc.:
                         338 	.type	_acc_NetEnRunA..D.3A.5CRenesas_Electronics.5CD1x_RGL.5Crgl_ghs_D1Lx_obj_V1.2E2.2E0.5Cvlib.5Capp.5Cgfx_apps.5Csimple_draw_d1l2.5Ctarget.5Cd1lx_mango_ghs.5Cobj.5Cacc.,@object
                         339 	.size	_acc_NetEnRunA..D.3A.5CRenesas_Electronics.5CD1x_RGL.5Crgl_ghs_D1Lx_obj_V1.2E2.2E0.5Cvlib.5Capp.5Cgfx_apps.5Csimple_draw_d1l2.5Ctarget.5Cd1lx_mango_ghs.5Cobj.5Cacc.,1
0000000b 00              340 _acc_NetEnRunA:	.byte	0

                                                                      Page 7
                                                              C:\Users\YINGAO~1\AppData\Local\Temp\gh_00001q41.si
                         341 	.type	_acc_NetEnRunA,@object
                         342 	.size	_acc_NetEnRunA,1
                         343 	.global	_insTCFuelConsUpperLimitPrm..D.3A.5CRenesas_Electronics.5CD1x_RGL.5Crgl_ghs_D1Lx_obj_V1.2E2.2E0.5Cvlib.5Capp.5Cgfx_apps.5Csimple_draw_d1l2.5Ctarget.5Cd1lx_mango_ghs.5Cobj.5Cacc.
                         344 _insTCFuelConsUpperLimitPrm..D.3A.5CRenesas_Electronics.5CD1x_RGL.5Crgl_ghs_D1Lx_obj_V1.2E2.2E0.5Cvlib.5Capp.5Cgfx_apps.5Csimple_draw_d1l2.5Ctarget.5Cd1lx_mango_ghs.5Cobj.5Cacc.:
                         345 	.type	_insTCFuelConsUpperLimitPrm..D.3A.5CRenesas_Electronics.5CD1x_RGL.5Crgl_ghs_D1Lx_obj_V1.2E2.2E0.5Cvlib.5Capp.5Cgfx_apps.5Csimple_draw_d1l2.5Ctarget.5Cd1lx_mango_ghs.5Cobj.5Cacc.,@object
                         346 	.size	_insTCFuelConsUpperLimitPrm..D.3A.5CRenesas_Electronics.5CD1x_RGL.5Crgl_ghs_D1Lx_obj_V1.2E2.2E0.5Cvlib.5Capp.5Cgfx_apps.5Csimple_draw_d1l2.5Ctarget.5Cd1lx_mango_ghs.5Cobj.5Cacc.,1
0000000c 05              347 _insTCFuelConsUpperLimitPrm:	.byte	5
                         348 	.type	_insTCFuelConsUpperLimitPrm,@object
                         349 	.size	_insTCFuelConsUpperLimitPrm,1
                         350 	.global	_insTCFuelConsLowerLimitPrm..D.3A.5CRenesas_Electronics.5CD1x_RGL.5Crgl_ghs_D1Lx_obj_V1.2E2.2E0.5Cvlib.5Capp.5Cgfx_apps.5Csimple_draw_d1l2.5Ctarget.5Cd1lx_mango_ghs.5Cobj.5Cacc.
                         351 _insTCFuelConsLowerLimitPrm..D.3A.5CRenesas_Electronics.5CD1x_RGL.5Crgl_ghs_D1Lx_obj_V1.2E2.2E0.5Cvlib.5Capp.5Cgfx_apps.5Csimple_draw_d1l2.5Ctarget.5Cd1lx_mango_ghs.5Cobj.5Cacc.:
                         352 	.type	_insTCFuelConsLowerLimitPrm..D.3A.5CRenesas_Electronics.5CD1x_RGL.5Crgl_ghs_D1Lx_obj_V1.2E2.2E0.5Cvlib.5Capp.5Cgfx_apps.5Csimple_draw_d1l2.5Ctarget.5Cd1lx_mango_ghs.5Cobj.5Cacc.,@object
                         353 	.size	_insTCFuelConsLowerLimitPrm..D.3A.5CRenesas_Electronics.5CD1x_RGL.5Crgl_ghs_D1Lx_obj_V1.2E2.2E0.5Cvlib.5Capp.5Cgfx_apps.5Csimple_draw_d1l2.5Ctarget.5Cd1lx_mango_ghs.5Cobj.5Cacc.,1
0000000d 00              354 _insTCFuelConsLowerLimitPrm:	.byte	0
                         355 	.type	_insTCFuelConsLowerLimitPrm,@object
                         356 	.size	_insTCFuelConsLowerLimitPrm,1
                         357 	.global	_insGearShiftUpDwnWarnPrm..D.3A.5CRenesas_Electronics.5CD1x_RGL.5Crgl_ghs_D1Lx_obj_V1.2E2.2E0.5Cvlib.5Capp.5Cgfx_apps.5Csimple_draw_d1l2.5Ctarget.5Cd1lx_mango_ghs.5Cobj.5Cacc.
                         358 _insGearShiftUpDwnWarnPrm..D.3A.5CRenesas_Electronics.5CD1x_RGL.5Crgl_ghs_D1Lx_obj_V1.2E2.2E0.5Cvlib.5Capp.5Cgfx_apps.5Csimple_draw_d1l2.5Ctarget.5Cd1lx_mango_ghs.5Cobj.5Cacc.:
                         359 	.type	_insGearShiftUpDwnWarnPrm..D.3A.5CRenesas_Electronics.5CD1x_RGL.5Crgl_ghs_D1Lx_obj_V1.2E2.2E0.5Cvlib.5Capp.5Cgfx_apps.5Csimple_draw_d1l2.5Ctarget.5Cd1lx_mango_ghs.5Cobj.5Cacc.,@object
                         360 	.size	_insGearShiftUpDwnWarnPrm..D.3A.5CRenesas_Electronics.5CD1x_RGL.5Crgl_ghs_D1Lx_obj_V1.2E2.2E0.5Cvlib.5Capp.5Cgfx_apps.5Csimple_draw_d1l2.5Ctarget.5Cd1lx_mango_ghs.5Cobj.5Cacc.,1
0000000e 01              361 _insGearShiftUpDwnWarnPrm:	.byte	1
                         362 	.type	_insGearShiftUpDwnWarnPrm,@object
                         363 	.size	_insGearShiftUpDwnWarnPrm,1
                         364 	.global	_acc_ClstrDspdTrWrnng..D.3A.5CRenesas_Electronics.5CD1x_RGL.5Crgl_ghs_D1Lx_obj_V1.2E2.2E0.5Cvlib.5Capp.5Cgfx_apps.5Csimple_draw_d1l2.5Ctarget.5Cd1lx_mango_ghs.5Cobj.5Cacc.
                         365 _acc_ClstrDspdTrWrnng..D.3A.5CRenesas_Electronics.5CD1x_RGL.5Crgl_ghs_D1Lx_obj_V1.2E2.2E0.5Cvlib.5Capp.5Cgfx_apps.5Csimple_draw_d1l2.5Ctarget.5Cd1lx_mango_ghs.5Cobj.5Cacc.:
                         366 	.type	_acc_ClstrDspdTrWrnng..D.3A.5CRenesas_Electronics.5CD1x_RGL.5Crgl_ghs_D1Lx_obj_V1.2E2.2E0.5Cvlib.5Capp.5Cgfx_apps.5Csimple_draw_d1l2.5Ctarget.5Cd1lx_mango_ghs.5Cobj.5Cacc.,@object
                         367 	.size	_acc_ClstrDspdTrWrnng..D.3A.5CRenesas_Electronics.5CD1x_RGL.5Crgl_ghs_D1Lx_obj_V1.2E2.2E0.5Cvlib.5Capp.5Cgfx_apps.5Csimple_draw_d1l2.5Ctarget.5Cd1lx_mango_ghs.5Cobj.5Cacc.,1
0000000f 00              368 _acc_ClstrDspdTrWrnng:	.byte	0
                         369 	.type	_acc_ClstrDspdTrWrnng,@object
                         370 	.size	_acc_ClstrDspdTrWrnng,1
                         371 	.global	_insTCFuelCapUpperLimitPrm..D.3A.5CRenesas_Electronics.5CD1x_RGL.5Crgl_ghs_D1Lx_obj_V1.2E2.2E0.5Cvlib.5Capp.5Cgfx_apps.5Csimple_draw_d1l2.5Ctarget.5Cd1lx_mango_ghs.5Cobj.5Cacc.
                         372 _insTCFuelCapUpperLimitPrm..D.3A.5CRenesas_Electronics.5CD1x_RGL.5Crgl_ghs_D1Lx_obj_V1.2E2.2E0.5Cvlib.5Capp.5Cgfx_apps.5Csimple_draw_d1l2.5Ctarget.5Cd1lx_mango_ghs.5Cobj.5Cacc.:
                         373 	.type	_insTCFuelCapUpperLimitPrm..D.3A.5CRenesas_Electronics.5CD1x_RGL.5Crgl_ghs_D1Lx_obj_V1.2E2.2E0.5Cvlib.5Capp.5Cgfx_apps.5Csimple_draw_d1l2.5Ctarget.5Cd1lx_mango_ghs.5Cobj.5Cacc.,@object
                         374 	.size	_insTCFuelCapUpperLimitPrm..D.3A.5CRenesas_Electronics.5CD1x_RGL.5Crgl_ghs_D1Lx_obj_V1.2E2.2E0.5Cvlib.5Capp.5Cgfx_apps.5Csimple_draw_d1l2.5Ctarget.5Cd1lx_mango_ghs.5Cobj.5Cacc.,1
00000010 03              375 _insTCFuelCapUpperLimitPrm:	.byte	3
                         376 	.type	_insTCFuelCapUpperLimitPrm,@object
                         377 	.size	_insTCFuelCapUpperLimitPrm,1
                         378 	.section ".bss","awb"
                         379 	.global	_acc_InstantFuel..D.3A.5CRenesas_Electronics.5CD1x_RGL.5Crgl_ghs_D1Lx_obj_V1.2E2.2E0.5Cvlib.5Capp.5Cgfx_apps.5Csimple_draw_d1l2.5Ctarget.5Cd1lx_mango_ghs.5Cobj.5Cacc.
                         380 _acc_InstantFuel..D.3A.5CRenesas_Electronics.5CD1x_RGL.5Crgl_ghs_D1Lx_obj_V1.2E2.2E0.5Cvlib.5Capp.5Cgfx_apps.5Csimple_draw_d1l2.5Ctarget.5Cd1lx_mango_ghs.5Cobj.5Cacc.:
                         381 	.type	_acc_InstantFuel..D.3A.5CRenesas_Electronics.5CD1x_RGL.5Crgl_ghs_D1Lx_obj_V1.2E2.2E0.5Cvlib.5Capp.5Cgfx_apps.5Csimple_draw_d1l2.5Ctarget.5Cd1lx_mango_ghs.5Cobj.5Cacc.,@object
                         382 	.size	_acc_InstantFuel..D.3A.5CRenesas_Electronics.5CD1x_RGL.5Crgl_ghs_D1Lx_obj_V1.2E2.2E0.5Cvlib.5Capp.5Cgfx_apps.5Csimple_draw_d1l2.5Ctarget.5Cd1lx_mango_ghs.5Cobj.5Cacc.,12
00000004 000000000000    383 _acc_InstantFuel:	.space	12
0000000a 000000000000 
                         384 	.type	_acc_InstantFuel,@object
                         385 	.size	_acc_InstantFuel,12
                         386 	.global	_acc_GearOutputData..D.3A.5CRenesas_Electronics.5CD1x_RGL.5Crgl_ghs_D1Lx_obj_V1.2E2.2E0.5Cvlib.5Capp.5Cgfx_apps.5Csimple_draw_d1l2.5Ctarget.5Cd1lx_mango_ghs.5Cobj.5Cacc.
                         387 _acc_GearOutputData..D.3A.5CRenesas_Electronics.5CD1x_RGL.5Crgl_ghs_D1Lx_obj_V1.2E2.2E0.5Cvlib.5Capp.5Cgfx_apps.5Csimple_draw_d1l2.5Ctarget.5Cd1lx_mango_ghs.5Cobj.5Cacc.:
                         388 	.type	_acc_GearOutputData..D.3A.5CRenesas_Electronics.5CD1x_RGL.5Crgl_ghs_D1Lx_obj_V1.2E2.2E0.5Cvlib.5Capp.5Cgfx_apps.5Csimple_draw_d1l2.5Ctarget.5Cd1lx_mango_ghs.5Cobj.5Cacc.,@object
                         389 	.size	_acc_GearOutputData..D.3A.5CRenesas_Electronics.5CD1x_RGL.5Crgl_ghs_D1Lx_obj_V1.2E2.2E0.5Cvlib.5Capp.5Cgfx_apps.5Csimple_draw_d1l2.5Ctarget.5Cd1lx_mango_ghs.5Cobj.5Cacc.,20
00000010 000000000000    390 _acc_GearOutputData:	.space	20
00000016 000000000000 
0000001c 000000000000 
00000022 0000 
                         391 	.type	_acc_GearOutputData,@object
                         392 	.size	_acc_GearOutputData,20
                         393 	.data
                         394 	.text
                         395 
                         396 
                         397 --88: /***************************************************

                                                                      Page 8
                                                              C:\Users\YINGAO~1\AppData\Local\Temp\gh_00001q41.si
                         398 --89: * Function: ACC_Process_100ms
                         399 --90: * Description: Processing function of ACC module
                         400 --91: * Parameters:  input: none
                         401 --92: * Returns: none
                         402 --93: * $Create & Verlog:$
                         403 --94: * Author: Xiaojie.Zheng     Date:2016-12-06   Version:V1.0
                         404 --95: ****************************************************/
                         405 --96: void ACC_Process_100ms(void)
                         406 	.align	2
                         407 	.align	2
                         408 	.global	_ACC_Process_100ms
                         409 _ACC_Process_100ms:
000000b0 8207e130        410 	prepare	{r26,r27,r28,r29,r31},1
000000b4 3d0600000000*   411 	mov	_acc_FuelCsumpCounter,r29
000000ba 1dd0            412 	mov	r29,r26
000000bc 3dde0700        413 	movea	7,r29,r27
                         414 --	    .bf
                         415 .LDW31:
                         416 --97: {
                         417 --98: 	U8 pwrMode = PWR_OFF;
000000c0 43070300        418 	st.b	zero,3[sp]
                         419 --99:     U8 res = RET_FAIL;
000000c4 00e2            420 	mov	0,r28
                         421 --100: 	
                         422 --101:     if (TRUE== acc_InitSts)
000000c6 9d0f0500        423 	ld.bu	4[r29],r1
000000ca 610a            424 	cmp	1,r1
000000cc da2d*           425 	bne	.L186
                         426 --102:     {
                         427 --103:         res = PWR_GetPwrMode(&pwrMode);
                         428 --line103
                         429 ..lin.D.3A.5CRenesas_Electronics.5CD1x_RGL.5Crgl_ghs_D1Lx_obj_V1.2E2.2E0.5Cvlib.5Capp.5Cgfx_apps.5Csimple_draw_d1l2.5Ctarget.5Cd1lx_mango_ghs.5Cobj.5Cacc.5::
                         430 .LDWlin5:
000000ce 23360300        431 	movea	3,sp,r6
                         432 	jarl	_PWR_GetPwrMode,lp
                         432 <EXPANSION BEGIN>
                         432 jarl22 _PWR_GetPwrMode , lp 
000000d2 80ff0000*       432 <EXPANSION END>
000000d6 0ae0            433 	mov	r10,r28
                         434 --104:         COM_GetSignalValue_BOOL(INDEX_COM_RS_ENRUNA, &acc_NetEnRunA);
                         435 --line104
                         436 ..lin.D.3A.5CRenesas_Electronics.5CD1x_RGL.5Crgl_ghs_D1Lx_obj_V1.2E2.2E0.5Cvlib.5Capp.5Cgfx_apps.5Csimple_draw_d1l2.5Ctarget.5Cd1lx_mango_ghs.5Cobj.5Cacc.6::
                         437 .LDWlin6:
000000d8 1b38            438 	mov	r27,r7
000000da 20361000        439 	movea	16,zero,r6
                         440 	jarl	_COM_GetSignalValue_BOOL,lp
                         440 <EXPANSION BEGIN>
                         440 jarl22 _COM_GetSignalValue_BOOL , lp 
000000de 80ff0000*       440 <EXPANSION END>
                         441 --105:         if(acc_NetEnRunA) 
                         442 --line105
                         443 ..lin.D.3A.5CRenesas_Electronics.5CD1x_RGL.5Crgl_ghs_D1Lx_obj_V1.2E2.2E0.5Cvlib.5Capp.5Cgfx_apps.5Csimple_draw_d1l2.5Ctarget.5Cd1lx_mango_ghs.5Cobj.5Cacc.7::
                         444 .LDWlin7:
000000e2 bd0f0700        445 	ld.bu	7[r29],r1
000000e6 e009            446 	cmp	zero,r1
000000e8 c205*           447 	be	.L177
                         448 --106:         {
                         449 --107:             acc_NetEnRunA = TRUE;
                         450 --line107
                         451 ..lin.D.3A.5CRenesas_Electronics.5CD1x_RGL.5Crgl_ghs_D1Lx_obj_V1.2E2.2E0.5Cvlib.5Capp.5Cgfx_apps.5Csimple_draw_d1l2.5Ctarget.5Cd1lx_mango_ghs.5Cobj.5Cacc.8::
                         452 .LDWlin8:

                                                                      Page 9
                                                              C:\Users\YINGAO~1\AppData\Local\Temp\gh_00001q41.si
000000ea 010a            453 	mov	1,r1
000000ec 5d0f0700        454 	st.b	r1,7[r29]
                         455 .L177:
                         456 --108:         }
                         457 --109:         else
                         458 --110:         {
                         459 --111:         }
                         460 --112:         acc_GearStatus();
                         461 	jarl	_acc_GearStatus,lp
                         461 <EXPANSION BEGIN>
                         461 jarl22 _acc_GearStatus , lp 
000000f0 80ffa202*       461 <EXPANSION END>
                         462 --113:         acc_FuelCsumpCounter++;
                         463 --line113
                         464 ..lin.D.3A.5CRenesas_Electronics.5CD1x_RGL.5Crgl_ghs_D1Lx_obj_V1.2E2.2E0.5Cvlib.5Capp.5Cgfx_apps.5Csimple_draw_d1l2.5Ctarget.5Cd1lx_mango_ghs.5Cobj.5Cacc.9::
                         465 .LDWlin9:
000000f4 fd0f0100        466 	ld.hu	0[r29],r1
000000f8 410a            467 	add	1,r1
000000fa 7d0f0000        468 	st.h	r1,0[r29]
                         469 --115:         if (ACC_FUELCSUMP_CNT <= acc_FuelCsumpCounter)
000000fe fd0f0100        470 	ld.hu	0[r29],r1
00000102 6f0a            471 	cmp	15,r1
00000104 f10d*           472 	bl	.L185
                         473 --116:         {
                         474 --117:             acc_FuelCsumpCounter = 0;
                         475 --line117
                         476 ..lin.D.3A.5CRenesas_Electronics.5CD1x_RGL.5Crgl_ghs_D1Lx_obj_V1.2E2.2E0.5Cvlib.5Capp.5Cgfx_apps.5Csimple_draw_d1l2.5Ctarget.5Cd1lx_mango_ghs.5Cobj.5Cacc.10::
                         477 .LDWlin10:
00000106 7d070000        478 	st.h	zero,0[r29]
                         479 --118:             if ((RET_OK == res) && (PWR_CRANK == pwrMode || PWR_RUN ==pwrMode))
0000010a 61e2            480 	cmp	1,r28
0000010c ba0d*           481 	bne	.L185
0000010e a30f0300        482 	ld.bu	3[sp],r1
00000112 630a            483 	cmp	3,r1
00000114 d205*           484 	be	.L181
00000116 a30f0300        485 	ld.bu	3[sp],r1
0000011a 620a            486 	cmp	2,r1
0000011c ba05*           487 	bne	.L185
                         488 .L181:
                         489 --119:             {
                         490 --120:                 acc_InstantFuelCsump_1500ms();                                       /*获取瞬时油耗*/
                         491 --line120
                         492 ..lin.D.3A.5CRenesas_Electronics.5CD1x_RGL.5Crgl_ghs_D1Lx_obj_V1.2E2.2E0.5Cvlib.5Capp.5Cgfx_apps.5Csimple_draw_d1l2.5Ctarget.5Cd1lx_mango_ghs.5Cobj.5Cacc.11::
                         493 .LDWlin11:
                         494 	jarl	_acc_InstantFuelCsump_1500ms,lp
                         494 <EXPANSION BEGIN>
                         494 jarl22 _acc_InstantFuelCsump_1500ms , lp 
0000011e 80ff7c00*       494 <EXPANSION END>
                         495 .L185:
                         496 --121:             }
                         497 --122:             else
                         498 --123:             {
                         499 --124:                 /*do nothing  没有值发送空给msg*/
                         500 --125:             }
                         501 --126:         }
                         502 --127:     	else
                         503 --128:     	{
                         504 --129:     		/*do nothing*/
                         505 --130:     	}
                         506 --131:     	acc_JudgeEvent(); 
                         507 --line131

                                                                      Page 10
                                                              C:\Users\YINGAO~1\AppData\Local\Temp\gh_00001q41.si
                         508 ..lin.D.3A.5CRenesas_Electronics.5CD1x_RGL.5Crgl_ghs_D1Lx_obj_V1.2E2.2E0.5Cvlib.5Capp.5Cgfx_apps.5Csimple_draw_d1l2.5Ctarget.5Cd1lx_mango_ghs.5Cobj.5Cacc.12::
                         509 .LDWlin12:
                         510 	jarl	_acc_JudgeEvent,lp
                         510 <EXPANSION BEGIN>
                         510 jarl22 _acc_JudgeEvent , lp 
00000122 80ff8a05*       510 <EXPANSION END>
                         511 .L186:
                         512 --132: 	}
                         513 --133:     else
                         514 --134:     {
                         515 --135:         /*do nothing*/
                         516 --136:     }   
                         517 --137: }
                         518 --line137
                         519 ..lin.D.3A.5CRenesas_Electronics.5CD1x_RGL.5Crgl_ghs_D1Lx_obj_V1.2E2.2E0.5Cvlib.5Capp.5Cgfx_apps.5Csimple_draw_d1l2.5Ctarget.5Cd1lx_mango_ghs.5Cobj.5Cacc.13::
                         520 .LDWlin13:
00000126 0000            521 	nop
                         522 --	    .ef
                         523 .LDW41:
00000128 4206ff30        524 	dispose	1,{r26,r27,r28,r29,r31},[lp]
                         525 	.type	_ACC_Process_100ms,@function
                         526 	.size	_ACC_Process_100ms,.-_ACC_Process_100ms
                         527 	.align	2
                         528 .LDW51:
                         529 --_pwrMode	3[sp]	local
                         530 --_res	r28	local
                         531 
                         532 	.data
                         533 	.text
                         534 
                         535 
                         536 --139: /***************************************************
                         537 --140: * Function: ACC_GetGearSts
                         538 --141: * Description: provide vehicle gear information
                         539 --142: * Parameters:  GearType:the type of the gear
                         540 --143: * Returns: FAIL/OK/INVALID
                         541 --144: * $Create & Verlog:$
                         542 --145: * Author: Xiaojie.Zheng     Date:2016-12-06  Version:V1.0
                         543 --146: ****************************************************/
                         544 --147: U8 ACC_GetGearSts(AccGearInfo_ST* GearType)
                         545 	.align	2
                         546 	.align	2
                         547 	.global	_ACC_GetGearSts
                         548 _ACC_GetGearSts:
0000012c 06f0            549 	mov	r6,ep
                         550 --	    .bf
                         551 .LDW61:
                         552 --148: {
                         553 --149:     U8 acc_res = RET_FAIL;
0000012e 000a            554 	mov	0,r1
                         555 --151:     if (FALSE == acc_InitSts)
00000130 2e0600000000*   556 	mov	_acc_InitSts,r14
00000136 8e770100        557 	ld.bu	0[r14],r14
0000013a e071            558 	cmp	zero,r14
0000013c ba05*           559 	bne	.L293
                         560 --152:     {
                         561 --153:         acc_res = RET_FAIL;
                         562 --line153
                         563 ..lin.D.3A.5CRenesas_Electronics.5CD1x_RGL.5Crgl_ghs_D1Lx_obj_V1.2E2.2E0.5Cvlib.5Capp.5Cgfx_apps.5Csimple_draw_d1l2.5Ctarget.5Cd1lx_mango_ghs.5Cobj.5Cacc.14::
                         564 .LDWlin14:
0000013e 000a            565 	mov	0,r1

                                                                      Page 11
                                                              C:\Users\YINGAO~1\AppData\Local\Temp\gh_00001q41.si
00000140 f50d*           566 	br	.L295
                         567 .L293:
                         568 --154:     }
                         569 --155:     else if (NULL_PTR == GearType)
                         570 --line155
                         571 ..lin.D.3A.5CRenesas_Electronics.5CD1x_RGL.5Crgl_ghs_D1Lx_obj_V1.2E2.2E0.5Cvlib.5Capp.5Cgfx_apps.5Csimple_draw_d1l2.5Ctarget.5Cd1lx_mango_ghs.5Cobj.5Cacc.15::
                         572 .LDWlin15:
00000142 e0f1            573 	cmp	zero,ep
00000144 ba05*           574 	bne	.L296
                         575 --156:     {
                         576 --157:         acc_res = RET_INVALID;
                         577 --line157
                         578 ..lin.D.3A.5CRenesas_Electronics.5CD1x_RGL.5Crgl_ghs_D1Lx_obj_V1.2E2.2E0.5Cvlib.5Capp.5Cgfx_apps.5Csimple_draw_d1l2.5Ctarget.5Cd1lx_mango_ghs.5Cobj.5Cacc.16::
                         579 .LDWlin16:
00000146 020a            580 	mov	2,r1
00000148 b50d*           581 	br	.L295
                         582 .L296:
                         583 --158:     }
                         584 --159:     else
                         585 --160:     {
                         586 --161:     	*GearType = acc_GearOutputData.display;
                         587 --line161
                         588 ..lin.D.3A.5CRenesas_Electronics.5CD1x_RGL.5Crgl_ghs_D1Lx_obj_V1.2E2.2E0.5Cvlib.5Capp.5Cgfx_apps.5Csimple_draw_d1l2.5Ctarget.5Cd1lx_mango_ghs.5Cobj.5Cacc.17::
                         589 .LDWlin17:
0000014a 2e0600000000*   590 	mov	_acc_GearOutputData+12,r14
00000150 2e6f0100        591 	ld.w	0[r14],r13
00000154 2e770500        592 	ld.w	4[r14],r14
00000158 016d            593 	sst.w	r13,0[ep]
0000015a 0375            594 	sst.w	r14,4[ep]
                         595 --162:     	acc_res = RET_OK;
0000015c 010a            596 	mov	1,r1
                         597 .L295:
                         598 --163:     }
                         599 --164: 	return acc_res;
0000015e 0150            600 	mov	r1,r10
                         601 --	    .ef
                         602 .LDW71:
00000160 7f00            603 	jmp	[lp]
                         604 	.type	_ACC_GetGearSts,@function
                         605 	.size	_ACC_GetGearSts,.-_ACC_GetGearSts
                         606 	.align	2
                         607 .LDW81:
                         608 --_acc_res	r1	local
                         609 
                         610 --_GearType	ep	param
                         611 
                         612 	.data
                         613 	.text
                         614 
                         615 --165: }
                         616 
                         617 --167: /***************************************************
                         618 --168: * Function: ACC_GetInstantFuelConsumption
                         619 --169: * Description:  provides instantaneous fuel consumption
                         620 --170: * Parameters:  pRes: Calculate the instantaneous fuel consumption value
                         621 --171:              UnitType:Unit type for instantaneous fuel consumption
                         622 --172: * Returns: FAIL/OK/INVALID
                         623 --173: * $Create & Verlog:$
                         624 --174: * Author: Xiaojie.Zheng     Date:2016-12-06   Version:V1.0
                         625 --175: ****************************************************/
                         626 --176: U8 ACC_GetInstantFuelConsumption(AccInstantFuelcsump_ST *pInsFuelCsump)

                                                                      Page 12
                                                              C:\Users\YINGAO~1\AppData\Local\Temp\gh_00001q41.si
                         627 	.align	2
                         628 	.align	2
                         629 	.global	_ACC_GetInstantFuelConsumption
                         630 _ACC_GetInstantFuelConsumption:
00000162 8007e100        631 	prepare	{r28,r29,r31},0
00000166 06e0            632 	mov	r6,r28
                         633 --	    .bf
                         634 .LDW91:
                         635 --177: {
                         636 --178:     U8 acc_res = RET_FAIL;
00000168 00ea            637 	mov	0,r29
                         638 --180:     if (FALSE == acc_InitSts)
0000016a 210600000000*   639 	mov	_acc_InitSts,r1
00000170 810f0100        640 	ld.bu	0[r1],r1
00000174 e009            641 	cmp	zero,r1
00000176 ba05*           642 	bne	.L360
                         643 --181:     {
                         644 --182:         acc_res = RET_FAIL;
                         645 --line182
                         646 ..lin.D.3A.5CRenesas_Electronics.5CD1x_RGL.5Crgl_ghs_D1Lx_obj_V1.2E2.2E0.5Cvlib.5Capp.5Cgfx_apps.5Csimple_draw_d1l2.5Ctarget.5Cd1lx_mango_ghs.5Cobj.5Cacc.18::
                         647 .LDWlin18:
00000178 00ea            648 	mov	0,r29
0000017a d50d*           649 	br	.L362
                         650 .L360:
                         651 --183:     }
                         652 --184:     else if (NULL_PTR == pInsFuelCsump)
                         653 --line184
                         654 ..lin.D.3A.5CRenesas_Electronics.5CD1x_RGL.5Crgl_ghs_D1Lx_obj_V1.2E2.2E0.5Cvlib.5Capp.5Cgfx_apps.5Csimple_draw_d1l2.5Ctarget.5Cd1lx_mango_ghs.5Cobj.5Cacc.19::
                         655 .LDWlin19:
0000017c e0e1            656 	cmp	zero,r28
0000017e ba05*           657 	bne	.L363
                         658 --185:     {
                         659 --186:         acc_res = RET_INVALID;
                         660 --line186
                         661 ..lin.D.3A.5CRenesas_Electronics.5CD1x_RGL.5Crgl_ghs_D1Lx_obj_V1.2E2.2E0.5Cvlib.5Capp.5Cgfx_apps.5Csimple_draw_d1l2.5Ctarget.5Cd1lx_mango_ghs.5Cobj.5Cacc.20::
                         662 .LDWlin20:
00000180 02ea            663 	mov	2,r29
00000182 950d*           664 	br	.L362
                         665 .L363:
                         666 --187:     }
                         667 --188:     else
                         668 --189:     {
                         669 --190:       
                         670 --191:         memcpy(pInsFuelCsump,&acc_InstantFuel,sizeof(AccInstantFuelcsump_ST));
                         671 --line191
                         672 ..lin.D.3A.5CRenesas_Electronics.5CD1x_RGL.5Crgl_ghs_D1Lx_obj_V1.2E2.2E0.5Cvlib.5Capp.5Cgfx_apps.5Csimple_draw_d1l2.5Ctarget.5Cd1lx_mango_ghs.5Cobj.5Cacc.21::
                         673 .LDWlin21:
00000184 1c30            674 	mov	r28,r6
00000186 0c42            675 	mov	12,r8
00000188 270600000000*   676 	mov	_acc_InstantFuel,r7
                         677 	jarl	_memcpy,lp
                         677 <EXPANSION BEGIN>
                         677 jarl22 _memcpy , lp 
0000018e 80ff0000*       677 <EXPANSION END>
                         678 --192:         acc_res = RET_OK;
                         679 --line192
                         680 ..lin.D.3A.5CRenesas_Electronics.5CD1x_RGL.5Crgl_ghs_D1Lx_obj_V1.2E2.2E0.5Cvlib.5Capp.5Cgfx_apps.5Csimple_draw_d1l2.5Ctarget.5Cd1lx_mango_ghs.5Cobj.5Cacc.22::
                         681 .LDWlin22:
00000192 01ea            682 	mov	1,r29
                         683 .L362:
                         684 --193:     }

                                                                      Page 13
                                                              C:\Users\YINGAO~1\AppData\Local\Temp\gh_00001q41.si
                         685 --194: 	return acc_res;
00000194 1d50            686 	mov	r29,r10
                         687 --	    .ef
                         688 .LDW02:
00000196 4006ff00        689 	dispose	0,{r28,r29,r31},[lp]
                         690 	.type	_ACC_GetInstantFuelConsumption,@function
                         691 	.size	_ACC_GetInstantFuelConsumption,.-_ACC_GetInstantFuelConsumption
                         692 	.align	2
                         693 .LDW12:
                         694 --_acc_res	r29	local
                         695 
                         696 --_pInsFuelCsump	r28	param
                         697 
                         698 	.data
                         699 	.text
                         700 
                         701 --195: }
                         702 
                         703 --198: /***************************************************
                         704 --199: * Function: acc_InstantFuelCsump_1500ms
                         705 --200: * Description: Calculate instantaneous fuel consumption
                         706 --201: * Parameters:  input: none
                         707 --202: * Returns: none
                         708 --203: * $Create & Verlog:$
                         709 --204: * Author: Xiaojie.Zheng     Date:2016-12-06   Version:V1.0
                         710 --205: ****************************************************/
                         711 --206: static void acc_InstantFuelCsump_1500ms(void)       /*1.5s更新*/
                         712 	.align	2
                         713 	.align	2
                         714 	.global	_acc_InstantFuelCsump_1500ms..D.3A.5CRenesas_Electronics.5CD1x_RGL.5Crgl_ghs_D1Lx_obj_V1.2E2.2E0.5Cvlib.5Capp.5Cgfx_apps.5Csimple_draw_d1l2.5Ctarget.5Cd1lx_mango_ghs.5Cobj.5Cacc.
                         715 _acc_InstantFuelCsump_1500ms..D.3A.5CRenesas_Electronics.5CD1x_RGL.5Crgl_ghs_D1Lx_obj_V1.2E2.2E0.5Cvlib.5Capp.5Cgfx_apps.5Csimple_draw_d1l2.5Ctarget.5Cd1lx_mango_ghs.5Cobj.5Cacc.:
                         716 _acc_InstantFuelCsump_1500ms:
0000019a 9207e170        717 	prepare	{r25,r26,r27,r28,r29,r31},9
0000019e 3d0600000000*   718 	mov	_acc_ODOValuePre,r29
000001a4 3c0600000000*   719 	mov	_acc_InstantFuel,r28
000001aa 40d6a041        720 	movhi	hi(1101004800),zero,r26
000001ae 390600000000*   721 	mov	_acc_NetFcDec,r25
                         722 --	    .bf
                         723 .LDW22:
                         724 --207: {
                         725 --208:     U32 acc_Odovalue = 0;                                           /*里程表行程*/
000001b4 63070500        726 	st.w	zero,4[sp]
                         727 --209:     U16 acc_NetFuelcsump = 0;                                   /*从EMS获取的油耗值*/
000001b8 63070a00        728 	st.h	zero,10[sp]
                         729 --210:     U16 acc_NetVehSpeed = 0;                                   /*从ABS/DSC获取车辆速度*/
000001bc 63071800        730 	st.h	zero,24[sp]
                         731 --211:     BOOL acc_NetVehSpeedV = INVALID;                                 /*从ABS/DSC获取车辆速度有效性*/
000001c0 010a            732 	mov	1,r1
000001c2 430f0100        733 	st.b	r1,1[sp]
                         734 --212:     float cur_fuel;
                         735 --213:     float max_fuel;
                         736 --214:     float min_fuel;
                         737 --215: 	float factor;
                         738 --216:     U16 flcsumpValue = 0;
000001c6 63071a00        739 	st.h	zero,26[sp]
000001ca 005a            740 	mov	0,r11
                         741 --217:     U8 res = RET_FAIL;
000001cc 43070300        742 	st.b	zero,3[sp]
000001d0 005a            743 	mov	0,r11
                         744 --218:     U8 fcsignalout = 0;
000001d2 43070200        745 	st.b	zero,2[sp]

                                                                      Page 14
                                                              C:\Users\YINGAO~1\AppData\Local\Temp\gh_00001q41.si
                         746 --219:     
                         747 --220:     COM_GetSignalValue_16(INDEX_COM_RS_VEHSPDAVGDRVN, &acc_NetVehSpeed);
000001d6 20361a00        748 	movea	26,zero,r6
000001da 233e1800        749 	movea	24,sp,r7
                         750 	jarl	_COM_GetSignalValue_16,lp
                         750 <EXPANSION BEGIN>
                         750 jarl22 _COM_GetSignalValue_16 , lp 
000001de 80ff0000*       750 <EXPANSION END>
                         751 --221:     COM_GetSignalValue_8(INDEX_COM_RS_VEHSPDAVGDRVNV, &acc_NetVehSpeedV);
                         752 --line221
                         753 ..lin.D.3A.5CRenesas_Electronics.5CD1x_RGL.5Crgl_ghs_D1Lx_obj_V1.2E2.2E0.5Cvlib.5Capp.5Cgfx_apps.5Csimple_draw_d1l2.5Ctarget.5Cd1lx_mango_ghs.5Cobj.5Cacc.23::
                         754 .LDWlin23:
000001e2 20361b00        755 	movea	27,zero,r6
000001e6 233e0100        756 	movea	1,sp,r7
                         757 	jarl	_COM_GetSignalValue_8,lp
                         757 <EXPANSION BEGIN>
                         757 jarl22 _COM_GetSignalValue_8 , lp 
000001ea 80ff0000*       757 <EXPANSION END>
                         758 --222:     COM_GetSignalValue_16(INDEX_COM_RS_FUELCSUMP, &acc_NetFuelcsump);
                         759 --line222
                         760 ..lin.D.3A.5CRenesas_Electronics.5CD1x_RGL.5Crgl_ghs_D1Lx_obj_V1.2E2.2E0.5Cvlib.5Capp.5Cgfx_apps.5Csimple_draw_d1l2.5Ctarget.5Cd1lx_mango_ghs.5Cobj.5Cacc.24::
                         761 .LDWlin24:
000001ee 20366c00        762 	movea	108,zero,r6
000001f2 233e0a00        763 	movea	10,sp,r7
                         764 	jarl	_COM_GetSignalValue_16,lp
                         764 <EXPANSION BEGIN>
                         764 jarl22 _COM_GetSignalValue_16 , lp 
000001f6 80ff0000*       764 <EXPANSION END>
                         765 --223:     NWD_GetNodeMissing(INDEX_FC_SOT, &fcsignalout);
                         766 --line223
                         767 ..lin.D.3A.5CRenesas_Electronics.5CD1x_RGL.5Crgl_ghs_D1Lx_obj_V1.2E2.2E0.5Cvlib.5Capp.5Cgfx_apps.5Csimple_draw_d1l2.5Ctarget.5Cd1lx_mango_ghs.5Cobj.5Cacc.25::
                         768 .LDWlin25:
000001fa 0132            769 	mov	1,r6
000001fc 233e0200        770 	movea	2,sp,r7
                         771 	jarl	_NWD_GetNodeMissing,lp
                         771 <EXPANSION BEGIN>
                         771 jarl22 _NWD_GetNodeMissing , lp 
00000200 80ff0000*       771 <EXPANSION END>
                         772 --224:     
                         773 --225:     res = ODO_GetODOValue(INDEX_ODO_METER, &acc_Odovalue);
                         774 --line225
                         775 ..lin.D.3A.5CRenesas_Electronics.5CD1x_RGL.5Crgl_ghs_D1Lx_obj_V1.2E2.2E0.5Cvlib.5Capp.5Cgfx_apps.5Csimple_draw_d1l2.5Ctarget.5Cd1lx_mango_ghs.5Cobj.5Cacc.26::
                         776 .LDWlin26:
00000204 0432            777 	mov	4,r6
00000206 233e0400        778 	movea	4,sp,r7
                         779 	jarl	_ODO_GetODOValue,lp
                         779 <EXPANSION BEGIN>
                         779 jarl22 _ODO_GetODOValue , lp 
0000020a 80ff0000*       779 <EXPANSION END>
0000020e 43570300        780 	st.b	r10,3[sp]
                         781 --227:     if(TRUE == fcsignalout)
                         782 --line227
                         783 ..lin.D.3A.5CRenesas_Electronics.5CD1x_RGL.5Crgl_ghs_D1Lx_obj_V1.2E2.2E0.5Cvlib.5Capp.5Cgfx_apps.5Csimple_draw_d1l2.5Ctarget.5Cd1lx_mango_ghs.5Cobj.5Cacc.27::
                         784 .LDWlin27:
00000212 830f0300        785 	ld.bu	2[sp],r1
00000216 610a            786 	cmp	1,r1
00000218 da05*           787 	bne	.L424
                         788 --228:     {
                         789 --229:         acc_InstantFuel.valid = INVALID;
                         790 --line229
                         791 ..lin.D.3A.5CRenesas_Electronics.5CD1x_RGL.5Crgl_ghs_D1Lx_obj_V1.2E2.2E0.5Cvlib.5Capp.5Cgfx_apps.5Csimple_draw_d1l2.5Ctarget.5Cd1lx_mango_ghs.5Cobj.5Cacc.28::

                                                                      Page 15
                                                              C:\Users\YINGAO~1\AppData\Local\Temp\gh_00001q41.si
                         792 .LDWlin28:
0000021a 010a            793 	mov	1,r1
0000021c 5c0f0800        794 	st.b	r1,8[r28]
00000220 b505*           795 	br	.L426
                         796 .L424:
                         797 --230:     }
                         798 --231:     else
                         799 --232:     {
                         800 --233:         acc_InstantFuel.valid = VALID;
                         801 --line233
                         802 ..lin.D.3A.5CRenesas_Electronics.5CD1x_RGL.5Crgl_ghs_D1Lx_obj_V1.2E2.2E0.5Cvlib.5Capp.5Cgfx_apps.5Csimple_draw_d1l2.5Ctarget.5Cd1lx_mango_ghs.5Cobj.5Cacc.29::
                         803 .LDWlin29:
00000222 5c070800        804 	st.b	zero,8[r28]
                         805 .L426:
                         806 --234:     }
                         807 --235:     
                         808 --236:     max_fuel = insTCFuelConsUpperLimitPrm*5;
00000226 9d0f0d00        809 	ld.bu	12[r29],r1
0000022a e50f4002        810 	mul	5,r1,zero
0000022e e00f42dc        811 	cvtf.ws	r1,r27
                         812 --237:     min_fuel = 0+insTCFuelConsLowerLimitPrm*0.5;
00000232 bd0f0d00        813 	ld.bu	13[r29],r1
00000236 405ee03f        814 	movhi	16352,zero,r11
0000023a 0052            815 	mov	0,r10
0000023c f00f5264        816 	cvtf.uwd	r1,r12
00000240 ea677464        817 	mulf.d	r10,r12,r12
00000244 e367525c        818 	cvtf.ds	r12,r11
00000248 635f0d00        819 	st.w	r11,12[sp]
                         820 --239: 	if(max_fuel > 20)
0000024c fad9            821 	cmp	r26,r27
0000024e a705*           822 	ble	.L429
                         823 --240: 	{
                         824 --241: 		max_fuel = 20;
                         825 --line241
                         826 ..lin.D.3A.5CRenesas_Electronics.5CD1x_RGL.5Crgl_ghs_D1Lx_obj_V1.2E2.2E0.5Cvlib.5Capp.5Cgfx_apps.5Csimple_draw_d1l2.5Ctarget.5Cd1lx_mango_ghs.5Cobj.5Cacc.30::
                         827 .LDWlin30:
00000250 1ad8            828 	mov	r26,r27
                         829 .L429:
                         830 --242: 	}
                         831 --243: 	else
                         832 --244: 	{
                         833 --245: 	}
                         834 --247:     if(acc_NetFuelcsump < acc_FuelCsumpPre)
00000252 fd0f0700        835 	ld.hu	6[r29],r1
00000256 e3770b00        836 	ld.hu	10[sp],r14
0000025a e171            837 	cmp	r1,r14
0000025c c905*           838 	bnl	.L430
                         839 --248:     {
                         840 --249:         acc_NetFcDec = 0;
                         841 --line249
                         842 ..lin.D.3A.5CRenesas_Electronics.5CD1x_RGL.5Crgl_ghs_D1Lx_obj_V1.2E2.2E0.5Cvlib.5Capp.5Cgfx_apps.5Csimple_draw_d1l2.5Ctarget.5Cd1lx_mango_ghs.5Cobj.5Cacc.31::
                         843 .LDWlin31:
0000025e 79070000        844 	st.h	zero,0[r25]
00000262 850d*           845 	br	.L432
                         846 .L430:
                         847 --250:     }
                         848 --251:     else
                         849 --252:     {
                         850 --253:         acc_NetFcDec = acc_NetFuelcsump - acc_FuelCsumpPre;
                         851 --line253
                         852 ..lin.D.3A.5CRenesas_Electronics.5CD1x_RGL.5Crgl_ghs_D1Lx_obj_V1.2E2.2E0.5Cvlib.5Capp.5Cgfx_apps.5Csimple_draw_d1l2.5Ctarget.5Cd1lx_mango_ghs.5Cobj.5Cacc.32::

                                                                      Page 16
                                                              C:\Users\YINGAO~1\AppData\Local\Temp\gh_00001q41.si
                         853 .LDWlin32:
00000264 e30f0b00        854 	ld.hu	10[sp],r1
00000268 fd770700        855 	ld.hu	6[r29],r14
0000026c ae09            856 	sub	r14,r1
0000026e 790f0000        857 	st.h	r1,0[r25]
                         858 .L432:
                         859 --254:     }
                         860 --255:     if ((INVALID == acc_NetVehSpeedV)/* || (FALSE == acc_NetEnRunA)*/)
00000272 a30f0100        861 	ld.bu	1[sp],r1
00000276 610a            862 	cmp	1,r1
00000278 ea05*           863 	bne	.L433
                         864 --256:     {
                         865 --257:         acc_InvalidFlag = INVALID;
                         866 --line257
                         867 ..lin.D.3A.5CRenesas_Electronics.5CD1x_RGL.5Crgl_ghs_D1Lx_obj_V1.2E2.2E0.5Cvlib.5Capp.5Cgfx_apps.5Csimple_draw_d1l2.5Ctarget.5Cd1lx_mango_ghs.5Cobj.5Cacc.33::
                         868 .LDWlin33:
0000027a 010a            869 	mov	1,r1
0000027c 5d0f0900        870 	st.b	r1,9[r29]
00000280 80070c01*       871 	br	.L435
                         872 .L433:
                         873 --258:     }
                         874 --259:     else
                         875 --260:     {
                         876 --261:         acc_InvalidFlag = VALID;
                         877 --line261
                         878 ..lin.D.3A.5CRenesas_Electronics.5CD1x_RGL.5Crgl_ghs_D1Lx_obj_V1.2E2.2E0.5Cvlib.5Capp.5Cgfx_apps.5Csimple_draw_d1l2.5Ctarget.5Cd1lx_mango_ghs.5Cobj.5Cacc.34::
                         879 .LDWlin34:
00000284 5d070900        880 	st.b	zero,9[r29]
                         881 --262:         
                         882 --263:         if (VEH_SPD_THRESHOLD > acc_NetVehSpeed)
00000288 e30f1900        883 	ld.hu	24[sp],r1
0000028c 650a            884 	cmp	5,r1
0000028e e91d*           885 	bnl	.L436
                         886 --264:         {
                         887 --265:             cur_fuel = ((float)(acc_NetFcDec*6)/ 2500);
                         888 --line265
                         889 ..lin.D.3A.5CRenesas_Electronics.5CD1x_RGL.5Crgl_ghs_D1Lx_obj_V1.2E2.2E0.5Cvlib.5Capp.5Cgfx_apps.5Csimple_draw_d1l2.5Ctarget.5Cd1lx_mango_ghs.5Cobj.5Cacc.35::
                         890 .LDWlin35:
00000290 f9770100        891 	ld.hu	0[r25],r14
00000294 2d0600401c45    892 	mov	1159479296,r13
0000029a e6774002        893 	mul	6,r14,zero
0000029e e0774274        894 	cvtf.ws	r14,r14
000002a2 ed776e0c        895 	divf.s	r13,r14,r1
                         896 --266:             if(insTCFuelCapUpperLimitPrm <= cur_fuel)
000002a6 9d771100        897 	ld.bu	16[r29],r14
000002aa f0774274        898 	cvtf.uws	r14,r14
000002ae ee0f2064        899 	cmpf.s	lt,r1,r14,0
000002b2 e0070004        900 	trfsr	0
000002b6 d205*           901 	be	.L440
                         902 --267:             {
                         903 --268:                 cur_fuel = insTCFuelCapUpperLimitPrm;
                         904 --line268
                         905 ..lin.D.3A.5CRenesas_Electronics.5CD1x_RGL.5Crgl_ghs_D1Lx_obj_V1.2E2.2E0.5Cvlib.5Capp.5Cgfx_apps.5Csimple_draw_d1l2.5Ctarget.5Cd1lx_mango_ghs.5Cobj.5Cacc.36::
                         906 .LDWlin36:
000002b8 9d771100        907 	ld.bu	16[r29],r14
000002bc f077420c        908 	cvtf.uws	r14,r1
                         909 .L440:
                         910 --269:             }
                         911 --270:             else
                         912 --271:             {
                         913 --272:             }

                                                                      Page 17
                                                              C:\Users\YINGAO~1\AppData\Local\Temp\gh_00001q41.si
                         914 --273:             acc_InstantFuel.InstantFuel = cur_fuel;
000002c0 7c0f0100        915 	st.w	r1,0[r28]
                         916 --274:             acc_InstantFuel.type = TYPE_ACC_LITERPERHOUR;
000002c4 7c070500        917 	st.w	zero,4[r28]
000002c8 a55d*           918 	br	.L441
                         919 .L436:
                         920 --275:         }
                         921 --276:         else
                         922 --277:         {
                         923 --278: 			
                         924 --279:             if (acc_ODOValuePre != acc_Odovalue)
                         925 --line279
                         926 ..lin.D.3A.5CRenesas_Electronics.5CD1x_RGL.5Crgl_ghs_D1Lx_obj_V1.2E2.2E0.5Cvlib.5Capp.5Cgfx_apps.5Csimple_draw_d1l2.5Ctarget.5Cd1lx_mango_ghs.5Cobj.5Cacc.37::
                         927 .LDWlin37:
000002ca 230f0500        928 	ld.w	4[sp],r1
000002ce 3d770100        929 	ld.w	0[r29],r14
000002d2 e171            930 	cmp	r1,r14
000002d4 8255*           931 	be	.L442
                         932 --280:             {
                         933 --281: 		
                         934 --282: 				acc_NetOdoDec = acc_Odovalue - acc_ODOValuePre;
                         935 --line282
                         936 ..lin.D.3A.5CRenesas_Electronics.5CD1x_RGL.5Crgl_ghs_D1Lx_obj_V1.2E2.2E0.5Cvlib.5Capp.5Cgfx_apps.5Csimple_draw_d1l2.5Ctarget.5Cd1lx_mango_ghs.5Cobj.5Cacc.38::
                         937 .LDWlin38:
000002d6 230f0500        938 	ld.w	4[sp],r1
000002da 3d770100        939 	ld.w	0[r29],r14
000002de 2b0600000000*   940 	mov	_acc_NetOdoDec,r11
000002e4 ae09            941 	sub	r14,r1
000002e6 6b0f0000        942 	st.h	r1,0[r11]
                         943 --283: 				factor = (DIAG_GetTCFuelConsCorFactor()/100);
                         944 	jarl	_DIAG_GetTCFuelConsCorFactor,lp
                         944 <EXPANSION BEGIN>
                         944 jarl22 _DIAG_GetTCFuelConsCorFactor , lp 
000002ea 80ff0000*       944 <EXPANSION END>
000002ee 0a08            945 	mov	r10,r1
000002f0 20766400        946 	movea	100,zero,r14
000002f4 ee0ffc02        947 	divq	r14,r1,zero
000002f8 e00f425c        948 	cvtf.ws	r1,r11
000002fc 635f1100        949 	st.w	r11,16[sp]
                         950 --284: 				cur_fuel = 	((acc_NetFcDec * factor)/( 10*acc_NetOdoDec));
                         951 --line284
                         952 ..lin.D.3A.5CRenesas_Electronics.5CD1x_RGL.5Crgl_ghs_D1Lx_obj_V1.2E2.2E0.5Cvlib.5Capp.5Cgfx_apps.5Csimple_draw_d1l2.5Ctarget.5Cd1lx_mango_ghs.5Cobj.5Cacc.39::
                         953 .LDWlin39:
00000300 f9770100        954 	ld.hu	0[r25],r14
00000304 235f1100        955 	ld.w	16[sp],r11
00000308 f0774274        956 	cvtf.uws	r14,r14
0000030c eb77646c        957 	mulf.s	r11,r14,r13
00000310 2e0600000000*   958 	mov	_acc_NetOdoDec,r14
00000316 ee770100        959 	ld.hu	0[r14],r14
0000031a ea774002        960 	mul	10,r14,zero
0000031e e0774274        961 	cvtf.ws	r14,r14
00000322 ee6f6e0c        962 	divf.s	r14,r13,r1
                         963 --285: 				acc_InstantFuel.type = TYPE_ACC_LITERPERKILOMETER;
00000326 0172            964 	mov	1,r14
00000328 7c770500        965 	st.w	r14,4[r28]
                         966 --287:                 if(0 != insTCFuelConsUpperLimitPrm)
0000032c 9d770d00        967 	ld.bu	12[r29],r14
00000330 e071            968 	cmp	zero,r14
00000332 820d*           969 	be	.L444
                         970 --288:                 {
                         971 --289:                     if(cur_fuel > max_fuel) cur_fuel = max_fuel;

                                                                      Page 18
                                                              C:\Users\YINGAO~1\AppData\Local\Temp\gh_00001q41.si
                         972 --line289
                         973 ..lin.D.3A.5CRenesas_Electronics.5CD1x_RGL.5Crgl_ghs_D1Lx_obj_V1.2E2.2E0.5Cvlib.5Capp.5Cgfx_apps.5Csimple_draw_d1l2.5Ctarget.5Cd1lx_mango_ghs.5Cobj.5Cacc.40::
                         974 .LDWlin40:
00000334 fb0f2274        975 	cmpf.s	le,r1,r27,1
00000338 e0070204        976 	trfsr	1
0000033c e205*           977 	be	.L448
                         978 --line289
                         979 ..lin.D.3A.5CRenesas_Electronics.5CD1x_RGL.5Crgl_ghs_D1Lx_obj_V1.2E2.2E0.5Cvlib.5Capp.5Cgfx_apps.5Csimple_draw_d1l2.5Ctarget.5Cd1lx_mango_ghs.5Cobj.5Cacc.41::
                         980 .LDWlin41:
0000033e 1b08            981 	mov	r27,r1
00000340 c505*           982 	br	.L448
                         983 .L444:
                         984 --290:                 }
                         985 --291:                 else
                         986 --292:                 {
                         987 --293:                 	if(cur_fuel > 20)
                         988 --line293
                         989 ..lin.D.3A.5CRenesas_Electronics.5CD1x_RGL.5Crgl_ghs_D1Lx_obj_V1.2E2.2E0.5Cvlib.5Capp.5Cgfx_apps.5Csimple_draw_d1l2.5Ctarget.5Cd1lx_mango_ghs.5Cobj.5Cacc.42::
                         990 .LDWlin42:
00000342 fa09            991 	cmp	r26,r1
00000344 a705*           992 	ble	.L448
                         993 --294: 					{
                         994 --295: 						cur_fuel = 20;
                         995 --line295
                         996 ..lin.D.3A.5CRenesas_Electronics.5CD1x_RGL.5Crgl_ghs_D1Lx_obj_V1.2E2.2E0.5Cvlib.5Capp.5Cgfx_apps.5Csimple_draw_d1l2.5Ctarget.5Cd1lx_mango_ghs.5Cobj.5Cacc.43::
                         997 .LDWlin43:
00000346 1a08            998 	mov	r26,r1
                         999 .L448:
                        1000 --296: 					}
                        1001 --297: 					else
                        1002 --298: 					{
                        1003 --299: 					}
                        1004 --300:                 
                        1005 --301:                 }
                        1006 --302:                 if(0 != insTCFuelConsLowerLimitPrm)
00000348 bd770d00       1007 	ld.bu	13[r29],r14
0000034c e071           1008 	cmp	zero,r14
0000034e b20d*          1009 	be	.L452
                        1010 --303:                 {
                        1011 --304:                     if(cur_fuel < min_fuel) cur_fuel = min_fuel;
                        1012 --line304
                        1013 ..lin.D.3A.5CRenesas_Electronics.5CD1x_RGL.5Crgl_ghs_D1Lx_obj_V1.2E2.2E0.5Cvlib.5Capp.5Cgfx_apps.5Csimple_draw_d1l2.5Ctarget.5Cd1lx_mango_ghs.5Cobj.5Cacc.44::
                        1014 .LDWlin44:
00000350 235f0d00       1015 	ld.w	12[sp],r11
00000354 e15f2474       1016 	cmpf.s	le,r11,r1,2
00000358 e0070404       1017 	trfsr	2
0000035c 920d*          1018 	be	.L456
                        1019 --line304
                        1020 ..lin.D.3A.5CRenesas_Electronics.5CD1x_RGL.5Crgl_ghs_D1Lx_obj_V1.2E2.2E0.5Cvlib.5Capp.5Cgfx_apps.5Csimple_draw_d1l2.5Ctarget.5Cd1lx_mango_ghs.5Cobj.5Cacc.45::
                        1021 .LDWlin45:
0000035e 230f0d00       1022 	ld.w	12[sp],r1
00000362 e505*          1023 	br	.L456
                        1024 .L452:
                        1025 --305:                 }
                        1026 --306:                 else
                        1027 --307:                 {
                        1028 --308:                 	if(cur_fuel <= 0) 
                        1029 --line308
                        1030 ..lin.D.3A.5CRenesas_Electronics.5CD1x_RGL.5Crgl_ghs_D1Lx_obj_V1.2E2.2E0.5Cvlib.5Capp.5Cgfx_apps.5Csimple_draw_d1l2.5Ctarget.5Cd1lx_mango_ghs.5Cobj.5Cacc.46::
                        1031 .LDWlin46:
00000364 406e8000       1032 	movhi	hi(8388608),zero,r13

                                                                      Page 19
                                                              C:\Users\YINGAO~1\AppData\Local\Temp\gh_00001q41.si
00000368 ed09           1033 	cmp	r13,r1
0000036a ae05*          1034 	bge	.L456
                        1035 --309:             		{
                        1036 --310:             			cur_fuel = 0;
                        1037 --line310
                        1038 ..lin.D.3A.5CRenesas_Electronics.5CD1x_RGL.5Crgl_ghs_D1Lx_obj_V1.2E2.2E0.5Cvlib.5Capp.5Cgfx_apps.5Csimple_draw_d1l2.5Ctarget.5Cd1lx_mango_ghs.5Cobj.5Cacc.47::
                        1039 .LDWlin47:
0000036c 000a           1040 	mov	0,r1
                        1041 .L456:
                        1042 --311:             		}
                        1043 --312: 					else
                        1044 --313: 					{
                        1045 --314: 					}
                        1046 --315:                 }
                        1047 --316:                 acc_InstantFuel.InstantFuel = cur_fuel;
0000036e 7c0f0100       1048 	st.w	r1,0[r28]
00000372 d505*          1049 	br	.L441
                        1050 .L442:
                        1051 --318:             }
                        1052 --319:             else
                        1053 --320:             {
                        1054 --321:                cur_fuel = min_fuel;
                        1055 --line321
                        1056 ..lin.D.3A.5CRenesas_Electronics.5CD1x_RGL.5Crgl_ghs_D1Lx_obj_V1.2E2.2E0.5Cvlib.5Capp.5Cgfx_apps.5Csimple_draw_d1l2.5Ctarget.5Cd1lx_mango_ghs.5Cobj.5Cacc.48::
                        1057 .LDWlin48:
00000374 230f0d00       1058 	ld.w	12[sp],r1
                        1059 --322:                acc_InstantFuel.InstantFuel = cur_fuel;
00000378 7c0f0100       1060 	st.w	r1,0[r28]
                        1061 .L441:
                        1062 --323:             }
                        1063 --324:         }
                        1064 --326:         acc_FuelCsumpPre = acc_NetFuelcsump;
0000037c e3770b00       1065 	ld.hu	10[sp],r14
00000380 7d770600       1066 	st.h	r14,6[r29]
                        1067 --327:         acc_ODOValuePre = acc_Odovalue;
00000384 23770500       1068 	ld.w	4[sp],r14
00000388 7d770100       1069 	st.w	r14,0[r29]
                        1070 .L435:
                        1071 --328:     }
                        1072 --329: }
0000038c 0000           1073 	nop
                        1074 --	    .ef
                        1075 .LDW32:
0000038e 5206ff70       1076 	dispose	9,{r25,r26,r27,r28,r29,r31},[lp]
                        1077 	.type	_acc_InstantFuelCsump_1500ms,@function
                        1078 	.size	_acc_InstantFuelCsump_1500ms,.-_acc_InstantFuelCsump_1500ms
                        1079 	.type	_acc_InstantFuelCsump_1500ms..D.3A.5CRenesas_Electronics.5CD1x_RGL.5Crgl_ghs_D1Lx_obj_V1.2E2.2E0.5Cvlib.5Capp.5Cgfx_apps.5Csimple_draw_d1l2.5Ctarget.5Cd1lx_mango_ghs.5Cobj.5Cacc.,@function
                        1080 	.size	_acc_InstantFuelCsump_1500ms..D.3A.5CRenesas_Electronics.5CD1x_RGL.5Crgl_ghs_D1Lx_obj_V1.2E2.2E0.5Cvlib.5Capp.5Cgfx_apps.5Csimple_draw_d1l2.5Ctarget.5Cd1lx_mango_ghs.5Cobj.5Cacc.,.-_acc_InstantFuelCsump_1500ms..D.3A.5CRenesas_Electronics.5CD1x_RGL.5Crgl_ghs_D1Lx_obj_V1.2E2.2E0.5Cvlib.5Capp.5Cgfx_apps.5Csimple_draw_d1l2.5Ctarget.5Cd1lx_mango_ghs.5Cobj.5Cacc.
                        1081 	.align	2
                        1082 .LDW42:
                        1083 --_acc_Odovalue	4[sp]	local
                        1084 --_acc_NetFuelcsump	10[sp]	local
                        1085 --_acc_NetVehSpeed	24[sp]	local
                        1086 --_acc_NetVehSpeedV	1[sp]	local
                        1087 --_cur_fuel	r1	local
                        1088 --_max_fuel	r27	local
                        1089 --_min_fuel	12[sp]	local
                        1090 --_factor	16[sp]	local
                        1091 --_flcsumpValue	26[sp]	local
                        1092 --_res	3[sp]	local
                        1093 --_fcsignalout	2[sp]	local

                                                                      Page 20
                                                              C:\Users\YINGAO~1\AppData\Local\Temp\gh_00001q41.si
                        1094 
                        1095 	.data
                        1096 	.text
                        1097 
                        1098 
                        1099 --331: /***************************************************
                        1100 --332: * Function: acc_GearStatus
                        1101 --333: * Description: determine the gear position of the vehicle
                        1102 --334: * Parameters:  input: none
                        1103 --335: * Returns: none
                        1104 --336: * $Create & Verlog:$
                        1105 --337: * Author: Xiaojie.Zheng     Date:2016-12-06   Version:V1.0
                        1106 --338: ****************************************************/
                        1107 --339: static void acc_GearStatus(void)
                        1108 	.align	2
                        1109 	.align	2
                        1110 	.global	_acc_GearStatus..D.3A.5CRenesas_Electronics.5CD1x_RGL.5Crgl_ghs_D1Lx_obj_V1.2E2.2E0.5Cvlib.5Capp.5Cgfx_apps.5Csimple_draw_d1l2.5Ctarget.5Cd1lx_mango_ghs.5Cobj.5Cacc.
                        1111 _acc_GearStatus..D.3A.5CRenesas_Electronics.5CD1x_RGL.5Crgl_ghs_D1Lx_obj_V1.2E2.2E0.5Cvlib.5Capp.5Cgfx_apps.5Csimple_draw_d1l2.5Ctarget.5Cd1lx_mango_ghs.5Cobj.5Cacc.:
                        1112 _acc_GearStatus:
00000392 8407e170       1113 	prepare	{r25,r26,r27,r28,r29,r31},2
00000396 3d0600000000*  1114 	mov	_acc_GearOutputData,r29
0000039c 1de0           1115 	mov	r29,r28
0000039e 3a0600000000*  1116 	mov	_acc_ClstrDspdTrWrnng,r26
                        1117 --	    .bf
                        1118 .LDW52:
                        1119 --340: {
                        1120 --341: 	U8 testFlag = 0;
000003a4 00ca           1121 	mov	0,r25
                        1122 --342: 	U8 dir = 0;
000003a6 43070200       1123 	st.b	zero,2[sp]
                        1124 --343: 	U8 pwrMode = PWR_OFF;
000003aa 43070300       1125 	st.b	zero,3[sp]
                        1126 --344: 	U8 res = RET_FAIL;
000003ae 00da           1127 	mov	0,r27
                        1128 --345: 	
                        1129 --346: 	U8 tcmNodemissing = FALSE;
000003b0 43070400       1130 	st.b	zero,4[sp]
                        1131 --347: 	U8 gearNodemissing = FALSE;
000003b4 43070500       1132 	st.b	zero,5[sp]
                        1133 --348: 	U8 gearDirNodemissing = FALSE;
000003b8 43070600       1134 	st.b	zero,6[sp]
                        1135 --349:     U8 tcmSotNodemissing = FALSE;
000003bc 43070700       1136 	st.b	zero,7[sp]
                        1137 --350:    
                        1138 --351:     res = PWR_GetPwrMode(&pwrMode);
000003c0 23360300       1139 	movea	3,sp,r6
                        1140 	jarl	_PWR_GetPwrMode,lp
                        1140 <EXPANSION BEGIN>
                        1140 jarl22 _PWR_GetPwrMode , lp 
000003c4 80ff0000*      1140 <EXPANSION END>
000003c8 0ad8           1141 	mov	r10,r27
                        1142 --352: 	/*TCM_HSC1_FrP09 */
                        1143 --353: 	COM_GetSignalValue_BOOL(INDEX_COM_RS_TRNONEMSNRLTDMALFA, &(acc_GearOutputData.TrNonEmsnRltdMalfA));
                        1144 --line353
                        1145 ..lin.D.3A.5CRenesas_Electronics.5CD1x_RGL.5Crgl_ghs_D1Lx_obj_V1.2E2.2E0.5Cvlib.5Capp.5Cgfx_apps.5Csimple_draw_d1l2.5Ctarget.5Cd1lx_mango_ghs.5Cobj.5Cacc.49::
                        1146 .LDWlin49:
000003ca 1c38           1147 	mov	r28,r7
000003cc 20361100       1148 	movea	17,zero,r6
                        1149 	jarl	_COM_GetSignalValue_BOOL,lp
                        1149 <EXPANSION BEGIN>
                        1149 jarl22 _COM_GetSignalValue_BOOL , lp 

                                                                      Page 21
                                                              C:\Users\YINGAO~1\AppData\Local\Temp\gh_00001q41.si
000003d0 80ff0000*      1149 <EXPANSION END>
                        1150 --354: 	/*ECM_HSC1_FrP04 */
                        1151 --355: 	COM_GetSignalValue_8(INDEX_COM_RS_TRSHFTLVRPOS, &(acc_GearOutputData.TrShftLvrPos));
                        1152 --line355
                        1153 ..lin.D.3A.5CRenesas_Electronics.5CD1x_RGL.5Crgl_ghs_D1Lx_obj_V1.2E2.2E0.5Cvlib.5Capp.5Cgfx_apps.5Csimple_draw_d1l2.5Ctarget.5Cd1lx_mango_ghs.5Cobj.5Cacc.50::
                        1154 .LDWlin50:
000003d4 1c3e0400       1155 	addi	4,r28,r7
000003d8 20361200       1156 	movea	18,zero,r6
                        1157 	jarl	_COM_GetSignalValue_8,lp
                        1157 <EXPANSION BEGIN>
                        1157 jarl22 _COM_GetSignalValue_8 , lp 
000003dc 80ff0000*      1157 <EXPANSION END>
                        1158 --356: 	COM_GetSignalValue_8(INDEX_COM_RS_TRSHFTLVRPOSV, &(acc_GearOutputData.TrShftLvrPosV));
                        1159 --line356
                        1160 ..lin.D.3A.5CRenesas_Electronics.5CD1x_RGL.5Crgl_ghs_D1Lx_obj_V1.2E2.2E0.5Cvlib.5Capp.5Cgfx_apps.5Csimple_draw_d1l2.5Ctarget.5Cd1lx_mango_ghs.5Cobj.5Cacc.51::
                        1161 .LDWlin51:
000003e0 1c3e0800       1162 	addi	8,r28,r7
000003e4 20361300       1163 	movea	19,zero,r6
                        1164 	jarl	_COM_GetSignalValue_8,lp
                        1164 <EXPANSION BEGIN>
                        1164 jarl22 _COM_GetSignalValue_8 , lp 
000003e8 80ff0000*      1164 <EXPANSION END>
                        1165 --357: 	COM_GetSignalValue_8(INDEX_COM_RS_DRVRSHFTCTRLTRGTGEAR, &(acc_GearOutputData.DrvrShftCtrlTrgtGear));
                        1166 --line357
                        1167 ..lin.D.3A.5CRenesas_Electronics.5CD1x_RGL.5Crgl_ghs_D1Lx_obj_V1.2E2.2E0.5Cvlib.5Capp.5Cgfx_apps.5Csimple_draw_d1l2.5Ctarget.5Cd1lx_mango_ghs.5Cobj.5Cacc.52::
                        1168 .LDWlin52:
000003ec 1c3e0900       1169 	addi	9,r28,r7
000003f0 20361400       1170 	movea	20,zero,r6
                        1171 	jarl	_COM_GetSignalValue_8,lp
                        1171 <EXPANSION BEGIN>
                        1171 jarl22 _COM_GetSignalValue_8 , lp 
000003f4 80ff0000*      1171 <EXPANSION END>
                        1172 --358: 	COM_GetSignalValue_8(INDEX_COM_RS_TRSHFTPTRNASTS, &(acc_GearOutputData.TrShftPtrnASts));
                        1173 --line358
                        1174 ..lin.D.3A.5CRenesas_Electronics.5CD1x_RGL.5Crgl_ghs_D1Lx_obj_V1.2E2.2E0.5Cvlib.5Capp.5Cgfx_apps.5Csimple_draw_d1l2.5Ctarget.5Cd1lx_mango_ghs.5Cobj.5Cacc.53::
                        1175 .LDWlin53:
000003f8 1c3e0a00       1176 	addi	10,r28,r7
000003fc 20361500       1177 	movea	21,zero,r6
                        1178 	jarl	_COM_GetSignalValue_8,lp
                        1178 <EXPANSION BEGIN>
                        1178 jarl22 _COM_GetSignalValue_8 , lp 
00000400 80ff0000*      1178 <EXPANSION END>
                        1179 --359: 	COM_GetSignalValue_8(INDEX_COM_RS_TRTAPUPTAPDWNMDSTS, &(acc_GearOutputData.TrTapUpTapDwnMdSts));
                        1180 --line359
                        1181 ..lin.D.3A.5CRenesas_Electronics.5CD1x_RGL.5Crgl_ghs_D1Lx_obj_V1.2E2.2E0.5Cvlib.5Capp.5Cgfx_apps.5Csimple_draw_d1l2.5Ctarget.5Cd1lx_mango_ghs.5Cobj.5Cacc.54::
                        1182 .LDWlin54:
00000404 1c3e0b00       1183 	addi	11,r28,r7
00000408 20361600       1184 	movea	22,zero,r6
                        1185 	jarl	_COM_GetSignalValue_8,lp
                        1185 <EXPANSION BEGIN>
                        1185 jarl22 _COM_GetSignalValue_8 , lp 
0000040c 80ff0000*      1185 <EXPANSION END>
                        1186 --360: 	/*ECM_HSC1_FrP09 */
                        1187 --361: 	COM_GetSignalValue_8(INDEX_COM_RS_ECODRVNGDSPSTSGEARSIS, &dir);
                        1188 --line361
                        1189 ..lin.D.3A.5CRenesas_Electronics.5CD1x_RGL.5Crgl_ghs_D1Lx_obj_V1.2E2.2E0.5Cvlib.5Capp.5Cgfx_apps.5Csimple_draw_d1l2.5Ctarget.5Cd1lx_mango_ghs.5Cobj.5Cacc.55::
                        1190 .LDWlin55:
00000410 20368000       1191 	movea	128,zero,r6
00000414 233e0200       1192 	movea	2,sp,r7
                        1193 	jarl	_COM_GetSignalValue_8,lp
                        1193 <EXPANSION BEGIN>

                                                                      Page 22
                                                              C:\Users\YINGAO~1\AppData\Local\Temp\gh_00001q41.si
                        1193 jarl22 _COM_GetSignalValue_8 , lp 
00000418 80ff0000*      1193 <EXPANSION END>
                        1194 --362: 	NWD_GetNodeMissing(INDEX_TCM_NODE,&tcmNodemissing);/*TCM_HSC1_FrP09 */
                        1195 --line362
                        1196 ..lin.D.3A.5CRenesas_Electronics.5CD1x_RGL.5Crgl_ghs_D1Lx_obj_V1.2E2.2E0.5Cvlib.5Capp.5Cgfx_apps.5Csimple_draw_d1l2.5Ctarget.5Cd1lx_mango_ghs.5Cobj.5Cacc.56::
                        1197 .LDWlin56:
0000041c 0c32           1198 	mov	12,r6
0000041e 233e0400       1199 	movea	4,sp,r7
                        1200 	jarl	_NWD_GetNodeMissing,lp
                        1200 <EXPANSION BEGIN>
                        1200 jarl22 _NWD_GetNodeMissing , lp 
00000422 80ff0000*      1200 <EXPANSION END>
                        1201 --363: 	NWD_GetNodeMissing(INDEX_GEAR_NODE_SOT,&gearNodemissing);/*ECM_HSC1_FrP04 */
                        1202 --line363
                        1203 ..lin.D.3A.5CRenesas_Electronics.5CD1x_RGL.5Crgl_ghs_D1Lx_obj_V1.2E2.2E0.5Cvlib.5Capp.5Cgfx_apps.5Csimple_draw_d1l2.5Ctarget.5Cd1lx_mango_ghs.5Cobj.5Cacc.57::
                        1204 .LDWlin57:
00000426 0232           1205 	mov	2,r6
00000428 233e0500       1206 	movea	5,sp,r7
                        1207 	jarl	_NWD_GetNodeMissing,lp
                        1207 <EXPANSION BEGIN>
                        1207 jarl22 _NWD_GetNodeMissing , lp 
0000042c 80ff0000*      1207 <EXPANSION END>
                        1208 --364: 	NWD_GetNodeMissing(INDEX_GEARDIR_NODE_SOT,&gearDirNodemissing);/*ECM_HSC1_FrP09 */
                        1209 --line364
                        1210 ..lin.D.3A.5CRenesas_Electronics.5CD1x_RGL.5Crgl_ghs_D1Lx_obj_V1.2E2.2E0.5Cvlib.5Capp.5Cgfx_apps.5Csimple_draw_d1l2.5Ctarget.5Cd1lx_mango_ghs.5Cobj.5Cacc.58::
                        1211 .LDWlin58:
00000430 0332           1212 	mov	3,r6
00000432 233e0600       1213 	movea	6,sp,r7
                        1214 	jarl	_NWD_GetNodeMissing,lp
                        1214 <EXPANSION BEGIN>
                        1214 jarl22 _NWD_GetNodeMissing , lp 
00000436 80ff0000*      1214 <EXPANSION END>
                        1215 --365: 	NWD_GetNodeMissing(INDEX_TCM_NODE_SOT,&tcmSotNodemissing);/*TCM_HSC1_FrP09 */
                        1216 --line365
                        1217 ..lin.D.3A.5CRenesas_Electronics.5CD1x_RGL.5Crgl_ghs_D1Lx_obj_V1.2E2.2E0.5Cvlib.5Capp.5Cgfx_apps.5Csimple_draw_d1l2.5Ctarget.5Cd1lx_mango_ghs.5Cobj.5Cacc.59::
                        1218 .LDWlin59:
0000043a 0d32           1219 	mov	13,r6
0000043c 233e0700       1220 	movea	7,sp,r7
                        1221 	jarl	_NWD_GetNodeMissing,lp
                        1221 <EXPANSION BEGIN>
                        1221 jarl22 _NWD_GetNodeMissing , lp 
00000440 80ff0000*      1221 <EXPANSION END>
                        1222 --366:     
                        1223 --367: 	
                        1224 --368: 	if(((PWR_RUN == pwrMode) || (PWR_CRANK == pwrMode))
                        1225 --line368
                        1226 ..lin.D.3A.5CRenesas_Electronics.5CD1x_RGL.5Crgl_ghs_D1Lx_obj_V1.2E2.2E0.5Cvlib.5Capp.5Cgfx_apps.5Csimple_draw_d1l2.5Ctarget.5Cd1lx_mango_ghs.5Cobj.5Cacc.60::
                        1227 .LDWlin60:
00000444 a30f0300       1228 	ld.bu	3[sp],r1
00000448 620a           1229 	cmp	2,r1
0000044a d205*          1230 	be	.L743
0000044c a30f0300       1231 	ld.bu	3[sp],r1
00000450 630a           1232 	cmp	3,r1
00000452 fa1d*          1233 	bne	.L740
                        1234 .L743:
00000454 210600000000*  1235 	mov	_insGearShiftUpDwnWarnPrm,r1
0000045a 810f0100       1236 	ld.bu	0[r1],r1
0000045e e009           1237 	cmp	zero,r1
00000460 821d*          1238 	be	.L740
00000462 830f0700       1239 	ld.bu	6[sp],r1
00000466 e009           1240 	cmp	zero,r1

                                                                      Page 23
                                                              C:\Users\YINGAO~1\AppData\Local\Temp\gh_00001q41.si
00000468 ca15*          1241 	bne	.L740
                        1242 --369: 		&& (FALSE != insGearShiftUpDwnWarnPrm)
                        1243 --370: 		&& (FALSE == gearDirNodemissing))
                        1244 --371: 		{
                        1245 --372: 			if(1 == dir)
                        1246 --line372
                        1247 ..lin.D.3A.5CRenesas_Electronics.5CD1x_RGL.5Crgl_ghs_D1Lx_obj_V1.2E2.2E0.5Cvlib.5Capp.5Cgfx_apps.5Csimple_draw_d1l2.5Ctarget.5Cd1lx_mango_ghs.5Cobj.5Cacc.61::
                        1248 .LDWlin61:
0000046a 830f0300       1249 	ld.bu	2[sp],r1
0000046e 610a           1250 	cmp	1,r1
00000470 da05*          1251 	bne	.L745
                        1252 --373: 			{
                        1253 --374: 				acc_GearOutputData.display.Dir = TYPE_GEAR_DIR_UP;
                        1254 --line374
                        1255 ..lin.D.3A.5CRenesas_Electronics.5CD1x_RGL.5Crgl_ghs_D1Lx_obj_V1.2E2.2E0.5Cvlib.5Capp.5Cgfx_apps.5Csimple_draw_d1l2.5Ctarget.5Cd1lx_mango_ghs.5Cobj.5Cacc.62::
                        1256 .LDWlin62:
00000472 010a           1257 	mov	1,r1
00000474 7d0f1100       1258 	st.w	r1,16[r29]
00000478 e50d*          1259 	br	.L751
                        1260 .L745:
                        1261 --375: 			}
                        1262 --376: 			else if(2 == dir)	
                        1263 --line376
                        1264 ..lin.D.3A.5CRenesas_Electronics.5CD1x_RGL.5Crgl_ghs_D1Lx_obj_V1.2E2.2E0.5Cvlib.5Capp.5Cgfx_apps.5Csimple_draw_d1l2.5Ctarget.5Cd1lx_mango_ghs.5Cobj.5Cacc.63::
                        1265 .LDWlin63:
0000047a 830f0300       1266 	ld.bu	2[sp],r1
0000047e 620a           1267 	cmp	2,r1
00000480 da05*          1268 	bne	.L748
                        1269 --377: 			{
                        1270 --378: 				acc_GearOutputData.display.Dir = TYPE_GEAR_DIR_DOWN;
                        1271 --line378
                        1272 ..lin.D.3A.5CRenesas_Electronics.5CD1x_RGL.5Crgl_ghs_D1Lx_obj_V1.2E2.2E0.5Cvlib.5Capp.5Cgfx_apps.5Csimple_draw_d1l2.5Ctarget.5Cd1lx_mango_ghs.5Cobj.5Cacc.64::
                        1273 .LDWlin64:
00000482 020a           1274 	mov	2,r1
00000484 7d0f1100       1275 	st.w	r1,16[r29]
00000488 e505*          1276 	br	.L751
                        1277 .L748:
                        1278 --379: 			}
                        1279 --380: 			else	
                        1280 --381: 			{
                        1281 --382: 				acc_GearOutputData.display.Dir = TYPE_GEAR_DIR_NULL;
                        1282 --line382
                        1283 ..lin.D.3A.5CRenesas_Electronics.5CD1x_RGL.5Crgl_ghs_D1Lx_obj_V1.2E2.2E0.5Cvlib.5Capp.5Cgfx_apps.5Csimple_draw_d1l2.5Ctarget.5Cd1lx_mango_ghs.5Cobj.5Cacc.65::
                        1284 .LDWlin65:
0000048a 7d071100       1285 	st.w	zero,16[r29]
0000048e b505*          1286 	br	.L751
                        1287 .L740:
                        1288 --383: 			}
                        1289 --384: 		}
                        1290 --385: 	    else
                        1291 --386: 	        {
                        1292 --387: 	            acc_GearOutputData.display.Dir = TYPE_GEAR_DIR_NULL;
                        1293 --line387
                        1294 ..lin.D.3A.5CRenesas_Electronics.5CD1x_RGL.5Crgl_ghs_D1Lx_obj_V1.2E2.2E0.5Cvlib.5Capp.5Cgfx_apps.5Csimple_draw_d1l2.5Ctarget.5Cd1lx_mango_ghs.5Cobj.5Cacc.66::
                        1295 .LDWlin66:
00000490 7d071100       1296 	st.w	zero,16[r29]
                        1297 .L751:
                        1298 --388: 	        }
                        1299 --390:   if(((PWR_RUN == pwrMode) || (PWR_CRANK == pwrMode)) && (FALSE == tcmSotNodemissing))
00000494 a30f0300       1300 	ld.bu	3[sp],r1
00000498 620a           1301 	cmp	2,r1

                                                                      Page 24
                                                              C:\Users\YINGAO~1\AppData\Local\Temp\gh_00001q41.si
0000049a e205*          1302 	be	.L754
0000049c a30f0300       1303 	ld.bu	3[sp],r1
000004a0 630a           1304 	cmp	3,r1
000004a2 ea074d01*      1305 	bne	.L752
                        1306 .L754:
000004a6 a30f0700       1307 	ld.bu	7[sp],r1
000004aa e009           1308 	cmp	zero,r1
000004ac ea074301*      1309 	bne	.L752
                        1310 --391:   {
                        1311 --393: 	if (FALSE != acc_GearOutputData.TrNonEmsnRltdMalfA)
                        1312 --line393
                        1313 ..lin.D.3A.5CRenesas_Electronics.5CD1x_RGL.5Crgl_ghs_D1Lx_obj_V1.2E2.2E0.5Cvlib.5Capp.5Cgfx_apps.5Csimple_draw_d1l2.5Ctarget.5Cd1lx_mango_ghs.5Cobj.5Cacc.67::
                        1314 .LDWlin67:
000004b0 9d0f0100       1315 	ld.bu	0[r29],r1
000004b4 e009           1316 	cmp	zero,r1
000004b6 820d*          1317 	be	.L756
                        1318 --394:     {		
                        1319 --395: 		acc_GearOutputData.display.level= TYPE_ACC_GEARLVLEP;
                        1320 --line395
                        1321 ..lin.D.3A.5CRenesas_Electronics.5CD1x_RGL.5Crgl_ghs_D1Lx_obj_V1.2E2.2E0.5Cvlib.5Capp.5Cgfx_apps.5Csimple_draw_d1l2.5Ctarget.5Cd1lx_mango_ghs.5Cobj.5Cacc.68::
                        1322 .LDWlin68:
000004b8 7d070d00       1323 	st.w	zero,12[r29]
                        1324 --396: 		acc_ClstrDspdTrWrnng = TRUE;
000004bc 010a           1325 	mov	1,r1
000004be 5a0f0000       1326 	st.b	r1,0[r26]
000004c2 80071e01*      1327 	br	.L758
                        1328 .L756:
                        1329 --397:     }
                        1330 --398:     else if((FALSE == acc_GearOutputData.TrNonEmsnRltdMalfA) /*&& (FALSE == tcmNodemissing)*/)
                        1331 --line398
                        1332 ..lin.D.3A.5CRenesas_Electronics.5CD1x_RGL.5Crgl_ghs_D1Lx_obj_V1.2E2.2E0.5Cvlib.5Capp.5Cgfx_apps.5Csimple_draw_d1l2.5Ctarget.5Cd1lx_mango_ghs.5Cobj.5Cacc.69::
                        1333 .LDWlin69:
000004c6 9d0f0100       1334 	ld.bu	0[r29],r1
000004ca e009           1335 	cmp	zero,r1
000004cc ea070f01*      1336 	bne	.L759
                        1337 --399:     {
                        1338 --400:         acc_ClstrDspdTrWrnng = FALSE;
                        1339 --line400
                        1340 ..lin.D.3A.5CRenesas_Electronics.5CD1x_RGL.5Crgl_ghs_D1Lx_obj_V1.2E2.2E0.5Cvlib.5Capp.5Cgfx_apps.5Csimple_draw_d1l2.5Ctarget.5Cd1lx_mango_ghs.5Cobj.5Cacc.70::
                        1341 .LDWlin70:
000004d0 5a070000       1342 	st.b	zero,0[r26]
                        1343 --401:         if ((VALID == acc_GearOutputData.TrShftLvrPosV) &&(FALSE == gearNodemissing) )
000004d4 9d0f0900       1344 	ld.bu	8[r29],r1
000004d8 e009           1345 	cmp	zero,r1
000004da ca7d*          1346 	bne	.L761
000004dc a30f0500       1347 	ld.bu	5[sp],r1
000004e0 e009           1348 	cmp	zero,r1
000004e2 8a7d*          1349 	bne	.L761
                        1350 --402:         {
                        1351 --403:             switch (acc_GearOutputData.TrShftLvrPos)
                        1352 --line403
                        1353 ..lin.D.3A.5CRenesas_Electronics.5CD1x_RGL.5Crgl_ghs_D1Lx_obj_V1.2E2.2E0.5Cvlib.5Capp.5Cgfx_apps.5Csimple_draw_d1l2.5Ctarget.5Cd1lx_mango_ghs.5Cobj.5Cacc.71::
                        1354 .LDWlin71:
000004e4 3d0f0500       1355 	ld.w	4[r29],r1
000004e8 610a           1356 	cmp	1,r1
000004ea 8175*          1357 	bl	.L792
000004ec f205*          1358 	be	.L766
000004ee 630a           1359 	cmp	3,r1
000004f0 910d*          1360 	bl	.L767
000004f2 c20d*          1361 	be	.L768
000004f4 640a           1362 	cmp	4,r1

                                                                      Page 25
                                                              C:\Users\YINGAO~1\AppData\Local\Temp\gh_00001q41.si
000004f6 aa6d*          1363 	bne	.L792
000004f8 d50d*          1364 	br	.L769
                        1365 .L766:
                        1366 --404:             {
                        1367 --405:                 case STATUS_ACC_PARKRANGE:
                        1368 --406:                     acc_GearOutputData.display.level = TYPE_ACC_GEARLVLP;
                        1369 --line406
                        1370 ..lin.D.3A.5CRenesas_Electronics.5CD1x_RGL.5Crgl_ghs_D1Lx_obj_V1.2E2.2E0.5Cvlib.5Capp.5Cgfx_apps.5Csimple_draw_d1l2.5Ctarget.5Cd1lx_mango_ghs.5Cobj.5Cacc.72::
                        1371 .LDWlin72:
000004fa 010a           1372 	mov	1,r1
000004fc 7d0f0d00       1373 	st.w	r1,12[r29]
00000500 8575*          1374 	br	.L758
                        1375 .L767:
                        1376 --407:                     break;
                        1377 --408:                 case STATUS_ACC_REVERSERANGE:
                        1378 --409:                     acc_GearOutputData.display.level = TYPE_ACC_GEARLVLR;
                        1379 --line409
                        1380 ..lin.D.3A.5CRenesas_Electronics.5CD1x_RGL.5Crgl_ghs_D1Lx_obj_V1.2E2.2E0.5Cvlib.5Capp.5Cgfx_apps.5Csimple_draw_d1l2.5Ctarget.5Cd1lx_mango_ghs.5Cobj.5Cacc.73::
                        1381 .LDWlin73:
00000502 020a           1382 	mov	2,r1
00000504 7d0f0d00       1383 	st.w	r1,12[r29]
00000508 c56d*          1384 	br	.L758
                        1385 .L768:
                        1386 --410:                     break;
                        1387 --411:                 case STATUS_ACC_NEUTRALRANGE:
                        1388 --412:                     acc_GearOutputData.display.level = TYPE_ACC_GEARLVLN;
                        1389 --line412
                        1390 ..lin.D.3A.5CRenesas_Electronics.5CD1x_RGL.5Crgl_ghs_D1Lx_obj_V1.2E2.2E0.5Cvlib.5Capp.5Cgfx_apps.5Csimple_draw_d1l2.5Ctarget.5Cd1lx_mango_ghs.5Cobj.5Cacc.74::
                        1391 .LDWlin74:
0000050a 030a           1392 	mov	3,r1
0000050c 7d0f0d00       1393 	st.w	r1,12[r29]
00000510 856d*          1394 	br	.L758
                        1395 .L769:
                        1396 --413:                     break;
                        1397 --414:                 case STATUS_ACC_FORWARDRANGEA:
                        1398 --415:                     if (STATUS_ACC_NOACTICATION == acc_GearOutputData.TrTapUpTapDwnMdSts)
                        1399 --line415
                        1400 ..lin.D.3A.5CRenesas_Electronics.5CD1x_RGL.5Crgl_ghs_D1Lx_obj_V1.2E2.2E0.5Cvlib.5Capp.5Cgfx_apps.5Csimple_draw_d1l2.5Ctarget.5Cd1lx_mango_ghs.5Cobj.5Cacc.75::
                        1401 .LDWlin75:
00000512 bd0f0b00       1402 	ld.bu	11[r29],r1
00000516 e009           1403 	cmp	zero,r1
00000518 9a1d*          1404 	bne	.L770
                        1405 --416:                     {
                        1406 --417:                         switch (acc_GearOutputData.TrShftPtrnASts)
                        1407 --line417
                        1408 ..lin.D.3A.5CRenesas_Electronics.5CD1x_RGL.5Crgl_ghs_D1Lx_obj_V1.2E2.2E0.5Cvlib.5Capp.5Cgfx_apps.5Csimple_draw_d1l2.5Ctarget.5Cd1lx_mango_ghs.5Cobj.5Cacc.76::
                        1409 .LDWlin76:
0000051a 9d0f0b00       1410 	ld.bu	10[r29],r1
0000051e 610a           1411 	cmp	1,r1
00000520 d105*          1412 	bl	.L774
00000522 820d*          1413 	be	.L775
00000524 640a           1414 	cmp	4,r1
00000526 ea0d*          1415 	bne	.L777
00000528 950d*          1416 	br	.L776
                        1417 .L774:
                        1418 --418:                         {
                        1419 --419:                             case STATUS_ACC_DEFAULTSHIFT:
                        1420 --420:                                 acc_GearOutputData.display.level = TYPE_ACC_GEARLVLD;
                        1421 --line420
                        1422 ..lin.D.3A.5CRenesas_Electronics.5CD1x_RGL.5Crgl_ghs_D1Lx_obj_V1.2E2.2E0.5Cvlib.5Capp.5Cgfx_apps.5Csimple_draw_d1l2.5Ctarget.5Cd1lx_mango_ghs.5Cobj.5Cacc.77::
                        1423 .LDWlin77:

                                                                      Page 26
                                                              C:\Users\YINGAO~1\AppData\Local\Temp\gh_00001q41.si
0000052a 0d0a           1424 	mov	13,r1
0000052c 7d0f0d00       1425 	st.w	r1,12[r29]
00000530 c54d*          1426 	br	.L778
                        1427 .L775:
                        1428 --421:                                 break;
                        1429 --422:                             case STATUS_ACC_SHIFT1:
                        1430 --423:                                 acc_GearOutputData.display.level = TYPE_ACC_GEARLVLS;
                        1431 --line423
                        1432 ..lin.D.3A.5CRenesas_Electronics.5CD1x_RGL.5Crgl_ghs_D1Lx_obj_V1.2E2.2E0.5Cvlib.5Capp.5Cgfx_apps.5Csimple_draw_d1l2.5Ctarget.5Cd1lx_mango_ghs.5Cobj.5Cacc.78::
                        1433 .LDWlin78:
00000532 040a           1434 	mov	4,r1
00000534 7d0f0d00       1435 	st.w	r1,12[r29]
00000538 854d*          1436 	br	.L778
                        1437 .L776:
                        1438 --424:                                 break;
                        1439 --425:                             case STATUS_ACC_SHIFT4:
                        1440 --426:                                 acc_GearOutputData.display.level = TYPE_ACC_GEARLVLW;
                        1441 --line426
                        1442 ..lin.D.3A.5CRenesas_Electronics.5CD1x_RGL.5Crgl_ghs_D1Lx_obj_V1.2E2.2E0.5Cvlib.5Capp.5Cgfx_apps.5Csimple_draw_d1l2.5Ctarget.5Cd1lx_mango_ghs.5Cobj.5Cacc.79::
                        1443 .LDWlin79:
0000053a 050a           1444 	mov	5,r1
0000053c 7d0f0d00       1445 	st.w	r1,12[r29]
00000540 c545*          1446 	br	.L778
                        1447 .L777:
                        1448 --427:                                 break;
                        1449 --428:                             default:
                        1450 --429:                                 acc_GearOutputData.display.level = TYPE_ACC_GEARNONE;
                        1451 --line429
                        1452 ..lin.D.3A.5CRenesas_Electronics.5CD1x_RGL.5Crgl_ghs_D1Lx_obj_V1.2E2.2E0.5Cvlib.5Capp.5Cgfx_apps.5Csimple_draw_d1l2.5Ctarget.5Cd1lx_mango_ghs.5Cobj.5Cacc.80::
                        1453 .LDWlin80:
00000542 0e0a           1454 	mov	14,r1
00000544 7d0f0d00       1455 	st.w	r1,12[r29]
00000548 8545*          1456 	br	.L778
                        1457 .L770:
                        1458 --430:                                 break;
                        1459 --431:                         }
                        1460 --432:                     }
                        1461 --433:                     else if (STATUS_ACC_DRIVERSHIIFT == acc_GearOutputData.TrTapUpTapDwnMdSts)
                        1462 --line433
                        1463 ..lin.D.3A.5CRenesas_Electronics.5CD1x_RGL.5Crgl_ghs_D1Lx_obj_V1.2E2.2E0.5Cvlib.5Capp.5Cgfx_apps.5Csimple_draw_d1l2.5Ctarget.5Cd1lx_mango_ghs.5Cobj.5Cacc.81::
                        1464 .LDWlin81:
0000054a bd0f0b00       1465 	ld.bu	11[r29],r1
0000054e 610a           1466 	cmp	1,r1
00000550 9a3d*          1467 	bne	.L779
                        1468 --434:                     {
                        1469 --435:                         switch (acc_GearOutputData.DrvrShftCtrlTrgtGear)
                        1470 --line435
                        1471 ..lin.D.3A.5CRenesas_Electronics.5CD1x_RGL.5Crgl_ghs_D1Lx_obj_V1.2E2.2E0.5Cvlib.5Capp.5Cgfx_apps.5Csimple_draw_d1l2.5Ctarget.5Cd1lx_mango_ghs.5Cobj.5Cacc.82::
                        1472 .LDWlin82:
00000552 bd0f0900       1473 	ld.bu	9[r29],r1
00000556 670a           1474 	cmp	7,r1
00000558 9b35*          1475 	bh	.L790
0000055a c20a           1476 	shl	2,r1
0000055c e10600000000*  1477 	jmp	.L984[r1]
                        1478 .L984:
00000562 80075800*      1479 	jr	.L790
00000566 80071c00*      1480 	jr	.L783
0000056a 80072000*      1481 	jr	.L784
0000056e 80072400*      1482 	jr	.L785
00000572 80072800*      1483 	jr	.L786
00000576 80072c00*      1484 	jr	.L787

                                                                      Page 27
                                                              C:\Users\YINGAO~1\AppData\Local\Temp\gh_00001q41.si
0000057a 80073000*      1485 	jr	.L788
0000057e 80073400*      1486 	jr	.L789
                        1487 .L783:
                        1488 --436:                         {
                        1489 --437:                             case STATUS_ACC_FIRSTGEAR:
                        1490 --438:                                 acc_GearOutputData.display.level = TYPE_ACC_GEARLVL1;
                        1491 --line438
                        1492 ..lin.D.3A.5CRenesas_Electronics.5CD1x_RGL.5Crgl_ghs_D1Lx_obj_V1.2E2.2E0.5Cvlib.5Capp.5Cgfx_apps.5Csimple_draw_d1l2.5Ctarget.5Cd1lx_mango_ghs.5Cobj.5Cacc.83::
                        1493 .LDWlin83:
00000582 0c0a           1494 	mov	12,r1
00000584 7d0f0d00       1495 	st.w	r1,12[r29]
00000588 8525*          1496 	br	.L778
                        1497 .L784:
                        1498 --439:                                 break;
                        1499 --440:                             case STATUS_ACC_SECONDGEAR:
                        1500 --441:                                 acc_GearOutputData.display.level = TYPE_ACC_GEARLVL2;
                        1501 --line441
                        1502 ..lin.D.3A.5CRenesas_Electronics.5CD1x_RGL.5Crgl_ghs_D1Lx_obj_V1.2E2.2E0.5Cvlib.5Capp.5Cgfx_apps.5Csimple_draw_d1l2.5Ctarget.5Cd1lx_mango_ghs.5Cobj.5Cacc.84::
                        1503 .LDWlin84:
0000058a 0b0a           1504 	mov	11,r1
0000058c 7d0f0d00       1505 	st.w	r1,12[r29]
00000590 c51d*          1506 	br	.L778
                        1507 .L785:
                        1508 --442:                                 break;
                        1509 --443:                             case STATUS_ACC_THREEGEAR:
                        1510 --444:                                 acc_GearOutputData.display.level = TYPE_ACC_GEARLVL3;
                        1511 --line444
                        1512 ..lin.D.3A.5CRenesas_Electronics.5CD1x_RGL.5Crgl_ghs_D1Lx_obj_V1.2E2.2E0.5Cvlib.5Capp.5Cgfx_apps.5Csimple_draw_d1l2.5Ctarget.5Cd1lx_mango_ghs.5Cobj.5Cacc.85::
                        1513 .LDWlin85:
00000592 0a0a           1514 	mov	10,r1
00000594 7d0f0d00       1515 	st.w	r1,12[r29]
00000598 851d*          1516 	br	.L778
                        1517 .L786:
                        1518 --445:                                 break;
                        1519 --446:                             case STATUS_ACC_FOURGEAR:
                        1520 --447:                                 acc_GearOutputData.display.level = TYPE_ACC_GEARLVL4;
                        1521 --line447
                        1522 ..lin.D.3A.5CRenesas_Electronics.5CD1x_RGL.5Crgl_ghs_D1Lx_obj_V1.2E2.2E0.5Cvlib.5Capp.5Cgfx_apps.5Csimple_draw_d1l2.5Ctarget.5Cd1lx_mango_ghs.5Cobj.5Cacc.86::
                        1523 .LDWlin86:
0000059a 090a           1524 	mov	9,r1
0000059c 7d0f0d00       1525 	st.w	r1,12[r29]
000005a0 c515*          1526 	br	.L778
                        1527 .L787:
                        1528 --448:                                 break;
                        1529 --449:                             case STATUS_ACC_FIVEGEAR:
                        1530 --450:                                 acc_GearOutputData.display.level = TYPE_ACC_GEARLVL5;
                        1531 --line450
                        1532 ..lin.D.3A.5CRenesas_Electronics.5CD1x_RGL.5Crgl_ghs_D1Lx_obj_V1.2E2.2E0.5Cvlib.5Capp.5Cgfx_apps.5Csimple_draw_d1l2.5Ctarget.5Cd1lx_mango_ghs.5Cobj.5Cacc.87::
                        1533 .LDWlin87:
000005a2 080a           1534 	mov	8,r1
000005a4 7d0f0d00       1535 	st.w	r1,12[r29]
000005a8 8515*          1536 	br	.L778
                        1537 .L788:
                        1538 --451:                                 break;
                        1539 --452:                             case STATUS_ACC_SIXGEAR:
                        1540 --453:                                 acc_GearOutputData.display.level = TYPE_ACC_GEARLVL6;
                        1541 --line453
                        1542 ..lin.D.3A.5CRenesas_Electronics.5CD1x_RGL.5Crgl_ghs_D1Lx_obj_V1.2E2.2E0.5Cvlib.5Capp.5Cgfx_apps.5Csimple_draw_d1l2.5Ctarget.5Cd1lx_mango_ghs.5Cobj.5Cacc.88::
                        1543 .LDWlin88:
000005aa 070a           1544 	mov	7,r1
000005ac 7d0f0d00       1545 	st.w	r1,12[r29]

                                                                      Page 28
                                                              C:\Users\YINGAO~1\AppData\Local\Temp\gh_00001q41.si
000005b0 c50d*          1546 	br	.L778
                        1547 .L789:
                        1548 --454:                                 break;
                        1549 --455:                             case STATUS_ACC_SEVENGEAR:
                        1550 --456:                                 acc_GearOutputData.display.level = TYPE_ACC_GEARLVL7;
                        1551 --line456
                        1552 ..lin.D.3A.5CRenesas_Electronics.5CD1x_RGL.5Crgl_ghs_D1Lx_obj_V1.2E2.2E0.5Cvlib.5Capp.5Cgfx_apps.5Csimple_draw_d1l2.5Ctarget.5Cd1lx_mango_ghs.5Cobj.5Cacc.89::
                        1553 .LDWlin89:
000005b2 060a           1554 	mov	6,r1
000005b4 7d0f0d00       1555 	st.w	r1,12[r29]
000005b8 850d*          1556 	br	.L778
                        1557 .L790:
                        1558 --457:                                 break;
                        1559 --458:                             default:
                        1560 --459:                                 acc_GearOutputData.display.level = TYPE_ACC_GEARNONE;
                        1561 --line459
                        1562 ..lin.D.3A.5CRenesas_Electronics.5CD1x_RGL.5Crgl_ghs_D1Lx_obj_V1.2E2.2E0.5Cvlib.5Capp.5Cgfx_apps.5Csimple_draw_d1l2.5Ctarget.5Cd1lx_mango_ghs.5Cobj.5Cacc.90::
                        1563 .LDWlin90:
000005ba 0e0a           1564 	mov	14,r1
000005bc 7d0f0d00       1565 	st.w	r1,12[r29]
000005c0 c505*          1566 	br	.L778
                        1567 .L779:
                        1568 --460:                                 break;
                        1569 --461:                         }
                        1570 --462:                     }
                        1571 --463:                     else
                        1572 --464:                     {
                        1573 --465:                         acc_GearOutputData.display.level = TYPE_ACC_GEARNONE;
                        1574 --line465
                        1575 ..lin.D.3A.5CRenesas_Electronics.5CD1x_RGL.5Crgl_ghs_D1Lx_obj_V1.2E2.2E0.5Cvlib.5Capp.5Cgfx_apps.5Csimple_draw_d1l2.5Ctarget.5Cd1lx_mango_ghs.5Cobj.5Cacc.91::
                        1576 .LDWlin91:
000005c2 0e0a           1577 	mov	14,r1
000005c4 7d0f0d00       1578 	st.w	r1,12[r29]
                        1579 .L778:
000005c8 c50d*          1580 	br	.L758
                        1581 .L792:
                        1582 --466:                     }
                        1583 --467:                     break;
                        1584 --468:                   default :
                        1585 --469:                     acc_GearOutputData.display.level = TYPE_ACC_GEARNONE;
                        1586 --line469
                        1587 ..lin.D.3A.5CRenesas_Electronics.5CD1x_RGL.5Crgl_ghs_D1Lx_obj_V1.2E2.2E0.5Cvlib.5Capp.5Cgfx_apps.5Csimple_draw_d1l2.5Ctarget.5Cd1lx_mango_ghs.5Cobj.5Cacc.92::
                        1588 .LDWlin92:
000005ca 0e0a           1589 	mov	14,r1
000005cc 7d0f0d00       1590 	st.w	r1,12[r29]
000005d0 850d*          1591 	br	.L758
                        1592 .L761:
                        1593 --470:                     break;
                        1594 --471:             }
                        1595 --472:         }
                        1596 --473: 	else
                        1597 --474: 	{
                        1598 --475: 	    acc_GearOutputData.display.level = TYPE_ACC_GEARNONE;
                        1599 --line475
                        1600 ..lin.D.3A.5CRenesas_Electronics.5CD1x_RGL.5Crgl_ghs_D1Lx_obj_V1.2E2.2E0.5Cvlib.5Capp.5Cgfx_apps.5Csimple_draw_d1l2.5Ctarget.5Cd1lx_mango_ghs.5Cobj.5Cacc.93::
                        1601 .LDWlin93:
000005d2 0e0a           1602 	mov	14,r1
000005d4 7d0f0d00       1603 	st.w	r1,12[r29]
000005d8 c505*          1604 	br	.L758
                        1605 .L759:
                        1606 --476: 	}

                                                                      Page 29
                                                              C:\Users\YINGAO~1\AppData\Local\Temp\gh_00001q41.si
                        1607 --477:     }
                        1608 --478: 	else
                        1609 --479: 	{
                        1610 --480: 		acc_GearOutputData.display.level= TYPE_ACC_GEARNONE;
                        1611 --line480
                        1612 ..lin.D.3A.5CRenesas_Electronics.5CD1x_RGL.5Crgl_ghs_D1Lx_obj_V1.2E2.2E0.5Cvlib.5Capp.5Cgfx_apps.5Csimple_draw_d1l2.5Ctarget.5Cd1lx_mango_ghs.5Cobj.5Cacc.94::
                        1613 .LDWlin94:
000005da 0e0a           1614 	mov	14,r1
000005dc 7d0f0d00       1615 	st.w	r1,12[r29]
                        1616 .L758:
                        1617 --481: 	}
                        1618 --483: 	if(TYPE_ACC_GEARNONE == acc_GearOutputData.display.level)
000005e0 3d0f0d00       1619 	ld.w	12[r29],r1
000005e4 6e0a           1620 	cmp	14,r1
000005e6 9a0d*          1621 	bne	.L797
                        1622 --484: 	{
                        1623 --485: 		acc_GearOutputData.display.Dir = TYPE_GEAR_DIR_NULL;
                        1624 --line485
                        1625 ..lin.D.3A.5CRenesas_Electronics.5CD1x_RGL.5Crgl_ghs_D1Lx_obj_V1.2E2.2E0.5Cvlib.5Capp.5Cgfx_apps.5Csimple_draw_d1l2.5Ctarget.5Cd1lx_mango_ghs.5Cobj.5Cacc.95::
                        1626 .LDWlin95:
000005e8 7d071100       1627 	st.w	zero,16[r29]
000005ec e505*          1628 	br	.L797
                        1629 .L752:
                        1630 --486: 	}
                        1631 --487:  }
                        1632 --488:   else
                        1633 --489:  {
                        1634 --490:     acc_GearOutputData.display.level = TYPE_ACC_GEARNONE;
                        1635 --line490
                        1636 ..lin.D.3A.5CRenesas_Electronics.5CD1x_RGL.5Crgl_ghs_D1Lx_obj_V1.2E2.2E0.5Cvlib.5Capp.5Cgfx_apps.5Csimple_draw_d1l2.5Ctarget.5Cd1lx_mango_ghs.5Cobj.5Cacc.96::
                        1637 .LDWlin96:
000005ee 0e0a           1638 	mov	14,r1
000005f0 7d0f0d00       1639 	st.w	r1,12[r29]
                        1640 --491:     acc_GearOutputData.display.Dir = TYPE_GEAR_DIR_NULL;
000005f4 7d071100       1641 	st.w	zero,16[r29]
                        1642 .L797:
                        1643 --492:  }
                        1644 --493: }
000005f8 0000           1645 	nop
                        1646 --	    .ef
                        1647 .LDW62:
000005fa 4406ff70       1648 	dispose	2,{r25,r26,r27,r28,r29,r31},[lp]
                        1649 	.type	_acc_GearStatus,@function
                        1650 	.size	_acc_GearStatus,.-_acc_GearStatus
                        1651 	.type	_acc_GearStatus..D.3A.5CRenesas_Electronics.5CD1x_RGL.5Crgl_ghs_D1Lx_obj_V1.2E2.2E0.5Cvlib.5Capp.5Cgfx_apps.5Csimple_draw_d1l2.5Ctarget.5Cd1lx_mango_ghs.5Cobj.5Cacc.,@function
                        1652 	.size	_acc_GearStatus..D.3A.5CRenesas_Electronics.5CD1x_RGL.5Crgl_ghs_D1Lx_obj_V1.2E2.2E0.5Cvlib.5Capp.5Cgfx_apps.5Csimple_draw_d1l2.5Ctarget.5Cd1lx_mango_ghs.5Cobj.5Cacc.,.-_acc_GearStatus..D.3A.5CRenesas_Electronics.5CD1x_RGL.5Crgl_ghs_D1Lx_obj_V1.2E2.2E0.5Cvlib.5Capp.5Cgfx_apps.5Csimple_draw_d1l2.5Ctarget.5Cd1lx_mango_ghs.5Cobj.5Cacc.
                        1653 	.align	2
                        1654 .LDW72:
                        1655 --_testFlag	r25	local
                        1656 --_dir	2[sp]	local
                        1657 --_pwrMode	3[sp]	local
                        1658 --_res	r27	local
                        1659 --_tcmNodemissing	4[sp]	local
                        1660 --_gearNodemissing	5[sp]	local
                        1661 --_gearDirNodemissing	6[sp]	local
                        1662 --_tcmSotNodemissing	7[sp]	local
                        1663 
                        1664 	.data
                        1665 	.ghsnote jtable,2097156,.L984,.L984,.L984,8
                        1666 	.text
                        1667 

                                                                      Page 30
                                                              C:\Users\YINGAO~1\AppData\Local\Temp\gh_00001q41.si
                        1668 
                        1669 --495: /***************************************************
                        1670 --496: * Function: ACC_SendNetSignal_100ms
                        1671 --497: * Description: SendNetSignal inforatiom
                        1672 --498: * Parameters:  input: none
                        1673 --499: * Returns: gear information
                        1674 --500: * $Create & Verlog:$
                        1675 --501: * Author: zxx     Date:2017-06-29  Version:V2.0
                        1676 --502: ***************************************************/
                        1677 --503: void ACC_SendNetSignal_100ms(void)
                        1678 	.align	2
                        1679 	.align	2
                        1680 	.global	_ACC_SendNetSignal_100ms
                        1681 _ACC_SendNetSignal_100ms:
000005fe 80076100       1682 	prepare	{r29,r31},0
00000602 3d0600000000*  1683 	mov	_acc_NetOdoDec,r29
                        1684 --	    .bf
                        1685 .LDW82:
                        1686 --504: {
                        1687 --505: 	v_wr_8(ClstrDspdTrWrnng_handle, acc_ClstrDspdTrWrnng); 
00000608 270600000000*  1688 	mov	_acc_ClstrDspdTrWrnng,r7
0000060e 873f0100       1689 	ld.bu	0[r7],r7
00000612 2606c82f3f00   1690 	mov	4141000,r6
                        1691 	jarl	_v_wr_8,lp
                        1691 <EXPANSION BEGIN>
                        1691 jarl22 _v_wr_8 , lp 
00000618 80ff0000*      1691 <EXPANSION END>
                        1692 --506: 	#if DEBUG_FL_ALGORITHM
                        1693 --507: 	v_wr_16(odoDec_handle,acc_NetOdoDec);
                        1694 --line507
                        1695 ..lin.D.3A.5CRenesas_Electronics.5CD1x_RGL.5Crgl_ghs_D1Lx_obj_V1.2E2.2E0.5Cvlib.5Capp.5Cgfx_apps.5Csimple_draw_d1l2.5Ctarget.5Cd1lx_mango_ghs.5Cobj.5Cacc.97::
                        1696 .LDWlin97:
0000061c 270600000000*  1697 	mov	_acc_NetOdoDec,r7
00000622 e73f0100       1698 	ld.hu	0[r7],r7
00000626 260688243f00   1699 	mov	4138120,r6
                        1700 	jarl	_v_wr_16,lp
                        1700 <EXPANSION BEGIN>
                        1700 jarl22 _v_wr_16 , lp 
0000062c 80ff0000*      1700 <EXPANSION END>
                        1701 --508: 	v_wr_16(InstantFuelCsumpt_handle,acc_InstantFuel.InstantFuel);	
                        1702 --line508
                        1703 ..lin.D.3A.5CRenesas_Electronics.5CD1x_RGL.5Crgl_ghs_D1Lx_obj_V1.2E2.2E0.5Cvlib.5Capp.5Cgfx_apps.5Csimple_draw_d1l2.5Ctarget.5Cd1lx_mango_ghs.5Cobj.5Cacc.98::
                        1704 .LDWlin98:
00000630 3d0f0500       1705 	ld.w	4[r29],r1
00000634 2606ac243f00   1706 	mov	4138156,r6
0000063a f10f403c       1707 	trncf.suw	r1,r7
0000063e c700           1708 	zxh	r7
                        1709 	jarl	_v_wr_16,lp
                        1709 <EXPANSION BEGIN>
                        1709 jarl22 _v_wr_16 , lp 
00000640 80ff0000*      1709 <EXPANSION END>
                        1710 --509: 	v_wr_16(FCDec_handle,acc_NetFcDec);
                        1711 --line509
                        1712 ..lin.D.3A.5CRenesas_Electronics.5CD1x_RGL.5Crgl_ghs_D1Lx_obj_V1.2E2.2E0.5Cvlib.5Capp.5Cgfx_apps.5Csimple_draw_d1l2.5Ctarget.5Cd1lx_mango_ghs.5Cobj.5Cacc.99::
                        1713 .LDWlin99:
00000644 fd3f0300       1714 	ld.hu	2[r29],r7
00000648 2606d0243f00   1715 	mov	4138192,r6
                        1716 	jarl	_v_wr_16,lp
                        1716 <EXPANSION BEGIN>
                        1716 jarl22 _v_wr_16 , lp 
0000064e 80ff0000*      1716 <EXPANSION END>

                                                                      Page 31
                                                              C:\Users\YINGAO~1\AppData\Local\Temp\gh_00001q41.si
                        1717 --510: 	#endif
                        1718 --511: 	EVT_OPS_CCWrnng_100ms();
                        1719 --line511
                        1720 ..lin.D.3A.5CRenesas_Electronics.5CD1x_RGL.5Crgl_ghs_D1Lx_obj_V1.2E2.2E0.5Cvlib.5Capp.5Cgfx_apps.5Csimple_draw_d1l2.5Ctarget.5Cd1lx_mango_ghs.5Cobj.5Cacc.100::
                        1721 .LDWlin100:
                        1722 	jarl	_EVT_OPS_CCWrnng_100ms,lp
                        1722 <EXPANSION BEGIN>
                        1722 jarl22 _EVT_OPS_CCWrnng_100ms , lp 
00000652 80ff0000*      1722 <EXPANSION END>
                        1723 --512: 	EVT_OPS_ClntTemWrnng_100ms();
                        1724 --line512
                        1725 ..lin.D.3A.5CRenesas_Electronics.5CD1x_RGL.5Crgl_ghs_D1Lx_obj_V1.2E2.2E0.5Cvlib.5Capp.5Cgfx_apps.5Csimple_draw_d1l2.5Ctarget.5Cd1lx_mango_ghs.5Cobj.5Cacc.101::
                        1726 .LDWlin101:
                        1727 	jarl	_EVT_OPS_ClntTemWrnng_100ms,lp
                        1727 <EXPANSION BEGIN>
                        1727 jarl22 _EVT_OPS_ClntTemWrnng_100ms , lp 
00000656 80ff0000*      1727 <EXPANSION END>
                        1728 --513: 	EVT_OPS_FuelSnsrWrnng_100ms();
                        1729 --line513
                        1730 ..lin.D.3A.5CRenesas_Electronics.5CD1x_RGL.5Crgl_ghs_D1Lx_obj_V1.2E2.2E0.5Cvlib.5Capp.5Cgfx_apps.5Csimple_draw_d1l2.5Ctarget.5Cd1lx_mango_ghs.5Cobj.5Cacc.102::
                        1731 .LDWlin102:
                        1732 	jarl	_EVT_OPS_FuelSnsrWrnng_100ms,lp
                        1732 <EXPANSION BEGIN>
                        1732 jarl22 _EVT_OPS_FuelSnsrWrnng_100ms , lp 
0000065a 80ff0000*      1732 <EXPANSION END>
                        1733 --514: 	EVT_OPS_MalfIndrLghtW_100ms();
                        1734 --line514
                        1735 ..lin.D.3A.5CRenesas_Electronics.5CD1x_RGL.5Crgl_ghs_D1Lx_obj_V1.2E2.2E0.5Cvlib.5Capp.5Cgfx_apps.5Csimple_draw_d1l2.5Ctarget.5Cd1lx_mango_ghs.5Cobj.5Cacc.103::
                        1736 .LDWlin103:
                        1737 	jarl	_EVT_OPS_MalfIndrLghtW_100ms,lp
                        1737 <EXPANSION BEGIN>
                        1737 jarl22 _EVT_OPS_MalfIndrLghtW_100ms , lp 
0000065e 80ff0000*      1737 <EXPANSION END>
                        1738 --515: 	EVT_OPS_SpStWrnng_50ms();
                        1739 --line515
                        1740 ..lin.D.3A.5CRenesas_Electronics.5CD1x_RGL.5Crgl_ghs_D1Lx_obj_V1.2E2.2E0.5Cvlib.5Capp.5Cgfx_apps.5Csimple_draw_d1l2.5Ctarget.5Cd1lx_mango_ghs.5Cobj.5Cacc.104::
                        1741 .LDWlin104:
                        1742 	jarl	_EVT_OPS_SpStWrnng_50ms,lp
                        1742 <EXPANSION BEGIN>
                        1742 jarl22 _EVT_OPS_SpStWrnng_50ms , lp 
00000662 80ff0000*      1742 <EXPANSION END>
                        1743 --516: 	EVT_OPS_ABSWrnng_100ms();
                        1744 --line516
                        1745 ..lin.D.3A.5CRenesas_Electronics.5CD1x_RGL.5Crgl_ghs_D1Lx_obj_V1.2E2.2E0.5Cvlib.5Capp.5Cgfx_apps.5Csimple_draw_d1l2.5Ctarget.5Cd1lx_mango_ghs.5Cobj.5Cacc.105::
                        1746 .LDWlin105:
                        1747 	jarl	_EVT_OPS_ABSWrnng_100ms,lp
                        1747 <EXPANSION BEGIN>
                        1747 jarl22 _EVT_OPS_ABSWrnng_100ms , lp 
00000666 80ff0000*      1747 <EXPANSION END>
                        1748 --517: 	EVT_OPS_EnDrvByWireW_100ms();
                        1749 --line517
                        1750 ..lin.D.3A.5CRenesas_Electronics.5CD1x_RGL.5Crgl_ghs_D1Lx_obj_V1.2E2.2E0.5Cvlib.5Capp.5Cgfx_apps.5Csimple_draw_d1l2.5Ctarget.5Cd1lx_mango_ghs.5Cobj.5Cacc.106::
                        1751 .LDWlin106:
                        1752 	jarl	_EVT_OPS_EnDrvByWireW_100ms,lp
                        1752 <EXPANSION BEGIN>
                        1752 jarl22 _EVT_OPS_EnDrvByWireW_100ms , lp 
0000066a 80ff0000*      1752 <EXPANSION END>
                        1753 --518: 	EVT_OPS_DspdAltrWrning_100ms();
                        1754 --line518
                        1755 ..lin.D.3A.5CRenesas_Electronics.5CD1x_RGL.5Crgl_ghs_D1Lx_obj_V1.2E2.2E0.5Cvlib.5Capp.5Cgfx_apps.5Csimple_draw_d1l2.5Ctarget.5Cd1lx_mango_ghs.5Cobj.5Cacc.107::
                        1756 .LDWlin107:

                                                                      Page 32
                                                              C:\Users\YINGAO~1\AppData\Local\Temp\gh_00001q41.si
                        1757 	jarl	_EVT_OPS_DspdAltrWrning_100ms,lp
                        1757 <EXPANSION BEGIN>
                        1757 jarl22 _EVT_OPS_DspdAltrWrning_100ms , lp 
0000066e 80ff0000*      1757 <EXPANSION END>
                        1758 --519: 	EVT_OPS_OilPrsLowW_100ms();
                        1759 --line519
                        1760 ..lin.D.3A.5CRenesas_Electronics.5CD1x_RGL.5Crgl_ghs_D1Lx_obj_V1.2E2.2E0.5Cvlib.5Capp.5Cgfx_apps.5Csimple_draw_d1l2.5Ctarget.5Cd1lx_mango_ghs.5Cobj.5Cacc.108::
                        1761 .LDWlin108:
                        1762 	jarl	_EVT_OPS_OilPrsLowW_100ms,lp
                        1762 <EXPANSION BEGIN>
                        1762 jarl22 _EVT_OPS_OilPrsLowW_100ms , lp 
00000672 80ff0000*      1762 <EXPANSION END>
                        1763 --520: 	EVT_OPS_EPSWrnng_100ms();
                        1764 --line520
                        1765 ..lin.D.3A.5CRenesas_Electronics.5CD1x_RGL.5Crgl_ghs_D1Lx_obj_V1.2E2.2E0.5Cvlib.5Capp.5Cgfx_apps.5Csimple_draw_d1l2.5Ctarget.5Cd1lx_mango_ghs.5Cobj.5Cacc.109::
                        1766 .LDWlin109:
                        1767 	jarl	_EVT_OPS_EPSWrnng_100ms,lp
                        1767 <EXPANSION BEGIN>
                        1767 jarl22 _EVT_OPS_EPSWrnng_100ms , lp 
00000676 80ff0000*      1767 <EXPANSION END>
                        1768 --521: 	EVT_OPS_SASWrnng_100ms();
                        1769 --line521
                        1770 ..lin.D.3A.5CRenesas_Electronics.5CD1x_RGL.5Crgl_ghs_D1Lx_obj_V1.2E2.2E0.5Cvlib.5Capp.5Cgfx_apps.5Csimple_draw_d1l2.5Ctarget.5Cd1lx_mango_ghs.5Cobj.5Cacc.110::
                        1771 .LDWlin110:
                        1772 	jarl	_EVT_OPS_SASWrnng_100ms,lp
                        1772 <EXPANSION BEGIN>
                        1772 jarl22 _EVT_OPS_SASWrnng_100ms , lp 
0000067a 80ff0000*      1772 <EXPANSION END>
                        1773 --522: 	EVT_OPS_SASUncalWrnng_100ms();
                        1774 --line522
                        1775 ..lin.D.3A.5CRenesas_Electronics.5CD1x_RGL.5Crgl_ghs_D1Lx_obj_V1.2E2.2E0.5Cvlib.5Capp.5Cgfx_apps.5Csimple_draw_d1l2.5Ctarget.5Cd1lx_mango_ghs.5Cobj.5Cacc.111::
                        1776 .LDWlin111:
                        1777 	jarl	_EVT_OPS_SASUncalWrnng_100ms,lp
                        1777 <EXPANSION BEGIN>
                        1777 jarl22 _EVT_OPS_SASUncalWrnng_100ms , lp 
0000067e 80ff0000*      1777 <EXPANSION END>
                        1778 --523: 	EVT_OPS_TyrePrsSts_100ms();
                        1779 --line523
                        1780 ..lin.D.3A.5CRenesas_Electronics.5CD1x_RGL.5Crgl_ghs_D1Lx_obj_V1.2E2.2E0.5Cvlib.5Capp.5Cgfx_apps.5Csimple_draw_d1l2.5Ctarget.5Cd1lx_mango_ghs.5Cobj.5Cacc.112::
                        1781 .LDWlin112:
                        1782 	jarl	_EVT_OPS_TyrePrsSts_100ms,lp
                        1782 <EXPANSION BEGIN>
                        1782 jarl22 _EVT_OPS_TyrePrsSts_100ms , lp 
00000682 80ff0000*      1782 <EXPANSION END>
                        1783 --524: 	EVT_OPS_TCSWrnng_100ms();
                        1784 --line524
                        1785 ..lin.D.3A.5CRenesas_Electronics.5CD1x_RGL.5Crgl_ghs_D1Lx_obj_V1.2E2.2E0.5Cvlib.5Capp.5Cgfx_apps.5Csimple_draw_d1l2.5Ctarget.5Cd1lx_mango_ghs.5Cobj.5Cacc.113::
                        1786 .LDWlin113:
                        1787 	jarl	_EVT_OPS_TCSWrnng_100ms,lp
                        1787 <EXPANSION BEGIN>
                        1787 jarl22 _EVT_OPS_TCSWrnng_100ms , lp 
00000686 80ff0000*      1787 <EXPANSION END>
                        1788 --525: 	EVT_OPS_SCSWrnng_100ms();
                        1789 --line525
                        1790 ..lin.D.3A.5CRenesas_Electronics.5CD1x_RGL.5Crgl_ghs_D1Lx_obj_V1.2E2.2E0.5Cvlib.5Capp.5Cgfx_apps.5Csimple_draw_d1l2.5Ctarget.5Cd1lx_mango_ghs.5Cobj.5Cacc.114::
                        1791 .LDWlin114:
                        1792 	jarl	_EVT_OPS_SCSWrnng_100ms,lp
                        1792 <EXPANSION BEGIN>
                        1792 jarl22 _EVT_OPS_SCSWrnng_100ms , lp 
0000068a 80ff0000*      1792 <EXPANSION END>
                        1793 --526: 	EVT_OPS_BrkSysWrnng_100ms();

                                                                      Page 33
                                                              C:\Users\YINGAO~1\AppData\Local\Temp\gh_00001q41.si
                        1794 --line526
                        1795 ..lin.D.3A.5CRenesas_Electronics.5CD1x_RGL.5Crgl_ghs_D1Lx_obj_V1.2E2.2E0.5Cvlib.5Capp.5Cgfx_apps.5Csimple_draw_d1l2.5Ctarget.5Cd1lx_mango_ghs.5Cobj.5Cacc.115::
                        1796 .LDWlin115:
                        1797 	jarl	_EVT_OPS_BrkSysWrnng_100ms,lp
                        1797 <EXPANSION BEGIN>
                        1797 jarl22 _EVT_OPS_BrkSysWrnng_100ms , lp 
0000068e 80ff0000*      1797 <EXPANSION END>
                        1798 --527: 	EVT_OPS_AirbagWrnng_100ms();
                        1799 --line527
                        1800 ..lin.D.3A.5CRenesas_Electronics.5CD1x_RGL.5Crgl_ghs_D1Lx_obj_V1.2E2.2E0.5Cvlib.5Capp.5Cgfx_apps.5Csimple_draw_d1l2.5Ctarget.5Cd1lx_mango_ghs.5Cobj.5Cacc.116::
                        1801 .LDWlin116:
                        1802 	jarl	_EVT_OPS_AirbagWrnng_100ms,lp
                        1802 <EXPANSION BEGIN>
                        1802 jarl22 _EVT_OPS_AirbagWrnng_100ms , lp 
00000692 80ff0000*      1802 <EXPANSION END>
                        1803 --528: 	EVT_OPS_AirbagWrnngindF_100ms();
                        1804 --line528
                        1805 ..lin.D.3A.5CRenesas_Electronics.5CD1x_RGL.5Crgl_ghs_D1Lx_obj_V1.2E2.2E0.5Cvlib.5Capp.5Cgfx_apps.5Csimple_draw_d1l2.5Ctarget.5Cd1lx_mango_ghs.5Cobj.5Cacc.117::
                        1806 .LDWlin117:
                        1807 	jarl	_EVT_OPS_AirbagWrnngindF_100ms,lp
                        1807 <EXPANSION BEGIN>
                        1807 jarl22 _EVT_OPS_AirbagWrnngindF_100ms , lp 
00000696 80ff0000*      1807 <EXPANSION END>
                        1808 --529: 	EVT_OPS_ScurtKeyBatLW_100ms();
                        1809 --line529
                        1810 ..lin.D.3A.5CRenesas_Electronics.5CD1x_RGL.5Crgl_ghs_D1Lx_obj_V1.2E2.2E0.5Cvlib.5Capp.5Cgfx_apps.5Csimple_draw_d1l2.5Ctarget.5Cd1lx_mango_ghs.5Cobj.5Cacc.118::
                        1811 .LDWlin118:
                        1812 	jarl	_EVT_OPS_ScurtKeyBatLW_100ms,lp
                        1812 <EXPANSION BEGIN>
                        1812 jarl22 _EVT_OPS_ScurtKeyBatLW_100ms , lp 
0000069a 80ff0000*      1812 <EXPANSION END>
                        1813 --530: 	EVT_OPS_InvdKeyWrnng_100ms();
                        1814 --line530
                        1815 ..lin.D.3A.5CRenesas_Electronics.5CD1x_RGL.5Crgl_ghs_D1Lx_obj_V1.2E2.2E0.5Cvlib.5Capp.5Cgfx_apps.5Csimple_draw_d1l2.5Ctarget.5Cd1lx_mango_ghs.5Cobj.5Cacc.119::
                        1816 .LDWlin119:
                        1817 	jarl	_EVT_OPS_InvdKeyWrnng_100ms,lp
                        1817 <EXPANSION BEGIN>
                        1817 jarl22 _EVT_OPS_InvdKeyWrnng_100ms , lp 
0000069e 80ff0000*      1817 <EXPANSION END>
                        1818 --531: 	EVT_OPS_IPCEcoDrvngSwA_100ms();
                        1819 --line531
                        1820 ..lin.D.3A.5CRenesas_Electronics.5CD1x_RGL.5Crgl_ghs_D1Lx_obj_V1.2E2.2E0.5Cvlib.5Capp.5Cgfx_apps.5Csimple_draw_d1l2.5Ctarget.5Cd1lx_mango_ghs.5Cobj.5Cacc.120::
                        1821 .LDWlin120:
                        1822 	jarl	_EVT_OPS_IPCEcoDrvngSwA_100ms,lp
                        1822 <EXPANSION BEGIN>
                        1822 jarl22 _EVT_OPS_IPCEcoDrvngSwA_100ms , lp 
000006a2 80ff0000*      1822 <EXPANSION END>
                        1823 --533: 	
                        1824 --535: }
                        1825 --line535
                        1826 ..lin.D.3A.5CRenesas_Electronics.5CD1x_RGL.5Crgl_ghs_D1Lx_obj_V1.2E2.2E0.5Cvlib.5Capp.5Cgfx_apps.5Csimple_draw_d1l2.5Ctarget.5Cd1lx_mango_ghs.5Cobj.5Cacc.121::
                        1827 .LDWlin121:
000006a6 0000           1828 	nop
                        1829 --	    .ef
                        1830 .LDW92:
000006a8 40067f00       1831 	dispose	0,{r29,r31},[lp]
                        1832 	.type	_ACC_SendNetSignal_100ms,@function
                        1833 	.size	_ACC_SendNetSignal_100ms,.-_ACC_SendNetSignal_100ms
                        1834 	.align	2
                        1835 .LDW03:
                        1836 

                                                                      Page 34
                                                              C:\Users\YINGAO~1\AppData\Local\Temp\gh_00001q41.si
                        1837 	.data
                        1838 	.text
                        1839 
                        1840 
                        1841 --538: /***************************************************
                        1842 --539: * Function: acc_JudgeEvent
                        1843 --540: * Description: Get event index
                        1844 --541: * Parameters:  input: none
                        1845 --542: * Returns: none
                        1846 --543: * $Create & Verlog:$
                        1847 --544: * Author: Xiaojie.Zheng     Date:2016-12-06   Version:V1.0
                        1848 --545: ****************************************************/
                        1849 --546: static void acc_JudgeEvent(void)
                        1850 	.align	2
                        1851 	.align	2
                        1852 	.global	_acc_JudgeEvent..D.3A.5CRenesas_Electronics.5CD1x_RGL.5Crgl_ghs_D1Lx_obj_V1.2E2.2E0.5Cvlib.5Capp.5Cgfx_apps.5Csimple_draw_d1l2.5Ctarget.5Cd1lx_mango_ghs.5Cobj.5Cacc.
                        1853 _acc_JudgeEvent..D.3A.5CRenesas_Electronics.5CD1x_RGL.5Crgl_ghs_D1Lx_obj_V1.2E2.2E0.5Cvlib.5Capp.5Cgfx_apps.5Csimple_draw_d1l2.5Ctarget.5Cd1lx_mango_ghs.5Cobj.5Cacc.:
                        1854 _acc_JudgeEvent:
000006ac 80072100       1855 	prepare	{r31},0
                        1856 --	    .bf
                        1857 .LDW13:
                        1858 --547: {
                        1859 --548: 	EVT_JudgeCruise(); 
                        1860 	jarl	_EVT_JudgeCruise,lp
                        1860 <EXPANSION BEGIN>
                        1860 jarl22 _EVT_JudgeCruise , lp 
000006b0 80ff0000*      1860 <EXPANSION END>
                        1861 --549: 	EVT_JudgeCoolant();
                        1862 --line549
                        1863 ..lin.D.3A.5CRenesas_Electronics.5CD1x_RGL.5Crgl_ghs_D1Lx_obj_V1.2E2.2E0.5Cvlib.5Capp.5Cgfx_apps.5Csimple_draw_d1l2.5Ctarget.5Cd1lx_mango_ghs.5Cobj.5Cacc.122::
                        1864 .LDWlin122:
                        1865 	jarl	_EVT_JudgeCoolant,lp
                        1865 <EXPANSION BEGIN>
                        1865 jarl22 _EVT_JudgeCoolant , lp 
000006b4 80ff0000*      1865 <EXPANSION END>
                        1866 --550: 	EVT_JudgeStopStartActive();
                        1867 --line550
                        1868 ..lin.D.3A.5CRenesas_Electronics.5CD1x_RGL.5Crgl_ghs_D1Lx_obj_V1.2E2.2E0.5Cvlib.5Capp.5Cgfx_apps.5Csimple_draw_d1l2.5Ctarget.5Cd1lx_mango_ghs.5Cobj.5Cacc.123::
                        1869 .LDWlin123:
                        1870 	jarl	_EVT_JudgeStopStartActive,lp
                        1870 <EXPANSION BEGIN>
                        1870 jarl22 _EVT_JudgeStopStartActive , lp 
000006b8 80ff0000*      1870 <EXPANSION END>
                        1871 --551: 	EVT_JudgeStopStartFault();
                        1872 --line551
                        1873 ..lin.D.3A.5CRenesas_Electronics.5CD1x_RGL.5Crgl_ghs_D1Lx_obj_V1.2E2.2E0.5Cvlib.5Capp.5Cgfx_apps.5Csimple_draw_d1l2.5Ctarget.5Cd1lx_mango_ghs.5Cobj.5Cacc.124::
                        1874 .LDWlin124:
                        1875 	jarl	_EVT_JudgeStopStartFault,lp
                        1875 <EXPANSION BEGIN>
                        1875 jarl22 _EVT_JudgeStopStartFault , lp 
000006bc 80ff0000*      1875 <EXPANSION END>
                        1876 --552: 	EVT_JudgeFuelFlt();
                        1877 --line552
                        1878 ..lin.D.3A.5CRenesas_Electronics.5CD1x_RGL.5Crgl_ghs_D1Lx_obj_V1.2E2.2E0.5Cvlib.5Capp.5Cgfx_apps.5Csimple_draw_d1l2.5Ctarget.5Cd1lx_mango_ghs.5Cobj.5Cacc.125::
                        1879 .LDWlin125:
                        1880 	jarl	_EVT_JudgeFuelFlt,lp
                        1880 <EXPANSION BEGIN>
                        1880 jarl22 _EVT_JudgeFuelFlt , lp 
000006c0 80ff0000*      1880 <EXPANSION END>
                        1881 --553:     EVT_JudgeFuelSensorOutOfRange();
                        1882 --line553

                                                                      Page 35
                                                              C:\Users\YINGAO~1\AppData\Local\Temp\gh_00001q41.si
                        1883 ..lin.D.3A.5CRenesas_Electronics.5CD1x_RGL.5Crgl_ghs_D1Lx_obj_V1.2E2.2E0.5Cvlib.5Capp.5Cgfx_apps.5Csimple_draw_d1l2.5Ctarget.5Cd1lx_mango_ghs.5Cobj.5Cacc.126::
                        1884 .LDWlin126:
                        1885 	jarl	_EVT_JudgeFuelSensorOutOfRange,lp
                        1885 <EXPANSION BEGIN>
                        1885 jarl22 _EVT_JudgeFuelSensorOutOfRange , lp 
000006c4 80ff0000*      1885 <EXPANSION END>
                        1886 --554: 	EVT_JudgeEmission();
                        1887 --line554
                        1888 ..lin.D.3A.5CRenesas_Electronics.5CD1x_RGL.5Crgl_ghs_D1Lx_obj_V1.2E2.2E0.5Cvlib.5Capp.5Cgfx_apps.5Csimple_draw_d1l2.5Ctarget.5Cd1lx_mango_ghs.5Cobj.5Cacc.127::
                        1889 .LDWlin127:
                        1890 	jarl	_EVT_JudgeEmission,lp
                        1890 <EXPANSION BEGIN>
                        1890 jarl22 _EVT_JudgeEmission , lp 
000006c8 80ff0000*      1890 <EXPANSION END>
                        1891 --555: 	EVT_JudgeEngine();
                        1892 --line555
                        1893 ..lin.D.3A.5CRenesas_Electronics.5CD1x_RGL.5Crgl_ghs_D1Lx_obj_V1.2E2.2E0.5Cvlib.5Capp.5Cgfx_apps.5Csimple_draw_d1l2.5Ctarget.5Cd1lx_mango_ghs.5Cobj.5Cacc.128::
                        1894 .LDWlin128:
                        1895 	jarl	_EVT_JudgeEngine,lp
                        1895 <EXPANSION BEGIN>
                        1895 jarl22 _EVT_JudgeEngine , lp 
000006cc 80ff0000*      1895 <EXPANSION END>
                        1896 --556: 	EVT_JudgeCharge();
                        1897 --line556
                        1898 ..lin.D.3A.5CRenesas_Electronics.5CD1x_RGL.5Crgl_ghs_D1Lx_obj_V1.2E2.2E0.5Cvlib.5Capp.5Cgfx_apps.5Csimple_draw_d1l2.5Ctarget.5Cd1lx_mango_ghs.5Cobj.5Cacc.129::
                        1899 .LDWlin129:
                        1900 	jarl	_EVT_JudgeCharge,lp
                        1900 <EXPANSION BEGIN>
                        1900 jarl22 _EVT_JudgeCharge , lp 
000006d0 80ff0000*      1900 <EXPANSION END>
                        1901 --557: 	EVT_JudgeOilPressure();
                        1902 --line557
                        1903 ..lin.D.3A.5CRenesas_Electronics.5CD1x_RGL.5Crgl_ghs_D1Lx_obj_V1.2E2.2E0.5Cvlib.5Capp.5Cgfx_apps.5Csimple_draw_d1l2.5Ctarget.5Cd1lx_mango_ghs.5Cobj.5Cacc.130::
                        1904 .LDWlin130:
                        1905 	jarl	_EVT_JudgeOilPressure,lp
                        1905 <EXPANSION BEGIN>
                        1905 jarl22 _EVT_JudgeOilPressure , lp 
000006d4 80ff0000*      1905 <EXPANSION END>
                        1906 --558: 	EVT_JudgeEPS();
                        1907 --line558
                        1908 ..lin.D.3A.5CRenesas_Electronics.5CD1x_RGL.5Crgl_ghs_D1Lx_obj_V1.2E2.2E0.5Cvlib.5Capp.5Cgfx_apps.5Csimple_draw_d1l2.5Ctarget.5Cd1lx_mango_ghs.5Cobj.5Cacc.131::
                        1909 .LDWlin131:
                        1910 	jarl	_EVT_JudgeEPS,lp
                        1910 <EXPANSION BEGIN>
                        1910 jarl22 _EVT_JudgeEPS , lp 
000006d8 80ff0000*      1910 <EXPANSION END>
                        1911 --559: 	EVT_JudgeSASFault();
                        1912 --line559
                        1913 ..lin.D.3A.5CRenesas_Electronics.5CD1x_RGL.5Crgl_ghs_D1Lx_obj_V1.2E2.2E0.5Cvlib.5Capp.5Cgfx_apps.5Csimple_draw_d1l2.5Ctarget.5Cd1lx_mango_ghs.5Cobj.5Cacc.132::
                        1914 .LDWlin132:
                        1915 	jarl	_EVT_JudgeSASFault,lp
                        1915 <EXPANSION BEGIN>
                        1915 jarl22 _EVT_JudgeSASFault , lp 
000006dc 80ff0000*      1915 <EXPANSION END>
                        1916 --560: 	EVT_JudgeSASUnCal();
                        1917 --line560
                        1918 ..lin.D.3A.5CRenesas_Electronics.5CD1x_RGL.5Crgl_ghs_D1Lx_obj_V1.2E2.2E0.5Cvlib.5Capp.5Cgfx_apps.5Csimple_draw_d1l2.5Ctarget.5Cd1lx_mango_ghs.5Cobj.5Cacc.133::
                        1919 .LDWlin133:
                        1920 	jarl	_EVT_JudgeSASUnCal,lp
                        1920 <EXPANSION BEGIN>
                        1920 jarl22 _EVT_JudgeSASUnCal , lp 

                                                                      Page 36
                                                              C:\Users\YINGAO~1\AppData\Local\Temp\gh_00001q41.si
000006e0 80ff0000*      1920 <EXPANSION END>
                        1921 --561: 	EVT_JudgeESCL();	
                        1922 --line561
                        1923 ..lin.D.3A.5CRenesas_Electronics.5CD1x_RGL.5Crgl_ghs_D1Lx_obj_V1.2E2.2E0.5Cvlib.5Capp.5Cgfx_apps.5Csimple_draw_d1l2.5Ctarget.5Cd1lx_mango_ghs.5Cobj.5Cacc.134::
                        1924 .LDWlin134:
                        1925 	jarl	_EVT_JudgeESCL,lp
                        1925 <EXPANSION BEGIN>
                        1925 jarl22 _EVT_JudgeESCL , lp 
000006e4 80ff0000*      1925 <EXPANSION END>
                        1926 --562: 	EVT_JudgeTPMS();
                        1927 --line562
                        1928 ..lin.D.3A.5CRenesas_Electronics.5CD1x_RGL.5Crgl_ghs_D1Lx_obj_V1.2E2.2E0.5Cvlib.5Capp.5Cgfx_apps.5Csimple_draw_d1l2.5Ctarget.5Cd1lx_mango_ghs.5Cobj.5Cacc.135::
                        1929 .LDWlin135:
                        1930 	jarl	_EVT_JudgeTPMS,lp
                        1930 <EXPANSION BEGIN>
                        1930 jarl22 _EVT_JudgeTPMS , lp 
000006e8 80ff0000*      1930 <EXPANSION END>
                        1931 --563: 	EVT_JudgeABS();
                        1932 --line563
                        1933 ..lin.D.3A.5CRenesas_Electronics.5CD1x_RGL.5Crgl_ghs_D1Lx_obj_V1.2E2.2E0.5Cvlib.5Capp.5Cgfx_apps.5Csimple_draw_d1l2.5Ctarget.5Cd1lx_mango_ghs.5Cobj.5Cacc.136::
                        1934 .LDWlin136:
                        1935 	jarl	_EVT_JudgeABS,lp
                        1935 <EXPANSION BEGIN>
                        1935 jarl22 _EVT_JudgeABS , lp 
000006ec 80ff0000*      1935 <EXPANSION END>
                        1936 --564: 	EVT_JudgeSCSFault();
                        1937 --line564
                        1938 ..lin.D.3A.5CRenesas_Electronics.5CD1x_RGL.5Crgl_ghs_D1Lx_obj_V1.2E2.2E0.5Cvlib.5Capp.5Cgfx_apps.5Csimple_draw_d1l2.5Ctarget.5Cd1lx_mango_ghs.5Cobj.5Cacc.137::
                        1939 .LDWlin137:
                        1940 	jarl	_EVT_JudgeSCSFault,lp
                        1940 <EXPANSION BEGIN>
                        1940 jarl22 _EVT_JudgeSCSFault , lp 
000006f0 80ff0000*      1940 <EXPANSION END>
                        1941 --565: 	EVT_JudgeSCSOff();
                        1942 --line565
                        1943 ..lin.D.3A.5CRenesas_Electronics.5CD1x_RGL.5Crgl_ghs_D1Lx_obj_V1.2E2.2E0.5Cvlib.5Capp.5Cgfx_apps.5Csimple_draw_d1l2.5Ctarget.5Cd1lx_mango_ghs.5Cobj.5Cacc.138::
                        1944 .LDWlin138:
                        1945 	jarl	_EVT_JudgeSCSOff,lp
                        1945 <EXPANSION BEGIN>
                        1945 jarl22 _EVT_JudgeSCSOff , lp 
000006f4 80ff0000*      1945 <EXPANSION END>
                        1946 --566: 	EVT_JudgeTCOff();
                        1947 --line566
                        1948 ..lin.D.3A.5CRenesas_Electronics.5CD1x_RGL.5Crgl_ghs_D1Lx_obj_V1.2E2.2E0.5Cvlib.5Capp.5Cgfx_apps.5Csimple_draw_d1l2.5Ctarget.5Cd1lx_mango_ghs.5Cobj.5Cacc.139::
                        1949 .LDWlin139:
                        1950 	jarl	_EVT_JudgeTCOff,lp
                        1950 <EXPANSION BEGIN>
                        1950 jarl22 _EVT_JudgeTCOff , lp 
000006f8 80ff0000*      1950 <EXPANSION END>
                        1951 --567: 	EVT_JudgeBrake();	
                        1952 --line567
                        1953 ..lin.D.3A.5CRenesas_Electronics.5CD1x_RGL.5Crgl_ghs_D1Lx_obj_V1.2E2.2E0.5Cvlib.5Capp.5Cgfx_apps.5Csimple_draw_d1l2.5Ctarget.5Cd1lx_mango_ghs.5Cobj.5Cacc.140::
                        1954 .LDWlin140:
                        1955 	jarl	_EVT_JudgeBrake,lp
                        1955 <EXPANSION BEGIN>
                        1955 jarl22 _EVT_JudgeBrake , lp 
000006fc 80ff0000*      1955 <EXPANSION END>
                        1956 --568: 	EVT_JudgeSRS();
                        1957 --line568
                        1958 ..lin.D.3A.5CRenesas_Electronics.5CD1x_RGL.5Crgl_ghs_D1Lx_obj_V1.2E2.2E0.5Cvlib.5Capp.5Cgfx_apps.5Csimple_draw_d1l2.5Ctarget.5Cd1lx_mango_ghs.5Cobj.5Cacc.141::
                        1959 .LDWlin141:

                                                                      Page 37
                                                              C:\Users\YINGAO~1\AppData\Local\Temp\gh_00001q41.si
                        1960 	jarl	_EVT_JudgeSRS,lp
                        1960 <EXPANSION BEGIN>
                        1960 jarl22 _EVT_JudgeSRS , lp 
00000700 80ff0000*      1960 <EXPANSION END>
                        1961 --569: 	EVT_JudgeSRSLEDFail();
                        1962 --line569
                        1963 ..lin.D.3A.5CRenesas_Electronics.5CD1x_RGL.5Crgl_ghs_D1Lx_obj_V1.2E2.2E0.5Cvlib.5Capp.5Cgfx_apps.5Csimple_draw_d1l2.5Ctarget.5Cd1lx_mango_ghs.5Cobj.5Cacc.142::
                        1964 .LDWlin142:
                        1965 	jarl	_EVT_JudgeSRSLEDFail,lp
                        1965 <EXPANSION BEGIN>
                        1965 jarl22 _EVT_JudgeSRSLEDFail , lp 
00000704 80ff0000*      1965 <EXPANSION END>
                        1966 --570: 	EVT_JudgeSideLamp();
                        1967 --line570
                        1968 ..lin.D.3A.5CRenesas_Electronics.5CD1x_RGL.5Crgl_ghs_D1Lx_obj_V1.2E2.2E0.5Cvlib.5Capp.5Cgfx_apps.5Csimple_draw_d1l2.5Ctarget.5Cd1lx_mango_ghs.5Cobj.5Cacc.143::
                        1969 .LDWlin143:
                        1970 	jarl	_EVT_JudgeSideLamp,lp
                        1970 <EXPANSION BEGIN>
                        1970 jarl22 _EVT_JudgeSideLamp , lp 
00000708 80ff0000*      1970 <EXPANSION END>
                        1971 --571: 	EVT_JudgeFrontFogLamp();
                        1972 --line571
                        1973 ..lin.D.3A.5CRenesas_Electronics.5CD1x_RGL.5Crgl_ghs_D1Lx_obj_V1.2E2.2E0.5Cvlib.5Capp.5Cgfx_apps.5Csimple_draw_d1l2.5Ctarget.5Cd1lx_mango_ghs.5Cobj.5Cacc.144::
                        1974 .LDWlin144:
                        1975 	jarl	_EVT_JudgeFrontFogLamp,lp
                        1975 <EXPANSION BEGIN>
                        1975 jarl22 _EVT_JudgeFrontFogLamp , lp 
0000070c 80ff0000*      1975 <EXPANSION END>
                        1976 --572: 	EVT_JudgeRearFogLamp();		
                        1977 --line572
                        1978 ..lin.D.3A.5CRenesas_Electronics.5CD1x_RGL.5Crgl_ghs_D1Lx_obj_V1.2E2.2E0.5Cvlib.5Capp.5Cgfx_apps.5Csimple_draw_d1l2.5Ctarget.5Cd1lx_mango_ghs.5Cobj.5Cacc.145::
                        1979 .LDWlin145:
                        1980 	jarl	_EVT_JudgeRearFogLamp,lp
                        1980 <EXPANSION BEGIN>
                        1980 jarl22 _EVT_JudgeRearFogLamp , lp 
00000710 80ff0000*      1980 <EXPANSION END>
                        1981 --573: 	EVT_JudgeHeadLamp();	
                        1982 --line573
                        1983 ..lin.D.3A.5CRenesas_Electronics.5CD1x_RGL.5Crgl_ghs_D1Lx_obj_V1.2E2.2E0.5Cvlib.5Capp.5Cgfx_apps.5Csimple_draw_d1l2.5Ctarget.5Cd1lx_mango_ghs.5Cobj.5Cacc.146::
                        1984 .LDWlin146:
                        1985 	jarl	_EVT_JudgeHeadLamp,lp
                        1985 <EXPANSION BEGIN>
                        1985 jarl22 _EVT_JudgeHeadLamp , lp 
00000714 80ff0000*      1985 <EXPANSION END>
                        1986 --574: 	EVT_JudgeKey();
                        1987 --line574
                        1988 ..lin.D.3A.5CRenesas_Electronics.5CD1x_RGL.5Crgl_ghs_D1Lx_obj_V1.2E2.2E0.5Cvlib.5Capp.5Cgfx_apps.5Csimple_draw_d1l2.5Ctarget.5Cd1lx_mango_ghs.5Cobj.5Cacc.147::
                        1989 .LDWlin147:
                        1990 	jarl	_EVT_JudgeKey,lp
                        1990 <EXPANSION BEGIN>
                        1990 jarl22 _EVT_JudgeKey , lp 
00000718 80ff0000*      1990 <EXPANSION END>
                        1991 --575: 	EVT_JudgeECO();
                        1992 --line575
                        1993 ..lin.D.3A.5CRenesas_Electronics.5CD1x_RGL.5Crgl_ghs_D1Lx_obj_V1.2E2.2E0.5Cvlib.5Capp.5Cgfx_apps.5Csimple_draw_d1l2.5Ctarget.5Cd1lx_mango_ghs.5Cobj.5Cacc.148::
                        1994 .LDWlin148:
                        1995 	jarl	_EVT_JudgeECO,lp
                        1995 <EXPANSION BEGIN>
                        1995 jarl22 _EVT_JudgeECO , lp 
0000071c 80ff0000*      1995 <EXPANSION END>
                        1996 --576: 	EVT_JudgeEPBStatus();

                                                                      Page 38
                                                              C:\Users\YINGAO~1\AppData\Local\Temp\gh_00001q41.si
                        1997 --line576
                        1998 ..lin.D.3A.5CRenesas_Electronics.5CD1x_RGL.5Crgl_ghs_D1Lx_obj_V1.2E2.2E0.5Cvlib.5Capp.5Cgfx_apps.5Csimple_draw_d1l2.5Ctarget.5Cd1lx_mango_ghs.5Cobj.5Cacc.149::
                        1999 .LDWlin149:
                        2000 	jarl	_EVT_JudgeEPBStatus,lp
                        2000 <EXPANSION BEGIN>
                        2000 jarl22 _EVT_JudgeEPBStatus , lp 
00000720 80ff0000*      2000 <EXPANSION END>
                        2001 --577: 	EVT_JudgeAutoHoldStatus();
                        2002 --line577
                        2003 ..lin.D.3A.5CRenesas_Electronics.5CD1x_RGL.5Crgl_ghs_D1Lx_obj_V1.2E2.2E0.5Cvlib.5Capp.5Cgfx_apps.5Csimple_draw_d1l2.5Ctarget.5Cd1lx_mango_ghs.5Cobj.5Cacc.150::
                        2004 .LDWlin150:
                        2005 	jarl	_EVT_JudgeAutoHoldStatus,lp
                        2005 <EXPANSION BEGIN>
                        2005 jarl22 _EVT_JudgeAutoHoldStatus , lp 
00000724 80ff0000*      2005 <EXPANSION END>
                        2006 --578: 	EVT_JudgeEPBFltWarnReq();
                        2007 --line578
                        2008 ..lin.D.3A.5CRenesas_Electronics.5CD1x_RGL.5Crgl_ghs_D1Lx_obj_V1.2E2.2E0.5Cvlib.5Capp.5Cgfx_apps.5Csimple_draw_d1l2.5Ctarget.5Cd1lx_mango_ghs.5Cobj.5Cacc.151::
                        2009 .LDWlin151:
                        2010 	jarl	_EVT_JudgeEPBFltWarnReq,lp
                        2010 <EXPANSION BEGIN>
                        2010 jarl22 _EVT_JudgeEPBFltWarnReq , lp 
00000728 80ff0000*      2010 <EXPANSION END>
                        2011 --579: 	EVT_JudgeHDCStatus();
                        2012 --line579
                        2013 ..lin.D.3A.5CRenesas_Electronics.5CD1x_RGL.5Crgl_ghs_D1Lx_obj_V1.2E2.2E0.5Cvlib.5Capp.5Cgfx_apps.5Csimple_draw_d1l2.5Ctarget.5Cd1lx_mango_ghs.5Cobj.5Cacc.152::
                        2014 .LDWlin152:
                        2015 	jarl	_EVT_JudgeHDCStatus,lp
                        2015 <EXPANSION BEGIN>
                        2015 jarl22 _EVT_JudgeHDCStatus , lp 
0000072c 80ff0000*      2015 <EXPANSION END>
                        2016 --580: 	EVT_JudgeLight();
                        2017 --line580
                        2018 ..lin.D.3A.5CRenesas_Electronics.5CD1x_RGL.5Crgl_ghs_D1Lx_obj_V1.2E2.2E0.5Cvlib.5Capp.5Cgfx_apps.5Csimple_draw_d1l2.5Ctarget.5Cd1lx_mango_ghs.5Cobj.5Cacc.153::
                        2019 .LDWlin153:
                        2020 	jarl	_EVT_JudgeLight,lp
                        2020 <EXPANSION BEGIN>
                        2020 jarl22 _EVT_JudgeLight , lp 
00000730 80ff0000*      2020 <EXPANSION END>
                        2021 --581: 	EVT_JudgeDoor();
                        2022 --line581
                        2023 ..lin.D.3A.5CRenesas_Electronics.5CD1x_RGL.5Crgl_ghs_D1Lx_obj_V1.2E2.2E0.5Cvlib.5Capp.5Cgfx_apps.5Csimple_draw_d1l2.5Ctarget.5Cd1lx_mango_ghs.5Cobj.5Cacc.154::
                        2024 .LDWlin154:
                        2025 	jarl	_EVT_JudgeDoor,lp
                        2025 <EXPANSION BEGIN>
                        2025 jarl22 _EVT_JudgeDoor , lp 
00000734 80ff0000*      2025 <EXPANSION END>
                        2026 --582: 	EVT_JudgeOverSpeed();
                        2027 --line582
                        2028 ..lin.D.3A.5CRenesas_Electronics.5CD1x_RGL.5Crgl_ghs_D1Lx_obj_V1.2E2.2E0.5Cvlib.5Capp.5Cgfx_apps.5Csimple_draw_d1l2.5Ctarget.5Cd1lx_mango_ghs.5Cobj.5Cacc.155::
                        2029 .LDWlin155:
                        2030 	jarl	_EVT_JudgeOverSpeed,lp
                        2030 <EXPANSION BEGIN>
                        2030 jarl22 _EVT_JudgeOverSpeed , lp 
00000738 80ff0000*      2030 <EXPANSION END>
                        2031 --583: 	EVT_JudgePDC();
                        2032 --line583
                        2033 ..lin.D.3A.5CRenesas_Electronics.5CD1x_RGL.5Crgl_ghs_D1Lx_obj_V1.2E2.2E0.5Cvlib.5Capp.5Cgfx_apps.5Csimple_draw_d1l2.5Ctarget.5Cd1lx_mango_ghs.5Cobj.5Cacc.156::
                        2034 .LDWlin156:
                        2035 	jarl	_EVT_JudgePDC,lp
                        2035 <EXPANSION BEGIN>

                                                                      Page 39
                                                              C:\Users\YINGAO~1\AppData\Local\Temp\gh_00001q41.si
                        2035 jarl22 _EVT_JudgePDC , lp 
0000073c 80ff0000*      2035 <EXPANSION END>
                        2036 --584: 	EVT_JudgeIgnitionKey();
                        2037 --line584
                        2038 ..lin.D.3A.5CRenesas_Electronics.5CD1x_RGL.5Crgl_ghs_D1Lx_obj_V1.2E2.2E0.5Cvlib.5Capp.5Cgfx_apps.5Csimple_draw_d1l2.5Ctarget.5Cd1lx_mango_ghs.5Cobj.5Cacc.157::
                        2039 .LDWlin157:
                        2040 	jarl	_EVT_JudgeIgnitionKey,lp
                        2040 <EXPANSION BEGIN>
                        2040 jarl22 _EVT_JudgeIgnitionKey , lp 
00000740 80ff0000*      2040 <EXPANSION END>
                        2041 --585: 	EVT_JudgeSeatbelt();
                        2042 --line585
                        2043 ..lin.D.3A.5CRenesas_Electronics.5CD1x_RGL.5Crgl_ghs_D1Lx_obj_V1.2E2.2E0.5Cvlib.5Capp.5Cgfx_apps.5Csimple_draw_d1l2.5Ctarget.5Cd1lx_mango_ghs.5Cobj.5Cacc.158::
                        2044 .LDWlin158:
                        2045 	jarl	_EVT_JudgeSeatbelt,lp
                        2045 <EXPANSION BEGIN>
                        2045 jarl22 _EVT_JudgeSeatbelt , lp 
00000744 80ff0000*      2045 <EXPANSION END>
                        2046 --586: 	EVT_JudgeClutchBrakeStart();
                        2047 --line586
                        2048 ..lin.D.3A.5CRenesas_Electronics.5CD1x_RGL.5Crgl_ghs_D1Lx_obj_V1.2E2.2E0.5Cvlib.5Capp.5Cgfx_apps.5Csimple_draw_d1l2.5Ctarget.5Cd1lx_mango_ghs.5Cobj.5Cacc.159::
                        2049 .LDWlin159:
                        2050 	jarl	_EVT_JudgeClutchBrakeStart,lp
                        2050 <EXPANSION BEGIN>
                        2050 jarl22 _EVT_JudgeClutchBrakeStart , lp 
00000748 80ff0000*      2050 <EXPANSION END>
                        2051 --587: 	EVT_JudgeClutchSwitchFlt();
                        2052 --line587
                        2053 ..lin.D.3A.5CRenesas_Electronics.5CD1x_RGL.5Crgl_ghs_D1Lx_obj_V1.2E2.2E0.5Cvlib.5Capp.5Cgfx_apps.5Csimple_draw_d1l2.5Ctarget.5Cd1lx_mango_ghs.5Cobj.5Cacc.160::
                        2054 .LDWlin160:
                        2055 	jarl	_EVT_JudgeClutchSwitchFlt,lp
                        2055 <EXPANSION BEGIN>
                        2055 jarl22 _EVT_JudgeClutchSwitchFlt , lp 
0000074c 80ff0000*      2055 <EXPANSION END>
                        2056 --588: 	EVT_JudgeNoKeyClutchStart();
                        2057 --line588
                        2058 ..lin.D.3A.5CRenesas_Electronics.5CD1x_RGL.5Crgl_ghs_D1Lx_obj_V1.2E2.2E0.5Cvlib.5Capp.5Cgfx_apps.5Csimple_draw_d1l2.5Ctarget.5Cd1lx_mango_ghs.5Cobj.5Cacc.161::
                        2059 .LDWlin161:
                        2060 	jarl	_EVT_JudgeNoKeyClutchStart,lp
                        2060 <EXPANSION BEGIN>
                        2060 jarl22 _EVT_JudgeNoKeyClutchStart , lp 
00000750 80ff0000*      2060 <EXPANSION END>
                        2061 --589: 	EVT_JudgeNoKeyBrakeStart();
                        2062 --line589
                        2063 ..lin.D.3A.5CRenesas_Electronics.5CD1x_RGL.5Crgl_ghs_D1Lx_obj_V1.2E2.2E0.5Cvlib.5Capp.5Cgfx_apps.5Csimple_draw_d1l2.5Ctarget.5Cd1lx_mango_ghs.5Cobj.5Cacc.162::
                        2064 .LDWlin162:
                        2065 	jarl	_EVT_JudgeNoKeyBrakeStart,lp
                        2065 <EXPANSION BEGIN>
                        2065 jarl22 _EVT_JudgeNoKeyBrakeStart , lp 
00000754 80ff0000*      2065 <EXPANSION END>
                        2066 --590: 	EVT_JudgeCloseDrvDoorStart();
                        2067 --line590
                        2068 ..lin.D.3A.5CRenesas_Electronics.5CD1x_RGL.5Crgl_ghs_D1Lx_obj_V1.2E2.2E0.5Cvlib.5Capp.5Cgfx_apps.5Csimple_draw_d1l2.5Ctarget.5Cd1lx_mango_ghs.5Cobj.5Cacc.163::
                        2069 .LDWlin163:
                        2070 	jarl	_EVT_JudgeCloseDrvDoorStart,lp
                        2070 <EXPANSION BEGIN>
                        2070 jarl22 _EVT_JudgeCloseDrvDoorStart , lp 
00000758 80ff0000*      2070 <EXPANSION END>
                        2071 --591: 	EVT_JudgeSeatBeltStart();
                        2072 --line591
                        2073 ..lin.D.3A.5CRenesas_Electronics.5CD1x_RGL.5Crgl_ghs_D1Lx_obj_V1.2E2.2E0.5Cvlib.5Capp.5Cgfx_apps.5Csimple_draw_d1l2.5Ctarget.5Cd1lx_mango_ghs.5Cobj.5Cacc.164::

                                                                      Page 40
                                                              C:\Users\YINGAO~1\AppData\Local\Temp\gh_00001q41.si
                        2074 .LDWlin164:
                        2075 	jarl	_EVT_JudgeSeatBeltStart,lp
                        2075 <EXPANSION BEGIN>
                        2075 jarl22 _EVT_JudgeSeatBeltStart , lp 
0000075c 80ff0000*      2075 <EXPANSION END>
                        2076 --592: 	EVT_JudgeAutoStR();
                        2077 --line592
                        2078 ..lin.D.3A.5CRenesas_Electronics.5CD1x_RGL.5Crgl_ghs_D1Lx_obj_V1.2E2.2E0.5Cvlib.5Capp.5Cgfx_apps.5Csimple_draw_d1l2.5Ctarget.5Cd1lx_mango_ghs.5Cobj.5Cacc.165::
                        2079 .LDWlin165:
                        2080 	jarl	_EVT_JudgeAutoStR,lp
                        2080 <EXPANSION BEGIN>
                        2080 jarl22 _EVT_JudgeAutoStR , lp 
00000760 80ff0000*      2080 <EXPANSION END>
                        2081 --593: 	EVT_JudgeAssOnOffSts();
                        2082 --line593
                        2083 ..lin.D.3A.5CRenesas_Electronics.5CD1x_RGL.5Crgl_ghs_D1Lx_obj_V1.2E2.2E0.5Cvlib.5Capp.5Cgfx_apps.5Csimple_draw_d1l2.5Ctarget.5Cd1lx_mango_ghs.5Cobj.5Cacc.166::
                        2084 .LDWlin166:
                        2085 	jarl	_EVT_JudgeAssOnOffSts,lp
                        2085 <EXPANSION BEGIN>
                        2085 jarl22 _EVT_JudgeAssOnOffSts , lp 
00000764 80ff0000*      2085 <EXPANSION END>
                        2086 --594: 	EVT_JudgeAutoHoldRmd();
                        2087 --line594
                        2088 ..lin.D.3A.5CRenesas_Electronics.5CD1x_RGL.5Crgl_ghs_D1Lx_obj_V1.2E2.2E0.5Cvlib.5Capp.5Cgfx_apps.5Csimple_draw_d1l2.5Ctarget.5Cd1lx_mango_ghs.5Cobj.5Cacc.167::
                        2089 .LDWlin167:
                        2090 	jarl	_EVT_JudgeAutoHoldRmd,lp
                        2090 <EXPANSION BEGIN>
                        2090 jarl22 _EVT_JudgeAutoHoldRmd , lp 
00000768 80ff0000*      2090 <EXPANSION END>
                        2091 --595: 	EVT_JudgeSSBEnOffRmd();
                        2092 --line595
                        2093 ..lin.D.3A.5CRenesas_Electronics.5CD1x_RGL.5Crgl_ghs_D1Lx_obj_V1.2E2.2E0.5Cvlib.5Capp.5Cgfx_apps.5Csimple_draw_d1l2.5Ctarget.5Cd1lx_mango_ghs.5Cobj.5Cacc.168::
                        2094 .LDWlin168:
                        2095 	jarl	_EVT_JudgeSSBEnOffRmd,lp
                        2095 <EXPANSION BEGIN>
                        2095 jarl22 _EVT_JudgeSSBEnOffRmd , lp 
0000076c 80ff0000*      2095 <EXPANSION END>
                        2096 --596: 	EVT_JudgeShifterLckRlseBrkReq();
                        2097 --line596
                        2098 ..lin.D.3A.5CRenesas_Electronics.5CD1x_RGL.5Crgl_ghs_D1Lx_obj_V1.2E2.2E0.5Cvlib.5Capp.5Cgfx_apps.5Csimple_draw_d1l2.5Ctarget.5Cd1lx_mango_ghs.5Cobj.5Cacc.169::
                        2099 .LDWlin169:
                        2100 	jarl	_EVT_JudgeShifterLckRlseBrkReq,lp
                        2100 <EXPANSION BEGIN>
                        2100 jarl22 _EVT_JudgeShifterLckRlseBrkReq , lp 
00000770 80ff0000*      2100 <EXPANSION END>
                        2101 --597: 	EVT_JudgeTakeSmartKey();
                        2102 --line597
                        2103 ..lin.D.3A.5CRenesas_Electronics.5CD1x_RGL.5Crgl_ghs_D1Lx_obj_V1.2E2.2E0.5Cvlib.5Capp.5Cgfx_apps.5Csimple_draw_d1l2.5Ctarget.5Cd1lx_mango_ghs.5Cobj.5Cacc.170::
                        2104 .LDWlin170:
                        2105 	jarl	_EVT_JudgeTakeSmartKey,lp
                        2105 <EXPANSION BEGIN>
                        2105 jarl22 _EVT_JudgeTakeSmartKey , lp 
00000774 80ff0000*      2105 <EXPANSION END>
                        2106 --598: 	EVT_JudgeShiftParkRmd();
                        2107 --line598
                        2108 ..lin.D.3A.5CRenesas_Electronics.5CD1x_RGL.5Crgl_ghs_D1Lx_obj_V1.2E2.2E0.5Cvlib.5Capp.5Cgfx_apps.5Csimple_draw_d1l2.5Ctarget.5Cd1lx_mango_ghs.5Cobj.5Cacc.171::
                        2109 .LDWlin171:
                        2110 	jarl	_EVT_JudgeShiftParkRmd,lp
                        2110 <EXPANSION BEGIN>
                        2110 jarl22 _EVT_JudgeShiftParkRmd , lp 
00000778 80ff0000*      2110 <EXPANSION END>

                                                                      Page 41
                                                              C:\Users\YINGAO~1\AppData\Local\Temp\gh_00001q41.si
                        2111 --599: 	EVT_JudgePutSmtKeyRmd();
                        2112 --line599
                        2113 ..lin.D.3A.5CRenesas_Electronics.5CD1x_RGL.5Crgl_ghs_D1Lx_obj_V1.2E2.2E0.5Cvlib.5Capp.5Cgfx_apps.5Csimple_draw_d1l2.5Ctarget.5Cd1lx_mango_ghs.5Cobj.5Cacc.172::
                        2114 .LDWlin172:
                        2115 	jarl	_EVT_JudgePutSmtKeyRmd,lp
                        2115 <EXPANSION BEGIN>
                        2115 jarl22 _EVT_JudgePutSmtKeyRmd , lp 
0000077c 80ff0000*      2115 <EXPANSION END>
                        2116 --600: 	EVT_JudgePowerModeFlt();
                        2117 --line600
                        2118 ..lin.D.3A.5CRenesas_Electronics.5CD1x_RGL.5Crgl_ghs_D1Lx_obj_V1.2E2.2E0.5Cvlib.5Capp.5Cgfx_apps.5Csimple_draw_d1l2.5Ctarget.5Cd1lx_mango_ghs.5Cobj.5Cacc.173::
                        2119 .LDWlin173:
                        2120 	jarl	_EVT_JudgePowerModeFlt,lp
                        2120 <EXPANSION BEGIN>
                        2120 jarl22 _EVT_JudgePowerModeFlt , lp 
00000780 80ff0000*      2120 <EXPANSION END>
                        2121 --601: 	EVT_JudgeSSBFlt();
                        2122 --line601
                        2123 ..lin.D.3A.5CRenesas_Electronics.5CD1x_RGL.5Crgl_ghs_D1Lx_obj_V1.2E2.2E0.5Cvlib.5Capp.5Cgfx_apps.5Csimple_draw_d1l2.5Ctarget.5Cd1lx_mango_ghs.5Cobj.5Cacc.174::
                        2124 .LDWlin174:
                        2125 	jarl	_EVT_JudgeSSBFlt,lp
                        2125 <EXPANSION BEGIN>
                        2125 jarl22 _EVT_JudgeSSBFlt , lp 
00000784 80ff0000*      2125 <EXPANSION END>
                        2126 --602: 	EVT_JudgeLBeamLgtFlt();
                        2127 --line602
                        2128 ..lin.D.3A.5CRenesas_Electronics.5CD1x_RGL.5Crgl_ghs_D1Lx_obj_V1.2E2.2E0.5Cvlib.5Capp.5Cgfx_apps.5Csimple_draw_d1l2.5Ctarget.5Cd1lx_mango_ghs.5Cobj.5Cacc.175::
                        2129 .LDWlin175:
                        2130 	jarl	_EVT_JudgeLBeamLgtFlt,lp
                        2130 <EXPANSION BEGIN>
                        2130 jarl22 _EVT_JudgeLBeamLgtFlt , lp 
00000788 80ff0000*      2130 <EXPANSION END>
                        2131 --603: 	EVT_JudgeRBeamLgtFlt();
                        2132 --line603
                        2133 ..lin.D.3A.5CRenesas_Electronics.5CD1x_RGL.5Crgl_ghs_D1Lx_obj_V1.2E2.2E0.5Cvlib.5Capp.5Cgfx_apps.5Csimple_draw_d1l2.5Ctarget.5Cd1lx_mango_ghs.5Cobj.5Cacc.176::
                        2134 .LDWlin176:
                        2135 	jarl	_EVT_JudgeRBeamLgtFlt,lp
                        2135 <EXPANSION BEGIN>
                        2135 jarl22 _EVT_JudgeRBeamLgtFlt , lp 
0000078c 80ff0000*      2135 <EXPANSION END>
                        2136 --604: 	EVT_JudgeLDirLgtFlt();
                        2137 --line604
                        2138 ..lin.D.3A.5CRenesas_Electronics.5CD1x_RGL.5Crgl_ghs_D1Lx_obj_V1.2E2.2E0.5Cvlib.5Capp.5Cgfx_apps.5Csimple_draw_d1l2.5Ctarget.5Cd1lx_mango_ghs.5Cobj.5Cacc.177::
                        2139 .LDWlin177:
                        2140 	jarl	_EVT_JudgeLDirLgtFlt,lp
                        2140 <EXPANSION BEGIN>
                        2140 jarl22 _EVT_JudgeLDirLgtFlt , lp 
00000790 80ff0000*      2140 <EXPANSION END>
                        2141 --605: 	EVT_JudgeRDirLgtFlt();
                        2142 --line605
                        2143 ..lin.D.3A.5CRenesas_Electronics.5CD1x_RGL.5Crgl_ghs_D1Lx_obj_V1.2E2.2E0.5Cvlib.5Capp.5Cgfx_apps.5Csimple_draw_d1l2.5Ctarget.5Cd1lx_mango_ghs.5Cobj.5Cacc.178::
                        2144 .LDWlin178:
                        2145 	jarl	_EVT_JudgeRDirLgtFlt,lp
                        2145 <EXPANSION BEGIN>
                        2145 jarl22 _EVT_JudgeRDirLgtFlt , lp 
00000794 80ff0000*      2145 <EXPANSION END>
                        2146 --606: 	EVT_JudgeLBrakeLgtFlt();
                        2147 --line606
                        2148 ..lin.D.3A.5CRenesas_Electronics.5CD1x_RGL.5Crgl_ghs_D1Lx_obj_V1.2E2.2E0.5Cvlib.5Capp.5Cgfx_apps.5Csimple_draw_d1l2.5Ctarget.5Cd1lx_mango_ghs.5Cobj.5Cacc.179::
                        2149 .LDWlin179:
                        2150 	jarl	_EVT_JudgeLBrakeLgtFlt,lp

                                                                      Page 42
                                                              C:\Users\YINGAO~1\AppData\Local\Temp\gh_00001q41.si
                        2150 <EXPANSION BEGIN>
                        2150 jarl22 _EVT_JudgeLBrakeLgtFlt , lp 
00000798 80ff0000*      2150 <EXPANSION END>
                        2151 --607: 	EVT_JudgeRBrakeLgtFlt();
                        2152 --line607
                        2153 ..lin.D.3A.5CRenesas_Electronics.5CD1x_RGL.5Crgl_ghs_D1Lx_obj_V1.2E2.2E0.5Cvlib.5Capp.5Cgfx_apps.5Csimple_draw_d1l2.5Ctarget.5Cd1lx_mango_ghs.5Cobj.5Cacc.180::
                        2154 .LDWlin180:
                        2155 	jarl	_EVT_JudgeRBrakeLgtFlt,lp
                        2155 <EXPANSION BEGIN>
                        2155 jarl22 _EVT_JudgeRBrakeLgtFlt , lp 
0000079c 80ff0000*      2155 <EXPANSION END>
                        2156 --608: 	EVT_JudgeLSideLgtFlt();
                        2157 --line608
                        2158 ..lin.D.3A.5CRenesas_Electronics.5CD1x_RGL.5Crgl_ghs_D1Lx_obj_V1.2E2.2E0.5Cvlib.5Capp.5Cgfx_apps.5Csimple_draw_d1l2.5Ctarget.5Cd1lx_mango_ghs.5Cobj.5Cacc.181::
                        2159 .LDWlin181:
                        2160 	jarl	_EVT_JudgeLSideLgtFlt,lp
                        2160 <EXPANSION BEGIN>
                        2160 jarl22 _EVT_JudgeLSideLgtFlt , lp 
000007a0 80ff0000*      2160 <EXPANSION END>
                        2161 --609: 	EVT_JudgeRSideLgtFlt();
                        2162 --line609
                        2163 ..lin.D.3A.5CRenesas_Electronics.5CD1x_RGL.5Crgl_ghs_D1Lx_obj_V1.2E2.2E0.5Cvlib.5Capp.5Cgfx_apps.5Csimple_draw_d1l2.5Ctarget.5Cd1lx_mango_ghs.5Cobj.5Cacc.182::
                        2164 .LDWlin182:
                        2165 	jarl	_EVT_JudgeRSideLgtFlt,lp
                        2165 <EXPANSION BEGIN>
                        2165 jarl22 _EVT_JudgeRSideLgtFlt , lp 
000007a4 80ff0000*      2165 <EXPANSION END>
                        2166 --610: 	EVT_JudgeDayTimeRunLgtFlt();
                        2167 --line610
                        2168 ..lin.D.3A.5CRenesas_Electronics.5CD1x_RGL.5Crgl_ghs_D1Lx_obj_V1.2E2.2E0.5Cvlib.5Capp.5Cgfx_apps.5Csimple_draw_d1l2.5Ctarget.5Cd1lx_mango_ghs.5Cobj.5Cacc.183::
                        2169 .LDWlin183:
                        2170 	jarl	_EVT_JudgeDayTimeRunLgtFlt,lp
                        2170 <EXPANSION BEGIN>
                        2170 jarl22 _EVT_JudgeDayTimeRunLgtFlt , lp 
000007a8 80ff0000*      2170 <EXPANSION END>
                        2171 --611: 	EVT_JudgeRearFrogLgtFlt();
                        2172 --line611
                        2173 ..lin.D.3A.5CRenesas_Electronics.5CD1x_RGL.5Crgl_ghs_D1Lx_obj_V1.2E2.2E0.5Cvlib.5Capp.5Cgfx_apps.5Csimple_draw_d1l2.5Ctarget.5Cd1lx_mango_ghs.5Cobj.5Cacc.184::
                        2174 .LDWlin184:
                        2175 	jarl	_EVT_JudgeRearFrogLgtFlt,lp
                        2175 <EXPANSION BEGIN>
                        2175 jarl22 _EVT_JudgeRearFrogLgtFlt , lp 
000007ac 80ff0000*      2175 <EXPANSION END>
                        2176 --612: 	EVT_JudgeReverseLgtFlt();
                        2177 --line612
                        2178 ..lin.D.3A.5CRenesas_Electronics.5CD1x_RGL.5Crgl_ghs_D1Lx_obj_V1.2E2.2E0.5Cvlib.5Capp.5Cgfx_apps.5Csimple_draw_d1l2.5Ctarget.5Cd1lx_mango_ghs.5Cobj.5Cacc.185::
                        2179 .LDWlin185:
                        2180 	jarl	_EVT_JudgeReverseLgtFlt,lp
                        2180 <EXPANSION BEGIN>
                        2180 jarl22 _EVT_JudgeReverseLgtFlt , lp 
000007b0 80ff0000*      2180 <EXPANSION END>
                        2181 --613: 	EVT_JudgeDrvrWndOpenRmndr();
                        2182 --line613
                        2183 ..lin.D.3A.5CRenesas_Electronics.5CD1x_RGL.5Crgl_ghs_D1Lx_obj_V1.2E2.2E0.5Cvlib.5Capp.5Cgfx_apps.5Csimple_draw_d1l2.5Ctarget.5Cd1lx_mango_ghs.5Cobj.5Cacc.186::
                        2184 .LDWlin186:
                        2185 	jarl	_EVT_JudgeDrvrWndOpenRmndr,lp
                        2185 <EXPANSION BEGIN>
                        2185 jarl22 _EVT_JudgeDrvrWndOpenRmndr , lp 
000007b4 80ff0000*      2185 <EXPANSION END>
                        2186 --614: 	EVT_JudgeSrfOpenRmndr();
                        2187 --line614

                                                                      Page 43
                                                              C:\Users\YINGAO~1\AppData\Local\Temp\gh_00001q41.si
                        2188 ..lin.D.3A.5CRenesas_Electronics.5CD1x_RGL.5Crgl_ghs_D1Lx_obj_V1.2E2.2E0.5Cvlib.5Capp.5Cgfx_apps.5Csimple_draw_d1l2.5Ctarget.5Cd1lx_mango_ghs.5Cobj.5Cacc.187::
                        2189 .LDWlin187:
                        2190 	jarl	_EVT_JudgeSrfOpenRmndr,lp
                        2190 <EXPANSION BEGIN>
                        2190 jarl22 _EVT_JudgeSrfOpenRmndr , lp 
000007b8 80ff0000*      2190 <EXPANSION END>
                        2191 --615: 	EVT_JudgeEPBSysDspMsgReq();
                        2192 --line615
                        2193 ..lin.D.3A.5CRenesas_Electronics.5CD1x_RGL.5Crgl_ghs_D1Lx_obj_V1.2E2.2E0.5Cvlib.5Capp.5Cgfx_apps.5Csimple_draw_d1l2.5Ctarget.5Cd1lx_mango_ghs.5Cobj.5Cacc.188::
                        2194 .LDWlin188:
                        2195 	jarl	_EVT_JudgeEPBSysDspMsgReq,lp
                        2195 <EXPANSION BEGIN>
                        2195 jarl22 _EVT_JudgeEPBSysDspMsgReq , lp 
000007bc 80ff0000*      2195 <EXPANSION END>
                        2196 --616: 	EVT_JudgeBatAgngSta();
                        2197 --line616
                        2198 ..lin.D.3A.5CRenesas_Electronics.5CD1x_RGL.5Crgl_ghs_D1Lx_obj_V1.2E2.2E0.5Cvlib.5Capp.5Cgfx_apps.5Csimple_draw_d1l2.5Ctarget.5Cd1lx_mango_ghs.5Cobj.5Cacc.189::
                        2199 .LDWlin189:
                        2200 	jarl	_EVT_JudgeBatAgngSta,lp
                        2200 <EXPANSION BEGIN>
                        2200 jarl22 _EVT_JudgeBatAgngSta , lp 
000007c0 80ff0000*      2200 <EXPANSION END>
                        2201 --617: 	EVT_JudgeGearShftParkNtrlESR();
                        2202 --line617
                        2203 ..lin.D.3A.5CRenesas_Electronics.5CD1x_RGL.5Crgl_ghs_D1Lx_obj_V1.2E2.2E0.5Cvlib.5Capp.5Cgfx_apps.5Csimple_draw_d1l2.5Ctarget.5Cd1lx_mango_ghs.5Cobj.5Cacc.190::
                        2204 .LDWlin190:
                        2205 	jarl	_EVT_JudgeGearShftParkNtrlESR,lp
                        2205 <EXPANSION BEGIN>
                        2205 jarl22 _EVT_JudgeGearShftParkNtrlESR , lp 
000007c4 80ff0000*      2205 <EXPANSION END>
                        2206 --618: 	EVT_JudgeDrvrPWLInitnRmndr();
                        2207 --line618
                        2208 ..lin.D.3A.5CRenesas_Electronics.5CD1x_RGL.5Crgl_ghs_D1Lx_obj_V1.2E2.2E0.5Cvlib.5Capp.5Cgfx_apps.5Csimple_draw_d1l2.5Ctarget.5Cd1lx_mango_ghs.5Cobj.5Cacc.191::
                        2209 .LDWlin191:
                        2210 	jarl	_EVT_JudgeDrvrPWLInitnRmndr,lp
                        2210 <EXPANSION BEGIN>
                        2210 jarl22 _EVT_JudgeDrvrPWLInitnRmndr , lp 
000007c8 80ff0000*      2210 <EXPANSION END>
                        2211 --619: 	EVT_JudgeSrfInitnRmndr();
                        2212 --line619
                        2213 ..lin.D.3A.5CRenesas_Electronics.5CD1x_RGL.5Crgl_ghs_D1Lx_obj_V1.2E2.2E0.5Cvlib.5Capp.5Cgfx_apps.5Csimple_draw_d1l2.5Ctarget.5Cd1lx_mango_ghs.5Cobj.5Cacc.192::
                        2214 .LDWlin192:
                        2215 	jarl	_EVT_JudgeSrfInitnRmndr,lp
                        2215 <EXPANSION BEGIN>
                        2215 jarl22 _EVT_JudgeSrfInitnRmndr , lp 
000007cc 80ff0000*      2215 <EXPANSION END>
                        2216 --620: 	EVT_JudgePEPSAntFlt();
                        2217 --line620
                        2218 ..lin.D.3A.5CRenesas_Electronics.5CD1x_RGL.5Crgl_ghs_D1Lx_obj_V1.2E2.2E0.5Cvlib.5Capp.5Cgfx_apps.5Csimple_draw_d1l2.5Ctarget.5Cd1lx_mango_ghs.5Cobj.5Cacc.193::
                        2219 .LDWlin193:
                        2220 	jarl	_EVT_JudgePEPSAntFlt,lp
                        2220 <EXPANSION BEGIN>
                        2220 jarl22 _EVT_JudgePEPSAntFlt , lp 
000007d0 80ff0000*      2220 <EXPANSION END>
                        2221 --621: 	EVT_JudgeSIA();
                        2222 --line621
                        2223 ..lin.D.3A.5CRenesas_Electronics.5CD1x_RGL.5Crgl_ghs_D1Lx_obj_V1.2E2.2E0.5Cvlib.5Capp.5Cgfx_apps.5Csimple_draw_d1l2.5Ctarget.5Cd1lx_mango_ghs.5Cobj.5Cacc.194::
                        2224 .LDWlin194:
                        2225 	jarl	_EVT_JudgeSIA,lp
                        2225 <EXPANSION BEGIN>
                        2225 jarl22 _EVT_JudgeSIA , lp 

                                                                      Page 44
                                                              C:\Users\YINGAO~1\AppData\Local\Temp\gh_00001q41.si
000007d4 80ff0000*      2225 <EXPANSION END>
                        2226 --622: 	EVT_JudgeNaviStatus();
                        2227 --line622
                        2228 ..lin.D.3A.5CRenesas_Electronics.5CD1x_RGL.5Crgl_ghs_D1Lx_obj_V1.2E2.2E0.5Cvlib.5Capp.5Cgfx_apps.5Csimple_draw_d1l2.5Ctarget.5Cd1lx_mango_ghs.5Cobj.5Cacc.195::
                        2229 .LDWlin195:
                        2230 	jarl	_EVT_JudgeNaviStatus,lp
                        2230 <EXPANSION BEGIN>
                        2230 jarl22 _EVT_JudgeNaviStatus , lp 
000007d8 80ff0000*      2230 <EXPANSION END>
                        2231 --623: }
                        2232 --line623
                        2233 ..lin.D.3A.5CRenesas_Electronics.5CD1x_RGL.5Crgl_ghs_D1Lx_obj_V1.2E2.2E0.5Cvlib.5Capp.5Cgfx_apps.5Csimple_draw_d1l2.5Ctarget.5Cd1lx_mango_ghs.5Cobj.5Cacc.196::
                        2234 .LDWlin196:
000007dc 0000           2235 	nop
                        2236 --	    .ef
                        2237 .LDW23:
000007de 40063f00       2238 	dispose	0,{r31},[lp]
                        2239 	.type	_acc_JudgeEvent,@function
                        2240 	.size	_acc_JudgeEvent,.-_acc_JudgeEvent
                        2241 	.type	_acc_JudgeEvent..D.3A.5CRenesas_Electronics.5CD1x_RGL.5Crgl_ghs_D1Lx_obj_V1.2E2.2E0.5Cvlib.5Capp.5Cgfx_apps.5Csimple_draw_d1l2.5Ctarget.5Cd1lx_mango_ghs.5Cobj.5Cacc.,@function
                        2242 	.size	_acc_JudgeEvent..D.3A.5CRenesas_Electronics.5CD1x_RGL.5Crgl_ghs_D1Lx_obj_V1.2E2.2E0.5Cvlib.5Capp.5Cgfx_apps.5Csimple_draw_d1l2.5Ctarget.5Cd1lx_mango_ghs.5Cobj.5Cacc.,.-_acc_JudgeEvent..D.3A.5CRenesas_Electronics.5CD1x_RGL.5Crgl_ghs_D1Lx_obj_V1.2E2.2E0.5Cvlib.5Capp.5Cgfx_apps.5Csimple_draw_d1l2.5Ctarget.5Cd1lx_mango_ghs.5Cobj.5Cacc.
                        2243 	.align	2
                        2244 .LDW33:
                        2245 
                        2246 	.section ".bss","awb"
                        2247 .L1598:
                        2248 	.type	.L1598,@object
                        2249 	.size	.L1598,0
                        2250 	.data
                        2251 	.text
                        2252 
                        2253 	.align	2
                        2254 --_acc_InitSts	_acc_InitSts	static
                        2255 --_acc_InvalidFlag	_acc_InvalidFlag	static
                        2256 --_acc_FuelCsumpCounter	_acc_FuelCsumpCounter	static
                        2257 --_acc_NetUpdateCounter	_acc_NetUpdateCounter	static
                        2258 --_acc_ODOValuePre	_acc_ODOValuePre	static
                        2259 --_acc_FuelCsumpPre	_acc_FuelCsumpPre	static
                        2260 --_acc_NetEnRunA	_acc_NetEnRunA	static
                        2261 --_insTCFuelConsUpperLimitPrm	_insTCFuelConsUpperLimitPrm	static
                        2262 --_insTCFuelConsLowerLimitPrm	_insTCFuelConsLowerLimitPrm	static
                        2263 --_insGearShiftUpDwnWarnPrm	_insGearShiftUpDwnWarnPrm	static
                        2264 --_acc_ClstrDspdTrWrnng	_acc_ClstrDspdTrWrnng	static
                        2265 --_insTCFuelCapUpperLimitPrm	_insTCFuelCapUpperLimitPrm	static
                        2266 --_acc_InstantFuel	_acc_InstantFuel	static
                        2267 --_acc_GearOutputData	_acc_GearOutputData	static
                        2268 --_acc_NetOdoDec	_acc_NetOdoDec	static
                        2269 --_acc_NetFcDec	_acc_NetFcDec	static
                        2270 
                        2271 	.data
                        2272 	.ghsnote version,14
                        2273 	.ghsnote tools,3
                        2274 	.ghsnote options,144
                        2275 	.text
                        2276 	.align	2
                        2277 ..eof.D.3A.5CRenesas_Electronics.5CD1x_RGL.5Crgl_ghs_D1Lx_obj_V1.2E2.2E0.5Cvlib.5Capp.5Cgfx_apps.5Csimple_draw_d1l2.5Ctarget.5Cd1lx_mango_ghs.5Cobj.5Cacc...44.3A.5CRenesas_Electronics.5CD1x_RGL.5Crgl_ghs_D1Lx_obj_V1.2E2.2E0.5Cvlib.5Capp.5Cgfx_apps.5Csimple_draw_d1l2.5Ctarget.5Cd1lx_mango_ghs..5A740374..0::
                        2278 .rh850_flags DOUBLE,FLOAT,REGMODE22,DATA_ALIGN8,GP_FIX,EP_NONFIX,TP_FIX,REG2_RESERVE,DOUBLE64,G3M
