                                                                      Page 1
                                                              C:\Users\YINGAO~1\AppData\Local\Temp\gh_00006a41.si
Command Line: C:\ghs\comp_201355\ease850.exe -w -elf -b0 -I../../../../../Device -I../../../../../Driver/ADCE -I../../../../../Driver/CLOCK -I../../../../../Driver/DIO -I../../../../../Driver/DSPI -I../../../../../Driver/Interrupt -I../../../../../Driver/ISM -I../../../../../Driver/OSTM -I../../../../../Driver/PWM -I../../../../../Driver/RSTC -I../../../../../Driver/RTCA -I../../../../../Driver/STBC -I../../../../../Driver/TAUB -I../../../../../Driver/WDT -I../../../../../middleware\ADM -I../../../../../middleware\BPM -I../../../../../middleware\EED -I../../../../../middleware\IOM -I../../../../../middleware\LRM -I../../../../../middleware\MOM -I../../../../../middleware\PWMM -I../../../../../Common -I../../../../../Applayer\DSM -I../../../../../Applayer\FM -I../../../../../Applayer\TPM -I../../../../../Applayer\ACC -I../../../../../Applayer\ASS -I../../../../../Applayer\BAT -I../../../../../Applayer\COM -I../../../../../Applayer\COM\vtp -I../../../../../Applayer\COM\vtp\lib -I../../../../../Applayer\CRUS -I../../../../../Applayer\DIAG -I../../../../../Applayer\FC -I../../../../../Applayer\FL -I../../../../../Applayer\HSD -I../../../../../Applayer\IDLE -I../../../../../Applayer\ILLU -I../../../../../Applayer\LED -I../../../../../Applayer\MSG -I../../../../../Applayer\NVM -I../../../../../Applayer\ODO -I../../../../../Applayer\PWR -I../../../../../Applayer\RANG -I../../../../../Applayer\RST -I../../../../../Applayer\RTC -I../../../../../Applayer\SCS -I../../../../../Applayer\SSB -I../../../../../Applayer\ST -I../../../../../Applayer\STSMG -I../../../../../Applayer\SYS -I../../../../../Applayer\TIP -I../../../../../Applayer\TRIP -I../../../../../Applayer\CHM -I../../../../../Applayer\DM -I../../../../../Applayer\EVT -I../../../../../Applayer\FTR -I../../../../../Applayer\SLF -I../../../../../Applayer\NWD -I../../../../../Applayer\TPMS -I../../../../../Applayer\WFM -I../../../../../Applayer\NZM -I../../../../../app/gfx_apps/simple_draw_d1l2/src -I../../../../../bsp/board//config -I../../../../../bsp/board//src/gfx -I../../../../../bsp/board//src/hmi -I../../../../../bsp/board//src/stdio -I../../../../../bsp/board/d1lx_mango/config -I../../../../../bsp/board/d1lx_mango/src -I../../../../../bsp/board/d1lx_mango/src/gfx -I../../../../../bsp/board/d1lx_mango/src/hmi -I../../../../../bsp/board/d1lx_mango/src/stdio -I../../../../../bsp/gfx/lib -I../../../../../bsp/gfx/src -I../../../../../bsp/hmi/lib -I../../../../../bsp/hmi/src -I../../../../../bsp/lib -I../../../../../bsp/stdio/lib -I../../../../../bsp/stdio/src -I../../../../../cdi/lib -I../../../../../cdi/src -I../../../../../compiler/rh850_ghs/inc -I../../../../../device/d1lx/lib -I../../../../../device/d1lx/macro_cfg -I../../../../../device/d1lx/src/dev -I../../../../../device/d1lx/src/rh850_ghs -I../../../../../device/d1x_common/macro_cfg -I../../../../../device/d1x_common/src/csisw -I../../../../../device/d1x_common/src/ddb -I../../../../../device/d1x_common/src/dev -I../../../../../device/d1x_common/src/gfxbus -I../../../../../device/d1x_common/src/gpio -I../../../../../device/d1x_common/src/ostm -I../../../../../device/d1x_common/src/pbg -I../../../../../device/d1x_common/src/riic -I../../../../../device/d1x_common/src/sfma -I../../../../../device/d1x_common/src/spea -I../../../../../device/d1x_common/src/tauj -I../../../../../device/d1x_common/src/tick -I../../../../../device/d1x_common/src/vdce -I../../../../../device/d1x_common/src/wm -I../../../../../device/d1x_common/src/xbus -I../../../../../device/lib -I../../../../../macro/bus/pbg/lib -I../../../../../macro/bus/pbg/src -I../../../../../macro/csi/csisw/lib -I../../../../../macro/csi/csisw/src -I../../../../../macro/drw2d/lib -I../../../../../macro/drw2d/platform/cpu -I../../../../../macro/drw2d/platform/os/no_os -I../../../../../macro/drw2d/src -I../../../../../macro/flashc/sfcdb/lib -I../../../../../macro/flashc/sfcdb/src -I../../../../../macro/flashc/sfma/lib -I../../../../../macro/flashc/sfma/src -I../../../../../macro/gfxbus/lib -I../../../../../macro/gfxbus/src -I../../../../../macro/gfxbus/xbus/lib -I../../../../../macro/gfxbus/xbus/src -I../../../../../macro/gpio/lib -I../../../../../macro/gpio/src -I../../../../../macro/i2c/riic/lib -I../../../../../macro/i2c/riic/src -I../../../../../macro/tick/lib -I../../../../../macro/tick/src -I../../../../../macro/timer/ostm/lib -I../../../../../macro/timer/ostm/src -I../../../../../macro/timer/tauj/lib -I../../../../../macro/timer/tauj/src -I../../../../../macro/vdce/lib -I../../../../../macro/vdce/src -I../../../../../macro/vo/ddb/lib -I../../../../../macro/vo/ddb/src -I../../../../../macro/vo/spea/lib -I../../../../../macro/vo/spea/src -I../../../../../macro/wm/lib -I../../../../../macro/wm/src -I../../../../../app/gfx_apps/simple_draw_d1l2/src/QD_HMI -I../../../../../app/gfx_apps/simple_draw_d1l2/src/QD_HMI/HMI_Data -IC:\ghs\comp_201355\lib\rh850_22 -cg_underscore -cpu=rh850g3m -no_v850_simd -nomacro -patch_dbo=D:\Renesas_Electronics\D1x_RGL\rgl_ghs_D1Lx_obj_V1.2.0\vlib\app\gfx_apps\simple_draw_d1l2\target\d1lx_mango_ghs\obj\chm.dbo -source=chm.c -o .\obj\gh_00006a41.o -list=.\obj\chm.lst C:\Users\YINGAO~1\AppData\Local\Temp\gh_00006a41.si 
Original File: C:\Users\YINGAO~1\AppData\Local\Temp\gh_00006a41.si
Source File: chm.c
Directory: D:\Renesas_Electronics\D1x_RGL\rgl_ghs_D1Lx_obj_V1.2.0\vlib\app\gfx_apps\simple_draw_d1l2\target\d1lx_mango_ghs
Host OS: Windows 7 Service Pack 1
EASE: Copyright (C) 1983-2013 Green Hills Software.  All Rights Reversed.
Release: Compiler v2013.5.5
Build Directory: [Directory] BTOWINBOX:c:/build_2013_5_bto/2013-10-04.1311-2013_5_bto/win32-comp-ecom
Revision: [VCInfo] http://toolsvc/branches/release-branch-2013-5-bto/src@496240 (built by build)
Revision Date: Sat Oct 05 04:54:43 2013

Release Date: Sat Oct 05 05:20:49 2013

                           1 --Driver Command: ccv850 -c -MD -I../../../../../Device
                           2 --		-I../../../../../Driver/ADCE -I../../../../../Driver/CLOCK
                           3 --		-I../../../../../Driver/DIO -I../../../../../Driver/DSPI
                           4 --		-I../../../../../Driver/Interrupt -I../../../../../Driver/ISM
                           5 --		-I../../../../../Driver/OSTM -I../../../../../Driver/PWM
                           6 --		-I../../../../../Driver/RSTC -I../../../../../Driver/RTCA
                           7 --		-I../../../../../Driver/STBC -I../../../../../Driver/TAUB
                           8 --		-I../../../../../Driver/WDT -I../../../../../middleware\ADM
                           9 --		-I../../../../../middleware\BPM -I../../../../../middleware\EED
                          10 --		-I../../../../../middleware\IOM -I../../../../../middleware\LRM
                          11 --		-I../../../../../middleware\MOM -I../../../../../middleware\PWMM
                          12 --		-I../../../../../Common -I../../../../../Applayer\DSM
                          13 --		-I../../../../../Applayer\FM -I../../../../../Applayer\TPM
                          14 --		-I../../../../../Applayer\ACC -I../../../../../Applayer\ASS
                          15 --		-I../../../../../Applayer\BAT -I../../../../../Applayer\COM
                          16 --		-I../../../../../Applayer\COM\vtp
                          17 --		-I../../../../../Applayer\COM\vtp\lib
                          18 --		-I../../../../../Applayer\CRUS -I../../../../../Applayer\DIAG
                          19 --		-I../../../../../Applayer\FC -I../../../../../Applayer\FL
                          20 --		-I../../../../../Applayer\HSD -I../../../../../Applayer\IDLE
                          21 --		-I../../../../../Applayer\ILLU -I../../../../../Applayer\LED
                          22 --		-I../../../../../Applayer\MSG -I../../../../../Applayer\NVM
                          23 --		-I../../../../../Applayer\ODO -I../../../../../Applayer\PWR
                          24 --		-I../../../../../Applayer\RANG -I../../../../../Applayer\RST
                          25 --		-I../../../../../Applayer\RTC -I../../../../../Applayer\SCS
                          26 --		-I../../../../../Applayer\SSB -I../../../../../Applayer\ST
                          27 --		-I../../../../../Applayer\STSMG -I../../../../../Applayer\SYS
                          28 --		-I../../../../../Applayer\TIP -I../../../../../Applayer\TRIP
                          29 --		-I../../../../../Applayer\CHM -I../../../../../Applayer\DM
                          30 --		-I../../../../../Applayer\EVT -I../../../../../Applayer\FTR
                          31 --		-I../../../../../Applayer\SLF -I../../../../../Applayer\NWD
                          32 --		-I../../../../../Applayer\TPMS -I../../../../../Applayer\WFM
                          33 --		-I../../../../../Applayer\NZM
                          34 --		-I../../../../../app/gfx_apps/simple_draw_d1l2/src
                          35 --		-I../../../../../bsp/board//config
                          36 --		-I../../../../../bsp/board//src/gfx
                          37 --		-I../../../../../bsp/board//src/hmi
                          38 --		-I../../../../../bsp/board//src/stdio
                          39 --		-I../../../../../bsp/board/d1lx_mango/config
                          40 --		-I../../../../../bsp/board/d1lx_mango/src
                          41 --		-I../../../../../bsp/board/d1lx_mango/src/gfx
                          42 --		-I../../../../../bsp/board/d1lx_mango/src/hmi
                          43 --		-I../../../../../bsp/board/d1lx_mango/src/stdio
                          44 --		-I../../../../../bsp/gfx/lib -I../../../../../bsp/gfx/src
                          45 --		-I../../../../../bsp/hmi/lib -I../../../../../bsp/hmi/src
                          46 --		-I../../../../../bsp/lib -I../../../../../bsp/stdio/lib
                          47 --		-I../../../../../bsp/stdio/src -I../../../../../cdi/lib
                          48 --		-I../../../../../cdi/src -I../../../../../compiler/rh850_ghs/inc
                          49 --		-I../../../../../device/d1lx/lib
                          50 --		-I../../../../../device/d1lx/macro_cfg

                                                                      Page 2
                                                              C:\Users\YINGAO~1\AppData\Local\Temp\gh_00006a41.si
                          51 --		-I../../../../../device/d1lx/src/dev
                          52 --		-I../../../../../device/d1lx/src/rh850_ghs
                          53 --		-I../../../../../device/d1x_common/macro_cfg
                          54 --		-I../../../../../device/d1x_common/src/csisw
                          55 --		-I../../../../../device/d1x_common/src/ddb
                          56 --		-I../../../../../device/d1x_common/src/dev
                          57 --		-I../../../../../device/d1x_common/src/gfxbus
                          58 --		-I../../../../../device/d1x_common/src/gpio
                          59 --		-I../../../../../device/d1x_common/src/ostm
                          60 --		-I../../../../../device/d1x_common/src/pbg
                          61 --		-I../../../../../device/d1x_common/src/riic
                          62 --		-I../../../../../device/d1x_common/src/sfma
                          63 --		-I../../../../../device/d1x_common/src/spea
                          64 --		-I../../../../../device/d1x_common/src/tauj
                          65 --		-I../../../../../device/d1x_common/src/tick
                          66 --		-I../../../../../device/d1x_common/src/vdce
                          67 --		-I../../../../../device/d1x_common/src/wm
                          68 --		-I../../../../../device/d1x_common/src/xbus
                          69 --		-I../../../../../device/lib -I../../../../../macro/bus/pbg/lib
                          70 --		-I../../../../../macro/bus/pbg/src
                          71 --		-I../../../../../macro/csi/csisw/lib
                          72 --		-I../../../../../macro/csi/csisw/src
                          73 --		-I../../../../../macro/drw2d/lib
                          74 --		-I../../../../../macro/drw2d/platform/cpu
                          75 --		-I../../../../../macro/drw2d/platform/os/no_os
                          76 --		-I../../../../../macro/drw2d/src
                          77 --		-I../../../../../macro/flashc/sfcdb/lib
                          78 --		-I../../../../../macro/flashc/sfcdb/src
                          79 --		-I../../../../../macro/flashc/sfma/lib
                          80 --		-I../../../../../macro/flashc/sfma/src
                          81 --		-I../../../../../macro/gfxbus/lib
                          82 --		-I../../../../../macro/gfxbus/src
                          83 --		-I../../../../../macro/gfxbus/xbus/lib
                          84 --		-I../../../../../macro/gfxbus/xbus/src
                          85 --		-I../../../../../macro/gpio/lib -I../../../../../macro/gpio/src
                          86 --		-I../../../../../macro/i2c/riic/lib
                          87 --		-I../../../../../macro/i2c/riic/src
                          88 --		-I../../../../../macro/tick/lib -I../../../../../macro/tick/src
                          89 --		-I../../../../../macro/timer/ostm/lib
                          90 --		-I../../../../../macro/timer/ostm/src
                          91 --		-I../../../../../macro/timer/tauj/lib
                          92 --		-I../../../../../macro/timer/tauj/src
                          93 --		-I../../../../../macro/vdce/lib -I../../../../../macro/vdce/src
                          94 --		-I../../../../../macro/vo/ddb/lib
                          95 --		-I../../../../../macro/vo/ddb/src
                          96 --		-I../../../../../macro/vo/spea/lib
                          97 --		-I../../../../../macro/vo/spea/src -I../../../../../macro/wm/lib
                          98 --		-I../../../../../macro/wm/src
                          99 --		-I../../../../../app/gfx_apps/simple_draw_d1l2/src/QD_HMI
                         100 --		-I../../../../../app/gfx_apps/simple_draw_d1l2/src/QD_HMI/HMI_Data
                         101 --		-G --no_commons --no_implicit_include --prototype_errors
                         102 --		-DR_DRW2D_OS_NO_OS -DR_DRW2D_SYS_CPU -DUSED_CPU=RH850G3M
                         103 --		-DUSE_BSP_GFX -DUSE_BSP_HMI -DUSE_BSP_STDIO -DUSE_CDI -DUSE_CSISW
                         104 --		-DUSE_DDB -DUSE_DRW2D -DUSE_GFXBUS -DUSE_GPIO -DUSE_OSTM
                         105 --		-DUSE_PBG -DUSE_RIIC -DUSE_SFCDB -DUSE_SFMA -DUSE_SPEA -DUSE_TAUJ
                         106 --		-DUSE_TICK -DUSE_VDCE -DUSE_WM -DUSE_XBUS -MD -Mn -Mx -Zuse1bit
                         107 --		-allocate_ep -cpu=rh850g3m -entry=_RESET -large_sda -list
                         108 --		-no_callt -notda -passsource -preprocess_assembly_files
                         109 --		-registermode=22 -reserve_r2 --diag_warning 1 -object_dir=./obj
                         110 --		-filetype.c
                         111 --		D:\Renesas_Electronics\D1x_RGL\rgl_ghs_D1Lx_obj_V1.2.0\vlib\Applayer\CHM\chm.c

                                                                      Page 3
                                                              C:\Users\YINGAO~1\AppData\Local\Temp\gh_00006a41.si
                         112 --		-o .\obj\chm.o
                         113 --Source File:   D:\Renesas_Electronics\D1x_RGL\rgl_ghs_D1Lx_obj_V1.2.0\vlib\Applayer\CHM\chm.c
                         114 --Directory:     
                         115 --		D:\Renesas_Electronics\D1x_RGL\rgl_ghs_D1Lx_obj_V1.2.0\vlib\app\gfx_apps\simple_draw_d1l2\target\d1lx_mango_ghs
                         116 --Compile Date:  Fri Feb 02 14:21:40 2018
                         117 --Host OS:       Win32
                         118 --Version:       C-RH850 2013.5.5 DEVELOPMENT VERSION
                         119 --Release:       Compiler v2013.5.5
                         120 --Revision Date: Sat Oct 05 05:01:20 2013
                         121 --Release Date:  Sat Oct 05 05:22:44 2013
                         122 -- ecom  -g -w
                         123 
                         124 --1: /**************************************************************************
                         125 --2: |                                Copyright
                         126 --3: |------------------------------------------------------------------------
                         127 --4: |Copyright(c) by YEEDON MultiMedia Co.LTD. All rights reserved.
                         128 --5: |
                         129 --6: |    this software if furnished under a license and may be used and copied
                         130 --7: |    only in accordance with the terms of such license and with the inclusion
                         131 --8: |    of he above copyright notic.This software or any other copies thereof
                         132 --9: |    may not be provided of otherwise made available to any other persion.
                         133 --10: |    No title to and ownership of the software is hereby transferred.
                         134 --11: |
                         135 --12: |    the information in this software is subject to change without notice
                         136 --13: |   and should not be construed as a commitment by
                         137 --14: |   YEEDON MultiMedia Co.LTD.
                         138 --15: |
                         139 --16: |     YEEDON MultiMedia Co.LTD. assumes no responsibility for the use or reliability
                         140 --17: |     of its Software on equipment which is not supported by YEEDON MultiMedia Co.LTD.
                         141 --18: |--------------------------------------------------------------
                         142 --19: **************************************************************************/
                         143 --23: /*-----------------------------------------------------------------------*/
                         144 --24: /*----Description of file-----------------------------------------------------*/
                         145 --25: /*-----------------------------------------------------------------------*/
                         146 --29: /*************************************************************************
                         147 --30: CHM
                         148 --31: *************************************************************************/
                         149 --34: /*------------------------------------------------------------------------*/
                         150 --35: /*-----Head of file----------------------------------------------------------*/
                         151 --36: /*------------------------------------------------------------------------*/
                         152 --37: #include "chm_info.inc"
                         153 --39: /*==========variables=================*/
                         154 --40: static BOOL Chm_InitStatus = FALSE;
                         155 --41: static BOOL Chm_RptGongRefresh = FALSE;
                         156 --43: static ChmInfo_ST ChmInfo;
                         157 --44: static ChmPrm_ST ChmPrmInfo;
                         158 --45: static ChmToneSendInfo_ST ChmSendToneInfo;
                         159 --47: static BOOL ChmJudgeFinishFlag[INDEX_GJ_ALL];   /* 当前发生的最高优先级事件 */
                         160 --48: static EVT_GETJUDGE_ENUM ChmJudgeIndex; 		/* 当前发生的最高优先级事件 */
                         161 --49: static WARN_EVENT_ENUM ChmJudgeWarn; 			/* 当前发生的最高优先级事件 */
                         162 --51: static Chm_PdcActive_ST  isPdcActive;
                         163 --52: static U8 ChmSendToneStep;
                         164 --55: /***************************************************
                         165 --56: * Function: CHM_Init
                         166 --57: * Description: WARN initialization.
                         167 --58: * Parameters: none
                         168 --59: * Returns:none
                         169 --60: *
                         170 --61: * $Create & Verlog:$
                         171 --62: * Author:xs  Date:2017-6-23   Version:V2.0
                         172 --63: * $log:

                                                                      Page 4
                                                              C:\Users\YINGAO~1\AppData\Local\Temp\gh_00006a41.si
                         173 --64: ****************************************************/
                         174 --65: void  CHM_Init(void)
                         175 	.text
                         176 ..bof.D.3A.5CRenesas_Electronics.5CD1x_RGL.5Crgl_ghs_D1Lx_obj_V1.2E2.2E0.5Cvlib.5Capp.5Cgfx_apps.5Csimple_draw_d1l2.5Ctarget.5Cd1lx_mango_ghs.5Cobj.5Cchm...44.3A.5CRenesas_Electronics.5CD1x_RGL.5Crgl_ghs_D1Lx_obj_V1.2E2.2E0.5Cvlib.5Capp.5Cgfx_apps.5Csimple_draw_d1l2.5Ctarget.5Cd1lx_mango_ghs..5A740374..0::
                         177 	.align	2
                         178 	.global	_CHM_Init
                         179 _CHM_Init:
00000000 210600000000*   180 	mov	.L62,r1
00000006 215e1a00        181 	movea	26,r1,r11
0000000a 21560800        182 	movea	8,r1,r10
0000000e 3e0600000000*   183 	mov	_Chm_InitStatus,ep
                         184 --	    .bf
                         185 .LDW01:
                         186 --66: {
                         187 --67: 	EVT_GETJUDGE_ENUM index;
                         188 --68: 	
                         189 --69: 	Chm_InitStatus = FALSE;
00000014 8003            190 	sst.b	zero,0[ep]
                         191 --70: 	
                         192 --71: 	ChmInfo.OutCircle = 0;
00000016 61070400        193 	st.h	zero,4[r1]
                         194 --72: 	ChmPrmInfo.Duration = 200;
0000001a 2076c800        195 	movea	200,zero,r14
0000001e 61770e00        196 	st.h	r14,14[r1]
                         197 --73: 	ChmSendToneStep = CHM_SENDTONE_ALL;
00000022 0572            198 	mov	5,r14
00000024 41771900        199 	st.b	r14,25[r1]
                         200 --75: 	ChmSendToneInfo.NetCmdTone =OUT_RESERVE_TONE;
00000028 0672            201 	mov	6,r14
0000002a 41771a00        202 	st.b	r14,26[r1]
                         203 --76: 	ChmSendToneInfo.NetCmdDuty =ChmPrmInfo.Duty;
0000002e 81770d00        204 	ld.bu	12[r1],r14
00000032 41771c00        205 	st.b	r14,28[r1]
                         206 --77: 	ChmSendToneInfo.NetCmdPeriod=ChmPrmInfo.Frequency;
00000036 e1770b00        207 	ld.hu	10[r1],r14
0000003a 41771b00        208 	st.b	r14,27[r1]
                         209 --79: 	ChmSendToneInfo.NetCmdLoctnFL =FALSE;
0000003e 41071d00        210 	st.b	zero,29[r1]
                         211 --80: 	ChmSendToneInfo.NetCmdLoctnFR =FALSE;
00000042 41071e00        212 	st.b	zero,30[r1]
                         213 --81: 	ChmSendToneInfo.NetCmdLoctnRL =FALSE;
00000046 41071f00        214 	st.b	zero,31[r1]
                         215 --82: 	ChmSendToneInfo.NetCmdLoctnRR =FALSE;
0000004a 41072000        216 	st.b	zero,32[r1]
                         217 --84: 	ChmJudgeWarn =INDEX_WARN_NULL;
0000004e 61071500        218 	st.w	zero,20[r1]
                         219 --85: 	ChmJudgeIndex = INDEX_GJ_NULL;
00000052 61071100        220 	st.w	zero,16[r1]
                         221 --86: 	for (index = INDEX_GJ_NULL; index < INDEX_GJ_ALL; index++)
00000056 0072            222 	mov	0,r14
00000058 0000            223 	nop
                         224 .L6:
                         225 --87: 	{
                         226 --88: 		ChmJudgeFinishFlag[index] = 0;
0000005a 216e2100        227 	movea	33,r1,r13
0000005e ce69            228 	add	r14,r13
00000060 4d070000        229 	st.b	zero,0[r13]
00000064 4172            230 	add	1,r14
00000066 0e069cff        231 	addi	-100,r14,zero
0000006a 86fd*           232 	blt	.L6
                         233 --89: 	}

                                                                      Page 5
                                                              C:\Users\YINGAO~1\AppData\Local\Temp\gh_00006a41.si
                         234 --91: 	 Chm_InitStatus = TRUE;
                         235 --line91
                         236 ..lin.D.3A.5CRenesas_Electronics.5CD1x_RGL.5Crgl_ghs_D1Lx_obj_V1.2E2.2E0.5Cvlib.5Capp.5Cgfx_apps.5Csimple_draw_d1l2.5Ctarget.5Cd1lx_mango_ghs.5Cobj.5Cchm.1::
                         237 .LDWlin1:
0000006c 016a            238 	mov	1,r13
0000006e 806b            239 	sst.b	r13,0[ep]
                         240 --92: }
00000070 0000            241 	nop
                         242 --	    .ef
                         243 .LDW11:
00000072 7f00            244 	jmp	[lp]
                         245 	.type	_CHM_Init,@function
                         246 	.size	_CHM_Init,.-_CHM_Init
                         247 	.align	2
                         248 .LDW21:
                         249 --_index	r14	local
                         250 
                         251 	.section ".bss","awb"
                         252 	.align	4
                         253 .L62:
                         254 	.type	.L62,@object
                         255 	.size	.L62,0
                         256 	.global	_ChmInfo..D.3A.5CRenesas_Electronics.5CD1x_RGL.5Crgl_ghs_D1Lx_obj_V1.2E2.2E0.5Cvlib.5Capp.5Cgfx_apps.5Csimple_draw_d1l2.5Ctarget.5Cd1lx_mango_ghs.5Cobj.5Cchm.
                         257 _ChmInfo..D.3A.5CRenesas_Electronics.5CD1x_RGL.5Crgl_ghs_D1Lx_obj_V1.2E2.2E0.5Cvlib.5Capp.5Cgfx_apps.5Csimple_draw_d1l2.5Ctarget.5Cd1lx_mango_ghs.5Cobj.5Cchm.:
                         258 	.type	_ChmInfo..D.3A.5CRenesas_Electronics.5CD1x_RGL.5Crgl_ghs_D1Lx_obj_V1.2E2.2E0.5Cvlib.5Capp.5Cgfx_apps.5Csimple_draw_d1l2.5Ctarget.5Cd1lx_mango_ghs.5Cobj.5Cchm.,@object
                         259 	.size	_ChmInfo..D.3A.5CRenesas_Electronics.5CD1x_RGL.5Crgl_ghs_D1Lx_obj_V1.2E2.2E0.5Cvlib.5Capp.5Cgfx_apps.5Csimple_draw_d1l2.5Ctarget.5Cd1lx_mango_ghs.5Cobj.5Cchm.,8
00000000 000000000000    260 _ChmInfo:	.space	8
00000006 0000 
                         261 	.type	_ChmInfo,@object
                         262 	.size	_ChmInfo,8
                         263 	.global	_ChmPrmInfo..D.3A.5CRenesas_Electronics.5CD1x_RGL.5Crgl_ghs_D1Lx_obj_V1.2E2.2E0.5Cvlib.5Capp.5Cgfx_apps.5Csimple_draw_d1l2.5Ctarget.5Cd1lx_mango_ghs.5Cobj.5Cchm.
                         264 _ChmPrmInfo..D.3A.5CRenesas_Electronics.5CD1x_RGL.5Crgl_ghs_D1Lx_obj_V1.2E2.2E0.5Cvlib.5Capp.5Cgfx_apps.5Csimple_draw_d1l2.5Ctarget.5Cd1lx_mango_ghs.5Cobj.5Cchm.:
                         265 	.type	_ChmPrmInfo..D.3A.5CRenesas_Electronics.5CD1x_RGL.5Crgl_ghs_D1Lx_obj_V1.2E2.2E0.5Cvlib.5Capp.5Cgfx_apps.5Csimple_draw_d1l2.5Ctarget.5Cd1lx_mango_ghs.5Cobj.5Cchm.,@object
                         266 	.size	_ChmPrmInfo..D.3A.5CRenesas_Electronics.5CD1x_RGL.5Crgl_ghs_D1Lx_obj_V1.2E2.2E0.5Cvlib.5Capp.5Cgfx_apps.5Csimple_draw_d1l2.5Ctarget.5Cd1lx_mango_ghs.5Cobj.5Cchm.,8
00000008 000000000000    267 _ChmPrmInfo:	.space	8
0000000e 0000 
                         268 	.type	_ChmPrmInfo,@object
                         269 	.size	_ChmPrmInfo,8
                         270 	.global	_ChmJudgeIndex..D.3A.5CRenesas_Electronics.5CD1x_RGL.5Crgl_ghs_D1Lx_obj_V1.2E2.2E0.5Cvlib.5Capp.5Cgfx_apps.5Csimple_draw_d1l2.5Ctarget.5Cd1lx_mango_ghs.5Cobj.5Cchm.
                         271 _ChmJudgeIndex..D.3A.5CRenesas_Electronics.5CD1x_RGL.5Crgl_ghs_D1Lx_obj_V1.2E2.2E0.5Cvlib.5Capp.5Cgfx_apps.5Csimple_draw_d1l2.5Ctarget.5Cd1lx_mango_ghs.5Cobj.5Cchm.:
                         272 	.type	_ChmJudgeIndex..D.3A.5CRenesas_Electronics.5CD1x_RGL.5Crgl_ghs_D1Lx_obj_V1.2E2.2E0.5Cvlib.5Capp.5Cgfx_apps.5Csimple_draw_d1l2.5Ctarget.5Cd1lx_mango_ghs.5Cobj.5Cchm.,@object
                         273 	.size	_ChmJudgeIndex..D.3A.5CRenesas_Electronics.5CD1x_RGL.5Crgl_ghs_D1Lx_obj_V1.2E2.2E0.5Cvlib.5Capp.5Cgfx_apps.5Csimple_draw_d1l2.5Ctarget.5Cd1lx_mango_ghs.5Cobj.5Cchm.,4
00000010 00000000        274 _ChmJudgeIndex:	.space	4
                         275 	.type	_ChmJudgeIndex,@object
                         276 	.size	_ChmJudgeIndex,4
                         277 	.global	_ChmJudgeWarn..D.3A.5CRenesas_Electronics.5CD1x_RGL.5Crgl_ghs_D1Lx_obj_V1.2E2.2E0.5Cvlib.5Capp.5Cgfx_apps.5Csimple_draw_d1l2.5Ctarget.5Cd1lx_mango_ghs.5Cobj.5Cchm.
                         278 _ChmJudgeWarn..D.3A.5CRenesas_Electronics.5CD1x_RGL.5Crgl_ghs_D1Lx_obj_V1.2E2.2E0.5Cvlib.5Capp.5Cgfx_apps.5Csimple_draw_d1l2.5Ctarget.5Cd1lx_mango_ghs.5Cobj.5Cchm.:
                         279 	.type	_ChmJudgeWarn..D.3A.5CRenesas_Electronics.5CD1x_RGL.5Crgl_ghs_D1Lx_obj_V1.2E2.2E0.5Cvlib.5Capp.5Cgfx_apps.5Csimple_draw_d1l2.5Ctarget.5Cd1lx_mango_ghs.5Cobj.5Cchm.,@object
                         280 	.size	_ChmJudgeWarn..D.3A.5CRenesas_Electronics.5CD1x_RGL.5Crgl_ghs_D1Lx_obj_V1.2E2.2E0.5Cvlib.5Capp.5Cgfx_apps.5Csimple_draw_d1l2.5Ctarget.5Cd1lx_mango_ghs.5Cobj.5Cchm.,4
00000014 00000000        281 _ChmJudgeWarn:	.space	4
                         282 	.type	_ChmJudgeWarn,@object
                         283 	.size	_ChmJudgeWarn,4
                         284 	.data
                         285 	.global	_Chm_InitStatus..D.3A.5CRenesas_Electronics.5CD1x_RGL.5Crgl_ghs_D1Lx_obj_V1.2E2.2E0.5Cvlib.5Capp.5Cgfx_apps.5Csimple_draw_d1l2.5Ctarget.5Cd1lx_mango_ghs.5Cobj.5Cchm.
                         286 _Chm_InitStatus..D.3A.5CRenesas_Electronics.5CD1x_RGL.5Crgl_ghs_D1Lx_obj_V1.2E2.2E0.5Cvlib.5Capp.5Cgfx_apps.5Csimple_draw_d1l2.5Ctarget.5Cd1lx_mango_ghs.5Cobj.5Cchm.:
                         287 	.type	_Chm_InitStatus..D.3A.5CRenesas_Electronics.5CD1x_RGL.5Crgl_ghs_D1Lx_obj_V1.2E2.2E0.5Cvlib.5Capp.5Cgfx_apps.5Csimple_draw_d1l2.5Ctarget.5Cd1lx_mango_ghs.5Cobj.5Cchm.,@object
                         288 	.size	_Chm_InitStatus..D.3A.5CRenesas_Electronics.5CD1x_RGL.5Crgl_ghs_D1Lx_obj_V1.2E2.2E0.5Cvlib.5Capp.5Cgfx_apps.5Csimple_draw_d1l2.5Ctarget.5Cd1lx_mango_ghs.5Cobj.5Cchm.,1
00000000 00              289 _Chm_InitStatus:	.byte	0
                         290 	.type	_Chm_InitStatus,@object
                         291 	.size	_Chm_InitStatus,1
                         292 	.global	_Chm_RptGongRefresh..D.3A.5CRenesas_Electronics.5CD1x_RGL.5Crgl_ghs_D1Lx_obj_V1.2E2.2E0.5Cvlib.5Capp.5Cgfx_apps.5Csimple_draw_d1l2.5Ctarget.5Cd1lx_mango_ghs.5Cobj.5Cchm.

                                                                      Page 6
                                                              C:\Users\YINGAO~1\AppData\Local\Temp\gh_00006a41.si
                         293 _Chm_RptGongRefresh..D.3A.5CRenesas_Electronics.5CD1x_RGL.5Crgl_ghs_D1Lx_obj_V1.2E2.2E0.5Cvlib.5Capp.5Cgfx_apps.5Csimple_draw_d1l2.5Ctarget.5Cd1lx_mango_ghs.5Cobj.5Cchm.:
                         294 	.type	_Chm_RptGongRefresh..D.3A.5CRenesas_Electronics.5CD1x_RGL.5Crgl_ghs_D1Lx_obj_V1.2E2.2E0.5Cvlib.5Capp.5Cgfx_apps.5Csimple_draw_d1l2.5Ctarget.5Cd1lx_mango_ghs.5Cobj.5Cchm.,@object
                         295 	.size	_Chm_RptGongRefresh..D.3A.5CRenesas_Electronics.5CD1x_RGL.5Crgl_ghs_D1Lx_obj_V1.2E2.2E0.5Cvlib.5Capp.5Cgfx_apps.5Csimple_draw_d1l2.5Ctarget.5Cd1lx_mango_ghs.5Cobj.5Cchm.,1
00000001 00              296 _Chm_RptGongRefresh:	.byte	0
                         297 	.type	_Chm_RptGongRefresh,@object
                         298 	.size	_Chm_RptGongRefresh,1
                         299 	.section ".bss","awb"
                         300 	.global	_isPdcActive..D.3A.5CRenesas_Electronics.5CD1x_RGL.5Crgl_ghs_D1Lx_obj_V1.2E2.2E0.5Cvlib.5Capp.5Cgfx_apps.5Csimple_draw_d1l2.5Ctarget.5Cd1lx_mango_ghs.5Cobj.5Cchm.
                         301 _isPdcActive..D.3A.5CRenesas_Electronics.5CD1x_RGL.5Crgl_ghs_D1Lx_obj_V1.2E2.2E0.5Cvlib.5Capp.5Cgfx_apps.5Csimple_draw_d1l2.5Ctarget.5Cd1lx_mango_ghs.5Cobj.5Cchm.:
                         302 	.type	_isPdcActive..D.3A.5CRenesas_Electronics.5CD1x_RGL.5Crgl_ghs_D1Lx_obj_V1.2E2.2E0.5Cvlib.5Capp.5Cgfx_apps.5Csimple_draw_d1l2.5Ctarget.5Cd1lx_mango_ghs.5Cobj.5Cchm.,@object
                         303 	.size	_isPdcActive..D.3A.5CRenesas_Electronics.5CD1x_RGL.5Crgl_ghs_D1Lx_obj_V1.2E2.2E0.5Cvlib.5Capp.5Cgfx_apps.5Csimple_draw_d1l2.5Ctarget.5Cd1lx_mango_ghs.5Cobj.5Cchm.,1
00000018 00              304 _isPdcActive:	.space	1
                         305 	.type	_isPdcActive,@object
                         306 	.size	_isPdcActive,1
                         307 	.global	_ChmSendToneStep..D.3A.5CRenesas_Electronics.5CD1x_RGL.5Crgl_ghs_D1Lx_obj_V1.2E2.2E0.5Cvlib.5Capp.5Cgfx_apps.5Csimple_draw_d1l2.5Ctarget.5Cd1lx_mango_ghs.5Cobj.5Cchm.
                         308 _ChmSendToneStep..D.3A.5CRenesas_Electronics.5CD1x_RGL.5Crgl_ghs_D1Lx_obj_V1.2E2.2E0.5Cvlib.5Capp.5Cgfx_apps.5Csimple_draw_d1l2.5Ctarget.5Cd1lx_mango_ghs.5Cobj.5Cchm.:
                         309 	.type	_ChmSendToneStep..D.3A.5CRenesas_Electronics.5CD1x_RGL.5Crgl_ghs_D1Lx_obj_V1.2E2.2E0.5Cvlib.5Capp.5Cgfx_apps.5Csimple_draw_d1l2.5Ctarget.5Cd1lx_mango_ghs.5Cobj.5Cchm.,@object
                         310 	.size	_ChmSendToneStep..D.3A.5CRenesas_Electronics.5CD1x_RGL.5Crgl_ghs_D1Lx_obj_V1.2E2.2E0.5Cvlib.5Capp.5Cgfx_apps.5Csimple_draw_d1l2.5Ctarget.5Cd1lx_mango_ghs.5Cobj.5Cchm.,1
00000019 00              311 _ChmSendToneStep:	.space	1
                         312 	.type	_ChmSendToneStep,@object
                         313 	.size	_ChmSendToneStep,1
                         314 	.global	_ChmSendToneInfo..D.3A.5CRenesas_Electronics.5CD1x_RGL.5Crgl_ghs_D1Lx_obj_V1.2E2.2E0.5Cvlib.5Capp.5Cgfx_apps.5Csimple_draw_d1l2.5Ctarget.5Cd1lx_mango_ghs.5Cobj.5Cchm.
                         315 _ChmSendToneInfo..D.3A.5CRenesas_Electronics.5CD1x_RGL.5Crgl_ghs_D1Lx_obj_V1.2E2.2E0.5Cvlib.5Capp.5Cgfx_apps.5Csimple_draw_d1l2.5Ctarget.5Cd1lx_mango_ghs.5Cobj.5Cchm.:
                         316 	.type	_ChmSendToneInfo..D.3A.5CRenesas_Electronics.5CD1x_RGL.5Crgl_ghs_D1Lx_obj_V1.2E2.2E0.5Cvlib.5Capp.5Cgfx_apps.5Csimple_draw_d1l2.5Ctarget.5Cd1lx_mango_ghs.5Cobj.5Cchm.,@object
                         317 	.size	_ChmSendToneInfo..D.3A.5CRenesas_Electronics.5CD1x_RGL.5Crgl_ghs_D1Lx_obj_V1.2E2.2E0.5Cvlib.5Capp.5Cgfx_apps.5Csimple_draw_d1l2.5Ctarget.5Cd1lx_mango_ghs.5Cobj.5Cchm.,7
0000001a 000000000000    318 _ChmSendToneInfo:	.space	7
00000020 00 
                         319 	.type	_ChmSendToneInfo,@object
                         320 	.size	_ChmSendToneInfo,7
                         321 	.global	_ChmJudgeFinishFlag..D.3A.5CRenesas_Electronics.5CD1x_RGL.5Crgl_ghs_D1Lx_obj_V1.2E2.2E0.5Cvlib.5Capp.5Cgfx_apps.5Csimple_draw_d1l2.5Ctarget.5Cd1lx_mango_ghs.5Cobj.5Cchm.
                         322 _ChmJudgeFinishFlag..D.3A.5CRenesas_Electronics.5CD1x_RGL.5Crgl_ghs_D1Lx_obj_V1.2E2.2E0.5Cvlib.5Capp.5Cgfx_apps.5Csimple_draw_d1l2.5Ctarget.5Cd1lx_mango_ghs.5Cobj.5Cchm.:
                         323 	.type	_ChmJudgeFinishFlag..D.3A.5CRenesas_Electronics.5CD1x_RGL.5Crgl_ghs_D1Lx_obj_V1.2E2.2E0.5Cvlib.5Capp.5Cgfx_apps.5Csimple_draw_d1l2.5Ctarget.5Cd1lx_mango_ghs.5Cobj.5Cchm.,@object
                         324 	.size	_ChmJudgeFinishFlag..D.3A.5CRenesas_Electronics.5CD1x_RGL.5Crgl_ghs_D1Lx_obj_V1.2E2.2E0.5Cvlib.5Capp.5Cgfx_apps.5Csimple_draw_d1l2.5Ctarget.5Cd1lx_mango_ghs.5Cobj.5Cchm.,100
00000021 000000000000    325 _ChmJudgeFinishFlag:	.space	100
00000027 000000000000 
0000002d 000000000000 
00000033 000000000000 
00000039 000000000000 
0000003f 000000000000 
00000045 000000000000 
0000004b 000000000000 
00000051 000000000000 
00000057 000000000000 
0000005d 000000000000 
00000063 000000000000 
00000069 000000000000 
0000006f 000000000000 
00000075 000000000000 
0000007b 000000000000 
00000081 00000000 
                         326 	.type	_ChmJudgeFinishFlag,@object
                         327 	.size	_ChmJudgeFinishFlag,100
                         328 	.data
                         329 	.text
                         330 
                         331 
                         332 --94: /***************************************************
                         333 --95: * Function: CHM_Process_5ms
                         334 --96: * Description: WARN initialization.
                         335 --97: * Parameters: none
                         336 --98: * Returns:none

                                                                      Page 7
                                                              C:\Users\YINGAO~1\AppData\Local\Temp\gh_00006a41.si
                         337 --99: *
                         338 --100: * $Create & Verlog:$
                         339 --101: * Author:xs  Date:2017-6-23   Version:V2.0
                         340 --102: * $log:
                         341 --103: ****************************************************/
                         342 --104: void  CHM_Process_5ms(void)
                         343 	.align	2
                         344 	.align	2
                         345 	.global	_CHM_Process_5ms
                         346 _CHM_Process_5ms:
00000074 80072100        347 	prepare	{r31},0
00000078 210600000000*   348 	mov	_Chm_InitStatus,r1
                         349 --	    .bf
                         350 .LDW31:
                         351 --105: {	
                         352 --106: 	if (TRUE == Chm_InitStatus)
0000007e 210600000000*   353 	mov	_Chm_InitStatus,r1
00000084 810f0100        354 	ld.bu	0[r1],r1
00000088 610a            355 	cmp	1,r1
0000008a da05*           356 	bne	.L135
                         357 --107: 	{
                         358 --108: 		chm_PdcAvtive_manage();
                         359 --line108
                         360 ..lin.D.3A.5CRenesas_Electronics.5CD1x_RGL.5Crgl_ghs_D1Lx_obj_V1.2E2.2E0.5Cvlib.5Capp.5Cgfx_apps.5Csimple_draw_d1l2.5Ctarget.5Cd1lx_mango_ghs.5Cobj.5Cchm.2::
                         361 .LDWlin2:
                         362 	jarl	_chm_PdcAvtive_manage,lp
                         362 <EXPANSION BEGIN>
                         362 jarl22 _chm_PdcAvtive_manage , lp 
0000008c 80ff7208*       362 <EXPANSION END>
                         363 --109: 		chm_ProcessEvent();
                         364 --line109
                         365 ..lin.D.3A.5CRenesas_Electronics.5CD1x_RGL.5Crgl_ghs_D1Lx_obj_V1.2E2.2E0.5Cvlib.5Capp.5Cgfx_apps.5Csimple_draw_d1l2.5Ctarget.5Cd1lx_mango_ghs.5Cobj.5Cchm.3::
                         366 .LDWlin3:
                         367 	jarl	_chm_ProcessEvent,lp
                         367 <EXPANSION BEGIN>
                         367 jarl22 _chm_ProcessEvent , lp 
00000090 80ff0a00*       367 <EXPANSION END>
                         368 .L135:
                         369 --110: 	}
                         370 --111: 	else
                         371 --112: 	{
                         372 --113: 		/*do nothing*/
                         373 --114: 	}
                         374 --115: }
                         375 --line115
                         376 ..lin.D.3A.5CRenesas_Electronics.5CD1x_RGL.5Crgl_ghs_D1Lx_obj_V1.2E2.2E0.5Cvlib.5Capp.5Cgfx_apps.5Csimple_draw_d1l2.5Ctarget.5Cd1lx_mango_ghs.5Cobj.5Cchm.4::
                         377 .LDWlin4:
00000094 0000            378 	nop
                         379 --	    .ef
                         380 .LDW41:
00000096 40063f00        381 	dispose	0,{r31},[lp]
                         382 	.type	_CHM_Process_5ms,@function
                         383 	.size	_CHM_Process_5ms,.-_CHM_Process_5ms
                         384 	.align	2
                         385 .LDW51:
                         386 
                         387 	.data
                         388 	.text
                         389 
                         390 
                         391 --119: /***************************************************

                                                                      Page 8
                                                              C:\Users\YINGAO~1\AppData\Local\Temp\gh_00006a41.si
                         392 --120: * Function: chm_ProcessEvent
                         393 --121: * Description: chm evt reaction
                         394 --122: * Parameters: none
                         395 --123: * Returns:none
                         396 --124: *
                         397 --125: * $Create & Verlog:$
                         398 --126: * Author:xs  Date:2017-6-23   Version:V2.0
                         399 --127: * $log:
                         400 --128: ****************************************************/
                         401 --129: void chm_ProcessEvent(void)
                         402 	.align	2
                         403 	.align	2
                         404 	.global	_chm_ProcessEvent..D.3A.5CRenesas_Electronics.5CD1x_RGL.5Crgl_ghs_D1Lx_obj_V1.2E2.2E0.5Cvlib.5Capp.5Cgfx_apps.5Csimple_draw_d1l2.5Ctarget.5Cd1lx_mango_ghs.5Cobj.5Cchm.
                         405 _chm_ProcessEvent..D.3A.5CRenesas_Electronics.5CD1x_RGL.5Crgl_ghs_D1Lx_obj_V1.2E2.2E0.5Cvlib.5Capp.5Cgfx_apps.5Csimple_draw_d1l2.5Ctarget.5Cd1lx_mango_ghs.5Cobj.5Cchm.:
                         406 _chm_ProcessEvent:
0000009a 8407e170        407 	prepare	{r25,r26,r27,r28,r29,r31},2
0000009e 3d0600000000*   408 	mov	_ChmInfo,r29
000000a4 3dd61a00        409 	movea	26,r29,r26
000000a8 3dce1900        410 	movea	25,r29,r25
000000ac 3c0600000000*   411 	mov	.L388,r28
                         412 --	    .bf
                         413 .LDW61:
                         414 --130: {
                         415 --131: 	U8 selfChk, res =RET_INVALID;
000000b2 02da            416 	mov	2,r27
                         417 --133: 	static BOOL lev =FALSE;
                         418 --135: 	StsmgEvent_ST evt;
                         419 --136:     
                         420 --137: 	res = PWR_GetChkStatus(&selfChk);
000000b4 23360300        421 	movea	3,sp,r6
                         422 	jarl	_PWR_GetChkStatus,lp
                         422 <EXPANSION BEGIN>
                         422 jarl22 _PWR_GetChkStatus , lp 
000000b8 80ff0000*       422 <EXPANSION END>
000000bc 0ad8            423 	mov	r10,r27
                         424 --138: 	switch(selfChk)		
                         425 --line138
                         426 ..lin.D.3A.5CRenesas_Electronics.5CD1x_RGL.5Crgl_ghs_D1Lx_obj_V1.2E2.2E0.5Cvlib.5Capp.5Cgfx_apps.5Csimple_draw_d1l2.5Ctarget.5Cd1lx_mango_ghs.5Cobj.5Cchm.5::
                         427 .LDWlin5:
000000be a30f0300        428 	ld.bu	3[sp],r1
000000c2 610a            429 	cmp	1,r1
000000c4 a11d*           430 	bl	.L183
000000c6 c205*           431 	be	.L182
000000c8 620a            432 	cmp	2,r1
000000ca 9a65*           433 	bne	.L186
000000cc e515*           434 	br	.L183
                         435 .L182:
                         436 --139: 	{
                         437 --140: 		case STATUS_SLFCHK_ING:
                         438 --141: 			ChmInfo.OutCircle = 0;
                         439 --line141
                         440 ..lin.D.3A.5CRenesas_Electronics.5CD1x_RGL.5Crgl_ghs_D1Lx_obj_V1.2E2.2E0.5Cvlib.5Capp.5Cgfx_apps.5Csimple_draw_d1l2.5Ctarget.5Cd1lx_mango_ghs.5Cobj.5Cchm.6::
                         441 .LDWlin6:
000000ce 7d070400        442 	st.h	zero,4[r29]
                         443 --142: 			ChmSendToneStep =CHM_SENDTONE_ALL;
000000d2 050a            444 	mov	5,r1
000000d4 5d0f1900        445 	st.b	r1,25[r29]
                         446 --144: 			ChmSendToneInfo.NetCmdTone = OUT_RESERVE_TONE;
000000d8 060a            447 	mov	6,r1
000000da 5d0f1a00        448 	st.b	r1,26[r29]
                         449 --145: 			ChmSendToneInfo.NetCmdDuty = 0;

                                                                      Page 9
                                                              C:\Users\YINGAO~1\AppData\Local\Temp\gh_00006a41.si
000000de 5d071c00        450 	st.b	zero,28[r29]
                         451 --146: 			ChmSendToneInfo.NetCmdPeriod= 0;
000000e2 5d071b00        452 	st.b	zero,27[r29]
                         453 --148: 			ChmSendToneInfo.NetCmdLoctnFL = FALSE;
000000e6 5d071d00        454 	st.b	zero,29[r29]
                         455 --149: 			ChmSendToneInfo.NetCmdLoctnFR = FALSE;
000000ea 5d071e00        456 	st.b	zero,30[r29]
                         457 --150: 			ChmSendToneInfo.NetCmdLoctnRL = FALSE;
000000ee 5d071f00        458 	st.b	zero,31[r29]
                         459 --151: 			ChmSendToneInfo.NetCmdLoctnRR = FALSE;	
000000f2 5d072000        460 	st.b	zero,32[r29]
000000f6 b54d*           461 	br	.L186
                         462 .L183:
                         463 --152: 			break;
                         464 --153: 			
                         465 --154: 		case STATUS_SLFCHK_NOT_READY:    
                         466 --155: 		case STATUS_SLFCHK_FINISH:
                         467 --156: 			if (ILLU_GetWelComeSts())
                         468 --line156
                         469 ..lin.D.3A.5CRenesas_Electronics.5CD1x_RGL.5Crgl_ghs_D1Lx_obj_V1.2E2.2E0.5Cvlib.5Capp.5Cgfx_apps.5Csimple_draw_d1l2.5Ctarget.5Cd1lx_mango_ghs.5Cobj.5Cchm.7::
                         470 .LDWlin7:
                         471 	jarl	_ILLU_GetWelComeSts,lp
                         471 <EXPANSION BEGIN>
                         471 jarl22 _ILLU_GetWelComeSts , lp 
000000f8 80ff0000*       471 <EXPANSION END>
000000fc e051            472 	cmp	zero,r10
000000fe a205*           473 	be	.L188
                         474 --157:             {
                         475 --158:              	break;
                         476 --line158
                         477 ..lin.D.3A.5CRenesas_Electronics.5CD1x_RGL.5Crgl_ghs_D1Lx_obj_V1.2E2.2E0.5Cvlib.5Capp.5Cgfx_apps.5Csimple_draw_d1l2.5Ctarget.5Cd1lx_mango_ghs.5Cobj.5Cchm.8::
                         478 .LDWlin8:
00000100 e545*           479 	br	.L186
                         480 .L188:
                         481 --159:             }
                         482 --160: 			else
                         483 --161: 			{
                         484 --162: 			}
                         485 --164:              if (CHM_SENDTONE_NULL == ChmSendToneStep) 
                         486 --line164
                         487 ..lin.D.3A.5CRenesas_Electronics.5CD1x_RGL.5Crgl_ghs_D1Lx_obj_V1.2E2.2E0.5Cvlib.5Capp.5Cgfx_apps.5Csimple_draw_d1l2.5Ctarget.5Cd1lx_mango_ghs.5Cobj.5Cchm.9::
                         488 .LDWlin9:
00000102 bd0f1900        489 	ld.bu	25[r29],r1
00000106 e009            490 	cmp	zero,r1
00000108 ba05*           491 	bne	.L191
                         492 --165:              {
                         493 --166:                 chm_Event_Process();
                         494 --line166
                         495 ..lin.D.3A.5CRenesas_Electronics.5CD1x_RGL.5Crgl_ghs_D1Lx_obj_V1.2E2.2E0.5Cvlib.5Capp.5Cgfx_apps.5Csimple_draw_d1l2.5Ctarget.5Cd1lx_mango_ghs.5Cobj.5Cchm.10::
                         496 .LDWlin10:
                         497 	jarl	_chm_Event_Process,lp
                         497 <EXPANSION BEGIN>
                         497 jarl22 _chm_Event_Process , lp 
0000010a 80ff8800*       497 <EXPANSION END>
                         498 .L191:
                         499 --167:              }
                         500 --168: 			 else
                         501 --169: 			 {
                         502 --170: 			 }
                         503 --172: 			 if (OUT_GONG_TONE ==ChmPrmInfo.Tone) 
                         504 --line172

                                                                      Page 10
                                                              C:\Users\YINGAO~1\AppData\Local\Temp\gh_00006a41.si
                         505 ..lin.D.3A.5CRenesas_Electronics.5CD1x_RGL.5Crgl_ghs_D1Lx_obj_V1.2E2.2E0.5Cvlib.5Capp.5Cgfx_apps.5Csimple_draw_d1l2.5Ctarget.5Cd1lx_mango_ghs.5Cobj.5Cchm.11::
                         506 .LDWlin11:
0000010e 9d0f0900        507 	ld.bu	8[r29],r1
00000112 640a            508 	cmp	4,r1
00000114 ba3d*           509 	bne	.L210
                         510 --173: 			 {					
                         511 --174: 				switch (ChmJudgeWarn) 
                         512 --line174
                         513 ..lin.D.3A.5CRenesas_Electronics.5CD1x_RGL.5Crgl_ghs_D1Lx_obj_V1.2E2.2E0.5Cvlib.5Capp.5Cgfx_apps.5Csimple_draw_d1l2.5Ctarget.5Cd1lx_mango_ghs.5Cobj.5Cchm.12::
                         514 .LDWlin12:
00000116 3d0f1500        515 	ld.w	20[r29],r1
0000011a 650a            516 	cmp	5,r1
0000011c d205*           517 	be	.L196
0000011e 0106c1ff        518 	addi	-63,r1,zero
00000122 ca35*           519 	bne	.L210
00000124 a51d*           520 	br	.L203
                         521 .L196:
                         522 --175: 				{
                         523 --176: 					case INDEX_WARN_BRAKE_HANDON_REPEATGONG:	
                         524 --177: 						if (lev !=LED_Get_Brake_Level()) 			
                         525 --line177
                         526 ..lin.D.3A.5CRenesas_Electronics.5CD1x_RGL.5Crgl_ghs_D1Lx_obj_V1.2E2.2E0.5Cvlib.5Capp.5Cgfx_apps.5Csimple_draw_d1l2.5Ctarget.5Cd1lx_mango_ghs.5Cobj.5Cchm.13::
                         527 .LDWlin13:
                         528 	jarl	_LED_Get_Brake_Level,lp
                         528 <EXPANSION BEGIN>
                         528 jarl22 _LED_Get_Brake_Level , lp 
00000126 80ff0000*       528 <EXPANSION END>
0000012a 9c0f0100        529 	ld.bu	0[r28],r1
0000012e ea09            530 	cmp	r10,r1
00000130 b215*           531 	be	.L202
                         532 --178: 						{
                         533 --179: 							lev =LED_Get_Brake_Level();
                         534 --line179
                         535 ..lin.D.3A.5CRenesas_Electronics.5CD1x_RGL.5Crgl_ghs_D1Lx_obj_V1.2E2.2E0.5Cvlib.5Capp.5Cgfx_apps.5Csimple_draw_d1l2.5Ctarget.5Cd1lx_mango_ghs.5Cobj.5Cchm.14::
                         536 .LDWlin14:
                         537 	jarl	_LED_Get_Brake_Level,lp
                         537 <EXPANSION BEGIN>
                         537 jarl22 _LED_Get_Brake_Level , lp 
00000132 80ff0000*       537 <EXPANSION END>
00000136 5c570000        538 	st.b	r10,0[r28]
                         539 --180: 							
                         540 --181: 							if (TRUE == lev)
                         541 --line181
                         542 ..lin.D.3A.5CRenesas_Electronics.5CD1x_RGL.5Crgl_ghs_D1Lx_obj_V1.2E2.2E0.5Cvlib.5Capp.5Cgfx_apps.5Csimple_draw_d1l2.5Ctarget.5Cd1lx_mango_ghs.5Cobj.5Cchm.15::
                         543 .LDWlin15:
0000013a 9c0f0100        544 	ld.bu	0[r28],r1
0000013e 610a            545 	cmp	1,r1
00000140 da05*           546 	bne	.L199
                         547 --182: 							{
                         548 --183: 								ChmSendToneStep = CHM_SENDTONE_FADEIN;	
                         549 --line183
                         550 ..lin.D.3A.5CRenesas_Electronics.5CD1x_RGL.5Crgl_ghs_D1Lx_obj_V1.2E2.2E0.5Cvlib.5Capp.5Cgfx_apps.5Csimple_draw_d1l2.5Ctarget.5Cd1lx_mango_ghs.5Cobj.5Cchm.16::
                         551 .LDWlin16:
00000142 010a            552 	mov	1,r1
00000144 5d0f1900        553 	st.b	r1,25[r29]
00000148 c505*           554 	br	.L201
                         555 .L199:
                         556 --184: 							}
                         557 --185: 							else
                         558 --186: 							{
                         559 --187: 								ChmSendToneStep = CHM_SENDTONE_FREQ1;

                                                                      Page 11
                                                              C:\Users\YINGAO~1\AppData\Local\Temp\gh_00006a41.si
                         560 --line187
                         561 ..lin.D.3A.5CRenesas_Electronics.5CD1x_RGL.5Crgl_ghs_D1Lx_obj_V1.2E2.2E0.5Cvlib.5Capp.5Cgfx_apps.5Csimple_draw_d1l2.5Ctarget.5Cd1lx_mango_ghs.5Cobj.5Cchm.17::
                         562 .LDWlin17:
0000014a 020a            563 	mov	2,r1
0000014c 5d0f1900        564 	st.b	r1,25[r29]
                         565 .L201:
                         566 --188: 							}
                         567 --189: 							
                         568 --190: 							ChmPrmInfo.Duration =1;
00000150 010a            569 	mov	1,r1
00000152 7d0f0e00        570 	st.h	r1,14[r29]
                         571 .L202:
                         572 --191: 						}
                         573 --192: 						else
                         574 --193: 						{
00000156 a51d*           575 	br	.L210
                         576 .L203:
                         577 --194: 						}										
                         578 --195: 						break;
                         579 --196: 						
                         580 --197: 					case INDEX_WARN_SEATBELT_DRV_REPEATGONG:
                         581 --198: 						if (lev !=LED_GetLevel()) 			
                         582 --line198
                         583 ..lin.D.3A.5CRenesas_Electronics.5CD1x_RGL.5Crgl_ghs_D1Lx_obj_V1.2E2.2E0.5Cvlib.5Capp.5Cgfx_apps.5Csimple_draw_d1l2.5Ctarget.5Cd1lx_mango_ghs.5Cobj.5Cchm.18::
                         584 .LDWlin18:
                         585 	jarl	_LED_GetLevel,lp
                         585 <EXPANSION BEGIN>
                         585 jarl22 _LED_GetLevel , lp 
00000158 80ff0000*       585 <EXPANSION END>
0000015c 9c0f0100        586 	ld.bu	0[r28],r1
00000160 ea09            587 	cmp	r10,r1
00000162 b215*           588 	be	.L209
                         589 --199: 						{
                         590 --200: 							lev =LED_GetLevel();
                         591 --line200
                         592 ..lin.D.3A.5CRenesas_Electronics.5CD1x_RGL.5Crgl_ghs_D1Lx_obj_V1.2E2.2E0.5Cvlib.5Capp.5Cgfx_apps.5Csimple_draw_d1l2.5Ctarget.5Cd1lx_mango_ghs.5Cobj.5Cchm.19::
                         593 .LDWlin19:
                         594 	jarl	_LED_GetLevel,lp
                         594 <EXPANSION BEGIN>
                         594 jarl22 _LED_GetLevel , lp 
00000164 80ff0000*       594 <EXPANSION END>
00000168 5c570000        595 	st.b	r10,0[r28]
                         596 --201: 							if (TRUE == lev)
                         597 --line201
                         598 ..lin.D.3A.5CRenesas_Electronics.5CD1x_RGL.5Crgl_ghs_D1Lx_obj_V1.2E2.2E0.5Cvlib.5Capp.5Cgfx_apps.5Csimple_draw_d1l2.5Ctarget.5Cd1lx_mango_ghs.5Cobj.5Cchm.20::
                         599 .LDWlin20:
0000016c 9c0f0100        600 	ld.bu	0[r28],r1
00000170 610a            601 	cmp	1,r1
00000172 da05*           602 	bne	.L206
                         603 --202: 							{
                         604 --203: 								ChmSendToneStep = CHM_SENDTONE_FADEIN;
                         605 --line203
                         606 ..lin.D.3A.5CRenesas_Electronics.5CD1x_RGL.5Crgl_ghs_D1Lx_obj_V1.2E2.2E0.5Cvlib.5Capp.5Cgfx_apps.5Csimple_draw_d1l2.5Ctarget.5Cd1lx_mango_ghs.5Cobj.5Cchm.21::
                         607 .LDWlin21:
00000174 010a            608 	mov	1,r1
00000176 5d0f1900        609 	st.b	r1,25[r29]
0000017a c505*           610 	br	.L208
                         611 .L206:
                         612 --204: 							}
                         613 --205: 							else
                         614 --206: 							{

                                                                      Page 12
                                                              C:\Users\YINGAO~1\AppData\Local\Temp\gh_00006a41.si
                         615 --207: 								ChmSendToneStep = CHM_SENDTONE_FREQ1;
                         616 --line207
                         617 ..lin.D.3A.5CRenesas_Electronics.5CD1x_RGL.5Crgl_ghs_D1Lx_obj_V1.2E2.2E0.5Cvlib.5Capp.5Cgfx_apps.5Csimple_draw_d1l2.5Ctarget.5Cd1lx_mango_ghs.5Cobj.5Cchm.22::
                         618 .LDWlin22:
0000017c 020a            619 	mov	2,r1
0000017e 5d0f1900        620 	st.b	r1,25[r29]
                         621 .L208:
                         622 --208: 							}
                         623 --209: 							
                         624 --210: 							ChmPrmInfo.Duration =1;
00000182 010a            625 	mov	1,r1
00000184 7d0f0e00        626 	st.h	r1,14[r29]
                         627 .L209:
                         628 --211: 						}
                         629 --212: 						else
                         630 --213: 						{
00000188 0000            631 	nop
                         632 .L210:
                         633 --214: 						}										
                         634 --215: 						break;								
                         635 --216: 				}
                         636 --217: 			 }			
                         637 --218: 			 else
                         638 --219: 			 {
0000018a 0000            639 	nop
                         640 .L186:
                         641 --220: 			 }
                         642 --221:              break;
                         643 --222: 	}
                         644 --223: }
0000018c 0000            645 	nop
                         646 --	    .ef
                         647 .LDW71:
0000018e 4406ff70        648 	dispose	2,{r25,r26,r27,r28,r29,r31},[lp]
                         649 	.type	_chm_ProcessEvent,@function
                         650 	.size	_chm_ProcessEvent,.-_chm_ProcessEvent
                         651 	.type	_chm_ProcessEvent..D.3A.5CRenesas_Electronics.5CD1x_RGL.5Crgl_ghs_D1Lx_obj_V1.2E2.2E0.5Cvlib.5Capp.5Cgfx_apps.5Csimple_draw_d1l2.5Ctarget.5Cd1lx_mango_ghs.5Cobj.5Cchm.,@function
                         652 	.size	_chm_ProcessEvent..D.3A.5CRenesas_Electronics.5CD1x_RGL.5Crgl_ghs_D1Lx_obj_V1.2E2.2E0.5Cvlib.5Capp.5Cgfx_apps.5Csimple_draw_d1l2.5Ctarget.5Cd1lx_mango_ghs.5Cobj.5Cchm.,.-_chm_ProcessEvent..D.3A.5CRenesas_Electronics.5CD1x_RGL.5Crgl_ghs_D1Lx_obj_V1.2E2.2E0.5Cvlib.5Capp.5Cgfx_apps.5Csimple_draw_d1l2.5Ctarget.5Cd1lx_mango_ghs.5Cobj.5Cchm.
                         653 	.align	2
                         654 .LDW81:
                         655 --_lev	.L388	static
                         656 --_selfChk	3[sp]	local
                         657 --_res	r27	local
                         658 
                         659 	.data
                         660 .L388:
                         661 	.global	_lev.chm_ProcessEvent.D.3A.5CRenesas_Electronics.5CD1x_RGL.5Crgl_ghs_D1Lx_obj_V1.2E2.2E0.5Cvlib.5Capp.5Cgfx_apps.5Csimple_draw_d1l2.5Ctarget.5Cd1lx_mango_ghs.5Cobj.5Cchm..10
                         662 _lev.chm_ProcessEvent.D.3A.5CRenesas_Electronics.5CD1x_RGL.5Crgl_ghs_D1Lx_obj_V1.2E2.2E0.5Cvlib.5Capp.5Cgfx_apps.5Csimple_draw_d1l2.5Ctarget.5Cd1lx_mango_ghs.5Cobj.5Cchm..10:
                         663 	.type	_lev.chm_ProcessEvent.D.3A.5CRenesas_Electronics.5CD1x_RGL.5Crgl_ghs_D1Lx_obj_V1.2E2.2E0.5Cvlib.5Capp.5Cgfx_apps.5Csimple_draw_d1l2.5Ctarget.5Cd1lx_mango_ghs.5Cobj.5Cchm..10,@object
                         664 	.size	_lev.chm_ProcessEvent.D.3A.5CRenesas_Electronics.5CD1x_RGL.5Crgl_ghs_D1Lx_obj_V1.2E2.2E0.5Cvlib.5Capp.5Cgfx_apps.5Csimple_draw_d1l2.5Ctarget.5Cd1lx_mango_ghs.5Cobj.5Cchm..10,1
00000002 00              665 	.byte	0
                         666 	.type	.L388,@object
                         667 	.size	.L388,1
                         668 	.text
                         669 
                         670 
                         671 --226: /***************************************************
                         672 --227: * Function: chm_Event_Process
                         673 --228: * Description: chm evt reaction
                         674 --229: * Parameters: none
                         675 --230: * Returns:none

                                                                      Page 13
                                                              C:\Users\YINGAO~1\AppData\Local\Temp\gh_00006a41.si
                         676 --231: *
                         677 --232: * $Create & Verlog:$
                         678 --233: * Author:xs  Date:2017-6-23   Version:V2.0
                         679 --234: * $log:
                         680 --235: ****************************************************/
                         681 --236: static void chm_Event_Process(void)
                         682 	.align	2
                         683 	.align	2
                         684 	.global	_chm_Event_Process..D.3A.5CRenesas_Electronics.5CD1x_RGL.5Crgl_ghs_D1Lx_obj_V1.2E2.2E0.5Cvlib.5Capp.5Cgfx_apps.5Csimple_draw_d1l2.5Ctarget.5Cd1lx_mango_ghs.5Cobj.5Cchm.
                         685 _chm_Event_Process..D.3A.5CRenesas_Electronics.5CD1x_RGL.5Crgl_ghs_D1Lx_obj_V1.2E2.2E0.5Cvlib.5Capp.5Cgfx_apps.5Csimple_draw_d1l2.5Ctarget.5Cd1lx_mango_ghs.5Cobj.5Cchm.:
                         686 _chm_Event_Process:
00000192 8a072100        687 	prepare	{r31},5
                         688 --	    .bf
                         689 .LDW91:
                         690 --237: {
                         691 --238:  
                         692 --239:    	U8 BrkEn = 0;
00000196 43070300        693 	st.b	zero,3[sp]
                         694 --240: 	
                         695 --241: 	JudgeEvtData_ST Evt;
                         696 --242: 	
                         697 --243: 	StsmgEvent_ST  settable_evt;
                         698 --244:     
                         699 --245:     chm_NewEventProcess(&Evt,&BrkEn);
0000019a 23360400        700 	movea	4,sp,r6
0000019e 233e0300        701 	movea	3,sp,r7
                         702 	jarl	_chm_NewEventProcess,lp
                         702 <EXPANSION BEGIN>
                         702 jarl22 _chm_NewEventProcess , lp 
000001a2 80ff1e00*       702 <EXPANSION END>
                         703 --246: 	chm_CircleEnd_Process(&Evt,FALSE);
                         704 --line246
                         705 ..lin.D.3A.5CRenesas_Electronics.5CD1x_RGL.5Crgl_ghs_D1Lx_obj_V1.2E2.2E0.5Cvlib.5Capp.5Cgfx_apps.5Csimple_draw_d1l2.5Ctarget.5Cd1lx_mango_ghs.5Cobj.5Cchm.23::
                         706 .LDWlin23:
000001a6 23360400        707 	movea	4,sp,r6
000001aa 003a            708 	mov	0,r7
                         709 	jarl	_chm_CircleEnd_Process,lp
                         709 <EXPANSION BEGIN>
                         709 jarl22 _chm_CircleEnd_Process , lp 
000001ac 80ff5a01*       709 <EXPANSION END>
                         710 --247: 	chm_CalChmEvt_OutCircle(Evt.event.warn,TRUE); 
                         711 --line247
                         712 ..lin.D.3A.5CRenesas_Electronics.5CD1x_RGL.5Crgl_ghs_D1Lx_obj_V1.2E2.2E0.5Cvlib.5Capp.5Cgfx_apps.5Csimple_draw_d1l2.5Ctarget.5Cd1lx_mango_ghs.5Cobj.5Cchm.24::
                         713 .LDWlin24:
000001b0 23370d00        714 	ld.w	12[sp],r6
000001b4 013a            715 	mov	1,r7
                         716 	jarl	_chm_CalChmEvt_OutCircle,lp
                         716 <EXPANSION BEGIN>
                         716 jarl22 _chm_CalChmEvt_OutCircle , lp 
000001b6 80ff5603*       716 <EXPANSION END>
                         717 --248: }
                         718 --line248
                         719 ..lin.D.3A.5CRenesas_Electronics.5CD1x_RGL.5Crgl_ghs_D1Lx_obj_V1.2E2.2E0.5Cvlib.5Capp.5Cgfx_apps.5Csimple_draw_d1l2.5Ctarget.5Cd1lx_mango_ghs.5Cobj.5Cchm.25::
                         720 .LDWlin25:
000001ba 0000            721 	nop
                         722 --	    .ef
                         723 .LDW02:
000001bc 4a063f00        724 	dispose	5,{r31},[lp]
                         725 	.type	_chm_Event_Process,@function
                         726 	.size	_chm_Event_Process,.-_chm_Event_Process
                         727 	.type	_chm_Event_Process..D.3A.5CRenesas_Electronics.5CD1x_RGL.5Crgl_ghs_D1Lx_obj_V1.2E2.2E0.5Cvlib.5Capp.5Cgfx_apps.5Csimple_draw_d1l2.5Ctarget.5Cd1lx_mango_ghs.5Cobj.5Cchm.,@function

                                                                      Page 14
                                                              C:\Users\YINGAO~1\AppData\Local\Temp\gh_00006a41.si
                         728 	.size	_chm_Event_Process..D.3A.5CRenesas_Electronics.5CD1x_RGL.5Crgl_ghs_D1Lx_obj_V1.2E2.2E0.5Cvlib.5Capp.5Cgfx_apps.5Csimple_draw_d1l2.5Ctarget.5Cd1lx_mango_ghs.5Cobj.5Cchm.,.-_chm_Event_Process..D.3A.5CRenesas_Electronics.5CD1x_RGL.5Crgl_ghs_D1Lx_obj_V1.2E2.2E0.5Cvlib.5Capp.5Cgfx_apps.5Csimple_draw_d1l2.5Ctarget.5Cd1lx_mango_ghs.5Cobj.5Cchm.
                         729 	.align	2
                         730 .LDW12:
                         731 --_BrkEn	3[sp]	local
                         732 --_Evt	4[sp]	local
                         733 
                         734 	.section ".bss","awb"
                         735 .L448:
                         736 	.type	.L448,@object
                         737 	.size	.L448,0
                         738 	.data
                         739 	.text
                         740 
                         741 
                         742 --251: /***************************************************
                         743 --252: * Function: chm_Event_Process
                         744 --253: * Description: chm evt reaction
                         745 --254: * Parameters: pEvt: ouput pointer,the new chm event information
                         746 --255:               pBrkEn: tell whether new chm event can interupt
                         747 --256:                        current chm output signal
                         748 --257: * Returns:none
                         749 --258: *
                         750 --259: * $Create & Verlog:$
                         751 --260: * Author:xs  Date:2017-6-23   Version:V2.0
                         752 --261: * $log:
                         753 --262: ****************************************************/
                         754 --263: static void chm_NewEventProcess(JudgeEvtData_ST *pEvt,PU8 pBrkEn)
                         755 	.align	2
                         756 	.align	2
                         757 	.global	_chm_NewEventProcess..D.3A.5CRenesas_Electronics.5CD1x_RGL.5Crgl_ghs_D1Lx_obj_V1.2E2.2E0.5Cvlib.5Capp.5Cgfx_apps.5Csimple_draw_d1l2.5Ctarget.5Cd1lx_mango_ghs.5Cobj.5Cchm.
                         758 _chm_NewEventProcess..D.3A.5CRenesas_Electronics.5CD1x_RGL.5Crgl_ghs_D1Lx_obj_V1.2E2.2E0.5Cvlib.5Capp.5Cgfx_apps.5Csimple_draw_d1l2.5Ctarget.5Cd1lx_mango_ghs.5Cobj.5Cchm.:
                         759 _chm_NewEventProcess:
000001c0 9207e170        760 	prepare	{r25,r26,r27,r28,r29,r31},9
000001c4 06d8            761 	mov	r6,r27
000001c6 07d0            762 	mov	r7,r26
000001c8 3d0600000000*   763 	mov	_isPdcActive,r29
                         764 --	    .bf
                         765 .LDW22:
                         766 --264: {
                         767 --265:     U8 res =RET_INVALID;
000001ce 02e2            768 	mov	2,r28
                         769 --266:    	U8 chmbrk = 0;
000001d0 00ca            770 	mov	0,r25
                         771 --267:    
                         772 --268: 	JudgeEvtData_ST judgeevt;
                         773 --269: 	JudgeEvtData_ST msgjudgeevt;
                         774 --271:     if((NULL_PTR == pEvt) || (NULL_PTR == pBrkEn) || (FALSE == Chm_InitStatus))
000001d2 e0d9            775 	cmp	zero,r27
000001d4 a20d*           776 	be	.L475
000001d6 e0d1            777 	cmp	zero,r26
000001d8 820d*           778 	be	.L475
000001da 210600000000*   779 	mov	_Chm_InitStatus,r1
000001e0 810f0100        780 	ld.bu	0[r1],r1
000001e4 e009            781 	cmp	zero,r1
000001e6 ba05*           782 	bne	.L474
                         783 .L475:
                         784 --272:     {
                         785 --273:         return;
                         786 --line273
                         787 ..lin.D.3A.5CRenesas_Electronics.5CD1x_RGL.5Crgl_ghs_D1Lx_obj_V1.2E2.2E0.5Cvlib.5Capp.5Cgfx_apps.5Csimple_draw_d1l2.5Ctarget.5Cd1lx_mango_ghs.5Cobj.5Cchm.26::
                         788 .LDWlin26:

                                                                      Page 15
                                                              C:\Users\YINGAO~1\AppData\Local\Temp\gh_00006a41.si
000001e8 80071a01*       789 	br	.L472
                         790 .L474:
                         791 --274:     }
                         792 --275:     
                         793 --277:     res = EVT_GetWarnPriorEvent(&judgeevt);
                         794 --line277
                         795 ..lin.D.3A.5CRenesas_Electronics.5CD1x_RGL.5Crgl_ghs_D1Lx_obj_V1.2E2.2E0.5Cvlib.5Capp.5Cgfx_apps.5Csimple_draw_d1l2.5Ctarget.5Cd1lx_mango_ghs.5Cobj.5Cchm.27::
                         796 .LDWlin27:
000001ec 23361400        797 	movea	20,sp,r6
                         798 	jarl	_EVT_GetWarnPriorEvent,lp
                         798 <EXPANSION BEGIN>
                         798 jarl22 _EVT_GetWarnPriorEvent , lp 
000001f0 80ff0000*       798 <EXPANSION END>
000001f4 0ae0            799 	mov	r10,r28
                         800 --278: 	switch (judgeevt.event.warn) 
                         801 --line278
                         802 ..lin.D.3A.5CRenesas_Electronics.5CD1x_RGL.5Crgl_ghs_D1Lx_obj_V1.2E2.2E0.5Cvlib.5Capp.5Cgfx_apps.5Csimple_draw_d1l2.5Ctarget.5Cd1lx_mango_ghs.5Cobj.5Cchm.28::
                         803 .LDWlin28:
000001f6 230f1d00        804 	ld.w	28[sp],r1
000001fa 010edbff        805 	addi	-37,r1,r1
000001fe 6f0a            806 	cmp	15,r1
00000200 d155*           807 	bl	.L495
00000202 c22d*           808 	be	.L488
00000204 0106f0ff        809 	addi	-16,r1,zero
00000208 aa55*           810 	bne	.L496
                         811 --279: 	{
                         812 --280: 	
                         813 --281: 		case INDEX_WARN_PDCSTS_INITFAIL_GONG:
                         814 --282: 			if (!isPdcActive.Fail ) 
                         815 --line282
                         816 ..lin.D.3A.5CRenesas_Electronics.5CD1x_RGL.5Crgl_ghs_D1Lx_obj_V1.2E2.2E0.5Cvlib.5Capp.5Cgfx_apps.5Csimple_draw_d1l2.5Ctarget.5Cd1lx_mango_ghs.5Cobj.5Cchm.29::
                         817 .LDWlin29:
0000020a 9d0f0100        818 	ld.bu	0[r29],r1
0000020e 820a            819 	shr	2,r1
00000210 a125*           820 	bl	.L482
                         821 --283: 			{
                         822 --284: 				isPdcActive.Fail =1;
                         823 --line284
                         824 ..lin.D.3A.5CRenesas_Electronics.5CD1x_RGL.5Crgl_ghs_D1Lx_obj_V1.2E2.2E0.5Cvlib.5Capp.5Cgfx_apps.5Csimple_draw_d1l2.5Ctarget.5Cd1lx_mango_ghs.5Cobj.5Cchm.30::
                         825 .LDWlin30:
00000212 9d0f0100        826 	ld.bu	0[r29],r1
00000216 810e0200        827 	ori	2,r1,r1
0000021a 5d0f0000        828 	st.b	r1,0[r29]
                         829 --285: 		
                         830 --286: 				res = MSG_GetJudgCurEvt(&msgjudgeevt);	
0000021e 23360400        831 	movea	4,sp,r6
                         832 	jarl	_MSG_GetJudgCurEvt,lp
                         832 <EXPANSION BEGIN>
                         832 jarl22 _MSG_GetJudgCurEvt , lp 
00000222 80ff0000*       832 <EXPANSION END>
00000226 0ae0            833 	mov	r10,r28
                         834 --287: 				if(INDEX_WARN_PDCSTS_INITFAIL_GONG == msgjudgeevt.event.warn)
                         835 --line287
                         836 ..lin.D.3A.5CRenesas_Electronics.5CD1x_RGL.5Crgl_ghs_D1Lx_obj_V1.2E2.2E0.5Cvlib.5Capp.5Cgfx_apps.5Csimple_draw_d1l2.5Ctarget.5Cd1lx_mango_ghs.5Cobj.5Cchm.31::
                         837 .LDWlin31:
00000228 230f0d00        838 	ld.w	12[sp],r1
0000022c 0106cbff        839 	addi	-53,r1,zero
00000230 ca15*           840 	bne	.L487
                         841 --288: 				{
                         842 --289: 					judgeevt = msgjudgeevt;
                         843 --line289

                                                                      Page 16
                                                              C:\Users\YINGAO~1\AppData\Local\Temp\gh_00006a41.si
                         844 ..lin.D.3A.5CRenesas_Electronics.5CD1x_RGL.5Crgl_ghs_D1Lx_obj_V1.2E2.2E0.5Cvlib.5Capp.5Cgfx_apps.5Csimple_draw_d1l2.5Ctarget.5Cd1lx_mango_ghs.5Cobj.5Cchm.32::
                         845 .LDWlin32:
00000232 23f60400        846 	movea	4,sp,ep
00000236 230e1400        847 	movea	20,sp,r1
0000023a 0075            848 	sld.w	0[ep],r14
0000023c 026d            849 	sld.w	4[ep],r13
0000023e 0465            850 	sld.w	8[ep],r12
00000240 065d            851 	sld.w	12[ep],r11
00000242 61770100        852 	st.w	r14,0[r1]
00000246 616f0500        853 	st.w	r13,4[r1]
0000024a 61670900        854 	st.w	r12,8[r1]
0000024e 615f0d00        855 	st.w	r11,12[r1]
00000252 b505*           856 	br	.L487
                         857 .L482:
                         858 --290: 				}
                         859 --291: 				else
                         860 --292: 				{
                         861 --293: 				}
                         862 --294: 			}
                         863 --295: 			else
                         864 --296: 			{
                         865 --297: 				judgeevt.event.warn =INDEX_WARN_NULL;
                         866 --line297
                         867 ..lin.D.3A.5CRenesas_Electronics.5CD1x_RGL.5Crgl_ghs_D1Lx_obj_V1.2E2.2E0.5Cvlib.5Capp.5Cgfx_apps.5Csimple_draw_d1l2.5Ctarget.5Cd1lx_mango_ghs.5Cobj.5Cchm.33::
                         868 .LDWlin33:
00000254 63071d00        869 	st.w	zero,28[sp]
                         870 .L487:
00000258 c545*           871 	br	.L479
                         872 .L488:
                         873 --298: 			}
                         874 --299: 			break;
                         875 --301: 		case INDEX_WARN_PDCSTS_INITOK_GONG:
                         876 --302: 			if (!isPdcActive.Init ) 
                         877 --line302
                         878 ..lin.D.3A.5CRenesas_Electronics.5CD1x_RGL.5Crgl_ghs_D1Lx_obj_V1.2E2.2E0.5Cvlib.5Capp.5Cgfx_apps.5Csimple_draw_d1l2.5Ctarget.5Cd1lx_mango_ghs.5Cobj.5Cchm.34::
                         879 .LDWlin34:
0000025a 9d0f0100        880 	ld.bu	0[r29],r1
0000025e 810a            881 	shr	1,r1
00000260 a125*           882 	bl	.L489
                         883 --303: 			{
                         884 --304: 				isPdcActive.Init =1;
                         885 --line304
                         886 ..lin.D.3A.5CRenesas_Electronics.5CD1x_RGL.5Crgl_ghs_D1Lx_obj_V1.2E2.2E0.5Cvlib.5Capp.5Cgfx_apps.5Csimple_draw_d1l2.5Ctarget.5Cd1lx_mango_ghs.5Cobj.5Cchm.35::
                         887 .LDWlin35:
00000262 9d0f0100        888 	ld.bu	0[r29],r1
00000266 810e0100        889 	ori	1,r1,r1
0000026a 5d0f0000        890 	st.b	r1,0[r29]
                         891 --306: 				res = MSG_GetJudgCurEvt(&msgjudgeevt);	
0000026e 23360400        892 	movea	4,sp,r6
                         893 	jarl	_MSG_GetJudgCurEvt,lp
                         893 <EXPANSION BEGIN>
                         893 jarl22 _MSG_GetJudgCurEvt , lp 
00000272 80ff0000*       893 <EXPANSION END>
00000276 0ae0            894 	mov	r10,r28
                         895 --307: 				if(INDEX_WARN_PDCSTS_INITFAIL_GONG == msgjudgeevt.event.warn)
                         896 --line307
                         897 ..lin.D.3A.5CRenesas_Electronics.5CD1x_RGL.5Crgl_ghs_D1Lx_obj_V1.2E2.2E0.5Cvlib.5Capp.5Cgfx_apps.5Csimple_draw_d1l2.5Ctarget.5Cd1lx_mango_ghs.5Cobj.5Cchm.36::
                         898 .LDWlin36:
00000278 230f0d00        899 	ld.w	12[sp],r1
0000027c 0106cbff        900 	addi	-53,r1,zero
00000280 ca15*           901 	bne	.L494

                                                                      Page 17
                                                              C:\Users\YINGAO~1\AppData\Local\Temp\gh_00006a41.si
                         902 --308: 				{
                         903 --309: 					judgeevt = msgjudgeevt;
                         904 --line309
                         905 ..lin.D.3A.5CRenesas_Electronics.5CD1x_RGL.5Crgl_ghs_D1Lx_obj_V1.2E2.2E0.5Cvlib.5Capp.5Cgfx_apps.5Csimple_draw_d1l2.5Ctarget.5Cd1lx_mango_ghs.5Cobj.5Cchm.37::
                         906 .LDWlin37:
00000282 23f60400        907 	movea	4,sp,ep
00000286 230e1400        908 	movea	20,sp,r1
0000028a 0075            909 	sld.w	0[ep],r14
0000028c 026d            910 	sld.w	4[ep],r13
0000028e 0465            911 	sld.w	8[ep],r12
00000290 065d            912 	sld.w	12[ep],r11
00000292 61770100        913 	st.w	r14,0[r1]
00000296 616f0500        914 	st.w	r13,4[r1]
0000029a 61670900        915 	st.w	r12,8[r1]
0000029e 615f0d00        916 	st.w	r11,12[r1]
000002a2 b505*           917 	br	.L494
                         918 .L489:
                         919 --310: 				}
                         920 --311: 				else
                         921 --312: 				{
                         922 --313: 				}
                         923 --314: 			}
                         924 --315: 			else
                         925 --316: 			{
                         926 --317: 				judgeevt.event.warn =INDEX_WARN_NULL;
                         927 --line317
                         928 ..lin.D.3A.5CRenesas_Electronics.5CD1x_RGL.5Crgl_ghs_D1Lx_obj_V1.2E2.2E0.5Cvlib.5Capp.5Cgfx_apps.5Csimple_draw_d1l2.5Ctarget.5Cd1lx_mango_ghs.5Cobj.5Cchm.38::
                         929 .LDWlin38:
000002a4 63071d00        930 	st.w	zero,28[sp]
                         931 .L494:
000002a8 c51d*           932 	br	.L479
                         933 .L495:
                         934 --line336
                         935 ..lin.D.3A.5CRenesas_Electronics.5CD1x_RGL.5Crgl_ghs_D1Lx_obj_V1.2E2.2E0.5Cvlib.5Capp.5Cgfx_apps.5Csimple_draw_d1l2.5Ctarget.5Cd1lx_mango_ghs.5Cobj.5Cchm.39::
                         936 .LDWlin39:
000002aa b51d*           937 	br	.L479
                         938 .L496:
                         939 --318: 			}
                         940 --319: 			break;
                         941 --320: 			
                         942 --321:         case INDEX_WARN_PDCAUDWRN_RANG1_GONG:
                         943 --322:         case INDEX_WARN_PDCAUDWRN_RANG2_GONG:   
                         944 --323:         case INDEX_WARN_PDCAUDWRN_RANG3_GONG:   
                         945 --324:         case INDEX_WARN_PDCAUDWRN_RANG4_GONG:   
                         946 --325:         case INDEX_WARN_PDCAUDWRN_RANG5_GONG:   
                         947 --326:         case INDEX_WARN_PDCAUDWRN_RANG6_GONG:   
                         948 --327:         case INDEX_WARN_PDCAUDWRN_RANG7_GONG:   
                         949 --328:         case INDEX_WARN_PDCAUDWRN_RANG8_GONG:   
                         950 --329:         case INDEX_WARN_PDCAUDWRN_RANG9_GONG:   
                         951 --330:         case INDEX_WARN_PDCAUDWRN_RANG10_GONG:     
                         952 --331:         case INDEX_WARN_PDCAUDWRN_RANG11_GONG:     
                         953 --332:         case INDEX_WARN_PDCAUDWRN_RANG12_GONG:
                         954 --333:         case INDEX_WARN_PDCAUDWRN_RANG13_GONG:     
                         955 --334:         case INDEX_WARN_PDCAUDWRN_RANG14_GONG:     
                         956 --335:         case INDEX_WARN_PDCAUDWRN_RANG15_GONG:
                         957 --336: 			break;
                         958 --337: 			
                         959 --338: 		default:
                         960 --339: 			res = MSG_GetJudgCurEvt(&msgjudgeevt);	
                         961 --line339
                         962 ..lin.D.3A.5CRenesas_Electronics.5CD1x_RGL.5Crgl_ghs_D1Lx_obj_V1.2E2.2E0.5Cvlib.5Capp.5Cgfx_apps.5Csimple_draw_d1l2.5Ctarget.5Cd1lx_mango_ghs.5Cobj.5Cchm.40::

                                                                      Page 18
                                                              C:\Users\YINGAO~1\AppData\Local\Temp\gh_00006a41.si
                         963 .LDWlin40:
000002ac 23360400        964 	movea	4,sp,r6
                         965 	jarl	_MSG_GetJudgCurEvt,lp
                         965 <EXPANSION BEGIN>
                         965 jarl22 _MSG_GetJudgCurEvt , lp 
000002b0 80ff0000*       965 <EXPANSION END>
000002b4 0ae0            966 	mov	r10,r28
                         967 --340:     		if (INDEX_WARN_NULL != msgjudgeevt.event.warn)            	
                         968 --line340
                         969 ..lin.D.3A.5CRenesas_Electronics.5CD1x_RGL.5Crgl_ghs_D1Lx_obj_V1.2E2.2E0.5Cvlib.5Capp.5Cgfx_apps.5Csimple_draw_d1l2.5Ctarget.5Cd1lx_mango_ghs.5Cobj.5Cchm.41::
                         970 .LDWlin41:
000002b6 230f0d00        971 	ld.w	12[sp],r1
000002ba e009            972 	cmp	zero,r1
000002bc 9215*           973 	be	.L499
                         974 --341:     		{
                         975 --342:     			judgeevt = msgjudgeevt;
                         976 --line342
                         977 ..lin.D.3A.5CRenesas_Electronics.5CD1x_RGL.5Crgl_ghs_D1Lx_obj_V1.2E2.2E0.5Cvlib.5Capp.5Cgfx_apps.5Csimple_draw_d1l2.5Ctarget.5Cd1lx_mango_ghs.5Cobj.5Cchm.42::
                         978 .LDWlin42:
000002be 23f60400        979 	movea	4,sp,ep
000002c2 230e1400        980 	movea	20,sp,r1
000002c6 0075            981 	sld.w	0[ep],r14
000002c8 026d            982 	sld.w	4[ep],r13
000002ca 0465            983 	sld.w	8[ep],r12
000002cc 065d            984 	sld.w	12[ep],r11
000002ce 61770100        985 	st.w	r14,0[r1]
000002d2 616f0500        986 	st.w	r13,4[r1]
000002d6 61670900        987 	st.w	r12,8[r1]
000002da 615f0d00        988 	st.w	r11,12[r1]
                         989 .L499:
                         990 --343:     		}
                         991 --344:     		else
                         992 --345:     		{
000002de 0000            993 	nop
                         994 .L479:
                         995 --346:     		}
                         996 --347:             break;
                         997 --348:      }
                         998 --349: 	
                         999 --350:     *pEvt = judgeevt;
000002e0 23f61400       1000 	movea	20,sp,ep
000002e4 000d           1001 	sld.w	0[ep],r1
000002e6 0275           1002 	sld.w	4[ep],r14
000002e8 046d           1003 	sld.w	8[ep],r13
000002ea 0665           1004 	sld.w	12[ep],r12
000002ec 7b0f0100       1005 	st.w	r1,0[r27]
000002f0 7b770500       1006 	st.w	r14,4[r27]
000002f4 7b6f0900       1007 	st.w	r13,8[r27]
000002f8 7b670d00       1008 	st.w	r12,12[r27]
                        1009 --351:     *pBrkEn = chmbrk;
000002fc 5acf0000       1010 	st.b	r25,0[r26]
                        1011 --352: }
00000300 0000           1012 	nop
                        1013 .L472:
                        1014 --	    .ef
                        1015 .LDW32:
00000302 5206ff70       1016 	dispose	9,{r25,r26,r27,r28,r29,r31},[lp]
                        1017 	.type	_chm_NewEventProcess,@function
                        1018 	.size	_chm_NewEventProcess,.-_chm_NewEventProcess
                        1019 	.type	_chm_NewEventProcess..D.3A.5CRenesas_Electronics.5CD1x_RGL.5Crgl_ghs_D1Lx_obj_V1.2E2.2E0.5Cvlib.5Capp.5Cgfx_apps.5Csimple_draw_d1l2.5Ctarget.5Cd1lx_mango_ghs.5Cobj.5Cchm.,@function
                        1020 	.size	_chm_NewEventProcess..D.3A.5CRenesas_Electronics.5CD1x_RGL.5Crgl_ghs_D1Lx_obj_V1.2E2.2E0.5Cvlib.5Capp.5Cgfx_apps.5Csimple_draw_d1l2.5Ctarget.5Cd1lx_mango_ghs.5Cobj.5Cchm.,.-_chm_NewEventProcess..D.3A.5CRenesas_Electronics.5CD1x_RGL.5Crgl_ghs_D1Lx_obj_V1.2E2.2E0.5Cvlib.5Capp.5Cgfx_apps.5Csimple_draw_d1l2.5Ctarget.5Cd1lx_mango_ghs.5Cobj.5Cchm.

                                                                      Page 19
                                                              C:\Users\YINGAO~1\AppData\Local\Temp\gh_00006a41.si
                        1021 	.align	2
                        1022 .LDW42:
                        1023 --_res	r28	local
                        1024 --_chmbrk	r25	local
                        1025 --_judgeevt	20[sp]	local
                        1026 --_msgjudgeevt	4[sp]	local
                        1027 
                        1028 --_pEvt	r27	param
                        1029 --_pBrkEn	r26	param
                        1030 
                        1031 	.data
                        1032 	.text
                        1033 
                        1034 
                        1035 --355: /***************************************************
                        1036 --356: * Function: chm_InteruptCircle_Process
                        1037 --357: * Description: chm evt reaction
                        1038 --358: * Parameters: pEvt: the new chm event information
                        1039 --359:               pBrkEn: tell whether new chm event can interupt
                        1040 --360:                        current chm output signal
                        1041 --361: * Returns:none
                        1042 --362: *
                        1043 --363: * $Create & Verlog:$
                        1044 --364: * Author:xs  Date:2017-6-23   Version:V2.0
                        1045 --365: * $log:
                        1046 --366: ****************************************************/
                        1047 --367: static void chm_InteruptCircle_Process(JudgeEvtData_ST *pEvt, U8 BrkEn)
                        1048 --368: {		
                        1049 --370:     U8 res =RET_INVALID;
                        1050 --371:     U8 chmbrk = 0;
                        1051 --372:     U8 state = 0;
                        1052 --373:     
                        1053 --374: 	if (pEvt->index != ChmJudgeIndex) 
                        1054 --375: 	{
                        1055 --376: 		chmbrk = 1;
                        1056 --377: 	}
                        1057 --378: 	else
                        1058 --379: 	{
                        1059 --380: 		if (pEvt->event.warn != ChmJudgeWarn) 
                        1060 --381: 		{
                        1061 --382: 			chmbrk = 1;
                        1062 --383: 		}
                        1063 --384: 		else
                        1064 --385: 		{  						
                        1065 --386: 			/*if CHM EVT exist and MSG do not have chm output
                        1066 --387: 			IPK should can be interupt*/
                        1067 --388: 			res = EVT_GetJudgeEvtVarFlagMap(ChmJudgeIndex, &state);				
                        1068 --389: 			if ((RET_OK == res) && (0 == state))  
                        1069 --390: 			{
                        1070 --391: 				chmbrk = 1;
                        1071 --392: 			}												
                        1072 --393: 			else
                        1073 --394: 			{
                        1074 --395: 			}
                        1075 --396: 		}					
                        1076 --397: 	}
                        1077 --399: 	if (TRUE == chmbrk) 
                        1078 --400: 	{
                        1079 --401: 		ChmInfo.OutCircle = 0;
                        1080 --402: 		ChmSendToneStep = CHM_SENDTONE_ALL;
                        1081 --403: 		ChmJudgeIndex   = INDEX_GJ_NULL;

                                                                      Page 20
                                                              C:\Users\YINGAO~1\AppData\Local\Temp\gh_00006a41.si
                        1082 --404: 		ChmJudgeWarn    = INDEX_WARN_NULL;    
                        1083 --405: 	}
                        1084 --406: 	else
                        1085 --407: 	{
                        1086 --408: 		ChmSendToneStep = CHM_SENDTONE_FADEIN;
                        1087 --409: 	}
                        1088 --410: }
                        1089 --412: /***************************************************
                        1090 --413: * Function: chm_CircleEnd_Process
                        1091 --414: * Description: chm evt reaction
                        1092 --415: * Parameters: pEvt: the new chm event information
                        1093 --416:               pBrkEn: tell whether new chm event can interupt
                        1094 --417:                        current chm output signal
                        1095 --418: * Returns:none
                        1096 --419: *
                        1097 --420: * $Create & Verlog:$
                        1098 --421: * Author:xs  Date:2017-6-23   Version:V2.0
                        1099 --422: * $log:
                        1100 --423: ****************************************************/
                        1101 --424: static void chm_CircleEnd_Process(JudgeEvtData_ST *pEvt, U8 BrkEn)
                        1102 	.align	2
                        1103 	.align	2
                        1104 	.global	_chm_CircleEnd_Process..D.3A.5CRenesas_Electronics.5CD1x_RGL.5Crgl_ghs_D1Lx_obj_V1.2E2.2E0.5Cvlib.5Capp.5Cgfx_apps.5Csimple_draw_d1l2.5Ctarget.5Cd1lx_mango_ghs.5Cobj.5Cchm.
                        1105 _chm_CircleEnd_Process..D.3A.5CRenesas_Electronics.5CD1x_RGL.5Crgl_ghs_D1Lx_obj_V1.2E2.2E0.5Cvlib.5Capp.5Cgfx_apps.5Csimple_draw_d1l2.5Ctarget.5Cd1lx_mango_ghs.5Cobj.5Cchm.:
                        1106 _chm_CircleEnd_Process:
00000306 9407e170       1107 	prepare	{r25,r26,r27,r28,r29,r31},10
0000030a c75eff00       1108 	andi	255,r7,r11
0000030e 06e0           1109 	mov	r6,r28
00000310 3d0600000000*  1110 	mov	_ChmJudgeIndex,r29
00000316 435f0300       1111 	st.b	r11,3[sp]
0000031a 3dce1100       1112 	movea	17,r29,r25
                        1113 --	    .bf
                        1114 .LDW52:
                        1115 --425: {
                        1116 --427:     U8 res =RET_INVALID;
0000031e 02da           1117 	mov	2,r27
                        1118 --428:     U8 chmbrk = 0;
00000320 00d2           1119 	mov	0,r26
                        1120 --429:     U8 state = 0;
00000322 43070200       1121 	st.b	zero,2[sp]
                        1122 --431: 	JudgeEvtData_ST judgeevt;
                        1123 --433:     chmbrk = BrkEn;
00000326 235e0100       1124 	movea	1,sp,r11
0000032a 8bd70300       1125 	ld.bu	2[r11],r26
                        1126 --434:   
                        1127 --435:    switch (pEvt->event.warn) 
0000032e 3c0f0900       1128 	ld.w	8[r28],r1
00000332 010edbff       1129 	addi	-37,r1,r1
00000336 0106efff       1130 	addi	-17,r1,zero
0000033a e10d*          1131 	bl	.L688
                        1132 --436:    {
                        1133 --438: 	case INDEX_WARN_PDCSTS_INITOK_GONG:
                        1134 --439: 	case INDEX_WARN_PDCSTS_INITFAIL_GONG:
                        1135 --441: 	case INDEX_WARN_PDCAUDWRN_RANG1_GONG:
                        1136 --442: 	case INDEX_WARN_PDCAUDWRN_RANG2_GONG:	
                        1137 --443: 	case INDEX_WARN_PDCAUDWRN_RANG3_GONG:	
                        1138 --444: 	case INDEX_WARN_PDCAUDWRN_RANG4_GONG:	
                        1139 --445: 	case INDEX_WARN_PDCAUDWRN_RANG5_GONG:	
                        1140 --446: 	case INDEX_WARN_PDCAUDWRN_RANG6_GONG:	
                        1141 --447: 	case INDEX_WARN_PDCAUDWRN_RANG7_GONG:	
                        1142 --448: 	case INDEX_WARN_PDCAUDWRN_RANG8_GONG:	

                                                                      Page 21
                                                              C:\Users\YINGAO~1\AppData\Local\Temp\gh_00006a41.si
                        1143 --449: 	case INDEX_WARN_PDCAUDWRN_RANG9_GONG:	
                        1144 --450: 	case INDEX_WARN_PDCAUDWRN_RANG10_GONG:	   
                        1145 --451: 	case INDEX_WARN_PDCAUDWRN_RANG11_GONG:	   
                        1146 --452: 	case INDEX_WARN_PDCAUDWRN_RANG12_GONG:
                        1147 --453: 	case INDEX_WARN_PDCAUDWRN_RANG13_GONG:	   
                        1148 --454: 	case INDEX_WARN_PDCAUDWRN_RANG14_GONG:	   
                        1149 --455: 	case INDEX_WARN_PDCAUDWRN_RANG15_GONG:
                        1150 --457: 		Chm_RptGongRefresh =1;
                        1151 --line457
                        1152 ..lin.D.3A.5CRenesas_Electronics.5CD1x_RGL.5Crgl_ghs_D1Lx_obj_V1.2E2.2E0.5Cvlib.5Capp.5Cgfx_apps.5Csimple_draw_d1l2.5Ctarget.5Cd1lx_mango_ghs.5Cobj.5Cchm.43::
                        1153 .LDWlin43:
0000033c 2b0600000000*  1154 	mov	_Chm_RptGongRefresh,r11
00000342 010a           1155 	mov	1,r1
00000344 4b0f0000       1156 	st.b	r1,0[r11]
                        1157 --458: 		ChmJudgeFinishFlag[pEvt->index] = 1;
00000348 3cf70100       1158 	ld.w	0[r28],ep
0000034c 010a           1159 	mov	1,r1
0000034e d9f1           1160 	add	r25,ep
00000350 800b           1161 	sst.b	r1,0[ep]
00000352 8007b401*      1162 	br	.L685
                        1163 .L688:
                        1164 --459: 		break;
                        1165 --460: 							
                        1166 --461: 	default:
                        1167 --462: 		if (pEvt->index != ChmJudgeIndex) 
                        1168 --line462
                        1169 ..lin.D.3A.5CRenesas_Electronics.5CD1x_RGL.5Crgl_ghs_D1Lx_obj_V1.2E2.2E0.5Cvlib.5Capp.5Cgfx_apps.5Csimple_draw_d1l2.5Ctarget.5Cd1lx_mango_ghs.5Cobj.5Cchm.44::
                        1170 .LDWlin44:
00000356 3d0f0100       1171 	ld.w	0[r29],r1
0000035a 3c770100       1172 	ld.w	0[r28],r14
0000035e e171           1173 	cmp	r1,r14
00000360 b205*          1174 	be	.L689
                        1175 --463: 		{
                        1176 --464: 			chmbrk = 1;
                        1177 --line464
                        1178 ..lin.D.3A.5CRenesas_Electronics.5CD1x_RGL.5Crgl_ghs_D1Lx_obj_V1.2E2.2E0.5Cvlib.5Capp.5Cgfx_apps.5Csimple_draw_d1l2.5Ctarget.5Cd1lx_mango_ghs.5Cobj.5Cchm.45::
                        1179 .LDWlin45:
00000362 01d2           1180 	mov	1,r26
00000364 850d*          1181 	br	.L691
                        1182 .L689:
                        1183 --465: 		}
                        1184 --466: 		else
                        1185 --467: 		{
                        1186 --468: 			if (pEvt->event.warn != ChmJudgeWarn) 
                        1187 --line468
                        1188 ..lin.D.3A.5CRenesas_Electronics.5CD1x_RGL.5Crgl_ghs_D1Lx_obj_V1.2E2.2E0.5Cvlib.5Capp.5Cgfx_apps.5Csimple_draw_d1l2.5Ctarget.5Cd1lx_mango_ghs.5Cobj.5Cchm.46::
                        1189 .LDWlin46:
00000366 3d0f0500       1190 	ld.w	4[r29],r1
0000036a 3c770900       1191 	ld.w	8[r28],r14
0000036e e171           1192 	cmp	r1,r14
00000370 a205*          1193 	be	.L691
                        1194 --469: 			{
                        1195 --470: 				chmbrk = 1;
                        1196 --line470
                        1197 ..lin.D.3A.5CRenesas_Electronics.5CD1x_RGL.5Crgl_ghs_D1Lx_obj_V1.2E2.2E0.5Cvlib.5Capp.5Cgfx_apps.5Csimple_draw_d1l2.5Ctarget.5Cd1lx_mango_ghs.5Cobj.5Cchm.47::
                        1198 .LDWlin47:
00000372 01d2           1199 	mov	1,r26
                        1200 .L691:
                        1201 --471: 			}
                        1202 --472: 			else
                        1203 --473: 			{  

                                                                      Page 22
                                                              C:\Users\YINGAO~1\AppData\Local\Temp\gh_00006a41.si
                        1204 --474: 			}					
                        1205 --475: 		}
                        1206 --477: 		if (TRUE == chmbrk) 
00000374 61d2           1207 	cmp	1,r26
00000376 8a2d*          1208 	bne	.L695
                        1209 --478: 		{
                        1210 --479: 			switch (ChmPrmInfo.Tone) 
                        1211 --line479
                        1212 ..lin.D.3A.5CRenesas_Electronics.5CD1x_RGL.5Crgl_ghs_D1Lx_obj_V1.2E2.2E0.5Cvlib.5Capp.5Cgfx_apps.5Csimple_draw_d1l2.5Ctarget.5Cd1lx_mango_ghs.5Cobj.5Cchm.48::
                        1213 .LDWlin48:
00000378 210600000000*  1214 	mov	_ChmPrmInfo,r1
0000037e 810f0100       1215 	ld.bu	0[r1],r1
00000382 620a           1216 	cmp	2,r1
00000384 ab05*          1217 	bh	.L700
                        1218 --line484
                        1219 ..lin.D.3A.5CRenesas_Electronics.5CD1x_RGL.5Crgl_ghs_D1Lx_obj_V1.2E2.2E0.5Cvlib.5Capp.5Cgfx_apps.5Csimple_draw_d1l2.5Ctarget.5Cd1lx_mango_ghs.5Cobj.5Cchm.49::
                        1220 .LDWlin49:
00000386 b50d*          1221 	br	.L697
                        1222 .L700:
                        1223 --480: 			{
                        1224 --481: 				case OUT_PDC_TONE:		
                        1225 --482: 				case OUT_TICK_TONE:
                        1226 --483: 				case OUT_TOCK_TONE:					
                        1227 --484: 					break;
                        1228 --485: 										
                        1229 --486: 				case OUT_GONG_TONE: 																	
                        1230 --487: 				case OUT_RESERVE_TONE:
                        1231 --488: 				default:
                        1232 --489: 					if (INDEX_WARN_NULL ==pEvt->event.warn) 
                        1233 --line489
                        1234 ..lin.D.3A.5CRenesas_Electronics.5CD1x_RGL.5Crgl_ghs_D1Lx_obj_V1.2E2.2E0.5Cvlib.5Capp.5Cgfx_apps.5Csimple_draw_d1l2.5Ctarget.5Cd1lx_mango_ghs.5Cobj.5Cchm.50::
                        1235 .LDWlin50:
00000388 3c0f0900       1236 	ld.w	8[r28],r1
0000038c e009           1237 	cmp	zero,r1
0000038e ea05*          1238 	bne	.L703
                        1239 --490: 					{
                        1240 --491: 						ChmInfo.OutCircle =0;
                        1241 --line491
                        1242 ..lin.D.3A.5CRenesas_Electronics.5CD1x_RGL.5Crgl_ghs_D1Lx_obj_V1.2E2.2E0.5Cvlib.5Capp.5Cgfx_apps.5Csimple_draw_d1l2.5Ctarget.5Cd1lx_mango_ghs.5Cobj.5Cchm.51::
                        1243 .LDWlin51:
00000390 2b0600000000*  1244 	mov	_ChmInfo+4,r11
00000396 6b070000       1245 	st.h	zero,0[r11]
                        1246 .L703:
                        1247 --492: 					}
                        1248 --493: 					else
                        1249 --494: 					{
0000039a 0000           1250 	nop
                        1251 .L697:
                        1252 --495: 					}
                        1253 --496: 					break;
                        1254 --497: 			}
                        1255 --499: 			Chm_RptGongRefresh =1;
0000039c 2b0600000000*  1256 	mov	_Chm_RptGongRefresh,r11
000003a2 010a           1257 	mov	1,r1
000003a4 4b0f0000       1258 	st.b	r1,0[r11]
                        1259 --500: 			ChmJudgeFinishFlag[pEvt->index] = 1;
000003a8 3cf70100       1260 	ld.w	0[r28],ep
000003ac 010a           1261 	mov	1,r1
000003ae d9f1           1262 	add	r25,ep
000003b0 800b           1263 	sst.b	r1,0[ep]
                        1264 --501: 			ChmJudgeIndex = pEvt->index;

                                                                      Page 23
                                                              C:\Users\YINGAO~1\AppData\Local\Temp\gh_00006a41.si
000003b2 3c0f0100       1265 	ld.w	0[r28],r1
000003b6 7d0f0100       1266 	st.w	r1,0[r29]
                        1267 --502: 			ChmJudgeWarn  = pEvt->event.warn;
000003ba 3c0f0900       1268 	ld.w	8[r28],r1
000003be 7d0f0500       1269 	st.w	r1,4[r29]
000003c2 80074201*      1270 	br	.L704
                        1271 .L695:
                        1272 --503: 		}
                        1273 --504: 		else
                        1274 --505: 		{			 
                        1275 --506: 			 switch (ChmPrmInfo.Tone) 
                        1276 --line506
                        1277 ..lin.D.3A.5CRenesas_Electronics.5CD1x_RGL.5Crgl_ghs_D1Lx_obj_V1.2E2.2E0.5Cvlib.5Capp.5Cgfx_apps.5Csimple_draw_d1l2.5Ctarget.5Cd1lx_mango_ghs.5Cobj.5Cchm.52::
                        1278 .LDWlin52:
000003c6 210600000000*  1279 	mov	_ChmPrmInfo,r1
000003cc 810f0100       1280 	ld.bu	0[r1],r1
000003d0 620a           1281 	cmp	2,r1
000003d2 911d*          1282 	bl	.L712
000003d4 bb25*          1283 	bh	.L718
                        1284 --507: 			 {
                        1285 --508: 				 case OUT_PDC_TONE: 	 
                        1286 --509: 					 ChmInfo.OutCircle =0;
                        1287 --line509
                        1288 ..lin.D.3A.5CRenesas_Electronics.5CD1x_RGL.5Crgl_ghs_D1Lx_obj_V1.2E2.2E0.5Cvlib.5Capp.5Cgfx_apps.5Csimple_draw_d1l2.5Ctarget.5Cd1lx_mango_ghs.5Cobj.5Cchm.53::
                        1289 .LDWlin53:
000003d6 2b0600000000*  1290 	mov	_ChmInfo+4,r11
000003dc 6b070000       1291 	st.h	zero,0[r11]
                        1292 --510: 					 
                        1293 --511: 					 ChmJudgeFinishFlag[INDEX_GJ_PDC_FAULT] =0;
000003e0 5d071200       1294 	st.b	zero,18[r29]
                        1295 --512: 					 res = MSG_GetJudgeIndex(INDEX_GJ_PDC_FAULT, &state);
000003e4 0132           1296 	mov	1,r6
000003e6 233e0200       1297 	movea	2,sp,r7
                        1298 	jarl	_MSG_GetJudgeIndex,lp
                        1298 <EXPANSION BEGIN>
                        1298 jarl22 _MSG_GetJudgeIndex , lp 
000003ea 80ff0000*      1298 <EXPANSION END>
000003ee 0ad8           1299 	mov	r10,r27
                        1300 --513: 					 if ((RET_OK == res) && (0 == state)) 
                        1301 --line513
                        1302 ..lin.D.3A.5CRenesas_Electronics.5CD1x_RGL.5Crgl_ghs_D1Lx_obj_V1.2E2.2E0.5Cvlib.5Capp.5Cgfx_apps.5Csimple_draw_d1l2.5Ctarget.5Cd1lx_mango_ghs.5Cobj.5Cchm.54::
                        1303 .LDWlin54:
000003f0 61da           1304 	cmp	1,r27
000003f2 8a0d*          1305 	bne	.L711
000003f4 830f0300       1306 	ld.bu	2[sp],r1
000003f8 e009           1307 	cmp	zero,r1
000003fa ca05*          1308 	bne	.L711
                        1309 --514: 					 {
                        1310 --515: 						 EVT_SetJudgeIndexFlagMap(INDEX_GJ_PDC_FAULT);	 
                        1311 --line515
                        1312 ..lin.D.3A.5CRenesas_Electronics.5CD1x_RGL.5Crgl_ghs_D1Lx_obj_V1.2E2.2E0.5Cvlib.5Capp.5Cgfx_apps.5Csimple_draw_d1l2.5Ctarget.5Cd1lx_mango_ghs.5Cobj.5Cchm.55::
                        1313 .LDWlin55:
000003fc 0132           1314 	mov	1,r6
                        1315 	jarl	_EVT_SetJudgeIndexFlagMap,lp
                        1315 <EXPANSION BEGIN>
                        1315 jarl22 _EVT_SetJudgeIndexFlagMap , lp 
000003fe 80ff0000*      1315 <EXPANSION END>
                        1316 .L711:
                        1317 --516: 					 }
                        1318 --517: 					 else
                        1319 --518: 					 {

                                                                      Page 24
                                                              C:\Users\YINGAO~1\AppData\Local\Temp\gh_00006a41.si
                        1320 --line520
                        1321 ..lin.D.3A.5CRenesas_Electronics.5CD1x_RGL.5Crgl_ghs_D1Lx_obj_V1.2E2.2E0.5Cvlib.5Capp.5Cgfx_apps.5Csimple_draw_d1l2.5Ctarget.5Cd1lx_mango_ghs.5Cobj.5Cchm.56::
                        1322 .LDWlin56:
00000402 c535*          1323 	br	.L715
                        1324 .L712:
                        1325 --519: 					 }					 
                        1326 --520: 					 break;
                        1327 --521: 					 
                        1328 --522: 				 case OUT_TICK_TONE:
                        1329 --523: 				 case OUT_TOCK_TONE:
                        1330 --524: 					 if (0 <ChmInfo.OutCircle) 
                        1331 --line524
                        1332 ..lin.D.3A.5CRenesas_Electronics.5CD1x_RGL.5Crgl_ghs_D1Lx_obj_V1.2E2.2E0.5Cvlib.5Capp.5Cgfx_apps.5Csimple_draw_d1l2.5Ctarget.5Cd1lx_mango_ghs.5Cobj.5Cchm.57::
                        1333 .LDWlin57:
00000404 210600000000*  1334 	mov	_ChmInfo+4,r1
0000040a e10f0100       1335 	ld.hu	0[r1],r1
0000040e e009           1336 	cmp	zero,r1
00000410 d205*          1337 	be	.L718
                        1338 --525: 					 {				 
                        1339 --526: 					 	ChmSendToneStep = CHM_SENDTONE_FADEIN;
                        1340 --line526
                        1341 ..lin.D.3A.5CRenesas_Electronics.5CD1x_RGL.5Crgl_ghs_D1Lx_obj_V1.2E2.2E0.5Cvlib.5Capp.5Cgfx_apps.5Csimple_draw_d1l2.5Ctarget.5Cd1lx_mango_ghs.5Cobj.5Cchm.58::
                        1342 .LDWlin58:
00000412 010a           1343 	mov	1,r1
00000414 5d0f0900       1344 	st.b	r1,9[r29]
                        1345 --527: 						break;
00000418 952d*          1346 	br	.L715
                        1347 .L718:
                        1348 --528: 					 }
                        1349 --529: 					 else
                        1350 --530: 				 	 {
                        1351 --531: 				 	 }
                        1352 --532: 				 case OUT_GONG_TONE:																	 
                        1353 --533: 				 case OUT_RESERVE_TONE:
                        1354 --534: 				 default:
                        1355 --535: 					 if (0 ==ChmInfo.OutCircle) 
                        1356 --line535
                        1357 ..lin.D.3A.5CRenesas_Electronics.5CD1x_RGL.5Crgl_ghs_D1Lx_obj_V1.2E2.2E0.5Cvlib.5Capp.5Cgfx_apps.5Csimple_draw_d1l2.5Ctarget.5Cd1lx_mango_ghs.5Cobj.5Cchm.59::
                        1358 .LDWlin59:
0000041a 210600000000*  1359 	mov	_ChmInfo+4,r1
00000420 e10f0100       1360 	ld.hu	0[r1],r1
00000424 e009           1361 	cmp	zero,r1
00000426 9a25*          1362 	bne	.L730
                        1363 --536: 					 {				 
                        1364 --537: 						 ChmJudgeFinishFlag[ChmJudgeIndex] = 0;
                        1365 --line537
                        1366 ..lin.D.3A.5CRenesas_Electronics.5CD1x_RGL.5Crgl_ghs_D1Lx_obj_V1.2E2.2E0.5Cvlib.5Capp.5Cgfx_apps.5Csimple_draw_d1l2.5Ctarget.5Cd1lx_mango_ghs.5Cobj.5Cchm.60::
                        1367 .LDWlin60:
00000428 3df70100       1368 	ld.w	0[r29],ep
0000042c d9f1           1369 	add	r25,ep
0000042e 8003           1370 	sst.b	zero,0[ep]
                        1371 --539: 						 if ( INDEX_MSG_NULL == pEvt->event.msg)
00000430 3c0f0d00       1372 	ld.w	12[r28],r1
00000434 e009           1373 	cmp	zero,r1
00000436 ea05*          1374 	bne	.L723
                        1375 --540: 					 	 {
                        1376 --541: 					 	 	EVT_SetJudgeIndexFlagMap(ChmJudgeIndex);
                        1377 --line541
                        1378 ..lin.D.3A.5CRenesas_Electronics.5CD1x_RGL.5Crgl_ghs_D1Lx_obj_V1.2E2.2E0.5Cvlib.5Capp.5Cgfx_apps.5Csimple_draw_d1l2.5Ctarget.5Cd1lx_mango_ghs.5Cobj.5Cchm.61::
                        1379 .LDWlin61:
00000438 3d370100       1380 	ld.w	0[r29],r6

                                                                      Page 25
                                                              C:\Users\YINGAO~1\AppData\Local\Temp\gh_00006a41.si
                        1381 	jarl	_EVT_SetJudgeIndexFlagMap,lp
                        1381 <EXPANSION BEGIN>
                        1381 jarl22 _EVT_SetJudgeIndexFlagMap , lp 
0000043c 80ff0000*      1381 <EXPANSION END>
00000440 a515*          1382 	br	.L725
                        1383 .L723:
                        1384 --542: 					 	 }
                        1385 --543: 						 else
                        1386 --544: 						 {
                        1387 --545: 							 res = MSG_GetJudgeIndex(ChmJudgeIndex, &state);
                        1388 --line545
                        1389 ..lin.D.3A.5CRenesas_Electronics.5CD1x_RGL.5Crgl_ghs_D1Lx_obj_V1.2E2.2E0.5Cvlib.5Capp.5Cgfx_apps.5Csimple_draw_d1l2.5Ctarget.5Cd1lx_mango_ghs.5Cobj.5Cchm.62::
                        1390 .LDWlin62:
00000442 9d370100       1391 	ld.bu	0[r29],r6
00000446 233e0200       1392 	movea	2,sp,r7
                        1393 	jarl	_MSG_GetJudgeIndex,lp
                        1393 <EXPANSION BEGIN>
                        1393 jarl22 _MSG_GetJudgeIndex , lp 
0000044a 80ff0000*      1393 <EXPANSION END>
0000044e 0ad8           1394 	mov	r10,r27
                        1395 --546: 							 if ((RET_OK == res) && (0 == state)) 
                        1396 --line546
                        1397 ..lin.D.3A.5CRenesas_Electronics.5CD1x_RGL.5Crgl_ghs_D1Lx_obj_V1.2E2.2E0.5Cvlib.5Capp.5Cgfx_apps.5Csimple_draw_d1l2.5Ctarget.5Cd1lx_mango_ghs.5Cobj.5Cchm.63::
                        1398 .LDWlin63:
00000450 61da           1399 	cmp	1,r27
00000452 9a0d*          1400 	bne	.L725
00000454 830f0300       1401 	ld.bu	2[sp],r1
00000458 e009           1402 	cmp	zero,r1
0000045a da05*          1403 	bne	.L725
                        1404 --547: 							 {
                        1405 --548: 								 EVT_SetJudgeIndexFlagMap(ChmJudgeIndex);	 
                        1406 --line548
                        1407 ..lin.D.3A.5CRenesas_Electronics.5CD1x_RGL.5Crgl_ghs_D1Lx_obj_V1.2E2.2E0.5Cvlib.5Capp.5Cgfx_apps.5Csimple_draw_d1l2.5Ctarget.5Cd1lx_mango_ghs.5Cobj.5Cchm.64::
                        1408 .LDWlin64:
0000045c 3d370100       1409 	ld.w	0[r29],r6
                        1410 	jarl	_EVT_SetJudgeIndexFlagMap,lp
                        1410 <EXPANSION BEGIN>
                        1410 jarl22 _EVT_SetJudgeIndexFlagMap , lp 
00000460 80ff0000*      1410 <EXPANSION END>
                        1411 .L725:
                        1412 --549: 							 }
                        1413 --550: 							 else
                        1414 --551: 							 {
                        1415 --552: 							 }
                        1416 --553: 						 }
                        1417 --555: 						 pEvt->event.warn = INDEX_WARN_NULL;
                        1418 --line555
                        1419 ..lin.D.3A.5CRenesas_Electronics.5CD1x_RGL.5Crgl_ghs_D1Lx_obj_V1.2E2.2E0.5Cvlib.5Capp.5Cgfx_apps.5Csimple_draw_d1l2.5Ctarget.5Cd1lx_mango_ghs.5Cobj.5Cchm.65::
                        1420 .LDWlin65:
00000464 7c070900       1421 	st.w	zero,8[r28]
                        1422 .L730:
                        1423 --556: 					 }
                        1424 --557: 					 else
                        1425 --558: 					 {
00000468 0000           1426 	nop
                        1427 .L715:
                        1428 --559: 					 }
                        1429 --560: 					 break;
                        1430 --561: 			 }
                        1431 --562: 		
                        1432 --563: 			switch (ChmJudgeWarn) 

                                                                      Page 26
                                                              C:\Users\YINGAO~1\AppData\Local\Temp\gh_00006a41.si
0000046a 3d0f0500       1433 	ld.w	4[r29],r1
0000046e 0106e4ff       1434 	addi	-28,r1,zero
00000472 b10d*          1435 	bl	.L876
00000474 650a           1436 	cmp	5,r1
00000476 d215*          1437 	be	.L733
00000478 6d0a           1438 	cmp	13,r1
0000047a b215*          1439 	be	.L733
0000047c 6f0a           1440 	cmp	15,r1
0000047e 9215*          1441 	be	.L733
00000480 0106efff       1442 	addi	-17,r1,zero
00000484 9a1d*          1443 	bne	.L739
00000486 d50d*          1444 	br	.L733
                        1445 .L876:
00000488 0106e4ff       1446 	addi	-28,r1,zero
0000048c a20d*          1447 	be	.L733
0000048e 0106e0ff       1448 	addi	-32,r1,zero
00000492 f205*          1449 	be	.L733
00000494 010ec1ff       1450 	addi	-63,r1,r1
00000498 610a           1451 	cmp	1,r1
0000049a b305*          1452 	bnh	.L733
0000049c 6b0a           1453 	cmp	11,r1
0000049e ca0d*          1454 	bne	.L739
                        1455 .L733:
                        1456 --564: 			{
                        1457 --565: 				case INDEX_WARN_BRAKE_HANDON_REPEATGONG:
                        1458 --566: 				case INDEX_WARN_DOORANDLID_DOOR_REPEATGONG_HALFHZ:/*EVENT_DOORANDLID_DOOR_WARN_GONG*/ 
                        1459 --567: 				case INDEX_WARN_DOORANDLID_LDSP_REPEATGONG_HALFHZ:
                        1460 --568: 				case INDEX_WARN_DOORANDLID_BONNET_REPEATGONG_HALFHZ:
                        1461 --569: 				case INDEX_WARN_IGNKEY_REPEATGONG:/*EVENT_IGNKEY_WARN_REPEATGONG*/	  
                        1462 --570: 				case INDEX_WARN_LIGHT_REPEATGONG:/*EVENT_LIGHT_WARN_GONG*/
                        1463 --571: 				case INDEX_WARN_SEATBELT_DRV_REPEATGONG:/*EVENT_SEATBELT_DRV_WARN_REPEATGONG*/	  
                        1464 --572: 				 //case  INDEX_WARN_SEATBELT_PNSG_REPEATGONG:/*EVENT_SEATBELT_PNSG_WARN_REPEATGONG*/	  
                        1465 --573: 				case INDEX_WARN_SEATBELT_LAMPON_REPEATGONG:/*EVENT_SEATBELT_LAMPON_WARN_REPEATGONG*/	
                        1466 --574: 				case INDEX_WARN_EPBSTS_REPEAT_GONG_HALFHZ:
                        1467 --575: 			
                        1468 --576: 					if (0 < ChmJudgeFinishFlag[ChmJudgeIndex]) 
                        1469 --line576
                        1470 ..lin.D.3A.5CRenesas_Electronics.5CD1x_RGL.5Crgl_ghs_D1Lx_obj_V1.2E2.2E0.5Cvlib.5Capp.5Cgfx_apps.5Csimple_draw_d1l2.5Ctarget.5Cd1lx_mango_ghs.5Cobj.5Cchm.66::
                        1471 .LDWlin66:
000004a0 3df70100       1472 	ld.w	0[r29],ep
000004a4 d9f1           1473 	add	r25,ep
000004a6 6008           1474 	sld.bu	0[ep],r1
000004a8 e009           1475 	cmp	zero,r1
000004aa a205*          1476 	be	.L738
                        1477 --577: 					{
                        1478 --578: 					   break;
                        1479 --line578
                        1480 ..lin.D.3A.5CRenesas_Electronics.5CD1x_RGL.5Crgl_ghs_D1Lx_obj_V1.2E2.2E0.5Cvlib.5Capp.5Cgfx_apps.5Csimple_draw_d1l2.5Ctarget.5Cd1lx_mango_ghs.5Cobj.5Cchm.67::
                        1481 .LDWlin67:
000004ac c52d*          1482 	br	.L704
                        1483 .L738:
                        1484 --579: 					}
                        1485 --580: 					else
                        1486 --581: 					{
                        1487 --582: 					}
                        1488 --583: 									
                        1489 --584: 					ChmJudgeFinishFlag[ChmJudgeIndex] =0;	
                        1490 --line584
                        1491 ..lin.D.3A.5CRenesas_Electronics.5CD1x_RGL.5Crgl_ghs_D1Lx_obj_V1.2E2.2E0.5Cvlib.5Capp.5Cgfx_apps.5Csimple_draw_d1l2.5Ctarget.5Cd1lx_mango_ghs.5Cobj.5Cchm.68::
                        1492 .LDWlin68:
000004ae 3df70100       1493 	ld.w	0[r29],ep

                                                                      Page 27
                                                              C:\Users\YINGAO~1\AppData\Local\Temp\gh_00006a41.si
000004b2 d9f1           1494 	add	r25,ep
000004b4 8003           1495 	sst.b	zero,0[ep]
                        1496 --585: 				 default:
                        1497 .L739:
                        1498 --586: 										
                        1499 --587: 					res = EVT_GetWarnPriorEvent(&judgeevt);
000004b6 23361800       1500 	movea	24,sp,r6
                        1501 	jarl	_EVT_GetWarnPriorEvent,lp
                        1501 <EXPANSION BEGIN>
                        1501 jarl22 _EVT_GetWarnPriorEvent , lp 
000004ba 80ff0000*      1501 <EXPANSION END>
000004be 0ad8           1502 	mov	r10,r27
                        1503 --588: 					switch (judgeevt.event.warn) 
                        1504 --line588
                        1505 ..lin.D.3A.5CRenesas_Electronics.5CD1x_RGL.5Crgl_ghs_D1Lx_obj_V1.2E2.2E0.5Cvlib.5Capp.5Cgfx_apps.5Csimple_draw_d1l2.5Ctarget.5Cd1lx_mango_ghs.5Cobj.5Cchm.69::
                        1506 .LDWlin69:
000004c0 230f2100       1507 	ld.w	32[sp],r1
000004c4 010ee2ff       1508 	addi	-30,r1,r1
000004c8 610a           1509 	cmp	1,r1
000004ca d305*          1510 	bnh	.L744
000004cc 010ee8ff       1511 	addi	-24,r1,r1
000004d0 610a           1512 	cmp	1,r1
000004d2 db15*          1513 	bh	.L745
                        1514 .L744:
                        1515 --589: 					{
                        1516 --590: 						case INDEX_WARN_LEFTDIR_TICK:
                        1517 --591: 						case INDEX_WARN_LEFTDIR_TOCK:
                        1518 --592: 						case INDEX_WARN_RIGHTDIR_TICK:
                        1519 --593: 						case INDEX_WARN_RIGHTDIR_TOCK:
                        1520 --594: 							*pEvt = judgeevt;
                        1521 --line594
                        1522 ..lin.D.3A.5CRenesas_Electronics.5CD1x_RGL.5Crgl_ghs_D1Lx_obj_V1.2E2.2E0.5Cvlib.5Capp.5Cgfx_apps.5Csimple_draw_d1l2.5Ctarget.5Cd1lx_mango_ghs.5Cobj.5Cchm.70::
                        1523 .LDWlin70:
000004d4 23f61800       1524 	movea	24,sp,ep
000004d8 000d           1525 	sld.w	0[ep],r1
000004da 0275           1526 	sld.w	4[ep],r14
000004dc 046d           1527 	sld.w	8[ep],r13
000004de 0665           1528 	sld.w	12[ep],r12
000004e0 7c0f0100       1529 	st.w	r1,0[r28]
000004e4 7c770500       1530 	st.w	r14,4[r28]
000004e8 7c6f0900       1531 	st.w	r13,8[r28]
000004ec 7c670d00       1532 	st.w	r12,12[r28]
                        1533 --595: 							ChmJudgeFinishFlag[pEvt->index] = 1;
000004f0 3cf70100       1534 	ld.w	0[r28],ep
000004f4 010a           1535 	mov	1,r1
000004f6 d9f1           1536 	add	r25,ep
000004f8 800b           1537 	sst.b	r1,0[ep]
000004fa c505*          1538 	br	.L742
                        1539 .L745:
                        1540 --596: 							break;
                        1541 --597: 					
                        1542 --598: 						default:
                        1543 --599: 							pEvt->event.warn = INDEX_WARN_NULL;
                        1544 --line599
                        1545 ..lin.D.3A.5CRenesas_Electronics.5CD1x_RGL.5Crgl_ghs_D1Lx_obj_V1.2E2.2E0.5Cvlib.5Capp.5Cgfx_apps.5Csimple_draw_d1l2.5Ctarget.5Cd1lx_mango_ghs.5Cobj.5Cchm.71::
                        1546 .LDWlin71:
000004fc 7c070900       1547 	st.w	zero,8[r28]
00000500 0000           1548 	nop
                        1549 .L742:
00000502 0000           1550 	nop
                        1551 .L704:

                                                                      Page 28
                                                              C:\Users\YINGAO~1\AppData\Local\Temp\gh_00006a41.si
00000504 0000           1552 	nop
                        1553 .L685:
                        1554 --600: 						    break;
                        1555 --601: 					}												
                        1556 --602: 					
                        1557 --603: 					break;
                        1558 --604: 			}
                        1559 --605: 		}					
                        1560 --606: 		break;
                        1561 --607: 	}   
                        1562 --608: }
00000506 0000           1563 	nop
                        1564 --	    .ef
                        1565 .LDW62:
00000508 5406ff70       1566 	dispose	10,{r25,r26,r27,r28,r29,r31},[lp]
                        1567 	.type	_chm_CircleEnd_Process,@function
                        1568 	.size	_chm_CircleEnd_Process,.-_chm_CircleEnd_Process
                        1569 	.type	_chm_CircleEnd_Process..D.3A.5CRenesas_Electronics.5CD1x_RGL.5Crgl_ghs_D1Lx_obj_V1.2E2.2E0.5Cvlib.5Capp.5Cgfx_apps.5Csimple_draw_d1l2.5Ctarget.5Cd1lx_mango_ghs.5Cobj.5Cchm.,@function
                        1570 	.size	_chm_CircleEnd_Process..D.3A.5CRenesas_Electronics.5CD1x_RGL.5Crgl_ghs_D1Lx_obj_V1.2E2.2E0.5Cvlib.5Capp.5Cgfx_apps.5Csimple_draw_d1l2.5Ctarget.5Cd1lx_mango_ghs.5Cobj.5Cchm.,.-_chm_CircleEnd_Process..D.3A.5CRenesas_Electronics.5CD1x_RGL.5Crgl_ghs_D1Lx_obj_V1.2E2.2E0.5Cvlib.5Capp.5Cgfx_apps.5Csimple_draw_d1l2.5Ctarget.5Cd1lx_mango_ghs.5Cobj.5Cchm.
                        1571 	.align	2
                        1572 .LDW72:
                        1573 --_res	r27	local
                        1574 --_chmbrk	r26	local
                        1575 --_state	2[sp]	local
                        1576 --_judgeevt	24[sp]	local
                        1577 
                        1578 --_pEvt	r28	param
                        1579 --_BrkEn	3[sp]	param
                        1580 
                        1581 	.data
                        1582 	.text
                        1583 
                        1584 
                        1585 --611: /***************************************************
                        1586 --612: * Function: chm_CalChmEvt_OutCircle
                        1587 --613: * Description: chm evt reaction
                        1588 --614: * Parameters: none
                        1589 --615: * Returns:none
                        1590 --616: *
                        1591 --617: * $Create & Verlog:$
                        1592 --618: * Author:xs  Date:2017-6-23   Version:V2.0
                        1593 --619: * $log:
                        1594 --620: ****************************************************/
                        1595 --621: static void chm_CalChmEvt_OutCircle(WARN_EVENT_ENUM chmIndex,U8 isEnd)
                        1596 	.align	2
                        1597 	.align	2
                        1598 	.global	_chm_CalChmEvt_OutCircle..D.3A.5CRenesas_Electronics.5CD1x_RGL.5Crgl_ghs_D1Lx_obj_V1.2E2.2E0.5Cvlib.5Capp.5Cgfx_apps.5Csimple_draw_d1l2.5Ctarget.5Cd1lx_mango_ghs.5Cobj.5Cchm.
                        1599 _chm_CalChmEvt_OutCircle..D.3A.5CRenesas_Electronics.5CD1x_RGL.5Crgl_ghs_D1Lx_obj_V1.2E2.2E0.5Cvlib.5Capp.5Cgfx_apps.5Csimple_draw_d1l2.5Ctarget.5Cd1lx_mango_ghs.5Cobj.5Cchm.:
                        1600 _chm_CalChmEvt_OutCircle:
0000050c 8607e170       1601 	prepare	{r25,r26,r27,r28,r29,r31},3
00000510 c75eff00       1602 	andi	255,r7,r11
00000514 06d0           1603 	mov	r6,r26
00000516 3d0600000000*  1604 	mov	_ChmInfo,r29
0000051c 435f0300       1605 	st.b	r11,3[sp]
00000520 1dc8           1606 	mov	r29,r25
00000522 3b0600000000*  1607 	mov	_Chm_RptGongRefresh,r27
                        1608 --	    .bf
                        1609 .LDW82:
                        1610 --622: {
                        1611 --624: 	U8 state = 0;
00000528 43070200       1612 	st.b	zero,2[sp]

                                                                      Page 29
                                                              C:\Users\YINGAO~1\AppData\Local\Temp\gh_00006a41.si
0000052c 005a           1613 	mov	0,r11
                        1614 --626: 	U8 gongCfgTime = 0;	
0000052e 00e2           1615 	mov	0,r28
                        1616 --627: 	
                        1617 --628: 	StsmgEvent_ST evt;
                        1618 --629: 		   
                        1619 --630:     if (INDEX_WARN_NULL != chmIndex)   
00000530 e0d1           1620 	cmp	zero,r26
00000532 e207b501*      1621 	be	.L1108
                        1622 --631: 	{		
                        1623 --632:         switch (chmIndex) 
                        1624 --line632
                        1625 ..lin.D.3A.5CRenesas_Electronics.5CD1x_RGL.5Crgl_ghs_D1Lx_obj_V1.2E2.2E0.5Cvlib.5Capp.5Cgfx_apps.5Csimple_draw_d1l2.5Ctarget.5Cd1lx_mango_ghs.5Cobj.5Cchm.72::
                        1626 .LDWlin72:
00000536 1a08           1627 	mov	r26,r1
00000538 0106efff       1628 	addi	-17,r1,zero
0000053c b10d*          1629 	bl	.L1245
0000053e 650a           1630 	cmp	5,r1
00000540 a225*          1631 	be	.L1112
00000542 6d0a           1632 	cmp	13,r1
00000544 e2075b01*      1633 	be	.L1134
00000548 6f0a           1634 	cmp	15,r1
0000054a ea077f01*      1635 	bne	.L1138
0000054e 80075001*      1636 	br	.L1134
                        1637 .L1245:
00000552 0106c1ff       1638 	addi	-63,r1,zero
00000556 d10d*          1639 	bl	.L1251
00000558 0106efff       1640 	addi	-17,r1,zero
0000055c e2074301*      1641 	be	.L1134
00000560 0106e4ff       1642 	addi	-28,r1,zero
00000564 e235*          1643 	be	.L1119
00000566 0106e0ff       1644 	addi	-32,r1,zero
0000056a ea075f01*      1645 	bne	.L1138
0000056e 9535*          1646 	br	.L1119
                        1647 .L1251:
00000570 0106c0ff       1648 	addi	-64,r1,zero
00000574 f94d*          1649 	bnl	.L1123
00000576 e2072901*      1650 	be	.L1134
0000057a 0106b6ff       1651 	addi	-74,r1,zero
0000057e ea074b01*      1652 	bne	.L1138
00000582 d56d*          1653 	br	.L1130
                        1654 .L1112:
                        1655 --633:     	{
                        1656 --634:             case INDEX_WARN_BRAKE_HANDON_REPEATGONG:                                           
                        1657 --635: 				if (Chm_RptGongRefresh) 
                        1658 --line635
                        1659 ..lin.D.3A.5CRenesas_Electronics.5CD1x_RGL.5Crgl_ghs_D1Lx_obj_V1.2E2.2E0.5Cvlib.5Capp.5Cgfx_apps.5Csimple_draw_d1l2.5Ctarget.5Cd1lx_mango_ghs.5Cobj.5Cchm.73::
                        1660 .LDWlin73:
00000584 9b0f0100       1661 	ld.bu	0[r27],r1
00000588 e009           1662 	cmp	zero,r1
0000058a a21d*          1663 	be	.L1115
                        1664 --636: 				{
                        1665 --637: 					Chm_RptGongRefresh =0;
                        1666 --line637
                        1667 ..lin.D.3A.5CRenesas_Electronics.5CD1x_RGL.5Crgl_ghs_D1Lx_obj_V1.2E2.2E0.5Cvlib.5Capp.5Cgfx_apps.5Csimple_draw_d1l2.5Ctarget.5Cd1lx_mango_ghs.5Cobj.5Cchm.74::
                        1668 .LDWlin74:
0000058c 5b070000       1669 	st.b	zero,0[r27]
                        1670 --638: 					
                        1671 --639: 					memcpy(&ChmInfo,&Chm_ToneMatrix[chmIndex], sizeof(ChmInfo_ST)); 	
00000590 1a08           1672 	mov	r26,r1
00000592 c30a           1673 	shl	3,r1

                                                                      Page 30
                                                              C:\Users\YINGAO~1\AppData\Local\Temp\gh_00006a41.si
00000594 2b0600000000*  1674 	mov	_Chm_ToneMatrix,r11
0000059a cb09           1675 	add	r11,r1
0000059c 1930           1676 	mov	r25,r6
0000059e 0138           1677 	mov	r1,r7
000005a0 0842           1678 	mov	8,r8
                        1679 	jarl	_memcpy,lp
                        1679 <EXPANSION BEGIN>
                        1679 jarl22 _memcpy , lp 
000005a2 80ff0000*      1679 <EXPANSION END>
                        1680 --640: 					
                        1681 --641: 					gongCfgTime = DIAG_GetIgnOffSpelWarnPeriod();
                        1682 --line641
                        1683 ..lin.D.3A.5CRenesas_Electronics.5CD1x_RGL.5Crgl_ghs_D1Lx_obj_V1.2E2.2E0.5Cvlib.5Capp.5Cgfx_apps.5Csimple_draw_d1l2.5Ctarget.5Cd1lx_mango_ghs.5Cobj.5Cchm.75::
                        1684 .LDWlin75:
                        1685 	jarl	_DIAG_GetIgnOffSpelWarnPeriod,lp
                        1685 <EXPANSION BEGIN>
                        1685 jarl22 _DIAG_GetIgnOffSpelWarnPeriod , lp 
000005a6 80ff0000*      1685 <EXPANSION END>
000005aa 0ae0           1686 	mov	r10,r28
                        1687 --642: 					ChmInfo.OutCircle = (gongCfgTime+(gongCfgTime%2? 1:0))/2;
                        1688 --line642
                        1689 ..lin.D.3A.5CRenesas_Electronics.5CD1x_RGL.5Crgl_ghs_D1Lx_obj_V1.2E2.2E0.5Cvlib.5Capp.5Cgfx_apps.5Csimple_draw_d1l2.5Ctarget.5Cd1lx_mango_ghs.5Cobj.5Cchm.76::
                        1690 .LDWlin76:
000005ac dc0e0100       1691 	andi	1,r28,r1
000005b0 dc09           1692 	add	r28,r1
000005b2 0170           1693 	mov	r1,r14
000005b4 9f72           1694 	shr	31,r14
000005b6 ce09           1695 	add	r14,r1
000005b8 a10a           1696 	sar	1,r1
000005ba 7d0f0400       1697 	st.h	r1,4[r29]
                        1698 .L1115:
                        1699 --643: 				}
                        1700 --644: 				else
                        1701 --645: 				{
                        1702 --646: 				}
                        1703 --647: 				
                        1704 --648: 					if(FALSE == LED_Get_Brake_Level())				
                        1705 	jarl	_LED_Get_Brake_Level,lp
                        1705 <EXPANSION BEGIN>
                        1705 jarl22 _LED_Get_Brake_Level , lp 
000005be 80ff0000*      1705 <EXPANSION END>
000005c2 e051           1706 	cmp	zero,r10
000005c4 c205*          1707 	be	.L1118
                        1708 --649: 					{
                        1709 --650: 					}
                        1710 --651: 					else
                        1711 --652: 					{
                        1712 --653: 						ChmSendToneStep = CHM_SENDTONE_FADEIN;	
                        1713 --line653
                        1714 ..lin.D.3A.5CRenesas_Electronics.5CD1x_RGL.5Crgl_ghs_D1Lx_obj_V1.2E2.2E0.5Cvlib.5Capp.5Cgfx_apps.5Csimple_draw_d1l2.5Ctarget.5Cd1lx_mango_ghs.5Cobj.5Cchm.77::
                        1715 .LDWlin77:
000005c6 010a           1716 	mov	1,r1
000005c8 5d0f1900       1717 	st.b	r1,25[r29]
                        1718 .L1118:
000005cc 80071a01*      1719 	br	.L1108
                        1720 .L1119:
                        1721 --654: 					}  	
                        1722 --655:                 break;
                        1723 --656: 				
                        1724 --657:             case INDEX_WARN_IGNKEY_REPEATGONG:
                        1725 --658:             case INDEX_WARN_LIGHT_REPEATGONG:

                                                                      Page 31
                                                              C:\Users\YINGAO~1\AppData\Local\Temp\gh_00006a41.si
                        1726 --659: 				if (Chm_RptGongRefresh) 
                        1727 --line659
                        1728 ..lin.D.3A.5CRenesas_Electronics.5CD1x_RGL.5Crgl_ghs_D1Lx_obj_V1.2E2.2E0.5Cvlib.5Capp.5Cgfx_apps.5Csimple_draw_d1l2.5Ctarget.5Cd1lx_mango_ghs.5Cobj.5Cchm.78::
                        1729 .LDWlin78:
000005d0 9b0f0100       1730 	ld.bu	0[r27],r1
000005d4 e009           1731 	cmp	zero,r1
000005d6 a21d*          1732 	be	.L1122
                        1733 --660: 				{
                        1734 --661: 					Chm_RptGongRefresh =0;
                        1735 --line661
                        1736 ..lin.D.3A.5CRenesas_Electronics.5CD1x_RGL.5Crgl_ghs_D1Lx_obj_V1.2E2.2E0.5Cvlib.5Capp.5Cgfx_apps.5Csimple_draw_d1l2.5Ctarget.5Cd1lx_mango_ghs.5Cobj.5Cchm.79::
                        1737 .LDWlin79:
000005d8 5b070000       1738 	st.b	zero,0[r27]
                        1739 --662: 					
                        1740 --663: 					memcpy(&ChmInfo,&Chm_ToneMatrix[chmIndex], sizeof(ChmInfo_ST)); 	
000005dc 1a08           1741 	mov	r26,r1
000005de c30a           1742 	shl	3,r1
000005e0 2b0600000000*  1743 	mov	_Chm_ToneMatrix,r11
000005e6 cb09           1744 	add	r11,r1
000005e8 1930           1745 	mov	r25,r6
000005ea 0138           1746 	mov	r1,r7
000005ec 0842           1747 	mov	8,r8
                        1748 	jarl	_memcpy,lp
                        1748 <EXPANSION BEGIN>
                        1748 jarl22 _memcpy , lp 
000005ee 80ff0000*      1748 <EXPANSION END>
                        1749 --664: 					
                        1750 --665: 					gongCfgTime = DIAG_GetIgnOffSpelWarnPeriod();
                        1751 --line665
                        1752 ..lin.D.3A.5CRenesas_Electronics.5CD1x_RGL.5Crgl_ghs_D1Lx_obj_V1.2E2.2E0.5Cvlib.5Capp.5Cgfx_apps.5Csimple_draw_d1l2.5Ctarget.5Cd1lx_mango_ghs.5Cobj.5Cchm.80::
                        1753 .LDWlin80:
                        1754 	jarl	_DIAG_GetIgnOffSpelWarnPeriod,lp
                        1754 <EXPANSION BEGIN>
                        1754 jarl22 _DIAG_GetIgnOffSpelWarnPeriod , lp 
000005f2 80ff0000*      1754 <EXPANSION END>
000005f6 0ae0           1755 	mov	r10,r28
                        1756 --666: 					ChmInfo.OutCircle = (gongCfgTime+(gongCfgTime%2? 1:0))/2;
                        1757 --line666
                        1758 ..lin.D.3A.5CRenesas_Electronics.5CD1x_RGL.5Crgl_ghs_D1Lx_obj_V1.2E2.2E0.5Cvlib.5Capp.5Cgfx_apps.5Csimple_draw_d1l2.5Ctarget.5Cd1lx_mango_ghs.5Cobj.5Cchm.81::
                        1759 .LDWlin81:
000005f8 dc0e0100       1760 	andi	1,r28,r1
000005fc dc09           1761 	add	r28,r1
000005fe 0170           1762 	mov	r1,r14
00000600 9f72           1763 	shr	31,r14
00000602 ce09           1764 	add	r14,r1
00000604 a10a           1765 	sar	1,r1
00000606 7d0f0400       1766 	st.h	r1,4[r29]
                        1767 .L1122:
                        1768 --667: 				}
                        1769 --668: 				else
                        1770 --669: 				{
                        1771 --670: 				}
                        1772 --672: 				ChmSendToneStep = CHM_SENDTONE_FADEIN;
0000060a 010a           1773 	mov	1,r1
0000060c 5d0f1900       1774 	st.b	r1,25[r29]
00000610 b56d*          1775 	br	.L1108
                        1776 .L1123:
                        1777 --673:                 break;
                        1778 --674: 				
                        1779 --675:             case INDEX_WARN_SEATBELT_DRV_REPEATGONG:
                        1780 --676: 				if (Chm_RptGongRefresh) 

                                                                      Page 32
                                                              C:\Users\YINGAO~1\AppData\Local\Temp\gh_00006a41.si
                        1781 --line676
                        1782 ..lin.D.3A.5CRenesas_Electronics.5CD1x_RGL.5Crgl_ghs_D1Lx_obj_V1.2E2.2E0.5Cvlib.5Capp.5Cgfx_apps.5Csimple_draw_d1l2.5Ctarget.5Cd1lx_mango_ghs.5Cobj.5Cchm.82::
                        1783 .LDWlin82:
00000612 9b0f0100       1784 	ld.bu	0[r27],r1
00000616 e009           1785 	cmp	zero,r1
00000618 a21d*          1786 	be	.L1126
                        1787 --677: 				{
                        1788 --678: 					Chm_RptGongRefresh =0;
                        1789 --line678
                        1790 ..lin.D.3A.5CRenesas_Electronics.5CD1x_RGL.5Crgl_ghs_D1Lx_obj_V1.2E2.2E0.5Cvlib.5Capp.5Cgfx_apps.5Csimple_draw_d1l2.5Ctarget.5Cd1lx_mango_ghs.5Cobj.5Cchm.83::
                        1791 .LDWlin83:
0000061a 5b070000       1792 	st.b	zero,0[r27]
                        1793 --679: 					
                        1794 --680: 					memcpy(&ChmInfo,&Chm_ToneMatrix[chmIndex], sizeof(ChmInfo_ST)); 
0000061e 1a08           1795 	mov	r26,r1
00000620 c30a           1796 	shl	3,r1
00000622 2b0600000000*  1797 	mov	_Chm_ToneMatrix,r11
00000628 cb09           1798 	add	r11,r1
0000062a 1930           1799 	mov	r25,r6
0000062c 0138           1800 	mov	r1,r7
0000062e 0842           1801 	mov	8,r8
                        1802 	jarl	_memcpy,lp
                        1802 <EXPANSION BEGIN>
                        1802 jarl22 _memcpy , lp 
00000630 80ff0000*      1802 <EXPANSION END>
                        1803 --681: 					
                        1804 --682: 					gongCfgTime = DIAG_GetSBeltRemPeriod();
                        1805 --line682
                        1806 ..lin.D.3A.5CRenesas_Electronics.5CD1x_RGL.5Crgl_ghs_D1Lx_obj_V1.2E2.2E0.5Cvlib.5Capp.5Cgfx_apps.5Csimple_draw_d1l2.5Ctarget.5Cd1lx_mango_ghs.5Cobj.5Cchm.84::
                        1807 .LDWlin84:
                        1808 	jarl	_DIAG_GetSBeltRemPeriod,lp
                        1808 <EXPANSION BEGIN>
                        1808 jarl22 _DIAG_GetSBeltRemPeriod , lp 
00000634 80ff0000*      1808 <EXPANSION END>
00000638 0ae0           1809 	mov	r10,r28
                        1810 --683: 					ChmInfo.OutCircle = (gongCfgTime+(gongCfgTime%2? 1:0))/2;						
                        1811 --line683
                        1812 ..lin.D.3A.5CRenesas_Electronics.5CD1x_RGL.5Crgl_ghs_D1Lx_obj_V1.2E2.2E0.5Cvlib.5Capp.5Cgfx_apps.5Csimple_draw_d1l2.5Ctarget.5Cd1lx_mango_ghs.5Cobj.5Cchm.85::
                        1813 .LDWlin85:
0000063a dc0e0100       1814 	andi	1,r28,r1
0000063e dc09           1815 	add	r28,r1
00000640 0170           1816 	mov	r1,r14
00000642 9f72           1817 	shr	31,r14
00000644 ce09           1818 	add	r14,r1
00000646 a10a           1819 	sar	1,r1
00000648 7d0f0400       1820 	st.h	r1,4[r29]
                        1821 .L1126:
                        1822 --684: 				}
                        1823 --685: 				else
                        1824 --686: 				{
                        1825 --687: 				}
                        1826 --688: 					
                        1827 --689: 				if(FALSE == LED_GetLevel())				
                        1828 	jarl	_LED_GetLevel,lp
                        1828 <EXPANSION BEGIN>
                        1828 jarl22 _LED_GetLevel , lp 
0000064c 80ff0000*      1828 <EXPANSION END>
00000650 e051           1829 	cmp	zero,r10
00000652 c205*          1830 	be	.L1129
                        1831 --690: 				{
                        1832 --691: 				}

                                                                      Page 33
                                                              C:\Users\YINGAO~1\AppData\Local\Temp\gh_00006a41.si
                        1833 --692: 				else
                        1834 --693: 				{
                        1835 --695: 					ChmSendToneStep = CHM_SENDTONE_FADEIN;
                        1836 --line695
                        1837 ..lin.D.3A.5CRenesas_Electronics.5CD1x_RGL.5Crgl_ghs_D1Lx_obj_V1.2E2.2E0.5Cvlib.5Capp.5Cgfx_apps.5Csimple_draw_d1l2.5Ctarget.5Cd1lx_mango_ghs.5Cobj.5Cchm.86::
                        1838 .LDWlin86:
00000654 010a           1839 	mov	1,r1
00000656 5d0f1900       1840 	st.b	r1,25[r29]
                        1841 .L1129:
0000065a e545*          1842 	br	.L1108
                        1843 .L1130:
                        1844 --696: 				}
                        1845 --697:                 break;
                        1846 --698: 				 
                        1847 --699:              case INDEX_WARN_EPBSTS_REPEAT_GONG_HALFHZ:
                        1848 --700: 				 if (Chm_RptGongRefresh) 
                        1849 --line700
                        1850 ..lin.D.3A.5CRenesas_Electronics.5CD1x_RGL.5Crgl_ghs_D1Lx_obj_V1.2E2.2E0.5Cvlib.5Capp.5Cgfx_apps.5Csimple_draw_d1l2.5Ctarget.5Cd1lx_mango_ghs.5Cobj.5Cchm.87::
                        1851 .LDWlin87:
0000065c 9b0f0100       1852 	ld.bu	0[r27],r1
00000660 e009           1853 	cmp	zero,r1
00000662 a21d*          1854 	be	.L1133
                        1855 --701: 				 {
                        1856 --702: 					 Chm_RptGongRefresh =0;
                        1857 --line702
                        1858 ..lin.D.3A.5CRenesas_Electronics.5CD1x_RGL.5Crgl_ghs_D1Lx_obj_V1.2E2.2E0.5Cvlib.5Capp.5Cgfx_apps.5Csimple_draw_d1l2.5Ctarget.5Cd1lx_mango_ghs.5Cobj.5Cchm.88::
                        1859 .LDWlin88:
00000664 5b070000       1860 	st.b	zero,0[r27]
                        1861 --703: 					 
                        1862 --704: 					 memcpy(&ChmInfo,&Chm_ToneMatrix[chmIndex], sizeof(ChmInfo_ST));	 
00000668 1a08           1863 	mov	r26,r1
0000066a c30a           1864 	shl	3,r1
0000066c 2b0600000000*  1865 	mov	_Chm_ToneMatrix,r11
00000672 cb09           1866 	add	r11,r1
00000674 1930           1867 	mov	r25,r6
00000676 0138           1868 	mov	r1,r7
00000678 0842           1869 	mov	8,r8
                        1870 	jarl	_memcpy,lp
                        1870 <EXPANSION BEGIN>
                        1870 jarl22 _memcpy , lp 
0000067a 80ff0000*      1870 <EXPANSION END>
                        1871 --705: 					 
                        1872 --706: 					 gongCfgTime = DIAG_GetEPBConstantGongPeriod();
                        1873 --line706
                        1874 ..lin.D.3A.5CRenesas_Electronics.5CD1x_RGL.5Crgl_ghs_D1Lx_obj_V1.2E2.2E0.5Cvlib.5Capp.5Cgfx_apps.5Csimple_draw_d1l2.5Ctarget.5Cd1lx_mango_ghs.5Cobj.5Cchm.89::
                        1875 .LDWlin89:
                        1876 	jarl	_DIAG_GetEPBConstantGongPeriod,lp
                        1876 <EXPANSION BEGIN>
                        1876 jarl22 _DIAG_GetEPBConstantGongPeriod , lp 
0000067e 80ff0000*      1876 <EXPANSION END>
00000682 0ae0           1877 	mov	r10,r28
                        1878 --707: 					 ChmInfo.OutCircle = (gongCfgTime+(gongCfgTime%2? 1:0))/2;
                        1879 --line707
                        1880 ..lin.D.3A.5CRenesas_Electronics.5CD1x_RGL.5Crgl_ghs_D1Lx_obj_V1.2E2.2E0.5Cvlib.5Capp.5Cgfx_apps.5Csimple_draw_d1l2.5Ctarget.5Cd1lx_mango_ghs.5Cobj.5Cchm.90::
                        1881 .LDWlin90:
00000684 dc0e0100       1882 	andi	1,r28,r1
00000688 dc09           1883 	add	r28,r1
0000068a 0170           1884 	mov	r1,r14
0000068c 9f72           1885 	shr	31,r14
0000068e ce09           1886 	add	r14,r1
00000690 a10a           1887 	sar	1,r1

                                                                      Page 34
                                                              C:\Users\YINGAO~1\AppData\Local\Temp\gh_00006a41.si
00000692 7d0f0400       1888 	st.h	r1,4[r29]
                        1889 .L1133:
                        1890 --708: 				 }
                        1891 --709: 				 else
                        1892 --710: 				 {
                        1893 --711: 				 }
                        1894 --713: 				ChmSendToneStep = CHM_SENDTONE_FADEIN;
00000696 010a           1895 	mov	1,r1
00000698 5d0f1900       1896 	st.b	r1,25[r29]
0000069c d525*          1897 	br	.L1108
                        1898 .L1134:
                        1899 --714:                 break;
                        1900 --715: 			case INDEX_WARN_DOORANDLID_DOOR_REPEATGONG_HALFHZ:/*EVENT_DOORANDLID_DOOR_WARN_GONG*/ 
                        1901 --716: 			case INDEX_WARN_DOORANDLID_LDSP_REPEATGONG_HALFHZ:
                        1902 --717: 			case INDEX_WARN_DOORANDLID_BONNET_REPEATGONG_HALFHZ:
                        1903 --718: 			case INDEX_WARN_SEATBELT_LAMPON_REPEATGONG:/*EVENT_SEATBELT_LAMPON_WARN_REPEATGONG*/	
                        1904 --719: 				 if (Chm_RptGongRefresh) 
                        1905 --line719
                        1906 ..lin.D.3A.5CRenesas_Electronics.5CD1x_RGL.5Crgl_ghs_D1Lx_obj_V1.2E2.2E0.5Cvlib.5Capp.5Cgfx_apps.5Csimple_draw_d1l2.5Ctarget.5Cd1lx_mango_ghs.5Cobj.5Cchm.91::
                        1907 .LDWlin91:
0000069e 9b0f0100       1908 	ld.bu	0[r27],r1
000006a2 e009           1909 	cmp	zero,r1
000006a4 e20d*          1910 	be	.L1137
                        1911 --720: 				 {
                        1912 --721: 					 Chm_RptGongRefresh =0;
                        1913 --line721
                        1914 ..lin.D.3A.5CRenesas_Electronics.5CD1x_RGL.5Crgl_ghs_D1Lx_obj_V1.2E2.2E0.5Cvlib.5Capp.5Cgfx_apps.5Csimple_draw_d1l2.5Ctarget.5Cd1lx_mango_ghs.5Cobj.5Cchm.92::
                        1915 .LDWlin92:
000006a6 5b070000       1916 	st.b	zero,0[r27]
                        1917 --722: 					 memcpy(&ChmInfo,&Chm_ToneMatrix[chmIndex], sizeof(ChmInfo_ST));	 
000006aa 1a08           1918 	mov	r26,r1
000006ac c30a           1919 	shl	3,r1
000006ae 2b0600000000*  1920 	mov	_Chm_ToneMatrix,r11
000006b4 cb09           1921 	add	r11,r1
000006b6 1930           1922 	mov	r25,r6
000006b8 0138           1923 	mov	r1,r7
000006ba 0842           1924 	mov	8,r8
                        1925 	jarl	_memcpy,lp
                        1925 <EXPANSION BEGIN>
                        1925 jarl22 _memcpy , lp 
000006bc 80ff0000*      1925 <EXPANSION END>
                        1926 .L1137:
                        1927 --723: 				 }
                        1928 --724: 				 else
                        1929 --725: 				 {
                        1930 --726: 				 }
                        1931 --728: 				ChmSendToneStep = CHM_SENDTONE_FADEIN;
                        1932 --line728
                        1933 ..lin.D.3A.5CRenesas_Electronics.5CD1x_RGL.5Crgl_ghs_D1Lx_obj_V1.2E2.2E0.5Cvlib.5Capp.5Cgfx_apps.5Csimple_draw_d1l2.5Ctarget.5Cd1lx_mango_ghs.5Cobj.5Cchm.93::
                        1934 .LDWlin93:
000006c0 010a           1935 	mov	1,r1
000006c2 5d0f1900       1936 	st.b	r1,25[r29]
000006c6 8515*          1937 	br	.L1108
                        1938 .L1138:
                        1939 --729: 				break;
                        1940 --730: 				
                        1941 --731:             default:
                        1942 --732: 	    		memcpy(&ChmInfo,&Chm_ToneMatrix[chmIndex], sizeof(ChmInfo_ST));		
                        1943 --line732
                        1944 ..lin.D.3A.5CRenesas_Electronics.5CD1x_RGL.5Crgl_ghs_D1Lx_obj_V1.2E2.2E0.5Cvlib.5Capp.5Cgfx_apps.5Csimple_draw_d1l2.5Ctarget.5Cd1lx_mango_ghs.5Cobj.5Cchm.94::
                        1945 .LDWlin94:

                                                                      Page 35
                                                              C:\Users\YINGAO~1\AppData\Local\Temp\gh_00006a41.si
000006c8 1a08           1946 	mov	r26,r1
000006ca c30a           1947 	shl	3,r1
000006cc 2b0600000000*  1948 	mov	_Chm_ToneMatrix,r11
000006d2 cb09           1949 	add	r11,r1
000006d4 1930           1950 	mov	r25,r6
000006d6 0138           1951 	mov	r1,r7
000006d8 0842           1952 	mov	8,r8
                        1953 	jarl	_memcpy,lp
                        1953 <EXPANSION BEGIN>
                        1953 jarl22 _memcpy , lp 
000006da 80ff0000*      1953 <EXPANSION END>
                        1954 --733: 				ChmSendToneStep = CHM_SENDTONE_FADEIN;
                        1955 --line733
                        1956 ..lin.D.3A.5CRenesas_Electronics.5CD1x_RGL.5Crgl_ghs_D1Lx_obj_V1.2E2.2E0.5Cvlib.5Capp.5Cgfx_apps.5Csimple_draw_d1l2.5Ctarget.5Cd1lx_mango_ghs.5Cobj.5Cchm.95::
                        1957 .LDWlin95:
000006de 010a           1958 	mov	1,r1
000006e0 5d0f1900       1959 	st.b	r1,25[r29]
000006e4 0000           1960 	nop
                        1961 .L1108:
                        1962 --734:                 break;                                        
                        1963 --735:     	}
                        1964 --736: 	}
                        1965 --737: }
000006e6 0000           1966 	nop
                        1967 --	    .ef
                        1968 .LDW92:
000006e8 4606ff70       1969 	dispose	3,{r25,r26,r27,r28,r29,r31},[lp]
                        1970 	.type	_chm_CalChmEvt_OutCircle,@function
                        1971 	.size	_chm_CalChmEvt_OutCircle,.-_chm_CalChmEvt_OutCircle
                        1972 	.type	_chm_CalChmEvt_OutCircle..D.3A.5CRenesas_Electronics.5CD1x_RGL.5Crgl_ghs_D1Lx_obj_V1.2E2.2E0.5Cvlib.5Capp.5Cgfx_apps.5Csimple_draw_d1l2.5Ctarget.5Cd1lx_mango_ghs.5Cobj.5Cchm.,@function
                        1973 	.size	_chm_CalChmEvt_OutCircle..D.3A.5CRenesas_Electronics.5CD1x_RGL.5Crgl_ghs_D1Lx_obj_V1.2E2.2E0.5Cvlib.5Capp.5Cgfx_apps.5Csimple_draw_d1l2.5Ctarget.5Cd1lx_mango_ghs.5Cobj.5Cchm.,.-_chm_CalChmEvt_OutCircle..D.3A.5CRenesas_Electronics.5CD1x_RGL.5Crgl_ghs_D1Lx_obj_V1.2E2.2E0.5Cvlib.5Capp.5Cgfx_apps.5Csimple_draw_d1l2.5Ctarget.5Cd1lx_mango_ghs.5Cobj.5Cchm.
                        1974 	.align	2
                        1975 .LDW03:
                        1976 --_state	2[sp]	local
                        1977 --_gongCfgTime	r28	local
                        1978 
                        1979 --_chmIndex	r26	param
                        1980 --_isEnd	3[sp]	param
                        1981 
                        1982 	.data
                        1983 	.text
                        1984 
                        1985 
                        1986 --739: /***************************************************
                        1987 --740: * Function: CHM_SendNetSignal_5ms
                        1988 --741: * Description: chm net signal sendout
                        1989 --742: * Parameters: none
                        1990 --743: * Returns:none
                        1991 --744: *
                        1992 --745: * $Create & Verlog:$
                        1993 --746: * Author:xs  Date:2017-6-23   Version:V2.0
                        1994 --747: * $log:
                        1995 --748: ****************************************************/
                        1996 --749: void CHM_SendNetSignal_5ms(void)
                        1997 	.align	2
                        1998 	.align	2
                        1999 	.global	_CHM_SendNetSignal_5ms
                        2000 _CHM_SendNetSignal_5ms:
000006ec 8007e100       2001 	prepare	{r28,r29,r31},0
000006f0 3c0600000000*  2002 	mov	_ChmSendToneInfo,r28
000006f6 1ceefeff       2003 	addi	-2,r28,r29

                                                                      Page 36
                                                              C:\Users\YINGAO~1\AppData\Local\Temp\gh_00006a41.si
                        2004 --	    .bf
                        2005 .LDW13:
                        2006 --750: {
                        2007 --751: 	v_wr_8(ChmCmdSndTone_handle, ChmSendToneInfo.NetCmdTone);
000006fa 9d3f0300       2008 	ld.bu	2[r29],r7
000006fe 260654283f00   2009 	mov	4139092,r6
                        2010 	jarl	_v_wr_8,lp
                        2010 <EXPANSION BEGIN>
                        2010 jarl22 _v_wr_8 , lp 
00000704 80ff0000*      2010 <EXPANSION END>
                        2011 --752: 	v_wr_8(ChmCmdSndCndcPrd_handle, ChmSendToneInfo.NetCmdPeriod);
                        2012 --line752
                        2013 ..lin.D.3A.5CRenesas_Electronics.5CD1x_RGL.5Crgl_ghs_D1Lx_obj_V1.2E2.2E0.5Cvlib.5Capp.5Cgfx_apps.5Csimple_draw_d1l2.5Ctarget.5Cd1lx_mango_ghs.5Cobj.5Cchm.96::
                        2014 .LDWlin96:
00000708 bd3f0300       2015 	ld.bu	3[r29],r7
0000070c 26067c273f00   2016 	mov	4138876,r6
                        2017 	jarl	_v_wr_8,lp
                        2017 <EXPANSION BEGIN>
                        2017 jarl22 _v_wr_8 , lp 
00000712 80ff0000*      2017 <EXPANSION END>
                        2018 --753: 	v_wr_8(ChmCmdSndDutyCyc_handle, ChmSendToneInfo.NetCmdDuty);
                        2019 --line753
                        2020 ..lin.D.3A.5CRenesas_Electronics.5CD1x_RGL.5Crgl_ghs_D1Lx_obj_V1.2E2.2E0.5Cvlib.5Capp.5Cgfx_apps.5Csimple_draw_d1l2.5Ctarget.5Cd1lx_mango_ghs.5Cobj.5Cchm.97::
                        2021 .LDWlin97:
00000716 9d3f0500       2022 	ld.bu	4[r29],r7
0000071a 2606a0273f00   2023 	mov	4138912,r6
                        2024 	jarl	_v_wr_8,lp
                        2024 <EXPANSION BEGIN>
                        2024 jarl22 _v_wr_8 , lp 
00000720 80ff0000*      2024 <EXPANSION END>
                        2025 --755: 	v_wr_8(ChmCmdSndLoctnFL_handle, ChmSendToneInfo.NetCmdLoctnFL);
                        2026 --line755
                        2027 ..lin.D.3A.5CRenesas_Electronics.5CD1x_RGL.5Crgl_ghs_D1Lx_obj_V1.2E2.2E0.5Cvlib.5Capp.5Cgfx_apps.5Csimple_draw_d1l2.5Ctarget.5Cd1lx_mango_ghs.5Cobj.5Cchm.98::
                        2028 .LDWlin98:
00000724 bd3f0500       2029 	ld.bu	5[r29],r7
00000728 2606c4273f00   2030 	mov	4138948,r6
                        2031 	jarl	_v_wr_8,lp
                        2031 <EXPANSION BEGIN>
                        2031 jarl22 _v_wr_8 , lp 
0000072e 80ff0000*      2031 <EXPANSION END>
                        2032 --756: 	v_wr_8(ChmCmdSndLoctnFR_handle, ChmSendToneInfo.NetCmdLoctnFR);
                        2033 --line756
                        2034 ..lin.D.3A.5CRenesas_Electronics.5CD1x_RGL.5Crgl_ghs_D1Lx_obj_V1.2E2.2E0.5Cvlib.5Capp.5Cgfx_apps.5Csimple_draw_d1l2.5Ctarget.5Cd1lx_mango_ghs.5Cobj.5Cchm.99::
                        2035 .LDWlin99:
00000732 9d3f0700       2036 	ld.bu	6[r29],r7
00000736 2606e8273f00   2037 	mov	4138984,r6
                        2038 	jarl	_v_wr_8,lp
                        2038 <EXPANSION BEGIN>
                        2038 jarl22 _v_wr_8 , lp 
0000073c 80ff0000*      2038 <EXPANSION END>
                        2039 --757: 	v_wr_8(ChmCmdSndLoctnRL_handle, ChmSendToneInfo.NetCmdLoctnRL);
                        2040 --line757
                        2041 ..lin.D.3A.5CRenesas_Electronics.5CD1x_RGL.5Crgl_ghs_D1Lx_obj_V1.2E2.2E0.5Cvlib.5Capp.5Cgfx_apps.5Csimple_draw_d1l2.5Ctarget.5Cd1lx_mango_ghs.5Cobj.5Cchm.100::
                        2042 .LDWlin100:
00000740 bd3f0700       2043 	ld.bu	7[r29],r7
00000744 26060c283f00   2044 	mov	4139020,r6
                        2045 	jarl	_v_wr_8,lp
                        2045 <EXPANSION BEGIN>
                        2045 jarl22 _v_wr_8 , lp 
0000074a 80ff0000*      2045 <EXPANSION END>
                        2046 --758: 	v_wr_8(ChmCmdSndLoctnRR_handle, ChmSendToneInfo.NetCmdLoctnRR);

                                                                      Page 37
                                                              C:\Users\YINGAO~1\AppData\Local\Temp\gh_00006a41.si
                        2047 --line758
                        2048 ..lin.D.3A.5CRenesas_Electronics.5CD1x_RGL.5Crgl_ghs_D1Lx_obj_V1.2E2.2E0.5Cvlib.5Capp.5Cgfx_apps.5Csimple_draw_d1l2.5Ctarget.5Cd1lx_mango_ghs.5Cobj.5Cchm.101::
                        2049 .LDWlin101:
0000074e 9d3f0900       2050 	ld.bu	8[r29],r7
00000752 260630283f00   2051 	mov	4139056,r6
                        2052 	jarl	_v_wr_8,lp
                        2052 <EXPANSION BEGIN>
                        2052 jarl22 _v_wr_8 , lp 
00000758 80ff0000*      2052 <EXPANSION END>
                        2053 --759: }
                        2054 --line759
                        2055 ..lin.D.3A.5CRenesas_Electronics.5CD1x_RGL.5Crgl_ghs_D1Lx_obj_V1.2E2.2E0.5Cvlib.5Capp.5Cgfx_apps.5Csimple_draw_d1l2.5Ctarget.5Cd1lx_mango_ghs.5Cobj.5Cchm.102::
                        2056 .LDWlin102:
0000075c 0000           2057 	nop
                        2058 --	    .ef
                        2059 .LDW23:
0000075e 4006ff00       2060 	dispose	0,{r28,r29,r31},[lp]
                        2061 	.type	_CHM_SendNetSignal_5ms,@function
                        2062 	.size	_CHM_SendNetSignal_5ms,.-_CHM_SendNetSignal_5ms
                        2063 	.align	2
                        2064 .LDW33:
                        2065 
                        2066 	.data
                        2067 	.text
                        2068 
                        2069 
                        2070 --762: /***************************************************
                        2071 --763: * Function: CHM_GetChmEvtFinishStatus
                        2072 --764: * Description: chm Get event is finished or not
                        2073 --765: * Parameters: index: event index
                        2074 --766: * Returns:
                        2075 --767: 	RET_FAIL :chm init fail
                        2076 --768: 	RET_INVALID: parameter is outof rang
                        2077 --769: 	RET_OK: SUCCESS
                        2078 --770: *
                        2079 --771: * $Create & Verlog:$
                        2080 --772: * Author:xs  Date:2017-6-23   Version:V2.0
                        2081 --773: * $log:
                        2082 --774: ****************************************************/
                        2083 --775: U8 CHM_GetChmEvtFinishStatus(U8 index, PU8 psts)
                        2084 	.align	2
                        2085 	.align	2
                        2086 	.global	_CHM_GetChmEvtFinishStatus
                        2087 _CHM_GetChmEvtFinishStatus:
00000762 c60eff00       2088 	andi	255,r6,r1
00000766 07f0           2089 	mov	r7,ep
                        2090 --	    .bf
                        2091 .LDW43:
                        2092 --776: {
                        2093 --777:      if (FALSE == Chm_InitStatus)
00000768 2e0600000000*  2094 	mov	_Chm_InitStatus,r14
0000076e 8e770100       2095 	ld.bu	0[r14],r14
00000772 e071           2096 	cmp	zero,r14
00000774 ba05*          2097 	bne	.L1496
                        2098 --778:     {            
                        2099 --779:         return RET_FAIL;
                        2100 --line779
                        2101 ..lin.D.3A.5CRenesas_Electronics.5CD1x_RGL.5Crgl_ghs_D1Lx_obj_V1.2E2.2E0.5Cvlib.5Capp.5Cgfx_apps.5Csimple_draw_d1l2.5Ctarget.5Cd1lx_mango_ghs.5Cobj.5Cchm.103::
                        2102 .LDWlin103:
00000776 0052           2103 	mov	0,r10
00000778 e50d*          2104 	br	.L1494

                                                                      Page 38
                                                              C:\Users\YINGAO~1\AppData\Local\Temp\gh_00006a41.si
                        2105 .L1496:
                        2106 --780:     }
                        2107 --781:     else if (INDEX_GJ_ALL <= index)
                        2108 --line781
                        2109 ..lin.D.3A.5CRenesas_Electronics.5CD1x_RGL.5Crgl_ghs_D1Lx_obj_V1.2E2.2E0.5Cvlib.5Capp.5Cgfx_apps.5Csimple_draw_d1l2.5Ctarget.5Cd1lx_mango_ghs.5Cobj.5Cchm.104::
                        2110 .LDWlin104:
0000077a 01069cff       2111 	addi	-100,r1,zero
0000077e b905*          2112 	bnl	.L1500
                        2113 --782:     {            
                        2114 --783:         return RET_INVALID;
                        2115 --line783
                        2116 ..lin.D.3A.5CRenesas_Electronics.5CD1x_RGL.5Crgl_ghs_D1Lx_obj_V1.2E2.2E0.5Cvlib.5Capp.5Cgfx_apps.5Csimple_draw_d1l2.5Ctarget.5Cd1lx_mango_ghs.5Cobj.5Cchm.105::
                        2117 .LDWlin105:
00000780 0252           2118 	mov	2,r10
00000782 950d*          2119 	br	.L1494
                        2120 .L1500:
                        2121 --784:     }
                        2122 --785:     else
                        2123 --786:     {
                        2124 --787:         *psts = ChmJudgeFinishFlag[index];
                        2125 --line787
                        2126 ..lin.D.3A.5CRenesas_Electronics.5CD1x_RGL.5Crgl_ghs_D1Lx_obj_V1.2E2.2E0.5Cvlib.5Capp.5Cgfx_apps.5Csimple_draw_d1l2.5Ctarget.5Cd1lx_mango_ghs.5Cobj.5Cchm.106::
                        2127 .LDWlin106:
00000784 2e0600000000*  2128 	mov	_ChmJudgeFinishFlag,r14
0000078a c171           2129 	add	r1,r14
0000078c 8e770100       2130 	ld.bu	0[r14],r14
00000790 8073           2131 	sst.b	r14,0[ep]
                        2132 --788:         return RET_OK;
00000792 0152           2133 	mov	1,r10
                        2134 .L1494:
                        2135 --	    .ef
                        2136 .LDW53:
00000794 7f00           2137 	jmp	[lp]
                        2138 	.type	_CHM_GetChmEvtFinishStatus,@function
                        2139 	.size	_CHM_GetChmEvtFinishStatus,.-_CHM_GetChmEvtFinishStatus
                        2140 	.align	2
                        2141 .LDW63:
                        2142 
                        2143 --_index	r1	param
                        2144 --_psts	ep	param
                        2145 
                        2146 	.data
                        2147 	.text
                        2148 
                        2149 --789:     }	    	
                        2150 --790:     
                        2151 --791: }
                        2152 
                        2153 --794: /***************************************************
                        2154 --795: * Function: CHM_SetJudgeIndex
                        2155 --796: * Description: chm Get event is finished or not
                        2156 --797: * Parameters: index: event index
                        2157 --798: * Returns:
                        2158 --799: 	RET_FAIL :chm init fail
                        2159 --800: 	RET_INVALID: parameter is outof rang
                        2160 --801: 	RET_OK: SUCCESS
                        2161 --802: *
                        2162 --803: * $Create & Verlog:$
                        2163 --804: * Author:xs  Date:2017-6-23   Version:V2.0
                        2164 --805: * $log:
                        2165 --806: ****************************************************/

                                                                      Page 39
                                                              C:\Users\YINGAO~1\AppData\Local\Temp\gh_00006a41.si
                        2166 --807: U8 CHM_SetJudgeIndex(U8 index)
                        2167 	.align	2
                        2168 	.align	2
                        2169 	.global	_CHM_SetJudgeIndex
                        2170 _CHM_SetJudgeIndex:
00000796 c60eff00       2171 	andi	255,r6,r1
                        2172 --	    .bf
                        2173 .LDW73:
                        2174 --808: {
                        2175 --809:    if (FALSE == Chm_InitStatus)
0000079a 2e0600000000*  2176 	mov	_Chm_InitStatus,r14
000007a0 8e770100       2177 	ld.bu	0[r14],r14
000007a4 e071           2178 	cmp	zero,r14
000007a6 ba05*          2179 	bne	.L1550
                        2180 --810:     {            
                        2181 --811:         return RET_FAIL;
                        2182 --line811
                        2183 ..lin.D.3A.5CRenesas_Electronics.5CD1x_RGL.5Crgl_ghs_D1Lx_obj_V1.2E2.2E0.5Cvlib.5Capp.5Cgfx_apps.5Csimple_draw_d1l2.5Ctarget.5Cd1lx_mango_ghs.5Cobj.5Cchm.107::
                        2184 .LDWlin107:
000007a8 0052           2185 	mov	0,r10
000007aa c50d*          2186 	br	.L1548
                        2187 .L1550:
                        2188 --812:     }
                        2189 --813:     else if (INDEX_GJ_ALL <= index)
                        2190 --line813
                        2191 ..lin.D.3A.5CRenesas_Electronics.5CD1x_RGL.5Crgl_ghs_D1Lx_obj_V1.2E2.2E0.5Cvlib.5Capp.5Cgfx_apps.5Csimple_draw_d1l2.5Ctarget.5Cd1lx_mango_ghs.5Cobj.5Cchm.108::
                        2192 .LDWlin108:
000007ac 01069cff       2193 	addi	-100,r1,zero
000007b0 b905*          2194 	bnl	.L1554
                        2195 --814:     {            
                        2196 --815:         return RET_INVALID;
                        2197 --line815
                        2198 ..lin.D.3A.5CRenesas_Electronics.5CD1x_RGL.5Crgl_ghs_D1Lx_obj_V1.2E2.2E0.5Cvlib.5Capp.5Cgfx_apps.5Csimple_draw_d1l2.5Ctarget.5Cd1lx_mango_ghs.5Cobj.5Cchm.109::
                        2199 .LDWlin109:
000007b2 0252           2200 	mov	2,r10
000007b4 f505*          2201 	br	.L1548
                        2202 .L1554:
                        2203 --816:     }
                        2204 --817:     else
                        2205 --818:     {
                        2206 --819:         ChmJudgeIndex = index;        
                        2207 --line819
                        2208 ..lin.D.3A.5CRenesas_Electronics.5CD1x_RGL.5Crgl_ghs_D1Lx_obj_V1.2E2.2E0.5Cvlib.5Capp.5Cgfx_apps.5Csimple_draw_d1l2.5Ctarget.5Cd1lx_mango_ghs.5Cobj.5Cchm.110::
                        2209 .LDWlin110:
000007b6 2b0600000000*  2210 	mov	_ChmJudgeIndex,r11
000007bc 6b0f0100       2211 	st.w	r1,0[r11]
                        2212 --820:         return RET_OK;	
000007c0 0152           2213 	mov	1,r10
                        2214 .L1548:
                        2215 --	    .ef
                        2216 .LDW83:
000007c2 7f00           2217 	jmp	[lp]
                        2218 	.type	_CHM_SetJudgeIndex,@function
                        2219 	.size	_CHM_SetJudgeIndex,.-_CHM_SetJudgeIndex
                        2220 	.align	2
                        2221 .LDW93:
                        2222 
                        2223 --_index	r1	param
                        2224 
                        2225 	.data
                        2226 	.text

                                                                      Page 40
                                                              C:\Users\YINGAO~1\AppData\Local\Temp\gh_00006a41.si
                        2227 
                        2228 --821:     }	    	
                        2229 --823: }
                        2230 
                        2231 --825: /***************************************************
                        2232 --826: * Function: CHM_ChmSignalOutPut_5ms
                        2233 --827: * Description: chm Get event is finished or not
                        2234 --828: * Parameters: none
                        2235 --829: * Returns:none
                        2236 --830: *
                        2237 --831: * $Create & Verlog:$
                        2238 --832: * Author:xs  Date:2017-6-23   Version:V2.0
                        2239 --833: * $log:
                        2240 --834: ****************************************************/
                        2241 --835: void CHM_SignalOutPutProcess_5ms(void)
                        2242 	.align	2
                        2243 	.align	2
                        2244 	.global	_CHM_SignalOutPutProcess_5ms
                        2245 _CHM_SignalOutPutProcess_5ms:
000007c4 8207e170       2246 	prepare	{r25,r26,r27,r28,r29,r31},1
000007c8 3d0600000000*  2247 	mov	_ChmInfo,r29
000007ce 3dd61a00       2248 	movea	26,r29,r26
000007d2 3de60800       2249 	movea	8,r29,r28
000007d6 3dce1900       2250 	movea	25,r29,r25
                        2251 --	    .bf
                        2252 .LDW04:
                        2253 --836: {
                        2254 --837: 	U8 res = 0;
000007da 00da           2255 	mov	0,r27
                        2256 --838: 	
                        2257 --839: 	if (1 < ChmPrmInfo.Duration) 
000007dc fd0f0f00       2258 	ld.hu	14[r29],r1
000007e0 610a           2259 	cmp	1,r1
000007e2 830d*          2260 	bnh	.L1614
                        2261 --840: 	{
                        2262 --841: 		ChmPrmInfo.Duration--;		
                        2263 --line841
                        2264 ..lin.D.3A.5CRenesas_Electronics.5CD1x_RGL.5Crgl_ghs_D1Lx_obj_V1.2E2.2E0.5Cvlib.5Capp.5Cgfx_apps.5Csimple_draw_d1l2.5Ctarget.5Cd1lx_mango_ghs.5Cobj.5Cchm.111::
                        2265 .LDWlin111:
000007e4 fd0f0f00       2266 	ld.hu	14[r29],r1
000007e8 5f0a           2267 	add	-1,r1
000007ea 7d0f0e00       2268 	st.h	r1,14[r29]
000007ee 80070a01*      2269 	br	.L1616
                        2270 .L1614:
                        2271 --842: 	}
                        2272 --843: 	else
                        2273 --844: 	{
                        2274 --845: 		switch (ChmSendToneStep) 
                        2275 --line845
                        2276 ..lin.D.3A.5CRenesas_Electronics.5CD1x_RGL.5Crgl_ghs_D1Lx_obj_V1.2E2.2E0.5Cvlib.5Capp.5Cgfx_apps.5Csimple_draw_d1l2.5Ctarget.5Cd1lx_mango_ghs.5Cobj.5Cchm.112::
                        2277 .LDWlin112:
000007f2 bd0f1900       2278 	ld.bu	25[r29],r1
000007f6 e009           2279 	cmp	zero,r1
000007f8 c26d*          2280 	be	.L1645
000007fa 650a           2281 	cmp	5,r1
000007fc eb7d*          2282 	bh	.L1616
000007fe 995d*          2283 	bnl	.L1639
                        2284 --846: 		{
                        2285 --847: 			case CHM_SENDTONE_FADEIN:
                        2286 --848: 			case CHM_SENDTONE_FREQ1:
                        2287 --849: 			case CHM_SENDTONE_FREQ2:

                                                                      Page 41
                                                              C:\Users\YINGAO~1\AppData\Local\Temp\gh_00006a41.si
                        2288 --850: 			case CHM_SENDTONE_FADEOUT:
                        2289 --851: 				memcpy(&ChmPrmInfo, &ChmInfo.pPrmList[ChmSendToneStep-1], sizeof(ChmPrm_ST));	
                        2290 --line851
                        2291 ..lin.D.3A.5CRenesas_Electronics.5CD1x_RGL.5Crgl_ghs_D1Lx_obj_V1.2E2.2E0.5Cvlib.5Capp.5Cgfx_apps.5Csimple_draw_d1l2.5Ctarget.5Cd1lx_mango_ghs.5Cobj.5Cchm.113::
                        2292 .LDWlin113:
00000800 bd0f1900       2293 	ld.bu	25[r29],r1
00000804 1c30           2294 	mov	r28,r6
00000806 3d770100       2295 	ld.w	0[r29],r14
0000080a 0842           2296 	mov	8,r8
0000080c 5f0a           2297 	add	-1,r1
0000080e c30a           2298 	shl	3,r1
00000810 ce09           2299 	add	r14,r1
00000812 0138           2300 	mov	r1,r7
                        2301 	jarl	_memcpy,lp
                        2301 <EXPANSION BEGIN>
                        2301 jarl22 _memcpy , lp 
00000814 80ff0000*      2301 <EXPANSION END>
                        2302 --853:                 ChmSendToneStep ++;
                        2303 --line853
                        2304 ..lin.D.3A.5CRenesas_Electronics.5CD1x_RGL.5Crgl_ghs_D1Lx_obj_V1.2E2.2E0.5Cvlib.5Capp.5Cgfx_apps.5Csimple_draw_d1l2.5Ctarget.5Cd1lx_mango_ghs.5Cobj.5Cchm.114::
                        2305 .LDWlin114:
00000818 bd0f1900       2306 	ld.bu	25[r29],r1
0000081c 410a           2307 	add	1,r1
0000081e 5d0f1900       2308 	st.b	r1,25[r29]
                        2309 --854: 				if (0 <= ChmPrmInfo.Duration) 	
00000822 0000           2310 	nop
                        2311 --855:                 {
                        2312 --856: 					ChmSendToneInfo.NetCmdTone   = ChmPrmInfo.Tone;
00000824 9d0f0900       2313 	ld.bu	8[r29],r1
00000828 5d0f1a00       2314 	st.b	r1,26[r29]
                        2315 --857: 					ChmSendToneInfo.NetCmdDuty   = ChmPrmInfo.Duty;
0000082c 9d0f0d00       2316 	ld.bu	12[r29],r1
00000830 5d0f1c00       2317 	st.b	r1,28[r29]
                        2318 --858: 					ChmSendToneInfo.NetCmdPeriod = ChmPrmInfo.Frequency;
00000834 fd0f0b00       2319 	ld.hu	10[r29],r1
00000838 5d0f1b00       2320 	st.b	r1,27[r29]
                        2321 --860:     				ChmSendToneInfo.NetCmdLoctnRL = FALSE;
0000083c 5d071f00       2322 	st.b	zero,31[r29]
                        2323 --861:     				ChmSendToneInfo.NetCmdLoctnRR = FALSE;
00000840 5d072000       2324 	st.b	zero,32[r29]
                        2325 --862: 					
                        2326 --863: 					switch (ChmPrmInfo.Tone) 
00000844 9d0f0900       2327 	ld.bu	8[r29],r1
00000848 620a           2328 	cmp	2,r1
0000084a 9a15*          2329 	bne	.L1628
                        2330 --864: 					{
                        2331 --865: 						case OUT_PDC_TONE:
                        2332 --866: 							if (DIAG_GetPDCEnable())
                        2333 --line866
                        2334 ..lin.D.3A.5CRenesas_Electronics.5CD1x_RGL.5Crgl_ghs_D1Lx_obj_V1.2E2.2E0.5Cvlib.5Capp.5Cgfx_apps.5Csimple_draw_d1l2.5Ctarget.5Cd1lx_mango_ghs.5Cobj.5Cchm.115::
                        2335 .LDWlin115:
                        2336 	jarl	_DIAG_GetPDCEnable,lp
                        2336 <EXPANSION BEGIN>
                        2336 jarl22 _DIAG_GetPDCEnable , lp 
0000084c 80ff0000*      2336 <EXPANSION END>
00000850 e051           2337 	cmp	zero,r10
00000852 820d*          2338 	be	.L1625
                        2339 --867: 			    			{
                        2340 --868: 			    				ChmSendToneInfo.NetCmdLoctnFL = TRUE;
                        2341 --line868
                        2342 ..lin.D.3A.5CRenesas_Electronics.5CD1x_RGL.5Crgl_ghs_D1Lx_obj_V1.2E2.2E0.5Cvlib.5Capp.5Cgfx_apps.5Csimple_draw_d1l2.5Ctarget.5Cd1lx_mango_ghs.5Cobj.5Cchm.116::

                                                                      Page 42
                                                              C:\Users\YINGAO~1\AppData\Local\Temp\gh_00006a41.si
                        2343 .LDWlin116:
00000854 010a           2344 	mov	1,r1
00000856 5d0f1d00       2345 	st.b	r1,29[r29]
                        2346 --869: 			    				ChmSendToneInfo.NetCmdLoctnFR = TRUE;
0000085a 010a           2347 	mov	1,r1
0000085c 5d0f1e00       2348 	st.b	r1,30[r29]
00000860 d505*          2349 	br	.L1627
                        2350 .L1625:
                        2351 --870: 			    			}
                        2352 --871: 							else
                        2353 --872: 							{
                        2354 --873: 			    				ChmSendToneInfo.NetCmdLoctnFL = FALSE;
                        2355 --line873
                        2356 ..lin.D.3A.5CRenesas_Electronics.5CD1x_RGL.5Crgl_ghs_D1Lx_obj_V1.2E2.2E0.5Cvlib.5Capp.5Cgfx_apps.5Csimple_draw_d1l2.5Ctarget.5Cd1lx_mango_ghs.5Cobj.5Cchm.117::
                        2357 .LDWlin117:
00000862 5d071d00       2358 	st.b	zero,29[r29]
                        2359 --874: 			    				ChmSendToneInfo.NetCmdLoctnFR = FALSE;
00000866 5d071e00       2360 	st.b	zero,30[r29]
                        2361 .L1627:
0000086a 9515*          2362 	br	.L1632
                        2363 .L1628:
                        2364 --875: 							}
                        2365 --877: 							break;
                        2366 --879: 						case OUT_TICK_TONE:
                        2367 --880: 						case OUT_TOCK_TONE:
                        2368 --881: 						case OUT_GONG_TONE:																		
                        2369 --882: 						case OUT_RESERVE_TONE:
                        2370 --883: 						default:
                        2371 --884: 							if (DIAG_GetHandofDrive())
                        2372 --line884
                        2373 ..lin.D.3A.5CRenesas_Electronics.5CD1x_RGL.5Crgl_ghs_D1Lx_obj_V1.2E2.2E0.5Cvlib.5Capp.5Cgfx_apps.5Csimple_draw_d1l2.5Ctarget.5Cd1lx_mango_ghs.5Cobj.5Cchm.118::
                        2374 .LDWlin118:
                        2375 	jarl	_DIAG_GetHandofDrive,lp
                        2375 <EXPANSION BEGIN>
                        2375 jarl22 _DIAG_GetHandofDrive , lp 
0000086c 80ff0000*      2375 <EXPANSION END>
00000870 e051           2376 	cmp	zero,r10
00000872 f205*          2377 	be	.L1629
                        2378 --885: 				    		{
                        2379 --886: 				    			ChmSendToneInfo.NetCmdLoctnFL = FALSE;
                        2380 --line886
                        2381 ..lin.D.3A.5CRenesas_Electronics.5CD1x_RGL.5Crgl_ghs_D1Lx_obj_V1.2E2.2E0.5Cvlib.5Capp.5Cgfx_apps.5Csimple_draw_d1l2.5Ctarget.5Cd1lx_mango_ghs.5Cobj.5Cchm.119::
                        2382 .LDWlin119:
00000874 5d071d00       2383 	st.b	zero,29[r29]
                        2384 --887: 				    			ChmSendToneInfo.NetCmdLoctnFR = TRUE;
00000878 010a           2385 	mov	1,r1
0000087a 5d0f1e00       2386 	st.b	r1,30[r29]
0000087e e505*          2387 	br	.L1631
                        2388 .L1629:
                        2389 --888: 				    		}
                        2390 --889: 							else
                        2391 --890: 							{
                        2392 --891: 				    			ChmSendToneInfo.NetCmdLoctnFL = TRUE;
                        2393 --line891
                        2394 ..lin.D.3A.5CRenesas_Electronics.5CD1x_RGL.5Crgl_ghs_D1Lx_obj_V1.2E2.2E0.5Cvlib.5Capp.5Cgfx_apps.5Csimple_draw_d1l2.5Ctarget.5Cd1lx_mango_ghs.5Cobj.5Cchm.120::
                        2395 .LDWlin120:
00000880 010a           2396 	mov	1,r1
00000882 5d0f1d00       2397 	st.b	r1,29[r29]
                        2398 --892: 				    			ChmSendToneInfo.NetCmdLoctnFR = FALSE;
00000886 5d071e00       2399 	st.b	zero,30[r29]
                        2400 .L1631:

                                                                      Page 43
                                                              C:\Users\YINGAO~1\AppData\Local\Temp\gh_00006a41.si
0000088a 0000           2401 	nop
                        2402 .L1632:
                        2403 --893: 							}
                        2404 --894: 							break;
                        2405 --895: 					}
                        2406 --897: 				}
                        2407 --898: 				else
                        2408 --899: 				{
                        2409 --900: 				}
                        2410 --902: 				if (CHM_SENDTONE_FADEOUT >= ChmSendToneStep)
0000088c bd0f1900       2411 	ld.bu	25[r29],r1
00000890 640a           2412 	cmp	4,r1
00000892 eb0d*          2413 	bh	.L1638
                        2414 --903: 				{
                        2415 --904: 					if (0 == ChmInfo.pPrmList[ChmSendToneStep-1].Duration)
                        2416 --line904
                        2417 ..lin.D.3A.5CRenesas_Electronics.5CD1x_RGL.5Crgl_ghs_D1Lx_obj_V1.2E2.2E0.5Cvlib.5Capp.5Cgfx_apps.5Csimple_draw_d1l2.5Ctarget.5Cd1lx_mango_ghs.5Cobj.5Cchm.121::
                        2418 .LDWlin121:
00000894 bd0f1900       2419 	ld.bu	25[r29],r1
00000898 3df70100       2420 	ld.w	0[r29],ep
0000089c 5f0a           2421 	add	-1,r1
0000089e c30a           2422 	shl	3,r1
000008a0 c1f1           2423 	add	r1,ep
000008a2 7308           2424 	sld.hu	6[ep],r1
000008a4 e009           2425 	cmp	zero,r1
000008a6 ca05*          2426 	bne	.L1638
                        2427 --905: 					{
                        2428 --906: 						ChmSendToneStep = CHM_SENDTONE_ALL;
                        2429 --line906
                        2430 ..lin.D.3A.5CRenesas_Electronics.5CD1x_RGL.5Crgl_ghs_D1Lx_obj_V1.2E2.2E0.5Cvlib.5Capp.5Cgfx_apps.5Csimple_draw_d1l2.5Ctarget.5Cd1lx_mango_ghs.5Cobj.5Cchm.122::
                        2431 .LDWlin122:
000008a8 050a           2432 	mov	5,r1
000008aa 5d0f1900       2433 	st.b	r1,25[r29]
                        2434 .L1638:
                        2435 --907: 					}
                        2436 --908: 					else
                        2437 --909: 					{
                        2438 --910: 					}
                        2439 --911: 				}
                        2440 --912: 				else
                        2441 --913: 				{
000008ae d525*          2442 	br	.L1616
                        2443 .L1639:
                        2444 --914: 				}				
                        2445 --915: 				break;
                        2446 --917: 			case CHM_SENDTONE_ALL:
                        2447 --918: 				if (0 < ChmInfo.OutCircle) 
                        2448 --line918
                        2449 ..lin.D.3A.5CRenesas_Electronics.5CD1x_RGL.5Crgl_ghs_D1Lx_obj_V1.2E2.2E0.5Cvlib.5Capp.5Cgfx_apps.5Csimple_draw_d1l2.5Ctarget.5Cd1lx_mango_ghs.5Cobj.5Cchm.123::
                        2450 .LDWlin123:
000008b0 fd0f0500       2451 	ld.hu	4[r29],r1
000008b4 e009           2452 	cmp	zero,r1
000008b6 b20d*          2453 	be	.L1640
                        2454 --919: 				{
                        2455 --920: 			    	if (0xEEEE != ChmInfo.OutCircle)
                        2456 --line920
                        2457 ..lin.D.3A.5CRenesas_Electronics.5CD1x_RGL.5Crgl_ghs_D1Lx_obj_V1.2E2.2E0.5Cvlib.5Capp.5Cgfx_apps.5Csimple_draw_d1l2.5Ctarget.5Cd1lx_mango_ghs.5Cobj.5Cchm.124::
                        2458 .LDWlin124:
000008b8 fd0f0500       2459 	ld.hu	4[r29],r1
000008bc a106eeee       2460 	xori	61166,r1,zero
000008c0 e205*          2461 	be	.L1640

                                                                      Page 44
                                                              C:\Users\YINGAO~1\AppData\Local\Temp\gh_00006a41.si
                        2462 --921: 			       	{
                        2463 --922: 				    	-- ChmInfo.OutCircle;
                        2464 --line922
                        2465 ..lin.D.3A.5CRenesas_Electronics.5CD1x_RGL.5Crgl_ghs_D1Lx_obj_V1.2E2.2E0.5Cvlib.5Capp.5Cgfx_apps.5Csimple_draw_d1l2.5Ctarget.5Cd1lx_mango_ghs.5Cobj.5Cchm.125::
                        2466 .LDWlin125:
000008c2 fd0f0500       2467 	ld.hu	4[r29],r1
000008c6 5f0a           2468 	add	-1,r1
000008c8 7d0f0400       2469 	st.h	r1,4[r29]
                        2470 .L1640:
                        2471 --923: 			     	}
                        2472 --924: 					else
                        2473 --925: 					{
                        2474 --926: 					    /*DO NOTHING*/
                        2475 --927: 					}
                        2476 --929: 				}
                        2477 --930: 				ChmSendToneStep = CHM_SENDTONE_NULL;				
000008cc 5d071900       2478 	st.b	zero,25[r29]
                        2479 --931: 			case CHM_SENDTONE_NULL:               
                        2480 .L1645:
                        2481 --932: 				if (0 == ChmInfo.OutCircle)  
000008d0 fd0f0500       2482 	ld.hu	4[r29],r1
000008d4 e009           2483 	cmp	zero,r1
000008d6 8a15*          2484 	bne	.L1650
                        2485 --933: 				{
                        2486 --934: 					ChmSendToneInfo.NetCmdTone   = OUT_RESERVE_TONE;
                        2487 --line934
                        2488 ..lin.D.3A.5CRenesas_Electronics.5CD1x_RGL.5Crgl_ghs_D1Lx_obj_V1.2E2.2E0.5Cvlib.5Capp.5Cgfx_apps.5Csimple_draw_d1l2.5Ctarget.5Cd1lx_mango_ghs.5Cobj.5Cchm.126::
                        2489 .LDWlin126:
000008d8 060a           2490 	mov	6,r1
000008da 5d0f1a00       2491 	st.b	r1,26[r29]
                        2492 --935: 					ChmSendToneInfo.NetCmdDuty   = 0;
000008de 5d071c00       2493 	st.b	zero,28[r29]
                        2494 --936: 					ChmSendToneInfo.NetCmdPeriod = 0;
000008e2 5d071b00       2495 	st.b	zero,27[r29]
                        2496 --938: 					ChmSendToneInfo.NetCmdLoctnFL = FALSE;
000008e6 5d071d00       2497 	st.b	zero,29[r29]
                        2498 --939: 					ChmSendToneInfo.NetCmdLoctnFR = FALSE;
000008ea 5d071e00       2499 	st.b	zero,30[r29]
                        2500 --940: 					ChmSendToneInfo.NetCmdLoctnRL = FALSE;
000008ee 5d071f00       2501 	st.b	zero,31[r29]
                        2502 --941: 					ChmSendToneInfo.NetCmdLoctnRR = FALSE;	
000008f2 5d072000       2503 	st.b	zero,32[r29]
                        2504 .L1650:
                        2505 --942: 				}
                        2506 --943: 				else
                        2507 --944: 				{
000008f6 0000           2508 	nop
                        2509 .L1616:
                        2510 --945: 				    /*DO NOTHING*/
                        2511 --946: 				}
                        2512 --948: 				break;
                        2513 --949: 		}
                        2514 --950: 	
                        2515 --951: 	}
                        2516 --953: }
000008f8 0000           2517 	nop
                        2518 --	    .ef
                        2519 .LDW14:
000008fa 4206ff70       2520 	dispose	1,{r25,r26,r27,r28,r29,r31},[lp]
                        2521 	.type	_CHM_SignalOutPutProcess_5ms,@function
                        2522 	.size	_CHM_SignalOutPutProcess_5ms,.-_CHM_SignalOutPutProcess_5ms

                                                                      Page 45
                                                              C:\Users\YINGAO~1\AppData\Local\Temp\gh_00006a41.si
                        2523 	.align	2
                        2524 .LDW24:
                        2525 --_res	r27	local
                        2526 
                        2527 	.data
                        2528 	.text
                        2529 
                        2530 
                        2531 --956: /***************************************************
                        2532 --957: * Function: chm_PdcAvtive_manage
                        2533 --958: * Description: set pdc active state
                        2534 --959: * Parameters: none
                        2535 --960: * Returns:none
                        2536 --961: *
                        2537 --962: * $Create & Verlog:$
                        2538 --963: * Author:xs  Date:2017-6-23   Version:V2.0
                        2539 --964: * $log:
                        2540 --965: ****************************************************/
                        2541 --966: static void chm_PdcAvtive_manage(void)
                        2542 	.align	2
                        2543 	.align	2
                        2544 	.global	_chm_PdcAvtive_manage..D.3A.5CRenesas_Electronics.5CD1x_RGL.5Crgl_ghs_D1Lx_obj_V1.2E2.2E0.5Cvlib.5Capp.5Cgfx_apps.5Csimple_draw_d1l2.5Ctarget.5Cd1lx_mango_ghs.5Cobj.5Cchm.
                        2545 _chm_PdcAvtive_manage..D.3A.5CRenesas_Electronics.5CD1x_RGL.5Crgl_ghs_D1Lx_obj_V1.2E2.2E0.5Cvlib.5Capp.5Cgfx_apps.5Csimple_draw_d1l2.5Ctarget.5Cd1lx_mango_ghs.5Cobj.5Cchm.:
                        2546 _chm_PdcAvtive_manage:
000008fe 8207e100       2547 	prepare	{r28,r29,r31},1
00000902 3d0600000000*  2548 	mov	_isPdcActive,r29
00000908 1de0           2549 	mov	r29,r28
                        2550 --	    .bf
                        2551 .LDW34:
                        2552 --967: {
                        2553 --968: 	U8 pwr_mode = PWR_OFF;
0000090a 43070300       2554 	st.b	zero,3[sp]
                        2555 --970: 	PWR_GetPwrMode(&pwr_mode);
0000090e 23360300       2556 	movea	3,sp,r6
                        2557 	jarl	_PWR_GetPwrMode,lp
                        2557 <EXPANSION BEGIN>
                        2557 jarl22 _PWR_GetPwrMode , lp 
00000912 80ff0000*      2557 <EXPANSION END>
                        2558 --971: 	
                        2559 --972: 	if((PWR_ACC == pwr_mode) || (PWR_OFF == pwr_mode))
                        2560 --line972
                        2561 ..lin.D.3A.5CRenesas_Electronics.5CD1x_RGL.5Crgl_ghs_D1Lx_obj_V1.2E2.2E0.5Cvlib.5Capp.5Cgfx_apps.5Csimple_draw_d1l2.5Ctarget.5Cd1lx_mango_ghs.5Cobj.5Cchm.127::
                        2562 .LDWlin127:
00000916 a30f0300       2563 	ld.bu	3[sp],r1
0000091a 610a           2564 	cmp	1,r1
0000091c d205*          2565 	be	.L1906
0000091e a30f0300       2566 	ld.bu	3[sp],r1
00000922 e009           2567 	cmp	zero,r1
00000924 da0d*          2568 	bne	.L1905
                        2569 .L1906:
                        2570 --973: 	{		
                        2571 --974: 		isPdcActive.Init = 0;
                        2572 --line974
                        2573 ..lin.D.3A.5CRenesas_Electronics.5CD1x_RGL.5Crgl_ghs_D1Lx_obj_V1.2E2.2E0.5Cvlib.5Capp.5Cgfx_apps.5Csimple_draw_d1l2.5Ctarget.5Cd1lx_mango_ghs.5Cobj.5Cchm.128::
                        2574 .LDWlin128:
00000926 9d0f0100       2575 	ld.bu	0[r29],r1
0000092a c10efe00       2576 	andi	254,r1,r1
0000092e 5d0f0000       2577 	st.b	r1,0[r29]
                        2578 --975: 		isPdcActive.Fail = 0;
00000932 9d0f0100       2579 	ld.bu	0[r29],r1
00000936 c10efd00       2580 	andi	253,r1,r1

                                                                      Page 46
                                                              C:\Users\YINGAO~1\AppData\Local\Temp\gh_00006a41.si
0000093a 5d0f0000       2581 	st.b	r1,0[r29]
                        2582 .L1905:
                        2583 --976: 	}
                        2584 --978: }
0000093e 0000           2585 	nop
                        2586 --	    .ef
                        2587 .LDW44:
00000940 4206ff00       2588 	dispose	1,{r28,r29,r31},[lp]
                        2589 	.type	_chm_PdcAvtive_manage,@function
                        2590 	.size	_chm_PdcAvtive_manage,.-_chm_PdcAvtive_manage
                        2591 	.type	_chm_PdcAvtive_manage..D.3A.5CRenesas_Electronics.5CD1x_RGL.5Crgl_ghs_D1Lx_obj_V1.2E2.2E0.5Cvlib.5Capp.5Cgfx_apps.5Csimple_draw_d1l2.5Ctarget.5Cd1lx_mango_ghs.5Cobj.5Cchm.,@function
                        2592 	.size	_chm_PdcAvtive_manage..D.3A.5CRenesas_Electronics.5CD1x_RGL.5Crgl_ghs_D1Lx_obj_V1.2E2.2E0.5Cvlib.5Capp.5Cgfx_apps.5Csimple_draw_d1l2.5Ctarget.5Cd1lx_mango_ghs.5Cobj.5Cchm.,.-_chm_PdcAvtive_manage..D.3A.5CRenesas_Electronics.5CD1x_RGL.5Crgl_ghs_D1Lx_obj_V1.2E2.2E0.5Cvlib.5Capp.5Cgfx_apps.5Csimple_draw_d1l2.5Ctarget.5Cd1lx_mango_ghs.5Cobj.5Cchm.
                        2593 	.align	2
                        2594 .LDW54:
                        2595 --_pwr_mode	3[sp]	local
                        2596 
                        2597 	.data
                        2598 	.text
                        2599 
                        2600 
                        2601 --980: /***************************************************
                        2602 --981: * Function: CHM_SetPdcAvtive_manage
                        2603 --982: * Description: set pdc active state
                        2604 --983: * Parameters: none
                        2605 --984: * Returns:none
                        2606 --985: *	RET_FAIL: INITIAL FAILED
                        2607 --986: 	RET_INVALID:PARAMETER NOT AVALIABLE
                        2608 --987: 	RET_OK: SUCCESS
                        2609 --988: * $Create & Verlog:$
                        2610 --989: * Author:xs  Date:2017-6-23   Version:V2.0
                        2611 --990: * $log:
                        2612 --991: ****************************************************/
                        2613 --992: U8 CHM_SetPdcAvtive_manage(Chm_PdcActive_ST *PdcActive)
                        2614 	.align	2
                        2615 	.align	2
                        2616 	.global	_CHM_SetPdcAvtive_manage
                        2617 _CHM_SetPdcAvtive_manage:
00000944 06f0           2618 	mov	r6,ep
                        2619 --	    .bf
                        2620 .LDW64:
                        2621 --993: {
                        2622 --994:     U8 res = RET_OK;
00000946 010a           2623 	mov	1,r1
                        2624 --995: 	
                        2625 --996: 	if (FALSE == Chm_InitStatus)
00000948 2e0600000000*  2626 	mov	_Chm_InitStatus,r14
0000094e 8e770100       2627 	ld.bu	0[r14],r14
00000952 e071           2628 	cmp	zero,r14
00000954 ba05*          2629 	bne	.L1971
                        2630 --997:     {
                        2631 --998:         res = RET_FAIL;
                        2632 --line998
                        2633 ..lin.D.3A.5CRenesas_Electronics.5CD1x_RGL.5Crgl_ghs_D1Lx_obj_V1.2E2.2E0.5Cvlib.5Capp.5Cgfx_apps.5Csimple_draw_d1l2.5Ctarget.5Cd1lx_mango_ghs.5Cobj.5Cchm.129::
                        2634 .LDWlin129:
00000956 000a           2635 	mov	0,r1
00000958 b50d*          2636 	br	.L1973
                        2637 .L1971:
                        2638 --999:     }
                        2639 --1000:     else if (NULL_PTR == PdcActive)
                        2640 --line1000
                        2641 ..lin.D.3A.5CRenesas_Electronics.5CD1x_RGL.5Crgl_ghs_D1Lx_obj_V1.2E2.2E0.5Cvlib.5Capp.5Cgfx_apps.5Csimple_draw_d1l2.5Ctarget.5Cd1lx_mango_ghs.5Cobj.5Cchm.130::

                                                                      Page 47
                                                              C:\Users\YINGAO~1\AppData\Local\Temp\gh_00006a41.si
                        2642 .LDWlin130:
0000095a e0f1           2643 	cmp	zero,ep
0000095c ba05*          2644 	bne	.L1974
                        2645 --1001:     {
                        2646 --1002:     	res = RET_INVALID;
                        2647 --line1002
                        2648 ..lin.D.3A.5CRenesas_Electronics.5CD1x_RGL.5Crgl_ghs_D1Lx_obj_V1.2E2.2E0.5Cvlib.5Capp.5Cgfx_apps.5Csimple_draw_d1l2.5Ctarget.5Cd1lx_mango_ghs.5Cobj.5Cchm.131::
                        2649 .LDWlin131:
0000095e 020a           2650 	mov	2,r1
00000960 f505*          2651 	br	.L1973
                        2652 .L1974:
                        2653 --1003:     }
                        2654 --1004: 	else
                        2655 --1005: 	{		
                        2656 --1006: 		isPdcActive = *PdcActive;
                        2657 --line1006
                        2658 ..lin.D.3A.5CRenesas_Electronics.5CD1x_RGL.5Crgl_ghs_D1Lx_obj_V1.2E2.2E0.5Cvlib.5Capp.5Cgfx_apps.5Csimple_draw_d1l2.5Ctarget.5Cd1lx_mango_ghs.5Cobj.5Cchm.132::
                        2659 .LDWlin132:
00000962 6070           2660 	sld.bu	0[ep],r14
00000964 2b0600000000*  2661 	mov	_isPdcActive,r11
0000096a 4b770000       2662 	st.b	r14,0[r11]
                        2663 .L1973:
                        2664 --1007: 	}
                        2665 --1009: 	return res;
0000096e 0150           2666 	mov	r1,r10
                        2667 --	    .ef
                        2668 .LDW74:
00000970 7f00           2669 	jmp	[lp]
                        2670 	.type	_CHM_SetPdcAvtive_manage,@function
                        2671 	.size	_CHM_SetPdcAvtive_manage,.-_CHM_SetPdcAvtive_manage
                        2672 	.align	2
                        2673 .LDW84:
                        2674 --_res	r1	local
                        2675 
                        2676 --_PdcActive	ep	param
                        2677 
                        2678 	.data
                        2679 	.text
                        2680 
                        2681 --1010: }
                        2682 
                        2683 --1013: /***************************************************
                        2684 --1014: * Function: CHM_GetPdcActiveStatus
                        2685 --1015: * Description: get pdc active state
                        2686 --1016: * Parameters: none
                        2687 --1017: * Returns:
                        2688 --1018: 	RET_FAIL: INITIAL FAILED
                        2689 --1019: 	RET_INVALID:PARAMETER NOT AVALIABLE
                        2690 --1020: 	RET_OK: SUCCESS
                        2691 --1022: * $Create & Verlog:$
                        2692 --1023: * Author:xs  Date:2017-6-23   Version:V2.0
                        2693 --1024: * $log:
                        2694 --1025: ****************************************************/
                        2695 --1026: U8 CHM_GetPdcActiveStatus(Chm_PdcActive_ST *pActive)
                        2696 	.align	2
                        2697 	.align	2
                        2698 	.global	_CHM_GetPdcActiveStatus
                        2699 _CHM_GetPdcActiveStatus:
00000972 06f0           2700 	mov	r6,ep
                        2701 --	    .bf
                        2702 .LDW94:

                                                                      Page 48
                                                              C:\Users\YINGAO~1\AppData\Local\Temp\gh_00006a41.si
                        2703 --1027: {
                        2704 --1028:     U8 res = RET_OK;
00000974 010a           2705 	mov	1,r1
                        2706 --1029:     if (FALSE == Chm_InitStatus)
00000976 2e0600000000*  2707 	mov	_Chm_InitStatus,r14
0000097c 8e770100       2708 	ld.bu	0[r14],r14
00000980 e071           2709 	cmp	zero,r14
00000982 ba05*          2710 	bne	.L2035
                        2711 --1030:     {
                        2712 --1031:         res = RET_FAIL;
                        2713 --line1031
                        2714 ..lin.D.3A.5CRenesas_Electronics.5CD1x_RGL.5Crgl_ghs_D1Lx_obj_V1.2E2.2E0.5Cvlib.5Capp.5Cgfx_apps.5Csimple_draw_d1l2.5Ctarget.5Cd1lx_mango_ghs.5Cobj.5Cchm.133::
                        2715 .LDWlin133:
00000984 000a           2716 	mov	0,r1
00000986 b50d*          2717 	br	.L2037
                        2718 .L2035:
                        2719 --1032:     }
                        2720 --1033:     else if (NULL_PTR ==  pActive)
                        2721 --line1033
                        2722 ..lin.D.3A.5CRenesas_Electronics.5CD1x_RGL.5Crgl_ghs_D1Lx_obj_V1.2E2.2E0.5Cvlib.5Capp.5Cgfx_apps.5Csimple_draw_d1l2.5Ctarget.5Cd1lx_mango_ghs.5Cobj.5Cchm.134::
                        2723 .LDWlin134:
00000988 e0f1           2724 	cmp	zero,ep
0000098a ba05*          2725 	bne	.L2038
                        2726 --1034:     {
                        2727 --1035:         res = RET_INVALID;
                        2728 --line1035
                        2729 ..lin.D.3A.5CRenesas_Electronics.5CD1x_RGL.5Crgl_ghs_D1Lx_obj_V1.2E2.2E0.5Cvlib.5Capp.5Cgfx_apps.5Csimple_draw_d1l2.5Ctarget.5Cd1lx_mango_ghs.5Cobj.5Cchm.135::
                        2730 .LDWlin135:
0000098c 020a           2731 	mov	2,r1
0000098e f505*          2732 	br	.L2037
                        2733 .L2038:
                        2734 --1036:     }
                        2735 --1037:     else
                        2736 --1038:     {
                        2737 --1039:         *pActive = isPdcActive;
                        2738 --line1039
                        2739 ..lin.D.3A.5CRenesas_Electronics.5CD1x_RGL.5Crgl_ghs_D1Lx_obj_V1.2E2.2E0.5Cvlib.5Capp.5Cgfx_apps.5Csimple_draw_d1l2.5Ctarget.5Cd1lx_mango_ghs.5Cobj.5Cchm.136::
                        2740 .LDWlin136:
00000990 2e0600000000*  2741 	mov	_isPdcActive,r14
00000996 8e770100       2742 	ld.bu	0[r14],r14
0000099a 8073           2743 	sst.b	r14,0[ep]
                        2744 .L2037:
                        2745 --1040:     }
                        2746 --1041: 	return res;
0000099c 0150           2747 	mov	r1,r10
                        2748 --	    .ef
                        2749 .LDW05:
0000099e 7f00           2750 	jmp	[lp]
                        2751 	.type	_CHM_GetPdcActiveStatus,@function
                        2752 	.size	_CHM_GetPdcActiveStatus,.-_CHM_GetPdcActiveStatus
                        2753 	.align	2
                        2754 .LDW15:
                        2755 --_res	r1	local
                        2756 
                        2757 --_pActive	ep	param
                        2758 
                        2759 	.data
                        2760 	.text
                        2761 
                        2762 --1042: }
                        2763 	.align	2

                                                                      Page 49
                                                              C:\Users\YINGAO~1\AppData\Local\Temp\gh_00006a41.si
                        2764 --_Chm_InitStatus	_Chm_InitStatus	static
                        2765 --_Chm_RptGongRefresh	_Chm_RptGongRefresh	static
                        2766 --_ChmInfo	_ChmInfo	static
                        2767 --_ChmPrmInfo	_ChmPrmInfo	static
                        2768 --_ChmSendToneInfo	_ChmSendToneInfo	static
                        2769 --_ChmJudgeFinishFlag	_ChmJudgeFinishFlag	static
                        2770 --_ChmJudgeIndex	_ChmJudgeIndex	static
                        2771 --_ChmJudgeWarn	_ChmJudgeWarn	static
                        2772 --_isPdcActive	_isPdcActive	static
                        2773 --_ChmSendToneStep	_ChmSendToneStep	static
                        2774 
                        2775 	.section ".rodata","a"
                        2776 	.align	4
                        2777 	.global	_CHMGeneralPrmTbl
00000000 044b7000       2778 _CHMGeneralPrmTbl:	.byte	4,75,112,0
00000004 ff             2779 	.byte	255
00000005 00             2780 	.space	1
00000006 e000           2781 	.byte	224,0
00000008 044b7000       2782 	.byte	4,75,112,0
0000000c ff             2783 	.byte	255
0000000d 00             2784 	.space	1
0000000e 0000           2785 	.space	2
00000010 044b7000       2786 	.byte	4,75,112,0
00000014 ff             2787 	.byte	255
00000015 00             2788 	.space	1
00000016 0000           2789 	.space	2
00000018 044b7000       2790 	.byte	4,75,112,0
0000001c ff             2791 	.byte	255
0000001d 00             2792 	.space	1
0000001e 0000           2793 	.space	2
00000020 044b7000       2794 	.byte	4,75,112,0
00000024 ff             2795 	.byte	255
00000025 00             2796 	.space	1
00000026 e000           2797 	.byte	224,0
00000028 064b7000       2798 	.byte	6,75,112,0
0000002c ff             2799 	.byte	255
0000002d 00             2800 	.space	1
0000002e b000           2801 	.byte	176,0
00000030 044b7000       2802 	.byte	4,75,112,0
00000034 ff             2803 	.byte	255
00000035 00             2804 	.space	1
00000036 0000           2805 	.space	2
00000038 064b7000       2806 	.byte	6,75,112,0
0000003c ff             2807 	.byte	255
0000003d 00             2808 	.space	1
0000003e 0000           2809 	.space	2
00000040 01490100       2810 	.byte	1,73,1,0
00000044 ff             2811 	.byte	255
00000045 00             2812 	.space	1
00000046 0100           2813 	.byte	1,0
00000048 01490100       2814 	.byte	1,73,1,0
0000004c ff             2815 	.byte	255
0000004d 00             2816 	.space	1
0000004e 0000           2817 	.space	2
00000050 01490100       2818 	.byte	1,73,1,0
00000054 ff             2819 	.byte	255
00000055 00             2820 	.space	1
00000056 0000           2821 	.space	2
00000058 01490100       2822 	.byte	1,73,1,0
0000005c ff             2823 	.byte	255
0000005d 00             2824 	.space	1

                                                                      Page 50
                                                              C:\Users\YINGAO~1\AppData\Local\Temp\gh_00006a41.si
0000005e 0000           2825 	.space	2
00000060 00             2826 	.space	1
00000061 490100ff       2827 	.byte	73,1,0,255
00000065 00             2828 	.space	1
00000066 0100           2829 	.byte	1,0
00000068 00             2830 	.space	1
00000069 490100ff       2831 	.byte	73,1,0,255
0000006d 00             2832 	.space	1
0000006e 0000           2833 	.space	2
00000070 00             2834 	.space	1
00000071 490100ff       2835 	.byte	73,1,0,255
00000075 00             2836 	.space	1
00000076 0000           2837 	.space	2
00000078 00             2838 	.space	1
00000079 490100ff       2839 	.byte	73,1,0,255
0000007d 00             2840 	.space	1
0000007e 0000           2841 	.space	2
00000080 02641200       2842 	.byte	2,100,18,0
00000084 ff             2843 	.byte	255
00000085 00             2844 	.space	1
00000086 3c00           2845 	.byte	60,0
00000088 02641200       2846 	.byte	2,100,18,0
0000008c ff             2847 	.byte	255
0000008d 00             2848 	.space	1
0000008e 0000           2849 	.space	2
00000090 02641200       2850 	.byte	2,100,18,0
00000094 ff             2851 	.byte	255
00000095 00             2852 	.space	1
00000096 0000           2853 	.space	2
00000098 02641200       2854 	.byte	2,100,18,0
0000009c ff             2855 	.byte	255
0000009d 00             2856 	.space	1
0000009e 0000           2857 	.space	2
000000a0 02641200       2858 	.byte	2,100,18,0
000000a4 ff             2859 	.byte	255
000000a5 00             2860 	.space	1
000000a6 3002           2861 	.byte	48,2
000000a8 02641200       2862 	.byte	2,100,18,0
000000ac ff             2863 	.byte	255
000000ad 00             2864 	.space	1
000000ae 0000           2865 	.space	2
000000b0 02641200       2866 	.byte	2,100,18,0
000000b4 ff             2867 	.byte	255
000000b5 00             2868 	.space	1
000000b6 0000           2869 	.space	2
000000b8 02641200       2870 	.byte	2,100,18,0
000000bc ff             2871 	.byte	255
000000bd 00             2872 	.space	1
000000be 0000           2873 	.space	2
000000c0 02641200       2874 	.byte	2,100,18,0
000000c4 ff             2875 	.byte	255
000000c5 00             2876 	.space	1
000000c6 1900           2877 	.byte	25,0
000000c8 02641200       2878 	.byte	2,100,18,0
000000cc ff             2879 	.byte	255
000000cd 00             2880 	.space	1
000000ce 0000           2881 	.space	2
000000d0 02641200       2882 	.byte	2,100,18,0
000000d4 ff             2883 	.byte	255
000000d5 00             2884 	.space	1
000000d6 0000           2885 	.space	2

                                                                      Page 51
                                                              C:\Users\YINGAO~1\AppData\Local\Temp\gh_00006a41.si
000000d8 02641200       2886 	.byte	2,100,18,0
000000dc ff             2887 	.byte	255
000000dd 00             2888 	.space	1
000000de 0000           2889 	.space	2
000000e0 02641400       2890 	.byte	2,100,20,0
000000e4 e6             2891 	.byte	230
000000e5 00             2892 	.space	1
000000e6 1900           2893 	.byte	25,0
000000e8 02641400       2894 	.byte	2,100,20,0
000000ec e6             2895 	.byte	230
000000ed 00             2896 	.space	1
000000ee 0000           2897 	.space	2
000000f0 02641400       2898 	.byte	2,100,20,0
000000f4 e6             2899 	.byte	230
000000f5 00             2900 	.space	1
000000f6 0000           2901 	.space	2
000000f8 02641400       2902 	.byte	2,100,20,0
000000fc e6             2903 	.byte	230
000000fd 00             2904 	.space	1
000000fe 0000           2905 	.space	2
00000100 02641e00       2906 	.byte	2,100,30,0
00000104 d5             2907 	.byte	213
00000105 00             2908 	.space	1
00000106 1e00           2909 	.byte	30,0
00000108 02641e00       2910 	.byte	2,100,30,0
0000010c d5             2911 	.byte	213
0000010d 00             2912 	.space	1
0000010e 0000           2913 	.space	2
00000110 02641e00       2914 	.byte	2,100,30,0
00000114 d5             2915 	.byte	213
00000115 00             2916 	.space	1
00000116 0000           2917 	.space	2
00000118 02641e00       2918 	.byte	2,100,30,0
0000011c d5             2919 	.byte	213
0000011d 00             2920 	.space	1
0000011e 0000           2921 	.space	2
00000120 02642800       2922 	.byte	2,100,40,0
00000124 a0             2923 	.byte	160
00000125 00             2924 	.space	1
00000126 2800           2925 	.byte	40,0
00000128 02642800       2926 	.byte	2,100,40,0
0000012c a0             2927 	.byte	160
0000012d 00             2928 	.space	1
0000012e 0000           2929 	.space	2
00000130 02642800       2930 	.byte	2,100,40,0
00000134 a0             2931 	.byte	160
00000135 00             2932 	.space	1
00000136 0000           2933 	.space	2
00000138 02642800       2934 	.byte	2,100,40,0
0000013c a0             2935 	.byte	160
0000013d 00             2936 	.space	1
0000013e 0000           2937 	.space	2
00000140 02643200       2938 	.byte	2,100,50,0
00000144 80             2939 	.byte	128
00000145 00             2940 	.space	1
00000146 3200           2941 	.byte	50,0
00000148 02643200       2942 	.byte	2,100,50,0
0000014c 80             2943 	.byte	128
0000014d 00             2944 	.space	1
0000014e 0000           2945 	.space	2
00000150 02643200       2946 	.byte	2,100,50,0

                                                                      Page 52
                                                              C:\Users\YINGAO~1\AppData\Local\Temp\gh_00006a41.si
00000154 80             2947 	.byte	128
00000155 00             2948 	.space	1
00000156 0000           2949 	.space	2
00000158 02643200       2950 	.byte	2,100,50,0
0000015c 80             2951 	.byte	128
0000015d 00             2952 	.space	1
0000015e 0000           2953 	.space	2
00000160 02643f00       2954 	.byte	2,100,63,0
00000164 66             2955 	.byte	102
00000165 00             2956 	.space	1
00000166 3c00           2957 	.byte	60,0
00000168 02643f00       2958 	.byte	2,100,63,0
0000016c 66             2959 	.byte	102
0000016d 00             2960 	.space	1
0000016e 0000           2961 	.space	2
00000170 02643f00       2962 	.byte	2,100,63,0
00000174 66             2963 	.byte	102
00000175 00             2964 	.space	1
00000176 0000           2965 	.space	2
00000178 02643f00       2966 	.byte	2,100,63,0
0000017c 66             2967 	.byte	102
0000017d 00             2968 	.space	1
0000017e 0000           2969 	.space	2
00000180 02644b00       2970 	.byte	2,100,75,0
00000184 55             2971 	.byte	85
00000185 00             2972 	.space	1
00000186 5000           2973 	.byte	80,0
00000188 02644b00       2974 	.byte	2,100,75,0
0000018c 55             2975 	.byte	85
0000018d 00             2976 	.space	1
0000018e 0000           2977 	.space	2
00000190 02644b00       2978 	.byte	2,100,75,0
00000194 55             2979 	.byte	85
00000195 00             2980 	.space	1
00000196 0000           2981 	.space	2
00000198 02644b00       2982 	.byte	2,100,75,0
0000019c 55             2983 	.byte	85
0000019d 00             2984 	.space	1
0000019e 0000           2985 	.space	2
000001a0 02645800       2986 	.byte	2,100,88,0
000001a4 49             2987 	.byte	73
000001a5 00             2988 	.space	1
000001a6 6400           2989 	.byte	100,0
000001a8 02645800       2990 	.byte	2,100,88,0
000001ac 49             2991 	.byte	73
000001ad 00             2992 	.space	1
000001ae 0000           2993 	.space	2
000001b0 02645800       2994 	.byte	2,100,88,0
000001b4 49             2995 	.byte	73
000001b5 00             2996 	.space	1
000001b6 0000           2997 	.space	2
000001b8 02645800       2998 	.byte	2,100,88,0
000001bc 49             2999 	.byte	73
000001bd 00             3000 	.space	1
000001be 0000           3001 	.space	2
000001c0 02646400       3002 	.byte	2,100,100,0
000001c4 40             3003 	.byte	64
000001c5 00             3004 	.space	1
000001c6 6e00           3005 	.byte	110,0
000001c8 02646400       3006 	.byte	2,100,100,0
000001cc 40             3007 	.byte	64

                                                                      Page 53
                                                              C:\Users\YINGAO~1\AppData\Local\Temp\gh_00006a41.si
000001cd 00             3008 	.space	1
000001ce 0000           3009 	.space	2
000001d0 02646400       3010 	.byte	2,100,100,0
000001d4 40             3011 	.byte	64
000001d5 00             3012 	.space	1
000001d6 0000           3013 	.space	2
000001d8 02646400       3014 	.byte	2,100,100,0
000001dc 40             3015 	.byte	64
000001dd 00             3016 	.space	1
000001de 0000           3017 	.space	2
000001e0 02646400       3018 	.byte	2,100,100,0
000001e4 40             3019 	.byte	64
000001e5 00             3020 	.space	1
000001e6 7800           3021 	.byte	120,0
000001e8 02646400       3022 	.byte	2,100,100,0
000001ec 40             3023 	.byte	64
000001ed 00             3024 	.space	1
000001ee 0000           3025 	.space	2
000001f0 02646400       3026 	.byte	2,100,100,0
000001f4 40             3027 	.byte	64
000001f5 00             3028 	.space	1
000001f6 0000           3029 	.space	2
000001f8 02646400       3030 	.byte	2,100,100,0
000001fc 40             3031 	.byte	64
000001fd 00             3032 	.space	1
000001fe 0000           3033 	.space	2
00000200 02646400       3034 	.byte	2,100,100,0
00000204 40             3035 	.byte	64
00000205 00             3036 	.space	1
00000206 7800           3037 	.byte	120,0
00000208 02646400       3038 	.byte	2,100,100,0
0000020c 40             3039 	.byte	64
0000020d 00             3040 	.space	1
0000020e 0000           3041 	.space	2
00000210 02646400       3042 	.byte	2,100,100,0
00000214 40             3043 	.byte	64
00000215 00             3044 	.space	1
00000216 0000           3045 	.space	2
00000218 02646400       3046 	.byte	2,100,100,0
0000021c 40             3047 	.byte	64
0000021d 00             3048 	.space	1
0000021e 0000           3049 	.space	2
00000220 02646400       3050 	.byte	2,100,100,0
00000224 40             3051 	.byte	64
00000225 00             3052 	.space	1
00000226 7800           3053 	.byte	120,0
00000228 02646400       3054 	.byte	2,100,100,0
0000022c 40             3055 	.byte	64
0000022d 00             3056 	.space	1
0000022e 0000           3057 	.space	2
00000230 02646400       3058 	.byte	2,100,100,0
00000234 40             3059 	.byte	64
00000235 00             3060 	.space	1
00000236 0000           3061 	.space	2
00000238 02646400       3062 	.byte	2,100,100,0
0000023c 40             3063 	.byte	64
0000023d 00             3064 	.space	1
0000023e 0000           3065 	.space	2
00000240 02646400       3066 	.byte	2,100,100,0
00000244 40             3067 	.byte	64
00000245 00             3068 	.space	1

                                                                      Page 54
                                                              C:\Users\YINGAO~1\AppData\Local\Temp\gh_00006a41.si
00000246 7800           3069 	.byte	120,0
00000248 02646400       3070 	.byte	2,100,100,0
0000024c 40             3071 	.byte	64
0000024d 00             3072 	.space	1
0000024e 0000           3073 	.space	2
00000250 02646400       3074 	.byte	2,100,100,0
00000254 40             3075 	.byte	64
00000255 00             3076 	.space	1
00000256 0000           3077 	.space	2
00000258 02646400       3078 	.byte	2,100,100,0
0000025c 40             3079 	.byte	64
0000025d 00             3080 	.space	1
0000025e 0000           3081 	.space	2
00000260 02646400       3082 	.byte	2,100,100,0
00000264 40             3083 	.byte	64
00000265 00             3084 	.space	1
00000266 7800           3085 	.byte	120,0
00000268 02646400       3086 	.byte	2,100,100,0
0000026c 40             3087 	.byte	64
0000026d 00             3088 	.space	1
0000026e 0000           3089 	.space	2
00000270 02646400       3090 	.byte	2,100,100,0
00000274 40             3091 	.byte	64
00000275 00             3092 	.space	1
00000276 0000           3093 	.space	2
00000278 02646400       3094 	.byte	2,100,100,0
0000027c 40             3095 	.byte	64
0000027d 00             3096 	.space	1
0000027e 0000           3097 	.space	2
00000280 02646400       3098 	.byte	2,100,100,0
00000284 40             3099 	.byte	64
00000285 00             3100 	.space	1
00000286 7800           3101 	.byte	120,0
00000288 02646400       3102 	.byte	2,100,100,0
0000028c 40             3103 	.byte	64
0000028d 00             3104 	.space	1
0000028e 0000           3105 	.space	2
00000290 02646400       3106 	.byte	2,100,100,0
00000294 40             3107 	.byte	64
00000295 00             3108 	.space	1
00000296 0000           3109 	.space	2
00000298 02646400       3110 	.byte	2,100,100,0
0000029c 40             3111 	.byte	64
0000029d 00             3112 	.space	1
0000029e 0000           3113 	.space	2
                        3114 	.type	_CHMGeneralPrmTbl,@object
                        3115 	.size	_CHMGeneralPrmTbl,672
                        3116 	.global	_Chm_ToneMatrix
000002a0 00000000       3117 _Chm_ToneMatrix:	.space	4
000002a4 0000           3118 	.space	2
000002a6 00             3119 	.space	1
000002a7 06             3120 	.byte	6
000002a8 00000000*      3121 	.word	_CHMGeneralPrmTbl
000002ac 01000104       3122 	.byte	1,0,1,4
000002b0 00000000*      3123 	.word	_CHMGeneralPrmTbl
000002b4 01000104       3124 	.byte	1,0,1,4
000002b8 00000000*      3125 	.word	_CHMGeneralPrmTbl
000002bc 01000104       3126 	.byte	1,0,1,4
000002c0 00000000*      3127 	.word	_CHMGeneralPrmTbl
000002c4 01000104       3128 	.byte	1,0,1,4
000002c8 00000000*      3129 	.word	_CHMGeneralPrmTbl+32

                                                                      Page 55
                                                              C:\Users\YINGAO~1\AppData\Local\Temp\gh_00006a41.si
000002cc 0f000104       3130 	.byte	15,0,1,4
000002d0 00000000*      3131 	.word	_CHMGeneralPrmTbl
000002d4 01000104       3132 	.byte	1,0,1,4
000002d8 00000000*      3133 	.word	_CHMGeneralPrmTbl
000002dc 01000104       3134 	.byte	1,0,1,4
000002e0 00000000*      3135 	.word	_CHMGeneralPrmTbl
000002e4 01000104       3136 	.byte	1,0,1,4
000002e8 00000000*      3137 	.word	_CHMGeneralPrmTbl
000002ec 01000104       3138 	.byte	1,0,1,4
000002f0 00000000*      3139 	.word	_CHMGeneralPrmTbl
000002f4 01000104       3140 	.byte	1,0,1,4
000002f8 00000000*      3141 	.word	_CHMGeneralPrmTbl
000002fc 01000104       3142 	.byte	1,0,1,4
00000300 00000000*      3143 	.word	_CHMGeneralPrmTbl
00000304 01000104       3144 	.byte	1,0,1,4
00000308 00000000*      3145 	.word	_CHMGeneralPrmTbl+32
0000030c 0f000104       3146 	.byte	15,0,1,4
00000310 00000000*      3147 	.word	_CHMGeneralPrmTbl
00000314 01000104       3148 	.byte	1,0,1,4
00000318 00000000*      3149 	.word	_CHMGeneralPrmTbl+32
0000031c 0f000104       3150 	.byte	15,0,1,4
00000320 00000000*      3151 	.word	_CHMGeneralPrmTbl
00000324 01000104       3152 	.byte	1,0,1,4
00000328 00000000*      3153 	.word	_CHMGeneralPrmTbl+32
0000032c 0f000104       3154 	.byte	15,0,1,4
00000330 00000000*      3155 	.word	_CHMGeneralPrmTbl
00000334 01000104       3156 	.byte	1,0,1,4
00000338 00000000*      3157 	.word	_CHMGeneralPrmTbl
0000033c 01000104       3158 	.byte	1,0,1,4
00000340 00000000*      3159 	.word	_CHMGeneralPrmTbl
00000344 01000104       3160 	.byte	1,0,1,4
00000348 00000000*      3161 	.word	_CHMGeneralPrmTbl
0000034c 01000104       3162 	.byte	1,0,1,4
00000350 00000000*      3163 	.word	_CHMGeneralPrmTbl
00000354 01000104       3164 	.byte	1,0,1,4
00000358 00000000*      3165 	.word	_CHMGeneralPrmTbl
0000035c 01000104       3166 	.byte	1,0,1,4
00000360 00000000*      3167 	.word	_CHMGeneralPrmTbl
00000364 01000104       3168 	.byte	1,0,1,4
00000368 00000000*      3169 	.word	_CHMGeneralPrmTbl
0000036c 01000104       3170 	.byte	1,0,1,4
00000370 00000000*      3171 	.word	_CHMGeneralPrmTbl
00000374 01000104       3172 	.byte	1,0,1,4
00000378 00000000*      3173 	.word	_CHMGeneralPrmTbl
0000037c 01000104       3174 	.byte	1,0,1,4
00000380 00000000*      3175 	.word	_CHMGeneralPrmTbl+32
00000384 0f000104       3176 	.byte	15,0,1,4
00000388 00000000*      3177 	.word	_CHMGeneralPrmTbl
0000038c 01000104       3178 	.byte	1,0,1,4
00000390 00000000*      3179 	.word	_CHMGeneralPrmTbl+64
00000394 69000101       3180 	.byte	105,0,1,1
00000398 00000000*      3181 	.word	_CHMGeneralPrmTbl+96
0000039c 6900           3182 	.byte	105,0
0000039e 01             3183 	.byte	1
0000039f 00             3184 	.space	1
000003a0 00000000*      3185 	.word	_CHMGeneralPrmTbl+32
000003a4 0f000104       3186 	.byte	15,0,1,4
000003a8 00000000*      3187 	.word	_CHMGeneralPrmTbl
000003ac 01000104       3188 	.byte	1,0,1,4
000003b0 00000000*      3189 	.word	_CHMGeneralPrmTbl
000003b4 01000104       3190 	.byte	1,0,1,4

                                                                      Page 56
                                                              C:\Users\YINGAO~1\AppData\Local\Temp\gh_00006a41.si
000003b8 00000000*      3191 	.word	_CHMGeneralPrmTbl
000003bc 01000104       3192 	.byte	1,0,1,4
000003c0 00000000*      3193 	.word	_CHMGeneralPrmTbl
000003c4 01000104       3194 	.byte	1,0,1,4
000003c8 00000000*      3195 	.word	_CHMGeneralPrmTbl+192
000003cc eeee0102       3196 	.byte	238,238,1,2
000003d0 00000000*      3197 	.word	_CHMGeneralPrmTbl+224
000003d4 eeee0102       3198 	.byte	238,238,1,2
000003d8 00000000*      3199 	.word	_CHMGeneralPrmTbl+256
000003dc eeee0102       3200 	.byte	238,238,1,2
000003e0 00000000*      3201 	.word	_CHMGeneralPrmTbl+288
000003e4 eeee0102       3202 	.byte	238,238,1,2
000003e8 00000000*      3203 	.word	_CHMGeneralPrmTbl+320
000003ec eeee0102       3204 	.byte	238,238,1,2
000003f0 00000000*      3205 	.word	_CHMGeneralPrmTbl+352
000003f4 eeee0102       3206 	.byte	238,238,1,2
000003f8 00000000*      3207 	.word	_CHMGeneralPrmTbl+384
000003fc eeee0102       3208 	.byte	238,238,1,2
00000400 00000000*      3209 	.word	_CHMGeneralPrmTbl+416
00000404 eeee0102       3210 	.byte	238,238,1,2
00000408 00000000*      3211 	.word	_CHMGeneralPrmTbl+448
0000040c eeee0102       3212 	.byte	238,238,1,2
00000410 00000000*      3213 	.word	_CHMGeneralPrmTbl+480
00000414 eeee0102       3214 	.byte	238,238,1,2
00000418 00000000*      3215 	.word	_CHMGeneralPrmTbl+512
0000041c eeee0102       3216 	.byte	238,238,1,2
00000420 00000000*      3217 	.word	_CHMGeneralPrmTbl+544
00000424 eeee0102       3218 	.byte	238,238,1,2
00000428 00000000*      3219 	.word	_CHMGeneralPrmTbl+576
0000042c eeee0102       3220 	.byte	238,238,1,2
00000430 00000000*      3221 	.word	_CHMGeneralPrmTbl+608
00000434 eeee0102       3222 	.byte	238,238,1,2
00000438 00000000*      3223 	.word	_CHMGeneralPrmTbl+640
0000043c eeee0102       3224 	.byte	238,238,1,2
00000440 00000000*      3225 	.word	_CHMGeneralPrmTbl+128
00000444 01000102       3226 	.byte	1,0,1,2
00000448 00000000*      3227 	.word	_CHMGeneralPrmTbl+160
0000044c 01000102       3228 	.byte	1,0,1,2
00000450 00000000*      3229 	.word	_CHMGeneralPrmTbl+64
00000454 69000101       3230 	.byte	105,0,1,1
00000458 00000000*      3231 	.word	_CHMGeneralPrmTbl+96
0000045c 6900           3232 	.byte	105,0
0000045e 01             3233 	.byte	1
0000045f 00             3234 	.space	1
00000460 00000000*      3235 	.word	_CHMGeneralPrmTbl
00000464 01000104       3236 	.byte	1,0,1,4
00000468 00000000*      3237 	.word	_CHMGeneralPrmTbl
0000046c 01000104       3238 	.byte	1,0,1,4
00000470 00000000*      3239 	.word	_CHMGeneralPrmTbl
00000474 01000104       3240 	.byte	1,0,1,4
00000478 00000000*      3241 	.word	_CHMGeneralPrmTbl
0000047c 01000104       3242 	.byte	1,0,1,4
00000480 00000000*      3243 	.word	_CHMGeneralPrmTbl
00000484 01000104       3244 	.byte	1,0,1,4
00000488 00000000*      3245 	.word	_CHMGeneralPrmTbl
0000048c 01000104       3246 	.byte	1,0,1,4
00000490 00000000*      3247 	.word	_CHMGeneralPrmTbl
00000494 01000104       3248 	.byte	1,0,1,4
00000498 00000000*      3249 	.word	_CHMGeneralPrmTbl+32
0000049c 2d000104       3250 	.byte	45,0,1,4
000004a0 00000000*      3251 	.word	_CHMGeneralPrmTbl+32

                                                                      Page 57
                                                              C:\Users\YINGAO~1\AppData\Local\Temp\gh_00006a41.si
000004a4 2d000104       3252 	.byte	45,0,1,4
000004a8 00000000*      3253 	.word	_CHMGeneralPrmTbl
000004ac 01000104       3254 	.byte	1,0,1,4
000004b0 00000000*      3255 	.word	_CHMGeneralPrmTbl
000004b4 01000104       3256 	.byte	1,0,1,4
000004b8 00000000*      3257 	.word	_CHMGeneralPrmTbl
000004bc 01000104       3258 	.byte	1,0,1,4
000004c0 00000000*      3259 	.word	_CHMGeneralPrmTbl
000004c4 01000104       3260 	.byte	1,0,1,4
000004c8 00000000*      3261 	.word	_CHMGeneralPrmTbl
000004cc 01000104       3262 	.byte	1,0,1,4
000004d0 00000000*      3263 	.word	_CHMGeneralPrmTbl
000004d4 01000104       3264 	.byte	1,0,1,4
000004d8 00000000*      3265 	.word	_CHMGeneralPrmTbl
000004dc 01000104       3266 	.byte	1,0,1,4
000004e0 00000000*      3267 	.word	_CHMGeneralPrmTbl
000004e4 01000104       3268 	.byte	1,0,1,4
000004e8 00000000*      3269 	.word	_CHMGeneralPrmTbl
000004ec 01000104       3270 	.byte	1,0,1,4
000004f0 00000000*      3271 	.word	_CHMGeneralPrmTbl+32
000004f4 0f000104       3272 	.byte	15,0,1,4
000004f8 00000000*      3273 	.word	_CHMGeneralPrmTbl
000004fc 01000104       3274 	.byte	1,0,1,4
00000500 00000000*      3275 	.word	_CHMGeneralPrmTbl
00000504 01000104       3276 	.byte	1,0,1,4
00000508 00000000*      3277 	.word	_CHMGeneralPrmTbl
0000050c 01000104       3278 	.byte	1,0,1,4
00000510 00000000*      3279 	.word	_CHMGeneralPrmTbl
00000514 01000104       3280 	.byte	1,0,1,4
00000518 00000000*      3281 	.word	_CHMGeneralPrmTbl
0000051c 01000104       3282 	.byte	1,0,1,4
00000520 00000000*      3283 	.word	_CHMGeneralPrmTbl
00000524 01000104       3284 	.byte	1,0,1,4
00000528 00000000*      3285 	.word	_CHMGeneralPrmTbl
0000052c 01000104       3286 	.byte	1,0,1,4
00000530 00000000*      3287 	.word	_CHMGeneralPrmTbl
00000534 01000104       3288 	.byte	1,0,1,4
00000538 00000000*      3289 	.word	_CHMGeneralPrmTbl
0000053c 01000104       3290 	.byte	1,0,1,4
00000540 00000000*      3291 	.word	_CHMGeneralPrmTbl
00000544 01000104       3292 	.byte	1,0,1,4
00000548 00000000*      3293 	.word	_CHMGeneralPrmTbl
0000054c 01000104       3294 	.byte	1,0,1,4
00000550 00000000*      3295 	.word	_CHMGeneralPrmTbl
00000554 01000104       3296 	.byte	1,0,1,4
00000558 00000000*      3297 	.word	_CHMGeneralPrmTbl
0000055c 01000104       3298 	.byte	1,0,1,4
00000560 00000000*      3299 	.word	_CHMGeneralPrmTbl
00000564 01000104       3300 	.byte	1,0,1,4
00000568 00000000*      3301 	.word	_CHMGeneralPrmTbl
0000056c 01000104       3302 	.byte	1,0,1,4
00000570 00000000*      3303 	.word	_CHMGeneralPrmTbl
00000574 01000104       3304 	.byte	1,0,1,4
00000578 00000000*      3305 	.word	_CHMGeneralPrmTbl
0000057c 01000104       3306 	.byte	1,0,1,4
00000580 00000000*      3307 	.word	_CHMGeneralPrmTbl
00000584 01000104       3308 	.byte	1,0,1,4
00000588 00000000*      3309 	.word	_CHMGeneralPrmTbl
0000058c 01000104       3310 	.byte	1,0,1,4
00000590 00000000*      3311 	.word	_CHMGeneralPrmTbl
00000594 01000104       3312 	.byte	1,0,1,4

                                                                      Page 58
                                                              C:\Users\YINGAO~1\AppData\Local\Temp\gh_00006a41.si
00000598 00000000*      3313 	.word	_CHMGeneralPrmTbl
0000059c 01000104       3314 	.byte	1,0,1,4
000005a0 00000000*      3315 	.word	_CHMGeneralPrmTbl
000005a4 01000104       3316 	.byte	1,0,1,4
000005a8 00000000*      3317 	.word	_CHMGeneralPrmTbl
000005ac 01000104       3318 	.byte	1,0,1,4
000005b0 00000000*      3319 	.word	_CHMGeneralPrmTbl
000005b4 01000104       3320 	.byte	1,0,1,4
000005b8 00000000*      3321 	.word	_CHMGeneralPrmTbl
000005bc 01000104       3322 	.byte	1,0,1,4
000005c0 00000000*      3323 	.word	_CHMGeneralPrmTbl
000005c4 01000104       3324 	.byte	1,0,1,4
000005c8 00000000*      3325 	.word	_CHMGeneralPrmTbl
000005cc 01000104       3326 	.byte	1,0,1,4
000005d0 00000000*      3327 	.word	_CHMGeneralPrmTbl
000005d4 01000104       3328 	.byte	1,0,1,4
000005d8 00000000*      3329 	.word	_CHMGeneralPrmTbl
000005dc 01000104       3330 	.byte	1,0,1,4
000005e0 00000000*      3331 	.word	_CHMGeneralPrmTbl
000005e4 01000104       3332 	.byte	1,0,1,4
000005e8 00000000*      3333 	.word	_CHMGeneralPrmTbl
000005ec 01000104       3334 	.byte	1,0,1,4
000005f0 00000000*      3335 	.word	_CHMGeneralPrmTbl
000005f4 01000104       3336 	.byte	1,0,1,4
000005f8 00000000*      3337 	.word	_CHMGeneralPrmTbl
000005fc 01000104       3338 	.byte	1,0,1,4
00000600 00000000*      3339 	.word	_CHMGeneralPrmTbl
00000604 01000104       3340 	.byte	1,0,1,4
00000608 00000000*      3341 	.word	_CHMGeneralPrmTbl
0000060c 01000104       3342 	.byte	1,0,1,4
00000610 00000000*      3343 	.word	_CHMGeneralPrmTbl
00000614 01000104       3344 	.byte	1,0,1,4
00000618 00000000*      3345 	.word	_CHMGeneralPrmTbl
0000061c 01000104       3346 	.byte	1,0,1,4
00000620 00000000*      3347 	.word	_CHMGeneralPrmTbl
00000624 01000104       3348 	.byte	1,0,1,4
00000628 00000000*      3349 	.word	_CHMGeneralPrmTbl
0000062c 01000104       3350 	.byte	1,0,1,4
00000630 00000000*      3351 	.word	_CHMGeneralPrmTbl
00000634 01000104       3352 	.byte	1,0,1,4
00000638 00000000*      3353 	.word	_CHMGeneralPrmTbl
0000063c 01000104       3354 	.byte	1,0,1,4
00000640 00000000*      3355 	.word	_CHMGeneralPrmTbl
00000644 01000104       3356 	.byte	1,0,1,4
00000648 00000000*      3357 	.word	_CHMGeneralPrmTbl
0000064c 01000104       3358 	.byte	1,0,1,4
                        3359 	.type	_Chm_ToneMatrix,@object
                        3360 	.size	_Chm_ToneMatrix,944
                        3361 	.data
                        3362 	.ghsnote version,14
                        3363 	.ghsnote tools,3
                        3364 	.ghsnote options,144
                        3365 	.text
                        3366 	.align	2
                        3367 ..eof.D.3A.5CRenesas_Electronics.5CD1x_RGL.5Crgl_ghs_D1Lx_obj_V1.2E2.2E0.5Cvlib.5Capp.5Cgfx_apps.5Csimple_draw_d1l2.5Ctarget.5Cd1lx_mango_ghs.5Cobj.5Cchm...44.3A.5CRenesas_Electronics.5CD1x_RGL.5Crgl_ghs_D1Lx_obj_V1.2E2.2E0.5Cvlib.5Capp.5Cgfx_apps.5Csimple_draw_d1l2.5Ctarget.5Cd1lx_mango_ghs..5A740374..0::
                        3368 .rh850_flags REGMODE22,DATA_ALIGN8,GP_FIX,EP_NONFIX,TP_FIX,REG2_RESERVE,G3M
