                                                                      Page 1
                                                              C:\Users\YINGAO~1\AppData\Local\Temp\gh_000086k1.si
Command Line: C:\ghs\comp_201355\ease850.exe -w -elf -b0 -I../../../../../Device -I../../../../../Driver/ADCE -I../../../../../Driver/CLOCK -I../../../../../Driver/DIO -I../../../../../Driver/DSPI -I../../../../../Driver/Interrupt -I../../../../../Driver/ISM -I../../../../../Driver/OSTM -I../../../../../Driver/PWM -I../../../../../Driver/RSTC -I../../../../../Driver/RTCA -I../../../../../Driver/STBC -I../../../../../Driver/TAUB -I../../../../../Driver/WDT -I../../../../../middleware\ADM -I../../../../../middleware\BPM -I../../../../../middleware\EED -I../../../../../middleware\IOM -I../../../../../middleware\LRM -I../../../../../middleware\MOM -I../../../../../middleware\PWMM -I../../../../../Common -I../../../../../Applayer\DSM -I../../../../../Applayer\FM -I../../../../../Applayer\TPM -I../../../../../Applayer\ACC -I../../../../../Applayer\ASS -I../../../../../Applayer\BAT -I../../../../../Applayer\COM -I../../../../../Applayer\COM\vtp -I../../../../../Applayer\COM\vtp\lib -I../../../../../Applayer\CRUS -I../../../../../Applayer\DIAG -I../../../../../Applayer\FC -I../../../../../Applayer\FL -I../../../../../Applayer\HSD -I../../../../../Applayer\IDLE -I../../../../../Applayer\ILLU -I../../../../../Applayer\LED -I../../../../../Applayer\MSG -I../../../../../Applayer\NVM -I../../../../../Applayer\ODO -I../../../../../Applayer\PWR -I../../../../../Applayer\RANG -I../../../../../Applayer\RST -I../../../../../Applayer\RTC -I../../../../../Applayer\SCS -I../../../../../Applayer\SSB -I../../../../../Applayer\ST -I../../../../../Applayer\STSMG -I../../../../../Applayer\SYS -I../../../../../Applayer\TIP -I../../../../../Applayer\TRIP -I../../../../../Applayer\CHM -I../../../../../Applayer\DM -I../../../../../Applayer\EVT -I../../../../../Applayer\FTR -I../../../../../Applayer\SLF -I../../../../../Applayer\NWD -I../../../../../Applayer\TPMS -I../../../../../Applayer\WFM -I../../../../../Applayer\NZM -I../../../../../app/gfx_apps/simple_draw_d1l2/src -I../../../../../bsp/board//config -I../../../../../bsp/board//src/gfx -I../../../../../bsp/board//src/hmi -I../../../../../bsp/board//src/stdio -I../../../../../bsp/board/d1lx_mango/config -I../../../../../bsp/board/d1lx_mango/src -I../../../../../bsp/board/d1lx_mango/src/gfx -I../../../../../bsp/board/d1lx_mango/src/hmi -I../../../../../bsp/board/d1lx_mango/src/stdio -I../../../../../bsp/gfx/lib -I../../../../../bsp/gfx/src -I../../../../../bsp/hmi/lib -I../../../../../bsp/hmi/src -I../../../../../bsp/lib -I../../../../../bsp/stdio/lib -I../../../../../bsp/stdio/src -I../../../../../cdi/lib -I../../../../../cdi/src -I../../../../../compiler/rh850_ghs/inc -I../../../../../device/d1lx/lib -I../../../../../device/d1lx/macro_cfg -I../../../../../device/d1lx/src/dev -I../../../../../device/d1lx/src/rh850_ghs -I../../../../../device/d1x_common/macro_cfg -I../../../../../device/d1x_common/src/csisw -I../../../../../device/d1x_common/src/ddb -I../../../../../device/d1x_common/src/dev -I../../../../../device/d1x_common/src/gfxbus -I../../../../../device/d1x_common/src/gpio -I../../../../../device/d1x_common/src/ostm -I../../../../../device/d1x_common/src/pbg -I../../../../../device/d1x_common/src/riic -I../../../../../device/d1x_common/src/sfma -I../../../../../device/d1x_common/src/spea -I../../../../../device/d1x_common/src/tauj -I../../../../../device/d1x_common/src/tick -I../../../../../device/d1x_common/src/vdce -I../../../../../device/d1x_common/src/wm -I../../../../../device/d1x_common/src/xbus -I../../../../../device/lib -I../../../../../macro/bus/pbg/lib -I../../../../../macro/bus/pbg/src -I../../../../../macro/csi/csisw/lib -I../../../../../macro/csi/csisw/src -I../../../../../macro/drw2d/lib -I../../../../../macro/drw2d/platform/cpu -I../../../../../macro/drw2d/platform/os/no_os -I../../../../../macro/drw2d/src -I../../../../../macro/flashc/sfcdb/lib -I../../../../../macro/flashc/sfcdb/src -I../../../../../macro/flashc/sfma/lib -I../../../../../macro/flashc/sfma/src -I../../../../../macro/gfxbus/lib -I../../../../../macro/gfxbus/src -I../../../../../macro/gfxbus/xbus/lib -I../../../../../macro/gfxbus/xbus/src -I../../../../../macro/gpio/lib -I../../../../../macro/gpio/src -I../../../../../macro/i2c/riic/lib -I../../../../../macro/i2c/riic/src -I../../../../../macro/tick/lib -I../../../../../macro/tick/src -I../../../../../macro/timer/ostm/lib -I../../../../../macro/timer/ostm/src -I../../../../../macro/timer/tauj/lib -I../../../../../macro/timer/tauj/src -I../../../../../macro/vdce/lib -I../../../../../macro/vdce/src -I../../../../../macro/vo/ddb/lib -I../../../../../macro/vo/ddb/src -I../../../../../macro/vo/spea/lib -I../../../../../macro/vo/spea/src -I../../../../../macro/wm/lib -I../../../../../macro/wm/src -I../../../../../app/gfx_apps/simple_draw_d1l2/src/QD_HMI -I../../../../../app/gfx_apps/simple_draw_d1l2/src/QD_HMI/HMI_Data -IC:\ghs\comp_201355\lib\rh850_22 -cg_underscore -cpu=rh850g3m -no_v850_simd -nomacro -patch_dbo=D:\Renesas_Electronics\D1x_RGL\rgl_ghs_D1Lx_obj_V1.2.0\vlib\app\gfx_apps\simple_draw_d1l2\target\d1lx_mango_ghs\obj\com.dbo -source=com.c -o .\obj\gh_000086k1.o -list=.\obj\com.lst C:\Users\YINGAO~1\AppData\Local\Temp\gh_000086k1.si 
Original File: C:\Users\YINGAO~1\AppData\Local\Temp\gh_000086k1.si
Source File: com.c
Directory: D:\Renesas_Electronics\D1x_RGL\rgl_ghs_D1Lx_obj_V1.2.0\vlib\app\gfx_apps\simple_draw_d1l2\target\d1lx_mango_ghs
Host OS: Windows 7 Service Pack 1
EASE: Copyright (C) 1983-2013 Green Hills Software.  All Rights Reversed.
Release: Compiler v2013.5.5
Build Directory: [Directory] BTOWINBOX:c:/build_2013_5_bto/2013-10-04.1311-2013_5_bto/win32-comp-ecom
Revision: [VCInfo] http://toolsvc/branches/release-branch-2013-5-bto/src@496240 (built by build)
Revision Date: Sat Oct 05 04:54:43 2013

Release Date: Sat Oct 05 05:20:49 2013

                           1 --Driver Command: ccv850 -c -MD -I../../../../../Device
                           2 --		-I../../../../../Driver/ADCE -I../../../../../Driver/CLOCK
                           3 --		-I../../../../../Driver/DIO -I../../../../../Driver/DSPI
                           4 --		-I../../../../../Driver/Interrupt -I../../../../../Driver/ISM
                           5 --		-I../../../../../Driver/OSTM -I../../../../../Driver/PWM
                           6 --		-I../../../../../Driver/RSTC -I../../../../../Driver/RTCA
                           7 --		-I../../../../../Driver/STBC -I../../../../../Driver/TAUB
                           8 --		-I../../../../../Driver/WDT -I../../../../../middleware\ADM
                           9 --		-I../../../../../middleware\BPM -I../../../../../middleware\EED
                          10 --		-I../../../../../middleware\IOM -I../../../../../middleware\LRM
                          11 --		-I../../../../../middleware\MOM -I../../../../../middleware\PWMM
                          12 --		-I../../../../../Common -I../../../../../Applayer\DSM
                          13 --		-I../../../../../Applayer\FM -I../../../../../Applayer\TPM
                          14 --		-I../../../../../Applayer\ACC -I../../../../../Applayer\ASS
                          15 --		-I../../../../../Applayer\BAT -I../../../../../Applayer\COM
                          16 --		-I../../../../../Applayer\COM\vtp
                          17 --		-I../../../../../Applayer\COM\vtp\lib
                          18 --		-I../../../../../Applayer\CRUS -I../../../../../Applayer\DIAG
                          19 --		-I../../../../../Applayer\FC -I../../../../../Applayer\FL
                          20 --		-I../../../../../Applayer\HSD -I../../../../../Applayer\IDLE
                          21 --		-I../../../../../Applayer\ILLU -I../../../../../Applayer\LED
                          22 --		-I../../../../../Applayer\MSG -I../../../../../Applayer\NVM
                          23 --		-I../../../../../Applayer\ODO -I../../../../../Applayer\PWR
                          24 --		-I../../../../../Applayer\RANG -I../../../../../Applayer\RST
                          25 --		-I../../../../../Applayer\RTC -I../../../../../Applayer\SCS
                          26 --		-I../../../../../Applayer\SSB -I../../../../../Applayer\ST
                          27 --		-I../../../../../Applayer\STSMG -I../../../../../Applayer\SYS
                          28 --		-I../../../../../Applayer\TIP -I../../../../../Applayer\TRIP
                          29 --		-I../../../../../Applayer\CHM -I../../../../../Applayer\DM
                          30 --		-I../../../../../Applayer\EVT -I../../../../../Applayer\FTR
                          31 --		-I../../../../../Applayer\SLF -I../../../../../Applayer\NWD
                          32 --		-I../../../../../Applayer\TPMS -I../../../../../Applayer\WFM
                          33 --		-I../../../../../Applayer\NZM
                          34 --		-I../../../../../app/gfx_apps/simple_draw_d1l2/src
                          35 --		-I../../../../../bsp/board//config
                          36 --		-I../../../../../bsp/board//src/gfx
                          37 --		-I../../../../../bsp/board//src/hmi
                          38 --		-I../../../../../bsp/board//src/stdio
                          39 --		-I../../../../../bsp/board/d1lx_mango/config
                          40 --		-I../../../../../bsp/board/d1lx_mango/src
                          41 --		-I../../../../../bsp/board/d1lx_mango/src/gfx
                          42 --		-I../../../../../bsp/board/d1lx_mango/src/hmi
                          43 --		-I../../../../../bsp/board/d1lx_mango/src/stdio
                          44 --		-I../../../../../bsp/gfx/lib -I../../../../../bsp/gfx/src
                          45 --		-I../../../../../bsp/hmi/lib -I../../../../../bsp/hmi/src
                          46 --		-I../../../../../bsp/lib -I../../../../../bsp/stdio/lib
                          47 --		-I../../../../../bsp/stdio/src -I../../../../../cdi/lib
                          48 --		-I../../../../../cdi/src -I../../../../../compiler/rh850_ghs/inc
                          49 --		-I../../../../../device/d1lx/lib
                          50 --		-I../../../../../device/d1lx/macro_cfg

                                                                      Page 2
                                                              C:\Users\YINGAO~1\AppData\Local\Temp\gh_000086k1.si
                          51 --		-I../../../../../device/d1lx/src/dev
                          52 --		-I../../../../../device/d1lx/src/rh850_ghs
                          53 --		-I../../../../../device/d1x_common/macro_cfg
                          54 --		-I../../../../../device/d1x_common/src/csisw
                          55 --		-I../../../../../device/d1x_common/src/ddb
                          56 --		-I../../../../../device/d1x_common/src/dev
                          57 --		-I../../../../../device/d1x_common/src/gfxbus
                          58 --		-I../../../../../device/d1x_common/src/gpio
                          59 --		-I../../../../../device/d1x_common/src/ostm
                          60 --		-I../../../../../device/d1x_common/src/pbg
                          61 --		-I../../../../../device/d1x_common/src/riic
                          62 --		-I../../../../../device/d1x_common/src/sfma
                          63 --		-I../../../../../device/d1x_common/src/spea
                          64 --		-I../../../../../device/d1x_common/src/tauj
                          65 --		-I../../../../../device/d1x_common/src/tick
                          66 --		-I../../../../../device/d1x_common/src/vdce
                          67 --		-I../../../../../device/d1x_common/src/wm
                          68 --		-I../../../../../device/d1x_common/src/xbus
                          69 --		-I../../../../../device/lib -I../../../../../macro/bus/pbg/lib
                          70 --		-I../../../../../macro/bus/pbg/src
                          71 --		-I../../../../../macro/csi/csisw/lib
                          72 --		-I../../../../../macro/csi/csisw/src
                          73 --		-I../../../../../macro/drw2d/lib
                          74 --		-I../../../../../macro/drw2d/platform/cpu
                          75 --		-I../../../../../macro/drw2d/platform/os/no_os
                          76 --		-I../../../../../macro/drw2d/src
                          77 --		-I../../../../../macro/flashc/sfcdb/lib
                          78 --		-I../../../../../macro/flashc/sfcdb/src
                          79 --		-I../../../../../macro/flashc/sfma/lib
                          80 --		-I../../../../../macro/flashc/sfma/src
                          81 --		-I../../../../../macro/gfxbus/lib
                          82 --		-I../../../../../macro/gfxbus/src
                          83 --		-I../../../../../macro/gfxbus/xbus/lib
                          84 --		-I../../../../../macro/gfxbus/xbus/src
                          85 --		-I../../../../../macro/gpio/lib -I../../../../../macro/gpio/src
                          86 --		-I../../../../../macro/i2c/riic/lib
                          87 --		-I../../../../../macro/i2c/riic/src
                          88 --		-I../../../../../macro/tick/lib -I../../../../../macro/tick/src
                          89 --		-I../../../../../macro/timer/ostm/lib
                          90 --		-I../../../../../macro/timer/ostm/src
                          91 --		-I../../../../../macro/timer/tauj/lib
                          92 --		-I../../../../../macro/timer/tauj/src
                          93 --		-I../../../../../macro/vdce/lib -I../../../../../macro/vdce/src
                          94 --		-I../../../../../macro/vo/ddb/lib
                          95 --		-I../../../../../macro/vo/ddb/src
                          96 --		-I../../../../../macro/vo/spea/lib
                          97 --		-I../../../../../macro/vo/spea/src -I../../../../../macro/wm/lib
                          98 --		-I../../../../../macro/wm/src
                          99 --		-I../../../../../app/gfx_apps/simple_draw_d1l2/src/QD_HMI
                         100 --		-I../../../../../app/gfx_apps/simple_draw_d1l2/src/QD_HMI/HMI_Data
                         101 --		-G --no_commons --no_implicit_include --prototype_errors
                         102 --		-DR_DRW2D_OS_NO_OS -DR_DRW2D_SYS_CPU -DUSED_CPU=RH850G3M
                         103 --		-DUSE_BSP_GFX -DUSE_BSP_HMI -DUSE_BSP_STDIO -DUSE_CDI -DUSE_CSISW
                         104 --		-DUSE_DDB -DUSE_DRW2D -DUSE_GFXBUS -DUSE_GPIO -DUSE_OSTM
                         105 --		-DUSE_PBG -DUSE_RIIC -DUSE_SFCDB -DUSE_SFMA -DUSE_SPEA -DUSE_TAUJ
                         106 --		-DUSE_TICK -DUSE_VDCE -DUSE_WM -DUSE_XBUS -MD -Mn -Mx -Zuse1bit
                         107 --		-allocate_ep -cpu=rh850g3m -entry=_RESET -large_sda -list
                         108 --		-no_callt -notda -passsource -preprocess_assembly_files
                         109 --		-registermode=22 -reserve_r2 --diag_warning 1 -object_dir=./obj
                         110 --		-filetype.c
                         111 --		D:\Renesas_Electronics\D1x_RGL\rgl_ghs_D1Lx_obj_V1.2.0\vlib\Applayer\COM\com.c

                                                                      Page 3
                                                              C:\Users\YINGAO~1\AppData\Local\Temp\gh_000086k1.si
                         112 --		-o .\obj\com.o
                         113 --Source File:   D:\Renesas_Electronics\D1x_RGL\rgl_ghs_D1Lx_obj_V1.2.0\vlib\Applayer\COM\com.c
                         114 --Directory:     
                         115 --		D:\Renesas_Electronics\D1x_RGL\rgl_ghs_D1Lx_obj_V1.2.0\vlib\app\gfx_apps\simple_draw_d1l2\target\d1lx_mango_ghs
                         116 --Compile Date:  Fri Feb 02 14:21:38 2018
                         117 --Host OS:       Win32
                         118 --Version:       C-RH850 2013.5.5 DEVELOPMENT VERSION
                         119 --Release:       Compiler v2013.5.5
                         120 --Revision Date: Sat Oct 05 05:01:20 2013
                         121 --Release Date:  Sat Oct 05 05:22:44 2013
                         122 -- ecom  -g -w
                         123 
                         124 --1: /*****************************************************************************
                         125 --2: * Copyright (C) 2016 ShenZhen Yeedon Media co.,LTD. All rights reserved.
                         126 --3: *
                         127 --4: * File Name : com.c
                         128 --5: * Description :the private datas of the com module.
                         129 --6: * Author: Yingying.Liu
                         130 --7: * Date: 2016-12-12
                         131 --8: ******************************************************************************/
                         132 --9: /* Files for including */
                         133 --10: #include "r_typedefs.h"
                         134 --12: #include "com_info.inc"
                         135 --13: #include "dio_public.h"
                         136 --14: #include "r_tick_api.h"
                         137 --16: #include "r_dev_pin_types.h"
                         138 --17: #include "clock_public.h"
                         139 --21: extern const v_nwm_instance_handle nwm_instances[1];
                         140 --22: extern v_nwm_instance nwm_slave_instance;
                         141 --23: static COMWakeUpSource_ENUM com_NetWake = SOURCE_COM_NONE;
                         142 --24: static BOOL com_InitSts = FALSE;
                         143 --25: static U8 com_GCounter = 0;
                         144 --26: static U8 isNetWorkStoped = FALSE;
                         145 --27: static BOOL com_SSBPress = FALSE;
                         146 --28: static SSBData_ST com_ssbKey;
                         147 --29: static v_nwm_state current_nwm_state;
                         148 --30: static U8 netWakeUp = FALSE;
                         149 --31: static U8 L_PDCSysSts = 0;
                         150 --32: static U8 L_RLObsRng = 0;
                         151 --33: static U8 L_RRObsRng = 0;
                         152 --34: static U8 L_RrMidLObsRng = 0;
                         153 --35: static U8 L_RrMidRObsRng = 0;
                         154 --36: static U8 L_PDCConfigSts = 0;
                         155 --37: static U32 com_DisPlayspeed = 0;
                         156 --38: static U8 com_TrShftLvrPos = 0;
                         157 --39: static U8 com_TrShftLvrPosV = 0;;
                         158 --40: static U8 com_MstrSysPwrMd = 0;
                         159 --41: static U8 com_NetWorkModeSleepFlg = FALSE;
                         160 --43: #define PIPC0             *((volatile v_uint16 *)0xffc20008ul)
                         161 --44: #define PFC0              *((volatile v_uint16 *)0xff618018ul)
                         162 --45: #define PFCE0             *((volatile v_uint16 *)0xff61801cul)
                         163 --46: #define PM0               *((volatile v_uint16 *)0xff618010ul)
                         164 --47: #define PMC0              *((volatile v_uint16 *)0xff618014ul)
                         165 --48: #define P0                *((volatile v_uint16 *)0xff618000ul)
                         166 --50: #define PM1               *((volatile v_uint16 *)0xff610050ul)
                         167 --51: #define PMC1              *((volatile v_uint16 *)0xff610054ul)
                         168 --52: #define P1                *((volatile v_uint16 *)0xff610040ul)
                         169 --55: /***************************************************
                         170 --56: * Function: COM_Init
                         171 --57: * Description: the initialized of the COM module
                         172 --58: * Parameters:  none

                                                                      Page 4
                                                              C:\Users\YINGAO~1\AppData\Local\Temp\gh_000086k1.si
                         173 --59: * Returns: none
                         174 --60: * $Create & Verlog:$
                         175 --61: * Author:Yingying.Liu  Date:2016-12-12   Version:V1.0
                         176 --62: ****************************************************/
                         177 --65: void COM_Init(void)
                         178 	.text
                         179 ..bof.D.3A.5CRenesas_Electronics.5CD1x_RGL.5Crgl_ghs_D1Lx_obj_V1.2E2.2E0.5Cvlib.5Capp.5Cgfx_apps.5Csimple_draw_d1l2.5Ctarget.5Cd1lx_mango_ghs.5Cobj.5Ccom...44.3A.5CRenesas_Electronics.5CD1x_RGL.5Crgl_ghs_D1Lx_obj_V1.2E2.2E0.5Cvlib.5Capp.5Cgfx_apps.5Csimple_draw_d1l2.5Ctarget.5Cd1lx_mango_ghs..5A740373..0::
                         180 	.align	2
                         181 	.global	_COM_Init
                         182 _COM_Init:
00000000 8207e170        183 	prepare	{r25,r26,r27,r28,r29,r31},1
00000004 3d0600000000*   184 	mov	.L124,r29
0000000a 3c06400061ff    185 	mov	-10420160,r28
00000010 3a0600000000*   186 	mov	_v_controllers,r26
00000016 390600000000*   187 	mov	_nwm_slave_instance,r25
                         188 --	    .bf
                         189 .LDW01:
                         190 --66: {
                         191 --67: 	U8 res = INVALID;
0000001c 01da            192 	mov	1,r27
                         193 --69: 	com_ssbKey.status = INACTIVE;
0000001e 2b0600000000*   194 	mov	_com_ssbKey,r11
00000024 4b070000        195 	st.b	zero,0[r11]
                         196 --70: 	com_ssbKey.valid = VALID;
00000028 2b0600000000*   197 	mov	_com_ssbKey+1,r11
0000002e 4b070000        198 	st.b	zero,0[r11]
                         199 --71:     com_NetWorkModeSleepFlg = FALSE;
00000032 5d071400        200 	st.b	zero,20[r29]
                         201 --74: 	SYS.PROTCMDD1.UINT32 =0XA5;
00000036 200ea500        202 	movea	165,zero,r1
0000003a 80070f08e0f0    203 	st.w	r1,4294471680[zero]
                         204 --75: 	SYS.CKSC_IPCRSCANS_CTL.UINT32 =0x00000001;
00000040 010a            205 	mov	1,r1
00000042 80070f0ca4f0    206 	st.w	r1,4294464064[zero]
                         207 --76: 	SYS.CKSC_IPCRSCANS_CTL.UINT32 =~(0x00000001);
00000048 1e0a            208 	mov	-2,r1
0000004a 80070f0ca4f0    209 	st.w	r1,4294464064[zero]
                         210 --77: 	SYS.CKSC_IPCRSCANS_CTL.UINT32 =0x00000001;
00000050 010a            211 	mov	1,r1
00000052 80070f0ca4f0    212 	st.w	r1,4294464064[zero]
                         213 --78: 	while (( SYS.CKSC_IPCRSCANS_ACT.UINT32 & 0x00000001) != 0x1);
00000058 0000            214 	nop
                         215 .L4:
0000005a 8007890ca4f0    216 	ld.w	4294464072[zero],r1
00000060 810a            217 	shr	1,r1
00000062 c9fd*           218 	bnl	.L4
                         219 --81: 	SYS.PROTCMDD1.UINT32 =0XA5;
                         220 --line81
                         221 ..lin.D.3A.5CRenesas_Electronics.5CD1x_RGL.5Crgl_ghs_D1Lx_obj_V1.2E2.2E0.5Cvlib.5Capp.5Cgfx_apps.5Csimple_draw_d1l2.5Ctarget.5Cd1lx_mango_ghs.5Cobj.5Ccom.1::
                         222 .LDWlin1:
00000064 200ea500        223 	movea	165,zero,r1
00000068 80070f08e0f0    224 	st.w	r1,4294471680[zero]
                         225 --82: 	SYS.CKSC_IRLINS_CTL.UINT32 = 0x00000001;
0000006e 010a            226 	mov	1,r1
00000070 80070f08aaf0    227 	st.w	r1,4294464768[zero]
                         228 --83: 	SYS.CKSC_IRLINS_CTL.UINT32 = ~(0x00000001);
00000076 1e0a            229 	mov	-2,r1
00000078 80070f08aaf0    230 	st.w	r1,4294464768[zero]
                         231 --84: 	SYS.CKSC_IRLINS_CTL.UINT32 = 0x00000001;
0000007e 010a            232 	mov	1,r1
00000080 80070f08aaf0    233 	st.w	r1,4294464768[zero]

                                                                      Page 5
                                                              C:\Users\YINGAO~1\AppData\Local\Temp\gh_000086k1.si
                         234 --85: 	while ((SYS.CKSC_IRLINS_ACT.UINT32 & 0x00000002) != 0x2);
00000086 0000            235 	nop
                         236 .L7:
00000088 80078908aaf0    237 	ld.w	4294464776[zero],r1
0000008e 820a            238 	shr	2,r1
00000090 c9fd*           239 	bnl	.L7
                         240 --87: 	PMC1 = 0;
                         241 --line87
                         242 ..lin.D.3A.5CRenesas_Electronics.5CD1x_RGL.5Crgl_ghs_D1Lx_obj_V1.2E2.2E0.5Cvlib.5Capp.5Cgfx_apps.5Csimple_draw_d1l2.5Ctarget.5Cd1lx_mango_ghs.5Cobj.5Ccom.2::
                         243 .LDWlin2:
00000092 1cf61400        244 	addi	20,r28,ep
00000096 8004            245 	sst.h	zero,0[ep]
                         246 --88: 	PM1 = (v_uint16)0;
00000098 1cf61000        247 	addi	16,r28,ep
0000009c 8004            248 	sst.h	zero,0[ep]
                         249 --89: 	P1 |= (v_uint16)(1<<0);
0000009e fc0f0100        250 	ld.hu	0[r28],r1
000000a2 810e0100        251 	ori	1,r1,r1
000000a6 7c0f0000        252 	st.h	r1,0[r28]
                         253 --90: 	PFCE0 |= (0x030);
000000aa 1cf6dc7f        254 	addi	32732,r28,ep
000000ae 7008            255 	sld.hu	0[ep],r1
000000b0 810e3000        256 	ori	48,r1,r1
000000b4 800c            257 	sst.h	r1,0[ep]
                         258 --91: 	PFC0  |= (0x030);
000000b6 1cf6d87f        259 	addi	32728,r28,ep
000000ba 7008            260 	sld.hu	0[ep],r1
000000bc 810e3000        261 	ori	48,r1,r1
000000c0 800c            262 	sst.h	r1,0[ep]
                         263 --92: 	PIPC0 &= 0xFE0F;
000000c2 a00787080084    264 	ld.hu	4290904072[zero],r1
000000c8 c10e0ffe        265 	andi	65039,r1,r1
000000cc a0078d080084    266 	st.h	r1,4290904072[zero]
                         267 --93: 	PMC0  |= (0x1B0);     
000000d2 1cf6d47f        268 	addi	32724,r28,ep
000000d6 7008            269 	sld.hu	0[ep],r1
000000d8 810eb001        270 	ori	432,r1,r1
000000dc 800c            271 	sst.h	r1,0[ep]
                         272 --94: 	PM0   = ((PM0&(~0x1B0))|0x0A0);
000000de 400e62ff        273 	movhi	65378,zero,r1
000000e2 20764ffe        274 	movea	-433,zero,r14
000000e6 e10f1180        275 	ld.hu	-32752[r1],r1
000000ea 1cf6d07f        276 	addi	32720,r28,ep
000000ee 4e09            277 	and	r14,r1
000000f0 810ea000        278 	ori	160,r1,r1
000000f4 800c            279 	sst.h	r1,0[ep]
                         280 --96: 	R_TICK_WaitMS(0,50);
000000f6 0032            281 	mov	0,r6
000000f8 203e3200        282 	movea	50,zero,r7
                         283 	jarl	_R_TICK_WaitMS,lp
                         283 <EXPANSION BEGIN>
                         283 jarl22 _R_TICK_WaitMS , lp 
000000fc 80ff0000*       283 <EXPANSION END>
                         284 --98: 	res =v_nwm_init(v_config_handle, nwm_instances, 1 );
                         285 --line98
                         286 ..lin.D.3A.5CRenesas_Electronics.5CD1x_RGL.5Crgl_ghs_D1Lx_obj_V1.2E2.2E0.5Cvlib.5Capp.5Cgfx_apps.5Csimple_draw_d1l2.5Ctarget.5Cd1lx_mango_ghs.5Cobj.5Ccom.3::
                         287 .LDWlin3:
00000100 40363f00        288 	movhi	hi(4128768),zero,r6
00000104 0142            289 	mov	1,r8
00000106 270600000000*   290 	mov	_nwm_instances,r7
                         291 	jarl	_v_nwm_init,lp

                                                                      Page 6
                                                              C:\Users\YINGAO~1\AppData\Local\Temp\gh_000086k1.si
                         291 <EXPANSION BEGIN>
                         291 jarl22 _v_nwm_init , lp 
0000010c 80ff0000*       291 <EXPANSION END>
00000110 0ad8            292 	mov	r10,r27
                         293 --99: 	if(FALSE != res)
                         294 --line99
                         295 ..lin.D.3A.5CRenesas_Electronics.5CD1x_RGL.5Crgl_ghs_D1Lx_obj_V1.2E2.2E0.5Cvlib.5Capp.5Cgfx_apps.5Csimple_draw_d1l2.5Ctarget.5Cd1lx_mango_ghs.5Cobj.5Ccom.4::
                         296 .LDWlin4:
00000112 e0d9            297 	cmp	zero,r27
00000114 b205*           298 	be	.L15
                         299 --100: 	{
                         300 --101: 		while(1)
                         301 --line101
                         302 ..lin.D.3A.5CRenesas_Electronics.5CD1x_RGL.5Crgl_ghs_D1Lx_obj_V1.2E2.2E0.5Cvlib.5Capp.5Cgfx_apps.5Csimple_draw_d1l2.5Ctarget.5Cd1lx_mango_ghs.5Cobj.5Ccom.5::
                         303 .LDWlin5:
00000116 0000            304 	nop
                         305 .L14:
                         306 --102: 		{
00000118 8505*           307 	br	.L14
                         308 .L15:
                         309 --103: 		}
                         310 --104: 	}
                         311 --105: 	else
                         312 --106: 	{
                         313 --107: 	}
                         314 --109: 	/*---------------------------------------------------------------
                         315 --110: 	author:liuyingying
                         316 --111: 	date:2017-02-24
                         317 --112: 	to reslove the following problem:
                         318 --113: 	bug: ipk need 15000ms to sleep,ssb key can not trigger req frame event
                         319 --114: 	---------------------------------------------------------------*/
                         320 --115: 	v_nwm_stop(&nwm_slave_instance);
                         321 --line115
                         322 ..lin.D.3A.5CRenesas_Electronics.5CD1x_RGL.5Crgl_ghs_D1Lx_obj_V1.2E2.2E0.5Cvlib.5Capp.5Cgfx_apps.5Csimple_draw_d1l2.5Ctarget.5Cd1lx_mango_ghs.5Cobj.5Ccom.6::
                         323 .LDWlin6:
0000011a 1930            324 	mov	r25,r6
                         325 	jarl	_v_nwm_stop,lp
                         325 <EXPANSION BEGIN>
                         325 jarl22 _v_nwm_stop , lp 
0000011c 80ff0000*       325 <EXPANSION END>
                         326 --116: 	v_output(IPK_CAN_HS_handle);
                         327 --line116
                         328 ..lin.D.3A.5CRenesas_Electronics.5CD1x_RGL.5Crgl_ghs_D1Lx_obj_V1.2E2.2E0.5Cvlib.5Capp.5Cgfx_apps.5Csimple_draw_d1l2.5Ctarget.5Cd1lx_mango_ghs.5Cobj.5Ccom.7::
                         329 .LDWlin7:
00000120 1a30            330 	mov	r26,r6
                         331 	jarl	_v_output,lp
                         331 <EXPANSION BEGIN>
                         331 jarl22 _v_output , lp 
00000122 80ff0000*       331 <EXPANSION END>
                         332 --118: 	com_nwm_process();
                         333 --line118
                         334 ..lin.D.3A.5CRenesas_Electronics.5CD1x_RGL.5Crgl_ghs_D1Lx_obj_V1.2E2.2E0.5Cvlib.5Capp.5Cgfx_apps.5Csimple_draw_d1l2.5Ctarget.5Cd1lx_mango_ghs.5Cobj.5Ccom.8::
                         335 .LDWlin8:
                         336 	jarl	_com_nwm_process,lp
                         336 <EXPANSION BEGIN>
                         336 jarl22 _com_nwm_process , lp 
00000126 80ffd201*       336 <EXPANSION END>
                         337 --119: 	com_nwm_process();
                         338 --line119
                         339 ..lin.D.3A.5CRenesas_Electronics.5CD1x_RGL.5Crgl_ghs_D1Lx_obj_V1.2E2.2E0.5Cvlib.5Capp.5Cgfx_apps.5Csimple_draw_d1l2.5Ctarget.5Cd1lx_mango_ghs.5Cobj.5Ccom.9::
                         340 .LDWlin9:

                                                                      Page 7
                                                              C:\Users\YINGAO~1\AppData\Local\Temp\gh_000086k1.si
                         341 	jarl	_com_nwm_process,lp
                         341 <EXPANSION BEGIN>
                         341 jarl22 _com_nwm_process , lp 
0000012a 80ffce01*       341 <EXPANSION END>
                         342 --120: 	if(INDEX_STBC_INTP5 == STBC_GetWakeUpType())
                         343 --line120
                         344 ..lin.D.3A.5CRenesas_Electronics.5CD1x_RGL.5Crgl_ghs_D1Lx_obj_V1.2E2.2E0.5Cvlib.5Capp.5Cgfx_apps.5Csimple_draw_d1l2.5Ctarget.5Cd1lx_mango_ghs.5Cobj.5Ccom.10::
                         345 .LDWlin10:
                         346 	jarl	_STBC_GetWakeUpType,lp
                         346 <EXPANSION BEGIN>
                         346 jarl22 _STBC_GetWakeUpType , lp 
0000012e 80ff0000*       346 <EXPANSION END>
00000132 6652            347 	cmp	6,r10
00000134 ca05*           348 	bne	.L18
                         349 --121: 	{
                         350 --122: 		v_nwm_net_com_req(&nwm_slave_instance);
                         351 --line122
                         352 ..lin.D.3A.5CRenesas_Electronics.5CD1x_RGL.5Crgl_ghs_D1Lx_obj_V1.2E2.2E0.5Cvlib.5Capp.5Cgfx_apps.5Csimple_draw_d1l2.5Ctarget.5Cd1lx_mango_ghs.5Cobj.5Ccom.11::
                         353 .LDWlin11:
00000136 1930            354 	mov	r25,r6
                         355 	jarl	_v_nwm_net_com_req,lp
                         355 <EXPANSION BEGIN>
                         355 jarl22 _v_nwm_net_com_req , lp 
00000138 80ff0000*       355 <EXPANSION END>
                         356 .L18:
                         357 --123: 	}
                         358 --124: 	else
                         359 --125: 	{
                         360 --126: 	}
                         361 --128: 	/*LIN INITIALIZE=====START*/
                         362 --129: 	res = v_ctl_init(IPK_LIN3_handle);
                         363 --line129
                         364 ..lin.D.3A.5CRenesas_Electronics.5CD1x_RGL.5Crgl_ghs_D1Lx_obj_V1.2E2.2E0.5Cvlib.5Capp.5Cgfx_apps.5Csimple_draw_d1l2.5Ctarget.5Cd1lx_mango_ghs.5Cobj.5Ccom.12::
                         365 .LDWlin12:
0000013c 1a365800        366 	addi	88,r26,r6
                         367 	jarl	_v_ctl_init,lp
                         367 <EXPANSION BEGIN>
                         367 jarl22 _v_ctl_init , lp 
00000140 80ff0000*       367 <EXPANSION END>
00000144 0ad8            368 	mov	r10,r27
                         369 --130: 	/*initialize failed*/
                         370 --131: 	if(FALSE != res)
                         371 --line131
                         372 ..lin.D.3A.5CRenesas_Electronics.5CD1x_RGL.5Crgl_ghs_D1Lx_obj_V1.2E2.2E0.5Cvlib.5Capp.5Cgfx_apps.5Csimple_draw_d1l2.5Ctarget.5Cd1lx_mango_ghs.5Cobj.5Ccom.13::
                         373 .LDWlin13:
00000146 e0d9            374 	cmp	zero,r27
00000148 b205*           375 	be	.L24
                         376 --132: 	{
                         377 --133: 		while(1)
                         378 --line133
                         379 ..lin.D.3A.5CRenesas_Electronics.5CD1x_RGL.5Crgl_ghs_D1Lx_obj_V1.2E2.2E0.5Cvlib.5Capp.5Cgfx_apps.5Csimple_draw_d1l2.5Ctarget.5Cd1lx_mango_ghs.5Cobj.5Ccom.14::
                         380 .LDWlin14:
0000014a 0000            381 	nop
                         382 .L23:
                         383 --134: 		{
0000014c 8505*           384 	br	.L23
                         385 .L24:
                         386 --135: 		}
                         387 --136: 	}
                         388 --137: 	else
                         389 --138: 	{

                                                                      Page 8
                                                              C:\Users\YINGAO~1\AppData\Local\Temp\gh_000086k1.si
                         390 --139: 	}
                         391 --140: 	
                         392 --141: 	/*v_ctl_con connect the LIN controller to the network*/
                         393 --142: 	v_ctl_con(IPK_LIN3_handle);
                         394 --line142
                         395 ..lin.D.3A.5CRenesas_Electronics.5CD1x_RGL.5Crgl_ghs_D1Lx_obj_V1.2E2.2E0.5Cvlib.5Capp.5Cgfx_apps.5Csimple_draw_d1l2.5Ctarget.5Cd1lx_mango_ghs.5Cobj.5Ccom.15::
                         396 .LDWlin15:
0000014e 1a365800        397 	addi	88,r26,r6
                         398 	jarl	_v_ctl_con,lp
                         398 <EXPANSION BEGIN>
                         398 jarl22 _v_ctl_con , lp 
00000152 80ff0000*       398 <EXPANSION END>
                         399 --143: 	/*qlz SUPPORT*/
                         400 --144: 	v_l_sch_set(IPK_LIN3_handle,FM_Normal_L3_handle,1);
                         401 --line144
                         402 ..lin.D.3A.5CRenesas_Electronics.5CD1x_RGL.5Crgl_ghs_D1Lx_obj_V1.2E2.2E0.5Cvlib.5Capp.5Cgfx_apps.5Csimple_draw_d1l2.5Ctarget.5Cd1lx_mango_ghs.5Cobj.5Ccom.16::
                         403 .LDWlin16:
00000156 1a365800        404 	addi	88,r26,r6
0000015a 0142            405 	mov	1,r8
0000015c 2706c4403f00    406 	mov	4145348,r7
                         407 	jarl	_v_l_sch_set,lp
                         407 <EXPANSION BEGIN>
                         407 jarl22 _v_l_sch_set , lp 
00000162 80ff0000*       407 <EXPANSION END>
                         408 --146: 	com_InitSts = TRUE;
                         409 --line146
                         410 ..lin.D.3A.5CRenesas_Electronics.5CD1x_RGL.5Crgl_ghs_D1Lx_obj_V1.2E2.2E0.5Cvlib.5Capp.5Cgfx_apps.5Csimple_draw_d1l2.5Ctarget.5Cd1lx_mango_ghs.5Cobj.5Ccom.17::
                         411 .LDWlin17:
00000166 010a            412 	mov	1,r1
00000168 5d0f0800        413 	st.b	r1,8[r29]
                         414 --147: }
0000016c 0000            415 	nop
                         416 --	    .ef
                         417 .LDW11:
0000016e 4206ff70        418 	dispose	1,{r25,r26,r27,r28,r29,r31},[lp]
                         419 	.type	_COM_Init,@function
                         420 	.size	_COM_Init,.-_COM_Init
                         421 	.align	2
                         422 .LDW21:
                         423 --_res	r27	local
                         424 
                         425 	.data
                         426 	.align	4
                         427 .L124:
                         428 	.type	.L124,@object
                         429 	.size	.L124,0
                         430 	.global	_com_NetWake..D.3A.5CRenesas_Electronics.5CD1x_RGL.5Crgl_ghs_D1Lx_obj_V1.2E2.2E0.5Cvlib.5Capp.5Cgfx_apps.5Csimple_draw_d1l2.5Ctarget.5Cd1lx_mango_ghs.5Cobj.5Ccom.
                         431 _com_NetWake..D.3A.5CRenesas_Electronics.5CD1x_RGL.5Crgl_ghs_D1Lx_obj_V1.2E2.2E0.5Cvlib.5Capp.5Cgfx_apps.5Csimple_draw_d1l2.5Ctarget.5Cd1lx_mango_ghs.5Cobj.5Ccom.:
                         432 	.type	_com_NetWake..D.3A.5CRenesas_Electronics.5CD1x_RGL.5Crgl_ghs_D1Lx_obj_V1.2E2.2E0.5Cvlib.5Capp.5Cgfx_apps.5Csimple_draw_d1l2.5Ctarget.5Cd1lx_mango_ghs.5Cobj.5Ccom.,@object
                         433 	.size	_com_NetWake..D.3A.5CRenesas_Electronics.5CD1x_RGL.5Crgl_ghs_D1Lx_obj_V1.2E2.2E0.5Cvlib.5Capp.5Cgfx_apps.5Csimple_draw_d1l2.5Ctarget.5Cd1lx_mango_ghs.5Cobj.5Ccom.,4
00000000 00000000        434 _com_NetWake:	.byte	0,0,0,0
                         435 	.type	_com_NetWake,@object
                         436 	.size	_com_NetWake,4
                         437 	.section ".bss","awb"
                         438 	.align	4
                         439 	.global	_current_nwm_state..D.3A.5CRenesas_Electronics.5CD1x_RGL.5Crgl_ghs_D1Lx_obj_V1.2E2.2E0.5Cvlib.5Capp.5Cgfx_apps.5Csimple_draw_d1l2.5Ctarget.5Cd1lx_mango_ghs.5Cobj.5Ccom.
                         440 _current_nwm_state..D.3A.5CRenesas_Electronics.5CD1x_RGL.5Crgl_ghs_D1Lx_obj_V1.2E2.2E0.5Cvlib.5Capp.5Cgfx_apps.5Csimple_draw_d1l2.5Ctarget.5Cd1lx_mango_ghs.5Cobj.5Ccom.:
                         441 	.type	_current_nwm_state..D.3A.5CRenesas_Electronics.5CD1x_RGL.5Crgl_ghs_D1Lx_obj_V1.2E2.2E0.5Cvlib.5Capp.5Cgfx_apps.5Csimple_draw_d1l2.5Ctarget.5Cd1lx_mango_ghs.5Cobj.5Ccom.,@object
                         442 	.size	_current_nwm_state..D.3A.5CRenesas_Electronics.5CD1x_RGL.5Crgl_ghs_D1Lx_obj_V1.2E2.2E0.5Cvlib.5Capp.5Cgfx_apps.5Csimple_draw_d1l2.5Ctarget.5Cd1lx_mango_ghs.5Cobj.5Ccom.,4
00000000 00000000        443 _current_nwm_state:	.space	4
                         444 	.type	_current_nwm_state,@object

                                                                      Page 9
                                                              C:\Users\YINGAO~1\AppData\Local\Temp\gh_000086k1.si
                         445 	.size	_current_nwm_state,4
                         446 	.data
                         447 	.global	_com_DisPlayspeed..D.3A.5CRenesas_Electronics.5CD1x_RGL.5Crgl_ghs_D1Lx_obj_V1.2E2.2E0.5Cvlib.5Capp.5Cgfx_apps.5Csimple_draw_d1l2.5Ctarget.5Cd1lx_mango_ghs.5Cobj.5Ccom.
                         448 _com_DisPlayspeed..D.3A.5CRenesas_Electronics.5CD1x_RGL.5Crgl_ghs_D1Lx_obj_V1.2E2.2E0.5Cvlib.5Capp.5Cgfx_apps.5Csimple_draw_d1l2.5Ctarget.5Cd1lx_mango_ghs.5Cobj.5Ccom.:
                         449 	.type	_com_DisPlayspeed..D.3A.5CRenesas_Electronics.5CD1x_RGL.5Crgl_ghs_D1Lx_obj_V1.2E2.2E0.5Cvlib.5Capp.5Cgfx_apps.5Csimple_draw_d1l2.5Ctarget.5Cd1lx_mango_ghs.5Cobj.5Ccom.,@object
                         450 	.size	_com_DisPlayspeed..D.3A.5CRenesas_Electronics.5CD1x_RGL.5Crgl_ghs_D1Lx_obj_V1.2E2.2E0.5Cvlib.5Capp.5Cgfx_apps.5Csimple_draw_d1l2.5Ctarget.5Cd1lx_mango_ghs.5Cobj.5Ccom.,4
00000004 00000000        451 _com_DisPlayspeed:	.byte	0,0,0,0
                         452 	.type	_com_DisPlayspeed,@object
                         453 	.size	_com_DisPlayspeed,4
                         454 	.section ".bss","awb"
                         455 	.global	_com_ssbKey..D.3A.5CRenesas_Electronics.5CD1x_RGL.5Crgl_ghs_D1Lx_obj_V1.2E2.2E0.5Cvlib.5Capp.5Cgfx_apps.5Csimple_draw_d1l2.5Ctarget.5Cd1lx_mango_ghs.5Cobj.5Ccom.
                         456 _com_ssbKey..D.3A.5CRenesas_Electronics.5CD1x_RGL.5Crgl_ghs_D1Lx_obj_V1.2E2.2E0.5Cvlib.5Capp.5Cgfx_apps.5Csimple_draw_d1l2.5Ctarget.5Cd1lx_mango_ghs.5Cobj.5Ccom.:
                         457 	.type	_com_ssbKey..D.3A.5CRenesas_Electronics.5CD1x_RGL.5Crgl_ghs_D1Lx_obj_V1.2E2.2E0.5Cvlib.5Capp.5Cgfx_apps.5Csimple_draw_d1l2.5Ctarget.5Cd1lx_mango_ghs.5Cobj.5Ccom.,@object
                         458 	.size	_com_ssbKey..D.3A.5CRenesas_Electronics.5CD1x_RGL.5Crgl_ghs_D1Lx_obj_V1.2E2.2E0.5Cvlib.5Capp.5Cgfx_apps.5Csimple_draw_d1l2.5Ctarget.5Cd1lx_mango_ghs.5Cobj.5Ccom.,2
00000004 0000            459 _com_ssbKey:	.space	2
                         460 	.type	_com_ssbKey,@object
                         461 	.size	_com_ssbKey,2
                         462 	.data
                         463 	.global	_com_InitSts..D.3A.5CRenesas_Electronics.5CD1x_RGL.5Crgl_ghs_D1Lx_obj_V1.2E2.2E0.5Cvlib.5Capp.5Cgfx_apps.5Csimple_draw_d1l2.5Ctarget.5Cd1lx_mango_ghs.5Cobj.5Ccom.
                         464 _com_InitSts..D.3A.5CRenesas_Electronics.5CD1x_RGL.5Crgl_ghs_D1Lx_obj_V1.2E2.2E0.5Cvlib.5Capp.5Cgfx_apps.5Csimple_draw_d1l2.5Ctarget.5Cd1lx_mango_ghs.5Cobj.5Ccom.:
                         465 	.type	_com_InitSts..D.3A.5CRenesas_Electronics.5CD1x_RGL.5Crgl_ghs_D1Lx_obj_V1.2E2.2E0.5Cvlib.5Capp.5Cgfx_apps.5Csimple_draw_d1l2.5Ctarget.5Cd1lx_mango_ghs.5Cobj.5Ccom.,@object
                         466 	.size	_com_InitSts..D.3A.5CRenesas_Electronics.5CD1x_RGL.5Crgl_ghs_D1Lx_obj_V1.2E2.2E0.5Cvlib.5Capp.5Cgfx_apps.5Csimple_draw_d1l2.5Ctarget.5Cd1lx_mango_ghs.5Cobj.5Ccom.,1
00000008 00              467 _com_InitSts:	.byte	0
                         468 	.type	_com_InitSts,@object
                         469 	.size	_com_InitSts,1
                         470 	.global	_isNetWorkStoped..D.3A.5CRenesas_Electronics.5CD1x_RGL.5Crgl_ghs_D1Lx_obj_V1.2E2.2E0.5Cvlib.5Capp.5Cgfx_apps.5Csimple_draw_d1l2.5Ctarget.5Cd1lx_mango_ghs.5Cobj.5Ccom.
                         471 _isNetWorkStoped..D.3A.5CRenesas_Electronics.5CD1x_RGL.5Crgl_ghs_D1Lx_obj_V1.2E2.2E0.5Cvlib.5Capp.5Cgfx_apps.5Csimple_draw_d1l2.5Ctarget.5Cd1lx_mango_ghs.5Cobj.5Ccom.:
                         472 	.type	_isNetWorkStoped..D.3A.5CRenesas_Electronics.5CD1x_RGL.5Crgl_ghs_D1Lx_obj_V1.2E2.2E0.5Cvlib.5Capp.5Cgfx_apps.5Csimple_draw_d1l2.5Ctarget.5Cd1lx_mango_ghs.5Cobj.5Ccom.,@object
                         473 	.size	_isNetWorkStoped..D.3A.5CRenesas_Electronics.5CD1x_RGL.5Crgl_ghs_D1Lx_obj_V1.2E2.2E0.5Cvlib.5Capp.5Cgfx_apps.5Csimple_draw_d1l2.5Ctarget.5Cd1lx_mango_ghs.5Cobj.5Ccom.,1
00000009 00              474 _isNetWorkStoped:	.byte	0
                         475 	.type	_isNetWorkStoped,@object
                         476 	.size	_isNetWorkStoped,1
                         477 	.global	_com_SSBPress..D.3A.5CRenesas_Electronics.5CD1x_RGL.5Crgl_ghs_D1Lx_obj_V1.2E2.2E0.5Cvlib.5Capp.5Cgfx_apps.5Csimple_draw_d1l2.5Ctarget.5Cd1lx_mango_ghs.5Cobj.5Ccom.
                         478 _com_SSBPress..D.3A.5CRenesas_Electronics.5CD1x_RGL.5Crgl_ghs_D1Lx_obj_V1.2E2.2E0.5Cvlib.5Capp.5Cgfx_apps.5Csimple_draw_d1l2.5Ctarget.5Cd1lx_mango_ghs.5Cobj.5Ccom.:
                         479 	.type	_com_SSBPress..D.3A.5CRenesas_Electronics.5CD1x_RGL.5Crgl_ghs_D1Lx_obj_V1.2E2.2E0.5Cvlib.5Capp.5Cgfx_apps.5Csimple_draw_d1l2.5Ctarget.5Cd1lx_mango_ghs.5Cobj.5Ccom.,@object
                         480 	.size	_com_SSBPress..D.3A.5CRenesas_Electronics.5CD1x_RGL.5Crgl_ghs_D1Lx_obj_V1.2E2.2E0.5Cvlib.5Capp.5Cgfx_apps.5Csimple_draw_d1l2.5Ctarget.5Cd1lx_mango_ghs.5Cobj.5Ccom.,1
0000000a 00              481 _com_SSBPress:	.byte	0
                         482 	.type	_com_SSBPress,@object
                         483 	.size	_com_SSBPress,1
                         484 	.global	_L_PDCSysSts..D.3A.5CRenesas_Electronics.5CD1x_RGL.5Crgl_ghs_D1Lx_obj_V1.2E2.2E0.5Cvlib.5Capp.5Cgfx_apps.5Csimple_draw_d1l2.5Ctarget.5Cd1lx_mango_ghs.5Cobj.5Ccom.
                         485 _L_PDCSysSts..D.3A.5CRenesas_Electronics.5CD1x_RGL.5Crgl_ghs_D1Lx_obj_V1.2E2.2E0.5Cvlib.5Capp.5Cgfx_apps.5Csimple_draw_d1l2.5Ctarget.5Cd1lx_mango_ghs.5Cobj.5Ccom.:
                         486 	.type	_L_PDCSysSts..D.3A.5CRenesas_Electronics.5CD1x_RGL.5Crgl_ghs_D1Lx_obj_V1.2E2.2E0.5Cvlib.5Capp.5Cgfx_apps.5Csimple_draw_d1l2.5Ctarget.5Cd1lx_mango_ghs.5Cobj.5Ccom.,@object
                         487 	.size	_L_PDCSysSts..D.3A.5CRenesas_Electronics.5CD1x_RGL.5Crgl_ghs_D1Lx_obj_V1.2E2.2E0.5Cvlib.5Capp.5Cgfx_apps.5Csimple_draw_d1l2.5Ctarget.5Cd1lx_mango_ghs.5Cobj.5Ccom.,1
0000000b 00              488 _L_PDCSysSts:	.byte	0
                         489 	.type	_L_PDCSysSts,@object
                         490 	.size	_L_PDCSysSts,1
                         491 	.global	_L_RLObsRng..D.3A.5CRenesas_Electronics.5CD1x_RGL.5Crgl_ghs_D1Lx_obj_V1.2E2.2E0.5Cvlib.5Capp.5Cgfx_apps.5Csimple_draw_d1l2.5Ctarget.5Cd1lx_mango_ghs.5Cobj.5Ccom.
                         492 _L_RLObsRng..D.3A.5CRenesas_Electronics.5CD1x_RGL.5Crgl_ghs_D1Lx_obj_V1.2E2.2E0.5Cvlib.5Capp.5Cgfx_apps.5Csimple_draw_d1l2.5Ctarget.5Cd1lx_mango_ghs.5Cobj.5Ccom.:
                         493 	.type	_L_RLObsRng..D.3A.5CRenesas_Electronics.5CD1x_RGL.5Crgl_ghs_D1Lx_obj_V1.2E2.2E0.5Cvlib.5Capp.5Cgfx_apps.5Csimple_draw_d1l2.5Ctarget.5Cd1lx_mango_ghs.5Cobj.5Ccom.,@object
                         494 	.size	_L_RLObsRng..D.3A.5CRenesas_Electronics.5CD1x_RGL.5Crgl_ghs_D1Lx_obj_V1.2E2.2E0.5Cvlib.5Capp.5Cgfx_apps.5Csimple_draw_d1l2.5Ctarget.5Cd1lx_mango_ghs.5Cobj.5Ccom.,1
0000000c 00              495 _L_RLObsRng:	.byte	0
                         496 	.type	_L_RLObsRng,@object
                         497 	.size	_L_RLObsRng,1
                         498 	.global	_L_RRObsRng..D.3A.5CRenesas_Electronics.5CD1x_RGL.5Crgl_ghs_D1Lx_obj_V1.2E2.2E0.5Cvlib.5Capp.5Cgfx_apps.5Csimple_draw_d1l2.5Ctarget.5Cd1lx_mango_ghs.5Cobj.5Ccom.
                         499 _L_RRObsRng..D.3A.5CRenesas_Electronics.5CD1x_RGL.5Crgl_ghs_D1Lx_obj_V1.2E2.2E0.5Cvlib.5Capp.5Cgfx_apps.5Csimple_draw_d1l2.5Ctarget.5Cd1lx_mango_ghs.5Cobj.5Ccom.:
                         500 	.type	_L_RRObsRng..D.3A.5CRenesas_Electronics.5CD1x_RGL.5Crgl_ghs_D1Lx_obj_V1.2E2.2E0.5Cvlib.5Capp.5Cgfx_apps.5Csimple_draw_d1l2.5Ctarget.5Cd1lx_mango_ghs.5Cobj.5Ccom.,@object
                         501 	.size	_L_RRObsRng..D.3A.5CRenesas_Electronics.5CD1x_RGL.5Crgl_ghs_D1Lx_obj_V1.2E2.2E0.5Cvlib.5Capp.5Cgfx_apps.5Csimple_draw_d1l2.5Ctarget.5Cd1lx_mango_ghs.5Cobj.5Ccom.,1
0000000d 00              502 _L_RRObsRng:	.byte	0
                         503 	.type	_L_RRObsRng,@object
                         504 	.size	_L_RRObsRng,1
                         505 	.global	_L_RrMidLObsRng..D.3A.5CRenesas_Electronics.5CD1x_RGL.5Crgl_ghs_D1Lx_obj_V1.2E2.2E0.5Cvlib.5Capp.5Cgfx_apps.5Csimple_draw_d1l2.5Ctarget.5Cd1lx_mango_ghs.5Cobj.5Ccom.

                                                                      Page 10
                                                              C:\Users\YINGAO~1\AppData\Local\Temp\gh_000086k1.si
                         506 _L_RrMidLObsRng..D.3A.5CRenesas_Electronics.5CD1x_RGL.5Crgl_ghs_D1Lx_obj_V1.2E2.2E0.5Cvlib.5Capp.5Cgfx_apps.5Csimple_draw_d1l2.5Ctarget.5Cd1lx_mango_ghs.5Cobj.5Ccom.:
                         507 	.type	_L_RrMidLObsRng..D.3A.5CRenesas_Electronics.5CD1x_RGL.5Crgl_ghs_D1Lx_obj_V1.2E2.2E0.5Cvlib.5Capp.5Cgfx_apps.5Csimple_draw_d1l2.5Ctarget.5Cd1lx_mango_ghs.5Cobj.5Ccom.,@object
                         508 	.size	_L_RrMidLObsRng..D.3A.5CRenesas_Electronics.5CD1x_RGL.5Crgl_ghs_D1Lx_obj_V1.2E2.2E0.5Cvlib.5Capp.5Cgfx_apps.5Csimple_draw_d1l2.5Ctarget.5Cd1lx_mango_ghs.5Cobj.5Ccom.,1
0000000e 00              509 _L_RrMidLObsRng:	.byte	0
                         510 	.type	_L_RrMidLObsRng,@object
                         511 	.size	_L_RrMidLObsRng,1
                         512 	.global	_L_RrMidRObsRng..D.3A.5CRenesas_Electronics.5CD1x_RGL.5Crgl_ghs_D1Lx_obj_V1.2E2.2E0.5Cvlib.5Capp.5Cgfx_apps.5Csimple_draw_d1l2.5Ctarget.5Cd1lx_mango_ghs.5Cobj.5Ccom.
                         513 _L_RrMidRObsRng..D.3A.5CRenesas_Electronics.5CD1x_RGL.5Crgl_ghs_D1Lx_obj_V1.2E2.2E0.5Cvlib.5Capp.5Cgfx_apps.5Csimple_draw_d1l2.5Ctarget.5Cd1lx_mango_ghs.5Cobj.5Ccom.:
                         514 	.type	_L_RrMidRObsRng..D.3A.5CRenesas_Electronics.5CD1x_RGL.5Crgl_ghs_D1Lx_obj_V1.2E2.2E0.5Cvlib.5Capp.5Cgfx_apps.5Csimple_draw_d1l2.5Ctarget.5Cd1lx_mango_ghs.5Cobj.5Ccom.,@object
                         515 	.size	_L_RrMidRObsRng..D.3A.5CRenesas_Electronics.5CD1x_RGL.5Crgl_ghs_D1Lx_obj_V1.2E2.2E0.5Cvlib.5Capp.5Cgfx_apps.5Csimple_draw_d1l2.5Ctarget.5Cd1lx_mango_ghs.5Cobj.5Ccom.,1
0000000f 00              516 _L_RrMidRObsRng:	.byte	0
                         517 	.type	_L_RrMidRObsRng,@object
                         518 	.size	_L_RrMidRObsRng,1
                         519 	.global	_L_PDCConfigSts..D.3A.5CRenesas_Electronics.5CD1x_RGL.5Crgl_ghs_D1Lx_obj_V1.2E2.2E0.5Cvlib.5Capp.5Cgfx_apps.5Csimple_draw_d1l2.5Ctarget.5Cd1lx_mango_ghs.5Cobj.5Ccom.
                         520 _L_PDCConfigSts..D.3A.5CRenesas_Electronics.5CD1x_RGL.5Crgl_ghs_D1Lx_obj_V1.2E2.2E0.5Cvlib.5Capp.5Cgfx_apps.5Csimple_draw_d1l2.5Ctarget.5Cd1lx_mango_ghs.5Cobj.5Ccom.:
                         521 	.type	_L_PDCConfigSts..D.3A.5CRenesas_Electronics.5CD1x_RGL.5Crgl_ghs_D1Lx_obj_V1.2E2.2E0.5Cvlib.5Capp.5Cgfx_apps.5Csimple_draw_d1l2.5Ctarget.5Cd1lx_mango_ghs.5Cobj.5Ccom.,@object
                         522 	.size	_L_PDCConfigSts..D.3A.5CRenesas_Electronics.5CD1x_RGL.5Crgl_ghs_D1Lx_obj_V1.2E2.2E0.5Cvlib.5Capp.5Cgfx_apps.5Csimple_draw_d1l2.5Ctarget.5Cd1lx_mango_ghs.5Cobj.5Ccom.,1
00000010 00              523 _L_PDCConfigSts:	.byte	0
                         524 	.type	_L_PDCConfigSts,@object
                         525 	.size	_L_PDCConfigSts,1
                         526 	.global	_com_TrShftLvrPos..D.3A.5CRenesas_Electronics.5CD1x_RGL.5Crgl_ghs_D1Lx_obj_V1.2E2.2E0.5Cvlib.5Capp.5Cgfx_apps.5Csimple_draw_d1l2.5Ctarget.5Cd1lx_mango_ghs.5Cobj.5Ccom.
                         527 _com_TrShftLvrPos..D.3A.5CRenesas_Electronics.5CD1x_RGL.5Crgl_ghs_D1Lx_obj_V1.2E2.2E0.5Cvlib.5Capp.5Cgfx_apps.5Csimple_draw_d1l2.5Ctarget.5Cd1lx_mango_ghs.5Cobj.5Ccom.:
                         528 	.type	_com_TrShftLvrPos..D.3A.5CRenesas_Electronics.5CD1x_RGL.5Crgl_ghs_D1Lx_obj_V1.2E2.2E0.5Cvlib.5Capp.5Cgfx_apps.5Csimple_draw_d1l2.5Ctarget.5Cd1lx_mango_ghs.5Cobj.5Ccom.,@object
                         529 	.size	_com_TrShftLvrPos..D.3A.5CRenesas_Electronics.5CD1x_RGL.5Crgl_ghs_D1Lx_obj_V1.2E2.2E0.5Cvlib.5Capp.5Cgfx_apps.5Csimple_draw_d1l2.5Ctarget.5Cd1lx_mango_ghs.5Cobj.5Ccom.,1
00000011 00              530 _com_TrShftLvrPos:	.byte	0
                         531 	.type	_com_TrShftLvrPos,@object
                         532 	.size	_com_TrShftLvrPos,1
                         533 	.global	_com_TrShftLvrPosV..D.3A.5CRenesas_Electronics.5CD1x_RGL.5Crgl_ghs_D1Lx_obj_V1.2E2.2E0.5Cvlib.5Capp.5Cgfx_apps.5Csimple_draw_d1l2.5Ctarget.5Cd1lx_mango_ghs.5Cobj.5Ccom.
                         534 _com_TrShftLvrPosV..D.3A.5CRenesas_Electronics.5CD1x_RGL.5Crgl_ghs_D1Lx_obj_V1.2E2.2E0.5Cvlib.5Capp.5Cgfx_apps.5Csimple_draw_d1l2.5Ctarget.5Cd1lx_mango_ghs.5Cobj.5Ccom.:
                         535 	.type	_com_TrShftLvrPosV..D.3A.5CRenesas_Electronics.5CD1x_RGL.5Crgl_ghs_D1Lx_obj_V1.2E2.2E0.5Cvlib.5Capp.5Cgfx_apps.5Csimple_draw_d1l2.5Ctarget.5Cd1lx_mango_ghs.5Cobj.5Ccom.,@object
                         536 	.size	_com_TrShftLvrPosV..D.3A.5CRenesas_Electronics.5CD1x_RGL.5Crgl_ghs_D1Lx_obj_V1.2E2.2E0.5Cvlib.5Capp.5Cgfx_apps.5Csimple_draw_d1l2.5Ctarget.5Cd1lx_mango_ghs.5Cobj.5Ccom.,1
00000012 00              537 _com_TrShftLvrPosV:	.byte	0
                         538 	.type	_com_TrShftLvrPosV,@object
                         539 	.size	_com_TrShftLvrPosV,1
                         540 	.global	_com_MstrSysPwrMd..D.3A.5CRenesas_Electronics.5CD1x_RGL.5Crgl_ghs_D1Lx_obj_V1.2E2.2E0.5Cvlib.5Capp.5Cgfx_apps.5Csimple_draw_d1l2.5Ctarget.5Cd1lx_mango_ghs.5Cobj.5Ccom.
                         541 _com_MstrSysPwrMd..D.3A.5CRenesas_Electronics.5CD1x_RGL.5Crgl_ghs_D1Lx_obj_V1.2E2.2E0.5Cvlib.5Capp.5Cgfx_apps.5Csimple_draw_d1l2.5Ctarget.5Cd1lx_mango_ghs.5Cobj.5Ccom.:
                         542 	.type	_com_MstrSysPwrMd..D.3A.5CRenesas_Electronics.5CD1x_RGL.5Crgl_ghs_D1Lx_obj_V1.2E2.2E0.5Cvlib.5Capp.5Cgfx_apps.5Csimple_draw_d1l2.5Ctarget.5Cd1lx_mango_ghs.5Cobj.5Ccom.,@object
                         543 	.size	_com_MstrSysPwrMd..D.3A.5CRenesas_Electronics.5CD1x_RGL.5Crgl_ghs_D1Lx_obj_V1.2E2.2E0.5Cvlib.5Capp.5Cgfx_apps.5Csimple_draw_d1l2.5Ctarget.5Cd1lx_mango_ghs.5Cobj.5Ccom.,1
00000013 00              544 _com_MstrSysPwrMd:	.byte	0
                         545 	.type	_com_MstrSysPwrMd,@object
                         546 	.size	_com_MstrSysPwrMd,1
                         547 	.global	_com_NetWorkModeSleepFlg..D.3A.5CRenesas_Electronics.5CD1x_RGL.5Crgl_ghs_D1Lx_obj_V1.2E2.2E0.5Cvlib.5Capp.5Cgfx_apps.5Csimple_draw_d1l2.5Ctarget.5Cd1lx_mango_ghs.5Cobj.5Ccom.
                         548 _com_NetWorkModeSleepFlg..D.3A.5CRenesas_Electronics.5CD1x_RGL.5Crgl_ghs_D1Lx_obj_V1.2E2.2E0.5Cvlib.5Capp.5Cgfx_apps.5Csimple_draw_d1l2.5Ctarget.5Cd1lx_mango_ghs.5Cobj.5Ccom.:
                         549 	.type	_com_NetWorkModeSleepFlg..D.3A.5CRenesas_Electronics.5CD1x_RGL.5Crgl_ghs_D1Lx_obj_V1.2E2.2E0.5Cvlib.5Capp.5Cgfx_apps.5Csimple_draw_d1l2.5Ctarget.5Cd1lx_mango_ghs.5Cobj.5Ccom.,@object
                         550 	.size	_com_NetWorkModeSleepFlg..D.3A.5CRenesas_Electronics.5CD1x_RGL.5Crgl_ghs_D1Lx_obj_V1.2E2.2E0.5Cvlib.5Capp.5Cgfx_apps.5Csimple_draw_d1l2.5Ctarget.5Cd1lx_mango_ghs.5Cobj.5Ccom.,1
00000014 00              551 _com_NetWorkModeSleepFlg:	.byte	0
                         552 	.type	_com_NetWorkModeSleepFlg,@object
                         553 	.size	_com_NetWorkModeSleepFlg,1
                         554 	.text
                         555 
                         556 
                         557 --149: /***************************************************
                         558 --150: * Function:  COM_GetInitSts
                         559 --151: * Description: get the IOM module initialized status
                         560 --152: * Parameters: none
                         561 --153: * Returns: TRUE or FALSE
                         562 --154: * $Create & Verlog:$
                         563 --155: * Author:liuyingying   2017-06-29
                         564 --156: ****************************************************/
                         565 --157: BOOL COM_GetInitSts(void)
                         566 	.align	2

                                                                      Page 11
                                                              C:\Users\YINGAO~1\AppData\Local\Temp\gh_000086k1.si
                         567 	.align	2
                         568 	.global	_COM_GetInitSts
                         569 _COM_GetInitSts:
00000172 210600000000*   570 	mov	_com_InitSts,r1
                         571 --	    .bf
                         572 .LDW31:
                         573 --158: {
                         574 --159:     return com_InitSts;
00000178 2a0600000000*   575 	mov	_com_InitSts,r10
0000017e 8a570100        576 	ld.bu	0[r10],r10
                         577 --	    .ef
                         578 .LDW41:
00000182 7f00            579 	jmp	[lp]
                         580 	.type	_COM_GetInitSts,@function
                         581 	.size	_COM_GetInitSts,.-_COM_GetInitSts
                         582 	.align	2
                         583 .LDW51:
                         584 
                         585 	.data
                         586 	.text
                         587 
                         588 --160: }
                         589 
                         590 --162: /***************************************************
                         591 --163: * Function: COM_Process_5ms
                         592 --164: * Description: the process of the COM module
                         593 --165: * Parameters: none
                         594 --166: * Returns: none
                         595 --167: * $Create & Verlog:$
                         596 --168: * Author:Yingying.Liu  Date:2016-12-12   Version:V1.0
                         597 --169: ****************************************************/
                         598 --170: void COM_Process_5ms(void)
                         599 	.align	2
                         600 	.align	2
                         601 	.global	_COM_Process_5ms
                         602 _COM_Process_5ms:
00000184 80076100        603 	prepare	{r29,r31},0
00000188 3d0600000000*   604 	mov	_com_DisPlayspeed,r29
                         605 --	    .bf
                         606 .LDW61:
                         607 --171: {
                         608 --172:     com_nwm_process();
                         609 	jarl	_com_nwm_process,lp
                         609 <EXPANSION BEGIN>
                         609 jarl22 _com_nwm_process , lp 
0000018e 80ff6a01*       609 <EXPANSION END>
                         610 --173: 	
                         611 --174:     L_PDCSysSts = v_rd_8(PDCSysSts_L_handle);
                         612 --line174
                         613 ..lin.D.3A.5CRenesas_Electronics.5CD1x_RGL.5Crgl_ghs_D1Lx_obj_V1.2E2.2E0.5Cvlib.5Capp.5Cgfx_apps.5Csimple_draw_d1l2.5Ctarget.5Cd1lx_mango_ghs.5Cobj.5Ccom.18::
                         614 .LDWlin18:
00000192 2606ec383f00    615 	mov	4143340,r6
                         616 	jarl	_v_rd_8,lp
                         616 <EXPANSION BEGIN>
                         616 jarl22 _v_rd_8 , lp 
00000198 80ff0000*       616 <EXPANSION END>
0000019c 5d570700        617 	st.b	r10,7[r29]
                         618 --175:     L_RLObsRng = v_rd_8(RLObsRng_L_handle);
                         619 --line175
                         620 ..lin.D.3A.5CRenesas_Electronics.5CD1x_RGL.5Crgl_ghs_D1Lx_obj_V1.2E2.2E0.5Cvlib.5Capp.5Cgfx_apps.5Csimple_draw_d1l2.5Ctarget.5Cd1lx_mango_ghs.5Cobj.5Ccom.19::
                         621 .LDWlin19:

                                                                      Page 12
                                                              C:\Users\YINGAO~1\AppData\Local\Temp\gh_000086k1.si
000001a0 260634393f00    622 	mov	4143412,r6
                         623 	jarl	_v_rd_8,lp
                         623 <EXPANSION BEGIN>
                         623 jarl22 _v_rd_8 , lp 
000001a6 80ff0000*       623 <EXPANSION END>
000001aa 5d570800        624 	st.b	r10,8[r29]
                         625 --176:     L_RRObsRng = v_rd_8(RRObsRng_L_handle);
                         626 --line176
                         627 ..lin.D.3A.5CRenesas_Electronics.5CD1x_RGL.5Crgl_ghs_D1Lx_obj_V1.2E2.2E0.5Cvlib.5Capp.5Cgfx_apps.5Csimple_draw_d1l2.5Ctarget.5Cd1lx_mango_ghs.5Cobj.5Ccom.20::
                         628 .LDWlin20:
000001ae 2606c4393f00    629 	mov	4143556,r6
                         630 	jarl	_v_rd_8,lp
                         630 <EXPANSION BEGIN>
                         630 jarl22 _v_rd_8 , lp 
000001b4 80ff0000*       630 <EXPANSION END>
000001b8 5d570900        631 	st.b	r10,9[r29]
                         632 --177:     L_RrMidLObsRng = v_rd_8(RrMidLObsRng_L_handle);
                         633 --line177
                         634 ..lin.D.3A.5CRenesas_Electronics.5CD1x_RGL.5Crgl_ghs_D1Lx_obj_V1.2E2.2E0.5Cvlib.5Capp.5Cgfx_apps.5Csimple_draw_d1l2.5Ctarget.5Cd1lx_mango_ghs.5Cobj.5Ccom.21::
                         635 .LDWlin21:
000001bc 260658393f00    636 	mov	4143448,r6
                         637 	jarl	_v_rd_8,lp
                         637 <EXPANSION BEGIN>
                         637 jarl22 _v_rd_8 , lp 
000001c2 80ff0000*       637 <EXPANSION END>
000001c6 5d570a00        638 	st.b	r10,10[r29]
                         639 --178:     L_RrMidRObsRng = v_rd_8(RrMidRObsRng_L_handle);
                         640 --line178
                         641 ..lin.D.3A.5CRenesas_Electronics.5CD1x_RGL.5Crgl_ghs_D1Lx_obj_V1.2E2.2E0.5Cvlib.5Capp.5Cgfx_apps.5Csimple_draw_d1l2.5Ctarget.5Cd1lx_mango_ghs.5Cobj.5Ccom.22::
                         642 .LDWlin22:
000001ca 26067c393f00    643 	mov	4143484,r6
                         644 	jarl	_v_rd_8,lp
                         644 <EXPANSION BEGIN>
                         644 jarl22 _v_rd_8 , lp 
000001d0 80ff0000*       644 <EXPANSION END>
000001d4 5d570b00        645 	st.b	r10,11[r29]
                         646 --179:     L_PDCConfigSts = v_rd_8(PDCCofignSts_L_handle);
                         647 --line179
                         648 ..lin.D.3A.5CRenesas_Electronics.5CD1x_RGL.5Crgl_ghs_D1Lx_obj_V1.2E2.2E0.5Cvlib.5Capp.5Cgfx_apps.5Csimple_draw_d1l2.5Ctarget.5Cd1lx_mango_ghs.5Cobj.5Ccom.23::
                         649 .LDWlin23:
000001d8 2606f0373f00    650 	mov	4143088,r6
                         651 	jarl	_v_rd_8,lp
                         651 <EXPANSION BEGIN>
                         651 jarl22 _v_rd_8 , lp 
000001de 80ff0000*       651 <EXPANSION END>
000001e2 5d570c00        652 	st.b	r10,12[r29]
                         653 --181: 	com_TrShftLvrPos =v_rd_8(TrShftLvrPos_handle);
                         654 --line181
                         655 ..lin.D.3A.5CRenesas_Electronics.5CD1x_RGL.5Crgl_ghs_D1Lx_obj_V1.2E2.2E0.5Cvlib.5Capp.5Cgfx_apps.5Csimple_draw_d1l2.5Ctarget.5Cd1lx_mango_ghs.5Cobj.5Ccom.24::
                         656 .LDWlin24:
000001e6 2606c81d3f00    657 	mov	4136392,r6
                         658 	jarl	_v_rd_8,lp
                         658 <EXPANSION BEGIN>
                         658 jarl22 _v_rd_8 , lp 
000001ec 80ff0000*       658 <EXPANSION END>
000001f0 5d570d00        659 	st.b	r10,13[r29]
                         660 --182: 	com_TrShftLvrPosV =v_rd_8(TrShftLvrPosV_handle);
                         661 --line182
                         662 ..lin.D.3A.5CRenesas_Electronics.5CD1x_RGL.5Crgl_ghs_D1Lx_obj_V1.2E2.2E0.5Cvlib.5Capp.5Cgfx_apps.5Csimple_draw_d1l2.5Ctarget.5Cd1lx_mango_ghs.5Cobj.5Ccom.25::
                         663 .LDWlin25:
000001f4 2606ec1d3f00    664 	mov	4136428,r6

                                                                      Page 13
                                                              C:\Users\YINGAO~1\AppData\Local\Temp\gh_000086k1.si
                         665 	jarl	_v_rd_8,lp
                         665 <EXPANSION BEGIN>
                         665 jarl22 _v_rd_8 , lp 
000001fa 80ff0000*       665 <EXPANSION END>
000001fe 5d570e00        666 	st.b	r10,14[r29]
                         667 --183: 	com_MstrSysPwrMd = v_rd_8(BCMPwrMdHwdSta_handle);
                         668 --line183
                         669 ..lin.D.3A.5CRenesas_Electronics.5CD1x_RGL.5Crgl_ghs_D1Lx_obj_V1.2E2.2E0.5Cvlib.5Capp.5Cgfx_apps.5Csimple_draw_d1l2.5Ctarget.5Cd1lx_mango_ghs.5Cobj.5Ccom.26::
                         670 .LDWlin26:
00000202 2606ec023f00    671 	mov	4129516,r6
                         672 	jarl	_v_rd_8,lp
                         672 <EXPANSION BEGIN>
                         672 jarl22 _v_rd_8 , lp 
00000208 80ff0000*       672 <EXPANSION END>
0000020c 5d570f00        673 	st.b	r10,15[r29]
                         674 --184:     
                         675 --185: 	ST_GetDisplaySpeed(&com_DisPlayspeed); 
                         676 --line185
                         677 ..lin.D.3A.5CRenesas_Electronics.5CD1x_RGL.5Crgl_ghs_D1Lx_obj_V1.2E2.2E0.5Cvlib.5Capp.5Cgfx_apps.5Csimple_draw_d1l2.5Ctarget.5Cd1lx_mango_ghs.5Cobj.5Ccom.27::
                         678 .LDWlin27:
00000210 260600000000*   679 	mov	_com_DisPlayspeed,r6
                         680 	jarl	_ST_GetDisplaySpeed,lp
                         680 <EXPANSION BEGIN>
                         680 jarl22 _ST_GetDisplaySpeed , lp 
00000216 80ff0000*       680 <EXPANSION END>
                         681 --186: }
                         682 --line186
                         683 ..lin.D.3A.5CRenesas_Electronics.5CD1x_RGL.5Crgl_ghs_D1Lx_obj_V1.2E2.2E0.5Cvlib.5Capp.5Cgfx_apps.5Csimple_draw_d1l2.5Ctarget.5Cd1lx_mango_ghs.5Cobj.5Ccom.28::
                         684 .LDWlin28:
0000021a 0000            685 	nop
                         686 --	    .ef
                         687 .LDW71:
0000021c 40067f00        688 	dispose	0,{r29,r31},[lp]
                         689 	.type	_COM_Process_5ms,@function
                         690 	.size	_COM_Process_5ms,.-_COM_Process_5ms
                         691 	.align	2
                         692 .LDW81:
                         693 
                         694 	.data
                         695 	.text
                         696 
                         697 
                         698 --188: /***************************************************
                         699 --189: * Function: COM_GetNetStatus
                         700 --190: * Description: the process of the COM module
                         701 --191: * Parameters: status output: the current Network status
                         702 --192: * Returns:
                         703 --193: 	RET_FAIL :module initial fail
                         704 --194: 	RET_INVALID: input parameter error
                         705 --195: 	RET_OK: Get Data success
                         706 --196: * $Create & Verlog:$
                         707 --197: * Author:Yingying.Liu  Date:2016-12-12   Version:V1.0
                         708 --198: ****************************************************/
                         709 --199: U8 COM_GetNetStatus(COMNetStatus_ENUM *status)
                         710 	.align	2
                         711 	.align	2
                         712 	.global	_COM_GetNetStatus
                         713 _COM_GetNetStatus:
00000220 06f0            714 	mov	r6,ep
00000222 210600000000*   715 	mov	_com_NetWake,r1
                         716 --	    .bf

                                                                      Page 14
                                                              C:\Users\YINGAO~1\AppData\Local\Temp\gh_000086k1.si
                         717 .LDW91:
                         718 --200: {
                         719 --201: 	U8 res = RET_FAIL;
00000228 0072            720 	mov	0,r14
                         721 --202: 	if(FALSE == com_InitSts)
0000022a 816f0900        722 	ld.bu	8[r1],r13
0000022e e069            723 	cmp	zero,r13
00000230 ba05*           724 	bne	.L380
                         725 --203: 	{
                         726 --204: 		res = RET_FAIL;
                         727 --line204
                         728 ..lin.D.3A.5CRenesas_Electronics.5CD1x_RGL.5Crgl_ghs_D1Lx_obj_V1.2E2.2E0.5Cvlib.5Capp.5Cgfx_apps.5Csimple_draw_d1l2.5Ctarget.5Cd1lx_mango_ghs.5Cobj.5Ccom.29::
                         729 .LDWlin29:
00000232 0072            730 	mov	0,r14
00000234 9515*           731 	br	.L382
                         732 .L380:
                         733 --205: 	}
                         734 --206: 	else if(NULL_PTR == status)
                         735 --line206
                         736 ..lin.D.3A.5CRenesas_Electronics.5CD1x_RGL.5Crgl_ghs_D1Lx_obj_V1.2E2.2E0.5Cvlib.5Capp.5Cgfx_apps.5Csimple_draw_d1l2.5Ctarget.5Cd1lx_mango_ghs.5Cobj.5Ccom.30::
                         737 .LDWlin30:
00000236 e0f1            738 	cmp	zero,ep
00000238 ba05*           739 	bne	.L383
                         740 --207: 	{
                         741 --208: 		res = RET_INVALID;
                         742 --line208
                         743 ..lin.D.3A.5CRenesas_Electronics.5CD1x_RGL.5Crgl_ghs_D1Lx_obj_V1.2E2.2E0.5Cvlib.5Capp.5Cgfx_apps.5Csimple_draw_d1l2.5Ctarget.5Cd1lx_mango_ghs.5Cobj.5Ccom.31::
                         744 .LDWlin31:
0000023a 0272            745 	mov	2,r14
0000023c d50d*           746 	br	.L382
                         747 .L383:
                         748 --209: 	}
                         749 --210: 	else
                         750 --211: 	{
                         751 --212: 		if(SOURCE_COM_NONE != com_NetWake)
                         752 --line212
                         753 ..lin.D.3A.5CRenesas_Electronics.5CD1x_RGL.5Crgl_ghs_D1Lx_obj_V1.2E2.2E0.5Cvlib.5Capp.5Cgfx_apps.5Csimple_draw_d1l2.5Ctarget.5Cd1lx_mango_ghs.5Cobj.5Ccom.32::
                         754 .LDWlin32:
0000023e 210600000000*   755 	mov	_com_NetWake,r1
00000244 210f0100        756 	ld.w	0[r1],r1
00000248 e009            757 	cmp	zero,r1
0000024a b205*           758 	be	.L386
                         759 --213: 		{
                         760 --214: 			*status = STATUS_COM_NETWAKE;
                         761 --line214
                         762 ..lin.D.3A.5CRenesas_Electronics.5CD1x_RGL.5Crgl_ghs_D1Lx_obj_V1.2E2.2E0.5Cvlib.5Capp.5Cgfx_apps.5Csimple_draw_d1l2.5Ctarget.5Cd1lx_mango_ghs.5Cobj.5Ccom.33::
                         763 .LDWlin33:
0000024c 0105            764 	sst.w	zero,0[ep]
0000024e b505*           765 	br	.L388
                         766 .L386:
                         767 --215: 		}
                         768 --216: 		else
                         769 --217: 		{
                         770 --218: 			*status = STATUS_COM_NETSLEEP;
                         771 --line218
                         772 ..lin.D.3A.5CRenesas_Electronics.5CD1x_RGL.5Crgl_ghs_D1Lx_obj_V1.2E2.2E0.5Cvlib.5Capp.5Cgfx_apps.5Csimple_draw_d1l2.5Ctarget.5Cd1lx_mango_ghs.5Cobj.5Ccom.34::
                         773 .LDWlin34:
00000250 010a            774 	mov	1,r1
00000252 010d            775 	sst.w	r1,0[ep]
                         776 .L388:
                         777 --219: 		}

                                                                      Page 15
                                                              C:\Users\YINGAO~1\AppData\Local\Temp\gh_000086k1.si
                         778 --220: 		res = RET_OK;
00000254 0172            779 	mov	1,r14
                         780 .L382:
                         781 --221: 	}
                         782 --222: 	return res;
00000256 0e50            783 	mov	r14,r10
                         784 --	    .ef
                         785 .LDW02:
00000258 7f00            786 	jmp	[lp]
                         787 	.type	_COM_GetNetStatus,@function
                         788 	.size	_COM_GetNetStatus,.-_COM_GetNetStatus
                         789 	.align	2
                         790 .LDW12:
                         791 --_res	r14	local
                         792 
                         793 --_status	ep	param
                         794 
                         795 	.data
                         796 	.text
                         797 
                         798 --223: }
                         799 
                         800 --224: /******************************************************
                         801 --225: * Function: COM_GetNetWorkSleepSts
                         802 --226: * Description: Get network sleep status
                         803 --227: * Parameters:  none
                         804 --228: * Returns: none
                         805 --229: * $Create & Verlog:$
                         806 --230: * Author:Yingying.Liu  Date:2017-10-26   Version:V2.0
                         807 --231: *******************************************************/
                         808 --232: U8 COM_GetNetWorkSleepSts(void)
                         809 	.align	2
                         810 	.align	2
                         811 	.global	_COM_GetNetWorkSleepSts
                         812 _COM_GetNetWorkSleepSts:
0000025a 210600000000*   813 	mov	_com_NetWorkModeSleepFlg,r1
                         814 --	    .bf
                         815 .LDW22:
                         816 --233: {	
                         817 --234: 	return(com_NetWorkModeSleepFlg);
00000260 2a0600000000*   818 	mov	_com_NetWorkModeSleepFlg,r10
00000266 8a570100        819 	ld.bu	0[r10],r10
                         820 --	    .ef
                         821 .LDW32:
0000026a 7f00            822 	jmp	[lp]
                         823 	.type	_COM_GetNetWorkSleepSts,@function
                         824 	.size	_COM_GetNetWorkSleepSts,.-_COM_GetNetWorkSleepSts
                         825 	.align	2
                         826 .LDW42:
                         827 
                         828 	.data
                         829 	.text
                         830 
                         831 --235: }
                         832 
                         833 --238: /******************************************************
                         834 --239: * Function: com_SSB_WakeUpNetworkCheck
                         835 --240: * Description: Get network sleep status
                         836 --241: * Parameters:  none
                         837 --242: * Returns: none
                         838 --243: * $Create & Verlog:$

                                                                      Page 16
                                                              C:\Users\YINGAO~1\AppData\Local\Temp\gh_000086k1.si
                         839 --244: * Author:Yingying.Liu  Date:2017-10-26   Version:V2.0
                         840 --245: *******************************************************/
                         841 --246: static void com_SSB_WakeUpNetworkCheck(void)
                         842 	.align	2
                         843 	.align	2
                         844 	.global	_com_SSB_WakeUpNetworkCheck..D.3A.5CRenesas_Electronics.5CD1x_RGL.5Crgl_ghs_D1Lx_obj_V1.2E2.2E0.5Cvlib.5Capp.5Cgfx_apps.5Csimple_draw_d1l2.5Ctarget.5Cd1lx_mango_ghs.5Cobj.5Ccom.
                         845 _com_SSB_WakeUpNetworkCheck..D.3A.5CRenesas_Electronics.5CD1x_RGL.5Crgl_ghs_D1Lx_obj_V1.2E2.2E0.5Cvlib.5Capp.5Cgfx_apps.5Csimple_draw_d1l2.5Ctarget.5Cd1lx_mango_ghs.5Cobj.5Ccom.:
                         846 _com_SSB_WakeUpNetworkCheck:
0000026c 8407e170        847 	prepare	{r25,r26,r27,r28,r29,r31},2
00000270 390600000000*   848 	mov	_com_SSBPress,r25
00000276 19eefeff        849 	addi	-2,r25,r29
0000027a 3c0600000000*   850 	mov	_com_ssbKey,r28
00000280 3a0600000000*   851 	mov	_nwm_slave_instance,r26
                         852 --	    .bf
                         853 .LDW52:
                         854 --247: {
                         855 --248: 	U8 res = RET_FAIL;
00000286 00da            856 	mov	0,r27
                         857 --249: 	SSBData_ST ssbKey;
                         858 --250: 	static BOOL flag = FALSE;
                         859 --252: 	res = SSB_GetSSBValue(&ssbKey);
00000288 23360200        860 	movea	2,sp,r6
                         861 	jarl	_SSB_GetSSBValue,lp
                         861 <EXPANSION BEGIN>
                         861 jarl22 _SSB_GetSSBValue , lp 
0000028c 80ff0000*       861 <EXPANSION END>
00000290 0ad8            862 	mov	r10,r27
                         863 --253: 	if ((ACTIVE == ssbKey.status &&INACTIVE == com_ssbKey.status)
                         864 --line253
                         865 ..lin.D.3A.5CRenesas_Electronics.5CD1x_RGL.5Crgl_ghs_D1Lx_obj_V1.2E2.2E0.5Cvlib.5Capp.5Cgfx_apps.5Csimple_draw_d1l2.5Ctarget.5Cd1lx_mango_ghs.5Cobj.5Ccom.35::
                         866 .LDWlin35:
00000292 830f0300        867 	ld.bu	2[sp],r1
00000296 610a            868 	cmp	1,r1
00000298 da0d*           869 	bne	.L503
0000029a 9c0f0100        870 	ld.bu	0[r28],r1
0000029e e009            871 	cmp	zero,r1
000002a0 9a0d*           872 	bne	.L503
000002a2 a30f0300        873 	ld.bu	3[sp],r1
000002a6 e009            874 	cmp	zero,r1
000002a8 da05*           875 	bne	.L503
000002aa bc0f0100        876 	ld.bu	1[r28],r1
000002ae e009            877 	cmp	zero,r1
000002b0 920d*           878 	be	.L502
                         879 .L503:
                         880 	jarl	_STBC_GetWakeUpType,lp
                         880 <EXPANSION BEGIN>
                         880 jarl22 _STBC_GetWakeUpType , lp 
000002b2 80ff0000*       880 <EXPANSION END>
000002b6 6652            881 	cmp	6,r10
000002b8 ea0d*           882 	bne	.L508
000002ba bd0f0d00        883 	ld.bu	13[r29],r1
000002be e009            884 	cmp	zero,r1
000002c0 aa0d*           885 	bne	.L508
                         886 .L502:
                         887 --254: 		&&(VALID == ssbKey.valid &&VALID == com_ssbKey.valid)
                         888 --255: 		||((INDEX_STBC_INTP5 == STBC_GetWakeUpType())&&(FALSE == flag)))
                         889 --256: 	{
                         890 --257: 		v_nwm_resume(&nwm_slave_instance);
                         891 --line257
                         892 ..lin.D.3A.5CRenesas_Electronics.5CD1x_RGL.5Crgl_ghs_D1Lx_obj_V1.2E2.2E0.5Cvlib.5Capp.5Cgfx_apps.5Csimple_draw_d1l2.5Ctarget.5Cd1lx_mango_ghs.5Cobj.5Ccom.36::
                         893 .LDWlin36:

                                                                      Page 17
                                                              C:\Users\YINGAO~1\AppData\Local\Temp\gh_000086k1.si
000002c2 1a30            894 	mov	r26,r6
                         895 	jarl	_v_nwm_resume,lp
                         895 <EXPANSION BEGIN>
                         895 jarl22 _v_nwm_resume , lp 
000002c4 80ff0000*       895 <EXPANSION END>
                         896 --258: 		com_SSBPress = TRUE;
                         897 --line258
                         898 ..lin.D.3A.5CRenesas_Electronics.5CD1x_RGL.5Crgl_ghs_D1Lx_obj_V1.2E2.2E0.5Cvlib.5Capp.5Cgfx_apps.5Csimple_draw_d1l2.5Ctarget.5Cd1lx_mango_ghs.5Cobj.5Ccom.37::
                         899 .LDWlin37:
000002c8 010a            900 	mov	1,r1
000002ca 5d0f0200        901 	st.b	r1,2[r29]
                         902 --259: 		flag =TRUE;
000002ce 010a            903 	mov	1,r1
000002d0 5d0f0d00        904 	st.b	r1,13[r29]
                         905 .L508:
                         906 --260: 	}
                         907 --261: 	else
                         908 --262: 	{
                         909 --263: 	}
                         910 --265: 	if (TRUE == com_SSBPress)
000002d4 9d0f0300        911 	ld.bu	2[r29],r1
000002d8 610a            912 	cmp	1,r1
000002da ca05*           913 	bne	.L511
                         914 --266: 	{          
                         915 --267: 		v_nwm_net_com_req(&nwm_slave_instance);
                         916 --line267
                         917 ..lin.D.3A.5CRenesas_Electronics.5CD1x_RGL.5Crgl_ghs_D1Lx_obj_V1.2E2.2E0.5Cvlib.5Capp.5Cgfx_apps.5Csimple_draw_d1l2.5Ctarget.5Cd1lx_mango_ghs.5Cobj.5Ccom.38::
                         918 .LDWlin38:
000002dc 1a30            919 	mov	r26,r6
                         920 	jarl	_v_nwm_net_com_req,lp
                         920 <EXPANSION BEGIN>
                         920 jarl22 _v_nwm_net_com_req , lp 
000002de 80ff0000*       920 <EXPANSION END>
                         921 .L511:
                         922 --268: 	}
                         923 --269: 	else
                         924 --270: 	{
                         925 --271: 	/*do nothing*/
                         926 --272: 	}
                         927 --273: 	
                         928 --274: 	com_ssbKey = ssbKey;
                         929 --line274
                         930 ..lin.D.3A.5CRenesas_Electronics.5CD1x_RGL.5Crgl_ghs_D1Lx_obj_V1.2E2.2E0.5Cvlib.5Capp.5Cgfx_apps.5Csimple_draw_d1l2.5Ctarget.5Cd1lx_mango_ghs.5Cobj.5Ccom.39::
                         931 .LDWlin39:
000002e2 23f60200        932 	movea	2,sp,ep
000002e6 6008            933 	sld.bu	0[ep],r1
000002e8 6170            934 	sld.bu	1[ep],r14
000002ea 5c0f0000        935 	st.b	r1,0[r28]
000002ee 5c770100        936 	st.b	r14,1[r28]
                         937 --275: }
000002f2 0000            938 	nop
                         939 --	    .ef
                         940 .LDW62:
000002f4 4406ff70        941 	dispose	2,{r25,r26,r27,r28,r29,r31},[lp]
                         942 	.type	_com_SSB_WakeUpNetworkCheck,@function
                         943 	.size	_com_SSB_WakeUpNetworkCheck,.-_com_SSB_WakeUpNetworkCheck
                         944 	.type	_com_SSB_WakeUpNetworkCheck..D.3A.5CRenesas_Electronics.5CD1x_RGL.5Crgl_ghs_D1Lx_obj_V1.2E2.2E0.5Cvlib.5Capp.5Cgfx_apps.5Csimple_draw_d1l2.5Ctarget.5Cd1lx_mango_ghs.5Cobj.5Ccom.,@function
                         945 	.size	_com_SSB_WakeUpNetworkCheck..D.3A.5CRenesas_Electronics.5CD1x_RGL.5Crgl_ghs_D1Lx_obj_V1.2E2.2E0.5Cvlib.5Capp.5Cgfx_apps.5Csimple_draw_d1l2.5Ctarget.5Cd1lx_mango_ghs.5Cobj.5Ccom.,.-_com_SSB_WakeUpNetworkCheck..D.3A.5CRenesas_Electronics.5CD1x_RGL.5Crgl_ghs_D1Lx_obj_V1.2E2.2E0.5Cvlib.5Capp.5Cgfx_apps.5Csimple_draw_d1l2.5Ctarget.5Cd1lx_mango_ghs.5Cobj.5Ccom.
                         946 	.align	2
                         947 .LDW72:
                         948 --_flag	.L584	static

                                                                      Page 18
                                                              C:\Users\YINGAO~1\AppData\Local\Temp\gh_000086k1.si
                         949 --_res	r27	local
                         950 --_ssbKey	2[sp]	local
                         951 
                         952 	.data
                         953 .L584:
                         954 	.global	_flag.com_SSB_WakeUpNetworkCheck.D.3A.5CRenesas_Electronics.5CD1x_RGL.5Crgl_ghs_D1Lx_obj_V1.2E2.2E0.5Cvlib.5Capp.5Cgfx_apps.5Csimple_draw_d1l2.5Ctarget.5Cd1lx_mango_ghs.5Cobj.5Ccom..17
                         955 _flag.com_SSB_WakeUpNetworkCheck.D.3A.5CRenesas_Electronics.5CD1x_RGL.5Crgl_ghs_D1Lx_obj_V1.2E2.2E0.5Cvlib.5Capp.5Cgfx_apps.5Csimple_draw_d1l2.5Ctarget.5Cd1lx_mango_ghs.5Cobj.5Ccom..17:
                         956 	.type	_flag.com_SSB_WakeUpNetworkCheck.D.3A.5CRenesas_Electronics.5CD1x_RGL.5Crgl_ghs_D1Lx_obj_V1.2E2.2E0.5Cvlib.5Capp.5Cgfx_apps.5Csimple_draw_d1l2.5Ctarget.5Cd1lx_mango_ghs.5Cobj.5Ccom..17,@object
                         957 	.size	_flag.com_SSB_WakeUpNetworkCheck.D.3A.5CRenesas_Electronics.5CD1x_RGL.5Crgl_ghs_D1Lx_obj_V1.2E2.2E0.5Cvlib.5Capp.5Cgfx_apps.5Csimple_draw_d1l2.5Ctarget.5Cd1lx_mango_ghs.5Cobj.5Ccom..17,1
00000015 00              958 	.byte	0
                         959 	.type	.L584,@object
                         960 	.size	.L584,1
                         961 	.text
                         962 
                         963 
                         964 --277: /*===================================
                         965 --278: @liuyingying update
                         966 --279: @20170207
                         967 --280: @add v_test_flag to get 41f frame is received or not
                         968 --281: ===================================*/
                         969 --283: static void com_nwm_process( void)
                         970 	.align	2
                         971 	.align	2
                         972 	.global	_com_nwm_process..D.3A.5CRenesas_Electronics.5CD1x_RGL.5Crgl_ghs_D1Lx_obj_V1.2E2.2E0.5Cvlib.5Capp.5Cgfx_apps.5Csimple_draw_d1l2.5Ctarget.5Cd1lx_mango_ghs.5Cobj.5Ccom.
                         973 _com_nwm_process..D.3A.5CRenesas_Electronics.5CD1x_RGL.5Crgl_ghs_D1Lx_obj_V1.2E2.2E0.5Cvlib.5Capp.5Cgfx_apps.5Csimple_draw_d1l2.5Ctarget.5Cd1lx_mango_ghs.5Cobj.5Ccom.:
                         974 _com_nwm_process:
000002f8 8607e170        975 	prepare	{r25,r26,r27,r28,r29,r31},3
000002fc 3d0600000000*   976 	mov	_isNetWorkStoped-1,r29
00000302 3c0600000000*   977 	mov	_nwm_slave_instance,r28
00000308 3dd61800        978 	movea	24,r29,r26
0000030c 3dce1400        979 	movea	20,r29,r25
00000310 3b0600000000*   980 	mov	_current_nwm_state,r27
                         981 --	    .bf
                         982 .LDW82:
                         983 --284: {
                         984 --285:  
                         985 --286:     static U32 ssbReqCnt = 0;
                         986 --287: 	static U32 reqCnt = 0;
                         987 --288:     static U16 DelayCnt = 0;
                         988 --290:     v_nwm_slave_processing( &nwm_slave_instance );
00000316 1c30            989 	mov	r28,r6
                         990 	jarl	_v_nwm_slave_processing,lp
                         990 <EXPANSION BEGIN>
                         990 jarl22 _v_nwm_slave_processing , lp 
00000318 80ff0000*       990 <EXPANSION END>
                         991 --291: 	current_nwm_state = v_nwm_get_state( &nwm_slave_instance );	
                         992 --line291
                         993 ..lin.D.3A.5CRenesas_Electronics.5CD1x_RGL.5Crgl_ghs_D1Lx_obj_V1.2E2.2E0.5Cvlib.5Capp.5Cgfx_apps.5Csimple_draw_d1l2.5Ctarget.5Cd1lx_mango_ghs.5Cobj.5Ccom.40::
                         994 .LDWlin40:
0000031c 1c30            995 	mov	r28,r6
                         996 	jarl	_v_nwm_get_state,lp
                         996 <EXPANSION BEGIN>
                         996 jarl22 _v_nwm_get_state , lp 
0000031e 80ff0000*       996 <EXPANSION END>
00000322 7b570100        997 	st.w	r10,0[r27]
                         998 --292: 	isNetWorkStoped = com_WakeUpFrameStoped();    
                         999 --line292
                        1000 ..lin.D.3A.5CRenesas_Electronics.5CD1x_RGL.5Crgl_ghs_D1Lx_obj_V1.2E2.2E0.5Cvlib.5Capp.5Cgfx_apps.5Csimple_draw_d1l2.5Ctarget.5Cd1lx_mango_ghs.5Cobj.5Ccom.41::
                        1001 .LDWlin41:
                        1002 	jarl	_com_WakeUpFrameStoped,lp
                        1002 <EXPANSION BEGIN>

                                                                      Page 19
                                                              C:\Users\YINGAO~1\AppData\Local\Temp\gh_000086k1.si
                        1002 jarl22 _com_WakeUpFrameStoped , lp 
00000326 80ff581a*      1002 <EXPANSION END>
0000032a 2b0600000000*  1003 	mov	_isNetWorkStoped,r11
00000330 4b570000       1004 	st.b	r10,0[r11]
                        1005 --293:     com_SSB_WakeUpNetworkCheck();
                        1006 --line293
                        1007 ..lin.D.3A.5CRenesas_Electronics.5CD1x_RGL.5Crgl_ghs_D1Lx_obj_V1.2E2.2E0.5Cvlib.5Capp.5Cgfx_apps.5Csimple_draw_d1l2.5Ctarget.5Cd1lx_mango_ghs.5Cobj.5Ccom.42::
                        1008 .LDWlin42:
                        1009 	jarl	_com_SSB_WakeUpNetworkCheck,lp
                        1009 <EXPANSION BEGIN>
                        1009 jarl22 _com_SSB_WakeUpNetworkCheck , lp 
00000334 bfff38ff*      1009 <EXPANSION END>
                        1010 --295: 	if(V_NWM_NETWORK_SLEEP == current_nwm_state)
                        1011 --line295
                        1012 ..lin.D.3A.5CRenesas_Electronics.5CD1x_RGL.5Crgl_ghs_D1Lx_obj_V1.2E2.2E0.5Cvlib.5Capp.5Cgfx_apps.5Csimple_draw_d1l2.5Ctarget.5Cd1lx_mango_ghs.5Cobj.5Ccom.43::
                        1013 .LDWlin43:
00000338 3b0f0100       1014 	ld.w	0[r27],r1
0000033c 650a           1015 	cmp	5,r1
0000033e 9a1d*          1016 	bne	.L604
                        1017 --296: 	{
                        1018 --297: 	    if(FALSE == com_NetWorkModeSleepFlg)
                        1019 --line297
                        1020 ..lin.D.3A.5CRenesas_Electronics.5CD1x_RGL.5Crgl_ghs_D1Lx_obj_V1.2E2.2E0.5Cvlib.5Capp.5Cgfx_apps.5Csimple_draw_d1l2.5Ctarget.5Cd1lx_mango_ghs.5Cobj.5Ccom.44::
                        1021 .LDWlin44:
00000340 9d0f0d00       1022 	ld.bu	12[r29],r1
00000344 e009           1023 	cmp	zero,r1
00000346 aa15*          1024 	bne	.L606
                        1025 --298:         {
                        1026 --299:             
                        1027 --300:             if(DelayCnt >= (1000))
                        1028 --line300
                        1029 ..lin.D.3A.5CRenesas_Electronics.5CD1x_RGL.5Crgl_ghs_D1Lx_obj_V1.2E2.2E0.5Cvlib.5Capp.5Cgfx_apps.5Csimple_draw_d1l2.5Ctarget.5Cd1lx_mango_ghs.5Cobj.5Ccom.45::
                        1030 .LDWlin45:
00000348 fd0f1900       1031 	ld.hu	24[r29],r1
0000034c 010618fc       1032 	addi	-1000,r1,zero
00000350 f905*          1033 	bnl	.L608
                        1034 --301:             {
                        1035 --302: 		        com_NetWorkModeSleepFlg = TRUE;
                        1036 --line302
                        1037 ..lin.D.3A.5CRenesas_Electronics.5CD1x_RGL.5Crgl_ghs_D1Lx_obj_V1.2E2.2E0.5Cvlib.5Capp.5Cgfx_apps.5Csimple_draw_d1l2.5Ctarget.5Cd1lx_mango_ghs.5Cobj.5Ccom.46::
                        1038 .LDWlin46:
00000352 010a           1039 	mov	1,r1
00000354 5d0f0c00       1040 	st.b	r1,12[r29]
                        1041 --303:                 DelayCnt = 0;
00000358 7d071800       1042 	st.h	zero,24[r29]
0000035c e50d*          1043 	br	.L612
                        1044 .L608:
                        1045 --304:             }
                        1046 --305:             else
                        1047 --306:             {
                        1048 --307:               DelayCnt ++;  
                        1049 --line307
                        1050 ..lin.D.3A.5CRenesas_Electronics.5CD1x_RGL.5Crgl_ghs_D1Lx_obj_V1.2E2.2E0.5Cvlib.5Capp.5Cgfx_apps.5Csimple_draw_d1l2.5Ctarget.5Cd1lx_mango_ghs.5Cobj.5Ccom.47::
                        1051 .LDWlin47:
0000035e fd0f1900       1052 	ld.hu	24[r29],r1
00000362 410a           1053 	add	1,r1
00000364 7d0f1800       1054 	st.h	r1,24[r29]
00000368 850d*          1055 	br	.L612
                        1056 .L606:
                        1057 --308:             }
                        1058 --309:         }

                                                                      Page 20
                                                              C:\Users\YINGAO~1\AppData\Local\Temp\gh_000086k1.si
                        1059 --310:         else
                        1060 --311:         {
                        1061 --312:             DelayCnt = 0;
                        1062 --line312
                        1063 ..lin.D.3A.5CRenesas_Electronics.5CD1x_RGL.5Crgl_ghs_D1Lx_obj_V1.2E2.2E0.5Cvlib.5Capp.5Cgfx_apps.5Csimple_draw_d1l2.5Ctarget.5Cd1lx_mango_ghs.5Cobj.5Ccom.48::
                        1064 .LDWlin48:
0000036a 7d071800       1065 	st.h	zero,24[r29]
0000036e d505*          1066 	br	.L612
                        1067 .L604:
                        1068 --313:         }
                        1069 --314: 	}
                        1070 --315: 	else
                        1071 --316: 	{
                        1072 --317: 		com_NetWorkModeSleepFlg= FALSE;
                        1073 --line317
                        1074 ..lin.D.3A.5CRenesas_Electronics.5CD1x_RGL.5Crgl_ghs_D1Lx_obj_V1.2E2.2E0.5Cvlib.5Capp.5Cgfx_apps.5Csimple_draw_d1l2.5Ctarget.5Cd1lx_mango_ghs.5Cobj.5Ccom.49::
                        1075 .LDWlin49:
00000370 5d070c00       1076 	st.b	zero,12[r29]
                        1077 --318:         DelayCnt = 0;
00000374 7d071800       1078 	st.h	zero,24[r29]
                        1079 .L612:
                        1080 --319: 	}
                        1081 --320:     switch(current_nwm_state)
00000378 3b0f0100       1082 	ld.w	0[r27],r1
0000037c 6c0a           1083 	cmp	12,r1
0000037e eb7d*          1084 	bh	.L648
00000380 c20a           1085 	shl	2,r1
00000382 e10600000000*  1086 	jmp	.L753[r1]
                        1087 .L753:
00000388 8007f200*      1088 	jr	.L648
0000038c 80073000*      1089 	jr	.L615
00000390 80072e00*      1090 	jr	.L616
00000394 8007de00*      1091 	jr	.L644
00000398 8007dc00*      1092 	jr	.L645
0000039c 80075e00*      1093 	jr	.L627
000003a0 80075800*      1094 	jr	.L626
000003a4 80075800*      1095 	jr	.L628
000003a8 8007be00*      1096 	jr	.L641
000003ac 8007bc00*      1097 	jr	.L642
000003b0 8007c600*      1098 	jr	.L646
000003b4 8007b600*      1099 	jr	.L643
000003b8 8007c000*      1100 	jr	.L647
                        1101 .L615:
                        1102 --line325
                        1103 ..lin.D.3A.5CRenesas_Electronics.5CD1x_RGL.5Crgl_ghs_D1Lx_obj_V1.2E2.2E0.5Cvlib.5Capp.5Cgfx_apps.5Csimple_draw_d1l2.5Ctarget.5Cd1lx_mango_ghs.5Cobj.5Ccom.50::
                        1104 .LDWlin50:
000003bc 8565*          1105 	br	.L613
                        1106 .L616:
                        1107 --321:     {
                        1108 --323:             case V_NWM_STARTUP:
                        1109 --324:                 /* The node is starting up */
                        1110 --325:                 break;
                        1111 --327:             case V_NWM_OPERATION:
                        1112 --328:                 /* We are up and communicating on the network. */
                        1113 --329:                 /* It's possible to run all functions that require */
                        1114 --330:                 /* communication over the network. */
                        1115 --332:                 /* In this example we need the network (receive or transmit */
                        1116 --333:                 /* signals) as long as sleep_requested is set to 0.           */
                        1117 --334:                 //  if (!sleep_requested)
                        1118 --335: 	
                        1119 --336:                 if(TRUE == com_SSBPress)

                                                                      Page 21
                                                              C:\Users\YINGAO~1\AppData\Local\Temp\gh_000086k1.si
                        1120 --line336
                        1121 ..lin.D.3A.5CRenesas_Electronics.5CD1x_RGL.5Crgl_ghs_D1Lx_obj_V1.2E2.2E0.5Cvlib.5Capp.5Cgfx_apps.5Csimple_draw_d1l2.5Ctarget.5Cd1lx_mango_ghs.5Cobj.5Ccom.51::
                        1122 .LDWlin51:
000003be 9d0f0300       1123 	ld.bu	2[r29],r1
000003c2 610a           1124 	cmp	1,r1
000003c4 9a1d*          1125 	bne	.L625
                        1126 --337:                 {
                        1127 --338:                     ssbReqCnt ++;
                        1128 --line338
                        1129 ..lin.D.3A.5CRenesas_Electronics.5CD1x_RGL.5Crgl_ghs_D1Lx_obj_V1.2E2.2E0.5Cvlib.5Capp.5Cgfx_apps.5Csimple_draw_d1l2.5Ctarget.5Cd1lx_mango_ghs.5Cobj.5Ccom.52::
                        1130 .LDWlin52:
000003c6 3d0f1100       1131 	ld.w	16[r29],r1
000003ca 410a           1132 	add	1,r1
000003cc 7d0f1100       1133 	st.w	r1,16[r29]
                        1134 --339:                     if((SSB_NET_REQ_MAXCNT - 5) >= ssbReqCnt)
000003d0 3d0f1100       1135 	ld.w	16[r29],r1
000003d4 010634f8       1136 	addi	-1996,r1,zero
000003d8 f90d*          1137 	bnl	.L625
                        1138 --340:                     {		
                        1139 --341:                     }
                        1140 --342:                     else
                        1141 --343:                     {
                        1142 --344:                         ssbReqCnt =0;
                        1143 --line344
                        1144 ..lin.D.3A.5CRenesas_Electronics.5CD1x_RGL.5Crgl_ghs_D1Lx_obj_V1.2E2.2E0.5Cvlib.5Capp.5Cgfx_apps.5Csimple_draw_d1l2.5Ctarget.5Cd1lx_mango_ghs.5Cobj.5Ccom.53::
                        1145 .LDWlin53:
000003da 7d071100       1146 	st.w	zero,16[r29]
                        1147 --345:                         com_SSBPress = FALSE;						
000003de 5d070200       1148 	st.b	zero,2[r29]
                        1149 --346:                         if(TRUE == isNetWorkStoped)
000003e2 210600000000*  1150 	mov	_isNetWorkStoped,r1
000003e8 810f0100       1151 	ld.bu	0[r1],r1
000003ec 610a           1152 	cmp	1,r1
000003ee ca05*          1153 	bne	.L625
                        1154 --347:                         {
                        1155 --348:                             v_nwm_stop(&nwm_slave_instance);
                        1156 --line348
                        1157 ..lin.D.3A.5CRenesas_Electronics.5CD1x_RGL.5Crgl_ghs_D1Lx_obj_V1.2E2.2E0.5Cvlib.5Capp.5Cgfx_apps.5Csimple_draw_d1l2.5Ctarget.5Cd1lx_mango_ghs.5Cobj.5Ccom.54::
                        1158 .LDWlin54:
000003f0 1c30           1159 	mov	r28,r6
                        1160 	jarl	_v_nwm_stop,lp
                        1160 <EXPANSION BEGIN>
                        1160 jarl22 _v_nwm_stop , lp 
000003f2 80ff0000*      1160 <EXPANSION END>
                        1161 .L625:
                        1162 --349:                         }
                        1163 --350: 						else
                        1164 --351: 		        		{  
                        1165 --352: 		        		}
                        1166 --353:                     }
                        1167 --354:                 }
                        1168 --355:         		else
                        1169 --356:         		{   
                        1170 --line363
                        1171 ..lin.D.3A.5CRenesas_Electronics.5CD1x_RGL.5Crgl_ghs_D1Lx_obj_V1.2E2.2E0.5Cvlib.5Capp.5Cgfx_apps.5Csimple_draw_d1l2.5Ctarget.5Cd1lx_mango_ghs.5Cobj.5Ccom.55::
                        1172 .LDWlin55:
000003f6 b545*          1173 	br	.L613
                        1174 .L626:
                        1175 --line368
                        1176 ..lin.D.3A.5CRenesas_Electronics.5CD1x_RGL.5Crgl_ghs_D1Lx_obj_V1.2E2.2E0.5Cvlib.5Capp.5Cgfx_apps.5Csimple_draw_d1l2.5Ctarget.5Cd1lx_mango_ghs.5Cobj.5Ccom.56::
                        1177 .LDWlin56:

                                                                      Page 22
                                                              C:\Users\YINGAO~1\AppData\Local\Temp\gh_000086k1.si
000003f8 a545*          1178 	br	.L613
                        1179 .L627:
                        1180 --line374
                        1181 ..lin.D.3A.5CRenesas_Electronics.5CD1x_RGL.5Crgl_ghs_D1Lx_obj_V1.2E2.2E0.5Cvlib.5Capp.5Cgfx_apps.5Csimple_draw_d1l2.5Ctarget.5Cd1lx_mango_ghs.5Cobj.5Ccom.57::
                        1182 .LDWlin57:
000003fa 9545*          1183 	br	.L613
                        1184 .L628:
                        1185 --357:         		}
                        1186 --358:               
                        1187 --360:                 /* Read the busoff counter and write it to the signal BusOffCounter */
                        1188 --361:                 // busoff_cntr = v_nwm_get_busoff_counter( &nwm_slave_instance );
                        1189 --362:                 //v_wr_8( busoff_counter_handle, busoff_cntr );
                        1190 --363:                 break;
                        1191 --365:             case V_NWM_WAIT_FOR_NETWORK_SLEEP:
                        1192 --366:                 /* We are on the way to Network Sleep. Signals should */
                        1193 --367:                 /* not be written any more. We shall continue to read signals. */
                        1194 --368:                 break;
                        1195 --370:             case V_NWM_NETWORK_SLEEP:
                        1196 --371:                 /* The node is silent and the CAN-controllers are in */
                        1197 --372:                 /* sleep mode. */
                        1198 --373:                 //  sleep_requested = 0;
                        1199 --374:                 break;
                        1200 --376:             case V_NWM_WAKEUP_NETWORK:
                        1201 --377:                 /* We are waking up the network */
                        1202 --378:                 /* if master failed and its fixed frame is not received within time, */
                        1203 --379:                 /* request wakeup again, so that slave transitions to limphome state */
                        1204 --380:                 if((&nwm_slave_instance)->slave->remote_frame_supported)
                        1205 --line380
                        1206 ..lin.D.3A.5CRenesas_Electronics.5CD1x_RGL.5Crgl_ghs_D1Lx_obj_V1.2E2.2E0.5Cvlib.5Capp.5Cgfx_apps.5Csimple_draw_d1l2.5Ctarget.5Cd1lx_mango_ghs.5Cobj.5Ccom.58::
                        1207 .LDWlin58:
000003fc 3c0f0100       1208 	ld.w	0[r28],r1
00000400 810f1d00       1209 	ld.bu	28[r1],r1
00000404 e009           1210 	cmp	zero,r1
00000406 d215*          1211 	be	.L634
                        1212 --381:                 {
                        1213 --382:                     if((&nwm_slave_instance)->ram_variables->nwm_timer > (v_rd_8(wakeup_network_time_slave_handle) + 2))
                        1214 --line382
                        1215 ..lin.D.3A.5CRenesas_Electronics.5CD1x_RGL.5Crgl_ghs_D1Lx_obj_V1.2E2.2E0.5Cvlib.5Capp.5Cgfx_apps.5Csimple_draw_d1l2.5Ctarget.5Cd1lx_mango_ghs.5Cobj.5Ccom.59::
                        1216 .LDWlin59:
00000408 3c5f0900       1217 	ld.w	8[r28],r11
0000040c 26062c203f00   1218 	mov	4137004,r6
00000412 635f0900       1219 	st.w	r11,8[sp]
                        1220 	jarl	_v_rd_8,lp
                        1220 <EXPANSION BEGIN>
                        1220 jarl22 _v_rd_8 , lp 
00000416 80ff0000*      1220 <EXPANSION END>
0000041a 23770900       1221 	ld.w	8[sp],r14
0000041e 0a0e0200       1222 	addi	2,r10,r1
00000422 2e770100       1223 	ld.w	0[r14],r14
00000426 e171           1224 	cmp	r1,r14
00000428 c305*          1225 	bnh	.L634
                        1226 --383:                     {
                        1227 --384:                         v_nwm_net_com_req(&nwm_slave_instance);
                        1228 --line384
                        1229 ..lin.D.3A.5CRenesas_Electronics.5CD1x_RGL.5Crgl_ghs_D1Lx_obj_V1.2E2.2E0.5Cvlib.5Capp.5Cgfx_apps.5Csimple_draw_d1l2.5Ctarget.5Cd1lx_mango_ghs.5Cobj.5Ccom.60::
                        1230 .LDWlin60:
0000042a 1c30           1231 	mov	r28,r6
                        1232 	jarl	_v_nwm_net_com_req,lp
                        1232 <EXPANSION BEGIN>
                        1232 jarl22 _v_nwm_net_com_req , lp 
0000042c 80ff0000*      1232 <EXPANSION END>

                                                                      Page 23
                                                              C:\Users\YINGAO~1\AppData\Local\Temp\gh_000086k1.si
                        1233 .L634:
                        1234 --385:                     }
                        1235 --386: 					else
                        1236 --387: 	        		{ 
                        1237 --388: 	        		}
                        1238 --389:                 }
                        1239 --390: 				else
                        1240 --391:         		{ 
                        1241 --392:         		}
                        1242 --394:     		if(TRUE == com_SSBPress)
                        1243 --line394
                        1244 ..lin.D.3A.5CRenesas_Electronics.5CD1x_RGL.5Crgl_ghs_D1Lx_obj_V1.2E2.2E0.5Cvlib.5Capp.5Cgfx_apps.5Csimple_draw_d1l2.5Ctarget.5Cd1lx_mango_ghs.5Cobj.5Ccom.61::
                        1245 .LDWlin61:
00000430 9d0f0300       1246 	ld.bu	2[r29],r1
00000434 610a           1247 	cmp	1,r1
00000436 fa15*          1248 	bne	.L640
                        1249 --395:     		{
                        1250 --396:     		    v_nwm_net_com_req(&nwm_slave_instance); 
                        1251 --line396
                        1252 ..lin.D.3A.5CRenesas_Electronics.5CD1x_RGL.5Crgl_ghs_D1Lx_obj_V1.2E2.2E0.5Cvlib.5Capp.5Cgfx_apps.5Csimple_draw_d1l2.5Ctarget.5Cd1lx_mango_ghs.5Cobj.5Ccom.62::
                        1253 .LDWlin62:
00000438 1c30           1254 	mov	r28,r6
                        1255 	jarl	_v_nwm_net_com_req,lp
                        1255 <EXPANSION BEGIN>
                        1255 jarl22 _v_nwm_net_com_req , lp 
0000043a 80ff0000*      1255 <EXPANSION END>
                        1256 --397: 				reqCnt ++;
                        1257 --line397
                        1258 ..lin.D.3A.5CRenesas_Electronics.5CD1x_RGL.5Crgl_ghs_D1Lx_obj_V1.2E2.2E0.5Cvlib.5Capp.5Cgfx_apps.5Csimple_draw_d1l2.5Ctarget.5Cd1lx_mango_ghs.5Cobj.5Ccom.63::
                        1259 .LDWlin63:
0000043e 3d0f1500       1260 	ld.w	20[r29],r1
00000442 410a           1261 	add	1,r1
00000444 7d0f1500       1262 	st.w	r1,20[r29]
                        1263 --398:                 if(reqCnt >5)
00000448 3d0f1500       1264 	ld.w	20[r29],r1
0000044c 650a           1265 	cmp	5,r1
0000044e b30d*          1266 	bnh	.L640
                        1267 --399:                 {
                        1268 --400:                     reqCnt = 0;
                        1269 --line400
                        1270 ..lin.D.3A.5CRenesas_Electronics.5CD1x_RGL.5Crgl_ghs_D1Lx_obj_V1.2E2.2E0.5Cvlib.5Capp.5Cgfx_apps.5Csimple_draw_d1l2.5Ctarget.5Cd1lx_mango_ghs.5Cobj.5Ccom.64::
                        1271 .LDWlin64:
00000450 7d071500       1272 	st.w	zero,20[r29]
                        1273 --401:                     v_fmd_set(IPK_CAN_HS_handle,FM_Normal_HS_handle);
00000454 260600000000*  1274 	mov	_v_controllers,r6
0000045a 2706e03d3f00   1275 	mov	4144608,r7
                        1276 	jarl	_v_fmd_set,lp
                        1276 <EXPANSION BEGIN>
                        1276 jarl22 _v_fmd_set , lp 
00000460 80ff0000*      1276 <EXPANSION END>
                        1277 .L640:
                        1278 --402:                 }
                        1279 --403: 				else
                        1280 --404:         		{ 
                        1281 --405:         		}
                        1282 --406: 				
                        1283 --407:   	        }
                        1284 --408: 			else
                        1285 --409:     		{ 
                        1286 --line411
                        1287 ..lin.D.3A.5CRenesas_Electronics.5CD1x_RGL.5Crgl_ghs_D1Lx_obj_V1.2E2.2E0.5Cvlib.5Capp.5Cgfx_apps.5Csimple_draw_d1l2.5Ctarget.5Cd1lx_mango_ghs.5Cobj.5Ccom.65::

                                                                      Page 24
                                                              C:\Users\YINGAO~1\AppData\Local\Temp\gh_000086k1.si
                        1288 .LDWlin65:
00000464 c50d*          1289 	br	.L613
                        1290 .L641:
                        1291 --line415
                        1292 ..lin.D.3A.5CRenesas_Electronics.5CD1x_RGL.5Crgl_ghs_D1Lx_obj_V1.2E2.2E0.5Cvlib.5Capp.5Cgfx_apps.5Csimple_draw_d1l2.5Ctarget.5Cd1lx_mango_ghs.5Cobj.5Ccom.66::
                        1293 .LDWlin66:
00000466 b50d*          1294 	br	.L613
                        1295 .L642:
                        1296 --line419
                        1297 ..lin.D.3A.5CRenesas_Electronics.5CD1x_RGL.5Crgl_ghs_D1Lx_obj_V1.2E2.2E0.5Cvlib.5Capp.5Cgfx_apps.5Csimple_draw_d1l2.5Ctarget.5Cd1lx_mango_ghs.5Cobj.5Ccom.67::
                        1298 .LDWlin67:
00000468 a50d*          1299 	br	.L613
                        1300 .L643:
                        1301 --410:     		}
                        1302 --411:                 break;
                        1303 --413:             case V_NWM_WAKEUP_PENDING:
                        1304 --414:                 /* We have been woken up by traffic on the network */
                        1305 --415:                 break;
                        1306 --417:             case V_NWM_EXPULSION:
                        1307 --418:                 /* Incorrect signal configuration id received. */
                        1308 --419:                 break;
                        1309 --421:             case V_NWM_STOPPED:
                        1310 --422:                 v_nwm_resume(&nwm_slave_instance);
                        1311 --line422
                        1312 ..lin.D.3A.5CRenesas_Electronics.5CD1x_RGL.5Crgl_ghs_D1Lx_obj_V1.2E2.2E0.5Cvlib.5Capp.5Cgfx_apps.5Csimple_draw_d1l2.5Ctarget.5Cd1lx_mango_ghs.5Cobj.5Ccom.68::
                        1313 .LDWlin68:
0000046a 1c30           1314 	mov	r28,r6
                        1315 	jarl	_v_nwm_resume,lp
                        1315 <EXPANSION BEGIN>
                        1315 jarl22 _v_nwm_resume , lp 
0000046c 80ff0000*      1315 <EXPANSION END>
                        1316 --line424
                        1317 ..lin.D.3A.5CRenesas_Electronics.5CD1x_RGL.5Crgl_ghs_D1Lx_obj_V1.2E2.2E0.5Cvlib.5Capp.5Cgfx_apps.5Csimple_draw_d1l2.5Ctarget.5Cd1lx_mango_ghs.5Cobj.5Ccom.69::
                        1318 .LDWlin69:
00000470 e505*          1319 	br	.L613
                        1320 .L644:
                        1321 --line428
                        1322 ..lin.D.3A.5CRenesas_Electronics.5CD1x_RGL.5Crgl_ghs_D1Lx_obj_V1.2E2.2E0.5Cvlib.5Capp.5Cgfx_apps.5Csimple_draw_d1l2.5Ctarget.5Cd1lx_mango_ghs.5Cobj.5Ccom.70::
                        1323 .LDWlin70:
00000472 d505*          1324 	br	.L613
                        1325 .L645:
                        1326 --line432
                        1327 ..lin.D.3A.5CRenesas_Electronics.5CD1x_RGL.5Crgl_ghs_D1Lx_obj_V1.2E2.2E0.5Cvlib.5Capp.5Cgfx_apps.5Csimple_draw_d1l2.5Ctarget.5Cd1lx_mango_ghs.5Cobj.5Ccom.71::
                        1328 .LDWlin71:
00000474 c505*          1329 	br	.L613
                        1330 .L646:
                        1331 --line437
                        1332 ..lin.D.3A.5CRenesas_Electronics.5CD1x_RGL.5Crgl_ghs_D1Lx_obj_V1.2E2.2E0.5Cvlib.5Capp.5Cgfx_apps.5Csimple_draw_d1l2.5Ctarget.5Cd1lx_mango_ghs.5Cobj.5Ccom.72::
                        1333 .LDWlin72:
00000476 b505*          1334 	br	.L613
                        1335 .L647:
                        1336 --line446
                        1337 ..lin.D.3A.5CRenesas_Electronics.5CD1x_RGL.5Crgl_ghs_D1Lx_obj_V1.2E2.2E0.5Cvlib.5Capp.5Cgfx_apps.5Csimple_draw_d1l2.5Ctarget.5Cd1lx_mango_ghs.5Cobj.5Ccom.73::
                        1338 .LDWlin73:
00000478 a505*          1339 	br	.L613
                        1340 .L648:
                        1341 --line448
                        1342 ..lin.D.3A.5CRenesas_Electronics.5CD1x_RGL.5Crgl_ghs_D1Lx_obj_V1.2E2.2E0.5Cvlib.5Capp.5Cgfx_apps.5Csimple_draw_d1l2.5Ctarget.5Cd1lx_mango_ghs.5Cobj.5Ccom.74::
                        1343 .LDWlin74:
0000047a 0000           1344 	nop
                        1345 .L613:

                                                                      Page 25
                                                              C:\Users\YINGAO~1\AppData\Local\Temp\gh_000086k1.si
                        1346 --423:                 /* We are disconnected from the network. */
                        1347 --424:                 break;
                        1348 --426:             case V_NWM_BUSOFF:
                        1349 --427:                 /* One or more busoff errors detected. */
                        1350 --428:                 break;
                        1351 --430:             case V_NWM_BUSOFF_WAIT:
                        1352 --431:                 /* The number of busoff errors has reached BUSOFF_MAX. */
                        1353 --432:                 break;
                        1354 --434:             case V_NWM_ISOLATED:
                        1355 --435:                 /* Not possible to get here. The transition to state Isolated is */
                        1356 --436:                 /* made in function v_nwm_init() if there is a initialisation error */
                        1357 --437:                 break;
                        1358 --438:             case V_NWM_LIMPHOME:
                        1359 --439:                 /* In this example we need the network (receive or transmit   */
                        1360 --440:                 /* signals) as long as sleep_requested is set to 0.           */
                        1361 --441:               
                        1362 --443:                 /* Read the busoff counter and write it to the signal BusOffCounter */
                        1363 --444:              //   busoff_cntr = v_nwm_get_busoff_counter( &nwm_slave_instance );
                        1364 --445:              //   v_wr_8( busoff_counter_handle, busoff_cntr );
                        1365 --446:             	break;
                        1366 --447:             default:
                        1367 --448:                 break;
                        1368 --449:         }
                        1369 --452: }
0000047c 0000           1370 	nop
                        1371 --	    .ef
                        1372 .LDW92:
0000047e 4606ff70       1373 	dispose	3,{r25,r26,r27,r28,r29,r31},[lp]
                        1374 	.type	_com_nwm_process,@function
                        1375 	.size	_com_nwm_process,.-_com_nwm_process
                        1376 	.type	_com_nwm_process..D.3A.5CRenesas_Electronics.5CD1x_RGL.5Crgl_ghs_D1Lx_obj_V1.2E2.2E0.5Cvlib.5Capp.5Cgfx_apps.5Csimple_draw_d1l2.5Ctarget.5Cd1lx_mango_ghs.5Cobj.5Ccom.,@function
                        1377 	.size	_com_nwm_process..D.3A.5CRenesas_Electronics.5CD1x_RGL.5Crgl_ghs_D1Lx_obj_V1.2E2.2E0.5Cvlib.5Capp.5Cgfx_apps.5Csimple_draw_d1l2.5Ctarget.5Cd1lx_mango_ghs.5Cobj.5Ccom.,.-_com_nwm_process..D.3A.5CRenesas_Electronics.5CD1x_RGL.5Crgl_ghs_D1Lx_obj_V1.2E2.2E0.5Cvlib.5Capp.5Cgfx_apps.5Csimple_draw_d1l2.5Ctarget.5Cd1lx_mango_ghs.5Cobj.5Ccom.
                        1378 	.align	2
                        1379 .LDW03:
                        1380 --_ssbReqCnt	.L852	static
                        1381 --_reqCnt	.L853	static
                        1382 --_DelayCnt	.L854	static
                        1383 
                        1384 	.data
00000016 0000           1385 	.space	2
                        1386 .L852:
                        1387 	.global	_ssbReqCnt.com_nwm_process.D.3A.5CRenesas_Electronics.5CD1x_RGL.5Crgl_ghs_D1Lx_obj_V1.2E2.2E0.5Cvlib.5Capp.5Cgfx_apps.5Csimple_draw_d1l2.5Ctarget.5Cd1lx_mango_ghs.5Cobj.5Ccom..18
                        1388 _ssbReqCnt.com_nwm_process.D.3A.5CRenesas_Electronics.5CD1x_RGL.5Crgl_ghs_D1Lx_obj_V1.2E2.2E0.5Cvlib.5Capp.5Cgfx_apps.5Csimple_draw_d1l2.5Ctarget.5Cd1lx_mango_ghs.5Cobj.5Ccom..18:
                        1389 	.type	_ssbReqCnt.com_nwm_process.D.3A.5CRenesas_Electronics.5CD1x_RGL.5Crgl_ghs_D1Lx_obj_V1.2E2.2E0.5Cvlib.5Capp.5Cgfx_apps.5Csimple_draw_d1l2.5Ctarget.5Cd1lx_mango_ghs.5Cobj.5Ccom..18,@object
                        1390 	.size	_ssbReqCnt.com_nwm_process.D.3A.5CRenesas_Electronics.5CD1x_RGL.5Crgl_ghs_D1Lx_obj_V1.2E2.2E0.5Cvlib.5Capp.5Cgfx_apps.5Csimple_draw_d1l2.5Ctarget.5Cd1lx_mango_ghs.5Cobj.5Ccom..18,4
00000018 00000000       1391 	.byte	0,0,0,0
                        1392 	.type	.L852,@object
                        1393 	.size	.L852,4
                        1394 .L853:
                        1395 	.global	_reqCnt.com_nwm_process.D.3A.5CRenesas_Electronics.5CD1x_RGL.5Crgl_ghs_D1Lx_obj_V1.2E2.2E0.5Cvlib.5Capp.5Cgfx_apps.5Csimple_draw_d1l2.5Ctarget.5Cd1lx_mango_ghs.5Cobj.5Ccom..19
                        1396 _reqCnt.com_nwm_process.D.3A.5CRenesas_Electronics.5CD1x_RGL.5Crgl_ghs_D1Lx_obj_V1.2E2.2E0.5Cvlib.5Capp.5Cgfx_apps.5Csimple_draw_d1l2.5Ctarget.5Cd1lx_mango_ghs.5Cobj.5Ccom..19:
                        1397 	.type	_reqCnt.com_nwm_process.D.3A.5CRenesas_Electronics.5CD1x_RGL.5Crgl_ghs_D1Lx_obj_V1.2E2.2E0.5Cvlib.5Capp.5Cgfx_apps.5Csimple_draw_d1l2.5Ctarget.5Cd1lx_mango_ghs.5Cobj.5Ccom..19,@object
                        1398 	.size	_reqCnt.com_nwm_process.D.3A.5CRenesas_Electronics.5CD1x_RGL.5Crgl_ghs_D1Lx_obj_V1.2E2.2E0.5Cvlib.5Capp.5Cgfx_apps.5Csimple_draw_d1l2.5Ctarget.5Cd1lx_mango_ghs.5Cobj.5Ccom..19,4
0000001c 00000000       1399 	.byte	0,0,0,0
                        1400 	.type	.L853,@object
                        1401 	.size	.L853,4
                        1402 .L854:
                        1403 	.global	_DelayCnt.com_nwm_process.D.3A.5CRenesas_Electronics.5CD1x_RGL.5Crgl_ghs_D1Lx_obj_V1.2E2.2E0.5Cvlib.5Capp.5Cgfx_apps.5Csimple_draw_d1l2.5Ctarget.5Cd1lx_mango_ghs.5Cobj.5Ccom..20
                        1404 _DelayCnt.com_nwm_process.D.3A.5CRenesas_Electronics.5CD1x_RGL.5Crgl_ghs_D1Lx_obj_V1.2E2.2E0.5Cvlib.5Capp.5Cgfx_apps.5Csimple_draw_d1l2.5Ctarget.5Cd1lx_mango_ghs.5Cobj.5Ccom..20:
                        1405 	.type	_DelayCnt.com_nwm_process.D.3A.5CRenesas_Electronics.5CD1x_RGL.5Crgl_ghs_D1Lx_obj_V1.2E2.2E0.5Cvlib.5Capp.5Cgfx_apps.5Csimple_draw_d1l2.5Ctarget.5Cd1lx_mango_ghs.5Cobj.5Ccom..20,@object
                        1406 	.size	_DelayCnt.com_nwm_process.D.3A.5CRenesas_Electronics.5CD1x_RGL.5Crgl_ghs_D1Lx_obj_V1.2E2.2E0.5Cvlib.5Capp.5Cgfx_apps.5Csimple_draw_d1l2.5Ctarget.5Cd1lx_mango_ghs.5Cobj.5Ccom..20,2

                                                                      Page 26
                                                              C:\Users\YINGAO~1\AppData\Local\Temp\gh_000086k1.si
00000020 0000           1407 	.byte	0,0
                        1408 	.type	.L854,@object
                        1409 	.size	.L854,2
                        1410 	.ghsnote jtable,2097156,.L753,.L753,.L753,13
                        1411 	.text
                        1412 
                        1413 
                        1414 --455: /***************************************************
                        1415 --456: * Function: COM_CAN2Lin
                        1416 --457: * Description: the signals of Lin to can
                        1417 --458: * Parameters: none
                        1418 --459: * Returns: none
                        1419 --460: * $Create & Verlog:$
                        1420 --462: TrShftLvrPos
                        1421 --463: TrShftLvrPosV
                        1422 --464: BCMPwrMdHwdSta - ignore
                        1423 --465: Displayed Speed
                        1424 --467: * Author:Yingying.Liu  Date:2016-12-12   Version:V1.0
                        1425 --468: ****************************************************/
                        1426 --469: void COM_CAN2Lin(void)
                        1427 	.align	2
                        1428 	.align	2
                        1429 	.global	_COM_CAN2Lin
                        1430 _COM_CAN2Lin:
00000482 80076100       1431 	prepare	{r29,r31},0
00000486 3d0600000000*  1432 	mov	_com_DisPlayspeed,r29
                        1433 --	    .bf
                        1434 .LDW13:
                        1435 --470: {
                        1436 --472: 	
                        1437 --473: 	v_wr_8(TrShftLvrPos_l5_handle,com_TrShftLvrPos);
0000048c bd3f0d00       1438 	ld.bu	13[r29],r7
00000490 2606983b3f00   1439 	mov	4144024,r6
                        1440 	jarl	_v_wr_8,lp
                        1440 <EXPANSION BEGIN>
                        1440 jarl22 _v_wr_8 , lp 
00000496 80ff0000*      1440 <EXPANSION END>
                        1441 --474: 	v_wr_8(TrShftLvrPosV_l5_handle,com_TrShftLvrPosV);
                        1442 --line474
                        1443 ..lin.D.3A.5CRenesas_Electronics.5CD1x_RGL.5Crgl_ghs_D1Lx_obj_V1.2E2.2E0.5Cvlib.5Capp.5Cgfx_apps.5Csimple_draw_d1l2.5Ctarget.5Cd1lx_mango_ghs.5Cobj.5Ccom.75::
                        1444 .LDWlin75:
0000049a 9d3f0f00       1445 	ld.bu	14[r29],r7
0000049e 2606743b3f00   1446 	mov	4143988,r6
                        1447 	jarl	_v_wr_8,lp
                        1447 <EXPANSION BEGIN>
                        1447 jarl22 _v_wr_8 , lp 
000004a4 80ff0000*      1447 <EXPANSION END>
                        1448 --475: 	v_wr_8(MstrSysPwrMd_handle,com_MstrSysPwrMd);
                        1449 --line475
                        1450 ..lin.D.3A.5CRenesas_Electronics.5CD1x_RGL.5Crgl_ghs_D1Lx_obj_V1.2E2.2E0.5Cvlib.5Capp.5Cgfx_apps.5Csimple_draw_d1l2.5Ctarget.5Cd1lx_mango_ghs.5Cobj.5Ccom.76::
                        1451 .LDWlin76:
000004a8 bd3f0f00       1452 	ld.bu	15[r29],r7
000004ac 2606503b3f00   1453 	mov	4143952,r6
                        1454 	jarl	_v_wr_8,lp
                        1454 <EXPANSION BEGIN>
                        1454 jarl22 _v_wr_8 , lp 
000004b2 80ff0000*      1454 <EXPANSION END>
                        1455 --476:     v_wr_8(LowAcurcVehSpdAvg_handle,(U8)(com_DisPlayspeed/2));
                        1456 --line476
                        1457 ..lin.D.3A.5CRenesas_Electronics.5CD1x_RGL.5Crgl_ghs_D1Lx_obj_V1.2E2.2E0.5Cvlib.5Capp.5Cgfx_apps.5Csimple_draw_d1l2.5Ctarget.5Cd1lx_mango_ghs.5Cobj.5Ccom.77::
                        1458 .LDWlin77:

                                                                      Page 27
                                                              C:\Users\YINGAO~1\AppData\Local\Temp\gh_000086k1.si
000004b6 210600000000*  1459 	mov	_com_DisPlayspeed,r1
000004bc 210f0100       1460 	ld.w	0[r1],r1
000004c0 26062c3b3f00   1461 	mov	4143916,r6
000004c6 810a           1462 	shr	1,r1
000004c8 0138           1463 	mov	r1,r7
000004ca 8700           1464 	zxb	r7
                        1465 	jarl	_v_wr_8,lp
                        1465 <EXPANSION BEGIN>
                        1465 jarl22 _v_wr_8 , lp 
000004cc 80ff0000*      1465 <EXPANSION END>
                        1466 --478: }
                        1467 --line478
                        1468 ..lin.D.3A.5CRenesas_Electronics.5CD1x_RGL.5Crgl_ghs_D1Lx_obj_V1.2E2.2E0.5Cvlib.5Capp.5Cgfx_apps.5Csimple_draw_d1l2.5Ctarget.5Cd1lx_mango_ghs.5Cobj.5Ccom.78::
                        1469 .LDWlin78:
000004d0 0000           1470 	nop
                        1471 --	    .ef
                        1472 .LDW23:
000004d2 40067f00       1473 	dispose	0,{r29,r31},[lp]
                        1474 	.type	_COM_CAN2Lin,@function
                        1475 	.size	_COM_CAN2Lin,.-_COM_CAN2Lin
                        1476 	.align	2
                        1477 .LDW33:
                        1478 
                        1479 	.data
                        1480 	.text
                        1481 
                        1482 
                        1483 --485: /***************************************************
                        1484 --486: * Function: COM_Lin2CAN
                        1485 --487: * Description: the signals of Lin to can
                        1486 --488: * Parameters: none
                        1487 --489: * Returns: none
                        1488 --490: * $Create & Verlog:$
                        1489 --492: PDCSysSts_L	
                        1490 --493: RLObsRng_L	
                        1491 --494: RRObsRng_L	
                        1492 --495: RrMidLObsRng_L	
                        1493 --496: RrMidRObsRng_L	
                        1494 --497:         FLObsRng_L - ignore	
                        1495 --498:         FRObsRng_L	- ignore	
                        1496 --499:         FrtMidLObsRng_L	- ignore	
                        1497 --500:         FrtMidRObsRng_L	- ignore	
                        1498 --501:         FrtPDCAudWrnng_L	- ignore	
                        1499 --502: PDCCofignSts_L	
                        1500 --505: * Author:Yingying.Liu  Date:2016-12-12   Version:V1.0
                        1501 --506: ****************************************************/
                        1502 --509: void COM_Lin2CAN(void)
                        1503 	.align	2
                        1504 	.align	2
                        1505 	.global	_COM_Lin2CAN
                        1506 _COM_Lin2CAN:
000004d6 80076100       1507 	prepare	{r29,r31},0
000004da 3d0600000000*  1508 	mov	_L_PDCSysSts-3,r29
                        1509 --	    .bf
                        1510 .LDW43:
                        1511 --510: {
                        1512 --511:     v_wr_8(PDCSysSts_handle,L_PDCSysSts);
000004e0 270600000000*  1513 	mov	_L_PDCSysSts,r7
000004e6 873f0100       1514 	ld.bu	0[r7],r7
000004ea 26066c343f00   1515 	mov	4142188,r6
                        1516 	jarl	_v_wr_8,lp

                                                                      Page 28
                                                              C:\Users\YINGAO~1\AppData\Local\Temp\gh_000086k1.si
                        1516 <EXPANSION BEGIN>
                        1516 jarl22 _v_wr_8 , lp 
000004f0 80ff0000*      1516 <EXPANSION END>
                        1517 --512:     v_wr_8(RLObsRng_handle,L_RLObsRng);
                        1518 --line512
                        1519 ..lin.D.3A.5CRenesas_Electronics.5CD1x_RGL.5Crgl_ghs_D1Lx_obj_V1.2E2.2E0.5Cvlib.5Capp.5Cgfx_apps.5Csimple_draw_d1l2.5Ctarget.5Cd1lx_mango_ghs.5Cobj.5Ccom.79::
                        1520 .LDWlin79:
000004f4 9d3f0500       1521 	ld.bu	4[r29],r7
000004f8 260620353f00   1522 	mov	4142368,r6
                        1523 	jarl	_v_wr_8,lp
                        1523 <EXPANSION BEGIN>
                        1523 jarl22 _v_wr_8 , lp 
000004fe 80ff0000*      1523 <EXPANSION END>
                        1524 --513:     v_wr_8(RRObsRng_handle,L_RRObsRng);
                        1525 --line513
                        1526 ..lin.D.3A.5CRenesas_Electronics.5CD1x_RGL.5Crgl_ghs_D1Lx_obj_V1.2E2.2E0.5Cvlib.5Capp.5Cgfx_apps.5Csimple_draw_d1l2.5Ctarget.5Cd1lx_mango_ghs.5Cobj.5Ccom.80::
                        1527 .LDWlin80:
00000502 bd3f0500       1528 	ld.bu	5[r29],r7
00000506 2606d4353f00   1529 	mov	4142548,r6
                        1530 	jarl	_v_wr_8,lp
                        1530 <EXPANSION BEGIN>
                        1530 jarl22 _v_wr_8 , lp 
0000050c 80ff0000*      1530 <EXPANSION END>
                        1531 --514:     v_wr_8(RrMidLObsRng_handle,L_RrMidLObsRng);
                        1532 --line514
                        1533 ..lin.D.3A.5CRenesas_Electronics.5CD1x_RGL.5Crgl_ghs_D1Lx_obj_V1.2E2.2E0.5Cvlib.5Capp.5Cgfx_apps.5Csimple_draw_d1l2.5Ctarget.5Cd1lx_mango_ghs.5Cobj.5Ccom.81::
                        1534 .LDWlin81:
00000510 9d3f0700       1535 	ld.bu	6[r29],r7
00000514 260668353f00   1536 	mov	4142440,r6
                        1537 	jarl	_v_wr_8,lp
                        1537 <EXPANSION BEGIN>
                        1537 jarl22 _v_wr_8 , lp 
0000051a 80ff0000*      1537 <EXPANSION END>
                        1538 --515:     v_wr_8(RrMidRObsRng_handle,L_RrMidRObsRng);
                        1539 --line515
                        1540 ..lin.D.3A.5CRenesas_Electronics.5CD1x_RGL.5Crgl_ghs_D1Lx_obj_V1.2E2.2E0.5Cvlib.5Capp.5Cgfx_apps.5Csimple_draw_d1l2.5Ctarget.5Cd1lx_mango_ghs.5Cobj.5Ccom.82::
                        1541 .LDWlin82:
0000051e bd3f0700       1542 	ld.bu	7[r29],r7
00000522 26068c353f00   1543 	mov	4142476,r6
                        1544 	jarl	_v_wr_8,lp
                        1544 <EXPANSION BEGIN>
                        1544 jarl22 _v_wr_8 , lp 
00000528 80ff0000*      1544 <EXPANSION END>
                        1545 --516:     v_wr_8(PDCCofignSts_handle,L_PDCConfigSts);   
                        1546 --line516
                        1547 ..lin.D.3A.5CRenesas_Electronics.5CD1x_RGL.5Crgl_ghs_D1Lx_obj_V1.2E2.2E0.5Cvlib.5Capp.5Cgfx_apps.5Csimple_draw_d1l2.5Ctarget.5Cd1lx_mango_ghs.5Cobj.5Ccom.83::
                        1548 .LDWlin83:
0000052c 9d3f0900       1549 	ld.bu	8[r29],r7
00000530 260648343f00   1550 	mov	4142152,r6
                        1551 	jarl	_v_wr_8,lp
                        1551 <EXPANSION BEGIN>
                        1551 jarl22 _v_wr_8 , lp 
00000536 80ff0000*      1551 <EXPANSION END>
                        1552 --517: }
                        1553 --line517
                        1554 ..lin.D.3A.5CRenesas_Electronics.5CD1x_RGL.5Crgl_ghs_D1Lx_obj_V1.2E2.2E0.5Cvlib.5Capp.5Cgfx_apps.5Csimple_draw_d1l2.5Ctarget.5Cd1lx_mango_ghs.5Cobj.5Ccom.84::
                        1555 .LDWlin84:
0000053a 0000           1556 	nop
                        1557 --	    .ef
                        1558 .LDW53:
0000053c 40067f00       1559 	dispose	0,{r29,r31},[lp]

                                                                      Page 29
                                                              C:\Users\YINGAO~1\AppData\Local\Temp\gh_000086k1.si
                        1560 	.type	_COM_Lin2CAN,@function
                        1561 	.size	_COM_Lin2CAN,.-_COM_Lin2CAN
                        1562 	.align	2
                        1563 .LDW63:
                        1564 
                        1565 	.data
                        1566 	.text
                        1567 
                        1568 
                        1569 --522: /*----------------------------------------------------
                        1570 --523: author: liuyingying 
                        1571 --524: date:2017-0214
                        1572 --525: version:v1.0 create
                        1573 --527: log1:2017-02-14 v1.1 add three signals
                        1574 --528:                                 DrvrShftCtrlTrgtGear
                        1575 --529:                                 TrShftPtrnASts
                        1576 --530:                                 TrShftLvrPosV
                        1577 --531: ------------------------------------------------------*/
                        1578 --532: void COM_GetSignalValue_8(U16 Index, PU8 pRes)
                        1579 	.align	2
                        1580 	.align	2
                        1581 	.global	_COM_GetSignalValue_8
                        1582 _COM_GetSignalValue_8:
00000540 8007e100       1583 	prepare	{r28,r29,r31},0
00000544 c6e6ffff       1584 	andi	65535,r6,r28
00000548 07e8           1585 	mov	r7,r29
                        1586 --	    .bf
                        1587 .LDW73:
                        1588 --533: {
                        1589 --534: 	U8 Value8;
                        1590 --535:     S8 sValue;
                        1591 --536: 	
                        1592 --537: 	if(NULL != pRes)
0000054a e0e9           1593 	cmp	zero,r29
0000054c e207250c*      1594 	be	.L1142
                        1595 --538: 	{
                        1596 --539: 		switch(Index)
                        1597 --line539
                        1598 ..lin.D.3A.5CRenesas_Electronics.5CD1x_RGL.5Crgl_ghs_D1Lx_obj_V1.2E2.2E0.5Cvlib.5Capp.5Cgfx_apps.5Csimple_draw_d1l2.5Ctarget.5Cd1lx_mango_ghs.5Cobj.5Ccom.85::
                        1599 .LDWlin85:
00000550 1c08           1600 	mov	r28,r1
00000552 01062cff       1601 	addi	-212,r1,zero
00000556 e107190c*      1602 	bl	.L1141
0000055a c20a           1603 	shl	2,r1
0000055c e10600000000*  1604 	jmp	.L1672[r1]
                        1605 .L1672:
00000562 80075003*      1606 	jr	.L1015
00000566 80075e03*      1607 	jr	.L1016
0000056a 80076c03*      1608 	jr	.L1017
0000056e 80077a03*      1609 	jr	.L1018
00000572 8007fc0b*      1610 	jr	.L1141
00000576 80078403*      1611 	jr	.L1019
0000057a 80079203*      1612 	jr	.L1020
0000057e 8007f00b*      1613 	jr	.L1141
00000582 8007ec0b*      1614 	jr	.L1141
00000586 8007aa03*      1615 	jr	.L1022
0000058a 8007e40b*      1616 	jr	.L1141
0000058e 8007b403*      1617 	jr	.L1023
00000592 8007dc0b*      1618 	jr	.L1141
00000596 8007be03*      1619 	jr	.L1024
0000059a 8007d40b*      1620 	jr	.L1141

                                                                      Page 30
                                                              C:\Users\YINGAO~1\AppData\Local\Temp\gh_000086k1.si
0000059e 8007c803*      1621 	jr	.L1025
000005a2 8007cc0b*      1622 	jr	.L1141
000005a6 8007c80b*      1623 	jr	.L1141
000005aa 80071205*      1624 	jr	.L1044
000005ae 8007c205*      1625 	jr	.L1054
000005b2 80071c05*      1626 	jr	.L1045
000005b6 80078405*      1627 	jr	.L1051
000005ba 80079205*      1628 	jr	.L1052
000005be 8007c405*      1629 	jr	.L1055
000005c2 8007ac0b*      1630 	jr	.L1141
000005c6 8007ce05*      1631 	jr	.L1056
000005ca 8007a40b*      1632 	jr	.L1141
000005ce 80072006*      1633 	jr	.L1061
000005d2 80079c0b*      1634 	jr	.L1141
000005d6 8007980b*      1635 	jr	.L1141
000005da 8007940b*      1636 	jr	.L1141
000005de 8007900b*      1637 	jr	.L1141
000005e2 80078c0b*      1638 	jr	.L1141
000005e6 80071a06*      1639 	jr	.L1062
000005ea 80072806*      1640 	jr	.L1063
000005ee 8007800b*      1641 	jr	.L1141
000005f2 80077c0b*      1642 	jr	.L1141
000005f6 80074006*      1643 	jr	.L1065
000005fa 80076006*      1644 	jr	.L1067
000005fe 8007700b*      1645 	jr	.L1141
00000602 80076c0b*      1646 	jr	.L1141
00000606 8007680b*      1647 	jr	.L1141
0000060a 8007640b*      1648 	jr	.L1141
0000060e 80077006*      1649 	jr	.L1069
00000612 80075c0b*      1650 	jr	.L1141
00000616 80077a06*      1651 	jr	.L1070
0000061a 80070607*      1652 	jr	.L1078
0000061e 8007500b*      1653 	jr	.L1141
00000622 80074c0b*      1654 	jr	.L1141
00000626 8007480b*      1655 	jr	.L1141
0000062a 8007440b*      1656 	jr	.L1141
0000062e 8007400b*      1657 	jr	.L1141
00000632 80073c0b*      1658 	jr	.L1141
00000636 8007fc06*      1659 	jr	.L1079
0000063a 80070a07*      1660 	jr	.L1080
0000063e 8007300b*      1661 	jr	.L1141
00000642 80072607*      1662 	jr	.L1082
00000646 80073407*      1663 	jr	.L1083
0000064a 8007240b*      1664 	jr	.L1141
0000064e 80075007*      1665 	jr	.L1085
00000652 80075e07*      1666 	jr	.L1086
00000656 8007180b*      1667 	jr	.L1141
0000065a 80078c07*      1668 	jr	.L1089
0000065e 80079a07*      1669 	jr	.L1090
00000662 80070c0b*      1670 	jr	.L1141
00000666 8007c807*      1671 	jr	.L1093
0000066a 8007d607*      1672 	jr	.L1094
0000066e 8007e407*      1673 	jr	.L1095
00000672 8007f207*      1674 	jr	.L1096
00000676 8007f80a*      1675 	jr	.L1141
0000067a 8007f40a*      1676 	jr	.L1141
0000067e 8007f807*      1677 	jr	.L1097
00000682 80070608*      1678 	jr	.L1098
00000686 80071408*      1679 	jr	.L1099
0000068a 8007e40a*      1680 	jr	.L1141
0000068e 80072c09*      1681 	jr	.L1115

                                                                      Page 31
                                                              C:\Users\YINGAO~1\AppData\Local\Temp\gh_000086k1.si
00000692 8007dc0a*      1682 	jr	.L1141
00000696 8007d80a*      1683 	jr	.L1141
0000069a 8007d40a*      1684 	jr	.L1141
0000069e 8007d00a*      1685 	jr	.L1141
000006a2 8007cc0a*      1686 	jr	.L1141
000006a6 8007c80a*      1687 	jr	.L1141
000006aa 8007c40a*      1688 	jr	.L1141
000006ae 8007c00a*      1689 	jr	.L1141
000006b2 8007bc0a*      1690 	jr	.L1141
000006b6 80071609*      1691 	jr	.L1116
000006ba 80072409*      1692 	jr	.L1117
000006be 80073209*      1693 	jr	.L1118
000006c2 80075209*      1694 	jr	.L1120
000006c6 80076009*      1695 	jr	.L1121
000006ca 80076e09*      1696 	jr	.L1122
000006ce 80077c09*      1697 	jr	.L1123
000006d2 80078a09*      1698 	jr	.L1124
000006d6 80079809*      1699 	jr	.L1125
000006da 8007a409*      1700 	jr	.L1126
000006de 8007900a*      1701 	jr	.L1141
000006e2 80078c0a*      1702 	jr	.L1141
000006e6 8007880a*      1703 	jr	.L1141
000006ea 8007840a*      1704 	jr	.L1141
000006ee 8007800a*      1705 	jr	.L1141
000006f2 80077c0a*      1706 	jr	.L1141
000006f6 8007780a*      1707 	jr	.L1141
000006fa 8007740a*      1708 	jr	.L1141
000006fe 80079009*      1709 	jr	.L1127
00000702 80076c0a*      1710 	jr	.L1141
00000706 80079809*      1711 	jr	.L1128
0000070a 8007640a*      1712 	jr	.L1141
0000070e 8007600a*      1713 	jr	.L1141
00000712 80075c0a*      1714 	jr	.L1141
00000716 8007580a*      1715 	jr	.L1141
0000071a 80079409*      1716 	jr	.L1129
0000071e 8007a009*      1717 	jr	.L1130
00000722 8007ac09*      1718 	jr	.L1131
00000726 8007e809*      1719 	jr	.L1135
0000072a 8007440a*      1720 	jr	.L1141
0000072e 8007100a*      1721 	jr	.L1138
00000732 80071c0a*      1722 	jr	.L1139
00000736 8007280a*      1723 	jr	.L1140
0000073a 80071408*      1724 	jr	.L1109
0000073e 80072208*      1725 	jr	.L1110
00000742 80073008*      1726 	jr	.L1111
00000746 80073e08*      1727 	jr	.L1112
0000074a 80074c08*      1728 	jr	.L1113
0000074e 80075a08*      1729 	jr	.L1114
00000752 8007cc01*      1730 	jr	.L1021
00000756 8007180a*      1731 	jr	.L1141
0000075a 8007140a*      1732 	jr	.L1141
0000075e 80078203*      1733 	jr	.L1046
00000762 80079003*      1734 	jr	.L1047
00000766 80079e03*      1735 	jr	.L1048
0000076a 8007ac03*      1736 	jr	.L1049
0000076e 8007ba03*      1737 	jr	.L1050
00000772 8007b204*      1738 	jr	.L1064
00000776 80073004*      1739 	jr	.L1057
0000077a 80073e04*      1740 	jr	.L1058
0000077e 80074c04*      1741 	jr	.L1059
00000782 80075a04*      1742 	jr	.L1060

                                                                      Page 32
                                                              C:\Users\YINGAO~1\AppData\Local\Temp\gh_000086k1.si
00000786 80072607*      1743 	jr	.L1100
0000078a 80073407*      1744 	jr	.L1101
0000078e 80074207*      1745 	jr	.L1102
00000792 80075007*      1746 	jr	.L1103
00000796 80075e07*      1747 	jr	.L1104
0000079a 80076c07*      1748 	jr	.L1105
0000079e 8007d009*      1749 	jr	.L1141
000007a2 80077607*      1750 	jr	.L1106
000007a6 80078407*      1751 	jr	.L1107
000007aa 80079207*      1752 	jr	.L1108
000007ae 8007c009*      1753 	jr	.L1141
000007b2 8007bc09*      1754 	jr	.L1141
000007b6 8007b809*      1755 	jr	.L1141
000007ba 80079c05*      1756 	jr	.L1081
000007be 8007b009*      1757 	jr	.L1141
000007c2 8007ca05*      1758 	jr	.L1084
000007c6 80078204*      1759 	jr	.L1066
000007ca 8007a409*      1760 	jr	.L1141
000007ce 80073408*      1761 	jr	.L1119
000007d2 80070c09*      1762 	jr	.L1132
000007d6 80071809*      1763 	jr	.L1133
000007da 80072409*      1764 	jr	.L1134
000007de 80079009*      1765 	jr	.L1141
000007e2 80078c09*      1766 	jr	.L1141
000007e6 8007dc05*      1767 	jr	.L1087
000007ea 8007ea05*      1768 	jr	.L1088
000007ee 80078009*      1769 	jr	.L1141
000007f2 80071806*      1770 	jr	.L1091
000007f6 80072606*      1771 	jr	.L1092
000007fa 80072409*      1772 	jr	.L1136
000007fe 80073009*      1773 	jr	.L1137
00000802 8007a004*      1774 	jr	.L1071
00000806 8007ae04*      1775 	jr	.L1072
0000080a 8007bc04*      1776 	jr	.L1073
0000080e 8007ca04*      1777 	jr	.L1074
00000812 8007d804*      1778 	jr	.L1075
00000816 8007e604*      1779 	jr	.L1076
0000081a 8007f404*      1780 	jr	.L1077
0000081e 80074003*      1781 	jr	.L1053
00000822 80074a04*      1782 	jr	.L1068
00000826 80074809*      1783 	jr	.L1141
0000082a 80074409*      1784 	jr	.L1141
0000082e 80074009*      1785 	jr	.L1141
00000832 80073c09*      1786 	jr	.L1141
00000836 80073809*      1787 	jr	.L1141
0000083a 80073409*      1788 	jr	.L1141
0000083e 80073009*      1789 	jr	.L1141
00000842 80072c09*      1790 	jr	.L1141
00000846 80073201*      1791 	jr	.L1026
0000084a 80074001*      1792 	jr	.L1027
0000084e 80074e01*      1793 	jr	.L1028
00000852 80075c01*      1794 	jr	.L1029
00000856 80076a01*      1795 	jr	.L1030
0000085a 80079c01*      1796 	jr	.L1033
0000085e 8007aa01*      1797 	jr	.L1034
00000862 8007b801*      1798 	jr	.L1035
00000866 80070809*      1799 	jr	.L1141
0000086a 80070409*      1800 	jr	.L1141
0000086e 80070009*      1801 	jr	.L1141
00000872 8007fc08*      1802 	jr	.L1141
00000876 8007f808*      1803 	jr	.L1141

                                                                      Page 33
                                                              C:\Users\YINGAO~1\AppData\Local\Temp\gh_000086k1.si
0000087a 8007f408*      1804 	jr	.L1141
0000087e 8007f008*      1805 	jr	.L1141
00000882 8007ec08*      1806 	jr	.L1141
00000886 8007e808*      1807 	jr	.L1141
0000088a 8007a201*      1808 	jr	.L1036
0000088e 8007b001*      1809 	jr	.L1037
00000892 8007be01*      1810 	jr	.L1038
00000896 8007cc01*      1811 	jr	.L1039
0000089a 8007da01*      1812 	jr	.L1040
0000089e 8007e801*      1813 	jr	.L1041
000008a2 8007f601*      1814 	jr	.L1042
000008a6 80070402*      1815 	jr	.L1043
000008aa 80072801*      1816 	jr	.L1031
000008ae 80073601*      1817 	jr	.L1032
                        1818 .L1015:
                        1819 --540: 		{
                        1820 --541: 		case  INDEX_COM_RS_BCMPwrMdHwdSt:/*BCMPwrMdHwdSta*/
                        1821 --542: 			*pRes = v_rd_8(BCMPwrMdHwdSta_handle);
                        1822 --line542
                        1823 ..lin.D.3A.5CRenesas_Electronics.5CD1x_RGL.5Crgl_ghs_D1Lx_obj_V1.2E2.2E0.5Cvlib.5Capp.5Cgfx_apps.5Csimple_draw_d1l2.5Ctarget.5Cd1lx_mango_ghs.5Cobj.5Ccom.86::
                        1824 .LDWlin86:
000008b2 2606ec023f00   1825 	mov	4129516,r6
                        1826 	jarl	_v_rd_8,lp
                        1826 <EXPANSION BEGIN>
                        1826 jarl22 _v_rd_8 , lp 
000008b8 80ff0000*      1826 <EXPANSION END>
000008bc 5d570000       1827 	st.b	r10,0[r29]
                        1828 --line543
                        1829 ..lin.D.3A.5CRenesas_Electronics.5CD1x_RGL.5Crgl_ghs_D1Lx_obj_V1.2E2.2E0.5Cvlib.5Capp.5Cgfx_apps.5Csimple_draw_d1l2.5Ctarget.5Cd1lx_mango_ghs.5Cobj.5Ccom.87::
                        1830 .LDWlin87:
000008c0 8007b008*      1831 	br	.L1142
                        1832 .L1016:
                        1833 --543: 		break;
                        1834 --544: 		case  INDEX_COM_RS_BCMPWRMDHWDSTAV:     /*BCMPwrMdHwdStaVP*/
                        1835 --545: 			*pRes = v_rd_8(BCMPwrMdHwdStaV_handle);
                        1836 --line545
                        1837 ..lin.D.3A.5CRenesas_Electronics.5CD1x_RGL.5Crgl_ghs_D1Lx_obj_V1.2E2.2E0.5Cvlib.5Capp.5Cgfx_apps.5Csimple_draw_d1l2.5Ctarget.5Cd1lx_mango_ghs.5Cobj.5Ccom.88::
                        1838 .LDWlin88:
000008c4 260610033f00   1839 	mov	4129552,r6
                        1840 	jarl	_v_rd_8,lp
                        1840 <EXPANSION BEGIN>
                        1840 jarl22 _v_rd_8 , lp 
000008ca 80ff0000*      1840 <EXPANSION END>
000008ce 5d570000       1841 	st.b	r10,0[r29]
                        1842 --line546
                        1843 ..lin.D.3A.5CRenesas_Electronics.5CD1x_RGL.5Crgl_ghs_D1Lx_obj_V1.2E2.2E0.5Cvlib.5Capp.5Cgfx_apps.5Csimple_draw_d1l2.5Ctarget.5Cd1lx_mango_ghs.5Cobj.5Ccom.89::
                        1844 .LDWlin89:
000008d2 80079e08*      1845 	br	.L1142
                        1846 .L1017:
                        1847 --546: 		break;
                        1848 --547: 		case  INDEX_COM_RS_PWRMDMSTRACCRYA :    /*PwrMdMstrAccryA*/
                        1849 --548: 			*pRes = v_rd_8(PwrMdMstrAccryA_handle);
                        1850 --line548
                        1851 ..lin.D.3A.5CRenesas_Electronics.5CD1x_RGL.5Crgl_ghs_D1Lx_obj_V1.2E2.2E0.5Cvlib.5Capp.5Cgfx_apps.5Csimple_draw_d1l2.5Ctarget.5Cd1lx_mango_ghs.5Cobj.5Ccom.90::
                        1852 .LDWlin90:
000008d6 260658153f00   1853 	mov	4134232,r6
                        1854 	jarl	_v_rd_8,lp
                        1854 <EXPANSION BEGIN>
                        1854 jarl22 _v_rd_8 , lp 
000008dc 80ff0000*      1854 <EXPANSION END>
000008e0 5d570000       1855 	st.b	r10,0[r29]

                                                                      Page 34
                                                              C:\Users\YINGAO~1\AppData\Local\Temp\gh_000086k1.si
                        1856 --line549
                        1857 ..lin.D.3A.5CRenesas_Electronics.5CD1x_RGL.5Crgl_ghs_D1Lx_obj_V1.2E2.2E0.5Cvlib.5Capp.5Cgfx_apps.5Csimple_draw_d1l2.5Ctarget.5Cd1lx_mango_ghs.5Cobj.5Ccom.91::
                        1858 .LDWlin91:
000008e4 80078c08*      1859 	br	.L1142
                        1860 .L1018:
                        1861 --549: 		break;
                        1862 --550: 		case  INDEX_COM_RS_PWRMDMSTRRUNCRKA:   /*PwrMdMstrRunCrkA*/
                        1863 --551: 			*pRes = v_rd_8(PwrMdMstrRunCrkA_handle);
                        1864 --line551
                        1865 ..lin.D.3A.5CRenesas_Electronics.5CD1x_RGL.5Crgl_ghs_D1Lx_obj_V1.2E2.2E0.5Cvlib.5Capp.5Cgfx_apps.5Csimple_draw_d1l2.5Ctarget.5Cd1lx_mango_ghs.5Cobj.5Ccom.92::
                        1866 .LDWlin92:
000008e8 2606c4153f00   1867 	mov	4134340,r6
                        1868 	jarl	_v_rd_8,lp
                        1868 <EXPANSION BEGIN>
                        1868 jarl22 _v_rd_8 , lp 
000008ee 80ff0000*      1868 <EXPANSION END>
000008f2 5d570000       1869 	st.b	r10,0[r29]
                        1870 --line552
                        1871 ..lin.D.3A.5CRenesas_Electronics.5CD1x_RGL.5Crgl_ghs_D1Lx_obj_V1.2E2.2E0.5Cvlib.5Capp.5Cgfx_apps.5Csimple_draw_d1l2.5Ctarget.5Cd1lx_mango_ghs.5Cobj.5Ccom.93::
                        1872 .LDWlin93:
000008f6 80077a08*      1873 	br	.L1142
                        1874 .L1019:
                        1875 --552: 		break;
                        1876 --553: 		
                        1877 --554: 		case  INDEX_COM_RS_BCMSSBA:             /*BCMSSBA*/
                        1878 --555: 			*pRes = v_rd_8(BCMSSBA_handle);
                        1879 --line555
                        1880 ..lin.D.3A.5CRenesas_Electronics.5CD1x_RGL.5Crgl_ghs_D1Lx_obj_V1.2E2.2E0.5Cvlib.5Capp.5Cgfx_apps.5Csimple_draw_d1l2.5Ctarget.5Cd1lx_mango_ghs.5Cobj.5Ccom.94::
                        1881 .LDWlin94:
000008fa 26067c033f00   1882 	mov	4129660,r6
                        1883 	jarl	_v_rd_8,lp
                        1883 <EXPANSION BEGIN>
                        1883 jarl22 _v_rd_8 , lp 
00000900 80ff0000*      1883 <EXPANSION END>
00000904 5d570000       1884 	st.b	r10,0[r29]
                        1885 --line556
                        1886 ..lin.D.3A.5CRenesas_Electronics.5CD1x_RGL.5Crgl_ghs_D1Lx_obj_V1.2E2.2E0.5Cvlib.5Capp.5Cgfx_apps.5Csimple_draw_d1l2.5Ctarget.5Cd1lx_mango_ghs.5Cobj.5Ccom.95::
                        1887 .LDWlin95:
00000908 80076808*      1888 	br	.L1142
                        1889 .L1020:
                        1890 --556: 		break;
                        1891 --557: 		case  INDEX_COM_RS_BCMSSBAV:        /*BCMSSBAV*/
                        1892 --558: 			*pRes = v_rd_8(BCMSSBAV_handle);
                        1893 --line558
                        1894 ..lin.D.3A.5CRenesas_Electronics.5CD1x_RGL.5Crgl_ghs_D1Lx_obj_V1.2E2.2E0.5Cvlib.5Capp.5Cgfx_apps.5Csimple_draw_d1l2.5Ctarget.5Cd1lx_mango_ghs.5Cobj.5Ccom.96::
                        1895 .LDWlin96:
0000090c 2606a0033f00   1896 	mov	4129696,r6
                        1897 	jarl	_v_rd_8,lp
                        1897 <EXPANSION BEGIN>
                        1897 jarl22 _v_rd_8 , lp 
00000912 80ff0000*      1897 <EXPANSION END>
00000916 5d570000       1898 	st.b	r10,0[r29]
                        1899 --line559
                        1900 ..lin.D.3A.5CRenesas_Electronics.5CD1x_RGL.5Crgl_ghs_D1Lx_obj_V1.2E2.2E0.5Cvlib.5Capp.5Cgfx_apps.5Csimple_draw_d1l2.5Ctarget.5Cd1lx_mango_ghs.5Cobj.5Ccom.97::
                        1901 .LDWlin97:
0000091a 80075608*      1902 	br	.L1142
                        1903 .L1021:
                        1904 --559: 		break;
                        1905 --560: 		case  INDEX_COM_RS_BCMSSBFLTSTS:        /*BCMSSBFltSts*/
                        1906 --561: 			*pRes = v_rd_8(BCMSSBFltSts_handle);
                        1907 --line561

                                                                      Page 35
                                                              C:\Users\YINGAO~1\AppData\Local\Temp\gh_000086k1.si
                        1908 ..lin.D.3A.5CRenesas_Electronics.5CD1x_RGL.5Crgl_ghs_D1Lx_obj_V1.2E2.2E0.5Cvlib.5Capp.5Cgfx_apps.5Csimple_draw_d1l2.5Ctarget.5Cd1lx_mango_ghs.5Cobj.5Ccom.98::
                        1909 .LDWlin98:
0000091e 2606c4033f00   1910 	mov	4129732,r6
                        1911 	jarl	_v_rd_8,lp
                        1911 <EXPANSION BEGIN>
                        1911 jarl22 _v_rd_8 , lp 
00000924 80ff0000*      1911 <EXPANSION END>
00000928 5d570000       1912 	st.b	r10,0[r29]
                        1913 --line562
                        1914 ..lin.D.3A.5CRenesas_Electronics.5CD1x_RGL.5Crgl_ghs_D1Lx_obj_V1.2E2.2E0.5Cvlib.5Capp.5Cgfx_apps.5Csimple_draw_d1l2.5Ctarget.5Cd1lx_mango_ghs.5Cobj.5Ccom.99::
                        1915 .LDWlin99:
0000092c 80074408*      1916 	br	.L1142
                        1917 .L1022:
                        1918 --562: 		break;
                        1919 --563: 		
                        1920 --564: 		case  INDEX_COM_RS_WHLGNDVELLDRVNV:/*WhlGndVelLDrvnV*/
                        1921 --565: 			*pRes = v_rd_8(WhlGndVelLDrvnV_handle);
                        1922 --line565
                        1923 ..lin.D.3A.5CRenesas_Electronics.5CD1x_RGL.5Crgl_ghs_D1Lx_obj_V1.2E2.2E0.5Cvlib.5Capp.5Cgfx_apps.5Csimple_draw_d1l2.5Ctarget.5Cd1lx_mango_ghs.5Cobj.5Ccom.100::
                        1924 .LDWlin100:
00000930 260694213f00   1925 	mov	4137364,r6
                        1926 	jarl	_v_rd_8,lp
                        1926 <EXPANSION BEGIN>
                        1926 jarl22 _v_rd_8 , lp 
00000936 80ff0000*      1926 <EXPANSION END>
0000093a 5d570000       1927 	st.b	r10,0[r29]
                        1928 --line566
                        1929 ..lin.D.3A.5CRenesas_Electronics.5CD1x_RGL.5Crgl_ghs_D1Lx_obj_V1.2E2.2E0.5Cvlib.5Capp.5Cgfx_apps.5Csimple_draw_d1l2.5Ctarget.5Cd1lx_mango_ghs.5Cobj.5Ccom.101::
                        1930 .LDWlin101:
0000093e 80073208*      1931 	br	.L1142
                        1932 .L1023:
                        1933 --566: 		break;
                        1934 --567: 		case  INDEX_COM_RS_WHLGNDVELLNONDRVNV:/*WhlGndVelLNonDrvnV*/
                        1935 --568: 			*pRes = v_rd_8(WhlGndVelLNonDrvnV_handle);
                        1936 --line568
                        1937 ..lin.D.3A.5CRenesas_Electronics.5CD1x_RGL.5Crgl_ghs_D1Lx_obj_V1.2E2.2E0.5Cvlib.5Capp.5Cgfx_apps.5Csimple_draw_d1l2.5Ctarget.5Cd1lx_mango_ghs.5Cobj.5Ccom.102::
                        1938 .LDWlin102:
00000942 2606dc213f00   1939 	mov	4137436,r6
                        1940 	jarl	_v_rd_8,lp
                        1940 <EXPANSION BEGIN>
                        1940 jarl22 _v_rd_8 , lp 
00000948 80ff0000*      1940 <EXPANSION END>
0000094c 5d570000       1941 	st.b	r10,0[r29]
                        1942 --line569
                        1943 ..lin.D.3A.5CRenesas_Electronics.5CD1x_RGL.5Crgl_ghs_D1Lx_obj_V1.2E2.2E0.5Cvlib.5Capp.5Cgfx_apps.5Csimple_draw_d1l2.5Ctarget.5Cd1lx_mango_ghs.5Cobj.5Ccom.103::
                        1944 .LDWlin103:
00000950 80072008*      1945 	br	.L1142
                        1946 .L1024:
                        1947 --569: 		break;
                        1948 --570: 		case  INDEX_COM_RS_WHLGNDVELRDRVNV:/*WhlGndVelRDrvnV*/
                        1949 --571: 			*pRes = v_rd_8(WhlGndVelRDrvnV_handle);
                        1950 --line571
                        1951 ..lin.D.3A.5CRenesas_Electronics.5CD1x_RGL.5Crgl_ghs_D1Lx_obj_V1.2E2.2E0.5Cvlib.5Capp.5Cgfx_apps.5Csimple_draw_d1l2.5Ctarget.5Cd1lx_mango_ghs.5Cobj.5Ccom.104::
                        1952 .LDWlin104:
00000954 260624223f00   1953 	mov	4137508,r6
                        1954 	jarl	_v_rd_8,lp
                        1954 <EXPANSION BEGIN>
                        1954 jarl22 _v_rd_8 , lp 
0000095a 80ff0000*      1954 <EXPANSION END>
0000095e 5d570000       1955 	st.b	r10,0[r29]
                        1956 --line572

                                                                      Page 36
                                                              C:\Users\YINGAO~1\AppData\Local\Temp\gh_000086k1.si
                        1957 ..lin.D.3A.5CRenesas_Electronics.5CD1x_RGL.5Crgl_ghs_D1Lx_obj_V1.2E2.2E0.5Cvlib.5Capp.5Cgfx_apps.5Csimple_draw_d1l2.5Ctarget.5Cd1lx_mango_ghs.5Cobj.5Ccom.105::
                        1958 .LDWlin105:
00000962 80070e08*      1959 	br	.L1142
                        1960 .L1025:
                        1961 --572: 		break;
                        1962 --573: 		case  INDEX_COM_RS_WHLGNDVELRNONDRVNV:/*WhlGndVelRNonDrvnV*/
                        1963 --574: 			*pRes = v_rd_8(WhlGndVelRNonDrvnV_handle);
                        1964 --line574
                        1965 ..lin.D.3A.5CRenesas_Electronics.5CD1x_RGL.5Crgl_ghs_D1Lx_obj_V1.2E2.2E0.5Cvlib.5Capp.5Cgfx_apps.5Csimple_draw_d1l2.5Ctarget.5Cd1lx_mango_ghs.5Cobj.5Ccom.106::
                        1966 .LDWlin106:
00000966 26066c223f00   1967 	mov	4137580,r6
                        1968 	jarl	_v_rd_8,lp
                        1968 <EXPANSION BEGIN>
                        1968 jarl22 _v_rd_8 , lp 
0000096c 80ff0000*      1968 <EXPANSION END>
00000970 5d570000       1969 	st.b	r10,0[r29]
                        1970 --line575
                        1971 ..lin.D.3A.5CRenesas_Electronics.5CD1x_RGL.5Crgl_ghs_D1Lx_obj_V1.2E2.2E0.5Cvlib.5Capp.5Cgfx_apps.5Csimple_draw_d1l2.5Ctarget.5Cd1lx_mango_ghs.5Cobj.5Ccom.107::
                        1972 .LDWlin107:
00000974 8007fc07*      1973 	br	.L1142
                        1974 .L1026:
                        1975 --575: 		break;
                        1976 --576: 		case  INDEX_COM_RS_AVGFUELCSUMP:/*AvgFuelCsump*/
                        1977 --577: 			*pRes = v_rd_8(AvgFuelCsump_handle);
                        1978 --line577
                        1979 ..lin.D.3A.5CRenesas_Electronics.5CD1x_RGL.5Crgl_ghs_D1Lx_obj_V1.2E2.2E0.5Cvlib.5Capp.5Cgfx_apps.5Csimple_draw_d1l2.5Ctarget.5Cd1lx_mango_ghs.5Cobj.5Ccom.108::
                        1980 .LDWlin108:
00000978 26063c253f00   1981 	mov	4138300,r6
                        1982 	jarl	_v_rd_8,lp
                        1982 <EXPANSION BEGIN>
                        1982 jarl22 _v_rd_8 , lp 
0000097e 80ff0000*      1982 <EXPANSION END>
00000982 5d570000       1983 	st.b	r10,0[r29]
                        1984 --line578
                        1985 ..lin.D.3A.5CRenesas_Electronics.5CD1x_RGL.5Crgl_ghs_D1Lx_obj_V1.2E2.2E0.5Cvlib.5Capp.5Cgfx_apps.5Csimple_draw_d1l2.5Ctarget.5Cd1lx_mango_ghs.5Cobj.5Ccom.109::
                        1986 .LDWlin109:
00000986 8007ea07*      1987 	br	.L1142
                        1988 .L1027:
                        1989 --578: 		break;
                        1990 --579: 		case  INDEX_COM_RS_AVGFUELCSUMPV:/*AvgFuelCsumpV*/
                        1991 --580: 			*pRes = v_rd_8(AvgFuelCsumpV_handle);
                        1992 --line580
                        1993 ..lin.D.3A.5CRenesas_Electronics.5CD1x_RGL.5Crgl_ghs_D1Lx_obj_V1.2E2.2E0.5Cvlib.5Capp.5Cgfx_apps.5Csimple_draw_d1l2.5Ctarget.5Cd1lx_mango_ghs.5Cobj.5Ccom.110::
                        1994 .LDWlin110:
0000098a 260660253f00   1995 	mov	4138336,r6
                        1996 	jarl	_v_rd_8,lp
                        1996 <EXPANSION BEGIN>
                        1996 jarl22 _v_rd_8 , lp 
00000990 80ff0000*      1996 <EXPANSION END>
00000994 5d570000       1997 	st.b	r10,0[r29]
                        1998 --line581
                        1999 ..lin.D.3A.5CRenesas_Electronics.5CD1x_RGL.5Crgl_ghs_D1Lx_obj_V1.2E2.2E0.5Cvlib.5Capp.5Cgfx_apps.5Csimple_draw_d1l2.5Ctarget.5Cd1lx_mango_ghs.5Cobj.5Ccom.111::
                        2000 .LDWlin111:
00000998 8007d807*      2001 	br	.L1142
                        2002 .L1028:
                        2003 --581: 		break;
                        2004 --582: 		case  INDEX_COM_RS_CALENDARDAY:/*CalendarDay*/
                        2005 --583: 			*pRes = v_rd_8(CalendarDay_handle);
                        2006 --line583
                        2007 ..lin.D.3A.5CRenesas_Electronics.5CD1x_RGL.5Crgl_ghs_D1Lx_obj_V1.2E2.2E0.5Cvlib.5Capp.5Cgfx_apps.5Csimple_draw_d1l2.5Ctarget.5Cd1lx_mango_ghs.5Cobj.5Ccom.112::
                        2008 .LDWlin112:

                                                                      Page 37
                                                              C:\Users\YINGAO~1\AppData\Local\Temp\gh_000086k1.si
0000099c 260684253f00   2009 	mov	4138372,r6
                        2010 	jarl	_v_rd_8,lp
                        2010 <EXPANSION BEGIN>
                        2010 jarl22 _v_rd_8 , lp 
000009a2 80ff0000*      2010 <EXPANSION END>
000009a6 5d570000       2011 	st.b	r10,0[r29]
                        2012 --line584
                        2013 ..lin.D.3A.5CRenesas_Electronics.5CD1x_RGL.5Crgl_ghs_D1Lx_obj_V1.2E2.2E0.5Cvlib.5Capp.5Cgfx_apps.5Csimple_draw_d1l2.5Ctarget.5Cd1lx_mango_ghs.5Cobj.5Ccom.113::
                        2014 .LDWlin113:
000009aa 8007c607*      2015 	br	.L1142
                        2016 .L1029:
                        2017 --584: 		break;
                        2018 --585: 		case  INDEX_COM_RS_CALENDARMONTH:/*CalendarMonth_handle*/
                        2019 --586: 			*pRes = v_rd_8(CalendarMonth_handle);
                        2020 --line586
                        2021 ..lin.D.3A.5CRenesas_Electronics.5CD1x_RGL.5Crgl_ghs_D1Lx_obj_V1.2E2.2E0.5Cvlib.5Capp.5Cgfx_apps.5Csimple_draw_d1l2.5Ctarget.5Cd1lx_mango_ghs.5Cobj.5Ccom.114::
                        2022 .LDWlin114:
000009ae 2606a8253f00   2023 	mov	4138408,r6
                        2024 	jarl	_v_rd_8,lp
                        2024 <EXPANSION BEGIN>
                        2024 jarl22 _v_rd_8 , lp 
000009b4 80ff0000*      2024 <EXPANSION END>
000009b8 5d570000       2025 	st.b	r10,0[r29]
                        2026 --line587
                        2027 ..lin.D.3A.5CRenesas_Electronics.5CD1x_RGL.5Crgl_ghs_D1Lx_obj_V1.2E2.2E0.5Cvlib.5Capp.5Cgfx_apps.5Csimple_draw_d1l2.5Ctarget.5Cd1lx_mango_ghs.5Cobj.5Ccom.115::
                        2028 .LDWlin115:
000009bc 8007b407*      2029 	br	.L1142
                        2030 .L1030:
                        2031 --587: 		break;
                        2032 --588: 		case  INDEX_COM_RS_CALENDARYEAR:/*CalendarYear*/
                        2033 --589: 			*pRes = v_rd_8(CalendarYear_handle);
                        2034 --line589
                        2035 ..lin.D.3A.5CRenesas_Electronics.5CD1x_RGL.5Crgl_ghs_D1Lx_obj_V1.2E2.2E0.5Cvlib.5Capp.5Cgfx_apps.5Csimple_draw_d1l2.5Ctarget.5Cd1lx_mango_ghs.5Cobj.5Ccom.116::
                        2036 .LDWlin116:
000009c0 2606cc253f00   2037 	mov	4138444,r6
                        2038 	jarl	_v_rd_8,lp
                        2038 <EXPANSION BEGIN>
                        2038 jarl22 _v_rd_8 , lp 
000009c6 80ff0000*      2038 <EXPANSION END>
000009ca 5d570000       2039 	st.b	r10,0[r29]
                        2040 --line590
                        2041 ..lin.D.3A.5CRenesas_Electronics.5CD1x_RGL.5Crgl_ghs_D1Lx_obj_V1.2E2.2E0.5Cvlib.5Capp.5Cgfx_apps.5Csimple_draw_d1l2.5Ctarget.5Cd1lx_mango_ghs.5Cobj.5Ccom.117::
                        2042 .LDWlin117:
000009ce 8007a207*      2043 	br	.L1142
                        2044 .L1031:
                        2045 --590: 		break;
                        2046 --592: 		case  INDEX_COM_RS_PRFTRTAPUPDWNSECYSWSTA:/*PfTrTapUpDwnSecySwSta*/
                        2047 --593: 			*pRes = v_rd_8(PfTrTapUpDwnSecySwSta_handle);
                        2048 --line593
                        2049 ..lin.D.3A.5CRenesas_Electronics.5CD1x_RGL.5Crgl_ghs_D1Lx_obj_V1.2E2.2E0.5Cvlib.5Capp.5Cgfx_apps.5Csimple_draw_d1l2.5Ctarget.5Cd1lx_mango_ghs.5Cobj.5Ccom.118::
                        2050 .LDWlin118:
000009d2 2606b4343f00   2051 	mov	4142260,r6
                        2052 	jarl	_v_rd_8,lp
                        2052 <EXPANSION BEGIN>
                        2052 jarl22 _v_rd_8 , lp 
000009d8 80ff0000*      2052 <EXPANSION END>
000009dc 5d570000       2053 	st.b	r10,0[r29]
                        2054 --line594
                        2055 ..lin.D.3A.5CRenesas_Electronics.5CD1x_RGL.5Crgl_ghs_D1Lx_obj_V1.2E2.2E0.5Cvlib.5Capp.5Cgfx_apps.5Csimple_draw_d1l2.5Ctarget.5Cd1lx_mango_ghs.5Cobj.5Ccom.119::
                        2056 .LDWlin119:
000009e0 80079007*      2057 	br	.L1142

                                                                      Page 38
                                                              C:\Users\YINGAO~1\AppData\Local\Temp\gh_000086k1.si
                        2058 .L1032:
                        2059 --594: 		break;
                        2060 --595: 		case  INDEX_COM_RS_RROBSDIST:/*RrObsDist*/
                        2061 --596: 			*pRes = v_rd_8(RrObsDist_handle);
                        2062 --line596
                        2063 ..lin.D.3A.5CRenesas_Electronics.5CD1x_RGL.5Crgl_ghs_D1Lx_obj_V1.2E2.2E0.5Cvlib.5Capp.5Cgfx_apps.5Csimple_draw_d1l2.5Ctarget.5Cd1lx_mango_ghs.5Cobj.5Ccom.120::
                        2064 .LDWlin120:
000009e4 2606b0353f00   2065 	mov	4142512,r6
                        2066 	jarl	_v_rd_8,lp
                        2066 <EXPANSION BEGIN>
                        2066 jarl22 _v_rd_8 , lp 
000009ea 80ff0000*      2066 <EXPANSION END>
000009ee 5d570000       2067 	st.b	r10,0[r29]
                        2068 --line597
                        2069 ..lin.D.3A.5CRenesas_Electronics.5CD1x_RGL.5Crgl_ghs_D1Lx_obj_V1.2E2.2E0.5Cvlib.5Capp.5Cgfx_apps.5Csimple_draw_d1l2.5Ctarget.5Cd1lx_mango_ghs.5Cobj.5Ccom.121::
                        2070 .LDWlin121:
000009f2 80077e07*      2071 	br	.L1142
                        2072 .L1033:
                        2073 --597: 		break;
                        2074 --599: 		case  INDEX_COM_RS_CHMCMDSNDCNDCPRD:/*ChmCmdSndCndcPrd*/
                        2075 --600: 			*pRes = v_rd_8(ChmCmdSndCndcPrd_handle);
                        2076 --line600
                        2077 ..lin.D.3A.5CRenesas_Electronics.5CD1x_RGL.5Crgl_ghs_D1Lx_obj_V1.2E2.2E0.5Cvlib.5Capp.5Cgfx_apps.5Csimple_draw_d1l2.5Ctarget.5Cd1lx_mango_ghs.5Cobj.5Ccom.122::
                        2078 .LDWlin122:
000009f6 26067c273f00   2079 	mov	4138876,r6
                        2080 	jarl	_v_rd_8,lp
                        2080 <EXPANSION BEGIN>
                        2080 jarl22 _v_rd_8 , lp 
000009fc 80ff0000*      2080 <EXPANSION END>
00000a00 5d570000       2081 	st.b	r10,0[r29]
                        2082 --line601
                        2083 ..lin.D.3A.5CRenesas_Electronics.5CD1x_RGL.5Crgl_ghs_D1Lx_obj_V1.2E2.2E0.5Cvlib.5Capp.5Cgfx_apps.5Csimple_draw_d1l2.5Ctarget.5Cd1lx_mango_ghs.5Cobj.5Ccom.123::
                        2084 .LDWlin123:
00000a04 80076c07*      2085 	br	.L1142
                        2086 .L1034:
                        2087 --601: 		break;
                        2088 --602: 		case  INDEX_COM_RS_CHMCMDSNDDUTYCYC:/*ChmCmdSndDutyCyc*/
                        2089 --603: 			*pRes = v_rd_8(ChmCmdSndDutyCyc_handle);
                        2090 --line603
                        2091 ..lin.D.3A.5CRenesas_Electronics.5CD1x_RGL.5Crgl_ghs_D1Lx_obj_V1.2E2.2E0.5Cvlib.5Capp.5Cgfx_apps.5Csimple_draw_d1l2.5Ctarget.5Cd1lx_mango_ghs.5Cobj.5Ccom.124::
                        2092 .LDWlin124:
00000a08 2606a0273f00   2093 	mov	4138912,r6
                        2094 	jarl	_v_rd_8,lp
                        2094 <EXPANSION BEGIN>
                        2094 jarl22 _v_rd_8 , lp 
00000a0e 80ff0000*      2094 <EXPANSION END>
00000a12 5d570000       2095 	st.b	r10,0[r29]
                        2096 --line604
                        2097 ..lin.D.3A.5CRenesas_Electronics.5CD1x_RGL.5Crgl_ghs_D1Lx_obj_V1.2E2.2E0.5Cvlib.5Capp.5Cgfx_apps.5Csimple_draw_d1l2.5Ctarget.5Cd1lx_mango_ghs.5Cobj.5Ccom.125::
                        2098 .LDWlin125:
00000a16 80075a07*      2099 	br	.L1142
                        2100 .L1035:
                        2101 --604: 		break;
                        2102 --605: 		case  INDEX_COM_RS_CHMCMDSNDTONE:/*ChmCmdSndTone*/
                        2103 --606: 			*pRes = v_rd_8(ChmCmdSndTone_handle);
                        2104 --line606
                        2105 ..lin.D.3A.5CRenesas_Electronics.5CD1x_RGL.5Crgl_ghs_D1Lx_obj_V1.2E2.2E0.5Cvlib.5Capp.5Cgfx_apps.5Csimple_draw_d1l2.5Ctarget.5Cd1lx_mango_ghs.5Cobj.5Ccom.126::
                        2106 .LDWlin126:
00000a1a 260654283f00   2107 	mov	4139092,r6
                        2108 	jarl	_v_rd_8,lp
                        2108 <EXPANSION BEGIN>

                                                                      Page 39
                                                              C:\Users\YINGAO~1\AppData\Local\Temp\gh_000086k1.si
                        2108 jarl22 _v_rd_8 , lp 
00000a20 80ff0000*      2108 <EXPANSION END>
00000a24 5d570000       2109 	st.b	r10,0[r29]
                        2110 --line607
                        2111 ..lin.D.3A.5CRenesas_Electronics.5CD1x_RGL.5Crgl_ghs_D1Lx_obj_V1.2E2.2E0.5Cvlib.5Capp.5Cgfx_apps.5Csimple_draw_d1l2.5Ctarget.5Cd1lx_mango_ghs.5Cobj.5Ccom.127::
                        2112 .LDWlin127:
00000a28 80074807*      2113 	br	.L1142
                        2114 .L1036:
                        2115 --607: 		break;
                        2116 --608: 		case  INDEX_COM_RS_DSPMEASSYS:/*DspMeasSys*/
                        2117 --609: 			*pRes = v_rd_8(DspMeasSys_handle);
                        2118 --line609
                        2119 ..lin.D.3A.5CRenesas_Electronics.5CD1x_RGL.5Crgl_ghs_D1Lx_obj_V1.2E2.2E0.5Cvlib.5Capp.5Cgfx_apps.5Csimple_draw_d1l2.5Ctarget.5Cd1lx_mango_ghs.5Cobj.5Ccom.128::
                        2120 .LDWlin128:
00000a2c 260630313f00   2121 	mov	4141360,r6
                        2122 	jarl	_v_rd_8,lp
                        2122 <EXPANSION BEGIN>
                        2122 jarl22 _v_rd_8 , lp 
00000a32 80ff0000*      2122 <EXPANSION END>
00000a36 5d570000       2123 	st.b	r10,0[r29]
                        2124 --line610
                        2125 ..lin.D.3A.5CRenesas_Electronics.5CD1x_RGL.5Crgl_ghs_D1Lx_obj_V1.2E2.2E0.5Cvlib.5Capp.5Cgfx_apps.5Csimple_draw_d1l2.5Ctarget.5Cd1lx_mango_ghs.5Cobj.5Ccom.129::
                        2126 .LDWlin129:
00000a3a 80073607*      2127 	br	.L1142
                        2128 .L1037:
                        2129 --610: 		break;
                        2130 --611: 		case  INDEX_COM_RS_FLOBSRNG:/*FLObsRng*/
                        2131 --612: 			*pRes = v_rd_8(FLObsRng_handle);
                        2132 --line612
                        2133 ..lin.D.3A.5CRenesas_Electronics.5CD1x_RGL.5Crgl_ghs_D1Lx_obj_V1.2E2.2E0.5Cvlib.5Capp.5Cgfx_apps.5Csimple_draw_d1l2.5Ctarget.5Cd1lx_mango_ghs.5Cobj.5Ccom.130::
                        2134 .LDWlin130:
00000a3e 260678313f00   2135 	mov	4141432,r6
                        2136 	jarl	_v_rd_8,lp
                        2136 <EXPANSION BEGIN>
                        2136 jarl22 _v_rd_8 , lp 
00000a44 80ff0000*      2136 <EXPANSION END>
00000a48 5d570000       2137 	st.b	r10,0[r29]
                        2138 --line613
                        2139 ..lin.D.3A.5CRenesas_Electronics.5CD1x_RGL.5Crgl_ghs_D1Lx_obj_V1.2E2.2E0.5Cvlib.5Capp.5Cgfx_apps.5Csimple_draw_d1l2.5Ctarget.5Cd1lx_mango_ghs.5Cobj.5Ccom.131::
                        2140 .LDWlin131:
00000a4c 80072407*      2141 	br	.L1142
                        2142 .L1038:
                        2143 --613: 		break;
                        2144 --614: 		case  INDEX_COM_RS_FROBSRNG:/*FRObsRng*/
                        2145 --615: 			*pRes = v_rd_8(FRObsRng_handle);
                        2146 --line615
                        2147 ..lin.D.3A.5CRenesas_Electronics.5CD1x_RGL.5Crgl_ghs_D1Lx_obj_V1.2E2.2E0.5Cvlib.5Capp.5Cgfx_apps.5Csimple_draw_d1l2.5Ctarget.5Cd1lx_mango_ghs.5Cobj.5Ccom.132::
                        2148 .LDWlin132:
00000a50 26069c313f00   2149 	mov	4141468,r6
                        2150 	jarl	_v_rd_8,lp
                        2150 <EXPANSION BEGIN>
                        2150 jarl22 _v_rd_8 , lp 
00000a56 80ff0000*      2150 <EXPANSION END>
00000a5a 5d570000       2151 	st.b	r10,0[r29]
                        2152 --line616
                        2153 ..lin.D.3A.5CRenesas_Electronics.5CD1x_RGL.5Crgl_ghs_D1Lx_obj_V1.2E2.2E0.5Cvlib.5Capp.5Cgfx_apps.5Csimple_draw_d1l2.5Ctarget.5Cd1lx_mango_ghs.5Cobj.5Ccom.133::
                        2154 .LDWlin133:
00000a5e 80071207*      2155 	br	.L1142
                        2156 .L1039:
                        2157 --616: 		break;
                        2158 --617: 		case  INDEX_COM_RS_FRTMIDLOBSRNG:/*FrtMidLObsRng*/

                                                                      Page 40
                                                              C:\Users\YINGAO~1\AppData\Local\Temp\gh_000086k1.si
                        2159 --618: 			*pRes = v_rd_8(FrtMidLObsRng_handle);
                        2160 --line618
                        2161 ..lin.D.3A.5CRenesas_Electronics.5CD1x_RGL.5Crgl_ghs_D1Lx_obj_V1.2E2.2E0.5Cvlib.5Capp.5Cgfx_apps.5Csimple_draw_d1l2.5Ctarget.5Cd1lx_mango_ghs.5Cobj.5Ccom.134::
                        2162 .LDWlin134:
00000a62 2606c0313f00   2163 	mov	4141504,r6
                        2164 	jarl	_v_rd_8,lp
                        2164 <EXPANSION BEGIN>
                        2164 jarl22 _v_rd_8 , lp 
00000a68 80ff0000*      2164 <EXPANSION END>
00000a6c 5d570000       2165 	st.b	r10,0[r29]
                        2166 --line619
                        2167 ..lin.D.3A.5CRenesas_Electronics.5CD1x_RGL.5Crgl_ghs_D1Lx_obj_V1.2E2.2E0.5Cvlib.5Capp.5Cgfx_apps.5Csimple_draw_d1l2.5Ctarget.5Cd1lx_mango_ghs.5Cobj.5Ccom.135::
                        2168 .LDWlin135:
00000a70 80070007*      2169 	br	.L1142
                        2170 .L1040:
                        2171 --619: 		break;
                        2172 --620: 		case  INDEX_COM_RS_FRTMIDROBSRNG:/*FrtMidRObsRng*/
                        2173 --621: 			*pRes = v_rd_8(FrtMidRObsRng_handle);
                        2174 --line621
                        2175 ..lin.D.3A.5CRenesas_Electronics.5CD1x_RGL.5Crgl_ghs_D1Lx_obj_V1.2E2.2E0.5Cvlib.5Capp.5Cgfx_apps.5Csimple_draw_d1l2.5Ctarget.5Cd1lx_mango_ghs.5Cobj.5Ccom.136::
                        2176 .LDWlin136:
00000a74 2606e4313f00   2177 	mov	4141540,r6
                        2178 	jarl	_v_rd_8,lp
                        2178 <EXPANSION BEGIN>
                        2178 jarl22 _v_rd_8 , lp 
00000a7a 80ff0000*      2178 <EXPANSION END>
00000a7e 5d570000       2179 	st.b	r10,0[r29]
                        2180 --line622
                        2181 ..lin.D.3A.5CRenesas_Electronics.5CD1x_RGL.5Crgl_ghs_D1Lx_obj_V1.2E2.2E0.5Cvlib.5Capp.5Cgfx_apps.5Csimple_draw_d1l2.5Ctarget.5Cd1lx_mango_ghs.5Cobj.5Ccom.137::
                        2182 .LDWlin137:
00000a82 8007ee06*      2183 	br	.L1142
                        2184 .L1041:
                        2185 --622: 		break;
                        2186 --623: 		case  INDEX_COM_RS_FRTOBSDIST:/*FrtObsDist*/
                        2187 --624: 			*pRes = v_rd_8(FrtObsDist_handle);
                        2188 --line624
                        2189 ..lin.D.3A.5CRenesas_Electronics.5CD1x_RGL.5Crgl_ghs_D1Lx_obj_V1.2E2.2E0.5Cvlib.5Capp.5Cgfx_apps.5Csimple_draw_d1l2.5Ctarget.5Cd1lx_mango_ghs.5Cobj.5Ccom.138::
                        2190 .LDWlin138:
00000a86 260608323f00   2191 	mov	4141576,r6
                        2192 	jarl	_v_rd_8,lp
                        2192 <EXPANSION BEGIN>
                        2192 jarl22 _v_rd_8 , lp 
00000a8c 80ff0000*      2192 <EXPANSION END>
00000a90 5d570000       2193 	st.b	r10,0[r29]
                        2194 --line625
                        2195 ..lin.D.3A.5CRenesas_Electronics.5CD1x_RGL.5Crgl_ghs_D1Lx_obj_V1.2E2.2E0.5Cvlib.5Capp.5Cgfx_apps.5Csimple_draw_d1l2.5Ctarget.5Cd1lx_mango_ghs.5Cobj.5Ccom.139::
                        2196 .LDWlin139:
00000a94 8007dc06*      2197 	br	.L1142
                        2198 .L1042:
                        2199 --625: 		break;
                        2200 --626: 		case  INDEX_COM_RS_IPCSSBFLTSTS:/*IPCSSBFltSts*/
                        2201 --627: 			*pRes = v_rd_8(IPCSSBFltSts_handle);
                        2202 --line627
                        2203 ..lin.D.3A.5CRenesas_Electronics.5CD1x_RGL.5Crgl_ghs_D1Lx_obj_V1.2E2.2E0.5Cvlib.5Capp.5Cgfx_apps.5Csimple_draw_d1l2.5Ctarget.5Cd1lx_mango_ghs.5Cobj.5Ccom.140::
                        2204 .LDWlin140:
00000a98 260694333f00   2205 	mov	4141972,r6
                        2206 	jarl	_v_rd_8,lp
                        2206 <EXPANSION BEGIN>
                        2206 jarl22 _v_rd_8 , lp 
00000a9e 80ff0000*      2206 <EXPANSION END>
00000aa2 5d570000       2207 	st.b	r10,0[r29]

                                                                      Page 41
                                                              C:\Users\YINGAO~1\AppData\Local\Temp\gh_000086k1.si
                        2208 --line628
                        2209 ..lin.D.3A.5CRenesas_Electronics.5CD1x_RGL.5Crgl_ghs_D1Lx_obj_V1.2E2.2E0.5Cvlib.5Capp.5Cgfx_apps.5Csimple_draw_d1l2.5Ctarget.5Cd1lx_mango_ghs.5Cobj.5Ccom.141::
                        2210 .LDWlin141:
00000aa6 8007ca06*      2211 	br	.L1142
                        2212 .L1043:
                        2213 --628: 		break;
                        2214 --629: 		case  INDEX_COM_RS_LANGGSETNG:/*LanggSetng*/
                        2215 --630: 			*pRes = v_rd_8(LanggSetng_handle);
                        2216 --line630
                        2217 ..lin.D.3A.5CRenesas_Electronics.5CD1x_RGL.5Crgl_ghs_D1Lx_obj_V1.2E2.2E0.5Cvlib.5Capp.5Cgfx_apps.5Csimple_draw_d1l2.5Ctarget.5Cd1lx_mango_ghs.5Cobj.5Ccom.142::
                        2218 .LDWlin142:
00000aaa 2606dc333f00   2219 	mov	4142044,r6
                        2220 	jarl	_v_rd_8,lp
                        2220 <EXPANSION BEGIN>
                        2220 jarl22 _v_rd_8 , lp 
00000ab0 80ff0000*      2220 <EXPANSION END>
00000ab4 5d570000       2221 	st.b	r10,0[r29]
                        2222 --line631
                        2223 ..lin.D.3A.5CRenesas_Electronics.5CD1x_RGL.5Crgl_ghs_D1Lx_obj_V1.2E2.2E0.5Cvlib.5Capp.5Cgfx_apps.5Csimple_draw_d1l2.5Ctarget.5Cd1lx_mango_ghs.5Cobj.5Ccom.143::
                        2224 .LDWlin143:
00000ab8 8007b806*      2225 	br	.L1142
                        2226 .L1044:
                        2227 --631: 		break;
                        2228 --632: 		
                        2229 --633: 		case  INDEX_COM_RS_TRSHFTLVRPOS:/*TrShftLvrPos*/
                        2230 --634: 			*pRes = v_rd_8(TrShftLvrPos_handle);
                        2231 --line634
                        2232 ..lin.D.3A.5CRenesas_Electronics.5CD1x_RGL.5Crgl_ghs_D1Lx_obj_V1.2E2.2E0.5Cvlib.5Capp.5Cgfx_apps.5Csimple_draw_d1l2.5Ctarget.5Cd1lx_mango_ghs.5Cobj.5Ccom.144::
                        2233 .LDWlin144:
00000abc 2606c81d3f00   2234 	mov	4136392,r6
                        2235 	jarl	_v_rd_8,lp
                        2235 <EXPANSION BEGIN>
                        2235 jarl22 _v_rd_8 , lp 
00000ac2 80ff0000*      2235 <EXPANSION END>
00000ac6 5d570000       2236 	st.b	r10,0[r29]
                        2237 --line635
                        2238 ..lin.D.3A.5CRenesas_Electronics.5CD1x_RGL.5Crgl_ghs_D1Lx_obj_V1.2E2.2E0.5Cvlib.5Capp.5Cgfx_apps.5Csimple_draw_d1l2.5Ctarget.5Cd1lx_mango_ghs.5Cobj.5Ccom.145::
                        2239 .LDWlin145:
00000aca 8007a606*      2240 	br	.L1142
                        2241 .L1045:
                        2242 --635: 		break;
                        2243 --636: 		case  INDEX_COM_RS_DRVRSHFTCTRLTRGTGEAR:/*DrvrShftCtrlTrgtGear*/
                        2244 --637: 			*pRes = v_rd_8(DrvrShftCtrlTrgtGear_handle);
                        2245 --line637
                        2246 ..lin.D.3A.5CRenesas_Electronics.5CD1x_RGL.5Crgl_ghs_D1Lx_obj_V1.2E2.2E0.5Cvlib.5Capp.5Cgfx_apps.5Csimple_draw_d1l2.5Ctarget.5Cd1lx_mango_ghs.5Cobj.5Ccom.146::
                        2247 .LDWlin146:
00000ace 2606fc073f00   2248 	mov	4130812,r6
                        2249 	jarl	_v_rd_8,lp
                        2249 <EXPANSION BEGIN>
                        2249 jarl22 _v_rd_8 , lp 
00000ad4 80ff0000*      2249 <EXPANSION END>
00000ad8 5d570000       2250 	st.b	r10,0[r29]
                        2251 --line638
                        2252 ..lin.D.3A.5CRenesas_Electronics.5CD1x_RGL.5Crgl_ghs_D1Lx_obj_V1.2E2.2E0.5Cvlib.5Capp.5Cgfx_apps.5Csimple_draw_d1l2.5Ctarget.5Cd1lx_mango_ghs.5Cobj.5Ccom.147::
                        2253 .LDWlin147:
00000adc 80079406*      2254 	br	.L1142
                        2255 .L1046:
                        2256 --638: 		break;
                        2257 --639: 		case  INDEX_COM_RS_ECMPRESSCLBRKRMNDR:/*ECMPressClBrkRmndr*/
                        2258 --640: 			*pRes = v_rd_8(ECMPressClBrkRmndr_handle);
                        2259 --line640

                                                                      Page 42
                                                              C:\Users\YINGAO~1\AppData\Local\Temp\gh_000086k1.si
                        2260 ..lin.D.3A.5CRenesas_Electronics.5CD1x_RGL.5Crgl_ghs_D1Lx_obj_V1.2E2.2E0.5Cvlib.5Capp.5Cgfx_apps.5Csimple_draw_d1l2.5Ctarget.5Cd1lx_mango_ghs.5Cobj.5Ccom.148::
                        2261 .LDWlin148:
00000ae0 26068c083f00   2262 	mov	4130956,r6
                        2263 	jarl	_v_rd_8,lp
                        2263 <EXPANSION BEGIN>
                        2263 jarl22 _v_rd_8 , lp 
00000ae6 80ff0000*      2263 <EXPANSION END>
00000aea 5d570000       2264 	st.b	r10,0[r29]
                        2265 --line641
                        2266 ..lin.D.3A.5CRenesas_Electronics.5CD1x_RGL.5Crgl_ghs_D1Lx_obj_V1.2E2.2E0.5Cvlib.5Capp.5Cgfx_apps.5Csimple_draw_d1l2.5Ctarget.5Cd1lx_mango_ghs.5Cobj.5Ccom.149::
                        2267 .LDWlin149:
00000aee 80078206*      2268 	br	.L1142
                        2269 .L1047:
                        2270 --641: 		break;	
                        2271 --642: 		case  INDEX_COM_RS_ECODRVNGDSPSTSGEARSIS:/*EcoDrvngDspStsGearSIS*/
                        2272 --643: 			*pRes = v_rd_8(EcoDrvngDspStsGearSIS_handle);
                        2273 --line643
                        2274 ..lin.D.3A.5CRenesas_Electronics.5CD1x_RGL.5Crgl_ghs_D1Lx_obj_V1.2E2.2E0.5Cvlib.5Capp.5Cgfx_apps.5Csimple_draw_d1l2.5Ctarget.5Cd1lx_mango_ghs.5Cobj.5Ccom.150::
                        2275 .LDWlin150:
00000af2 2606f8083f00   2276 	mov	4131064,r6
                        2277 	jarl	_v_rd_8,lp
                        2277 <EXPANSION BEGIN>
                        2277 jarl22 _v_rd_8 , lp 
00000af8 80ff0000*      2277 <EXPANSION END>
00000afc 5d570000       2278 	st.b	r10,0[r29]
                        2279 --line644
                        2280 ..lin.D.3A.5CRenesas_Electronics.5CD1x_RGL.5Crgl_ghs_D1Lx_obj_V1.2E2.2E0.5Cvlib.5Capp.5Cgfx_apps.5Csimple_draw_d1l2.5Ctarget.5Cd1lx_mango_ghs.5Cobj.5Ccom.151::
                        2281 .LDWlin151:
00000b00 80077006*      2282 	br	.L1142
                        2283 .L1048:
                        2284 --644: 		break;
                        2285 --645: 		case  INDEX_COM_RS_ECODRVNGDSPSTSRCMNDFG:/*EcoDrvngDspStsRcmndFG*/
                        2286 --646: 			*pRes = v_rd_8(EcoDrvngDspStsRcmndFG_handle);
                        2287 --line646
                        2288 ..lin.D.3A.5CRenesas_Electronics.5CD1x_RGL.5Crgl_ghs_D1Lx_obj_V1.2E2.2E0.5Cvlib.5Capp.5Cgfx_apps.5Csimple_draw_d1l2.5Ctarget.5Cd1lx_mango_ghs.5Cobj.5Ccom.152::
                        2289 .LDWlin152:
00000b04 26061c093f00   2290 	mov	4131100,r6
                        2291 	jarl	_v_rd_8,lp
                        2291 <EXPANSION BEGIN>
                        2291 jarl22 _v_rd_8 , lp 
00000b0a 80ff0000*      2291 <EXPANSION END>
00000b0e 5d570000       2292 	st.b	r10,0[r29]
                        2293 --line647
                        2294 ..lin.D.3A.5CRenesas_Electronics.5CD1x_RGL.5Crgl_ghs_D1Lx_obj_V1.2E2.2E0.5Cvlib.5Capp.5Cgfx_apps.5Csimple_draw_d1l2.5Ctarget.5Cd1lx_mango_ghs.5Cobj.5Ccom.153::
                        2295 .LDWlin153:
00000b12 80075e06*      2296 	br	.L1142
                        2297 .L1049:
                        2298 --647: 		break;
                        2299 --648: 		case  INDEX_COM_RS_EMGCCALLFLRSTS:/*EmgcCallFlrSts*/
                        2300 --649: 			*pRes = v_rd_8(EmgcCallFlrSts_handle);
                        2301 --line649
                        2302 ..lin.D.3A.5CRenesas_Electronics.5CD1x_RGL.5Crgl_ghs_D1Lx_obj_V1.2E2.2E0.5Cvlib.5Capp.5Cgfx_apps.5Csimple_draw_d1l2.5Ctarget.5Cd1lx_mango_ghs.5Cobj.5Ccom.154::
                        2303 .LDWlin154:
00000b16 260664093f00   2304 	mov	4131172,r6
                        2305 	jarl	_v_rd_8,lp
                        2305 <EXPANSION BEGIN>
                        2305 jarl22 _v_rd_8 , lp 
00000b1c 80ff0000*      2305 <EXPANSION END>
00000b20 5d570000       2306 	st.b	r10,0[r29]
                        2307 --line650
                        2308 ..lin.D.3A.5CRenesas_Electronics.5CD1x_RGL.5Crgl_ghs_D1Lx_obj_V1.2E2.2E0.5Cvlib.5Capp.5Cgfx_apps.5Csimple_draw_d1l2.5Ctarget.5Cd1lx_mango_ghs.5Cobj.5Ccom.155::

                                                                      Page 43
                                                              C:\Users\YINGAO~1\AppData\Local\Temp\gh_000086k1.si
                        2309 .LDWlin155:
00000b24 80074c06*      2310 	br	.L1142
                        2311 .L1050:
                        2312 --650: 		break;
                        2313 --651: 		case  INDEX_COM_RS_ENASSSTA:/*EnASSSta*/
                        2314 --652: 			*pRes = v_rd_8(EnASSSta_handle);
                        2315 --line652
                        2316 ..lin.D.3A.5CRenesas_Electronics.5CD1x_RGL.5Crgl_ghs_D1Lx_obj_V1.2E2.2E0.5Cvlib.5Capp.5Cgfx_apps.5Csimple_draw_d1l2.5Ctarget.5Cd1lx_mango_ghs.5Cobj.5Ccom.156::
                        2317 .LDWlin156:
00000b28 2606ac093f00   2318 	mov	4131244,r6
                        2319 	jarl	_v_rd_8,lp
                        2319 <EXPANSION BEGIN>
                        2319 jarl22 _v_rd_8 , lp 
00000b2e 80ff0000*      2319 <EXPANSION END>
00000b32 5d570000       2320 	st.b	r10,0[r29]
                        2321 --line653
                        2322 ..lin.D.3A.5CRenesas_Electronics.5CD1x_RGL.5Crgl_ghs_D1Lx_obj_V1.2E2.2E0.5Cvlib.5Capp.5Cgfx_apps.5Csimple_draw_d1l2.5Ctarget.5Cd1lx_mango_ghs.5Cobj.5Ccom.157::
                        2323 .LDWlin157:
00000b36 80073a06*      2324 	br	.L1142
                        2325 .L1051:
                        2326 --653: 		break;
                        2327 --654: 		
                        2328 --655:         		case  INDEX_COM_RS_TRSHFTPTRNASTS:/*TrShftLvrPosV*/
                        2329 --656: 			*pRes = v_rd_8(TrShftPtrnASts_handle);
                        2330 --line656
                        2331 ..lin.D.3A.5CRenesas_Electronics.5CD1x_RGL.5Crgl_ghs_D1Lx_obj_V1.2E2.2E0.5Cvlib.5Capp.5Cgfx_apps.5Csimple_draw_d1l2.5Ctarget.5Cd1lx_mango_ghs.5Cobj.5Ccom.158::
                        2332 .LDWlin158:
00000b3a 2606101e3f00   2333 	mov	4136464,r6
                        2334 	jarl	_v_rd_8,lp
                        2334 <EXPANSION BEGIN>
                        2334 jarl22 _v_rd_8 , lp 
00000b40 80ff0000*      2334 <EXPANSION END>
00000b44 5d570000       2335 	st.b	r10,0[r29]
                        2336 --line657
                        2337 ..lin.D.3A.5CRenesas_Electronics.5CD1x_RGL.5Crgl_ghs_D1Lx_obj_V1.2E2.2E0.5Cvlib.5Capp.5Cgfx_apps.5Csimple_draw_d1l2.5Ctarget.5Cd1lx_mango_ghs.5Cobj.5Ccom.159::
                        2338 .LDWlin159:
00000b48 80072806*      2339 	br	.L1142
                        2340 .L1052:
                        2341 --657: 		break;
                        2342 --658:         		case  INDEX_COM_RS_TRTAPUPTAPDWNMDSTS:/*TrShftLvrPosV*/
                        2343 --659: 			*pRes = v_rd_8(TrTapUpTapDwnMdSts_handle);
                        2344 --line659
                        2345 ..lin.D.3A.5CRenesas_Electronics.5CD1x_RGL.5Crgl_ghs_D1Lx_obj_V1.2E2.2E0.5Cvlib.5Capp.5Cgfx_apps.5Csimple_draw_d1l2.5Ctarget.5Cd1lx_mango_ghs.5Cobj.5Ccom.160::
                        2346 .LDWlin160:
00000b4c 2606341e3f00   2347 	mov	4136500,r6
                        2348 	jarl	_v_rd_8,lp
                        2348 <EXPANSION BEGIN>
                        2348 jarl22 _v_rd_8 , lp 
00000b52 80ff0000*      2348 <EXPANSION END>
00000b56 5d570000       2349 	st.b	r10,0[r29]
                        2350 --line660
                        2351 ..lin.D.3A.5CRenesas_Electronics.5CD1x_RGL.5Crgl_ghs_D1Lx_obj_V1.2E2.2E0.5Cvlib.5Capp.5Cgfx_apps.5Csimple_draw_d1l2.5Ctarget.5Cd1lx_mango_ghs.5Cobj.5Ccom.161::
                        2352 .LDWlin161:
00000b5a 80071606*      2353 	br	.L1142
                        2354 .L1053:
                        2355 --660: 		break;
                        2356 --661:         	case  INDEX_COM_RS_VEHLCKNGSTA:/*VehLckngSta*/
                        2357 --662: 			*pRes = v_rd_8(VehLckngSta_handle);
                        2358 --line662
                        2359 ..lin.D.3A.5CRenesas_Electronics.5CD1x_RGL.5Crgl_ghs_D1Lx_obj_V1.2E2.2E0.5Cvlib.5Capp.5Cgfx_apps.5Csimple_draw_d1l2.5Ctarget.5Cd1lx_mango_ghs.5Cobj.5Ccom.162::
                        2360 .LDWlin162:

                                                                      Page 44
                                                              C:\Users\YINGAO~1\AppData\Local\Temp\gh_000086k1.si
00000b5e 2606581e3f00   2361 	mov	4136536,r6
                        2362 	jarl	_v_rd_8,lp
                        2362 <EXPANSION BEGIN>
                        2362 jarl22 _v_rd_8 , lp 
00000b64 80ff0000*      2362 <EXPANSION END>
00000b68 5d570000       2363 	st.b	r10,0[r29]
                        2364 --line663
                        2365 ..lin.D.3A.5CRenesas_Electronics.5CD1x_RGL.5Crgl_ghs_D1Lx_obj_V1.2E2.2E0.5Cvlib.5Capp.5Cgfx_apps.5Csimple_draw_d1l2.5Ctarget.5Cd1lx_mango_ghs.5Cobj.5Ccom.163::
                        2366 .LDWlin163:
00000b6c 80070406*      2367 	br	.L1142
                        2368 .L1054:
                        2369 --663: 		break;
                        2370 --664: 		
                        2371 --665:         		case  INDEX_COM_RS_TRSHFTLVRPOSV:/*TrShftLvrPosV*/
                        2372 --666: 			*pRes = v_rd_8(TrShftLvrPosV_handle);
                        2373 --line666
                        2374 ..lin.D.3A.5CRenesas_Electronics.5CD1x_RGL.5Crgl_ghs_D1Lx_obj_V1.2E2.2E0.5Cvlib.5Capp.5Cgfx_apps.5Csimple_draw_d1l2.5Ctarget.5Cd1lx_mango_ghs.5Cobj.5Ccom.164::
                        2375 .LDWlin164:
00000b70 2606ec1d3f00   2376 	mov	4136428,r6
                        2377 	jarl	_v_rd_8,lp
                        2377 <EXPANSION BEGIN>
                        2377 jarl22 _v_rd_8 , lp 
00000b76 80ff0000*      2377 <EXPANSION END>
00000b7a 5d570000       2378 	st.b	r10,0[r29]
                        2379 --line667
                        2380 ..lin.D.3A.5CRenesas_Electronics.5CD1x_RGL.5Crgl_ghs_D1Lx_obj_V1.2E2.2E0.5Cvlib.5Capp.5Cgfx_apps.5Csimple_draw_d1l2.5Ctarget.5Cd1lx_mango_ghs.5Cobj.5Ccom.165::
                        2381 .LDWlin165:
00000b7e 8007f205*      2382 	br	.L1142
                        2383 .L1055:
                        2384 --667: 		break;
                        2385 --668: 		case  INDEX_COM_RS_DRVRDOOROPENSTS:/*DrvrDoorOpenSts*/
                        2386 --669: 			*pRes = v_rd_8(DrvrDoorOpenSts_handle);
                        2387 --line669
                        2388 ..lin.D.3A.5CRenesas_Electronics.5CD1x_RGL.5Crgl_ghs_D1Lx_obj_V1.2E2.2E0.5Cvlib.5Capp.5Cgfx_apps.5Csimple_draw_d1l2.5Ctarget.5Cd1lx_mango_ghs.5Cobj.5Ccom.166::
                        2389 .LDWlin166:
00000b82 2606b4073f00   2390 	mov	4130740,r6
                        2391 	jarl	_v_rd_8,lp
                        2391 <EXPANSION BEGIN>
                        2391 jarl22 _v_rd_8 , lp 
00000b88 80ff0000*      2391 <EXPANSION END>
00000b8c 5d570000       2392 	st.b	r10,0[r29]
                        2393 --line670
                        2394 ..lin.D.3A.5CRenesas_Electronics.5CD1x_RGL.5Crgl_ghs_D1Lx_obj_V1.2E2.2E0.5Cvlib.5Capp.5Cgfx_apps.5Csimple_draw_d1l2.5Ctarget.5Cd1lx_mango_ghs.5Cobj.5Ccom.167::
                        2395 .LDWlin167:
00000b90 8007e005*      2396 	br	.L1142
                        2397 .L1056:
                        2398 --670: 		break;
                        2399 --671: 		case  INDEX_COM_RS_ENSPDSTS:/*EnSpdSts*/
                        2400 --672: 			*pRes = v_rd_8(EnSpdSts_handle);
                        2401 --line672
                        2402 ..lin.D.3A.5CRenesas_Electronics.5CD1x_RGL.5Crgl_ghs_D1Lx_obj_V1.2E2.2E0.5Cvlib.5Capp.5Cgfx_apps.5Csimple_draw_d1l2.5Ctarget.5Cd1lx_mango_ghs.5Cobj.5Ccom.168::
                        2403 .LDWlin168:
00000b94 2606140b3f00   2404 	mov	4131604,r6
                        2405 	jarl	_v_rd_8,lp
                        2405 <EXPANSION BEGIN>
                        2405 jarl22 _v_rd_8 , lp 
00000b9a 80ff0000*      2405 <EXPANSION END>
00000b9e 5d570000       2406 	st.b	r10,0[r29]
                        2407 --line673
                        2408 ..lin.D.3A.5CRenesas_Electronics.5CD1x_RGL.5Crgl_ghs_D1Lx_obj_V1.2E2.2E0.5Cvlib.5Capp.5Cgfx_apps.5Csimple_draw_d1l2.5Ctarget.5Cd1lx_mango_ghs.5Cobj.5Ccom.169::
                        2409 .LDWlin169:

                                                                      Page 45
                                                              C:\Users\YINGAO~1\AppData\Local\Temp\gh_000086k1.si
00000ba2 8007ce05*      2410 	br	.L1142
                        2411 .L1057:
                        2412 --673: 		break;
                        2413 --674: 		case  INDEX_COM_RS_EPBSYSAUDWRNNGREQ:/*EPBSysAudWrnngReq*/
                        2414 --675: 			*pRes = v_rd_8(EPBSysAudWrnngReq_handle);
                        2415 --line675
                        2416 ..lin.D.3A.5CRenesas_Electronics.5CD1x_RGL.5Crgl_ghs_D1Lx_obj_V1.2E2.2E0.5Cvlib.5Capp.5Cgfx_apps.5Csimple_draw_d1l2.5Ctarget.5Cd1lx_mango_ghs.5Cobj.5Ccom.170::
                        2417 .LDWlin170:
00000ba6 2606380b3f00   2418 	mov	4131640,r6
                        2419 	jarl	_v_rd_8,lp
                        2419 <EXPANSION BEGIN>
                        2419 jarl22 _v_rd_8 , lp 
00000bac 80ff0000*      2419 <EXPANSION END>
00000bb0 5d570000       2420 	st.b	r10,0[r29]
                        2421 --line676
                        2422 ..lin.D.3A.5CRenesas_Electronics.5CD1x_RGL.5Crgl_ghs_D1Lx_obj_V1.2E2.2E0.5Cvlib.5Capp.5Cgfx_apps.5Csimple_draw_d1l2.5Ctarget.5Cd1lx_mango_ghs.5Cobj.5Ccom.171::
                        2423 .LDWlin171:
00000bb4 8007bc05*      2424 	br	.L1142
                        2425 .L1058:
                        2426 --676: 		break;
                        2427 --677: 		case  INDEX_COM_RS_EPBSYSDSPMSGREQ:/*EPBSysDspMsgReq*/
                        2428 --678: 			*pRes = v_rd_8(EPBSysDspMsgReq_handle);
                        2429 --line678
                        2430 ..lin.D.3A.5CRenesas_Electronics.5CD1x_RGL.5Crgl_ghs_D1Lx_obj_V1.2E2.2E0.5Cvlib.5Capp.5Cgfx_apps.5Csimple_draw_d1l2.5Ctarget.5Cd1lx_mango_ghs.5Cobj.5Ccom.172::
                        2431 .LDWlin172:
00000bb8 26065c0b3f00   2432 	mov	4131676,r6
                        2433 	jarl	_v_rd_8,lp
                        2433 <EXPANSION BEGIN>
                        2433 jarl22 _v_rd_8 , lp 
00000bbe 80ff0000*      2433 <EXPANSION END>
00000bc2 5d570000       2434 	st.b	r10,0[r29]
                        2435 --line679
                        2436 ..lin.D.3A.5CRenesas_Electronics.5CD1x_RGL.5Crgl_ghs_D1Lx_obj_V1.2E2.2E0.5Cvlib.5Capp.5Cgfx_apps.5Csimple_draw_d1l2.5Ctarget.5Cd1lx_mango_ghs.5Cobj.5Ccom.173::
                        2437 .LDWlin173:
00000bc6 8007aa05*      2438 	br	.L1142
                        2439 .L1059:
                        2440 --679: 		break;
                        2441 --680: 		case  INDEX_COM_RS_EPBSYSSTSINDREQ:/*EPBSysStsIndReq*/
                        2442 --681: 			*pRes = v_rd_8(EPBSysStsIndReq_handle);
                        2443 --line681
                        2444 ..lin.D.3A.5CRenesas_Electronics.5CD1x_RGL.5Crgl_ghs_D1Lx_obj_V1.2E2.2E0.5Cvlib.5Capp.5Cgfx_apps.5Csimple_draw_d1l2.5Ctarget.5Cd1lx_mango_ghs.5Cobj.5Ccom.174::
                        2445 .LDWlin174:
00000bca 2606800b3f00   2446 	mov	4131712,r6
                        2447 	jarl	_v_rd_8,lp
                        2447 <EXPANSION BEGIN>
                        2447 jarl22 _v_rd_8 , lp 
00000bd0 80ff0000*      2447 <EXPANSION END>
00000bd4 5d570000       2448 	st.b	r10,0[r29]
                        2449 --line682
                        2450 ..lin.D.3A.5CRenesas_Electronics.5CD1x_RGL.5Crgl_ghs_D1Lx_obj_V1.2E2.2E0.5Cvlib.5Capp.5Cgfx_apps.5Csimple_draw_d1l2.5Ctarget.5Cd1lx_mango_ghs.5Cobj.5Ccom.175::
                        2451 .LDWlin175:
00000bd8 80079805*      2452 	br	.L1142
                        2453 .L1060:
                        2454 --682: 		break;
                        2455 --683: 		case  INDEX_COM_RS_EPBSYSWRNNGINDREQ:/*EPBSysWrnngIndReq*/
                        2456 --684: 			*pRes = v_rd_8(EPBSysWrnngIndReq_handle);
                        2457 --line684
                        2458 ..lin.D.3A.5CRenesas_Electronics.5CD1x_RGL.5Crgl_ghs_D1Lx_obj_V1.2E2.2E0.5Cvlib.5Capp.5Cgfx_apps.5Csimple_draw_d1l2.5Ctarget.5Cd1lx_mango_ghs.5Cobj.5Ccom.176::
                        2459 .LDWlin176:
00000bdc 2606a40b3f00   2460 	mov	4131748,r6
                        2461 	jarl	_v_rd_8,lp

                                                                      Page 46
                                                              C:\Users\YINGAO~1\AppData\Local\Temp\gh_000086k1.si
                        2461 <EXPANSION BEGIN>
                        2461 jarl22 _v_rd_8 , lp 
00000be2 80ff0000*      2461 <EXPANSION END>
00000be6 5d570000       2462 	st.b	r10,0[r29]
                        2463 --line685
                        2464 ..lin.D.3A.5CRenesas_Electronics.5CD1x_RGL.5Crgl_ghs_D1Lx_obj_V1.2E2.2E0.5Cvlib.5Capp.5Cgfx_apps.5Csimple_draw_d1l2.5Ctarget.5Cd1lx_mango_ghs.5Cobj.5Ccom.177::
                        2465 .LDWlin177:
00000bea 80078605*      2466 	br	.L1142
                        2467 .L1061:
                        2468 --685: 		break;
                        2469 --686: 		
                        2470 --687: 		case  INDEX_COM_RS_VEHSPDAVGDRVNV:/*VehSpdAvgDrvnV*/
                        2471 --688: 			*pRes = v_rd_8(VehSpdAvgDrvnV_handle);
                        2472 --line688
                        2473 ..lin.D.3A.5CRenesas_Electronics.5CD1x_RGL.5Crgl_ghs_D1Lx_obj_V1.2E2.2E0.5Cvlib.5Capp.5Cgfx_apps.5Csimple_draw_d1l2.5Ctarget.5Cd1lx_mango_ghs.5Cobj.5Ccom.178::
                        2474 .LDWlin178:
00000bee 2606301f3f00   2475 	mov	4136752,r6
                        2476 	jarl	_v_rd_8,lp
                        2476 <EXPANSION BEGIN>
                        2476 jarl22 _v_rd_8 , lp 
00000bf4 80ff0000*      2476 <EXPANSION END>
00000bf8 5d570000       2477 	st.b	r10,0[r29]
                        2478 --line689
                        2479 ..lin.D.3A.5CRenesas_Electronics.5CD1x_RGL.5Crgl_ghs_D1Lx_obj_V1.2E2.2E0.5Cvlib.5Capp.5Cgfx_apps.5Csimple_draw_d1l2.5Ctarget.5Cd1lx_mango_ghs.5Cobj.5Ccom.179::
                        2480 .LDWlin179:
00000bfc 80077405*      2481 	br	.L1142
                        2482 .L1062:
                        2483 --689: 		break;
                        2484 --690: 		case  INDEX_COM_RS_ENCLNTTEMV:/*EnClntTemV*/
                        2485 --691: 			*pRes = v_rd_8(EnClntTemV_handle);
                        2486 --line691
                        2487 ..lin.D.3A.5CRenesas_Electronics.5CD1x_RGL.5Crgl_ghs_D1Lx_obj_V1.2E2.2E0.5Cvlib.5Capp.5Cgfx_apps.5Csimple_draw_d1l2.5Ctarget.5Cd1lx_mango_ghs.5Cobj.5Ccom.180::
                        2488 .LDWlin180:
00000c00 2606f4093f00   2489 	mov	4131316,r6
                        2490 	jarl	_v_rd_8,lp
                        2490 <EXPANSION BEGIN>
                        2490 jarl22 _v_rd_8 , lp 
00000c06 80ff0000*      2490 <EXPANSION END>
00000c0a 5d570000       2491 	st.b	r10,0[r29]
                        2492 --line692
                        2493 ..lin.D.3A.5CRenesas_Electronics.5CD1x_RGL.5Crgl_ghs_D1Lx_obj_V1.2E2.2E0.5Cvlib.5Capp.5Cgfx_apps.5Csimple_draw_d1l2.5Ctarget.5Cd1lx_mango_ghs.5Cobj.5Ccom.181::
                        2494 .LDWlin181:
00000c0e 80076205*      2495 	br	.L1142
                        2496 .L1063:
                        2497 --692: 		break;
                        2498 --693: 		case  INDEX_COM_RS_ENEMSNRLTDMALFINDREQ:/*EnEmsnRltdMalfIndReq*/
                        2499 --694: 			*pRes = v_rd_8(EnEmsnRltdMalfIndReq_handle);
                        2500 --line694
                        2501 ..lin.D.3A.5CRenesas_Electronics.5CD1x_RGL.5Crgl_ghs_D1Lx_obj_V1.2E2.2E0.5Cvlib.5Capp.5Cgfx_apps.5Csimple_draw_d1l2.5Ctarget.5Cd1lx_mango_ghs.5Cobj.5Ccom.182::
                        2502 .LDWlin182:
00000c12 26063c0a3f00   2503 	mov	4131388,r6
                        2504 	jarl	_v_rd_8,lp
                        2504 <EXPANSION BEGIN>
                        2504 jarl22 _v_rd_8 , lp 
00000c18 80ff0000*      2504 <EXPANSION END>
00000c1c 5d570000       2505 	st.b	r10,0[r29]
                        2506 --line695
                        2507 ..lin.D.3A.5CRenesas_Electronics.5CD1x_RGL.5Crgl_ghs_D1Lx_obj_V1.2E2.2E0.5Cvlib.5Capp.5Cgfx_apps.5Csimple_draw_d1l2.5Ctarget.5Cd1lx_mango_ghs.5Cobj.5Ccom.183::
                        2508 .LDWlin183:
00000c20 80075005*      2509 	br	.L1142
                        2510 .L1064:

                                                                      Page 47
                                                              C:\Users\YINGAO~1\AppData\Local\Temp\gh_000086k1.si
                        2511 --695: 		break;
                        2512 --696: 		case  INDEX_COM_RS_ENGPFLAMPONSTS:/*EnGPFLampOnSts*/
                        2513 --697: 			*pRes = v_rd_8(EnGPFLampOnSts_handle);
                        2514 --line697
                        2515 ..lin.D.3A.5CRenesas_Electronics.5CD1x_RGL.5Crgl_ghs_D1Lx_obj_V1.2E2.2E0.5Cvlib.5Capp.5Cgfx_apps.5Csimple_draw_d1l2.5Ctarget.5Cd1lx_mango_ghs.5Cobj.5Ccom.184::
                        2516 .LDWlin184:
00000c24 2606600a3f00   2517 	mov	4131424,r6
                        2518 	jarl	_v_rd_8,lp
                        2518 <EXPANSION BEGIN>
                        2518 jarl22 _v_rd_8 , lp 
00000c2a 80ff0000*      2518 <EXPANSION END>
00000c2e 5d570000       2519 	st.b	r10,0[r29]
                        2520 --line698
                        2521 ..lin.D.3A.5CRenesas_Electronics.5CD1x_RGL.5Crgl_ghs_D1Lx_obj_V1.2E2.2E0.5Cvlib.5Capp.5Cgfx_apps.5Csimple_draw_d1l2.5Ctarget.5Cd1lx_mango_ghs.5Cobj.5Ccom.185::
                        2522 .LDWlin185:
00000c32 80073e05*      2523 	br	.L1142
                        2524 .L1065:
                        2525 --698: 		break;
                        2526 --699: 		
                        2527 --700: 		case  INDEX_COM_RS_GENRSTA:/*GenrSta*/
                        2528 --701: 			*pRes = v_rd_8(GenrSta_handle);
                        2529 --line701
                        2530 ..lin.D.3A.5CRenesas_Electronics.5CD1x_RGL.5Crgl_ghs_D1Lx_obj_V1.2E2.2E0.5Cvlib.5Capp.5Cgfx_apps.5Csimple_draw_d1l2.5Ctarget.5Cd1lx_mango_ghs.5Cobj.5Ccom.186::
                        2531 .LDWlin186:
00000c36 2606d8103f00   2532 	mov	4133080,r6
                        2533 	jarl	_v_rd_8,lp
                        2533 <EXPANSION BEGIN>
                        2533 jarl22 _v_rd_8 , lp 
00000c3c 80ff0000*      2533 <EXPANSION END>
00000c40 5d570000       2534 	st.b	r10,0[r29]
                        2535 --line702
                        2536 ..lin.D.3A.5CRenesas_Electronics.5CD1x_RGL.5Crgl_ghs_D1Lx_obj_V1.2E2.2E0.5Cvlib.5Capp.5Cgfx_apps.5Csimple_draw_d1l2.5Ctarget.5Cd1lx_mango_ghs.5Cobj.5Ccom.187::
                        2537 .LDWlin187:
00000c44 80072c05*      2538 	br	.L1142
                        2539 .L1066:
                        2540 --702: 		break;
                        2541 --703: 		case  INDEX_COM_RS_HDCSYSSTS:/*HDCSysSts*/
                        2542 --704: 			*pRes = v_rd_8(HDCSysSts_handle);
                        2543 --line704
                        2544 ..lin.D.3A.5CRenesas_Electronics.5CD1x_RGL.5Crgl_ghs_D1Lx_obj_V1.2E2.2E0.5Cvlib.5Capp.5Cgfx_apps.5Csimple_draw_d1l2.5Ctarget.5Cd1lx_mango_ghs.5Cobj.5Ccom.188::
                        2545 .LDWlin188:
00000c48 2606fc103f00   2546 	mov	4133116,r6
                        2547 	jarl	_v_rd_8,lp
                        2547 <EXPANSION BEGIN>
                        2547 jarl22 _v_rd_8 , lp 
00000c4e 80ff0000*      2547 <EXPANSION END>
00000c52 5d570000       2548 	st.b	r10,0[r29]
                        2549 --line705
                        2550 ..lin.D.3A.5CRenesas_Electronics.5CD1x_RGL.5Crgl_ghs_D1Lx_obj_V1.2E2.2E0.5Cvlib.5Capp.5Cgfx_apps.5Csimple_draw_d1l2.5Ctarget.5Cd1lx_mango_ghs.5Cobj.5Ccom.189::
                        2551 .LDWlin189:
00000c56 80071a05*      2552 	br	.L1142
                        2553 .L1067:
                        2554 --705: 		break;
                        2555 --706: 		
                        2556 --707: 		case  INDEX_COM_RS_VEHLDSHEDLVL:/*VehLdShedLvl*/
                        2557 --708: 			*pRes = v_rd_8(VehLdShedLvl_handle);
                        2558 --line708
                        2559 ..lin.D.3A.5CRenesas_Electronics.5CD1x_RGL.5Crgl_ghs_D1Lx_obj_V1.2E2.2E0.5Cvlib.5Capp.5Cgfx_apps.5Csimple_draw_d1l2.5Ctarget.5Cd1lx_mango_ghs.5Cobj.5Ccom.190::
                        2560 .LDWlin190:
00000c5a 26067c1e3f00   2561 	mov	4136572,r6
                        2562 	jarl	_v_rd_8,lp

                                                                      Page 48
                                                              C:\Users\YINGAO~1\AppData\Local\Temp\gh_000086k1.si
                        2562 <EXPANSION BEGIN>
                        2562 jarl22 _v_rd_8 , lp 
00000c60 80ff0000*      2562 <EXPANSION END>
00000c64 5d570000       2563 	st.b	r10,0[r29]
                        2564 --line709
                        2565 ..lin.D.3A.5CRenesas_Electronics.5CD1x_RGL.5Crgl_ghs_D1Lx_obj_V1.2E2.2E0.5Cvlib.5Capp.5Cgfx_apps.5Csimple_draw_d1l2.5Ctarget.5Cd1lx_mango_ghs.5Cobj.5Ccom.191::
                        2566 .LDWlin191:
00000c68 80070805*      2567 	br	.L1142
                        2568 .L1068:
                        2569 --709: 		break;
                        2570 --710: 		case  INDEX_COM_RS_VEHODOV:/*VehOdoV*/
                        2571 --711: 			*pRes = v_rd_8(VehOdoV_handle);
                        2572 --line711
                        2573 ..lin.D.3A.5CRenesas_Electronics.5CD1x_RGL.5Crgl_ghs_D1Lx_obj_V1.2E2.2E0.5Cvlib.5Capp.5Cgfx_apps.5Csimple_draw_d1l2.5Ctarget.5Cd1lx_mango_ghs.5Cobj.5Ccom.192::
                        2574 .LDWlin192:
00000c6c 2606c41e3f00   2575 	mov	4136644,r6
                        2576 	jarl	_v_rd_8,lp
                        2576 <EXPANSION BEGIN>
                        2576 jarl22 _v_rd_8 , lp 
00000c72 80ff0000*      2576 <EXPANSION END>
00000c76 5d570000       2577 	st.b	r10,0[r29]
                        2578 --line712
                        2579 ..lin.D.3A.5CRenesas_Electronics.5CD1x_RGL.5Crgl_ghs_D1Lx_obj_V1.2E2.2E0.5Cvlib.5Capp.5Cgfx_apps.5Csimple_draw_d1l2.5Ctarget.5Cd1lx_mango_ghs.5Cobj.5Ccom.193::
                        2580 .LDWlin193:
00000c7a 8007f604*      2581 	br	.L1142
                        2582 .L1069:
                        2583 --712: 		break;
                        2584 --713: 		
                        2585 --714: 		case  INDEX_COM_RS_EPSFLRSTS:/*EPSFlrSts*/
                        2586 --715: 			*pRes = v_rd_8(EPSFlrSts_handle);
                        2587 --line715
                        2588 ..lin.D.3A.5CRenesas_Electronics.5CD1x_RGL.5Crgl_ghs_D1Lx_obj_V1.2E2.2E0.5Cvlib.5Capp.5Cgfx_apps.5Csimple_draw_d1l2.5Ctarget.5Cd1lx_mango_ghs.5Cobj.5Ccom.194::
                        2589 .LDWlin194:
00000c7e 2606c80b3f00   2590 	mov	4131784,r6
                        2591 	jarl	_v_rd_8,lp
                        2591 <EXPANSION BEGIN>
                        2591 jarl22 _v_rd_8 , lp 
00000c84 80ff0000*      2591 <EXPANSION END>
00000c88 5d570000       2592 	st.b	r10,0[r29]
                        2593 --line716
                        2594 ..lin.D.3A.5CRenesas_Electronics.5CD1x_RGL.5Crgl_ghs_D1Lx_obj_V1.2E2.2E0.5Cvlib.5Capp.5Cgfx_apps.5Csimple_draw_d1l2.5Ctarget.5Cd1lx_mango_ghs.5Cobj.5Ccom.195::
                        2595 .LDWlin195:
00000c8c 8007e404*      2596 	br	.L1142
                        2597 .L1070:
                        2598 --716: 		break;
                        2599 --717: 		case  INDEX_COM_RS_STRGWHLANGSNSRCALSTS:/*StrgWhlAngSnsrCalSts*/
                        2600 --718: 			*pRes = v_rd_8(StrgWhlAngSnsrCalSts_handle);
                        2601 --line718
                        2602 ..lin.D.3A.5CRenesas_Electronics.5CD1x_RGL.5Crgl_ghs_D1Lx_obj_V1.2E2.2E0.5Cvlib.5Capp.5Cgfx_apps.5Csimple_draw_d1l2.5Ctarget.5Cd1lx_mango_ghs.5Cobj.5Ccom.196::
                        2603 .LDWlin196:
00000c90 2606f81a3f00   2604 	mov	4135672,r6
                        2605 	jarl	_v_rd_8,lp
                        2605 <EXPANSION BEGIN>
                        2605 jarl22 _v_rd_8 , lp 
00000c96 80ff0000*      2605 <EXPANSION END>
00000c9a 5d570000       2606 	st.b	r10,0[r29]
                        2607 --line719
                        2608 ..lin.D.3A.5CRenesas_Electronics.5CD1x_RGL.5Crgl_ghs_D1Lx_obj_V1.2E2.2E0.5Cvlib.5Capp.5Cgfx_apps.5Csimple_draw_d1l2.5Ctarget.5Cd1lx_mango_ghs.5Cobj.5Ccom.197::
                        2609 .LDWlin197:
00000c9e 8007d204*      2610 	br	.L1142
                        2611 .L1071:

                                                                      Page 49
                                                              C:\Users\YINGAO~1\AppData\Local\Temp\gh_000086k1.si
                        2612 --719: 		break;
                        2613 --720: 		case  INDEX_COM_RS_SYSOPNLMD:/*SysOpnlMd*/
                        2614 --721: 			*pRes = v_rd_8(SysOpnlMd_handle);
                        2615 --line721
                        2616 ..lin.D.3A.5CRenesas_Electronics.5CD1x_RGL.5Crgl_ghs_D1Lx_obj_V1.2E2.2E0.5Cvlib.5Capp.5Cgfx_apps.5Csimple_draw_d1l2.5Ctarget.5Cd1lx_mango_ghs.5Cobj.5Ccom.198::
                        2617 .LDWlin198:
00000ca2 2606401b3f00   2618 	mov	4135744,r6
                        2619 	jarl	_v_rd_8,lp
                        2619 <EXPANSION BEGIN>
                        2619 jarl22 _v_rd_8 , lp 
00000ca8 80ff0000*      2619 <EXPANSION END>
00000cac 5d570000       2620 	st.b	r10,0[r29]
                        2621 --line722
                        2622 ..lin.D.3A.5CRenesas_Electronics.5CD1x_RGL.5Crgl_ghs_D1Lx_obj_V1.2E2.2E0.5Cvlib.5Capp.5Cgfx_apps.5Csimple_draw_d1l2.5Ctarget.5Cd1lx_mango_ghs.5Cobj.5Ccom.199::
                        2623 .LDWlin199:
00000cb0 8007c004*      2624 	br	.L1142
                        2625 .L1072:
                        2626 --722: 		break;
                        2627 --723: 		case  INDEX_COM_RS_SYSPWRMD:/*SysPwrMd*/
                        2628 --724: 			*pRes = v_rd_8(SysPwrMd_handle);
                        2629 --line724
                        2630 ..lin.D.3A.5CRenesas_Electronics.5CD1x_RGL.5Crgl_ghs_D1Lx_obj_V1.2E2.2E0.5Cvlib.5Capp.5Cgfx_apps.5Csimple_draw_d1l2.5Ctarget.5Cd1lx_mango_ghs.5Cobj.5Ccom.200::
                        2631 .LDWlin200:
00000cb4 2606641b3f00   2632 	mov	4135780,r6
                        2633 	jarl	_v_rd_8,lp
                        2633 <EXPANSION BEGIN>
                        2633 jarl22 _v_rd_8 , lp 
00000cba 80ff0000*      2633 <EXPANSION END>
00000cbe 5d570000       2634 	st.b	r10,0[r29]
                        2635 --line725
                        2636 ..lin.D.3A.5CRenesas_Electronics.5CD1x_RGL.5Crgl_ghs_D1Lx_obj_V1.2E2.2E0.5Cvlib.5Capp.5Cgfx_apps.5Csimple_draw_d1l2.5Ctarget.5Cd1lx_mango_ghs.5Cobj.5Ccom.201::
                        2637 .LDWlin201:
00000cc2 8007ae04*      2638 	br	.L1142
                        2639 .L1073:
                        2640 --725: 		break;
                        2641 --726: 		case  INDEX_COM_RS_SYSPWRMDV:/*SysPwrMdV_handle*/
                        2642 --727: 			*pRes = v_rd_8(SysPwrMdV_handle);
                        2643 --line727
                        2644 ..lin.D.3A.5CRenesas_Electronics.5CD1x_RGL.5Crgl_ghs_D1Lx_obj_V1.2E2.2E0.5Cvlib.5Capp.5Cgfx_apps.5Csimple_draw_d1l2.5Ctarget.5Cd1lx_mango_ghs.5Cobj.5Ccom.202::
                        2645 .LDWlin202:
00000cc6 2606881b3f00   2646 	mov	4135816,r6
                        2647 	jarl	_v_rd_8,lp
                        2647 <EXPANSION BEGIN>
                        2647 jarl22 _v_rd_8 , lp 
00000ccc 80ff0000*      2647 <EXPANSION END>
00000cd0 5d570000       2648 	st.b	r10,0[r29]
                        2649 --line728
                        2650 ..lin.D.3A.5CRenesas_Electronics.5CD1x_RGL.5Crgl_ghs_D1Lx_obj_V1.2E2.2E0.5Cvlib.5Capp.5Cgfx_apps.5Csimple_draw_d1l2.5Ctarget.5Cd1lx_mango_ghs.5Cobj.5Ccom.203::
                        2651 .LDWlin203:
00000cd4 80079c04*      2652 	br	.L1142
                        2653 .L1074:
                        2654 --728: 		break;
                        2655 --729: 		case  INDEX_COM_RS_SYSVOL:/*SysVol*/
                        2656 --730: 			*pRes = v_rd_8(SysVol_handle);
                        2657 --line730
                        2658 ..lin.D.3A.5CRenesas_Electronics.5CD1x_RGL.5Crgl_ghs_D1Lx_obj_V1.2E2.2E0.5Cvlib.5Capp.5Cgfx_apps.5Csimple_draw_d1l2.5Ctarget.5Cd1lx_mango_ghs.5Cobj.5Ccom.204::
                        2659 .LDWlin204:
00000cd8 2606ac1b3f00   2660 	mov	4135852,r6
                        2661 	jarl	_v_rd_8,lp
                        2661 <EXPANSION BEGIN>
                        2661 jarl22 _v_rd_8 , lp 

                                                                      Page 50
                                                              C:\Users\YINGAO~1\AppData\Local\Temp\gh_000086k1.si
00000cde 80ff0000*      2661 <EXPANSION END>
00000ce2 5d570000       2662 	st.b	r10,0[r29]
                        2663 --line731
                        2664 ..lin.D.3A.5CRenesas_Electronics.5CD1x_RGL.5Crgl_ghs_D1Lx_obj_V1.2E2.2E0.5Cvlib.5Capp.5Cgfx_apps.5Csimple_draw_d1l2.5Ctarget.5Cd1lx_mango_ghs.5Cobj.5Ccom.205::
                        2665 .LDWlin205:
00000ce6 80078a04*      2666 	br	.L1142
                        2667 .L1075:
                        2668 --731: 		break;
                        2669 --732: 		case  INDEX_COM_RS_SYSVOLMD:/*SysVolMd*/
                        2670 --733: 			*pRes = v_rd_8(SysVolMd_handle);
                        2671 --line733
                        2672 ..lin.D.3A.5CRenesas_Electronics.5CD1x_RGL.5Crgl_ghs_D1Lx_obj_V1.2E2.2E0.5Cvlib.5Capp.5Cgfx_apps.5Csimple_draw_d1l2.5Ctarget.5Cd1lx_mango_ghs.5Cobj.5Ccom.206::
                        2673 .LDWlin206:
00000cea 2606d01b3f00   2674 	mov	4135888,r6
                        2675 	jarl	_v_rd_8,lp
                        2675 <EXPANSION BEGIN>
                        2675 jarl22 _v_rd_8 , lp 
00000cf0 80ff0000*      2675 <EXPANSION END>
00000cf4 5d570000       2676 	st.b	r10,0[r29]
                        2677 --line734
                        2678 ..lin.D.3A.5CRenesas_Electronics.5CD1x_RGL.5Crgl_ghs_D1Lx_obj_V1.2E2.2E0.5Cvlib.5Capp.5Cgfx_apps.5Csimple_draw_d1l2.5Ctarget.5Cd1lx_mango_ghs.5Cobj.5Ccom.207::
                        2679 .LDWlin207:
00000cf8 80077804*      2680 	br	.L1142
                        2681 .L1076:
                        2682 --734: 		break;
                        2683 --735: 		case  INDEX_COM_RS_SYSVOLMDV:/*SysVolMdV*/
                        2684 --736: 			*pRes = v_rd_8(SysVolMdV_handle);
                        2685 --line736
                        2686 ..lin.D.3A.5CRenesas_Electronics.5CD1x_RGL.5Crgl_ghs_D1Lx_obj_V1.2E2.2E0.5Cvlib.5Capp.5Cgfx_apps.5Csimple_draw_d1l2.5Ctarget.5Cd1lx_mango_ghs.5Cobj.5Ccom.208::
                        2687 .LDWlin208:
00000cfc 2606f41b3f00   2688 	mov	4135924,r6
                        2689 	jarl	_v_rd_8,lp
                        2689 <EXPANSION BEGIN>
                        2689 jarl22 _v_rd_8 , lp 
00000d02 80ff0000*      2689 <EXPANSION END>
00000d06 5d570000       2690 	st.b	r10,0[r29]
                        2691 --line737
                        2692 ..lin.D.3A.5CRenesas_Electronics.5CD1x_RGL.5Crgl_ghs_D1Lx_obj_V1.2E2.2E0.5Cvlib.5Capp.5Cgfx_apps.5Csimple_draw_d1l2.5Ctarget.5Cd1lx_mango_ghs.5Cobj.5Ccom.209::
                        2693 .LDWlin209:
00000d0a 80076604*      2694 	br	.L1142
                        2695 .L1077:
                        2696 --737: 		break;
                        2697 --738: 		case  INDEX_COM_RS_SYSVOLV:/*SysVolV*/
                        2698 --739: 			*pRes = v_rd_8(SysVolV_handle);
                        2699 --line739
                        2700 ..lin.D.3A.5CRenesas_Electronics.5CD1x_RGL.5Crgl_ghs_D1Lx_obj_V1.2E2.2E0.5Cvlib.5Capp.5Cgfx_apps.5Csimple_draw_d1l2.5Ctarget.5Cd1lx_mango_ghs.5Cobj.5Ccom.210::
                        2701 .LDWlin210:
00000d0e 2606181c3f00   2702 	mov	4135960,r6
                        2703 	jarl	_v_rd_8,lp
                        2703 <EXPANSION BEGIN>
                        2703 jarl22 _v_rd_8 , lp 
00000d14 80ff0000*      2703 <EXPANSION END>
00000d18 5d570000       2704 	st.b	r10,0[r29]
                        2705 --line740
                        2706 ..lin.D.3A.5CRenesas_Electronics.5CD1x_RGL.5Crgl_ghs_D1Lx_obj_V1.2E2.2E0.5Cvlib.5Capp.5Cgfx_apps.5Csimple_draw_d1l2.5Ctarget.5Cd1lx_mango_ghs.5Cobj.5Ccom.211::
                        2707 .LDWlin211:
00000d1c 80075404*      2708 	br	.L1142
                        2709 .L1078:
                        2710 --740: 		break;
                        2711 --741: 		
                        2712 --742: 		case  INDEX_COM_RS_ESCLFLRINDCMD:/*ESCLFlrIndCmd*/

                                                                      Page 51
                                                              C:\Users\YINGAO~1\AppData\Local\Temp\gh_000086k1.si
                        2713 --743: 			*pRes = v_rd_8(ESCLFlrIndCmd_handle);
                        2714 --line743
                        2715 ..lin.D.3A.5CRenesas_Electronics.5CD1x_RGL.5Crgl_ghs_D1Lx_obj_V1.2E2.2E0.5Cvlib.5Capp.5Cgfx_apps.5Csimple_draw_d1l2.5Ctarget.5Cd1lx_mango_ghs.5Cobj.5Ccom.212::
                        2716 .LDWlin212:
00000d20 2606ec0b3f00   2717 	mov	4131820,r6
                        2718 	jarl	_v_rd_8,lp
                        2718 <EXPANSION BEGIN>
                        2718 jarl22 _v_rd_8 , lp 
00000d26 80ff0000*      2718 <EXPANSION END>
00000d2a 5d570000       2719 	st.b	r10,0[r29]
                        2720 --line744
                        2721 ..lin.D.3A.5CRenesas_Electronics.5CD1x_RGL.5Crgl_ghs_D1Lx_obj_V1.2E2.2E0.5Cvlib.5Capp.5Cgfx_apps.5Csimple_draw_d1l2.5Ctarget.5Cd1lx_mango_ghs.5Cobj.5Ccom.213::
                        2722 .LDWlin213:
00000d2e 80074204*      2723 	br	.L1142
                        2724 .L1079:
                        2725 --744: 		break;
                        2726 --745: 		case  INDEX_COM_RS_FLTIREPRSV:/*FLTirePrsV*/
                        2727 --746: 			*pRes = v_rd_8(FLTirePrsV_handle);
                        2728 --line746
                        2729 ..lin.D.3A.5CRenesas_Electronics.5CD1x_RGL.5Crgl_ghs_D1Lx_obj_V1.2E2.2E0.5Cvlib.5Capp.5Cgfx_apps.5Csimple_draw_d1l2.5Ctarget.5Cd1lx_mango_ghs.5Cobj.5Ccom.214::
                        2730 .LDWlin214:
00000d32 2606040f3f00   2731 	mov	4132612,r6
                        2732 	jarl	_v_rd_8,lp
                        2732 <EXPANSION BEGIN>
                        2732 jarl22 _v_rd_8 , lp 
00000d38 80ff0000*      2732 <EXPANSION END>
00000d3c 5d570000       2733 	st.b	r10,0[r29]
                        2734 --line747
                        2735 ..lin.D.3A.5CRenesas_Electronics.5CD1x_RGL.5Crgl_ghs_D1Lx_obj_V1.2E2.2E0.5Cvlib.5Capp.5Cgfx_apps.5Csimple_draw_d1l2.5Ctarget.5Cd1lx_mango_ghs.5Cobj.5Ccom.215::
                        2736 .LDWlin215:
00000d40 80073004*      2737 	br	.L1142
                        2738 .L1080:
                        2739 --747: 		break;
                        2740 --748: 		case  INDEX_COM_RS_FLTIRESTS:/*FLTireSts*/
                        2741 --749: 			*pRes = v_rd_8(FLTireSts_handle);
                        2742 --line749
                        2743 ..lin.D.3A.5CRenesas_Electronics.5CD1x_RGL.5Crgl_ghs_D1Lx_obj_V1.2E2.2E0.5Cvlib.5Capp.5Cgfx_apps.5Csimple_draw_d1l2.5Ctarget.5Cd1lx_mango_ghs.5Cobj.5Ccom.216::
                        2744 .LDWlin216:
00000d44 2606280f3f00   2745 	mov	4132648,r6
                        2746 	jarl	_v_rd_8,lp
                        2746 <EXPANSION BEGIN>
                        2746 jarl22 _v_rd_8 , lp 
00000d4a 80ff0000*      2746 <EXPANSION END>
00000d4e 5d570000       2747 	st.b	r10,0[r29]
                        2748 --line750
                        2749 ..lin.D.3A.5CRenesas_Electronics.5CD1x_RGL.5Crgl_ghs_D1Lx_obj_V1.2E2.2E0.5Cvlib.5Capp.5Cgfx_apps.5Csimple_draw_d1l2.5Ctarget.5Cd1lx_mango_ghs.5Cobj.5Ccom.217::
                        2750 .LDWlin217:
00000d52 80071e04*      2751 	br	.L1142
                        2752 .L1081:
                        2753 --750: 		break;	
                        2754 --751: 		case  INDEX_COM_RS_FLTIRETEMV:/*FLTireTemV*/
                        2755 --752: 			*pRes = v_rd_8(FLTireTemV_handle);
                        2756 --line752
                        2757 ..lin.D.3A.5CRenesas_Electronics.5CD1x_RGL.5Crgl_ghs_D1Lx_obj_V1.2E2.2E0.5Cvlib.5Capp.5Cgfx_apps.5Csimple_draw_d1l2.5Ctarget.5Cd1lx_mango_ghs.5Cobj.5Ccom.218::
                        2758 .LDWlin218:
00000d56 2606700f3f00   2759 	mov	4132720,r6
                        2760 	jarl	_v_rd_8,lp
                        2760 <EXPANSION BEGIN>
                        2760 jarl22 _v_rd_8 , lp 
00000d5c 80ff0000*      2760 <EXPANSION END>
00000d60 5d570000       2761 	st.b	r10,0[r29]

                                                                      Page 52
                                                              C:\Users\YINGAO~1\AppData\Local\Temp\gh_000086k1.si
                        2762 --line753
                        2763 ..lin.D.3A.5CRenesas_Electronics.5CD1x_RGL.5Crgl_ghs_D1Lx_obj_V1.2E2.2E0.5Cvlib.5Capp.5Cgfx_apps.5Csimple_draw_d1l2.5Ctarget.5Cd1lx_mango_ghs.5Cobj.5Ccom.219::
                        2764 .LDWlin219:
00000d64 80070c04*      2765 	br	.L1142
                        2766 .L1082:
                        2767 --753: 		break;	
                        2768 --754: 		
                        2769 --755: 		case  INDEX_COM_RS_FRTIREPRSV:/*FRTirePrsV*/
                        2770 --756: 			*pRes = v_rd_8(FRTirePrsV_handle);
                        2771 --line756
                        2772 ..lin.D.3A.5CRenesas_Electronics.5CD1x_RGL.5Crgl_ghs_D1Lx_obj_V1.2E2.2E0.5Cvlib.5Capp.5Cgfx_apps.5Csimple_draw_d1l2.5Ctarget.5Cd1lx_mango_ghs.5Cobj.5Ccom.220::
                        2773 .LDWlin220:
00000d68 2606dc0f3f00   2774 	mov	4132828,r6
                        2775 	jarl	_v_rd_8,lp
                        2775 <EXPANSION BEGIN>
                        2775 jarl22 _v_rd_8 , lp 
00000d6e 80ff0000*      2775 <EXPANSION END>
00000d72 5d570000       2776 	st.b	r10,0[r29]
                        2777 --line757
                        2778 ..lin.D.3A.5CRenesas_Electronics.5CD1x_RGL.5Crgl_ghs_D1Lx_obj_V1.2E2.2E0.5Cvlib.5Capp.5Cgfx_apps.5Csimple_draw_d1l2.5Ctarget.5Cd1lx_mango_ghs.5Cobj.5Ccom.221::
                        2779 .LDWlin221:
00000d76 8007fa03*      2780 	br	.L1142
                        2781 .L1083:
                        2782 --757: 		break;
                        2783 --758: 		case  INDEX_COM_RS_FRTIRESTS:/*FRTireSts*/
                        2784 --759: 			*pRes = v_rd_8(FRTireSts_handle);
                        2785 --line759
                        2786 ..lin.D.3A.5CRenesas_Electronics.5CD1x_RGL.5Crgl_ghs_D1Lx_obj_V1.2E2.2E0.5Cvlib.5Capp.5Cgfx_apps.5Csimple_draw_d1l2.5Ctarget.5Cd1lx_mango_ghs.5Cobj.5Ccom.222::
                        2787 .LDWlin222:
00000d7a 260600103f00   2788 	mov	4132864,r6
                        2789 	jarl	_v_rd_8,lp
                        2789 <EXPANSION BEGIN>
                        2789 jarl22 _v_rd_8 , lp 
00000d80 80ff0000*      2789 <EXPANSION END>
00000d84 5d570000       2790 	st.b	r10,0[r29]
                        2791 --line760
                        2792 ..lin.D.3A.5CRenesas_Electronics.5CD1x_RGL.5Crgl_ghs_D1Lx_obj_V1.2E2.2E0.5Cvlib.5Capp.5Cgfx_apps.5Csimple_draw_d1l2.5Ctarget.5Cd1lx_mango_ghs.5Cobj.5Ccom.223::
                        2793 .LDWlin223:
00000d88 8007e803*      2794 	br	.L1142
                        2795 .L1084:
                        2796 --760: 		break;
                        2797 --761: 		case  INDEX_COM_RS_FRTIRETEMV:/*FRTireTemV*/
                        2798 --762: 			*pRes = v_rd_8(FRTireTemV_handle);
                        2799 --line762
                        2800 ..lin.D.3A.5CRenesas_Electronics.5CD1x_RGL.5Crgl_ghs_D1Lx_obj_V1.2E2.2E0.5Cvlib.5Capp.5Cgfx_apps.5Csimple_draw_d1l2.5Ctarget.5Cd1lx_mango_ghs.5Cobj.5Ccom.224::
                        2801 .LDWlin224:
00000d8c 260648103f00   2802 	mov	4132936,r6
                        2803 	jarl	_v_rd_8,lp
                        2803 <EXPANSION BEGIN>
                        2803 jarl22 _v_rd_8 , lp 
00000d92 80ff0000*      2803 <EXPANSION END>
00000d96 5d570000       2804 	st.b	r10,0[r29]
                        2805 --line763
                        2806 ..lin.D.3A.5CRenesas_Electronics.5CD1x_RGL.5Crgl_ghs_D1Lx_obj_V1.2E2.2E0.5Cvlib.5Capp.5Cgfx_apps.5Csimple_draw_d1l2.5Ctarget.5Cd1lx_mango_ghs.5Cobj.5Ccom.225::
                        2807 .LDWlin225:
00000d9a 8007d603*      2808 	br	.L1142
                        2809 .L1085:
                        2810 --763: 		break;
                        2811 --764: 		
                        2812 --765: 		case  INDEX_COM_RS_RLTIREPRSV:/*RLTirePrsV*/
                        2813 --766: 			*pRes = v_rd_8(RLTirePrsV_handle);

                                                                      Page 53
                                                              C:\Users\YINGAO~1\AppData\Local\Temp\gh_000086k1.si
                        2814 --line766
                        2815 ..lin.D.3A.5CRenesas_Electronics.5CD1x_RGL.5Crgl_ghs_D1Lx_obj_V1.2E2.2E0.5Cvlib.5Capp.5Cgfx_apps.5Csimple_draw_d1l2.5Ctarget.5Cd1lx_mango_ghs.5Cobj.5Ccom.226::
                        2816 .LDWlin226:
00000d9e 2606e4163f00   2817 	mov	4134628,r6
                        2818 	jarl	_v_rd_8,lp
                        2818 <EXPANSION BEGIN>
                        2818 jarl22 _v_rd_8 , lp 
00000da4 80ff0000*      2818 <EXPANSION END>
00000da8 5d570000       2819 	st.b	r10,0[r29]
                        2820 --line767
                        2821 ..lin.D.3A.5CRenesas_Electronics.5CD1x_RGL.5Crgl_ghs_D1Lx_obj_V1.2E2.2E0.5Cvlib.5Capp.5Cgfx_apps.5Csimple_draw_d1l2.5Ctarget.5Cd1lx_mango_ghs.5Cobj.5Ccom.227::
                        2822 .LDWlin227:
00000dac 8007c403*      2823 	br	.L1142
                        2824 .L1086:
                        2825 --767: 		break;
                        2826 --768: 		case  INDEX_COM_RS_RLTIRESTS:/*RLTireSts*/
                        2827 --769: 			*pRes = v_rd_8(RLTireSts_handle);
                        2828 --line769
                        2829 ..lin.D.3A.5CRenesas_Electronics.5CD1x_RGL.5Crgl_ghs_D1Lx_obj_V1.2E2.2E0.5Cvlib.5Capp.5Cgfx_apps.5Csimple_draw_d1l2.5Ctarget.5Cd1lx_mango_ghs.5Cobj.5Ccom.228::
                        2830 .LDWlin228:
00000db0 260608173f00   2831 	mov	4134664,r6
                        2832 	jarl	_v_rd_8,lp
                        2832 <EXPANSION BEGIN>
                        2832 jarl22 _v_rd_8 , lp 
00000db6 80ff0000*      2832 <EXPANSION END>
00000dba 5d570000       2833 	st.b	r10,0[r29]
                        2834 --line770
                        2835 ..lin.D.3A.5CRenesas_Electronics.5CD1x_RGL.5Crgl_ghs_D1Lx_obj_V1.2E2.2E0.5Cvlib.5Capp.5Cgfx_apps.5Csimple_draw_d1l2.5Ctarget.5Cd1lx_mango_ghs.5Cobj.5Ccom.229::
                        2836 .LDWlin229:
00000dbe 8007b203*      2837 	br	.L1142
                        2838 .L1087:
                        2839 --770: 		break;
                        2840 --771: 		case  INDEX_COM_RS_RLTIRETEMV:/*RLTireTemV*/
                        2841 --772: 			*pRes = v_rd_8(RLTireTemV_handle);
                        2842 --line772
                        2843 ..lin.D.3A.5CRenesas_Electronics.5CD1x_RGL.5Crgl_ghs_D1Lx_obj_V1.2E2.2E0.5Cvlib.5Capp.5Cgfx_apps.5Csimple_draw_d1l2.5Ctarget.5Cd1lx_mango_ghs.5Cobj.5Ccom.230::
                        2844 .LDWlin230:
00000dc2 260650173f00   2845 	mov	4134736,r6
                        2846 	jarl	_v_rd_8,lp
                        2846 <EXPANSION BEGIN>
                        2846 jarl22 _v_rd_8 , lp 
00000dc8 80ff0000*      2846 <EXPANSION END>
00000dcc 5d570000       2847 	st.b	r10,0[r29]
                        2848 --line773
                        2849 ..lin.D.3A.5CRenesas_Electronics.5CD1x_RGL.5Crgl_ghs_D1Lx_obj_V1.2E2.2E0.5Cvlib.5Capp.5Cgfx_apps.5Csimple_draw_d1l2.5Ctarget.5Cd1lx_mango_ghs.5Cobj.5Ccom.231::
                        2850 .LDWlin231:
00000dd0 8007a003*      2851 	br	.L1142
                        2852 .L1088:
                        2853 --773: 		break;
                        2854 --774: 		case  INDEX_COM_RS_RRDOOROPENSTS:/*RRDoorOpenSts*/
                        2855 --775: 			*pRes = v_rd_8(RRDoorOpenSts_handle);
                        2856 --line775
                        2857 ..lin.D.3A.5CRenesas_Electronics.5CD1x_RGL.5Crgl_ghs_D1Lx_obj_V1.2E2.2E0.5Cvlib.5Capp.5Cgfx_apps.5Csimple_draw_d1l2.5Ctarget.5Cd1lx_mango_ghs.5Cobj.5Ccom.232::
                        2858 .LDWlin232:
00000dd4 260674173f00   2859 	mov	4134772,r6
                        2860 	jarl	_v_rd_8,lp
                        2860 <EXPANSION BEGIN>
                        2860 jarl22 _v_rd_8 , lp 
00000dda 80ff0000*      2860 <EXPANSION END>
00000dde 5d570000       2861 	st.b	r10,0[r29]
                        2862 --line776

                                                                      Page 54
                                                              C:\Users\YINGAO~1\AppData\Local\Temp\gh_000086k1.si
                        2863 ..lin.D.3A.5CRenesas_Electronics.5CD1x_RGL.5Crgl_ghs_D1Lx_obj_V1.2E2.2E0.5Cvlib.5Capp.5Cgfx_apps.5Csimple_draw_d1l2.5Ctarget.5Cd1lx_mango_ghs.5Cobj.5Ccom.233::
                        2864 .LDWlin233:
00000de2 80078e03*      2865 	br	.L1142
                        2866 .L1089:
                        2867 --776: 		break;
                        2868 --777: 		
                        2869 --778: 		case  INDEX_COM_RS_RRTIREPRSV:/*RRTirePrsV*/
                        2870 --779: 			*pRes = v_rd_8(RRTirePrsV_handle);
                        2871 --line779
                        2872 ..lin.D.3A.5CRenesas_Electronics.5CD1x_RGL.5Crgl_ghs_D1Lx_obj_V1.2E2.2E0.5Cvlib.5Capp.5Cgfx_apps.5Csimple_draw_d1l2.5Ctarget.5Cd1lx_mango_ghs.5Cobj.5Ccom.234::
                        2873 .LDWlin234:
00000de6 260628183f00   2874 	mov	4134952,r6
                        2875 	jarl	_v_rd_8,lp
                        2875 <EXPANSION BEGIN>
                        2875 jarl22 _v_rd_8 , lp 
00000dec 80ff0000*      2875 <EXPANSION END>
00000df0 5d570000       2876 	st.b	r10,0[r29]
                        2877 --line780
                        2878 ..lin.D.3A.5CRenesas_Electronics.5CD1x_RGL.5Crgl_ghs_D1Lx_obj_V1.2E2.2E0.5Cvlib.5Capp.5Cgfx_apps.5Csimple_draw_d1l2.5Ctarget.5Cd1lx_mango_ghs.5Cobj.5Ccom.235::
                        2879 .LDWlin235:
00000df4 80077c03*      2880 	br	.L1142
                        2881 .L1090:
                        2882 --780: 		break;
                        2883 --781: 		case  INDEX_COM_RS_RRTIRESTS:/*RRTireSts*/
                        2884 --782: 			*pRes = v_rd_8(RRTireSts_handle);
                        2885 --line782
                        2886 ..lin.D.3A.5CRenesas_Electronics.5CD1x_RGL.5Crgl_ghs_D1Lx_obj_V1.2E2.2E0.5Cvlib.5Capp.5Cgfx_apps.5Csimple_draw_d1l2.5Ctarget.5Cd1lx_mango_ghs.5Cobj.5Ccom.236::
                        2887 .LDWlin236:
00000df8 26064c183f00   2888 	mov	4134988,r6
                        2889 	jarl	_v_rd_8,lp
                        2889 <EXPANSION BEGIN>
                        2889 jarl22 _v_rd_8 , lp 
00000dfe 80ff0000*      2889 <EXPANSION END>
00000e02 5d570000       2890 	st.b	r10,0[r29]
                        2891 --line783
                        2892 ..lin.D.3A.5CRenesas_Electronics.5CD1x_RGL.5Crgl_ghs_D1Lx_obj_V1.2E2.2E0.5Cvlib.5Capp.5Cgfx_apps.5Csimple_draw_d1l2.5Ctarget.5Cd1lx_mango_ghs.5Cobj.5Ccom.237::
                        2893 .LDWlin237:
00000e06 80076a03*      2894 	br	.L1142
                        2895 .L1091:
                        2896 --783: 		break;
                        2897 --784: 		case  INDEX_COM_RS_RRTIRETEMV:/*RRTireTemV*/
                        2898 --785: 			*pRes = v_rd_8(RRTireTemV_handle);
                        2899 --line785
                        2900 ..lin.D.3A.5CRenesas_Electronics.5CD1x_RGL.5Crgl_ghs_D1Lx_obj_V1.2E2.2E0.5Cvlib.5Capp.5Cgfx_apps.5Csimple_draw_d1l2.5Ctarget.5Cd1lx_mango_ghs.5Cobj.5Ccom.238::
                        2901 .LDWlin238:
00000e0a 260694183f00   2902 	mov	4135060,r6
                        2903 	jarl	_v_rd_8,lp
                        2903 <EXPANSION BEGIN>
                        2903 jarl22 _v_rd_8 , lp 
00000e10 80ff0000*      2903 <EXPANSION END>
00000e14 5d570000       2904 	st.b	r10,0[r29]
                        2905 --line786
                        2906 ..lin.D.3A.5CRenesas_Electronics.5CD1x_RGL.5Crgl_ghs_D1Lx_obj_V1.2E2.2E0.5Cvlib.5Capp.5Cgfx_apps.5Csimple_draw_d1l2.5Ctarget.5Cd1lx_mango_ghs.5Cobj.5Ccom.239::
                        2907 .LDWlin239:
00000e18 80075803*      2908 	br	.L1142
                        2909 .L1092:
                        2910 --786: 		break;
                        2911 --787: 		case  INDEX_COM_RS_SCURTALRMSTS:/*ScurtAlrmSts*/
                        2912 --788: 			*pRes = v_rd_8(ScurtAlrmSts_handle);
                        2913 --line788
                        2914 ..lin.D.3A.5CRenesas_Electronics.5CD1x_RGL.5Crgl_ghs_D1Lx_obj_V1.2E2.2E0.5Cvlib.5Capp.5Cgfx_apps.5Csimple_draw_d1l2.5Ctarget.5Cd1lx_mango_ghs.5Cobj.5Ccom.240::

                                                                      Page 55
                                                              C:\Users\YINGAO~1\AppData\Local\Temp\gh_000086k1.si
                        2915 .LDWlin240:
00000e1c 2606b8183f00   2916 	mov	4135096,r6
                        2917 	jarl	_v_rd_8,lp
                        2917 <EXPANSION BEGIN>
                        2917 jarl22 _v_rd_8 , lp 
00000e22 80ff0000*      2917 <EXPANSION END>
00000e26 5d570000       2918 	st.b	r10,0[r29]
                        2919 --line789
                        2920 ..lin.D.3A.5CRenesas_Electronics.5CD1x_RGL.5Crgl_ghs_D1Lx_obj_V1.2E2.2E0.5Cvlib.5Capp.5Cgfx_apps.5Csimple_draw_d1l2.5Ctarget.5Cd1lx_mango_ghs.5Cobj.5Ccom.241::
                        2921 .LDWlin241:
00000e2a 80074603*      2922 	br	.L1142
                        2923 .L1093:
                        2924 --789: 		break;
                        2925 --790: 		
                        2926 --791: 		case  INDEX_COM_RS_VSESTS:/*VSESts*/
                        2927 --792: 			*pRes = v_rd_8(VSESts_handle);
                        2928 --line792
                        2929 ..lin.D.3A.5CRenesas_Electronics.5CD1x_RGL.5Crgl_ghs_D1Lx_obj_V1.2E2.2E0.5Cvlib.5Capp.5Cgfx_apps.5Csimple_draw_d1l2.5Ctarget.5Cd1lx_mango_ghs.5Cobj.5Ccom.242::
                        2930 .LDWlin242:
00000e2e 26069c1f3f00   2931 	mov	4136860,r6
                        2932 	jarl	_v_rd_8,lp
                        2932 <EXPANSION BEGIN>
                        2932 jarl22 _v_rd_8 , lp 
00000e34 80ff0000*      2932 <EXPANSION END>
00000e38 5d570000       2933 	st.b	r10,0[r29]
                        2934 --line793
                        2935 ..lin.D.3A.5CRenesas_Electronics.5CD1x_RGL.5Crgl_ghs_D1Lx_obj_V1.2E2.2E0.5Cvlib.5Capp.5Cgfx_apps.5Csimple_draw_d1l2.5Ctarget.5Cd1lx_mango_ghs.5Cobj.5Ccom.243::
                        2936 .LDWlin243:
00000e3c 80073403*      2937 	br	.L1142
                        2938 .L1094:
                        2939 --793: 		break;
                        2940 --794: 		case  INDEX_COM_RS_TCSOPNGSTS:/*TCSOpngSts*/
                        2941 --795: 			*pRes = v_rd_8(TCSOpngSts_handle);
                        2942 --line795
                        2943 ..lin.D.3A.5CRenesas_Electronics.5CD1x_RGL.5Crgl_ghs_D1Lx_obj_V1.2E2.2E0.5Cvlib.5Capp.5Cgfx_apps.5Csimple_draw_d1l2.5Ctarget.5Cd1lx_mango_ghs.5Cobj.5Ccom.244::
                        2944 .LDWlin244:
00000e40 2606841c3f00   2945 	mov	4136068,r6
                        2946 	jarl	_v_rd_8,lp
                        2946 <EXPANSION BEGIN>
                        2946 jarl22 _v_rd_8 , lp 
00000e46 80ff0000*      2946 <EXPANSION END>
00000e4a 5d570000       2947 	st.b	r10,0[r29]
                        2948 --line796
                        2949 ..lin.D.3A.5CRenesas_Electronics.5CD1x_RGL.5Crgl_ghs_D1Lx_obj_V1.2E2.2E0.5Cvlib.5Capp.5Cgfx_apps.5Csimple_draw_d1l2.5Ctarget.5Cd1lx_mango_ghs.5Cobj.5Ccom.245::
                        2950 .LDWlin245:
00000e4e 80072203*      2951 	br	.L1142
                        2952 .L1095:
                        2953 --796: 		break;
                        2954 --797: 		case  INDEX_COM_RS_VSEMD:/*VSEMd*/
                        2955 --798: 			*pRes = v_rd_8(VSEMd_handle);
                        2956 --line798
                        2957 ..lin.D.3A.5CRenesas_Electronics.5CD1x_RGL.5Crgl_ghs_D1Lx_obj_V1.2E2.2E0.5Cvlib.5Capp.5Cgfx_apps.5Csimple_draw_d1l2.5Ctarget.5Cd1lx_mango_ghs.5Cobj.5Ccom.246::
                        2958 .LDWlin246:
00000e52 2606781f3f00   2959 	mov	4136824,r6
                        2960 	jarl	_v_rd_8,lp
                        2960 <EXPANSION BEGIN>
                        2960 jarl22 _v_rd_8 , lp 
00000e58 80ff0000*      2960 <EXPANSION END>
00000e5c 5d570000       2961 	st.b	r10,0[r29]
                        2962 --line799
                        2963 ..lin.D.3A.5CRenesas_Electronics.5CD1x_RGL.5Crgl_ghs_D1Lx_obj_V1.2E2.2E0.5Cvlib.5Capp.5Cgfx_apps.5Csimple_draw_d1l2.5Ctarget.5Cd1lx_mango_ghs.5Cobj.5Ccom.247::

                                                                      Page 56
                                                              C:\Users\YINGAO~1\AppData\Local\Temp\gh_000086k1.si
                        2964 .LDWlin247:
00000e60 80071003*      2965 	br	.L1142
                        2966 .L1096:
                        2967 --799: 		break;
                        2968 --800: 		case  INDEX_COM_RS_TCSOPNGMD:/*TCSOpngMd*/
                        2969 --801: 			*pRes = v_rd_8(TCSOpngMd_handle);
                        2970 --line801
                        2971 ..lin.D.3A.5CRenesas_Electronics.5CD1x_RGL.5Crgl_ghs_D1Lx_obj_V1.2E2.2E0.5Cvlib.5Capp.5Cgfx_apps.5Csimple_draw_d1l2.5Ctarget.5Cd1lx_mango_ghs.5Cobj.5Ccom.248::
                        2972 .LDWlin248:
00000e64 2606601c3f00   2973 	mov	4136032,r6
                        2974 	jarl	_v_rd_8,lp
                        2974 <EXPANSION BEGIN>
                        2974 jarl22 _v_rd_8 , lp 
00000e6a 80ff0000*      2974 <EXPANSION END>
00000e6e 5d570000       2975 	st.b	r10,0[r29]
                        2976 --line802
                        2977 ..lin.D.3A.5CRenesas_Electronics.5CD1x_RGL.5Crgl_ghs_D1Lx_obj_V1.2E2.2E0.5Cvlib.5Capp.5Cgfx_apps.5Csimple_draw_d1l2.5Ctarget.5Cd1lx_mango_ghs.5Cobj.5Ccom.249::
                        2978 .LDWlin249:
00000e72 8007fe02*      2979 	br	.L1142
                        2980 .L1097:
                        2981 --802: 		break;
                        2982 --803: 		case  INDEX_COM_RS_BRKFLUDLVLLOWV:/*BrkFludLvlLowV*/
                        2983 --804: 			*pRes = v_rd_8(BrkFludLvlLowV_handle);
                        2984 --line804
                        2985 ..lin.D.3A.5CRenesas_Electronics.5CD1x_RGL.5Crgl_ghs_D1Lx_obj_V1.2E2.2E0.5Cvlib.5Capp.5Cgfx_apps.5Csimple_draw_d1l2.5Ctarget.5Cd1lx_mango_ghs.5Cobj.5Ccom.250::
                        2986 .LDWlin250:
00000e76 260678043f00   2987 	mov	4129912,r6
                        2988 	jarl	_v_rd_8,lp
                        2988 <EXPANSION BEGIN>
                        2988 jarl22 _v_rd_8 , lp 
00000e7c 80ff0000*      2988 <EXPANSION END>
00000e80 5d570000       2989 	st.b	r10,0[r29]
                        2990 --line805
                        2991 ..lin.D.3A.5CRenesas_Electronics.5CD1x_RGL.5Crgl_ghs_D1Lx_obj_V1.2E2.2E0.5Cvlib.5Capp.5Cgfx_apps.5Csimple_draw_d1l2.5Ctarget.5Cd1lx_mango_ghs.5Cobj.5Ccom.251::
                        2992 .LDWlin251:
00000e84 8007ec02*      2993 	br	.L1142
                        2994 .L1098:
                        2995 --805: 		break;		
                        2996 --806: 		case  INDEX_COM_RS_FASNDRVRSBLTINDCMD:/*FasnDrvrSbltIndCmd*/
                        2997 --807: 			*pRes = v_rd_8(FasnDrvrSbltIndCmd_handle);
                        2998 --line807
                        2999 ..lin.D.3A.5CRenesas_Electronics.5CD1x_RGL.5Crgl_ghs_D1Lx_obj_V1.2E2.2E0.5Cvlib.5Capp.5Cgfx_apps.5Csimple_draw_d1l2.5Ctarget.5Cd1lx_mango_ghs.5Cobj.5Ccom.252::
                        3000 .LDWlin252:
00000e88 2606100c3f00   3001 	mov	4131856,r6
                        3002 	jarl	_v_rd_8,lp
                        3002 <EXPANSION BEGIN>
                        3002 jarl22 _v_rd_8 , lp 
00000e8e 80ff0000*      3002 <EXPANSION END>
00000e92 5d570000       3003 	st.b	r10,0[r29]
                        3004 --line808
                        3005 ..lin.D.3A.5CRenesas_Electronics.5CD1x_RGL.5Crgl_ghs_D1Lx_obj_V1.2E2.2E0.5Cvlib.5Capp.5Cgfx_apps.5Csimple_draw_d1l2.5Ctarget.5Cd1lx_mango_ghs.5Cobj.5Ccom.253::
                        3006 .LDWlin253:
00000e96 8007da02*      3007 	br	.L1142
                        3008 .L1099:
                        3009 --808: 		break;
                        3010 --809: 		case  INDEX_COM_RS_FASNFRTPSNGSBLTINDCMD:/*FasnFrtPsngSbltIndCmd*/
                        3011 --810: 			*pRes = v_rd_8(FasnFrtPsngSbltIndCmd_handle);
                        3012 --line810
                        3013 ..lin.D.3A.5CRenesas_Electronics.5CD1x_RGL.5Crgl_ghs_D1Lx_obj_V1.2E2.2E0.5Cvlib.5Capp.5Cgfx_apps.5Csimple_draw_d1l2.5Ctarget.5Cd1lx_mango_ghs.5Cobj.5Ccom.254::
                        3014 .LDWlin254:
00000e9a 2606340c3f00   3015 	mov	4131892,r6

                                                                      Page 57
                                                              C:\Users\YINGAO~1\AppData\Local\Temp\gh_000086k1.si
                        3016 	jarl	_v_rd_8,lp
                        3016 <EXPANSION BEGIN>
                        3016 jarl22 _v_rd_8 , lp 
00000ea0 80ff0000*      3016 <EXPANSION END>
00000ea4 5d570000       3017 	st.b	r10,0[r29]
                        3018 --line811
                        3019 ..lin.D.3A.5CRenesas_Electronics.5CD1x_RGL.5Crgl_ghs_D1Lx_obj_V1.2E2.2E0.5Cvlib.5Capp.5Cgfx_apps.5Csimple_draw_d1l2.5Ctarget.5Cd1lx_mango_ghs.5Cobj.5Ccom.255::
                        3020 .LDWlin255:
00000ea8 8007c802*      3021 	br	.L1142
                        3022 .L1100:
                        3023 --811: 		break;
                        3024 --812: 		case  INDEX_COM_RS_FASNSECROWLSBINDCMD:/*FasnSecRowLSbltIndCmd*/
                        3025 --813: 			*pRes = v_rd_8(FasnSecRowLSbltIndCmd_handle);
                        3026 --line813
                        3027 ..lin.D.3A.5CRenesas_Electronics.5CD1x_RGL.5Crgl_ghs_D1Lx_obj_V1.2E2.2E0.5Cvlib.5Capp.5Cgfx_apps.5Csimple_draw_d1l2.5Ctarget.5Cd1lx_mango_ghs.5Cobj.5Ccom.256::
                        3028 .LDWlin256:
00000eac 26067c0c3f00   3029 	mov	4131964,r6
                        3030 	jarl	_v_rd_8,lp
                        3030 <EXPANSION BEGIN>
                        3030 jarl22 _v_rd_8 , lp 
00000eb2 80ff0000*      3030 <EXPANSION END>
00000eb6 5d570000       3031 	st.b	r10,0[r29]
                        3032 --line814
                        3033 ..lin.D.3A.5CRenesas_Electronics.5CD1x_RGL.5Crgl_ghs_D1Lx_obj_V1.2E2.2E0.5Cvlib.5Capp.5Cgfx_apps.5Csimple_draw_d1l2.5Ctarget.5Cd1lx_mango_ghs.5Cobj.5Ccom.257::
                        3034 .LDWlin257:
00000eba 8007b602*      3035 	br	.L1142
                        3036 .L1101:
                        3037 --814: 		break;
                        3038 --815: 		case  INDEX_COM_RS_FASNSECROWMIDSBLTINDC:/*FasnSecRowMidSbltIndC*/
                        3039 --816: 			*pRes = v_rd_8(FasnSecRowMidSbltIndC_handle);
                        3040 --line816
                        3041 ..lin.D.3A.5CRenesas_Electronics.5CD1x_RGL.5Crgl_ghs_D1Lx_obj_V1.2E2.2E0.5Cvlib.5Capp.5Cgfx_apps.5Csimple_draw_d1l2.5Ctarget.5Cd1lx_mango_ghs.5Cobj.5Ccom.258::
                        3042 .LDWlin258:
00000ebe 2606a00c3f00   3043 	mov	4132000,r6
                        3044 	jarl	_v_rd_8,lp
                        3044 <EXPANSION BEGIN>
                        3044 jarl22 _v_rd_8 , lp 
00000ec4 80ff0000*      3044 <EXPANSION END>
00000ec8 5d570000       3045 	st.b	r10,0[r29]
                        3046 --line817
                        3047 ..lin.D.3A.5CRenesas_Electronics.5CD1x_RGL.5Crgl_ghs_D1Lx_obj_V1.2E2.2E0.5Cvlib.5Capp.5Cgfx_apps.5Csimple_draw_d1l2.5Ctarget.5Cd1lx_mango_ghs.5Cobj.5Ccom.259::
                        3048 .LDWlin259:
00000ecc 8007a402*      3049 	br	.L1142
                        3050 .L1102:
                        3051 --817: 		break;
                        3052 --818: 		case  INDEX_COM_RS_FASNSECROWRSBLTINDCMD:/*FasnSecRowRSbltIndCmd*/
                        3053 --819: 			*pRes = v_rd_8(FasnSecRowRSbltIndCmd_handle);
                        3054 --line819
                        3055 ..lin.D.3A.5CRenesas_Electronics.5CD1x_RGL.5Crgl_ghs_D1Lx_obj_V1.2E2.2E0.5Cvlib.5Capp.5Cgfx_apps.5Csimple_draw_d1l2.5Ctarget.5Cd1lx_mango_ghs.5Cobj.5Ccom.260::
                        3056 .LDWlin260:
00000ed0 2606c40c3f00   3057 	mov	4132036,r6
                        3058 	jarl	_v_rd_8,lp
                        3058 <EXPANSION BEGIN>
                        3058 jarl22 _v_rd_8 , lp 
00000ed6 80ff0000*      3058 <EXPANSION END>
00000eda 5d570000       3059 	st.b	r10,0[r29]
                        3060 --line820
                        3061 ..lin.D.3A.5CRenesas_Electronics.5CD1x_RGL.5Crgl_ghs_D1Lx_obj_V1.2E2.2E0.5Cvlib.5Capp.5Cgfx_apps.5Csimple_draw_d1l2.5Ctarget.5Cd1lx_mango_ghs.5Cobj.5Ccom.261::
                        3062 .LDWlin261:
00000ede 80079202*      3063 	br	.L1142
                        3064 .L1103:

                                                                      Page 58
                                                              C:\Users\YINGAO~1\AppData\Local\Temp\gh_000086k1.si
                        3065 --820: 		break;
                        3066 --821: 		case  INDEX_COM_RS_FICMDISTUNITADJ:/*FICMDistUntAdj*/
                        3067 --822: 			*pRes = v_rd_8(FICMDistUntAdj_handle);
                        3068 --line822
                        3069 ..lin.D.3A.5CRenesas_Electronics.5CD1x_RGL.5Crgl_ghs_D1Lx_obj_V1.2E2.2E0.5Cvlib.5Capp.5Cgfx_apps.5Csimple_draw_d1l2.5Ctarget.5Cd1lx_mango_ghs.5Cobj.5Ccom.262::
                        3070 .LDWlin262:
00000ee2 26060c0d3f00   3071 	mov	4132108,r6
                        3072 	jarl	_v_rd_8,lp
                        3072 <EXPANSION BEGIN>
                        3072 jarl22 _v_rd_8 , lp 
00000ee8 80ff0000*      3072 <EXPANSION END>
00000eec 5d570000       3073 	st.b	r10,0[r29]
                        3074 --line823
                        3075 ..lin.D.3A.5CRenesas_Electronics.5CD1x_RGL.5Crgl_ghs_D1Lx_obj_V1.2E2.2E0.5Cvlib.5Capp.5Cgfx_apps.5Csimple_draw_d1l2.5Ctarget.5Cd1lx_mango_ghs.5Cobj.5Ccom.263::
                        3076 .LDWlin263:
00000ef0 80078002*      3077 	br	.L1142
                        3078 .L1104:
                        3079 --823: 		break;
                        3080 --825: 		case  INDEX_COM_RS_FICMFUELCSUMPUNTADJ:/*FICMFuelCsumpUntAdj*/
                        3081 --826: 			*pRes = v_rd_8(FICMFuelCsumpUntAdj_handle);
                        3082 --line826
                        3083 ..lin.D.3A.5CRenesas_Electronics.5CD1x_RGL.5Crgl_ghs_D1Lx_obj_V1.2E2.2E0.5Cvlib.5Capp.5Cgfx_apps.5Csimple_draw_d1l2.5Ctarget.5Cd1lx_mango_ghs.5Cobj.5Ccom.264::
                        3084 .LDWlin264:
00000ef4 2606300d3f00   3085 	mov	4132144,r6
                        3086 	jarl	_v_rd_8,lp
                        3086 <EXPANSION BEGIN>
                        3086 jarl22 _v_rd_8 , lp 
00000efa 80ff0000*      3086 <EXPANSION END>
00000efe 5d570000       3087 	st.b	r10,0[r29]
                        3088 --line827
                        3089 ..lin.D.3A.5CRenesas_Electronics.5CD1x_RGL.5Crgl_ghs_D1Lx_obj_V1.2E2.2E0.5Cvlib.5Capp.5Cgfx_apps.5Csimple_draw_d1l2.5Ctarget.5Cd1lx_mango_ghs.5Cobj.5Ccom.265::
                        3090 .LDWlin265:
00000f02 80076e02*      3091 	br	.L1142
                        3092 .L1105:
                        3093 --827: 		break;
                        3094 --828: 		case  INDEX_COM_RS_FICMOVERSPDFNCRNTSTS:/*FICMOverSpdFnCrntSts*/
                        3095 --829: 			*pRes = v_rd_8(FICMOverSpdFnCrntSts_handle);
                        3096 --line829
                        3097 ..lin.D.3A.5CRenesas_Electronics.5CD1x_RGL.5Crgl_ghs_D1Lx_obj_V1.2E2.2E0.5Cvlib.5Capp.5Cgfx_apps.5Csimple_draw_d1l2.5Ctarget.5Cd1lx_mango_ghs.5Cobj.5Ccom.266::
                        3098 .LDWlin266:
00000f06 2606780d3f00   3099 	mov	4132216,r6
                        3100 	jarl	_v_rd_8,lp
                        3100 <EXPANSION BEGIN>
                        3100 jarl22 _v_rd_8 , lp 
00000f0c 80ff0000*      3100 <EXPANSION END>
00000f10 5d570000       3101 	st.b	r10,0[r29]
                        3102 --line830
                        3103 ..lin.D.3A.5CRenesas_Electronics.5CD1x_RGL.5Crgl_ghs_D1Lx_obj_V1.2E2.2E0.5Cvlib.5Capp.5Cgfx_apps.5Csimple_draw_d1l2.5Ctarget.5Cd1lx_mango_ghs.5Cobj.5Ccom.267::
                        3104 .LDWlin267:
00000f14 80075c02*      3105 	br	.L1142
                        3106 .L1106:
                        3107 --830: 		break;		
                        3108 --831: 		case  INDEX_COM_RS_FICMTEMUNTADJ:/*FICMTemUntAdj*/
                        3109 --832: 			*pRes = v_rd_8(FICMTemUntAdj_handle);
                        3110 --line832
                        3111 ..lin.D.3A.5CRenesas_Electronics.5CD1x_RGL.5Crgl_ghs_D1Lx_obj_V1.2E2.2E0.5Cvlib.5Capp.5Cgfx_apps.5Csimple_draw_d1l2.5Ctarget.5Cd1lx_mango_ghs.5Cobj.5Ccom.268::
                        3112 .LDWlin268:
00000f18 2606e40d3f00   3113 	mov	4132324,r6
                        3114 	jarl	_v_rd_8,lp
                        3114 <EXPANSION BEGIN>
                        3114 jarl22 _v_rd_8 , lp 

                                                                      Page 59
                                                              C:\Users\YINGAO~1\AppData\Local\Temp\gh_000086k1.si
00000f1e 80ff0000*      3114 <EXPANSION END>
00000f22 5d570000       3115 	st.b	r10,0[r29]
                        3116 --line833
                        3117 ..lin.D.3A.5CRenesas_Electronics.5CD1x_RGL.5Crgl_ghs_D1Lx_obj_V1.2E2.2E0.5Cvlib.5Capp.5Cgfx_apps.5Csimple_draw_d1l2.5Ctarget.5Cd1lx_mango_ghs.5Cobj.5Ccom.269::
                        3118 .LDWlin269:
00000f26 80074a02*      3119 	br	.L1142
                        3120 .L1107:
                        3121 --833: 		break;		
                        3122 --834: 		case  INDEX_COM_RS_FICMTYREPRESSUREUNTADJ:/*FICMTyrePressureUntAdj*/
                        3123 --835: 			*pRes = v_rd_8(FICMTyrePressureUntAdj_handle);
                        3124 --line835
                        3125 ..lin.D.3A.5CRenesas_Electronics.5CD1x_RGL.5Crgl_ghs_D1Lx_obj_V1.2E2.2E0.5Cvlib.5Capp.5Cgfx_apps.5Csimple_draw_d1l2.5Ctarget.5Cd1lx_mango_ghs.5Cobj.5Ccom.270::
                        3126 .LDWlin270:
00000f2a 26062c0e3f00   3127 	mov	4132396,r6
                        3128 	jarl	_v_rd_8,lp
                        3128 <EXPANSION BEGIN>
                        3128 jarl22 _v_rd_8 , lp 
00000f30 80ff0000*      3128 <EXPANSION END>
00000f34 5d570000       3129 	st.b	r10,0[r29]
                        3130 --line836
                        3131 ..lin.D.3A.5CRenesas_Electronics.5CD1x_RGL.5Crgl_ghs_D1Lx_obj_V1.2E2.2E0.5Cvlib.5Capp.5Cgfx_apps.5Csimple_draw_d1l2.5Ctarget.5Cd1lx_mango_ghs.5Cobj.5Ccom.271::
                        3132 .LDWlin271:
00000f38 80073802*      3133 	br	.L1142
                        3134 .L1108:
                        3135 --836: 		break;	
                        3136 --837: 		case  INDEX_COM_RS_FICMVEHMNTNCESTS:/*FICMVehMntnceSts*/
                        3137 --838: 			*pRes = v_rd_8(FICMVehMntnceSts_handle);
                        3138 --line838
                        3139 ..lin.D.3A.5CRenesas_Electronics.5CD1x_RGL.5Crgl_ghs_D1Lx_obj_V1.2E2.2E0.5Cvlib.5Capp.5Cgfx_apps.5Csimple_draw_d1l2.5Ctarget.5Cd1lx_mango_ghs.5Cobj.5Ccom.272::
                        3140 .LDWlin272:
00000f3c 2606740e3f00   3141 	mov	4132468,r6
                        3142 	jarl	_v_rd_8,lp
                        3142 <EXPANSION BEGIN>
                        3142 jarl22 _v_rd_8 , lp 
00000f42 80ff0000*      3142 <EXPANSION END>
00000f46 5d570000       3143 	st.b	r10,0[r29]
                        3144 --line839
                        3145 ..lin.D.3A.5CRenesas_Electronics.5CD1x_RGL.5Crgl_ghs_D1Lx_obj_V1.2E2.2E0.5Cvlib.5Capp.5Cgfx_apps.5Csimple_draw_d1l2.5Ctarget.5Cd1lx_mango_ghs.5Cobj.5Ccom.273::
                        3146 .LDWlin273:
00000f4a 80072602*      3147 	br	.L1142
                        3148 .L1109:
                        3149 --839: 		break;	
                        3150 --840: 		
                        3151 --841: 		case  INDEX_COM_RS_AIRBAGSYSFLTINDCMD: /*AirbagSysFltIndCmd*/
                        3152 --842: 			*pRes = v_rd_8(AirbagSysFltIndCmd_handle);
                        3153 --line842
                        3154 ..lin.D.3A.5CRenesas_Electronics.5CD1x_RGL.5Crgl_ghs_D1Lx_obj_V1.2E2.2E0.5Cvlib.5Capp.5Cgfx_apps.5Csimple_draw_d1l2.5Ctarget.5Cd1lx_mango_ghs.5Cobj.5Ccom.274::
                        3155 .LDWlin274:
00000f4e 260640003f00   3156 	mov	4128832,r6
                        3157 	jarl	_v_rd_8,lp
                        3157 <EXPANSION BEGIN>
                        3157 jarl22 _v_rd_8 , lp 
00000f54 80ff0000*      3157 <EXPANSION END>
00000f58 5d570000       3158 	st.b	r10,0[r29]
                        3159 --line843
                        3160 ..lin.D.3A.5CRenesas_Electronics.5CD1x_RGL.5Crgl_ghs_D1Lx_obj_V1.2E2.2E0.5Cvlib.5Capp.5Cgfx_apps.5Csimple_draw_d1l2.5Ctarget.5Cd1lx_mango_ghs.5Cobj.5Ccom.275::
                        3161 .LDWlin275:
00000f5c 80071402*      3162 	br	.L1142
                        3163 .L1110:
                        3164 --843: 		break;
                        3165 --844: 		case  INDEX_COM_RS_AMBTLGHTLVL: /*AmbtLghtLvl*/

                                                                      Page 60
                                                              C:\Users\YINGAO~1\AppData\Local\Temp\gh_000086k1.si
                        3166 --845: 			*pRes = v_rd_8(AmbtLghtLvl_handle);
                        3167 --line845
                        3168 ..lin.D.3A.5CRenesas_Electronics.5CD1x_RGL.5Crgl_ghs_D1Lx_obj_V1.2E2.2E0.5Cvlib.5Capp.5Cgfx_apps.5Csimple_draw_d1l2.5Ctarget.5Cd1lx_mango_ghs.5Cobj.5Ccom.276::
                        3169 .LDWlin276:
00000f60 260664003f00   3170 	mov	4128868,r6
                        3171 	jarl	_v_rd_8,lp
                        3171 <EXPANSION BEGIN>
                        3171 jarl22 _v_rd_8 , lp 
00000f66 80ff0000*      3171 <EXPANSION END>
00000f6a 5d570000       3172 	st.b	r10,0[r29]
                        3173 --line846
                        3174 ..lin.D.3A.5CRenesas_Electronics.5CD1x_RGL.5Crgl_ghs_D1Lx_obj_V1.2E2.2E0.5Cvlib.5Capp.5Cgfx_apps.5Csimple_draw_d1l2.5Ctarget.5Cd1lx_mango_ghs.5Cobj.5Ccom.277::
                        3175 .LDWlin277:
00000f6e 80070202*      3176 	br	.L1142
                        3177 .L1111:
                        3178 --846: 		break;
                        3179 --847: 		case  INDEX_COM_RS_AUTOHOLDMSG: /*AutoHoldMsg*/
                        3180 --848: 			*pRes = v_rd_8(AutoHoldMsg_handle);
                        3181 --line848
                        3182 ..lin.D.3A.5CRenesas_Electronics.5CD1x_RGL.5Crgl_ghs_D1Lx_obj_V1.2E2.2E0.5Cvlib.5Capp.5Cgfx_apps.5Csimple_draw_d1l2.5Ctarget.5Cd1lx_mango_ghs.5Cobj.5Ccom.278::
                        3183 .LDWlin278:
00000f72 260618013f00   3184 	mov	4129048,r6
                        3185 	jarl	_v_rd_8,lp
                        3185 <EXPANSION BEGIN>
                        3185 jarl22 _v_rd_8 , lp 
00000f78 80ff0000*      3185 <EXPANSION END>
00000f7c 5d570000       3186 	st.b	r10,0[r29]
                        3187 --line849
                        3188 ..lin.D.3A.5CRenesas_Electronics.5CD1x_RGL.5Crgl_ghs_D1Lx_obj_V1.2E2.2E0.5Cvlib.5Capp.5Cgfx_apps.5Csimple_draw_d1l2.5Ctarget.5Cd1lx_mango_ghs.5Cobj.5Ccom.279::
                        3189 .LDWlin279:
00000f80 8007f001*      3190 	br	.L1142
                        3191 .L1112:
                        3192 --849: 		break;
                        3193 --850: 		case  INDEX_COM_RS_AUTOHOLDSYSSTS: /*AutoHoldSysSts*/
                        3194 --851: 			*pRes = v_rd_8(AutoHoldSysSts_handle);
                        3195 --line851
                        3196 ..lin.D.3A.5CRenesas_Electronics.5CD1x_RGL.5Crgl_ghs_D1Lx_obj_V1.2E2.2E0.5Cvlib.5Capp.5Cgfx_apps.5Csimple_draw_d1l2.5Ctarget.5Cd1lx_mango_ghs.5Cobj.5Ccom.280::
                        3197 .LDWlin280:
00000f84 26063c013f00   3198 	mov	4129084,r6
                        3199 	jarl	_v_rd_8,lp
                        3199 <EXPANSION BEGIN>
                        3199 jarl22 _v_rd_8 , lp 
00000f8a 80ff0000*      3199 <EXPANSION END>
00000f8e 5d570000       3200 	st.b	r10,0[r29]
                        3201 --line852
                        3202 ..lin.D.3A.5CRenesas_Electronics.5CD1x_RGL.5Crgl_ghs_D1Lx_obj_V1.2E2.2E0.5Cvlib.5Capp.5Cgfx_apps.5Csimple_draw_d1l2.5Ctarget.5Cd1lx_mango_ghs.5Cobj.5Ccom.281::
                        3203 .LDWlin281:
00000f92 8007de01*      3204 	br	.L1142
                        3205 .L1113:
                        3206 --852: 		break;
                        3207 --853: 		case  INDEX_COM_RS_BATAGNGSTA: /*BatAgngSta*/
                        3208 --854: 			*pRes = v_rd_8(BatAgngSta_handle);
                        3209 --line854
                        3210 ..lin.D.3A.5CRenesas_Electronics.5CD1x_RGL.5Crgl_ghs_D1Lx_obj_V1.2E2.2E0.5Cvlib.5Capp.5Cgfx_apps.5Csimple_draw_d1l2.5Ctarget.5Cd1lx_mango_ghs.5Cobj.5Ccom.282::
                        3211 .LDWlin282:
00000f96 260660013f00   3212 	mov	4129120,r6
                        3213 	jarl	_v_rd_8,lp
                        3213 <EXPANSION BEGIN>
                        3213 jarl22 _v_rd_8 , lp 
00000f9c 80ff0000*      3213 <EXPANSION END>
00000fa0 5d570000       3214 	st.b	r10,0[r29]

                                                                      Page 61
                                                              C:\Users\YINGAO~1\AppData\Local\Temp\gh_000086k1.si
                        3215 --line855
                        3216 ..lin.D.3A.5CRenesas_Electronics.5CD1x_RGL.5Crgl_ghs_D1Lx_obj_V1.2E2.2E0.5Cvlib.5Capp.5Cgfx_apps.5Csimple_draw_d1l2.5Ctarget.5Cd1lx_mango_ghs.5Cobj.5Ccom.283::
                        3217 .LDWlin283:
00000fa4 8007cc01*      3218 	br	.L1142
                        3219 .L1114:
                        3220 --855: 		break;
                        3221 --856: 		case  INDEX_COM_RS_BATSOC: /*BatSOC*/
                        3222 --857: 			*pRes = v_rd_8(BatSOC_handle);
                        3223 --line857
                        3224 ..lin.D.3A.5CRenesas_Electronics.5CD1x_RGL.5Crgl_ghs_D1Lx_obj_V1.2E2.2E0.5Cvlib.5Capp.5Cgfx_apps.5Csimple_draw_d1l2.5Ctarget.5Cd1lx_mango_ghs.5Cobj.5Ccom.284::
                        3225 .LDWlin284:
00000fa8 260684013f00   3226 	mov	4129156,r6
                        3227 	jarl	_v_rd_8,lp
                        3227 <EXPANSION BEGIN>
                        3227 jarl22 _v_rd_8 , lp 
00000fae 80ff0000*      3227 <EXPANSION END>
00000fb2 5d570000       3228 	st.b	r10,0[r29]
                        3229 --line858
                        3230 ..lin.D.3A.5CRenesas_Electronics.5CD1x_RGL.5Crgl_ghs_D1Lx_obj_V1.2E2.2E0.5Cvlib.5Capp.5Cgfx_apps.5Csimple_draw_d1l2.5Ctarget.5Cd1lx_mango_ghs.5Cobj.5Ccom.285::
                        3231 .LDWlin285:
00000fb6 8007ba01*      3232 	br	.L1142
                        3233 .L1115:
                        3234 --858: 		break;
                        3235 --861: 		case  INDEX_COM_RS_VEHSIDELGHTSTS:/*VehSideLghtSts*/
                        3236 --862: 			*pRes = v_rd_8(VehSideLghtSts_handle);
                        3237 --line862
                        3238 ..lin.D.3A.5CRenesas_Electronics.5CD1x_RGL.5Crgl_ghs_D1Lx_obj_V1.2E2.2E0.5Cvlib.5Capp.5Cgfx_apps.5Csimple_draw_d1l2.5Ctarget.5Cd1lx_mango_ghs.5Cobj.5Ccom.286::
                        3239 .LDWlin286:
00000fba 2606e81e3f00   3240 	mov	4136680,r6
                        3241 	jarl	_v_rd_8,lp
                        3241 <EXPANSION BEGIN>
                        3241 jarl22 _v_rd_8 , lp 
00000fc0 80ff0000*      3241 <EXPANSION END>
00000fc4 5d570000       3242 	st.b	r10,0[r29]
                        3243 --line863
                        3244 ..lin.D.3A.5CRenesas_Electronics.5CD1x_RGL.5Crgl_ghs_D1Lx_obj_V1.2E2.2E0.5Cvlib.5Capp.5Cgfx_apps.5Csimple_draw_d1l2.5Ctarget.5Cd1lx_mango_ghs.5Cobj.5Ccom.287::
                        3245 .LDWlin287:
00000fc8 8007a801*      3246 	br	.L1142
                        3247 .L1116:
                        3248 --863: 		break;
                        3249 --864: 		case  INDEX_COM_RS_DISTRCAVGDRVNV:/*DistRCAvgDrvnV*/
                        3250 --865: 			*pRes = v_rd_8(DistRCAvgDrvnV_handle);
                        3251 --line865
                        3252 ..lin.D.3A.5CRenesas_Electronics.5CD1x_RGL.5Crgl_ghs_D1Lx_obj_V1.2E2.2E0.5Cvlib.5Capp.5Cgfx_apps.5Csimple_draw_d1l2.5Ctarget.5Cd1lx_mango_ghs.5Cobj.5Ccom.288::
                        3253 .LDWlin288:
00000fcc 260690073f00   3254 	mov	4130704,r6
                        3255 	jarl	_v_rd_8,lp
                        3255 <EXPANSION BEGIN>
                        3255 jarl22 _v_rd_8 , lp 
00000fd2 80ff0000*      3255 <EXPANSION END>
00000fd6 5d570000       3256 	st.b	r10,0[r29]
                        3257 --line866
                        3258 ..lin.D.3A.5CRenesas_Electronics.5CD1x_RGL.5Crgl_ghs_D1Lx_obj_V1.2E2.2E0.5Cvlib.5Capp.5Cgfx_apps.5Csimple_draw_d1l2.5Ctarget.5Cd1lx_mango_ghs.5Cobj.5Ccom.289::
                        3259 .LDWlin289:
00000fda 80079601*      3260 	br	.L1142
                        3261 .L1117:
                        3262 --866: 		break;
                        3263 --867: 		case  INDEX_COM_RS_FRTPSNGDOOROPENSTS:/*FrtPsngDoorOpenSts*/
                        3264 --868: 			*pRes = v_rd_8(FrtPsngDoorOpenSts_handle);
                        3265 --line868
                        3266 ..lin.D.3A.5CRenesas_Electronics.5CD1x_RGL.5Crgl_ghs_D1Lx_obj_V1.2E2.2E0.5Cvlib.5Capp.5Cgfx_apps.5Csimple_draw_d1l2.5Ctarget.5Cd1lx_mango_ghs.5Cobj.5Ccom.290::

                                                                      Page 62
                                                              C:\Users\YINGAO~1\AppData\Local\Temp\gh_000086k1.si
                        3267 .LDWlin290:
00000fde 26066c103f00   3268 	mov	4132972,r6
                        3269 	jarl	_v_rd_8,lp
                        3269 <EXPANSION BEGIN>
                        3269 jarl22 _v_rd_8 , lp 
00000fe4 80ff0000*      3269 <EXPANSION END>
00000fe8 5d570000       3270 	st.b	r10,0[r29]
                        3271 --line869
                        3272 ..lin.D.3A.5CRenesas_Electronics.5CD1x_RGL.5Crgl_ghs_D1Lx_obj_V1.2E2.2E0.5Cvlib.5Capp.5Cgfx_apps.5Csimple_draw_d1l2.5Ctarget.5Cd1lx_mango_ghs.5Cobj.5Ccom.291::
                        3273 .LDWlin291:
00000fec 80078401*      3274 	br	.L1142
                        3275 .L1118:
                        3276 --869: 		break;
                        3277 --870: 		case  INDEX_COM_RS_LDSPCOPENSTS:/*LdspcOpenSts*/
                        3278 --871: 			*pRes = v_rd_8(LdspcOpenSts_handle);
                        3279 --line871
                        3280 ..lin.D.3A.5CRenesas_Electronics.5CD1x_RGL.5Crgl_ghs_D1Lx_obj_V1.2E2.2E0.5Cvlib.5Capp.5Cgfx_apps.5Csimple_draw_d1l2.5Ctarget.5Cd1lx_mango_ghs.5Cobj.5Ccom.292::
                        3281 .LDWlin292:
00000ff0 2606f4123f00   3282 	mov	4133620,r6
                        3283 	jarl	_v_rd_8,lp
                        3283 <EXPANSION BEGIN>
                        3283 jarl22 _v_rd_8 , lp 
00000ff6 80ff0000*      3283 <EXPANSION END>
00000ffa 5d570000       3284 	st.b	r10,0[r29]
                        3285 --line872
                        3286 ..lin.D.3A.5CRenesas_Electronics.5CD1x_RGL.5Crgl_ghs_D1Lx_obj_V1.2E2.2E0.5Cvlib.5Capp.5Cgfx_apps.5Csimple_draw_d1l2.5Ctarget.5Cd1lx_mango_ghs.5Cobj.5Ccom.293::
                        3287 .LDWlin293:
00000ffe 80077201*      3288 	br	.L1142
                        3289 .L1119:
                        3290 --872: 		break;
                        3291 --873: 		case  INDEX_COM_RS_LGHTSWPOSSTS:/*LghtSwPosSts*/
                        3292 --874: 			*pRes = v_rd_8(LghtSwPosSts_handle);
                        3293 --line874
                        3294 ..lin.D.3A.5CRenesas_Electronics.5CD1x_RGL.5Crgl_ghs_D1Lx_obj_V1.2E2.2E0.5Cvlib.5Capp.5Cgfx_apps.5Csimple_draw_d1l2.5Ctarget.5Cd1lx_mango_ghs.5Cobj.5Ccom.294::
                        3295 .LDWlin294:
00001002 260618133f00   3296 	mov	4133656,r6
                        3297 	jarl	_v_rd_8,lp
                        3297 <EXPANSION BEGIN>
                        3297 jarl22 _v_rd_8 , lp 
00001008 80ff0000*      3297 <EXPANSION END>
0000100c 5d570000       3298 	st.b	r10,0[r29]
                        3299 --line875
                        3300 ..lin.D.3A.5CRenesas_Electronics.5CD1x_RGL.5Crgl_ghs_D1Lx_obj_V1.2E2.2E0.5Cvlib.5Capp.5Cgfx_apps.5Csimple_draw_d1l2.5Ctarget.5Cd1lx_mango_ghs.5Cobj.5Ccom.295::
                        3301 .LDWlin295:
00001010 80076001*      3302 	br	.L1142
                        3303 .L1120:
                        3304 --875: 		break;
                        3305 --876: 		case  INDEX_COM_RS_BNTOPENSTS:/*BntOpenSts*/
                        3306 --877: 			*pRes = v_rd_8(BntOpenSts_handle);
                        3307 --line877
                        3308 ..lin.D.3A.5CRenesas_Electronics.5CD1x_RGL.5Crgl_ghs_D1Lx_obj_V1.2E2.2E0.5Cvlib.5Capp.5Cgfx_apps.5Csimple_draw_d1l2.5Ctarget.5Cd1lx_mango_ghs.5Cobj.5Ccom.296::
                        3309 .LDWlin296:
00001014 260630043f00   3310 	mov	4129840,r6
                        3311 	jarl	_v_rd_8,lp
                        3311 <EXPANSION BEGIN>
                        3311 jarl22 _v_rd_8 , lp 
0000101a 80ff0000*      3311 <EXPANSION END>
0000101e 5d570000       3312 	st.b	r10,0[r29]
                        3313 --line878
                        3314 ..lin.D.3A.5CRenesas_Electronics.5CD1x_RGL.5Crgl_ghs_D1Lx_obj_V1.2E2.2E0.5Cvlib.5Capp.5Cgfx_apps.5Csimple_draw_d1l2.5Ctarget.5Cd1lx_mango_ghs.5Cobj.5Ccom.297::
                        3315 .LDWlin297:

                                                                      Page 63
                                                              C:\Users\YINGAO~1\AppData\Local\Temp\gh_000086k1.si
00001022 80074e01*      3316 	br	.L1142
                        3317 .L1121:
                        3318 --878: 		break;
                        3319 --879: 		case  INDEX_COM_RS_PDCSYSSTS_L:/*PDCSysSts_L*/
                        3320 --880: 			*pRes = v_rd_8(PDCSysSts_L_handle);
                        3321 --line880
                        3322 ..lin.D.3A.5CRenesas_Electronics.5CD1x_RGL.5Crgl_ghs_D1Lx_obj_V1.2E2.2E0.5Cvlib.5Capp.5Cgfx_apps.5Csimple_draw_d1l2.5Ctarget.5Cd1lx_mango_ghs.5Cobj.5Ccom.298::
                        3323 .LDWlin298:
00001026 2606ec383f00   3324 	mov	4143340,r6
                        3325 	jarl	_v_rd_8,lp
                        3325 <EXPANSION BEGIN>
                        3325 jarl22 _v_rd_8 , lp 
0000102c 80ff0000*      3325 <EXPANSION END>
00001030 5d570000       3326 	st.b	r10,0[r29]
                        3327 --line881
                        3328 ..lin.D.3A.5CRenesas_Electronics.5CD1x_RGL.5Crgl_ghs_D1Lx_obj_V1.2E2.2E0.5Cvlib.5Capp.5Cgfx_apps.5Csimple_draw_d1l2.5Ctarget.5Cd1lx_mango_ghs.5Cobj.5Ccom.299::
                        3329 .LDWlin299:
00001034 80073c01*      3330 	br	.L1142
                        3331 .L1122:
                        3332 --881: 		break;
                        3333 --882: 		case  INDEX_COM_RS_RRPDCAUDWRNNG_L:/*RrPDCAudWrnng_L*/
                        3334 --883: 			*pRes = v_rd_8(RrPDCAudWrnng_L_handle);
                        3335 --line883
                        3336 ..lin.D.3A.5CRenesas_Electronics.5CD1x_RGL.5Crgl_ghs_D1Lx_obj_V1.2E2.2E0.5Cvlib.5Capp.5Cgfx_apps.5Csimple_draw_d1l2.5Ctarget.5Cd1lx_mango_ghs.5Cobj.5Ccom.300::
                        3337 .LDWlin300:
00001038 2606e8393f00   3338 	mov	4143592,r6
                        3339 	jarl	_v_rd_8,lp
                        3339 <EXPANSION BEGIN>
                        3339 jarl22 _v_rd_8 , lp 
0000103e 80ff0000*      3339 <EXPANSION END>
00001042 5d570000       3340 	st.b	r10,0[r29]
                        3341 --line884
                        3342 ..lin.D.3A.5CRenesas_Electronics.5CD1x_RGL.5Crgl_ghs_D1Lx_obj_V1.2E2.2E0.5Cvlib.5Capp.5Cgfx_apps.5Csimple_draw_d1l2.5Ctarget.5Cd1lx_mango_ghs.5Cobj.5Ccom.301::
                        3343 .LDWlin301:
00001046 80072a01*      3344 	br	.L1142
                        3345 .L1123:
                        3346 --884: 		break;
                        3347 --885: 		case  INDEX_COM_RS_RLOBSRNG_L:/*RLObsRng_L*/
                        3348 --886: 			*pRes = v_rd_8(RLObsRng_L_handle);
                        3349 --line886
                        3350 ..lin.D.3A.5CRenesas_Electronics.5CD1x_RGL.5Crgl_ghs_D1Lx_obj_V1.2E2.2E0.5Cvlib.5Capp.5Cgfx_apps.5Csimple_draw_d1l2.5Ctarget.5Cd1lx_mango_ghs.5Cobj.5Ccom.302::
                        3351 .LDWlin302:
0000104a 260634393f00   3352 	mov	4143412,r6
                        3353 	jarl	_v_rd_8,lp
                        3353 <EXPANSION BEGIN>
                        3353 jarl22 _v_rd_8 , lp 
00001050 80ff0000*      3353 <EXPANSION END>
00001054 5d570000       3354 	st.b	r10,0[r29]
                        3355 --line887
                        3356 ..lin.D.3A.5CRenesas_Electronics.5CD1x_RGL.5Crgl_ghs_D1Lx_obj_V1.2E2.2E0.5Cvlib.5Capp.5Cgfx_apps.5Csimple_draw_d1l2.5Ctarget.5Cd1lx_mango_ghs.5Cobj.5Ccom.303::
                        3357 .LDWlin303:
00001058 80071801*      3358 	br	.L1142
                        3359 .L1124:
                        3360 --887: 		break;
                        3361 --888: 		case  INDEX_COM_RS_RROBSRNG_L:/*RRObsRng_L*/
                        3362 --889: 			*pRes = v_rd_8(RRObsRng_L_handle);
                        3363 --line889
                        3364 ..lin.D.3A.5CRenesas_Electronics.5CD1x_RGL.5Crgl_ghs_D1Lx_obj_V1.2E2.2E0.5Cvlib.5Capp.5Cgfx_apps.5Csimple_draw_d1l2.5Ctarget.5Cd1lx_mango_ghs.5Cobj.5Ccom.304::
                        3365 .LDWlin304:
0000105c 2606c4393f00   3366 	mov	4143556,r6
                        3367 	jarl	_v_rd_8,lp

                                                                      Page 64
                                                              C:\Users\YINGAO~1\AppData\Local\Temp\gh_000086k1.si
                        3367 <EXPANSION BEGIN>
                        3367 jarl22 _v_rd_8 , lp 
00001062 80ff0000*      3367 <EXPANSION END>
00001066 5d570000       3368 	st.b	r10,0[r29]
                        3369 --line890
                        3370 ..lin.D.3A.5CRenesas_Electronics.5CD1x_RGL.5Crgl_ghs_D1Lx_obj_V1.2E2.2E0.5Cvlib.5Capp.5Cgfx_apps.5Csimple_draw_d1l2.5Ctarget.5Cd1lx_mango_ghs.5Cobj.5Ccom.305::
                        3371 .LDWlin305:
0000106a 80070601*      3372 	br	.L1142
                        3373 .L1125:
                        3374 --890: 		break;
                        3375 --891: 		case  INDEX_COM_RS_RRMIDLOBSRNG_L:/*RrMidLObsRng_L*/
                        3376 --892: 			*pRes = v_rd_8(RrMidLObsRng_L_handle);
                        3377 --line892
                        3378 ..lin.D.3A.5CRenesas_Electronics.5CD1x_RGL.5Crgl_ghs_D1Lx_obj_V1.2E2.2E0.5Cvlib.5Capp.5Cgfx_apps.5Csimple_draw_d1l2.5Ctarget.5Cd1lx_mango_ghs.5Cobj.5Ccom.306::
                        3379 .LDWlin306:
0000106e 260658393f00   3380 	mov	4143448,r6
                        3381 	jarl	_v_rd_8,lp
                        3381 <EXPANSION BEGIN>
                        3381 jarl22 _v_rd_8 , lp 
00001074 80ff0000*      3381 <EXPANSION END>
00001078 5d570000       3382 	st.b	r10,0[r29]
                        3383 --line893
                        3384 ..lin.D.3A.5CRenesas_Electronics.5CD1x_RGL.5Crgl_ghs_D1Lx_obj_V1.2E2.2E0.5Cvlib.5Capp.5Cgfx_apps.5Csimple_draw_d1l2.5Ctarget.5Cd1lx_mango_ghs.5Cobj.5Ccom.307::
                        3385 .LDWlin307:
0000107c a57d*          3386 	br	.L1142
                        3387 .L1126:
                        3388 --893: 		break;
                        3389 --894: 		case  INDEX_COM_RS_RRMIDROBSRNG_L:/*RrMidRObsRng_L*/
                        3390 --895: 			*pRes = v_rd_8(RrMidRObsRng_L_handle);
                        3391 --line895
                        3392 ..lin.D.3A.5CRenesas_Electronics.5CD1x_RGL.5Crgl_ghs_D1Lx_obj_V1.2E2.2E0.5Cvlib.5Capp.5Cgfx_apps.5Csimple_draw_d1l2.5Ctarget.5Cd1lx_mango_ghs.5Cobj.5Ccom.308::
                        3393 .LDWlin308:
0000107e 26067c393f00   3394 	mov	4143484,r6
                        3395 	jarl	_v_rd_8,lp
                        3395 <EXPANSION BEGIN>
                        3395 jarl22 _v_rd_8 , lp 
00001084 80ff0000*      3395 <EXPANSION END>
00001088 5d570000       3396 	st.b	r10,0[r29]
                        3397 --line896
                        3398 ..lin.D.3A.5CRenesas_Electronics.5CD1x_RGL.5Crgl_ghs_D1Lx_obj_V1.2E2.2E0.5Cvlib.5Capp.5Cgfx_apps.5Csimple_draw_d1l2.5Ctarget.5Cd1lx_mango_ghs.5Cobj.5Ccom.309::
                        3399 .LDWlin309:
0000108c a575*          3400 	br	.L1142
                        3401 .L1127:
                        3402 --896: 		break;
                        3403 --897: 		case  INDEX_COM_RS_RROBSDIST_L:/*RrObsDist_L*/
                        3404 --898: 			*pRes = v_rd_8(RrObsDist_L_handle);
                        3405 --line898
                        3406 ..lin.D.3A.5CRenesas_Electronics.5CD1x_RGL.5Crgl_ghs_D1Lx_obj_V1.2E2.2E0.5Cvlib.5Capp.5Cgfx_apps.5Csimple_draw_d1l2.5Ctarget.5Cd1lx_mango_ghs.5Cobj.5Ccom.310::
                        3407 .LDWlin310:
0000108e 2606a0393f00   3408 	mov	4143520,r6
                        3409 	jarl	_v_rd_8,lp
                        3409 <EXPANSION BEGIN>
                        3409 jarl22 _v_rd_8 , lp 
00001094 80ff0000*      3409 <EXPANSION END>
00001098 5d570000       3410 	st.b	r10,0[r29]
                        3411 --line899
                        3412 ..lin.D.3A.5CRenesas_Electronics.5CD1x_RGL.5Crgl_ghs_D1Lx_obj_V1.2E2.2E0.5Cvlib.5Capp.5Cgfx_apps.5Csimple_draw_d1l2.5Ctarget.5Cd1lx_mango_ghs.5Cobj.5Ccom.311::
                        3413 .LDWlin311:
0000109c a56d*          3414 	br	.L1142
                        3415 .L1128:
                        3416 --899: 		break;

                                                                      Page 65
                                                              C:\Users\YINGAO~1\AppData\Local\Temp\gh_000086k1.si
                        3417 --900: 		case  INDEX_COM_RS_PDCCOFIGNSTS_L:/*PDCCofignSts_L*/
                        3418 --901: 			*pRes = v_rd_8(PDCCofignSts_L_handle);
                        3419 --line901
                        3420 ..lin.D.3A.5CRenesas_Electronics.5CD1x_RGL.5Crgl_ghs_D1Lx_obj_V1.2E2.2E0.5Cvlib.5Capp.5Cgfx_apps.5Csimple_draw_d1l2.5Ctarget.5Cd1lx_mango_ghs.5Cobj.5Ccom.312::
                        3421 .LDWlin312:
0000109e 2606f0373f00   3422 	mov	4143088,r6
                        3423 	jarl	_v_rd_8,lp
                        3423 <EXPANSION BEGIN>
                        3423 jarl22 _v_rd_8 , lp 
000010a4 80ff0000*      3423 <EXPANSION END>
000010a8 5d570000       3424 	st.b	r10,0[r29]
                        3425 --line902
                        3426 ..lin.D.3A.5CRenesas_Electronics.5CD1x_RGL.5Crgl_ghs_D1Lx_obj_V1.2E2.2E0.5Cvlib.5Capp.5Cgfx_apps.5Csimple_draw_d1l2.5Ctarget.5Cd1lx_mango_ghs.5Cobj.5Ccom.313::
                        3427 .LDWlin313:
000010ac a565*          3428 	br	.L1142
                        3429 .L1129:
                        3430 --902: 		break;
                        3431 --903: 		case  INDEX_COM_RS_TIMEDSPFMTADJ:/*TimeDspFmtAdj*/
                        3432 --904: 			*pRes = v_rd_8(TimeDspFmtAdj_handle);
                        3433 --line904
                        3434 ..lin.D.3A.5CRenesas_Electronics.5CD1x_RGL.5Crgl_ghs_D1Lx_obj_V1.2E2.2E0.5Cvlib.5Capp.5Cgfx_apps.5Csimple_draw_d1l2.5Ctarget.5Cd1lx_mango_ghs.5Cobj.5Ccom.314::
                        3435 .LDWlin314:
000010ae 2606cc1c3f00   3436 	mov	4136140,r6
                        3437 	jarl	_v_rd_8,lp
                        3437 <EXPANSION BEGIN>
                        3437 jarl22 _v_rd_8 , lp 
000010b4 80ff0000*      3437 <EXPANSION END>
000010b8 5d570000       3438 	st.b	r10,0[r29]
                        3439 --line905
                        3440 ..lin.D.3A.5CRenesas_Electronics.5CD1x_RGL.5Crgl_ghs_D1Lx_obj_V1.2E2.2E0.5Cvlib.5Capp.5Cgfx_apps.5Csimple_draw_d1l2.5Ctarget.5Cd1lx_mango_ghs.5Cobj.5Ccom.315::
                        3441 .LDWlin315:
000010bc a55d*          3442 	br	.L1142
                        3443 .L1130:
                        3444 --905: 		break;
                        3445 --906: 		case  INDEX_COM_RS_HOUROFDAYADJ:/*HourOfDayAdj*/
                        3446 --907: 			*pRes = v_rd_8(HourOfDayAdj_handle);
                        3447 --line907
                        3448 ..lin.D.3A.5CRenesas_Electronics.5CD1x_RGL.5Crgl_ghs_D1Lx_obj_V1.2E2.2E0.5Cvlib.5Capp.5Cgfx_apps.5Csimple_draw_d1l2.5Ctarget.5Cd1lx_mango_ghs.5Cobj.5Ccom.316::
                        3449 .LDWlin316:
000010be 260620113f00   3450 	mov	4133152,r6
                        3451 	jarl	_v_rd_8,lp
                        3451 <EXPANSION BEGIN>
                        3451 jarl22 _v_rd_8 , lp 
000010c4 80ff0000*      3451 <EXPANSION END>
000010c8 5d570000       3452 	st.b	r10,0[r29]
                        3453 --line908
                        3454 ..lin.D.3A.5CRenesas_Electronics.5CD1x_RGL.5Crgl_ghs_D1Lx_obj_V1.2E2.2E0.5Cvlib.5Capp.5Cgfx_apps.5Csimple_draw_d1l2.5Ctarget.5Cd1lx_mango_ghs.5Cobj.5Ccom.317::
                        3455 .LDWlin317:
000010cc a555*          3456 	br	.L1142
                        3457 .L1131:
                        3458 --908: 		break;
                        3459 --909: 		
                        3460 --910: 		case  INDEX_COM_RS_MINUTEOFHOURADJ:/*MinuteOfHourAdj*/
                        3461 --911: 			*pRes = v_rd_8(MinuteOfHourAdj_handle);
                        3462 --line911
                        3463 ..lin.D.3A.5CRenesas_Electronics.5CD1x_RGL.5Crgl_ghs_D1Lx_obj_V1.2E2.2E0.5Cvlib.5Capp.5Cgfx_apps.5Csimple_draw_d1l2.5Ctarget.5Cd1lx_mango_ghs.5Cobj.5Ccom.318::
                        3464 .LDWlin318:
000010ce 2606cc133f00   3465 	mov	4133836,r6
                        3466 	jarl	_v_rd_8,lp
                        3466 <EXPANSION BEGIN>
                        3466 jarl22 _v_rd_8 , lp 

                                                                      Page 66
                                                              C:\Users\YINGAO~1\AppData\Local\Temp\gh_000086k1.si
000010d4 80ff0000*      3466 <EXPANSION END>
000010d8 5d570000       3467 	st.b	r10,0[r29]
                        3468 --line912
                        3469 ..lin.D.3A.5CRenesas_Electronics.5CD1x_RGL.5Crgl_ghs_D1Lx_obj_V1.2E2.2E0.5Cvlib.5Capp.5Cgfx_apps.5Csimple_draw_d1l2.5Ctarget.5Cd1lx_mango_ghs.5Cobj.5Ccom.319::
                        3470 .LDWlin319:
000010dc a54d*          3471 	br	.L1142
                        3472 .L1132:
                        3473 --912: 		break;
                        3474 --913: 		
                        3475 --914: 		case  INDEX_COM_RS_MUSSRCMD:/*MusSrcMd*/
                        3476 --915: 			*pRes = v_rd_8(MusSrcMd_handle);
                        3477 --line915
                        3478 ..lin.D.3A.5CRenesas_Electronics.5CD1x_RGL.5Crgl_ghs_D1Lx_obj_V1.2E2.2E0.5Cvlib.5Capp.5Cgfx_apps.5Csimple_draw_d1l2.5Ctarget.5Cd1lx_mango_ghs.5Cobj.5Ccom.320::
                        3479 .LDWlin320:
000010de 260614143f00   3480 	mov	4133908,r6
                        3481 	jarl	_v_rd_8,lp
                        3481 <EXPANSION BEGIN>
                        3481 jarl22 _v_rd_8 , lp 
000010e4 80ff0000*      3481 <EXPANSION END>
000010e8 5d570000       3482 	st.b	r10,0[r29]
                        3483 --line916
                        3484 ..lin.D.3A.5CRenesas_Electronics.5CD1x_RGL.5Crgl_ghs_D1Lx_obj_V1.2E2.2E0.5Cvlib.5Capp.5Cgfx_apps.5Csimple_draw_d1l2.5Ctarget.5Cd1lx_mango_ghs.5Cobj.5Ccom.321::
                        3485 .LDWlin321:
000010ec a545*          3486 	br	.L1142
                        3487 .L1133:
                        3488 --916: 		break;
                        3489 --917: 		case  INDEX_COM_RS_NAVDIRCN:/*NavDircn*/
                        3490 --918: 			*pRes = v_rd_8(NavDircn_handle);
                        3491 --line918
                        3492 ..lin.D.3A.5CRenesas_Electronics.5CD1x_RGL.5Crgl_ghs_D1Lx_obj_V1.2E2.2E0.5Cvlib.5Capp.5Cgfx_apps.5Csimple_draw_d1l2.5Ctarget.5Cd1lx_mango_ghs.5Cobj.5Ccom.322::
                        3493 .LDWlin322:
000010ee 26065c143f00   3494 	mov	4133980,r6
                        3495 	jarl	_v_rd_8,lp
                        3495 <EXPANSION BEGIN>
                        3495 jarl22 _v_rd_8 , lp 
000010f4 80ff0000*      3495 <EXPANSION END>
000010f8 5d570000       3496 	st.b	r10,0[r29]
                        3497 --line919
                        3498 ..lin.D.3A.5CRenesas_Electronics.5CD1x_RGL.5Crgl_ghs_D1Lx_obj_V1.2E2.2E0.5Cvlib.5Capp.5Cgfx_apps.5Csimple_draw_d1l2.5Ctarget.5Cd1lx_mango_ghs.5Cobj.5Ccom.323::
                        3499 .LDWlin323:
000010fc a53d*          3500 	br	.L1142
                        3501 .L1134:
                        3502 --919: 		break;
                        3503 --920: 		case  INDEX_COM_RS_NAVDISTUNIT:/*NavDistUnit*/
                        3504 --921: 			*pRes = v_rd_8(NavDistUnit_handle);
                        3505 --line921
                        3506 ..lin.D.3A.5CRenesas_Electronics.5CD1x_RGL.5Crgl_ghs_D1Lx_obj_V1.2E2.2E0.5Cvlib.5Capp.5Cgfx_apps.5Csimple_draw_d1l2.5Ctarget.5Cd1lx_mango_ghs.5Cobj.5Ccom.324::
                        3507 .LDWlin324:
000010fe 2606a4143f00   3508 	mov	4134052,r6
                        3509 	jarl	_v_rd_8,lp
                        3509 <EXPANSION BEGIN>
                        3509 jarl22 _v_rd_8 , lp 
00001104 80ff0000*      3509 <EXPANSION END>
00001108 5d570000       3510 	st.b	r10,0[r29]
                        3511 --line922
                        3512 ..lin.D.3A.5CRenesas_Electronics.5CD1x_RGL.5Crgl_ghs_D1Lx_obj_V1.2E2.2E0.5Cvlib.5Capp.5Cgfx_apps.5Csimple_draw_d1l2.5Ctarget.5Cd1lx_mango_ghs.5Cobj.5Ccom.325::
                        3513 .LDWlin325:
0000110c a535*          3514 	br	.L1142
                        3515 .L1135:
                        3516 --922: 		break;
                        3517 --924: 		case  INDEX_COM_RS_SECSOFMINUTEADJ:/*SecsOfMinuteAdj*/

                                                                      Page 67
                                                              C:\Users\YINGAO~1\AppData\Local\Temp\gh_000086k1.si
                        3518 --925: 			*pRes = v_rd_8(SecsOfMinuteAdj_handle);
                        3519 --line925
                        3520 ..lin.D.3A.5CRenesas_Electronics.5CD1x_RGL.5Crgl_ghs_D1Lx_obj_V1.2E2.2E0.5Cvlib.5Capp.5Cgfx_apps.5Csimple_draw_d1l2.5Ctarget.5Cd1lx_mango_ghs.5Cobj.5Ccom.326::
                        3521 .LDWlin326:
0000110e 260624193f00   3522 	mov	4135204,r6
                        3523 	jarl	_v_rd_8,lp
                        3523 <EXPANSION BEGIN>
                        3523 jarl22 _v_rd_8 , lp 
00001114 80ff0000*      3523 <EXPANSION END>
00001118 5d570000       3524 	st.b	r10,0[r29]
                        3525 --line926
                        3526 ..lin.D.3A.5CRenesas_Electronics.5CD1x_RGL.5Crgl_ghs_D1Lx_obj_V1.2E2.2E0.5Cvlib.5Capp.5Cgfx_apps.5Csimple_draw_d1l2.5Ctarget.5Cd1lx_mango_ghs.5Cobj.5Ccom.327::
                        3527 .LDWlin327:
0000111c a52d*          3528 	br	.L1142
                        3529 .L1136:
                        3530 --926: 		break;
                        3531 --928: 		case  INDEX_COM_RS_SPDASTSYSTSECM:/*SpdAstSysStsECM*/
                        3532 --929: 			*pRes = v_rd_8(SpdAstSysStsECM_handle);
                        3533 --line929
                        3534 ..lin.D.3A.5CRenesas_Electronics.5CD1x_RGL.5Crgl_ghs_D1Lx_obj_V1.2E2.2E0.5Cvlib.5Capp.5Cgfx_apps.5Csimple_draw_d1l2.5Ctarget.5Cd1lx_mango_ghs.5Cobj.5Ccom.328::
                        3535 .LDWlin328:
0000111e 2606d8193f00   3536 	mov	4135384,r6
                        3537 	jarl	_v_rd_8,lp
                        3537 <EXPANSION BEGIN>
                        3537 jarl22 _v_rd_8 , lp 
00001124 80ff0000*      3537 <EXPANSION END>
00001128 5d570000       3538 	st.b	r10,0[r29]
                        3539 --line930
                        3540 ..lin.D.3A.5CRenesas_Electronics.5CD1x_RGL.5Crgl_ghs_D1Lx_obj_V1.2E2.2E0.5Cvlib.5Capp.5Cgfx_apps.5Csimple_draw_d1l2.5Ctarget.5Cd1lx_mango_ghs.5Cobj.5Ccom.329::
                        3541 .LDWlin329:
0000112c a525*          3542 	br	.L1142
                        3543 .L1137:
                        3544 --930: 		break;
                        3545 --931: 		case  INDEX_COM_RS_SSBENOFFRMNDR:/*SSBEnOffRmndr*/
                        3546 --932: 			*pRes = v_rd_8(SSBEnOffRmndr_handle);
                        3547 --line932
                        3548 ..lin.D.3A.5CRenesas_Electronics.5CD1x_RGL.5Crgl_ghs_D1Lx_obj_V1.2E2.2E0.5Cvlib.5Capp.5Cgfx_apps.5Csimple_draw_d1l2.5Ctarget.5Cd1lx_mango_ghs.5Cobj.5Ccom.330::
                        3549 .LDWlin330:
0000112e 2606681a3f00   3550 	mov	4135528,r6
                        3551 	jarl	_v_rd_8,lp
                        3551 <EXPANSION BEGIN>
                        3551 jarl22 _v_rd_8 , lp 
00001134 80ff0000*      3551 <EXPANSION END>
00001138 5d570000       3552 	st.b	r10,0[r29]
                        3553 --line933
                        3554 ..lin.D.3A.5CRenesas_Electronics.5CD1x_RGL.5Crgl_ghs_D1Lx_obj_V1.2E2.2E0.5Cvlib.5Capp.5Cgfx_apps.5Csimple_draw_d1l2.5Ctarget.5Cd1lx_mango_ghs.5Cobj.5Ccom.331::
                        3555 .LDWlin331:
0000113c a51d*          3556 	br	.L1142
                        3557 .L1138:
                        3558 --933: 		break;
                        3559 --935: 		case  INDEX_COM_RS_CALENDARYEARADJ:/*CalendarYearAdj*/
                        3560 --936: 			*pRes = v_rd_8(CalendarYearAdj_handle);
                        3561 --line936
                        3562 ..lin.D.3A.5CRenesas_Electronics.5CD1x_RGL.5Crgl_ghs_D1Lx_obj_V1.2E2.2E0.5Cvlib.5Capp.5Cgfx_apps.5Csimple_draw_d1l2.5Ctarget.5Cd1lx_mango_ghs.5Cobj.5Ccom.332::
                        3563 .LDWlin332:
0000113e 2606bc053f00   3564 	mov	4130236,r6
                        3565 	jarl	_v_rd_8,lp
                        3565 <EXPANSION BEGIN>
                        3565 jarl22 _v_rd_8 , lp 
00001144 80ff0000*      3565 <EXPANSION END>
00001148 5d570000       3566 	st.b	r10,0[r29]

                                                                      Page 68
                                                              C:\Users\YINGAO~1\AppData\Local\Temp\gh_000086k1.si
                        3567 --line937
                        3568 ..lin.D.3A.5CRenesas_Electronics.5CD1x_RGL.5Crgl_ghs_D1Lx_obj_V1.2E2.2E0.5Cvlib.5Capp.5Cgfx_apps.5Csimple_draw_d1l2.5Ctarget.5Cd1lx_mango_ghs.5Cobj.5Ccom.333::
                        3569 .LDWlin333:
0000114c a515*          3570 	br	.L1142
                        3571 .L1139:
                        3572 --937: 		break;
                        3573 --938: 		case  INDEX_COM_RS_CALENDARMONTHADJ:/*CalendarMonthAdj*/
                        3574 --939: 			*pRes = v_rd_8(CalendarMonthAdj_handle);
                        3575 --line939
                        3576 ..lin.D.3A.5CRenesas_Electronics.5CD1x_RGL.5Crgl_ghs_D1Lx_obj_V1.2E2.2E0.5Cvlib.5Capp.5Cgfx_apps.5Csimple_draw_d1l2.5Ctarget.5Cd1lx_mango_ghs.5Cobj.5Ccom.334::
                        3577 .LDWlin334:
0000114e 260698053f00   3578 	mov	4130200,r6
                        3579 	jarl	_v_rd_8,lp
                        3579 <EXPANSION BEGIN>
                        3579 jarl22 _v_rd_8 , lp 
00001154 80ff0000*      3579 <EXPANSION END>
00001158 5d570000       3580 	st.b	r10,0[r29]
                        3581 --line940
                        3582 ..lin.D.3A.5CRenesas_Electronics.5CD1x_RGL.5Crgl_ghs_D1Lx_obj_V1.2E2.2E0.5Cvlib.5Capp.5Cgfx_apps.5Csimple_draw_d1l2.5Ctarget.5Cd1lx_mango_ghs.5Cobj.5Ccom.335::
                        3583 .LDWlin335:
0000115c a50d*          3584 	br	.L1142
                        3585 .L1140:
                        3586 --940: 		break;
                        3587 --941: 		case  INDEX_COM_RS_CALENDARDAYADJ:/*CalendarDayAdj*/
                        3588 --942: 			*pRes = v_rd_8(CalendarDayAdj_handle);
                        3589 --line942
                        3590 ..lin.D.3A.5CRenesas_Electronics.5CD1x_RGL.5Crgl_ghs_D1Lx_obj_V1.2E2.2E0.5Cvlib.5Capp.5Cgfx_apps.5Csimple_draw_d1l2.5Ctarget.5Cd1lx_mango_ghs.5Cobj.5Ccom.336::
                        3591 .LDWlin336:
0000115e 260674053f00   3592 	mov	4130164,r6
                        3593 	jarl	_v_rd_8,lp
                        3593 <EXPANSION BEGIN>
                        3593 jarl22 _v_rd_8 , lp 
00001164 80ff0000*      3593 <EXPANSION END>
00001168 5d570000       3594 	st.b	r10,0[r29]
                        3595 --line943
                        3596 ..lin.D.3A.5CRenesas_Electronics.5CD1x_RGL.5Crgl_ghs_D1Lx_obj_V1.2E2.2E0.5Cvlib.5Capp.5Cgfx_apps.5Csimple_draw_d1l2.5Ctarget.5Cd1lx_mango_ghs.5Cobj.5Ccom.337::
                        3597 .LDWlin337:
0000116c a505*          3598 	br	.L1142
                        3599 .L1141:
                        3600 --line945
                        3601 ..lin.D.3A.5CRenesas_Electronics.5CD1x_RGL.5Crgl_ghs_D1Lx_obj_V1.2E2.2E0.5Cvlib.5Capp.5Cgfx_apps.5Csimple_draw_d1l2.5Ctarget.5Cd1lx_mango_ghs.5Cobj.5Ccom.338::
                        3602 .LDWlin338:
0000116e 0000           3603 	nop
                        3604 .L1142:
                        3605 --943: 		break;
                        3606 --944:       default:
                        3607 --945:         break;
                        3608 --946: 		    }
                        3609 --947: 	    }
                        3610 --948:     else
                        3611 --949:     {
                        3612 --950:     }
                        3613 --951: }
00001170 0000           3614 	nop
                        3615 --	    .ef
                        3616 .LDW83:
00001172 4006ff00       3617 	dispose	0,{r28,r29,r31},[lp]
                        3618 	.type	_COM_GetSignalValue_8,@function
                        3619 	.size	_COM_GetSignalValue_8,.-_COM_GetSignalValue_8
                        3620 	.align	2
                        3621 .LDW93:

                                                                      Page 69
                                                              C:\Users\YINGAO~1\AppData\Local\Temp\gh_000086k1.si
                        3622 
                        3623 --_Index	r28	param
                        3624 --_pRes	r29	param
                        3625 
                        3626 	.section ".bss","awb"
                        3627 .L1670:
                        3628 	.type	.L1670,@object
                        3629 	.size	.L1670,0
                        3630 	.data
                        3631 	.ghsnote jtable,2097156,.L1672,.L1672,.L1672,212
                        3632 	.text
                        3633 
                        3634 
                        3635 --954: void COM_GetSignalValue_BOOL(U16 Index, PU8 pRes)
                        3636 	.align	2
                        3637 	.align	2
                        3638 	.global	_COM_GetSignalValue_BOOL
                        3639 _COM_GetSignalValue_BOOL:
00001176 8007e100       3640 	prepare	{r28,r29,r31},0
0000117a c6e6ffff       3641 	andi	65535,r6,r28
0000117e 07e8           3642 	mov	r7,r29
                        3643 --	    .bf
                        3644 .LDW04:
                        3645 --955: {
                        3646 --957: 	if(NULL != pRes)
00001180 e0e9           3647 	cmp	zero,r29
00001182 e2074108*      3648 	be	.L2540
                        3649 --958: 	{
                        3650 --959: 		switch(Index)
                        3651 --line959
                        3652 ..lin.D.3A.5CRenesas_Electronics.5CD1x_RGL.5Crgl_ghs_D1Lx_obj_V1.2E2.2E0.5Cvlib.5Capp.5Cgfx_apps.5Csimple_draw_d1l2.5Ctarget.5Cd1lx_mango_ghs.5Cobj.5Ccom.339::
                        3653 .LDWlin339:
00001186 1c08           3654 	mov	r28,r1
00001188 01060eff       3655 	addi	-242,r1,zero
0000118c e107e301*      3656 	bl	.L2886
00001190 01068dff       3657 	addi	-115,r1,zero
00001194 e1072908*      3658 	bl	.L2539
00001198 0170           3659 	mov	r1,r14
0000119a c272           3660 	shl	2,r14
0000119c ee0600000000*  3661 	jmp	.L2889[r14]
                        3662 .L2889:
000011a2 80071a08*      3663 	jr	.L2539
000011a6 80071608*      3664 	jr	.L2539
000011aa 80071208*      3665 	jr	.L2539
000011ae 80070e08*      3666 	jr	.L2539
000011b2 80077802*      3667 	jr	.L2458
000011b6 80070608*      3668 	jr	.L2539
000011ba 80070208*      3669 	jr	.L2539
000011be 8007b402*      3670 	jr	.L2462
000011c2 8007fa07*      3671 	jr	.L2539
000011c6 8007f607*      3672 	jr	.L2539
000011ca 8007f207*      3673 	jr	.L2539
000011ce 8007ee07*      3674 	jr	.L2539
000011d2 8007ea07*      3675 	jr	.L2539
000011d6 8007e607*      3676 	jr	.L2539
000011da 8007e207*      3677 	jr	.L2539
000011de 8007de07*      3678 	jr	.L2539
000011e2 8007b402*      3679 	jr	.L2464
000011e6 8007ba04*      3680 	jr	.L2493
000011ea 8007d207*      3681 	jr	.L2539
000011ee 8007ce07*      3682 	jr	.L2539

                                                                      Page 70
                                                              C:\Users\YINGAO~1\AppData\Local\Temp\gh_000086k1.si
000011f2 8007ca07*      3683 	jr	.L2539
000011f6 8007c607*      3684 	jr	.L2539
000011fa 8007c207*      3685 	jr	.L2539
000011fe 8007be07*      3686 	jr	.L2539
00001202 8007ba07*      3687 	jr	.L2539
00001206 8007b607*      3688 	jr	.L2539
0000120a 8007b207*      3689 	jr	.L2539
0000120e 8007ae07*      3690 	jr	.L2539
00001212 80070203*      3691 	jr	.L2471
00001216 80071003*      3692 	jr	.L2472
0000121a 80071e03*      3693 	jr	.L2473
0000121e 80079e07*      3694 	jr	.L2539
00001222 80079a07*      3695 	jr	.L2539
00001226 80079607*      3696 	jr	.L2539
0000122a 80079207*      3697 	jr	.L2539
0000122e 8007ac03*      3698 	jr	.L2482
00001232 8007ba03*      3699 	jr	.L2483
00001236 80078607*      3700 	jr	.L2539
0000123a 80078207*      3701 	jr	.L2539
0000123e 8007c003*      3702 	jr	.L2484
00001242 8007ce03*      3703 	jr	.L2485
00001246 8007dc03*      3704 	jr	.L2486
0000124a 8007ea03*      3705 	jr	.L2487
0000124e 80076e07*      3706 	jr	.L2539
00001252 8007f403*      3707 	jr	.L2488
00001256 80076607*      3708 	jr	.L2539
0000125a 80076207*      3709 	jr	.L2539
0000125e 8007fa03*      3710 	jr	.L2489
00001262 80070804*      3711 	jr	.L2490
00001266 80071604*      3712 	jr	.L2491
0000126a 80072404*      3713 	jr	.L2492
0000126e 80074404*      3714 	jr	.L2494
00001272 80074a07*      3715 	jr	.L2539
00001276 80074607*      3716 	jr	.L2539
0000127a 80074207*      3717 	jr	.L2539
0000127e 80073e07*      3718 	jr	.L2539
00001282 80073a07*      3719 	jr	.L2539
00001286 80073607*      3720 	jr	.L2539
0000128a 80073207*      3721 	jr	.L2539
0000128e 80072e07*      3722 	jr	.L2539
00001292 80072a07*      3723 	jr	.L2539
00001296 80072607*      3724 	jr	.L2539
0000129a 80072207*      3725 	jr	.L2539
0000129e 80071e07*      3726 	jr	.L2539
000012a2 80072204*      3727 	jr	.L2495
000012a6 80071607*      3728 	jr	.L2539
000012aa 80071207*      3729 	jr	.L2539
000012ae 80070e07*      3730 	jr	.L2539
000012b2 80070a07*      3731 	jr	.L2539
000012b6 80072004*      3732 	jr	.L2496
000012ba 80072e04*      3733 	jr	.L2497
000012be 8007fe06*      3734 	jr	.L2539
000012c2 8007fa06*      3735 	jr	.L2539
000012c6 8007f606*      3736 	jr	.L2539
000012ca 80073004*      3737 	jr	.L2498
000012ce 8007ee06*      3738 	jr	.L2539
000012d2 80075e04*      3739 	jr	.L2501
000012d6 8007c604*      3740 	jr	.L2507
000012da 8007e604*      3741 	jr	.L2509
000012de 80071805*      3742 	jr	.L2512
000012e2 80072605*      3743 	jr	.L2513

                                                                      Page 71
                                                              C:\Users\YINGAO~1\AppData\Local\Temp\gh_000086k1.si
000012e6 80076a05*      3744 	jr	.L2517
000012ea 80077805*      3745 	jr	.L2518
000012ee 80071e06*      3746 	jr	.L2528
000012f2 8007ca06*      3747 	jr	.L2539
000012f6 8007c606*      3748 	jr	.L2539
000012fa 8007c206*      3749 	jr	.L2539
000012fe 8007be06*      3750 	jr	.L2539
00001302 8007ba06*      3751 	jr	.L2539
00001306 8007b606*      3752 	jr	.L2539
0000130a 8007b206*      3753 	jr	.L2539
0000130e 8007ae06*      3754 	jr	.L2539
00001312 8007aa06*      3755 	jr	.L2539
00001316 8007a606*      3756 	jr	.L2539
0000131a 8007a206*      3757 	jr	.L2539
0000131e 80079e06*      3758 	jr	.L2539
00001322 80079a06*      3759 	jr	.L2539
00001326 80079606*      3760 	jr	.L2539
0000132a 80079206*      3761 	jr	.L2539
0000132e 80070e06*      3762 	jr	.L2531
00001332 80071a06*      3763 	jr	.L2532
00001336 80072606*      3764 	jr	.L2533
0000133a 80073206*      3765 	jr	.L2534
0000133e 80077e06*      3766 	jr	.L2539
00001342 80077a06*      3767 	jr	.L2539
00001346 80077606*      3768 	jr	.L2539
0000134a 80073206*      3769 	jr	.L2535
0000134e 80073e06*      3770 	jr	.L2536
00001352 80076a06*      3771 	jr	.L2539
00001356 80074606*      3772 	jr	.L2537
0000135a 80076206*      3773 	jr	.L2539
0000135e 80075e06*      3774 	jr	.L2539
00001362 80075a06*      3775 	jr	.L2539
00001366 80075606*      3776 	jr	.L2539
0000136a 80074206*      3777 	jr	.L2538
                        3778 .L2886:
0000136e 010e0eff       3779 	addi	-242,r1,r1
00001372 0106d6ff       3780 	addi	-42,r1,zero
00001376 e1074706*      3781 	bl	.L2539
0000137a c20a           3782 	shl	2,r1
0000137c e10600000000*  3783 	jmp	.L2891[r1]
                        3784 .L2891:
00001382 80070201*      3785 	jr	.L2463
00001386 8007ee04*      3786 	jr	.L2519
0000138a 8007fc04*      3787 	jr	.L2520
0000138e 80070a05*      3788 	jr	.L2521
00001392 80071805*      3789 	jr	.L2522
00001396 80072605*      3790 	jr	.L2523
0000139a 80073205*      3791 	jr	.L2524
0000139e 80073e05*      3792 	jr	.L2525
000013a2 80074a05*      3793 	jr	.L2526
000013a6 80075605*      3794 	jr	.L2527
000013aa 8007a001*      3795 	jr	.L2474
000013ae 8007ae01*      3796 	jr	.L2475
000013b2 8007bc01*      3797 	jr	.L2476
000013b6 8007ca01*      3798 	jr	.L2477
000013ba 8007d801*      3799 	jr	.L2478
000013be 8007e601*      3800 	jr	.L2479
000013c2 8007f401*      3801 	jr	.L2480
000013c6 80070202*      3802 	jr	.L2481
000013ca 80075205*      3803 	jr	.L2529
000013ce 80075e05*      3804 	jr	.L2530

                                                                      Page 72
                                                              C:\Users\YINGAO~1\AppData\Local\Temp\gh_000086k1.si
000013d2 8007d600*      3805 	jr	.L2465
000013d6 8007e400*      3806 	jr	.L2466
000013da 8007f200*      3807 	jr	.L2467
000013de 80070001*      3808 	jr	.L2468
000013e2 80070e01*      3809 	jr	.L2469
000013e6 80071c01*      3810 	jr	.L2470
000013ea 80075803*      3811 	jr	.L2502
000013ee 80076603*      3812 	jr	.L2503
000013f2 80077403*      3813 	jr	.L2504
000013f6 80078203*      3814 	jr	.L2505
000013fa 80079003*      3815 	jr	.L2506
000013fe 80070e03*      3816 	jr	.L2499
00001402 80071c03*      3817 	jr	.L2500
00001406 80073600*      3818 	jr	.L2459
0000140a 80074400*      3819 	jr	.L2460
0000140e 80075200*      3820 	jr	.L2461
00001412 8007c003*      3821 	jr	.L2510
00001416 8007ce03*      3822 	jr	.L2511
0000141a 80079403*      3823 	jr	.L2508
0000141e 8007fc03*      3824 	jr	.L2514
00001422 80070a04*      3825 	jr	.L2515
00001426 80071804*      3826 	jr	.L2516
                        3827 .L2458:
                        3828 --960: 		{
                        3829 --961:               case  INDEX_COM_RS_PWRMDMSTRIGNA:    /*PwrMdMstrIgnA*/
                        3830 --962: 			*pRes = v_rd_bool(PwrMdMstrIgnA_handle);
                        3831 --line962
                        3832 ..lin.D.3A.5CRenesas_Electronics.5CD1x_RGL.5Crgl_ghs_D1Lx_obj_V1.2E2.2E0.5Cvlib.5Capp.5Cgfx_apps.5Csimple_draw_d1l2.5Ctarget.5Cd1lx_mango_ghs.5Cobj.5Ccom.340::
                        3833 .LDWlin340:
0000142a 2606a0153f00   3834 	mov	4134304,r6
                        3835 	jarl	_v_rd_bool,lp
                        3835 <EXPANSION BEGIN>
                        3835 jarl22 _v_rd_bool , lp 
00001430 80ff0000*      3835 <EXPANSION END>
00001434 5d570000       3836 	st.b	r10,0[r29]
                        3837 --line963
                        3838 ..lin.D.3A.5CRenesas_Electronics.5CD1x_RGL.5Crgl_ghs_D1Lx_obj_V1.2E2.2E0.5Cvlib.5Capp.5Cgfx_apps.5Csimple_draw_d1l2.5Ctarget.5Cd1lx_mango_ghs.5Cobj.5Ccom.341::
                        3839 .LDWlin341:
00001438 80078a05*      3840 	br	.L2540
                        3841 .L2459:
                        3842 --963: 		break;
                        3843 --964:               case  INDEX_COM_RS_RBRKLGHTF:    /*RBrkLghtF*/
                        3844 --965: 			*pRes = v_rd_bool(RBrkLghtF_handle);
                        3845 --line965
                        3846 ..lin.D.3A.5CRenesas_Electronics.5CD1x_RGL.5Crgl_ghs_D1Lx_obj_V1.2E2.2E0.5Cvlib.5Capp.5Cgfx_apps.5Csimple_draw_d1l2.5Ctarget.5Cd1lx_mango_ghs.5Cobj.5Ccom.342::
                        3847 .LDWlin342:
0000143c 2606e8153f00   3848 	mov	4134376,r6
                        3849 	jarl	_v_rd_bool,lp
                        3849 <EXPANSION BEGIN>
                        3849 jarl22 _v_rd_bool , lp 
00001442 80ff0000*      3849 <EXPANSION END>
00001446 5d570000       3850 	st.b	r10,0[r29]
                        3851 --line966
                        3852 ..lin.D.3A.5CRenesas_Electronics.5CD1x_RGL.5Crgl_ghs_D1Lx_obj_V1.2E2.2E0.5Cvlib.5Capp.5Cgfx_apps.5Csimple_draw_d1l2.5Ctarget.5Cd1lx_mango_ghs.5Cobj.5Ccom.343::
                        3853 .LDWlin343:
0000144a 80077805*      3854 	br	.L2540
                        3855 .L2460:
                        3856 --966: 		break;
                        3857 --967:               case  INDEX_COM_RS_RDIPDBEAMLGHTF:    /*RDipdBeamLghtF*/
                        3858 --968: 			*pRes = v_rd_bool(RDipdBeamLghtF_handle);
                        3859 --line968

                                                                      Page 73
                                                              C:\Users\YINGAO~1\AppData\Local\Temp\gh_000086k1.si
                        3860 ..lin.D.3A.5CRenesas_Electronics.5CD1x_RGL.5Crgl_ghs_D1Lx_obj_V1.2E2.2E0.5Cvlib.5Capp.5Cgfx_apps.5Csimple_draw_d1l2.5Ctarget.5Cd1lx_mango_ghs.5Cobj.5Ccom.344::
                        3861 .LDWlin344:
0000144e 26060c163f00   3862 	mov	4134412,r6
                        3863 	jarl	_v_rd_bool,lp
                        3863 <EXPANSION BEGIN>
                        3863 jarl22 _v_rd_bool , lp 
00001454 80ff0000*      3863 <EXPANSION END>
00001458 5d570000       3864 	st.b	r10,0[r29]
                        3865 --line969
                        3866 ..lin.D.3A.5CRenesas_Electronics.5CD1x_RGL.5Crgl_ghs_D1Lx_obj_V1.2E2.2E0.5Cvlib.5Capp.5Cgfx_apps.5Csimple_draw_d1l2.5Ctarget.5Cd1lx_mango_ghs.5Cobj.5Ccom.345::
                        3867 .LDWlin345:
0000145c 80076605*      3868 	br	.L2540
                        3869 .L2461:
                        3870 --969: 		break;
                        3871 --970:               case  INDEX_COM_RS_RDIRCNINDLGHTF:    /*RDircnIndLghtF*/
                        3872 --971: 			*pRes = v_rd_bool(RDircnIndLghtF_handle);
                        3873 --line971
                        3874 ..lin.D.3A.5CRenesas_Electronics.5CD1x_RGL.5Crgl_ghs_D1Lx_obj_V1.2E2.2E0.5Cvlib.5Capp.5Cgfx_apps.5Csimple_draw_d1l2.5Ctarget.5Cd1lx_mango_ghs.5Cobj.5Ccom.346::
                        3875 .LDWlin346:
00001460 260630163f00   3876 	mov	4134448,r6
                        3877 	jarl	_v_rd_bool,lp
                        3877 <EXPANSION BEGIN>
                        3877 jarl22 _v_rd_bool , lp 
00001466 80ff0000*      3877 <EXPANSION END>
0000146a 5d570000       3878 	st.b	r10,0[r29]
                        3879 --line972
                        3880 ..lin.D.3A.5CRenesas_Electronics.5CD1x_RGL.5Crgl_ghs_D1Lx_obj_V1.2E2.2E0.5Cvlib.5Capp.5Cgfx_apps.5Csimple_draw_d1l2.5Ctarget.5Cd1lx_mango_ghs.5Cobj.5Ccom.347::
                        3881 .LDWlin347:
0000146e 80075405*      3882 	br	.L2540
                        3883 .L2462:
                        3884 --972: 		break;
                        3885 --973: 		
                        3886 --974: 		case  INDEX_COM_RS_BCMEMGCSP:/*BCMEmgcSp*/
                        3887 --975: 			*pRes = v_rd_bool(BCMEmgcSp_handle);
                        3888 --line975
                        3889 ..lin.D.3A.5CRenesas_Electronics.5CD1x_RGL.5Crgl_ghs_D1Lx_obj_V1.2E2.2E0.5Cvlib.5Capp.5Cgfx_apps.5Csimple_draw_d1l2.5Ctarget.5Cd1lx_mango_ghs.5Cobj.5Ccom.348::
                        3890 .LDWlin348:
00001472 2606cc013f00   3891 	mov	4129228,r6
                        3892 	jarl	_v_rd_bool,lp
                        3892 <EXPANSION BEGIN>
                        3892 jarl22 _v_rd_bool , lp 
00001478 80ff0000*      3892 <EXPANSION END>
0000147c 5d570000       3893 	st.b	r10,0[r29]
                        3894 --line976
                        3895 ..lin.D.3A.5CRenesas_Electronics.5CD1x_RGL.5Crgl_ghs_D1Lx_obj_V1.2E2.2E0.5Cvlib.5Capp.5Cgfx_apps.5Csimple_draw_d1l2.5Ctarget.5Cd1lx_mango_ghs.5Cobj.5Ccom.349::
                        3896 .LDWlin349:
00001480 80074205*      3897 	br	.L2540
                        3898 .L2463:
                        3899 --976: 		break;
                        3900 --977: 		case  INDEX_COM_RS_BCMGEARSHFTPARKNTRLESR:/*BCMGearShftParkNtrlESR*/
                        3901 --978: 			*pRes = v_rd_bool(BCMGearShftParkNtrlESR_handle);
                        3902 --line978
                        3903 ..lin.D.3A.5CRenesas_Electronics.5CD1x_RGL.5Crgl_ghs_D1Lx_obj_V1.2E2.2E0.5Cvlib.5Capp.5Cgfx_apps.5Csimple_draw_d1l2.5Ctarget.5Cd1lx_mango_ghs.5Cobj.5Ccom.350::
                        3904 .LDWlin350:
00001484 2606f0013f00   3905 	mov	4129264,r6
                        3906 	jarl	_v_rd_bool,lp
                        3906 <EXPANSION BEGIN>
                        3906 jarl22 _v_rd_bool , lp 
0000148a 80ff0000*      3906 <EXPANSION END>
0000148e 5d570000       3907 	st.b	r10,0[r29]
                        3908 --line979

                                                                      Page 74
                                                              C:\Users\YINGAO~1\AppData\Local\Temp\gh_000086k1.si
                        3909 ..lin.D.3A.5CRenesas_Electronics.5CD1x_RGL.5Crgl_ghs_D1Lx_obj_V1.2E2.2E0.5Cvlib.5Capp.5Cgfx_apps.5Csimple_draw_d1l2.5Ctarget.5Cd1lx_mango_ghs.5Cobj.5Ccom.351::
                        3910 .LDWlin351:
00001492 80073005*      3911 	br	.L2540
                        3912 .L2464:
                        3913 --979: 		break;
                        3914 --980: 			
                        3915 --981: 		case  INDEX_COM_RS_ENRUNA:/*EnRunA*/
                        3916 --982: 			*pRes = v_rd_bool(EnRunA_handle);
                        3917 --line982
                        3918 ..lin.D.3A.5CRenesas_Electronics.5CD1x_RGL.5Crgl_ghs_D1Lx_obj_V1.2E2.2E0.5Cvlib.5Capp.5Cgfx_apps.5Csimple_draw_d1l2.5Ctarget.5Cd1lx_mango_ghs.5Cobj.5Ccom.352::
                        3919 .LDWlin352:
00001496 2606cc0a3f00   3920 	mov	4131532,r6
                        3921 	jarl	_v_rd_bool,lp
                        3921 <EXPANSION BEGIN>
                        3921 jarl22 _v_rd_bool , lp 
0000149c 80ff0000*      3921 <EXPANSION END>
000014a0 5d570000       3922 	st.b	r10,0[r29]
                        3923 --line983
                        3924 ..lin.D.3A.5CRenesas_Electronics.5CD1x_RGL.5Crgl_ghs_D1Lx_obj_V1.2E2.2E0.5Cvlib.5Capp.5Cgfx_apps.5Csimple_draw_d1l2.5Ctarget.5Cd1lx_mango_ghs.5Cobj.5Ccom.353::
                        3925 .LDWlin353:
000014a4 80071e05*      3926 	br	.L2540
                        3927 .L2465:
                        3928 --983: 		break;
                        3929 --984: 		case  INDEX_COM_RS_FASNSBLTAUDRMNDR:/*FasnSbltAudRmndr*/
                        3930 --985: 			*pRes = v_rd_bool(FasnSbltAudRmndr_handle);
                        3931 --line985
                        3932 ..lin.D.3A.5CRenesas_Electronics.5CD1x_RGL.5Crgl_ghs_D1Lx_obj_V1.2E2.2E0.5Cvlib.5Capp.5Cgfx_apps.5Csimple_draw_d1l2.5Ctarget.5Cd1lx_mango_ghs.5Cobj.5Ccom.354::
                        3933 .LDWlin354:
000014a8 2606580c3f00   3934 	mov	4131928,r6
                        3935 	jarl	_v_rd_bool,lp
                        3935 <EXPANSION BEGIN>
                        3935 jarl22 _v_rd_bool , lp 
000014ae 80ff0000*      3935 <EXPANSION END>
000014b2 5d570000       3936 	st.b	r10,0[r29]
                        3937 --line986
                        3938 ..lin.D.3A.5CRenesas_Electronics.5CD1x_RGL.5Crgl_ghs_D1Lx_obj_V1.2E2.2E0.5Cvlib.5Capp.5Cgfx_apps.5Csimple_draw_d1l2.5Ctarget.5Cd1lx_mango_ghs.5Cobj.5Ccom.355::
                        3939 .LDWlin355:
000014b6 80070c05*      3940 	br	.L2540
                        3941 .L2466:
                        3942 --986: 		break;
                        3943 --987: 		case  INDEX_COM_RS_FICMDISTUNITADJTREQA:/*FICMDistUnitAdjtReqA*/
                        3944 --988: 			*pRes = v_rd_bool(FICMDistUnitAdjtReqA_handle);
                        3945 --line988
                        3946 ..lin.D.3A.5CRenesas_Electronics.5CD1x_RGL.5Crgl_ghs_D1Lx_obj_V1.2E2.2E0.5Cvlib.5Capp.5Cgfx_apps.5Csimple_draw_d1l2.5Ctarget.5Cd1lx_mango_ghs.5Cobj.5Ccom.356::
                        3947 .LDWlin356:
000014ba 2606e80c3f00   3948 	mov	4132072,r6
                        3949 	jarl	_v_rd_bool,lp
                        3949 <EXPANSION BEGIN>
                        3949 jarl22 _v_rd_bool , lp 
000014c0 80ff0000*      3949 <EXPANSION END>
000014c4 5d570000       3950 	st.b	r10,0[r29]
                        3951 --line989
                        3952 ..lin.D.3A.5CRenesas_Electronics.5CD1x_RGL.5Crgl_ghs_D1Lx_obj_V1.2E2.2E0.5Cvlib.5Capp.5Cgfx_apps.5Csimple_draw_d1l2.5Ctarget.5Cd1lx_mango_ghs.5Cobj.5Ccom.357::
                        3953 .LDWlin357:
000014c8 8007fa04*      3954 	br	.L2540
                        3955 .L2467:
                        3956 --989: 		break;
                        3957 --990: 		case  INDEX_COM_RS_FICMFUELCSUMPUNTADJRA:/*FICMFuelCsumpUntAdjARA*/
                        3958 --991: 			*pRes = v_rd_bool(FICMFuelCsumpUntAdjARA_handle);
                        3959 --line991
                        3960 ..lin.D.3A.5CRenesas_Electronics.5CD1x_RGL.5Crgl_ghs_D1Lx_obj_V1.2E2.2E0.5Cvlib.5Capp.5Cgfx_apps.5Csimple_draw_d1l2.5Ctarget.5Cd1lx_mango_ghs.5Cobj.5Ccom.358::

                                                                      Page 75
                                                              C:\Users\YINGAO~1\AppData\Local\Temp\gh_000086k1.si
                        3961 .LDWlin358:
000014cc 2606540d3f00   3962 	mov	4132180,r6
                        3963 	jarl	_v_rd_bool,lp
                        3963 <EXPANSION BEGIN>
                        3963 jarl22 _v_rd_bool , lp 
000014d2 80ff0000*      3963 <EXPANSION END>
000014d6 5d570000       3964 	st.b	r10,0[r29]
                        3965 --line992
                        3966 ..lin.D.3A.5CRenesas_Electronics.5CD1x_RGL.5Crgl_ghs_D1Lx_obj_V1.2E2.2E0.5Cvlib.5Capp.5Cgfx_apps.5Csimple_draw_d1l2.5Ctarget.5Cd1lx_mango_ghs.5Cobj.5Ccom.359::
                        3967 .LDWlin359:
000014da 8007e804*      3968 	br	.L2540
                        3969 .L2468:
                        3970 --992: 		break;
                        3971 --993: 		case  INDEX_COM_RS_FICMOVERSPDTHRSHLDADJTRA:/*FICMOvrSpdThrshldAdjtRA*/
                        3972 --994: 			*pRes = v_rd_bool(FICMOvrSpdThrshldAdjtRA_handle);
                        3973 --line994
                        3974 ..lin.D.3A.5CRenesas_Electronics.5CD1x_RGL.5Crgl_ghs_D1Lx_obj_V1.2E2.2E0.5Cvlib.5Capp.5Cgfx_apps.5Csimple_draw_d1l2.5Ctarget.5Cd1lx_mango_ghs.5Cobj.5Ccom.360::
                        3975 .LDWlin360:
000014de 2606c00d3f00   3976 	mov	4132288,r6
                        3977 	jarl	_v_rd_bool,lp
                        3977 <EXPANSION BEGIN>
                        3977 jarl22 _v_rd_bool , lp 
000014e4 80ff0000*      3977 <EXPANSION END>
000014e8 5d570000       3978 	st.b	r10,0[r29]
                        3979 --line995
                        3980 ..lin.D.3A.5CRenesas_Electronics.5CD1x_RGL.5Crgl_ghs_D1Lx_obj_V1.2E2.2E0.5Cvlib.5Capp.5Cgfx_apps.5Csimple_draw_d1l2.5Ctarget.5Cd1lx_mango_ghs.5Cobj.5Ccom.361::
                        3981 .LDWlin361:
000014ec 8007d604*      3982 	br	.L2540
                        3983 .L2469:
                        3984 --995: 		break;
                        3985 --996: 		case  INDEX_COM_RS_FICMTEMUNTADJTREQA:/*FICMTemUntAdjtReqA*/
                        3986 --997: 			*pRes = v_rd_bool(FICMTemUntAdjtReqA_handle);
                        3987 --line997
                        3988 ..lin.D.3A.5CRenesas_Electronics.5CD1x_RGL.5Crgl_ghs_D1Lx_obj_V1.2E2.2E0.5Cvlib.5Capp.5Cgfx_apps.5Csimple_draw_d1l2.5Ctarget.5Cd1lx_mango_ghs.5Cobj.5Ccom.362::
                        3989 .LDWlin362:
000014f0 2606080e3f00   3990 	mov	4132360,r6
                        3991 	jarl	_v_rd_bool,lp
                        3991 <EXPANSION BEGIN>
                        3991 jarl22 _v_rd_bool , lp 
000014f6 80ff0000*      3991 <EXPANSION END>
000014fa 5d570000       3992 	st.b	r10,0[r29]
                        3993 --line998
                        3994 ..lin.D.3A.5CRenesas_Electronics.5CD1x_RGL.5Crgl_ghs_D1Lx_obj_V1.2E2.2E0.5Cvlib.5Capp.5Cgfx_apps.5Csimple_draw_d1l2.5Ctarget.5Cd1lx_mango_ghs.5Cobj.5Ccom.363::
                        3995 .LDWlin363:
000014fe 8007c404*      3996 	br	.L2540
                        3997 .L2470:
                        3998 --998: 		break;
                        3999 --999: 		case  INDEX_COM_RS_FICMTYREPRESSUREUNTADJTREQA:/*FICMTyrePressureUntAdjtReqA*/
                        4000 --1000: 			*pRes = v_rd_bool(FICMTyrePressureUntAdjtReqA_handle);
                        4001 --line1000
                        4002 ..lin.D.3A.5CRenesas_Electronics.5CD1x_RGL.5Crgl_ghs_D1Lx_obj_V1.2E2.2E0.5Cvlib.5Capp.5Cgfx_apps.5Csimple_draw_d1l2.5Ctarget.5Cd1lx_mango_ghs.5Cobj.5Ccom.364::
                        4003 .LDWlin364:
00001502 2606500e3f00   4004 	mov	4132432,r6
                        4005 	jarl	_v_rd_bool,lp
                        4005 <EXPANSION BEGIN>
                        4005 jarl22 _v_rd_bool , lp 
00001508 80ff0000*      4005 <EXPANSION END>
0000150c 5d570000       4006 	st.b	r10,0[r29]
                        4007 --line1001
                        4008 ..lin.D.3A.5CRenesas_Electronics.5CD1x_RGL.5Crgl_ghs_D1Lx_obj_V1.2E2.2E0.5Cvlib.5Capp.5Cgfx_apps.5Csimple_draw_d1l2.5Ctarget.5Cd1lx_mango_ghs.5Cobj.5Ccom.365::
                        4009 .LDWlin365:

                                                                      Page 76
                                                              C:\Users\YINGAO~1\AppData\Local\Temp\gh_000086k1.si
00001510 8007b204*      4010 	br	.L2540
                        4011 .L2471:
                        4012 --1001: 		break;
                        4013 --1002: 		
                        4014 --1003: 		case  INDEX_COM_RS_CCA:/*CCA*/
                        4015 --1004: 			*pRes = v_rd_bool(CCA_handle);
                        4016 --line1004
                        4017 ..lin.D.3A.5CRenesas_Electronics.5CD1x_RGL.5Crgl_ghs_D1Lx_obj_V1.2E2.2E0.5Cvlib.5Capp.5Cgfx_apps.5Csimple_draw_d1l2.5Ctarget.5Cd1lx_mango_ghs.5Cobj.5Ccom.366::
                        4018 .LDWlin366:
00001514 2606e0053f00   4019 	mov	4130272,r6
                        4020 	jarl	_v_rd_bool,lp
                        4020 <EXPANSION BEGIN>
                        4020 jarl22 _v_rd_bool , lp 
0000151a 80ff0000*      4020 <EXPANSION END>
0000151e 5d570000       4021 	st.b	r10,0[r29]
                        4022 --line1005
                        4023 ..lin.D.3A.5CRenesas_Electronics.5CD1x_RGL.5Crgl_ghs_D1Lx_obj_V1.2E2.2E0.5Cvlib.5Capp.5Cgfx_apps.5Csimple_draw_d1l2.5Ctarget.5Cd1lx_mango_ghs.5Cobj.5Ccom.367::
                        4024 .LDWlin367:
00001522 8007a004*      4025 	br	.L2540
                        4026 .L2472:
                        4027 --1005: 		break;
                        4028 --1006: 		case  INDEX_COM_RS_CCENBD:/*CCEnbd*/
                        4029 --1007: 			*pRes = v_rd_bool(CCEnbd_handle);
                        4030 --line1007
                        4031 ..lin.D.3A.5CRenesas_Electronics.5CD1x_RGL.5Crgl_ghs_D1Lx_obj_V1.2E2.2E0.5Cvlib.5Capp.5Cgfx_apps.5Csimple_draw_d1l2.5Ctarget.5Cd1lx_mango_ghs.5Cobj.5Ccom.368::
                        4032 .LDWlin368:
00001526 260604063f00   4033 	mov	4130308,r6
                        4034 	jarl	_v_rd_bool,lp
                        4034 <EXPANSION BEGIN>
                        4034 jarl22 _v_rd_bool , lp 
0000152c 80ff0000*      4034 <EXPANSION END>
00001530 5d570000       4035 	st.b	r10,0[r29]
                        4036 --line1008
                        4037 ..lin.D.3A.5CRenesas_Electronics.5CD1x_RGL.5Crgl_ghs_D1Lx_obj_V1.2E2.2E0.5Cvlib.5Capp.5Cgfx_apps.5Csimple_draw_d1l2.5Ctarget.5Cd1lx_mango_ghs.5Cobj.5Ccom.369::
                        4038 .LDWlin369:
00001534 80078e04*      4039 	br	.L2540
                        4040 .L2473:
                        4041 --1008: 		break;
                        4042 --1009: 		case  INDEX_COM_RS_CCFLTPRST:/*CCFltPrst*/
                        4043 --1010: 			*pRes = v_rd_bool(CCFltPrst_handle);
                        4044 --line1010
                        4045 ..lin.D.3A.5CRenesas_Electronics.5CD1x_RGL.5Crgl_ghs_D1Lx_obj_V1.2E2.2E0.5Cvlib.5Capp.5Cgfx_apps.5Csimple_draw_d1l2.5Ctarget.5Cd1lx_mango_ghs.5Cobj.5Ccom.370::
                        4046 .LDWlin370:
00001538 260628063f00   4047 	mov	4130344,r6
                        4048 	jarl	_v_rd_bool,lp
                        4048 <EXPANSION BEGIN>
                        4048 jarl22 _v_rd_bool , lp 
0000153e 80ff0000*      4048 <EXPANSION END>
00001542 5d570000       4049 	st.b	r10,0[r29]
                        4050 --line1011
                        4051 ..lin.D.3A.5CRenesas_Electronics.5CD1x_RGL.5Crgl_ghs_D1Lx_obj_V1.2E2.2E0.5Cvlib.5Capp.5Cgfx_apps.5Csimple_draw_d1l2.5Ctarget.5Cd1lx_mango_ghs.5Cobj.5Ccom.371::
                        4052 .LDWlin371:
00001546 80077c04*      4053 	br	.L2540
                        4054 .L2474:
                        4055 --1011: 		break;
                        4056 --1012: 		case  INDEX_COM_RS_CHMA:/*ChmA*/
                        4057 --1013: 			*pRes = v_rd_bool(ChmA_handle);
                        4058 --line1013
                        4059 ..lin.D.3A.5CRenesas_Electronics.5CD1x_RGL.5Crgl_ghs_D1Lx_obj_V1.2E2.2E0.5Cvlib.5Capp.5Cgfx_apps.5Csimple_draw_d1l2.5Ctarget.5Cd1lx_mango_ghs.5Cobj.5Ccom.372::
                        4060 .LDWlin372:
0000154a 26064c063f00   4061 	mov	4130380,r6

                                                                      Page 77
                                                              C:\Users\YINGAO~1\AppData\Local\Temp\gh_000086k1.si
                        4062 	jarl	_v_rd_bool,lp
                        4062 <EXPANSION BEGIN>
                        4062 jarl22 _v_rd_bool , lp 
00001550 80ff0000*      4062 <EXPANSION END>
00001554 5d570000       4063 	st.b	r10,0[r29]
                        4064 --line1014
                        4065 ..lin.D.3A.5CRenesas_Electronics.5CD1x_RGL.5Crgl_ghs_D1Lx_obj_V1.2E2.2E0.5Cvlib.5Capp.5Cgfx_apps.5Csimple_draw_d1l2.5Ctarget.5Cd1lx_mango_ghs.5Cobj.5Ccom.373::
                        4066 .LDWlin373:
00001558 80076a04*      4067 	br	.L2540
                        4068 .L2475:
                        4069 --1014: 		break;
                        4070 --1015: 		case  INDEX_COM_RS_DAYTIMERUNNINGLGHTF:/*DayTimeRunningLghtF*/
                        4071 --1016: 			*pRes = v_rd_bool(DayTimeRunningLghtF_handle);
                        4072 --line1016
                        4073 ..lin.D.3A.5CRenesas_Electronics.5CD1x_RGL.5Crgl_ghs_D1Lx_obj_V1.2E2.2E0.5Cvlib.5Capp.5Cgfx_apps.5Csimple_draw_d1l2.5Ctarget.5Cd1lx_mango_ghs.5Cobj.5Ccom.374::
                        4074 .LDWlin374:
0000155c 2606b8063f00   4075 	mov	4130488,r6
                        4076 	jarl	_v_rd_bool,lp
                        4076 <EXPANSION BEGIN>
                        4076 jarl22 _v_rd_bool , lp 
00001562 80ff0000*      4076 <EXPANSION END>
00001566 5d570000       4077 	st.b	r10,0[r29]
                        4078 --line1017
                        4079 ..lin.D.3A.5CRenesas_Electronics.5CD1x_RGL.5Crgl_ghs_D1Lx_obj_V1.2E2.2E0.5Cvlib.5Capp.5Cgfx_apps.5Csimple_draw_d1l2.5Ctarget.5Cd1lx_mango_ghs.5Cobj.5Ccom.375::
                        4080 .LDWlin375:
0000156a 80075804*      4081 	br	.L2540
                        4082 .L2476:
                        4083 --1017: 		break;
                        4084 --1018: 		case  INDEX_COM_RS_DIPDBEAMLGHTON:/*DipdBeamLghtOn*/
                        4085 --1019: 			*pRes = v_rd_bool(DipdBeamLghtOn_handle);
                        4086 --line1019
                        4087 ..lin.D.3A.5CRenesas_Electronics.5CD1x_RGL.5Crgl_ghs_D1Lx_obj_V1.2E2.2E0.5Cvlib.5Capp.5Cgfx_apps.5Csimple_draw_d1l2.5Ctarget.5Cd1lx_mango_ghs.5Cobj.5Ccom.376::
                        4088 .LDWlin376:
0000156e 260648073f00   4089 	mov	4130632,r6
                        4090 	jarl	_v_rd_bool,lp
                        4090 <EXPANSION BEGIN>
                        4090 jarl22 _v_rd_bool , lp 
00001574 80ff0000*      4090 <EXPANSION END>
00001578 5d570000       4091 	st.b	r10,0[r29]
                        4092 --line1020
                        4093 ..lin.D.3A.5CRenesas_Electronics.5CD1x_RGL.5Crgl_ghs_D1Lx_obj_V1.2E2.2E0.5Cvlib.5Capp.5Cgfx_apps.5Csimple_draw_d1l2.5Ctarget.5Cd1lx_mango_ghs.5Cobj.5Ccom.377::
                        4094 .LDWlin377:
0000157c 80074604*      4095 	br	.L2540
                        4096 .L2477:
                        4097 --1020: 		break;
                        4098 --1021: 		case  INDEX_COM_RS_DRVRPWLINITNRMNDR:/*DrvrPWLInitnRmndr*/
                        4099 --1022: 			*pRes = v_rd_bool(DrvrPWLInitnRmndr_handle);
                        4100 --line1022
                        4101 ..lin.D.3A.5CRenesas_Electronics.5CD1x_RGL.5Crgl_ghs_D1Lx_obj_V1.2E2.2E0.5Cvlib.5Capp.5Cgfx_apps.5Csimple_draw_d1l2.5Ctarget.5Cd1lx_mango_ghs.5Cobj.5Ccom.378::
                        4102 .LDWlin378:
00001580 2606d8073f00   4103 	mov	4130776,r6
                        4104 	jarl	_v_rd_bool,lp
                        4104 <EXPANSION BEGIN>
                        4104 jarl22 _v_rd_bool , lp 
00001586 80ff0000*      4104 <EXPANSION END>
0000158a 5d570000       4105 	st.b	r10,0[r29]
                        4106 --line1023
                        4107 ..lin.D.3A.5CRenesas_Electronics.5CD1x_RGL.5Crgl_ghs_D1Lx_obj_V1.2E2.2E0.5Cvlib.5Capp.5Cgfx_apps.5Csimple_draw_d1l2.5Ctarget.5Cd1lx_mango_ghs.5Cobj.5Ccom.379::
                        4108 .LDWlin379:
0000158e 80073404*      4109 	br	.L2540
                        4110 .L2478:

                                                                      Page 78
                                                              C:\Users\YINGAO~1\AppData\Local\Temp\gh_000086k1.si
                        4111 --1023: 		break;
                        4112 --1024: 		case  INDEX_COM_RS_DRVRWNDOPENRMNDR:/*DrvrWndOpenRmndr*/
                        4113 --1025: 			*pRes = v_rd_bool(DrvrWndOpenRmndr_handle);
                        4114 --line1025
                        4115 ..lin.D.3A.5CRenesas_Electronics.5CD1x_RGL.5Crgl_ghs_D1Lx_obj_V1.2E2.2E0.5Cvlib.5Capp.5Cgfx_apps.5Csimple_draw_d1l2.5Ctarget.5Cd1lx_mango_ghs.5Cobj.5Ccom.380::
                        4116 .LDWlin380:
00001592 260620083f00   4117 	mov	4130848,r6
                        4118 	jarl	_v_rd_bool,lp
                        4118 <EXPANSION BEGIN>
                        4118 jarl22 _v_rd_bool , lp 
00001598 80ff0000*      4118 <EXPANSION END>
0000159c 5d570000       4119 	st.b	r10,0[r29]
                        4120 --line1026
                        4121 ..lin.D.3A.5CRenesas_Electronics.5CD1x_RGL.5Crgl_ghs_D1Lx_obj_V1.2E2.2E0.5Cvlib.5Capp.5Cgfx_apps.5Csimple_draw_d1l2.5Ctarget.5Cd1lx_mango_ghs.5Cobj.5Ccom.381::
                        4122 .LDWlin381:
000015a0 80072204*      4123 	br	.L2540
                        4124 .L2479:
                        4125 --1026: 		break;
                        4126 --1027: 		case  INDEX_COM_RS_ECMCLSDOORTOAUTOSTR:/*ECMClsDoorToAutoStR*/
                        4127 --1028: 			*pRes = v_rd_bool(ECMClsDoorToAutoStR_handle);
                        4128 --line1028
                        4129 ..lin.D.3A.5CRenesas_Electronics.5CD1x_RGL.5Crgl_ghs_D1Lx_obj_V1.2E2.2E0.5Cvlib.5Capp.5Cgfx_apps.5Csimple_draw_d1l2.5Ctarget.5Cd1lx_mango_ghs.5Cobj.5Ccom.382::
                        4130 .LDWlin382:
000015a4 260644083f00   4131 	mov	4130884,r6
                        4132 	jarl	_v_rd_bool,lp
                        4132 <EXPANSION BEGIN>
                        4132 jarl22 _v_rd_bool , lp 
000015aa 80ff0000*      4132 <EXPANSION END>
000015ae 5d570000       4133 	st.b	r10,0[r29]
                        4134 --line1029
                        4135 ..lin.D.3A.5CRenesas_Electronics.5CD1x_RGL.5Crgl_ghs_D1Lx_obj_V1.2E2.2E0.5Cvlib.5Capp.5Cgfx_apps.5Csimple_draw_d1l2.5Ctarget.5Cd1lx_mango_ghs.5Cobj.5Ccom.383::
                        4136 .LDWlin383:
000015b2 80071004*      4137 	br	.L2540
                        4138 .L2480:
                        4139 --1029: 		break;
                        4140 --1030: 		case  INDEX_COM_RS_ECMFASNSBLTTOAUTOSTR:/*ECMFasnSbltToAutoStR*/
                        4141 --1031: 			*pRes = v_rd_bool(ECMFasnSbltToAutoStR_handle);
                        4142 --line1031
                        4143 ..lin.D.3A.5CRenesas_Electronics.5CD1x_RGL.5Crgl_ghs_D1Lx_obj_V1.2E2.2E0.5Cvlib.5Capp.5Cgfx_apps.5Csimple_draw_d1l2.5Ctarget.5Cd1lx_mango_ghs.5Cobj.5Ccom.384::
                        4144 .LDWlin384:
000015b6 260668083f00   4145 	mov	4130920,r6
                        4146 	jarl	_v_rd_bool,lp
                        4146 <EXPANSION BEGIN>
                        4146 jarl22 _v_rd_bool , lp 
000015bc 80ff0000*      4146 <EXPANSION END>
000015c0 5d570000       4147 	st.b	r10,0[r29]
                        4148 --line1032
                        4149 ..lin.D.3A.5CRenesas_Electronics.5CD1x_RGL.5Crgl_ghs_D1Lx_obj_V1.2E2.2E0.5Cvlib.5Capp.5Cgfx_apps.5Csimple_draw_d1l2.5Ctarget.5Cd1lx_mango_ghs.5Cobj.5Ccom.385::
                        4150 .LDWlin385:
000015c4 8007fe03*      4151 	br	.L2540
                        4152 .L2481:
                        4153 --1032: 		break;
                        4154 --1033: 		case  INDEX_COM_RS_ECMSHFTNTRLTOAUTOSTR:/*ECMShftNtrlToAutoStR*/
                        4155 --1034: 			*pRes = v_rd_bool(ECMShftNtrlToAutoStR_handle);
                        4156 --line1034
                        4157 ..lin.D.3A.5CRenesas_Electronics.5CD1x_RGL.5Crgl_ghs_D1Lx_obj_V1.2E2.2E0.5Cvlib.5Capp.5Cgfx_apps.5Csimple_draw_d1l2.5Ctarget.5Cd1lx_mango_ghs.5Cobj.5Ccom.386::
                        4158 .LDWlin386:
000015c8 2606b0083f00   4159 	mov	4130992,r6
                        4160 	jarl	_v_rd_bool,lp
                        4160 <EXPANSION BEGIN>
                        4160 jarl22 _v_rd_bool , lp 

                                                                      Page 79
                                                              C:\Users\YINGAO~1\AppData\Local\Temp\gh_000086k1.si
000015ce 80ff0000*      4160 <EXPANSION END>
000015d2 5d570000       4161 	st.b	r10,0[r29]
                        4162 --line1035
                        4163 ..lin.D.3A.5CRenesas_Electronics.5CD1x_RGL.5Crgl_ghs_D1Lx_obj_V1.2E2.2E0.5Cvlib.5Capp.5Cgfx_apps.5Csimple_draw_d1l2.5Ctarget.5Cd1lx_mango_ghs.5Cobj.5Ccom.387::
                        4164 .LDWlin387:
000015d6 8007ec03*      4165 	br	.L2540
                        4166 .L2482:
                        4167 --1035: 		break;
                        4168 --1036: 		
                        4169 --1037: 		case  INDEX_COM_RS_ENEMSNRLTDMALFA:/*EnEmsnRltdMalfA*/
                        4170 --1038: 			*pRes = v_rd_bool(EnEmsnRltdMalfA_handle);
                        4171 --line1038
                        4172 ..lin.D.3A.5CRenesas_Electronics.5CD1x_RGL.5Crgl_ghs_D1Lx_obj_V1.2E2.2E0.5Cvlib.5Capp.5Cgfx_apps.5Csimple_draw_d1l2.5Ctarget.5Cd1lx_mango_ghs.5Cobj.5Ccom.388::
                        4173 .LDWlin388:
000015da 2606180a3f00   4174 	mov	4131352,r6
                        4175 	jarl	_v_rd_bool,lp
                        4175 <EXPANSION BEGIN>
                        4175 jarl22 _v_rd_bool , lp 
000015e0 80ff0000*      4175 <EXPANSION END>
000015e4 5d570000       4176 	st.b	r10,0[r29]
                        4177 --line1039
                        4178 ..lin.D.3A.5CRenesas_Electronics.5CD1x_RGL.5Crgl_ghs_D1Lx_obj_V1.2E2.2E0.5Cvlib.5Capp.5Cgfx_apps.5Csimple_draw_d1l2.5Ctarget.5Cd1lx_mango_ghs.5Cobj.5Ccom.389::
                        4179 .LDWlin389:
000015e8 8007da03*      4180 	br	.L2540
                        4181 .L2483:
                        4182 --1039: 		break;
                        4183 --1040: 		case  INDEX_COM_RS_ENNONEMSNRLTDMALFA:/*EnNonEmsnRltdMalfA*/
                        4184 --1041: 			*pRes = v_rd_bool(EnNonEmsnRltdMalfA_handle);
                        4185 --line1041
                        4186 ..lin.D.3A.5CRenesas_Electronics.5CD1x_RGL.5Crgl_ghs_D1Lx_obj_V1.2E2.2E0.5Cvlib.5Capp.5Cgfx_apps.5Csimple_draw_d1l2.5Ctarget.5Cd1lx_mango_ghs.5Cobj.5Ccom.390::
                        4187 .LDWlin390:
000015ec 2606840a3f00   4188 	mov	4131460,r6
                        4189 	jarl	_v_rd_bool,lp
                        4189 <EXPANSION BEGIN>
                        4189 jarl22 _v_rd_bool , lp 
000015f2 80ff0000*      4189 <EXPANSION END>
000015f6 5d570000       4190 	st.b	r10,0[r29]
                        4191 --line1042
                        4192 ..lin.D.3A.5CRenesas_Electronics.5CD1x_RGL.5Crgl_ghs_D1Lx_obj_V1.2E2.2E0.5Cvlib.5Capp.5Cgfx_apps.5Csimple_draw_d1l2.5Ctarget.5Cd1lx_mango_ghs.5Cobj.5Ccom.391::
                        4193 .LDWlin391:
000015fa 8007c803*      4194 	br	.L2540
                        4195 .L2484:
                        4196 --1042: 		break;
                        4197 --1043: 		case  INDEX_COM_RS_ASSSTSLAMPON:/*ASSStsLampOn*/
                        4198 --1044: 			*pRes = v_rd_bool(ASSStsLampOn_handle);
                        4199 --line1044
                        4200 ..lin.D.3A.5CRenesas_Electronics.5CD1x_RGL.5Crgl_ghs_D1Lx_obj_V1.2E2.2E0.5Cvlib.5Capp.5Cgfx_apps.5Csimple_draw_d1l2.5Ctarget.5Cd1lx_mango_ghs.5Cobj.5Ccom.392::
                        4201 .LDWlin392:
000015fe 2606d0003f00   4202 	mov	4128976,r6
                        4203 	jarl	_v_rd_bool,lp
                        4203 <EXPANSION BEGIN>
                        4203 jarl22 _v_rd_bool , lp 
00001604 80ff0000*      4203 <EXPANSION END>
00001608 5d570000       4204 	st.b	r10,0[r29]
                        4205 --line1045
                        4206 ..lin.D.3A.5CRenesas_Electronics.5CD1x_RGL.5Crgl_ghs_D1Lx_obj_V1.2E2.2E0.5Cvlib.5Capp.5Cgfx_apps.5Csimple_draw_d1l2.5Ctarget.5Cd1lx_mango_ghs.5Cobj.5Ccom.393::
                        4207 .LDWlin393:
0000160c 8007b603*      4208 	br	.L2540
                        4209 .L2485:
                        4210 --1045: 		break;
                        4211 --1046: 		case  INDEX_COM_RS_ENOILPRSLOWIO:/*EnOilPrsLowIO*/

                                                                      Page 80
                                                              C:\Users\YINGAO~1\AppData\Local\Temp\gh_000086k1.si
                        4212 --1047: 			*pRes = v_rd_bool(EnOilPrsLowIO_handle);
                        4213 --line1047
                        4214 ..lin.D.3A.5CRenesas_Electronics.5CD1x_RGL.5Crgl_ghs_D1Lx_obj_V1.2E2.2E0.5Cvlib.5Capp.5Cgfx_apps.5Csimple_draw_d1l2.5Ctarget.5Cd1lx_mango_ghs.5Cobj.5Ccom.394::
                        4215 .LDWlin394:
00001610 2606a80a3f00   4216 	mov	4131496,r6
                        4217 	jarl	_v_rd_bool,lp
                        4217 <EXPANSION BEGIN>
                        4217 jarl22 _v_rd_bool , lp 
00001616 80ff0000*      4217 <EXPANSION END>
0000161a 5d570000       4218 	st.b	r10,0[r29]
                        4219 --line1048
                        4220 ..lin.D.3A.5CRenesas_Electronics.5CD1x_RGL.5Crgl_ghs_D1Lx_obj_V1.2E2.2E0.5Cvlib.5Capp.5Cgfx_apps.5Csimple_draw_d1l2.5Ctarget.5Cd1lx_mango_ghs.5Cobj.5Ccom.395::
                        4221 .LDWlin395:
0000161e 8007a403*      4222 	br	.L2540
                        4223 .L2486:
                        4224 --1048: 		break;
                        4225 --1049: 		case  INDEX_COM_RS_ASSINHIO:/*ASSInhIO*/
                        4226 --1050: 			*pRes = v_rd_bool(ASSInhIO_handle);
                        4227 --line1050
                        4228 ..lin.D.3A.5CRenesas_Electronics.5CD1x_RGL.5Crgl_ghs_D1Lx_obj_V1.2E2.2E0.5Cvlib.5Capp.5Cgfx_apps.5Csimple_draw_d1l2.5Ctarget.5Cd1lx_mango_ghs.5Cobj.5Ccom.396::
                        4229 .LDWlin396:
00001622 2606ac003f00   4230 	mov	4128940,r6
                        4231 	jarl	_v_rd_bool,lp
                        4231 <EXPANSION BEGIN>
                        4231 jarl22 _v_rd_bool , lp 
00001628 80ff0000*      4231 <EXPANSION END>
0000162c 5d570000       4232 	st.b	r10,0[r29]
                        4233 --line1051
                        4234 ..lin.D.3A.5CRenesas_Electronics.5CD1x_RGL.5Crgl_ghs_D1Lx_obj_V1.2E2.2E0.5Cvlib.5Capp.5Cgfx_apps.5Csimple_draw_d1l2.5Ctarget.5Cd1lx_mango_ghs.5Cobj.5Ccom.397::
                        4235 .LDWlin397:
00001630 80079203*      4236 	br	.L2540
                        4237 .L2487:
                        4238 --1051: 		break;
                        4239 --1052: 		case  INDEX_COM_RS_ASSWRNNGLAMPON:/*ASSWrnngLampOn*/
                        4240 --1053: 			*pRes = v_rd_bool(ASSWrnngLampOn_handle);
                        4241 --line1053
                        4242 ..lin.D.3A.5CRenesas_Electronics.5CD1x_RGL.5Crgl_ghs_D1Lx_obj_V1.2E2.2E0.5Cvlib.5Capp.5Cgfx_apps.5Csimple_draw_d1l2.5Ctarget.5Cd1lx_mango_ghs.5Cobj.5Ccom.398::
                        4243 .LDWlin398:
00001634 2606f4003f00   4244 	mov	4129012,r6
                        4245 	jarl	_v_rd_bool,lp
                        4245 <EXPANSION BEGIN>
                        4245 jarl22 _v_rd_bool , lp 
0000163a 80ff0000*      4245 <EXPANSION END>
0000163e 5d570000       4246 	st.b	r10,0[r29]
                        4247 --line1054
                        4248 ..lin.D.3A.5CRenesas_Electronics.5CD1x_RGL.5Crgl_ghs_D1Lx_obj_V1.2E2.2E0.5Cvlib.5Capp.5Cgfx_apps.5Csimple_draw_d1l2.5Ctarget.5Cd1lx_mango_ghs.5Cobj.5Ccom.399::
                        4249 .LDWlin399:
00001642 80078003*      4250 	br	.L2540
                        4251 .L2488:
                        4252 --1054: 		break;
                        4253 --1055: 		case  INDEX_COM_RS_STRGWHLANGSNSRFLT:/*StrgWhlAngSnsrFlt*/
                        4254 --1056: 			*pRes = v_rd_bool(StrgWhlAngSnsrFlt_handle);
                        4255 --line1056
                        4256 ..lin.D.3A.5CRenesas_Electronics.5CD1x_RGL.5Crgl_ghs_D1Lx_obj_V1.2E2.2E0.5Cvlib.5Capp.5Cgfx_apps.5Csimple_draw_d1l2.5Ctarget.5Cd1lx_mango_ghs.5Cobj.5Ccom.400::
                        4257 .LDWlin400:
00001646 26061c1b3f00   4258 	mov	4135708,r6
                        4259 	jarl	_v_rd_bool,lp
                        4259 <EXPANSION BEGIN>
                        4259 jarl22 _v_rd_bool , lp 
0000164c 80ff0000*      4259 <EXPANSION END>
00001650 5d570000       4260 	st.b	r10,0[r29]

                                                                      Page 81
                                                              C:\Users\YINGAO~1\AppData\Local\Temp\gh_000086k1.si
                        4261 --line1057
                        4262 ..lin.D.3A.5CRenesas_Electronics.5CD1x_RGL.5Crgl_ghs_D1Lx_obj_V1.2E2.2E0.5Cvlib.5Capp.5Cgfx_apps.5Csimple_draw_d1l2.5Ctarget.5Cd1lx_mango_ghs.5Cobj.5Ccom.401::
                        4263 .LDWlin401:
00001654 80076e03*      4264 	br	.L2540
                        4265 .L2489:
                        4266 --1057: 		break;
                        4267 --1058: 		case  INDEX_COM_RS_TPMSTIREPRSLOWIO:/*TPMSTirePrsLowIO*/
                        4268 --1059: 			*pRes = v_rd_bool(TPMSTirePrsLowIO_handle);
                        4269 --line1059
                        4270 ..lin.D.3A.5CRenesas_Electronics.5CD1x_RGL.5Crgl_ghs_D1Lx_obj_V1.2E2.2E0.5Cvlib.5Capp.5Cgfx_apps.5Csimple_draw_d1l2.5Ctarget.5Cd1lx_mango_ghs.5Cobj.5Ccom.402::
                        4271 .LDWlin402:
00001658 26065c1d3f00   4272 	mov	4136284,r6
                        4273 	jarl	_v_rd_bool,lp
                        4273 <EXPANSION BEGIN>
                        4273 jarl22 _v_rd_bool , lp 
0000165e 80ff0000*      4273 <EXPANSION END>
00001662 5d570000       4274 	st.b	r10,0[r29]
                        4275 --line1060
                        4276 ..lin.D.3A.5CRenesas_Electronics.5CD1x_RGL.5Crgl_ghs_D1Lx_obj_V1.2E2.2E0.5Cvlib.5Capp.5Cgfx_apps.5Csimple_draw_d1l2.5Ctarget.5Cd1lx_mango_ghs.5Cobj.5Ccom.403::
                        4277 .LDWlin403:
00001666 80075c03*      4278 	br	.L2540
                        4279 .L2490:
                        4280 --1060: 		break;
                        4281 --1061:         
                        4282 --1062: 		case  INDEX_COM_RS_TPMSF:/*TPMSF*/
                        4283 --1063: 			*pRes = v_rd_bool(TPMSF_handle);
                        4284 --line1063
                        4285 ..lin.D.3A.5CRenesas_Electronics.5CD1x_RGL.5Crgl_ghs_D1Lx_obj_V1.2E2.2E0.5Cvlib.5Capp.5Cgfx_apps.5Csimple_draw_d1l2.5Ctarget.5Cd1lx_mango_ghs.5Cobj.5Ccom.404::
                        4286 .LDWlin404:
0000166a 2606141d3f00   4287 	mov	4136212,r6
                        4288 	jarl	_v_rd_bool,lp
                        4288 <EXPANSION BEGIN>
                        4288 jarl22 _v_rd_bool , lp 
00001670 80ff0000*      4288 <EXPANSION END>
00001674 5d570000       4289 	st.b	r10,0[r29]
                        4290 --line1064
                        4291 ..lin.D.3A.5CRenesas_Electronics.5CD1x_RGL.5Crgl_ghs_D1Lx_obj_V1.2E2.2E0.5Cvlib.5Capp.5Cgfx_apps.5Csimple_draw_d1l2.5Ctarget.5Cd1lx_mango_ghs.5Cobj.5Ccom.405::
                        4292 .LDWlin405:
00001678 80074a03*      4293 	br	.L2540
                        4294 .L2491:
                        4295 --1064: 		break;        
                        4296 --1065: 		case  INDEX_COM_RS_TPMSWNTRMDA:/*TPMSWntrMdA*/
                        4297 --1066: 			*pRes = v_rd_bool(TPMSWntrMdA_handle);
                        4298 --line1066
                        4299 ..lin.D.3A.5CRenesas_Electronics.5CD1x_RGL.5Crgl_ghs_D1Lx_obj_V1.2E2.2E0.5Cvlib.5Capp.5Cgfx_apps.5Csimple_draw_d1l2.5Ctarget.5Cd1lx_mango_ghs.5Cobj.5Ccom.406::
                        4300 .LDWlin406:
0000167c 2606801d3f00   4301 	mov	4136320,r6
                        4302 	jarl	_v_rd_bool,lp
                        4302 <EXPANSION BEGIN>
                        4302 jarl22 _v_rd_bool , lp 
00001682 80ff0000*      4302 <EXPANSION END>
00001686 5d570000       4303 	st.b	r10,0[r29]
                        4304 --line1067
                        4305 ..lin.D.3A.5CRenesas_Electronics.5CD1x_RGL.5Crgl_ghs_D1Lx_obj_V1.2E2.2E0.5Cvlib.5Capp.5Cgfx_apps.5Csimple_draw_d1l2.5Ctarget.5Cd1lx_mango_ghs.5Cobj.5Ccom.407::
                        4306 .LDWlin407:
0000168a 80073803*      4307 	br	.L2540
                        4308 .L2492:
                        4309 --1067: 		break;        
                        4310 --1068: 		case  INDEX_COM_RS_TPMSIDFICNLRNCM:/*TPMSIdficnLrnCm*/
                        4311 --1069: 			*pRes = v_rd_bool(TPMSIdficnLrnCm_handle);
                        4312 --line1069

                                                                      Page 82
                                                              C:\Users\YINGAO~1\AppData\Local\Temp\gh_000086k1.si
                        4313 ..lin.D.3A.5CRenesas_Electronics.5CD1x_RGL.5Crgl_ghs_D1Lx_obj_V1.2E2.2E0.5Cvlib.5Capp.5Cgfx_apps.5Csimple_draw_d1l2.5Ctarget.5Cd1lx_mango_ghs.5Cobj.5Ccom.408::
                        4314 .LDWlin408:
0000168e 2606381d3f00   4315 	mov	4136248,r6
                        4316 	jarl	_v_rd_bool,lp
                        4316 <EXPANSION BEGIN>
                        4316 jarl22 _v_rd_bool , lp 
00001694 80ff0000*      4316 <EXPANSION END>
00001698 5d570000       4317 	st.b	r10,0[r29]
                        4318 --line1070
                        4319 ..lin.D.3A.5CRenesas_Electronics.5CD1x_RGL.5Crgl_ghs_D1Lx_obj_V1.2E2.2E0.5Cvlib.5Capp.5Cgfx_apps.5Csimple_draw_d1l2.5Ctarget.5Cd1lx_mango_ghs.5Cobj.5Ccom.409::
                        4320 .LDWlin409:
0000169c 80072603*      4321 	br	.L2540
                        4322 .L2493:
                        4323 --1070: 		break;        
                        4324 --1071:         case INDEX_COM_RS_TRNONEMSNRLTDMALFA:
                        4325 --1072:             *pRes = v_rd_bool(TrNonEmsnRltdMalfA_handle);
                        4326 --line1072
                        4327 ..lin.D.3A.5CRenesas_Electronics.5CD1x_RGL.5Crgl_ghs_D1Lx_obj_V1.2E2.2E0.5Cvlib.5Capp.5Cgfx_apps.5Csimple_draw_d1l2.5Ctarget.5Cd1lx_mango_ghs.5Cobj.5Ccom.410::
                        4328 .LDWlin410:
000016a0 2606a41d3f00   4329 	mov	4136356,r6
                        4330 	jarl	_v_rd_bool,lp
                        4330 <EXPANSION BEGIN>
                        4330 jarl22 _v_rd_bool , lp 
000016a6 80ff0000*      4330 <EXPANSION END>
000016aa 5d570000       4331 	st.b	r10,0[r29]
                        4332 --line1073
                        4333 ..lin.D.3A.5CRenesas_Electronics.5CD1x_RGL.5Crgl_ghs_D1Lx_obj_V1.2E2.2E0.5Cvlib.5Capp.5Cgfx_apps.5Csimple_draw_d1l2.5Ctarget.5Cd1lx_mango_ghs.5Cobj.5Ccom.411::
                        4334 .LDWlin411:
000016ae 80071403*      4335 	br	.L2540
                        4336 .L2494:
                        4337 --1073: 		break;  
                        4338 --1075:         case INDEX_COM_RS_TPMSAUTOLOCTNCM:
                        4339 --1076:             *pRes = v_rd_bool(TPMSAutoLoctnCm_handle);
                        4340 --line1076
                        4341 ..lin.D.3A.5CRenesas_Electronics.5CD1x_RGL.5Crgl_ghs_D1Lx_obj_V1.2E2.2E0.5Cvlib.5Capp.5Cgfx_apps.5Csimple_draw_d1l2.5Ctarget.5Cd1lx_mango_ghs.5Cobj.5Ccom.412::
                        4342 .LDWlin412:
000016b2 2606f01c3f00   4343 	mov	4136176,r6
                        4344 	jarl	_v_rd_bool,lp
                        4344 <EXPANSION BEGIN>
                        4344 jarl22 _v_rd_bool , lp 
000016b8 80ff0000*      4344 <EXPANSION END>
000016bc 5d570000       4345 	st.b	r10,0[r29]
                        4346 --line1077
                        4347 ..lin.D.3A.5CRenesas_Electronics.5CD1x_RGL.5Crgl_ghs_D1Lx_obj_V1.2E2.2E0.5Cvlib.5Capp.5Cgfx_apps.5Csimple_draw_d1l2.5Ctarget.5Cd1lx_mango_ghs.5Cobj.5Ccom.413::
                        4348 .LDWlin413:
000016c0 80070203*      4349 	br	.L2540
                        4350 .L2495:
                        4351 --1077:             break;
                        4352 --1078: 		case  INDEX_COM_RS_ABSIO:/*ABSIO*/
                        4353 --1079: 			*pRes = v_rd_bool(ABSIO_handle);
                        4354 --line1079
                        4355 ..lin.D.3A.5CRenesas_Electronics.5CD1x_RGL.5Crgl_ghs_D1Lx_obj_V1.2E2.2E0.5Cvlib.5Capp.5Cgfx_apps.5Csimple_draw_d1l2.5Ctarget.5Cd1lx_mango_ghs.5Cobj.5Ccom.414::
                        4356 .LDWlin414:
000016c4 26061c003f00   4357 	mov	4128796,r6
                        4358 	jarl	_v_rd_bool,lp
                        4358 <EXPANSION BEGIN>
                        4358 jarl22 _v_rd_bool , lp 
000016ca 80ff0000*      4358 <EXPANSION END>
000016ce 5d570000       4359 	st.b	r10,0[r29]
                        4360 --line1080
                        4361 ..lin.D.3A.5CRenesas_Electronics.5CD1x_RGL.5Crgl_ghs_D1Lx_obj_V1.2E2.2E0.5Cvlib.5Capp.5Cgfx_apps.5Csimple_draw_d1l2.5Ctarget.5Cd1lx_mango_ghs.5Cobj.5Ccom.415::

                                                                      Page 83
                                                              C:\Users\YINGAO~1\AppData\Local\Temp\gh_000086k1.si
                        4362 .LDWlin415:
000016d2 8007f002*      4363 	br	.L2540
                        4364 .L2496:
                        4365 --1080: 		break;
                        4366 --1081: 		case  INDEX_COM_RS_BRKSYSREDBRKTLLTREQ:/*BrkSysRedBrkTlltReq*/
                        4367 --1082: 			*pRes = v_rd_bool(BrkSysRedBrkTlltReq_handle);
                        4368 --line1082
                        4369 ..lin.D.3A.5CRenesas_Electronics.5CD1x_RGL.5Crgl_ghs_D1Lx_obj_V1.2E2.2E0.5Cvlib.5Capp.5Cgfx_apps.5Csimple_draw_d1l2.5Ctarget.5Cd1lx_mango_ghs.5Cobj.5Ccom.416::
                        4370 .LDWlin416:
000016d6 26069c043f00   4371 	mov	4129948,r6
                        4372 	jarl	_v_rd_bool,lp
                        4372 <EXPANSION BEGIN>
                        4372 jarl22 _v_rd_bool , lp 
000016dc 80ff0000*      4372 <EXPANSION END>
000016e0 5d570000       4373 	st.b	r10,0[r29]
                        4374 --line1083
                        4375 ..lin.D.3A.5CRenesas_Electronics.5CD1x_RGL.5Crgl_ghs_D1Lx_obj_V1.2E2.2E0.5Cvlib.5Capp.5Cgfx_apps.5Csimple_draw_d1l2.5Ctarget.5Cd1lx_mango_ghs.5Cobj.5Ccom.417::
                        4376 .LDWlin417:
000016e4 8007de02*      4377 	br	.L2540
                        4378 .L2497:
                        4379 --1083: 		break;
                        4380 --1084: 		case  INDEX_COM_RS_BRKFLUDLVLLOW:/*BrkFludLvlLow*/
                        4381 --1085: 			*pRes = v_rd_bool(BrkFludLvlLow_handle);
                        4382 --line1085
                        4383 ..lin.D.3A.5CRenesas_Electronics.5CD1x_RGL.5Crgl_ghs_D1Lx_obj_V1.2E2.2E0.5Cvlib.5Capp.5Cgfx_apps.5Csimple_draw_d1l2.5Ctarget.5Cd1lx_mango_ghs.5Cobj.5Ccom.418::
                        4384 .LDWlin418:
000016e8 260654043f00   4385 	mov	4129876,r6
                        4386 	jarl	_v_rd_bool,lp
                        4386 <EXPANSION BEGIN>
                        4386 jarl22 _v_rd_bool , lp 
000016ee 80ff0000*      4386 <EXPANSION END>
000016f2 5d570000       4387 	st.b	r10,0[r29]
                        4388 --line1086
                        4389 ..lin.D.3A.5CRenesas_Electronics.5CD1x_RGL.5Crgl_ghs_D1Lx_obj_V1.2E2.2E0.5Cvlib.5Capp.5Cgfx_apps.5Csimple_draw_d1l2.5Ctarget.5Cd1lx_mango_ghs.5Cobj.5Ccom.419::
                        4390 .LDWlin419:
000016f6 8007cc02*      4391 	br	.L2540
                        4392 .L2498:
                        4393 --1086: 		break;
                        4394 --1087: 		case  INDEX_COM_RS_MAINBEAMLGHTON:/*MainBeamLghtOn*/
                        4395 --1088: 			*pRes = v_rd_bool(MainBeamLghtOn_handle);
                        4396 --line1088
                        4397 ..lin.D.3A.5CRenesas_Electronics.5CD1x_RGL.5Crgl_ghs_D1Lx_obj_V1.2E2.2E0.5Cvlib.5Capp.5Cgfx_apps.5Csimple_draw_d1l2.5Ctarget.5Cd1lx_mango_ghs.5Cobj.5Ccom.420::
                        4398 .LDWlin420:
000016fa 260684133f00   4399 	mov	4133764,r6
                        4400 	jarl	_v_rd_bool,lp
                        4400 <EXPANSION BEGIN>
                        4400 jarl22 _v_rd_bool , lp 
00001700 80ff0000*      4400 <EXPANSION END>
00001704 5d570000       4401 	st.b	r10,0[r29]
                        4402 --line1089
                        4403 ..lin.D.3A.5CRenesas_Electronics.5CD1x_RGL.5Crgl_ghs_D1Lx_obj_V1.2E2.2E0.5Cvlib.5Capp.5Cgfx_apps.5Csimple_draw_d1l2.5Ctarget.5Cd1lx_mango_ghs.5Cobj.5Ccom.421::
                        4404 .LDWlin421:
00001708 8007ba02*      4405 	br	.L2540
                        4406 .L2499:
                        4407 --1089: 		break;
                        4408 --1090: 		case  INDEX_COM_RS_PEPSANTFLT:/*PEPSAntFlt*/
                        4409 --1091: 			*pRes = v_rd_bool(PEPSAntFlt_handle);
                        4410 --line1091
                        4411 ..lin.D.3A.5CRenesas_Electronics.5CD1x_RGL.5Crgl_ghs_D1Lx_obj_V1.2E2.2E0.5Cvlib.5Capp.5Cgfx_apps.5Csimple_draw_d1l2.5Ctarget.5Cd1lx_mango_ghs.5Cobj.5Ccom.422::
                        4412 .LDWlin422:
0000170c 260634153f00   4413 	mov	4134196,r6

                                                                      Page 84
                                                              C:\Users\YINGAO~1\AppData\Local\Temp\gh_000086k1.si
                        4414 	jarl	_v_rd_bool,lp
                        4414 <EXPANSION BEGIN>
                        4414 jarl22 _v_rd_bool , lp 
00001712 80ff0000*      4414 <EXPANSION END>
00001716 5d570000       4415 	st.b	r10,0[r29]
                        4416 --line1092
                        4417 ..lin.D.3A.5CRenesas_Electronics.5CD1x_RGL.5Crgl_ghs_D1Lx_obj_V1.2E2.2E0.5Cvlib.5Capp.5Cgfx_apps.5Csimple_draw_d1l2.5Ctarget.5Cd1lx_mango_ghs.5Cobj.5Ccom.423::
                        4418 .LDWlin423:
0000171a 8007a802*      4419 	br	.L2540
                        4420 .L2500:
                        4421 --1092: 		break;
                        4422 --1093: 		case  INDEX_COM_RS_PWRMDMSTRACCRYWKUPA:/*PwrMdMstrAccryWkupA*/
                        4423 --1094: 			*pRes = v_rd_bool(PwrMdMstrAccryWkupA_handle);
                        4424 --line1094
                        4425 ..lin.D.3A.5CRenesas_Electronics.5CD1x_RGL.5Crgl_ghs_D1Lx_obj_V1.2E2.2E0.5Cvlib.5Capp.5Cgfx_apps.5Csimple_draw_d1l2.5Ctarget.5Cd1lx_mango_ghs.5Cobj.5Ccom.424::
                        4426 .LDWlin424:
0000171e 26067c153f00   4427 	mov	4134268,r6
                        4428 	jarl	_v_rd_bool,lp
                        4428 <EXPANSION BEGIN>
                        4428 jarl22 _v_rd_bool , lp 
00001724 80ff0000*      4428 <EXPANSION END>
00001728 5d570000       4429 	st.b	r10,0[r29]
                        4430 --line1095
                        4431 ..lin.D.3A.5CRenesas_Electronics.5CD1x_RGL.5Crgl_ghs_D1Lx_obj_V1.2E2.2E0.5Cvlib.5Capp.5Cgfx_apps.5Csimple_draw_d1l2.5Ctarget.5Cd1lx_mango_ghs.5Cobj.5Ccom.425::
                        4432 .LDWlin425:
0000172c 80079602*      4433 	br	.L2540
                        4434 .L2501:
                        4435 --1095: 		break;
                        4436 --1096: 		
                        4437 --1097: 		case  INDEX_COM_RS_FRTFOGLGHTON:/*FrtFogLghtOn*/
                        4438 --1098: 			*pRes = v_rd_bool(FrtFogLghtOn_handle);
                        4439 --line1098
                        4440 ..lin.D.3A.5CRenesas_Electronics.5CD1x_RGL.5Crgl_ghs_D1Lx_obj_V1.2E2.2E0.5Cvlib.5Capp.5Cgfx_apps.5Csimple_draw_d1l2.5Ctarget.5Cd1lx_mango_ghs.5Cobj.5Ccom.426::
                        4441 .LDWlin426:
00001730 2606940f3f00   4442 	mov	4132756,r6
                        4443 	jarl	_v_rd_bool,lp
                        4443 <EXPANSION BEGIN>
                        4443 jarl22 _v_rd_bool , lp 
00001736 80ff0000*      4443 <EXPANSION END>
0000173a 5d570000       4444 	st.b	r10,0[r29]
                        4445 --line1099
                        4446 ..lin.D.3A.5CRenesas_Electronics.5CD1x_RGL.5Crgl_ghs_D1Lx_obj_V1.2E2.2E0.5Cvlib.5Capp.5Cgfx_apps.5Csimple_draw_d1l2.5Ctarget.5Cd1lx_mango_ghs.5Cobj.5Ccom.427::
                        4447 .LDWlin427:
0000173e 80078402*      4448 	br	.L2540
                        4449 .L2502:
                        4450 --1099: 		break;
                        4451 --1100: 		case  INDEX_COM_RS_FRTSIDELGHTF:/*FrtSideLghtF*/
                        4452 --1101: 			*pRes = v_rd_bool(FrtSideLghtF_handle);
                        4453 --line1101
                        4454 ..lin.D.3A.5CRenesas_Electronics.5CD1x_RGL.5Crgl_ghs_D1Lx_obj_V1.2E2.2E0.5Cvlib.5Capp.5Cgfx_apps.5Csimple_draw_d1l2.5Ctarget.5Cd1lx_mango_ghs.5Cobj.5Ccom.428::
                        4455 .LDWlin428:
00001742 260690103f00   4456 	mov	4133008,r6
                        4457 	jarl	_v_rd_bool,lp
                        4457 <EXPANSION BEGIN>
                        4457 jarl22 _v_rd_bool , lp 
00001748 80ff0000*      4457 <EXPANSION END>
0000174c 5d570000       4458 	st.b	r10,0[r29]
                        4459 --line1102
                        4460 ..lin.D.3A.5CRenesas_Electronics.5CD1x_RGL.5Crgl_ghs_D1Lx_obj_V1.2E2.2E0.5Cvlib.5Capp.5Cgfx_apps.5Csimple_draw_d1l2.5Ctarget.5Cd1lx_mango_ghs.5Cobj.5Ccom.429::
                        4461 .LDWlin429:
00001750 80077202*      4462 	br	.L2540

                                                                      Page 85
                                                              C:\Users\YINGAO~1\AppData\Local\Temp\gh_000086k1.si
                        4463 .L2503:
                        4464 --1102: 		break;
                        4465 --1103: 		case  INDEX_COM_RS_KEEP_NETWORK_AC:/*keep_network_AC*/
                        4466 --1104: 			*pRes = v_rd_bool(keep_network_AC_handle);
                        4467 --line1104
                        4468 ..lin.D.3A.5CRenesas_Electronics.5CD1x_RGL.5Crgl_ghs_D1Lx_obj_V1.2E2.2E0.5Cvlib.5Capp.5Cgfx_apps.5Csimple_draw_d1l2.5Ctarget.5Cd1lx_mango_ghs.5Cobj.5Ccom.430::
                        4469 .LDWlin430:
00001754 260644113f00   4470 	mov	4133188,r6
                        4471 	jarl	_v_rd_bool,lp
                        4471 <EXPANSION BEGIN>
                        4471 jarl22 _v_rd_bool , lp 
0000175a 80ff0000*      4471 <EXPANSION END>
0000175e 5d570000       4472 	st.b	r10,0[r29]
                        4473 --line1105
                        4474 ..lin.D.3A.5CRenesas_Electronics.5CD1x_RGL.5Crgl_ghs_D1Lx_obj_V1.2E2.2E0.5Cvlib.5Capp.5Cgfx_apps.5Csimple_draw_d1l2.5Ctarget.5Cd1lx_mango_ghs.5Cobj.5Ccom.431::
                        4475 .LDWlin431:
00001762 80076002*      4476 	br	.L2540
                        4477 .L2504:
                        4478 --1105: 		break;
                        4479 --1107: 		case  INDEX_COM_RS_LBRKLGHTF:/*LBrkLghtF*/
                        4480 --1108: 			*pRes = v_rd_bool(LBrkLghtF_handle);
                        4481 --line1108
                        4482 ..lin.D.3A.5CRenesas_Electronics.5CD1x_RGL.5Crgl_ghs_D1Lx_obj_V1.2E2.2E0.5Cvlib.5Capp.5Cgfx_apps.5Csimple_draw_d1l2.5Ctarget.5Cd1lx_mango_ghs.5Cobj.5Ccom.432::
                        4483 .LDWlin432:
00001766 260664123f00   4484 	mov	4133476,r6
                        4485 	jarl	_v_rd_bool,lp
                        4485 <EXPANSION BEGIN>
                        4485 jarl22 _v_rd_bool , lp 
0000176c 80ff0000*      4485 <EXPANSION END>
00001770 5d570000       4486 	st.b	r10,0[r29]
                        4487 --line1109
                        4488 ..lin.D.3A.5CRenesas_Electronics.5CD1x_RGL.5Crgl_ghs_D1Lx_obj_V1.2E2.2E0.5Cvlib.5Capp.5Cgfx_apps.5Csimple_draw_d1l2.5Ctarget.5Cd1lx_mango_ghs.5Cobj.5Ccom.433::
                        4489 .LDWlin433:
00001774 80074e02*      4490 	br	.L2540
                        4491 .L2505:
                        4492 --1109: 		break;
                        4493 --1110: 		case  INDEX_COM_RS_LDIPDBEAMLGHTF:/*LDipdBeamLghtF*/
                        4494 --1111: 			*pRes = v_rd_bool(LDipdBeamLghtF_handle);
                        4495 --line1111
                        4496 ..lin.D.3A.5CRenesas_Electronics.5CD1x_RGL.5Crgl_ghs_D1Lx_obj_V1.2E2.2E0.5Cvlib.5Capp.5Cgfx_apps.5Csimple_draw_d1l2.5Ctarget.5Cd1lx_mango_ghs.5Cobj.5Ccom.434::
                        4497 .LDWlin434:
00001778 260688123f00   4498 	mov	4133512,r6
                        4499 	jarl	_v_rd_bool,lp
                        4499 <EXPANSION BEGIN>
                        4499 jarl22 _v_rd_bool , lp 
0000177e 80ff0000*      4499 <EXPANSION END>
00001782 5d570000       4500 	st.b	r10,0[r29]
                        4501 --line1112
                        4502 ..lin.D.3A.5CRenesas_Electronics.5CD1x_RGL.5Crgl_ghs_D1Lx_obj_V1.2E2.2E0.5Cvlib.5Capp.5Cgfx_apps.5Csimple_draw_d1l2.5Ctarget.5Cd1lx_mango_ghs.5Cobj.5Ccom.435::
                        4503 .LDWlin435:
00001786 80073c02*      4504 	br	.L2540
                        4505 .L2506:
                        4506 --1112: 		break;
                        4507 --1113: 		case  INDEX_COM_RS_LDIRCNINDLGHTF:/*LDircnIndLghtF*/
                        4508 --1114: 			*pRes = v_rd_bool(LDircnIndLghtF_handle);
                        4509 --line1114
                        4510 ..lin.D.3A.5CRenesas_Electronics.5CD1x_RGL.5Crgl_ghs_D1Lx_obj_V1.2E2.2E0.5Cvlib.5Capp.5Cgfx_apps.5Csimple_draw_d1l2.5Ctarget.5Cd1lx_mango_ghs.5Cobj.5Ccom.436::
                        4511 .LDWlin436:
0000178a 2606ac123f00   4512 	mov	4133548,r6
                        4513 	jarl	_v_rd_bool,lp
                        4513 <EXPANSION BEGIN>

                                                                      Page 86
                                                              C:\Users\YINGAO~1\AppData\Local\Temp\gh_000086k1.si
                        4513 jarl22 _v_rd_bool , lp 
00001790 80ff0000*      4513 <EXPANSION END>
00001794 5d570000       4514 	st.b	r10,0[r29]
                        4515 --line1115
                        4516 ..lin.D.3A.5CRenesas_Electronics.5CD1x_RGL.5Crgl_ghs_D1Lx_obj_V1.2E2.2E0.5Cvlib.5Capp.5Cgfx_apps.5Csimple_draw_d1l2.5Ctarget.5Cd1lx_mango_ghs.5Cobj.5Ccom.437::
                        4517 .LDWlin437:
00001798 80072a02*      4518 	br	.L2540
                        4519 .L2507:
                        4520 --1115: 		break;
                        4521 --1116: 		
                        4522 --1117: 		case  INDEX_COM_RS_RRFOGLGHTON:/*RrFogLghtOn*/
                        4523 --1118: 			*pRes = v_rd_bool(RrFogLghtOn_handle);
                        4524 --line1118
                        4525 ..lin.D.3A.5CRenesas_Electronics.5CD1x_RGL.5Crgl_ghs_D1Lx_obj_V1.2E2.2E0.5Cvlib.5Capp.5Cgfx_apps.5Csimple_draw_d1l2.5Ctarget.5Cd1lx_mango_ghs.5Cobj.5Ccom.438::
                        4526 .LDWlin438:
0000179c 2606bc173f00   4527 	mov	4134844,r6
                        4528 	jarl	_v_rd_bool,lp
                        4528 <EXPANSION BEGIN>
                        4528 jarl22 _v_rd_bool , lp 
000017a2 80ff0000*      4528 <EXPANSION END>
000017a6 5d570000       4529 	st.b	r10,0[r29]
                        4530 --line1119
                        4531 ..lin.D.3A.5CRenesas_Electronics.5CD1x_RGL.5Crgl_ghs_D1Lx_obj_V1.2E2.2E0.5Cvlib.5Capp.5Cgfx_apps.5Csimple_draw_d1l2.5Ctarget.5Cd1lx_mango_ghs.5Cobj.5Ccom.439::
                        4532 .LDWlin439:
000017aa 80071802*      4533 	br	.L2540
                        4534 .L2508:
                        4535 --1119: 		break;
                        4536 --1120: 		case  INDEX_COM_RS_RRSIDELGHTF:/*RrSideLghtF*/
                        4537 --1121: 			*pRes = v_rd_bool(RrSideLghtF_handle);
                        4538 --line1121
                        4539 ..lin.D.3A.5CRenesas_Electronics.5CD1x_RGL.5Crgl_ghs_D1Lx_obj_V1.2E2.2E0.5Cvlib.5Capp.5Cgfx_apps.5Csimple_draw_d1l2.5Ctarget.5Cd1lx_mango_ghs.5Cobj.5Ccom.440::
                        4540 .LDWlin440:
000017ae 2606e0173f00   4541 	mov	4134880,r6
                        4542 	jarl	_v_rd_bool,lp
                        4542 <EXPANSION BEGIN>
                        4542 jarl22 _v_rd_bool , lp 
000017b4 80ff0000*      4542 <EXPANSION END>
000017b8 5d570000       4543 	st.b	r10,0[r29]
                        4544 --line1122
                        4545 ..lin.D.3A.5CRenesas_Electronics.5CD1x_RGL.5Crgl_ghs_D1Lx_obj_V1.2E2.2E0.5Cvlib.5Capp.5Cgfx_apps.5Csimple_draw_d1l2.5Ctarget.5Cd1lx_mango_ghs.5Cobj.5Ccom.441::
                        4546 .LDWlin441:
000017bc 80070602*      4547 	br	.L2540
                        4548 .L2509:
                        4549 --1122: 		break;
                        4550 --1123: 		
                        4551 --1124: 		case  INDEX_COM_RS_RDIRCNIO:/*RDircnIO*/
                        4552 --1125: 			*pRes = v_rd_bool(RDircnIO_handle);
                        4553 --line1125
                        4554 ..lin.D.3A.5CRenesas_Electronics.5CD1x_RGL.5Crgl_ghs_D1Lx_obj_V1.2E2.2E0.5Cvlib.5Capp.5Cgfx_apps.5Csimple_draw_d1l2.5Ctarget.5Cd1lx_mango_ghs.5Cobj.5Ccom.442::
                        4555 .LDWlin442:
000017c0 260654163f00   4556 	mov	4134484,r6
                        4557 	jarl	_v_rd_bool,lp
                        4557 <EXPANSION BEGIN>
                        4557 jarl22 _v_rd_bool , lp 
000017c6 80ff0000*      4557 <EXPANSION END>
000017ca 5d570000       4558 	st.b	r10,0[r29]
                        4559 --line1126
                        4560 ..lin.D.3A.5CRenesas_Electronics.5CD1x_RGL.5Crgl_ghs_D1Lx_obj_V1.2E2.2E0.5Cvlib.5Capp.5Cgfx_apps.5Csimple_draw_d1l2.5Ctarget.5Cd1lx_mango_ghs.5Cobj.5Ccom.443::
                        4561 .LDWlin443:
000017ce 8007f401*      4562 	br	.L2540
                        4563 .L2510:

                                                                      Page 87
                                                              C:\Users\YINGAO~1\AppData\Local\Temp\gh_000086k1.si
                        4564 --1126: 		break;
                        4565 --1127: 		case  INDEX_COM_RS_REVSLGHTF:/*RevsLghtF*/
                        4566 --1128: 			*pRes = v_rd_bool(RevsLghtF_handle);
                        4567 --line1128
                        4568 ..lin.D.3A.5CRenesas_Electronics.5CD1x_RGL.5Crgl_ghs_D1Lx_obj_V1.2E2.2E0.5Cvlib.5Capp.5Cgfx_apps.5Csimple_draw_d1l2.5Ctarget.5Cd1lx_mango_ghs.5Cobj.5Ccom.444::
                        4569 .LDWlin444:
000017d2 26069c163f00   4570 	mov	4134556,r6
                        4571 	jarl	_v_rd_bool,lp
                        4571 <EXPANSION BEGIN>
                        4571 jarl22 _v_rd_bool , lp 
000017d8 80ff0000*      4571 <EXPANSION END>
000017dc 5d570000       4572 	st.b	r10,0[r29]
                        4573 --line1129
                        4574 ..lin.D.3A.5CRenesas_Electronics.5CD1x_RGL.5Crgl_ghs_D1Lx_obj_V1.2E2.2E0.5Cvlib.5Capp.5Cgfx_apps.5Csimple_draw_d1l2.5Ctarget.5Cd1lx_mango_ghs.5Cobj.5Ccom.445::
                        4575 .LDWlin445:
000017e0 8007e201*      4576 	br	.L2540
                        4577 .L2511:
                        4578 --1129: 		break;
                        4579 --1130: 		case  INDEX_COM_RS_RRFOGLGHTF:/*RrFogLghtF*/
                        4580 --1131: 			*pRes = v_rd_bool(RrFogLghtF_handle);
                        4581 --line1131
                        4582 ..lin.D.3A.5CRenesas_Electronics.5CD1x_RGL.5Crgl_ghs_D1Lx_obj_V1.2E2.2E0.5Cvlib.5Capp.5Cgfx_apps.5Csimple_draw_d1l2.5Ctarget.5Cd1lx_mango_ghs.5Cobj.5Ccom.446::
                        4583 .LDWlin446:
000017e4 260698173f00   4584 	mov	4134808,r6
                        4585 	jarl	_v_rd_bool,lp
                        4585 <EXPANSION BEGIN>
                        4585 jarl22 _v_rd_bool , lp 
000017ea 80ff0000*      4585 <EXPANSION END>
000017ee 5d570000       4586 	st.b	r10,0[r29]
                        4587 --line1132
                        4588 ..lin.D.3A.5CRenesas_Electronics.5CD1x_RGL.5Crgl_ghs_D1Lx_obj_V1.2E2.2E0.5Cvlib.5Capp.5Cgfx_apps.5Csimple_draw_d1l2.5Ctarget.5Cd1lx_mango_ghs.5Cobj.5Ccom.447::
                        4589 .LDWlin447:
000017f2 8007d001*      4590 	br	.L2540
                        4591 .L2512:
                        4592 --1132: 		break;
                        4593 --1133: 		
                        4594 --1134: 		case  INDEX_COM_RS_LDIRCNIO:/*LDircnIO*/
                        4595 --1135: 			*pRes = v_rd_bool(LDircnIO_handle);
                        4596 --line1135
                        4597 ..lin.D.3A.5CRenesas_Electronics.5CD1x_RGL.5Crgl_ghs_D1Lx_obj_V1.2E2.2E0.5Cvlib.5Capp.5Cgfx_apps.5Csimple_draw_d1l2.5Ctarget.5Cd1lx_mango_ghs.5Cobj.5Ccom.448::
                        4598 .LDWlin448:
000017f6 2606d0123f00   4599 	mov	4133584,r6
                        4600 	jarl	_v_rd_bool,lp
                        4600 <EXPANSION BEGIN>
                        4600 jarl22 _v_rd_bool , lp 
000017fc 80ff0000*      4600 <EXPANSION END>
00001800 5d570000       4601 	st.b	r10,0[r29]
                        4602 --line1136
                        4603 ..lin.D.3A.5CRenesas_Electronics.5CD1x_RGL.5Crgl_ghs_D1Lx_obj_V1.2E2.2E0.5Cvlib.5Capp.5Cgfx_apps.5Csimple_draw_d1l2.5Ctarget.5Cd1lx_mango_ghs.5Cobj.5Ccom.449::
                        4604 .LDWlin449:
00001804 8007be01*      4605 	br	.L2540
                        4606 .L2513:
                        4607 --1136: 		break;
                        4608 --1137: 		case  INDEX_COM_RS_SCURTKEYINVD:/*ScurtKeyInvd*/
                        4609 --1138: 			*pRes = v_rd_bool(ScurtKeyInvd_handle);
                        4610 --line1138
                        4611 ..lin.D.3A.5CRenesas_Electronics.5CD1x_RGL.5Crgl_ghs_D1Lx_obj_V1.2E2.2E0.5Cvlib.5Capp.5Cgfx_apps.5Csimple_draw_d1l2.5Ctarget.5Cd1lx_mango_ghs.5Cobj.5Ccom.450::
                        4612 .LDWlin450:
00001808 260600193f00   4613 	mov	4135168,r6
                        4614 	jarl	_v_rd_bool,lp
                        4614 <EXPANSION BEGIN>

                                                                      Page 88
                                                              C:\Users\YINGAO~1\AppData\Local\Temp\gh_000086k1.si
                        4614 jarl22 _v_rd_bool , lp 
0000180e 80ff0000*      4614 <EXPANSION END>
00001812 5d570000       4615 	st.b	r10,0[r29]
                        4616 --line1139
                        4617 ..lin.D.3A.5CRenesas_Electronics.5CD1x_RGL.5Crgl_ghs_D1Lx_obj_V1.2E2.2E0.5Cvlib.5Capp.5Cgfx_apps.5Csimple_draw_d1l2.5Ctarget.5Cd1lx_mango_ghs.5Cobj.5Ccom.451::
                        4618 .LDWlin451:
00001816 8007ac01*      4619 	br	.L2540
                        4620 .L2514:
                        4621 --1139: 		break;
                        4622 --1140: 		case  INDEX_COM_RS_SHIFTERLCKRLSEBRKREQA:/*ShifterLckRlseBrkReqA*/
                        4623 --1141: 			*pRes = v_rd_bool(ShifterLckRlseBrkReqA_handle);
                        4624 --line1141
                        4625 ..lin.D.3A.5CRenesas_Electronics.5CD1x_RGL.5Crgl_ghs_D1Lx_obj_V1.2E2.2E0.5Cvlib.5Capp.5Cgfx_apps.5Csimple_draw_d1l2.5Ctarget.5Cd1lx_mango_ghs.5Cobj.5Ccom.452::
                        4626 .LDWlin452:
0000181a 260648193f00   4627 	mov	4135240,r6
                        4628 	jarl	_v_rd_bool,lp
                        4628 <EXPANSION BEGIN>
                        4628 jarl22 _v_rd_bool , lp 
00001820 80ff0000*      4628 <EXPANSION END>
00001824 5d570000       4629 	st.b	r10,0[r29]
                        4630 --line1142
                        4631 ..lin.D.3A.5CRenesas_Electronics.5CD1x_RGL.5Crgl_ghs_D1Lx_obj_V1.2E2.2E0.5Cvlib.5Capp.5Cgfx_apps.5Csimple_draw_d1l2.5Ctarget.5Cd1lx_mango_ghs.5Cobj.5Ccom.453::
                        4632 .LDWlin453:
00001828 80079a01*      4633 	br	.L2540
                        4634 .L2515:
                        4635 --1142: 		break;
                        4636 --1143: 		case  INDEX_COM_RS_SRFINITNRMNDR:/*SrfInitnRmndr*/
                        4637 --1144: 			*pRes = v_rd_bool(SrfInitnRmndr_handle);
                        4638 --line1144
                        4639 ..lin.D.3A.5CRenesas_Electronics.5CD1x_RGL.5Crgl_ghs_D1Lx_obj_V1.2E2.2E0.5Cvlib.5Capp.5Cgfx_apps.5Csimple_draw_d1l2.5Ctarget.5Cd1lx_mango_ghs.5Cobj.5Ccom.454::
                        4640 .LDWlin454:
0000182c 2606201a3f00   4641 	mov	4135456,r6
                        4642 	jarl	_v_rd_bool,lp
                        4642 <EXPANSION BEGIN>
                        4642 jarl22 _v_rd_bool , lp 
00001832 80ff0000*      4642 <EXPANSION END>
00001836 5d570000       4643 	st.b	r10,0[r29]
                        4644 --line1145
                        4645 ..lin.D.3A.5CRenesas_Electronics.5CD1x_RGL.5Crgl_ghs_D1Lx_obj_V1.2E2.2E0.5Cvlib.5Capp.5Cgfx_apps.5Csimple_draw_d1l2.5Ctarget.5Cd1lx_mango_ghs.5Cobj.5Ccom.455::
                        4646 .LDWlin455:
0000183a 80078801*      4647 	br	.L2540
                        4648 .L2516:
                        4649 --1145: 		break;
                        4650 --1146: 		case  INDEX_COM_RS_SRFOPENRMNDR:/*SrfOpenRmndr*/
                        4651 --1147: 			*pRes = v_rd_bool(SrfOpenRmndr_handle);
                        4652 --line1147
                        4653 ..lin.D.3A.5CRenesas_Electronics.5CD1x_RGL.5Crgl_ghs_D1Lx_obj_V1.2E2.2E0.5Cvlib.5Capp.5Cgfx_apps.5Csimple_draw_d1l2.5Ctarget.5Cd1lx_mango_ghs.5Cobj.5Ccom.456::
                        4654 .LDWlin456:
0000183e 2606441a3f00   4655 	mov	4135492,r6
                        4656 	jarl	_v_rd_bool,lp
                        4656 <EXPANSION BEGIN>
                        4656 jarl22 _v_rd_bool , lp 
00001844 80ff0000*      4656 <EXPANSION END>
00001848 5d570000       4657 	st.b	r10,0[r29]
                        4658 --line1148
                        4659 ..lin.D.3A.5CRenesas_Electronics.5CD1x_RGL.5Crgl_ghs_D1Lx_obj_V1.2E2.2E0.5Cvlib.5Capp.5Cgfx_apps.5Csimple_draw_d1l2.5Ctarget.5Cd1lx_mango_ghs.5Cobj.5Ccom.457::
                        4660 .LDWlin457:
0000184c 80077601*      4661 	br	.L2540
                        4662 .L2517:
                        4663 --1148: 		break;		
                        4664 --1149: 		case  INDEX_COM_RS_SCURTKEYBATLOW:/*scurtKeyBatLow*/

                                                                      Page 89
                                                              C:\Users\YINGAO~1\AppData\Local\Temp\gh_000086k1.si
                        4665 --1150: 			*pRes = v_rd_bool(ScurtKeyBatLow_handle);
                        4666 --line1150
                        4667 ..lin.D.3A.5CRenesas_Electronics.5CD1x_RGL.5Crgl_ghs_D1Lx_obj_V1.2E2.2E0.5Cvlib.5Capp.5Cgfx_apps.5Csimple_draw_d1l2.5Ctarget.5Cd1lx_mango_ghs.5Cobj.5Ccom.458::
                        4668 .LDWlin458:
00001850 2606dc183f00   4669 	mov	4135132,r6
                        4670 	jarl	_v_rd_bool,lp
                        4670 <EXPANSION BEGIN>
                        4670 jarl22 _v_rd_bool , lp 
00001856 80ff0000*      4670 <EXPANSION END>
0000185a 5d570000       4671 	st.b	r10,0[r29]
                        4672 --line1151
                        4673 ..lin.D.3A.5CRenesas_Electronics.5CD1x_RGL.5Crgl_ghs_D1Lx_obj_V1.2E2.2E0.5Cvlib.5Capp.5Cgfx_apps.5Csimple_draw_d1l2.5Ctarget.5Cd1lx_mango_ghs.5Cobj.5Ccom.459::
                        4674 .LDWlin459:
0000185e 80076401*      4675 	br	.L2540
                        4676 .L2518:
                        4677 --1151: 		break;
                        4678 --1152: 		case  INDEX_COM_RS_BCMNOSMTKEYLNVEHRMNDR:/*BCMNoSmtKeyInVehRmndr*/
                        4679 --1153: 			*pRes = v_rd_bool(BCMNoSmtKeyInVehRmndr_handle);
                        4680 --line1153
                        4681 ..lin.D.3A.5CRenesas_Electronics.5CD1x_RGL.5Crgl_ghs_D1Lx_obj_V1.2E2.2E0.5Cvlib.5Capp.5Cgfx_apps.5Csimple_draw_d1l2.5Ctarget.5Cd1lx_mango_ghs.5Cobj.5Ccom.460::
                        4682 .LDWlin460:
00001862 260614023f00   4683 	mov	4129300,r6
                        4684 	jarl	_v_rd_bool,lp
                        4684 <EXPANSION BEGIN>
                        4684 jarl22 _v_rd_bool , lp 
00001868 80ff0000*      4684 <EXPANSION END>
0000186c 5d570000       4685 	st.b	r10,0[r29]
                        4686 --line1154
                        4687 ..lin.D.3A.5CRenesas_Electronics.5CD1x_RGL.5Crgl_ghs_D1Lx_obj_V1.2E2.2E0.5Cvlib.5Capp.5Cgfx_apps.5Csimple_draw_d1l2.5Ctarget.5Cd1lx_mango_ghs.5Cobj.5Ccom.461::
                        4688 .LDWlin461:
00001870 80075201*      4689 	br	.L2540
                        4690 .L2519:
                        4691 --1154: 		break;
                        4692 --1155: 		case  INDEX_COM_RS_BCMNoSmtKeyPRESSBRKTRR:/*BCMNoSmtKeyPressBrkTRR*/
                        4693 --1156: 			*pRes = v_rd_bool(BCMNoSmtKeyPressBrkTRR_handle);
                        4694 --line1156
                        4695 ..lin.D.3A.5CRenesas_Electronics.5CD1x_RGL.5Crgl_ghs_D1Lx_obj_V1.2E2.2E0.5Cvlib.5Capp.5Cgfx_apps.5Csimple_draw_d1l2.5Ctarget.5Cd1lx_mango_ghs.5Cobj.5Ccom.462::
                        4696 .LDWlin462:
00001874 260638023f00   4697 	mov	4129336,r6
                        4698 	jarl	_v_rd_bool,lp
                        4698 <EXPANSION BEGIN>
                        4698 jarl22 _v_rd_bool , lp 
0000187a 80ff0000*      4698 <EXPANSION END>
0000187e 5d570000       4699 	st.b	r10,0[r29]
                        4700 --line1157
                        4701 ..lin.D.3A.5CRenesas_Electronics.5CD1x_RGL.5Crgl_ghs_D1Lx_obj_V1.2E2.2E0.5Cvlib.5Capp.5Cgfx_apps.5Csimple_draw_d1l2.5Ctarget.5Cd1lx_mango_ghs.5Cobj.5Ccom.463::
                        4702 .LDWlin463:
00001882 80074001*      4703 	br	.L2540
                        4704 .L2520:
                        4705 --1157: 		break;
                        4706 --1158: 		case  INDEX_COM_RS_BCMNoSmtKeyPRESSCLTORR:/*BCMNoSmtKeyPressClToRR*/
                        4707 --1159: 			*pRes = v_rd_bool(BCMNoSmtKeyPressClToRR_handle);
                        4708 --line1159
                        4709 ..lin.D.3A.5CRenesas_Electronics.5CD1x_RGL.5Crgl_ghs_D1Lx_obj_V1.2E2.2E0.5Cvlib.5Capp.5Cgfx_apps.5Csimple_draw_d1l2.5Ctarget.5Cd1lx_mango_ghs.5Cobj.5Ccom.464::
                        4710 .LDWlin464:
00001886 26065c023f00   4711 	mov	4129372,r6
                        4712 	jarl	_v_rd_bool,lp
                        4712 <EXPANSION BEGIN>
                        4712 jarl22 _v_rd_bool , lp 
0000188c 80ff0000*      4712 <EXPANSION END>
00001890 5d570000       4713 	st.b	r10,0[r29]

                                                                      Page 90
                                                              C:\Users\YINGAO~1\AppData\Local\Temp\gh_000086k1.si
                        4714 --line1160
                        4715 ..lin.D.3A.5CRenesas_Electronics.5CD1x_RGL.5Crgl_ghs_D1Lx_obj_V1.2E2.2E0.5Cvlib.5Capp.5Cgfx_apps.5Csimple_draw_d1l2.5Ctarget.5Cd1lx_mango_ghs.5Cobj.5Ccom.465::
                        4716 .LDWlin465:
00001894 80072e01*      4717 	br	.L2540
                        4718 .L2521:
                        4719 --1160: 		break;
                        4720 --1161: 		case  INDEX_COM_RS_BCMPRESSBRKRMNDR:/*BCMPressBrkRmndr*/
                        4721 --1162: 			*pRes = v_rd_bool(BCMPressBrkRmndr_handle);
                        4722 --line1162
                        4723 ..lin.D.3A.5CRenesas_Electronics.5CD1x_RGL.5Crgl_ghs_D1Lx_obj_V1.2E2.2E0.5Cvlib.5Capp.5Cgfx_apps.5Csimple_draw_d1l2.5Ctarget.5Cd1lx_mango_ghs.5Cobj.5Ccom.466::
                        4724 .LDWlin466:
00001898 260680023f00   4725 	mov	4129408,r6
                        4726 	jarl	_v_rd_bool,lp
                        4726 <EXPANSION BEGIN>
                        4726 jarl22 _v_rd_bool , lp 
0000189e 80ff0000*      4726 <EXPANSION END>
000018a2 5d570000       4727 	st.b	r10,0[r29]
                        4728 --line1163
                        4729 ..lin.D.3A.5CRenesas_Electronics.5CD1x_RGL.5Crgl_ghs_D1Lx_obj_V1.2E2.2E0.5Cvlib.5Capp.5Cgfx_apps.5Csimple_draw_d1l2.5Ctarget.5Cd1lx_mango_ghs.5Cobj.5Ccom.467::
                        4730 .LDWlin467:
000018a6 80071c01*      4731 	br	.L2540
                        4732 .L2522:
                        4733 --1163: 		break;
                        4734 --1164: 		case  INDEX_COM_RS_BCMPRESSCLRMNDR:/*BCMPressClRmndr*/
                        4735 --1165: 			*pRes = v_rd_bool(BCMPressClRmndr_handle);
                        4736 --line1165
                        4737 ..lin.D.3A.5CRenesas_Electronics.5CD1x_RGL.5Crgl_ghs_D1Lx_obj_V1.2E2.2E0.5Cvlib.5Capp.5Cgfx_apps.5Csimple_draw_d1l2.5Ctarget.5Cd1lx_mango_ghs.5Cobj.5Ccom.468::
                        4738 .LDWlin468:
000018aa 2606a4023f00   4739 	mov	4129444,r6
                        4740 	jarl	_v_rd_bool,lp
                        4740 <EXPANSION BEGIN>
                        4740 jarl22 _v_rd_bool , lp 
000018b0 80ff0000*      4740 <EXPANSION END>
000018b4 5d570000       4741 	st.b	r10,0[r29]
                        4742 --line1166
                        4743 ..lin.D.3A.5CRenesas_Electronics.5CD1x_RGL.5Crgl_ghs_D1Lx_obj_V1.2E2.2E0.5Cvlib.5Capp.5Cgfx_apps.5Csimple_draw_d1l2.5Ctarget.5Cd1lx_mango_ghs.5Cobj.5Ccom.469::
                        4744 .LDWlin469:
000018b8 80070a01*      4745 	br	.L2540
                        4746 .L2523:
                        4747 --1166: 		break;
                        4748 --1167: 		case  INDEX_COM_RS_BCMPUTSMTKEYTOBKUPPOSR:/*BCMPutSmtKeyToBkupPosR*/
                        4749 --1168: 			*pRes = v_rd_bool(BCMPutSmtKeyToBkupPosR_handle);
                        4750 --line1168
                        4751 ..lin.D.3A.5CRenesas_Electronics.5CD1x_RGL.5Crgl_ghs_D1Lx_obj_V1.2E2.2E0.5Cvlib.5Capp.5Cgfx_apps.5Csimple_draw_d1l2.5Ctarget.5Cd1lx_mango_ghs.5Cobj.5Ccom.470::
                        4752 .LDWlin470:
000018bc 2606c8023f00   4753 	mov	4129480,r6
                        4754 	jarl	_v_rd_bool,lp
                        4754 <EXPANSION BEGIN>
                        4754 jarl22 _v_rd_bool , lp 
000018c2 80ff0000*      4754 <EXPANSION END>
000018c6 5d570000       4755 	st.b	r10,0[r29]
                        4756 --line1169
                        4757 ..lin.D.3A.5CRenesas_Electronics.5CD1x_RGL.5Crgl_ghs_D1Lx_obj_V1.2E2.2E0.5Cvlib.5Capp.5Cgfx_apps.5Csimple_draw_d1l2.5Ctarget.5Cd1lx_mango_ghs.5Cobj.5Ccom.471::
                        4758 .LDWlin471:
000018ca c57d*          4759 	br	.L2540
                        4760 .L2524:
                        4761 --1169: 		break;
                        4762 --1170: 		case  INDEX_COM_RS_BCMRUNCRKF:/*BCMRunCrkF*/
                        4763 --1171: 			*pRes = v_rd_bool(BCMRunCrkF_handle);
                        4764 --line1171
                        4765 ..lin.D.3A.5CRenesas_Electronics.5CD1x_RGL.5Crgl_ghs_D1Lx_obj_V1.2E2.2E0.5Cvlib.5Capp.5Cgfx_apps.5Csimple_draw_d1l2.5Ctarget.5Cd1lx_mango_ghs.5Cobj.5Ccom.472::

                                                                      Page 91
                                                              C:\Users\YINGAO~1\AppData\Local\Temp\gh_000086k1.si
                        4766 .LDWlin472:
000018cc 260634033f00   4767 	mov	4129588,r6
                        4768 	jarl	_v_rd_bool,lp
                        4768 <EXPANSION BEGIN>
                        4768 jarl22 _v_rd_bool , lp 
000018d2 80ff0000*      4768 <EXPANSION END>
000018d6 5d570000       4769 	st.b	r10,0[r29]
                        4770 --line1172
                        4771 ..lin.D.3A.5CRenesas_Electronics.5CD1x_RGL.5Crgl_ghs_D1Lx_obj_V1.2E2.2E0.5Cvlib.5Capp.5Cgfx_apps.5Csimple_draw_d1l2.5Ctarget.5Cd1lx_mango_ghs.5Cobj.5Ccom.473::
                        4772 .LDWlin473:
000018da c575*          4773 	br	.L2540
                        4774 .L2525:
                        4775 --1172: 		break;
                        4776 --1173: 		case  INDEX_COM_RS_BCMSHFTPARKRMNDR:/*BCMShftParkRmndr*/
                        4777 --1174: 			*pRes = v_rd_bool(BCMShftParkRmndr_handle);
                        4778 --line1174
                        4779 ..lin.D.3A.5CRenesas_Electronics.5CD1x_RGL.5Crgl_ghs_D1Lx_obj_V1.2E2.2E0.5Cvlib.5Capp.5Cgfx_apps.5Csimple_draw_d1l2.5Ctarget.5Cd1lx_mango_ghs.5Cobj.5Ccom.474::
                        4780 .LDWlin474:
000018dc 260658033f00   4781 	mov	4129624,r6
                        4782 	jarl	_v_rd_bool,lp
                        4782 <EXPANSION BEGIN>
                        4782 jarl22 _v_rd_bool , lp 
000018e2 80ff0000*      4782 <EXPANSION END>
000018e6 5d570000       4783 	st.b	r10,0[r29]
                        4784 --line1175
                        4785 ..lin.D.3A.5CRenesas_Electronics.5CD1x_RGL.5Crgl_ghs_D1Lx_obj_V1.2E2.2E0.5Cvlib.5Capp.5Cgfx_apps.5Csimple_draw_d1l2.5Ctarget.5Cd1lx_mango_ghs.5Cobj.5Ccom.475::
                        4786 .LDWlin475:
000018ea c56d*          4787 	br	.L2540
                        4788 .L2526:
                        4789 --1175: 		break;
                        4790 --1176: 		case  INDEX_COM_RS_BCMSYNCSMTKEYRMNDR:/*BCMSyncSmtKeyRmndr*/
                        4791 --1177: 			*pRes = v_rd_bool(BCMSyncSmtKeyRmndr_handle);
                        4792 --line1177
                        4793 ..lin.D.3A.5CRenesas_Electronics.5CD1x_RGL.5Crgl_ghs_D1Lx_obj_V1.2E2.2E0.5Cvlib.5Capp.5Cgfx_apps.5Csimple_draw_d1l2.5Ctarget.5Cd1lx_mango_ghs.5Cobj.5Ccom.476::
                        4794 .LDWlin476:
000018ec 2606e8033f00   4795 	mov	4129768,r6
                        4796 	jarl	_v_rd_bool,lp
                        4796 <EXPANSION BEGIN>
                        4796 jarl22 _v_rd_bool , lp 
000018f2 80ff0000*      4796 <EXPANSION END>
000018f6 5d570000       4797 	st.b	r10,0[r29]
                        4798 --line1178
                        4799 ..lin.D.3A.5CRenesas_Electronics.5CD1x_RGL.5Crgl_ghs_D1Lx_obj_V1.2E2.2E0.5Cvlib.5Capp.5Cgfx_apps.5Csimple_draw_d1l2.5Ctarget.5Cd1lx_mango_ghs.5Cobj.5Ccom.477::
                        4800 .LDWlin477:
000018fa c565*          4801 	br	.L2540
                        4802 .L2527:
                        4803 --1178: 		break;
                        4804 --1179: 		case  INDEX_COM_RS_BCMTAKESMTKEYOUTOFSR:/*BCMTakeSmtKeyOutOfSR_handle*/
                        4805 --1180: 			*pRes = v_rd_bool(BCMTakeSmtKeyOutOfSR_handle);
                        4806 --line1180
                        4807 ..lin.D.3A.5CRenesas_Electronics.5CD1x_RGL.5Crgl_ghs_D1Lx_obj_V1.2E2.2E0.5Cvlib.5Capp.5Cgfx_apps.5Csimple_draw_d1l2.5Ctarget.5Cd1lx_mango_ghs.5Cobj.5Ccom.478::
                        4808 .LDWlin478:
000018fc 26060c043f00   4809 	mov	4129804,r6
                        4810 	jarl	_v_rd_bool,lp
                        4810 <EXPANSION BEGIN>
                        4810 jarl22 _v_rd_bool , lp 
00001902 80ff0000*      4810 <EXPANSION END>
00001906 5d570000       4811 	st.b	r10,0[r29]
                        4812 --line1181
                        4813 ..lin.D.3A.5CRenesas_Electronics.5CD1x_RGL.5Crgl_ghs_D1Lx_obj_V1.2E2.2E0.5Cvlib.5Capp.5Cgfx_apps.5Csimple_draw_d1l2.5Ctarget.5Cd1lx_mango_ghs.5Cobj.5Ccom.479::
                        4814 .LDWlin479:

                                                                      Page 92
                                                              C:\Users\YINGAO~1\AppData\Local\Temp\gh_000086k1.si
0000190a c55d*          4815 	br	.L2540
                        4816 .L2528:
                        4817 --1181: 		break;
                        4818 --1182: 			
                        4819 --1183: 		case  INDEX_COM_RS_ECODRVNGAIO:/*EcoDrvngAIO*/
                        4820 --1184: 			*pRes = v_rd_bool(EcoDrvngAIO_handle);
                        4821 --line1184
                        4822 ..lin.D.3A.5CRenesas_Electronics.5CD1x_RGL.5Crgl_ghs_D1Lx_obj_V1.2E2.2E0.5Cvlib.5Capp.5Cgfx_apps.5Csimple_draw_d1l2.5Ctarget.5Cd1lx_mango_ghs.5Cobj.5Ccom.480::
                        4823 .LDWlin480:
0000190c 2606d4083f00   4824 	mov	4131028,r6
                        4825 	jarl	_v_rd_bool,lp
                        4825 <EXPANSION BEGIN>
                        4825 jarl22 _v_rd_bool , lp 
00001912 80ff0000*      4825 <EXPANSION END>
00001916 5d570000       4826 	st.b	r10,0[r29]
                        4827 --line1185
                        4828 ..lin.D.3A.5CRenesas_Electronics.5CD1x_RGL.5Crgl_ghs_D1Lx_obj_V1.2E2.2E0.5Cvlib.5Capp.5Cgfx_apps.5Csimple_draw_d1l2.5Ctarget.5Cd1lx_mango_ghs.5Cobj.5Ccom.481::
                        4829 .LDWlin481:
0000191a c555*          4830 	br	.L2540
                        4831 .L2529:
                        4832 --1185: 		break;
                        4833 --1186: 		case  INDEX_COM_RS_ECODRVNGSPDRUTA:/*ECODrvngSpdRutA*/
                        4834 --1187: 			*pRes = v_rd_bool(ECODrvngSpdRutA_handle);
                        4835 --line1187
                        4836 ..lin.D.3A.5CRenesas_Electronics.5CD1x_RGL.5Crgl_ghs_D1Lx_obj_V1.2E2.2E0.5Cvlib.5Capp.5Cgfx_apps.5Csimple_draw_d1l2.5Ctarget.5Cd1lx_mango_ghs.5Cobj.5Ccom.482::
                        4837 .LDWlin482:
0000191c 260640093f00   4838 	mov	4131136,r6
                        4839 	jarl	_v_rd_bool,lp
                        4839 <EXPANSION BEGIN>
                        4839 jarl22 _v_rd_bool , lp 
00001922 80ff0000*      4839 <EXPANSION END>
00001926 5d570000       4840 	st.b	r10,0[r29]
                        4841 --line1188
                        4842 ..lin.D.3A.5CRenesas_Electronics.5CD1x_RGL.5Crgl_ghs_D1Lx_obj_V1.2E2.2E0.5Cvlib.5Capp.5Cgfx_apps.5Csimple_draw_d1l2.5Ctarget.5Cd1lx_mango_ghs.5Cobj.5Ccom.483::
                        4843 .LDWlin483:
0000192a c54d*          4844 	br	.L2540
                        4845 .L2530:
                        4846 --1188: 		break;
                        4847 --1189: 		case  INDEX_COM_RS_EN12VOLTSTRMOTCMDDON:/*En12VoltStrMotCmddOn*/
                        4848 --1190: 			*pRes = v_rd_bool(En12VoltStrMotCmddOn_handle);
                        4849 --line1190
                        4850 ..lin.D.3A.5CRenesas_Electronics.5CD1x_RGL.5Crgl_ghs_D1Lx_obj_V1.2E2.2E0.5Cvlib.5Capp.5Cgfx_apps.5Csimple_draw_d1l2.5Ctarget.5Cd1lx_mango_ghs.5Cobj.5Ccom.484::
                        4851 .LDWlin484:
0000192c 260688093f00   4852 	mov	4131208,r6
                        4853 	jarl	_v_rd_bool,lp
                        4853 <EXPANSION BEGIN>
                        4853 jarl22 _v_rd_bool , lp 
00001932 80ff0000*      4853 <EXPANSION END>
00001936 5d570000       4854 	st.b	r10,0[r29]
                        4855 --line1191
                        4856 ..lin.D.3A.5CRenesas_Electronics.5CD1x_RGL.5Crgl_ghs_D1Lx_obj_V1.2E2.2E0.5Cvlib.5Capp.5Cgfx_apps.5Csimple_draw_d1l2.5Ctarget.5Cd1lx_mango_ghs.5Cobj.5Ccom.485::
                        4857 .LDWlin485:
0000193a c545*          4858 	br	.L2540
                        4859 .L2531:
                        4860 --1191: 		break;
                        4861 --1192: 		
                        4862 --1193: 		case  INDEX_COM_RS_PDCRLSNSRFLT_L:/*PDCRLSnsrFlt_L*/
                        4863 --1194: 			*pRes = v_rd_bool(PDCRLSnsrFlt_L_handle);
                        4864 --line1194
                        4865 ..lin.D.3A.5CRenesas_Electronics.5CD1x_RGL.5Crgl_ghs_D1Lx_obj_V1.2E2.2E0.5Cvlib.5Capp.5Cgfx_apps.5Csimple_draw_d1l2.5Ctarget.5Cd1lx_mango_ghs.5Cobj.5Ccom.486::
                        4866 .LDWlin486:

                                                                      Page 93
                                                              C:\Users\YINGAO~1\AppData\Local\Temp\gh_000086k1.si
0000193c 26065c383f00   4867 	mov	4143196,r6
                        4868 	jarl	_v_rd_bool,lp
                        4868 <EXPANSION BEGIN>
                        4868 jarl22 _v_rd_bool , lp 
00001942 80ff0000*      4868 <EXPANSION END>
00001946 5d570000       4869 	st.b	r10,0[r29]
                        4870 --line1195
                        4871 ..lin.D.3A.5CRenesas_Electronics.5CD1x_RGL.5Crgl_ghs_D1Lx_obj_V1.2E2.2E0.5Cvlib.5Capp.5Cgfx_apps.5Csimple_draw_d1l2.5Ctarget.5Cd1lx_mango_ghs.5Cobj.5Ccom.487::
                        4872 .LDWlin487:
0000194a c53d*          4873 	br	.L2540
                        4874 .L2532:
                        4875 --1195: 		break;
                        4876 --1196: 		case  INDEX_COM_RS_PDCRRMIDLSNSRFLT_L:/*PDCRrMidLSnsrFlt_L*/
                        4877 --1197: 			*pRes = v_rd_bool(PDCRrMidLSnsrFlt_L_handle);
                        4878 --line1197
                        4879 ..lin.D.3A.5CRenesas_Electronics.5CD1x_RGL.5Crgl_ghs_D1Lx_obj_V1.2E2.2E0.5Cvlib.5Capp.5Cgfx_apps.5Csimple_draw_d1l2.5Ctarget.5Cd1lx_mango_ghs.5Cobj.5Ccom.488::
                        4880 .LDWlin488:
0000194c 260680383f00   4881 	mov	4143232,r6
                        4882 	jarl	_v_rd_bool,lp
                        4882 <EXPANSION BEGIN>
                        4882 jarl22 _v_rd_bool , lp 
00001952 80ff0000*      4882 <EXPANSION END>
00001956 5d570000       4883 	st.b	r10,0[r29]
                        4884 --line1198
                        4885 ..lin.D.3A.5CRenesas_Electronics.5CD1x_RGL.5Crgl_ghs_D1Lx_obj_V1.2E2.2E0.5Cvlib.5Capp.5Cgfx_apps.5Csimple_draw_d1l2.5Ctarget.5Cd1lx_mango_ghs.5Cobj.5Ccom.489::
                        4886 .LDWlin489:
0000195a c535*          4887 	br	.L2540
                        4888 .L2533:
                        4889 --1198: 		break;
                        4890 --1199: 		case  INDEX_COM_RS_PDCRRMIDRSNSRFLT_L:/*PDCRrMidRSnsrFlt_L*/
                        4891 --1200: 			*pRes = v_rd_bool(PDCRrMidRSnsrFlt_L_handle);
                        4892 --line1200
                        4893 ..lin.D.3A.5CRenesas_Electronics.5CD1x_RGL.5Crgl_ghs_D1Lx_obj_V1.2E2.2E0.5Cvlib.5Capp.5Cgfx_apps.5Csimple_draw_d1l2.5Ctarget.5Cd1lx_mango_ghs.5Cobj.5Ccom.490::
                        4894 .LDWlin490:
0000195c 2606a4383f00   4895 	mov	4143268,r6
                        4896 	jarl	_v_rd_bool,lp
                        4896 <EXPANSION BEGIN>
                        4896 jarl22 _v_rd_bool , lp 
00001962 80ff0000*      4896 <EXPANSION END>
00001966 5d570000       4897 	st.b	r10,0[r29]
                        4898 --line1201
                        4899 ..lin.D.3A.5CRenesas_Electronics.5CD1x_RGL.5Crgl_ghs_D1Lx_obj_V1.2E2.2E0.5Cvlib.5Capp.5Cgfx_apps.5Csimple_draw_d1l2.5Ctarget.5Cd1lx_mango_ghs.5Cobj.5Ccom.491::
                        4900 .LDWlin491:
0000196a c52d*          4901 	br	.L2540
                        4902 .L2534:
                        4903 --1201: 		break;
                        4904 --1202: 		case  INDEX_COM_RS_PDCRRSNSRFLT_L:/*PDCRRSnsrFlt_L*/
                        4905 --1203: 			*pRes = v_rd_bool(PDCRRSnsrFlt_L_handle);
                        4906 --line1203
                        4907 ..lin.D.3A.5CRenesas_Electronics.5CD1x_RGL.5Crgl_ghs_D1Lx_obj_V1.2E2.2E0.5Cvlib.5Capp.5Cgfx_apps.5Csimple_draw_d1l2.5Ctarget.5Cd1lx_mango_ghs.5Cobj.5Ccom.492::
                        4908 .LDWlin492:
0000196c 2606c8383f00   4909 	mov	4143304,r6
                        4910 	jarl	_v_rd_bool,lp
                        4910 <EXPANSION BEGIN>
                        4910 jarl22 _v_rd_bool , lp 
00001972 80ff0000*      4910 <EXPANSION END>
00001976 5d570000       4911 	st.b	r10,0[r29]
                        4912 --line1204
                        4913 ..lin.D.3A.5CRenesas_Electronics.5CD1x_RGL.5Crgl_ghs_D1Lx_obj_V1.2E2.2E0.5Cvlib.5Capp.5Cgfx_apps.5Csimple_draw_d1l2.5Ctarget.5Cd1lx_mango_ghs.5Cobj.5Ccom.493::
                        4914 .LDWlin493:
0000197a c525*          4915 	br	.L2540

                                                                      Page 94
                                                              C:\Users\YINGAO~1\AppData\Local\Temp\gh_000086k1.si
                        4916 .L2535:
                        4917 --1204: 		break;		
                        4918 --1205: 		case  INDEX_COM_RS_TAKEKEYOUTRMNDR:/*TakeKeyOutRmndr*/
                        4919 --1206: 			*pRes = v_rd_bool(TakeKeyOutRmndr_handle);
                        4920 --line1206
                        4921 ..lin.D.3A.5CRenesas_Electronics.5CD1x_RGL.5Crgl_ghs_D1Lx_obj_V1.2E2.2E0.5Cvlib.5Capp.5Cgfx_apps.5Csimple_draw_d1l2.5Ctarget.5Cd1lx_mango_ghs.5Cobj.5Ccom.494::
                        4922 .LDWlin494:
0000197c 26063c1c3f00   4923 	mov	4135996,r6
                        4924 	jarl	_v_rd_bool,lp
                        4924 <EXPANSION BEGIN>
                        4924 jarl22 _v_rd_bool , lp 
00001982 80ff0000*      4924 <EXPANSION END>
00001986 5d570000       4925 	st.b	r10,0[r29]
                        4926 --line1207
                        4927 ..lin.D.3A.5CRenesas_Electronics.5CD1x_RGL.5Crgl_ghs_D1Lx_obj_V1.2E2.2E0.5Cvlib.5Capp.5Cgfx_apps.5Csimple_draw_d1l2.5Ctarget.5Cd1lx_mango_ghs.5Cobj.5Ccom.495::
                        4928 .LDWlin495:
0000198a c51d*          4929 	br	.L2540
                        4930 .L2536:
                        4931 --1207: 		break;
                        4932 --1208: 		case  INDEX_COM_RS_ASSINHBTNLAMPON:/*ASSInhBtnLampOn*/
                        4933 --1209: 			*pRes = v_rd_bool(ASSInhBtnLampOn_handle);
                        4934 --line1209
                        4935 ..lin.D.3A.5CRenesas_Electronics.5CD1x_RGL.5Crgl_ghs_D1Lx_obj_V1.2E2.2E0.5Cvlib.5Capp.5Cgfx_apps.5Csimple_draw_d1l2.5Ctarget.5Cd1lx_mango_ghs.5Cobj.5Ccom.496::
                        4936 .LDWlin496:
0000198c 260688003f00   4937 	mov	4128904,r6
                        4938 	jarl	_v_rd_bool,lp
                        4938 <EXPANSION BEGIN>
                        4938 jarl22 _v_rd_bool , lp 
00001992 80ff0000*      4938 <EXPANSION END>
00001996 5d570000       4939 	st.b	r10,0[r29]
                        4940 --line1210
                        4941 ..lin.D.3A.5CRenesas_Electronics.5CD1x_RGL.5Crgl_ghs_D1Lx_obj_V1.2E2.2E0.5Cvlib.5Capp.5Cgfx_apps.5Csimple_draw_d1l2.5Ctarget.5Cd1lx_mango_ghs.5Cobj.5Ccom.497::
                        4942 .LDWlin497:
0000199a c515*          4943 	br	.L2540
                        4944 .L2537:
                        4945 --1210: 		break;
                        4946 --1211: 		case  INDEX_COM_RS_TIMEADJREQA:/*TimeAdjReqA*/
                        4947 --1212: 			*pRes = v_rd_bool(TimeAdjReqA_handle);
                        4948 --line1212
                        4949 ..lin.D.3A.5CRenesas_Electronics.5CD1x_RGL.5Crgl_ghs_D1Lx_obj_V1.2E2.2E0.5Cvlib.5Capp.5Cgfx_apps.5Csimple_draw_d1l2.5Ctarget.5Cd1lx_mango_ghs.5Cobj.5Ccom.498::
                        4950 .LDWlin498:
0000199c 2606a81c3f00   4951 	mov	4136104,r6
                        4952 	jarl	_v_rd_bool,lp
                        4952 <EXPANSION BEGIN>
                        4952 jarl22 _v_rd_bool , lp 
000019a2 80ff0000*      4952 <EXPANSION END>
000019a6 5d570000       4953 	st.b	r10,0[r29]
                        4954 --line1213
                        4955 ..lin.D.3A.5CRenesas_Electronics.5CD1x_RGL.5Crgl_ghs_D1Lx_obj_V1.2E2.2E0.5Cvlib.5Capp.5Cgfx_apps.5Csimple_draw_d1l2.5Ctarget.5Cd1lx_mango_ghs.5Cobj.5Ccom.499::
                        4956 .LDWlin499:
000019aa c50d*          4957 	br	.L2540
                        4958 .L2538:
                        4959 --1213: 		break;
                        4960 --1214: 		case  INDEX_COM_RS_CALENDARADJREQA:/*CalendarAdjReqA*/
                        4961 --1215: 			*pRes = v_rd_bool(CalendarAdjReqA_handle);
                        4962 --line1215
                        4963 ..lin.D.3A.5CRenesas_Electronics.5CD1x_RGL.5Crgl_ghs_D1Lx_obj_V1.2E2.2E0.5Cvlib.5Capp.5Cgfx_apps.5Csimple_draw_d1l2.5Ctarget.5Cd1lx_mango_ghs.5Cobj.5Ccom.500::
                        4964 .LDWlin500:
000019ac 260650053f00   4965 	mov	4130128,r6
                        4966 	jarl	_v_rd_bool,lp
                        4966 <EXPANSION BEGIN>

                                                                      Page 95
                                                              C:\Users\YINGAO~1\AppData\Local\Temp\gh_000086k1.si
                        4966 jarl22 _v_rd_bool , lp 
000019b2 80ff0000*      4966 <EXPANSION END>
000019b6 5d570000       4967 	st.b	r10,0[r29]
                        4968 --line1216
                        4969 ..lin.D.3A.5CRenesas_Electronics.5CD1x_RGL.5Crgl_ghs_D1Lx_obj_V1.2E2.2E0.5Cvlib.5Capp.5Cgfx_apps.5Csimple_draw_d1l2.5Ctarget.5Cd1lx_mango_ghs.5Cobj.5Ccom.501::
                        4970 .LDWlin501:
000019ba c505*          4971 	br	.L2540
                        4972 .L2539:
                        4973 --1216: 		break;
                        4974 --1217: 	      default:
                        4975 --1218: 	            *pRes = FALSE;
                        4976 --line1218
                        4977 ..lin.D.3A.5CRenesas_Electronics.5CD1x_RGL.5Crgl_ghs_D1Lx_obj_V1.2E2.2E0.5Cvlib.5Capp.5Cgfx_apps.5Csimple_draw_d1l2.5Ctarget.5Cd1lx_mango_ghs.5Cobj.5Ccom.502::
                        4978 .LDWlin502:
000019bc 5d070000       4979 	st.b	zero,0[r29]
000019c0 0000           4980 	nop
                        4981 .L2540:
                        4982 --1219: 	      break;
                        4983 --1220: 		    }
                        4984 --1221: 	    }
                        4985 --1222:         else
                        4986 --1223:         {
                        4987 --1224:         }
                        4988 --1225: }
000019c2 0000           4989 	nop
                        4990 --	    .ef
                        4991 .LDW14:
000019c4 4006ff00       4992 	dispose	0,{r28,r29,r31},[lp]
                        4993 	.type	_COM_GetSignalValue_BOOL,@function
                        4994 	.size	_COM_GetSignalValue_BOOL,.-_COM_GetSignalValue_BOOL
                        4995 	.align	2
                        4996 .LDW24:
                        4997 
                        4998 --_Index	r28	param
                        4999 --_pRes	r29	param
                        5000 
                        5001 	.section ".bss","awb"
                        5002 .L2884:
                        5003 	.type	.L2884,@object
                        5004 	.size	.L2884,0
                        5005 	.data
                        5006 	.ghsnote jtable,2097156,.L2889,.L2889,.L2889,115
                        5007 	.ghsnote jtable,2097156,.L2891,.L2891,.L2891,42
                        5008 	.text
                        5009 
                        5010 
                        5011 --1227: void COM_GetSignalValue_16(U16 Index, PU16 pRes)
                        5012 	.align	2
                        5013 	.align	2
                        5014 	.global	_COM_GetSignalValue_16
                        5015 _COM_GetSignalValue_16:
000019c8 8207e170       5016 	prepare	{r25,r26,r27,r28,r29,r31},1
000019cc c6ceffff       5017 	andi	65535,r6,r25
000019d0 07e0           5018 	mov	r7,r28
000019d2 40dea03f       5019 	movhi	16288,zero,r27
000019d6 00d2           5020 	mov	0,r26
                        5021 --	    .bf
                        5022 .LDW34:
                        5023 --1228: {
                        5024 --1229:     U16 Value16;
                        5025 --1230:     S16 sValue;

                                                                      Page 96
                                                              C:\Users\YINGAO~1\AppData\Local\Temp\gh_000086k1.si
                        5026 --1231:     float fValue = 0;
000019d8 63070100       5027 	st.w	zero,0[sp]
000019dc 005a           5028 	mov	0,r11
                        5029 --1232: 	if(NULL != pRes)
000019de e0e1           5030 	cmp	zero,r28
000019e0 e2079903*      5031 	be	.L3444
                        5032 --1233: 	{
                        5033 --1234: 		switch(Index)
                        5034 --line1234
                        5035 ..lin.D.3A.5CRenesas_Electronics.5CD1x_RGL.5Crgl_ghs_D1Lx_obj_V1.2E2.2E0.5Cvlib.5Capp.5Cgfx_apps.5Csimple_draw_d1l2.5Ctarget.5Cd1lx_mango_ghs.5Cobj.5Ccom.503::
                        5036 .LDWlin503:
000019e4 1908           5037 	mov	r25,r1
000019e6 0106acff       5038 	addi	-84,r1,zero
000019ea f135*          5039 	bl	.L3628
000019ec 0106e8ff       5040 	addi	-24,r1,zero
000019f0 d10d*          5041 	bl	.L3631
000019f2 680a           5042 	cmp	8,r1
000019f4 c26d*          5043 	be	.L3419
000019f6 6a0a           5044 	cmp	10,r1
000019f8 b27d*          5045 	be	.L3420
000019fa 6c0a           5046 	cmp	12,r1
000019fc e2071501*      5047 	be	.L3421
00001a00 6e0a           5048 	cmp	14,r1
00001a02 ea077503*      5049 	bne	.L3443
00001a06 80072c01*      5050 	br	.L3422
                        5051 .L3631:
00001a0a 0106ccff       5052 	addi	-52,r1,zero
00001a0e b115*          5053 	bl	.L3638
00001a10 0106e8ff       5054 	addi	-24,r1,zero
00001a14 e2074101*      5055 	be	.L3423
00001a18 0106e6ff       5056 	addi	-26,r1,zero
00001a1c e2076101*      5057 	be	.L3424
00001a20 0106e1ff       5058 	addi	-31,r1,zero
00001a24 e2078101*      5059 	be	.L3425
00001a28 0106e0ff       5060 	addi	-32,r1,zero
00001a2c ea074b03*      5061 	bne	.L3443
00001a30 80074e02*      5062 	br	.L3433
                        5063 .L3638:
00001a34 0106ccff       5064 	addi	-52,r1,zero
00001a38 e2075f02*      5065 	be	.L3434
00001a3c 0106c9ff       5066 	addi	-55,r1,zero
00001a40 e2078902*      5067 	be	.L3436
00001a44 0106c6ff       5068 	addi	-58,r1,zero
00001a48 e207b302*      5069 	be	.L3438
00001a4c 0106c3ff       5070 	addi	-61,r1,zero
00001a50 ea072703*      5071 	bne	.L3443
00001a54 8007d802*      5072 	br	.L3440
                        5073 .L3628:
00001a58 010669ff       5074 	addi	-151,r1,zero
00001a5c b115*          5075 	bl	.L3649
00001a5e 0106acff       5076 	addi	-84,r1,zero
00001a62 e2077301*      5077 	be	.L3426
00001a66 010694ff       5078 	addi	-108,r1,zero
00001a6a e2079301*      5079 	be	.L3427
00001a6e 010671ff       5080 	addi	-143,r1,zero
00001a72 e207ed02*      5081 	be	.L3442
00001a76 01066bff       5082 	addi	-149,r1,zero
00001a7a ea07fd02*      5083 	bne	.L3443
00001a7e 80072e02*      5084 	br	.L3435
                        5085 .L3649:
00001a82 010613ff       5086 	addi	-237,r1,zero

                                                                      Page 97
                                                              C:\Users\YINGAO~1\AppData\Local\Temp\gh_000086k1.si
00001a86 b115*          5087 	bl	.L3656
00001a88 010669ff       5088 	addi	-151,r1,zero
00001a8c e2075302*      5089 	be	.L3437
00001a90 010660ff       5090 	addi	-160,r1,zero
00001a94 e2077d02*      5091 	be	.L3439
00001a98 01065dff       5092 	addi	-163,r1,zero
00001a9c e207a702*      5093 	be	.L3441
00001aa0 01061aff       5094 	addi	-230,r1,zero
00001aa4 ea07d302*      5095 	bne	.L3443
00001aa8 8007c401*      5096 	br	.L3432
                        5097 .L3656:
00001aac 010612ff       5098 	addi	-238,r1,zero
00001ab0 e9076501*      5099 	bnl	.L3428
00001ab4 e2077501*      5100 	be	.L3429
00001ab8 010610ff       5101 	addi	-240,r1,zero
00001abc e2078101*      5102 	be	.L3430
00001ac0 01060fff       5103 	addi	-241,r1,zero
00001ac4 ea07b302*      5104 	bne	.L3443
00001ac8 80078c01*      5105 	br	.L3431
                        5106 .L3419:
                        5107 --1235: 		{
                        5108 --1236: 		case  INDEX_COM_RS_WHLGNDVELLDRVN:/*WhlGndVelLDrvn*/
                        5109 --1237: 			Value16 = v_rd_16(WhlGndVelLDrvn_handle);
                        5110 --line1237
                        5111 ..lin.D.3A.5CRenesas_Electronics.5CD1x_RGL.5Crgl_ghs_D1Lx_obj_V1.2E2.2E0.5Cvlib.5Capp.5Cgfx_apps.5Csimple_draw_d1l2.5Ctarget.5Cd1lx_mango_ghs.5Cobj.5Ccom.504::
                        5112 .LDWlin504:
00001acc 260670213f00   5113 	mov	4137328,r6
                        5114 	jarl	_v_rd_16,lp
                        5114 <EXPANSION BEGIN>
                        5114 jarl22 _v_rd_16 , lp 
00001ad2 80ff0000*      5114 <EXPANSION END>
00001ad6 0ae8           5115 	mov	r10,r29
                        5116 --1238: 			*pRes = Value16 * 0.03125;
                        5117 --line1238
                        5118 ..lin.D.3A.5CRenesas_Electronics.5CD1x_RGL.5Crgl_ghs_D1Lx_obj_V1.2E2.2E0.5Cvlib.5Capp.5Cgfx_apps.5Csimple_draw_d1l2.5Ctarget.5Cd1lx_mango_ghs.5Cobj.5Ccom.505::
                        5119 .LDWlin505:
00001ad8 f0ef5264       5120 	cvtf.uwd	r29,r12
00001adc fa677464       5121 	mulf.d	r26,r12,r12
00001ae0 f167500c       5122 	trncf.duw	r12,r1
00001ae4 c100           5123 	zxh	r1
00001ae6 7c0f0000       5124 	st.h	r1,0[r28]
00001aea 80078e02*      5125 	br	.L3444
                        5126 .L3420:
                        5127 --1239: 		break;
                        5128 --1240: 		case  INDEX_COM_RS_WHLGNDVELLNONDRVN:/*WhlGndVelLNonDrvn*/
                        5129 --1241: 			Value16 = v_rd_16(WhlGndVelLNonDrvn_handle);
                        5130 --line1241
                        5131 ..lin.D.3A.5CRenesas_Electronics.5CD1x_RGL.5Crgl_ghs_D1Lx_obj_V1.2E2.2E0.5Cvlib.5Capp.5Cgfx_apps.5Csimple_draw_d1l2.5Ctarget.5Cd1lx_mango_ghs.5Cobj.5Ccom.506::
                        5132 .LDWlin506:
00001aee 2606b8213f00   5133 	mov	4137400,r6
                        5134 	jarl	_v_rd_16,lp
                        5134 <EXPANSION BEGIN>
                        5134 jarl22 _v_rd_16 , lp 
00001af4 80ff0000*      5134 <EXPANSION END>
00001af8 0ae8           5135 	mov	r10,r29
                        5136 --1242: 			*pRes = Value16 * 0.03125;
                        5137 --line1242
                        5138 ..lin.D.3A.5CRenesas_Electronics.5CD1x_RGL.5Crgl_ghs_D1Lx_obj_V1.2E2.2E0.5Cvlib.5Capp.5Cgfx_apps.5Csimple_draw_d1l2.5Ctarget.5Cd1lx_mango_ghs.5Cobj.5Ccom.507::
                        5139 .LDWlin507:
00001afa f0ef5264       5140 	cvtf.uwd	r29,r12
00001afe fa677464       5141 	mulf.d	r26,r12,r12

                                                                      Page 98
                                                              C:\Users\YINGAO~1\AppData\Local\Temp\gh_000086k1.si
00001b02 f167500c       5142 	trncf.duw	r12,r1
00001b06 c100           5143 	zxh	r1
00001b08 7c0f0000       5144 	st.h	r1,0[r28]
00001b0c 80076c02*      5145 	br	.L3444
                        5146 .L3421:
                        5147 --1243: 		break;
                        5148 --1244: 		case  INDEX_COM_RS_WhlGndVelRDrvn:/*WhlGndVelRDrvn*/
                        5149 --1245: 			Value16 = v_rd_16(WhlGndVelRDrvn_handle);
                        5150 --line1245
                        5151 ..lin.D.3A.5CRenesas_Electronics.5CD1x_RGL.5Crgl_ghs_D1Lx_obj_V1.2E2.2E0.5Cvlib.5Capp.5Cgfx_apps.5Csimple_draw_d1l2.5Ctarget.5Cd1lx_mango_ghs.5Cobj.5Ccom.508::
                        5152 .LDWlin508:
00001b10 260600223f00   5153 	mov	4137472,r6
                        5154 	jarl	_v_rd_16,lp
                        5154 <EXPANSION BEGIN>
                        5154 jarl22 _v_rd_16 , lp 
00001b16 80ff0000*      5154 <EXPANSION END>
00001b1a 0ae8           5155 	mov	r10,r29
                        5156 --1246: 			*pRes = Value16 * 0.03125;
                        5157 --line1246
                        5158 ..lin.D.3A.5CRenesas_Electronics.5CD1x_RGL.5Crgl_ghs_D1Lx_obj_V1.2E2.2E0.5Cvlib.5Capp.5Cgfx_apps.5Csimple_draw_d1l2.5Ctarget.5Cd1lx_mango_ghs.5Cobj.5Ccom.509::
                        5159 .LDWlin509:
00001b1c f0ef5264       5160 	cvtf.uwd	r29,r12
00001b20 fa677464       5161 	mulf.d	r26,r12,r12
00001b24 f167500c       5162 	trncf.duw	r12,r1
00001b28 c100           5163 	zxh	r1
00001b2a 7c0f0000       5164 	st.h	r1,0[r28]
00001b2e 80074a02*      5165 	br	.L3444
                        5166 .L3422:
                        5167 --1247: 		break;
                        5168 --1248: 		case  INDEX_COM_RS_WHLGNDVELRNONDRVN:/*WhlGndVelRNonDrvn*/
                        5169 --1249: 			Value16 = v_rd_16(WhlGndVelRNonDrvn_handle);
                        5170 --line1249
                        5171 ..lin.D.3A.5CRenesas_Electronics.5CD1x_RGL.5Crgl_ghs_D1Lx_obj_V1.2E2.2E0.5Cvlib.5Capp.5Cgfx_apps.5Csimple_draw_d1l2.5Ctarget.5Cd1lx_mango_ghs.5Cobj.5Ccom.510::
                        5172 .LDWlin510:
00001b32 260648223f00   5173 	mov	4137544,r6
                        5174 	jarl	_v_rd_16,lp
                        5174 <EXPANSION BEGIN>
                        5174 jarl22 _v_rd_16 , lp 
00001b38 80ff0000*      5174 <EXPANSION END>
00001b3c 0ae8           5175 	mov	r10,r29
                        5176 --1250: 			*pRes = Value16 * 0.03125;
                        5177 --line1250
                        5178 ..lin.D.3A.5CRenesas_Electronics.5CD1x_RGL.5Crgl_ghs_D1Lx_obj_V1.2E2.2E0.5Cvlib.5Capp.5Cgfx_apps.5Csimple_draw_d1l2.5Ctarget.5Cd1lx_mango_ghs.5Cobj.5Ccom.511::
                        5179 .LDWlin511:
00001b3e f0ef5264       5180 	cvtf.uwd	r29,r12
00001b42 fa677464       5181 	mulf.d	r26,r12,r12
00001b46 f167500c       5182 	trncf.duw	r12,r1
00001b4a c100           5183 	zxh	r1
00001b4c 7c0f0000       5184 	st.h	r1,0[r28]
00001b50 80072802*      5185 	br	.L3444
                        5186 .L3423:
                        5187 --1251: 		break;
                        5188 --1252: 		case  INDEX_COM_RS_ENSPD:/*EnSpd*/
                        5189 --1253: 			Value16 =v_rd_16(EnSpd_handle);
                        5190 --line1253
                        5191 ..lin.D.3A.5CRenesas_Electronics.5CD1x_RGL.5Crgl_ghs_D1Lx_obj_V1.2E2.2E0.5Cvlib.5Capp.5Cgfx_apps.5Csimple_draw_d1l2.5Ctarget.5Cd1lx_mango_ghs.5Cobj.5Ccom.512::
                        5192 .LDWlin512:
00001b54 2606f00a3f00   5193 	mov	4131568,r6
                        5194 	jarl	_v_rd_16,lp
                        5194 <EXPANSION BEGIN>
                        5194 jarl22 _v_rd_16 , lp 

                                                                      Page 99
                                                              C:\Users\YINGAO~1\AppData\Local\Temp\gh_000086k1.si
00001b5a 80ff0000*      5194 <EXPANSION END>
00001b5e 0ae8           5195 	mov	r10,r29
                        5196 --1254: 			*pRes = Value16 * 0.25;
                        5197 --line1254
                        5198 ..lin.D.3A.5CRenesas_Electronics.5CD1x_RGL.5Crgl_ghs_D1Lx_obj_V1.2E2.2E0.5Cvlib.5Capp.5Cgfx_apps.5Csimple_draw_d1l2.5Ctarget.5Cd1lx_mango_ghs.5Cobj.5Ccom.513::
                        5199 .LDWlin513:
00001b60 f0ef5264       5200 	cvtf.uwd	r29,r12
00001b64 405ed03f       5201 	movhi	16336,zero,r11
00001b68 0052           5202 	mov	0,r10
00001b6a ea677464       5203 	mulf.d	r10,r12,r12
00001b6e f167500c       5204 	trncf.duw	r12,r1
00001b72 c100           5205 	zxh	r1
00001b74 7c0f0000       5206 	st.h	r1,0[r28]
00001b78 80070002*      5207 	br	.L3444
                        5208 .L3424:
                        5209 --1255: 		break;
                        5210 --1256: 		case  INDEX_COM_RS_VEHSPDAVGDRVN:/*VehSpdAvgDrvn*/
                        5211 --1257: 			Value16 = v_rd_16(VehSpdAvgDrvn_handle);
                        5212 --line1257
                        5213 ..lin.D.3A.5CRenesas_Electronics.5CD1x_RGL.5Crgl_ghs_D1Lx_obj_V1.2E2.2E0.5Cvlib.5Capp.5Cgfx_apps.5Csimple_draw_d1l2.5Ctarget.5Cd1lx_mango_ghs.5Cobj.5Ccom.514::
                        5214 .LDWlin514:
00001b7c 26060c1f3f00   5215 	mov	4136716,r6
                        5216 	jarl	_v_rd_16,lp
                        5216 <EXPANSION BEGIN>
                        5216 jarl22 _v_rd_16 , lp 
00001b82 80ff0000*      5216 <EXPANSION END>
00001b86 0ae8           5217 	mov	r10,r29
                        5218 --1258: 			*pRes = (Value16 * 0.015625 );
                        5219 --line1258
                        5220 ..lin.D.3A.5CRenesas_Electronics.5CD1x_RGL.5Crgl_ghs_D1Lx_obj_V1.2E2.2E0.5Cvlib.5Capp.5Cgfx_apps.5Csimple_draw_d1l2.5Ctarget.5Cd1lx_mango_ghs.5Cobj.5Ccom.515::
                        5221 .LDWlin515:
00001b88 f0ef5264       5222 	cvtf.uwd	r29,r12
00001b8c 405e903f       5223 	movhi	16272,zero,r11
00001b90 0052           5224 	mov	0,r10
00001b92 ea677464       5225 	mulf.d	r10,r12,r12
00001b96 f167500c       5226 	trncf.duw	r12,r1
00001b9a c100           5227 	zxh	r1
00001b9c 7c0f0000       5228 	st.h	r1,0[r28]
00001ba0 8007d801*      5229 	br	.L3444
                        5230 .L3425:
                        5231 --1259: 		break;
                        5232 --1260: 		case  INDEX_COM_RS_CRUSANDSPDLMTRDRVRSS:/*CrusAndSpdLmtrDrvrSS*/
                        5233 --1261: 			Value16 =v_rd_16(CrusAndSpdLmtrDrvrSS_handle);            
                        5234 --line1261
                        5235 ..lin.D.3A.5CRenesas_Electronics.5CD1x_RGL.5Crgl_ghs_D1Lx_obj_V1.2E2.2E0.5Cvlib.5Capp.5Cgfx_apps.5Csimple_draw_d1l2.5Ctarget.5Cd1lx_mango_ghs.5Cobj.5Ccom.516::
                        5236 .LDWlin516:
00001ba4 260694063f00   5237 	mov	4130452,r6
                        5238 	jarl	_v_rd_16,lp
                        5238 <EXPANSION BEGIN>
                        5238 jarl22 _v_rd_16 , lp 
00001baa 80ff0000*      5238 <EXPANSION END>
00001bae 0ae8           5239 	mov	r10,r29
                        5240 --1262: 			 *pRes = (Value16 * 0.0625 + 0.5);
                        5241 --line1262
                        5242 ..lin.D.3A.5CRenesas_Electronics.5CD1x_RGL.5Crgl_ghs_D1Lx_obj_V1.2E2.2E0.5Cvlib.5Capp.5Cgfx_apps.5Csimple_draw_d1l2.5Ctarget.5Cd1lx_mango_ghs.5Cobj.5Ccom.517::
                        5243 .LDWlin517:
00001bb0 f0ef5264       5244 	cvtf.uwd	r29,r12
00001bb4 405eb03f       5245 	movhi	16304,zero,r11
00001bb8 0052           5246 	mov	0,r10
00001bba ea677464       5247 	mulf.d	r10,r12,r12
00001bbe 405ee03f       5248 	movhi	16352,zero,r11

                                                                      Page 100
                                                              C:\Users\YINGAO~1\AppData\Local\Temp\gh_000086k1.si
00001bc2 ea677064       5249 	addf.d	r10,r12,r12
00001bc6 f167500c       5250 	trncf.duw	r12,r1
00001bca c100           5251 	zxh	r1
00001bcc 7c0f0000       5252 	st.h	r1,0[r28]
00001bd0 8007a801*      5253 	br	.L3444
                        5254 .L3426:
                        5255 --1263: 		break;
                        5256 --1265: 		case  INDEX_COM_RS_DISTRCAVGDRVN:/*DistRCAvgDRVN*/
                        5257 --1266: 			Value16 = v_rd_16(DistRCAvgDrvn_handle);
                        5258 --line1266
                        5259 ..lin.D.3A.5CRenesas_Electronics.5CD1x_RGL.5Crgl_ghs_D1Lx_obj_V1.2E2.2E0.5Cvlib.5Capp.5Cgfx_apps.5Csimple_draw_d1l2.5Ctarget.5Cd1lx_mango_ghs.5Cobj.5Ccom.518::
                        5260 .LDWlin518:
00001bd4 26066c073f00   5261 	mov	4130668,r6
                        5262 	jarl	_v_rd_16,lp
                        5262 <EXPANSION BEGIN>
                        5262 jarl22 _v_rd_16 , lp 
00001bda 80ff0000*      5262 <EXPANSION END>
00001bde 0ae8           5263 	mov	r10,r29
                        5264 --1267: 			*pRes = Value16 * 0.125;
                        5265 --line1267
                        5266 ..lin.D.3A.5CRenesas_Electronics.5CD1x_RGL.5Crgl_ghs_D1Lx_obj_V1.2E2.2E0.5Cvlib.5Capp.5Cgfx_apps.5Csimple_draw_d1l2.5Ctarget.5Cd1lx_mango_ghs.5Cobj.5Ccom.519::
                        5267 .LDWlin519:
00001be0 f0ef5264       5268 	cvtf.uwd	r29,r12
00001be4 405ec03f       5269 	movhi	16320,zero,r11
00001be8 0052           5270 	mov	0,r10
00001bea ea677464       5271 	mulf.d	r10,r12,r12
00001bee f167500c       5272 	trncf.duw	r12,r1
00001bf2 c100           5273 	zxh	r1
00001bf4 7c0f0000       5274 	st.h	r1,0[r28]
00001bf8 80078001*      5275 	br	.L3444
                        5276 .L3427:
                        5277 --1268: 		break;
                        5278 --1269: 		case  INDEX_COM_RS_FUELCSUMP:/*FuelCsump*/
                        5279 --1270: 			Value16 = v_rd_16 (FuelCsump_handle);
                        5280 --line1270
                        5281 ..lin.D.3A.5CRenesas_Electronics.5CD1x_RGL.5Crgl_ghs_D1Lx_obj_V1.2E2.2E0.5Cvlib.5Capp.5Cgfx_apps.5Csimple_draw_d1l2.5Ctarget.5Cd1lx_mango_ghs.5Cobj.5Ccom.520::
                        5282 .LDWlin520:
00001bfc 2606b4103f00   5283 	mov	4133044,r6
                        5284 	jarl	_v_rd_16,lp
                        5284 <EXPANSION BEGIN>
                        5284 jarl22 _v_rd_16 , lp 
00001c02 80ff0000*      5284 <EXPANSION END>
00001c06 0ae8           5285 	mov	r10,r29
                        5286 --1271: 			*pRes = Value16 * 16;
                        5287 --line1271
                        5288 ..lin.D.3A.5CRenesas_Electronics.5CD1x_RGL.5Crgl_ghs_D1Lx_obj_V1.2E2.2E0.5Cvlib.5Capp.5Cgfx_apps.5Csimple_draw_d1l2.5Ctarget.5Cd1lx_mango_ghs.5Cobj.5Ccom.521::
                        5289 .LDWlin521:
00001c08 1d08           5290 	mov	r29,r1
00001c0a c40a           5291 	shl	4,r1
00001c0c 7c0f0000       5292 	st.h	r1,0[r28]
00001c10 80076801*      5293 	br	.L3444
                        5294 .L3428:
                        5295 --1272: 		break;
                        5296 --1273: 		case  INDEX_COM_RS_NAVDIST:/*NavDist*/
                        5297 --1274: 			Value16 = v_rd_16 (NavDist_handle);
                        5298 --line1274
                        5299 ..lin.D.3A.5CRenesas_Electronics.5CD1x_RGL.5Crgl_ghs_D1Lx_obj_V1.2E2.2E0.5Cvlib.5Capp.5Cgfx_apps.5Csimple_draw_d1l2.5Ctarget.5Cd1lx_mango_ghs.5Cobj.5Ccom.522::
                        5300 .LDWlin522:
00001c14 260680143f00   5301 	mov	4134016,r6
                        5302 	jarl	_v_rd_16,lp
                        5302 <EXPANSION BEGIN>

                                                                      Page 101
                                                              C:\Users\YINGAO~1\AppData\Local\Temp\gh_000086k1.si
                        5302 jarl22 _v_rd_16 , lp 
00001c1a 80ff0000*      5302 <EXPANSION END>
00001c1e 0ae8           5303 	mov	r10,r29
                        5304 --1275: 			*pRes = Value16;
                        5305 --line1275
                        5306 ..lin.D.3A.5CRenesas_Electronics.5CD1x_RGL.5Crgl_ghs_D1Lx_obj_V1.2E2.2E0.5Cvlib.5Capp.5Cgfx_apps.5Csimple_draw_d1l2.5Ctarget.5Cd1lx_mango_ghs.5Cobj.5Ccom.523::
                        5307 .LDWlin523:
00001c20 7cef0000       5308 	st.h	r29,0[r28]
00001c24 80075401*      5309 	br	.L3444
                        5310 .L3429:
                        5311 --1276: 		break;
                        5312 --1277: 		case  INDEX_COM_RS_RDOFRQCVAL:/*RdoFrqcVal*/
                        5313 --1278: 			Value16 = v_rd_16 (RdoFrqcVal_handle);
                        5314 --line1278
                        5315 ..lin.D.3A.5CRenesas_Electronics.5CD1x_RGL.5Crgl_ghs_D1Lx_obj_V1.2E2.2E0.5Cvlib.5Capp.5Cgfx_apps.5Csimple_draw_d1l2.5Ctarget.5Cd1lx_mango_ghs.5Cobj.5Ccom.524::
                        5316 .LDWlin524:
00001c28 260678163f00   5317 	mov	4134520,r6
                        5318 	jarl	_v_rd_16,lp
                        5318 <EXPANSION BEGIN>
                        5318 jarl22 _v_rd_16 , lp 
00001c2e 80ff0000*      5318 <EXPANSION END>
00001c32 0ae8           5319 	mov	r10,r29
                        5320 --1279: 			*pRes = Value16;
                        5321 --line1279
                        5322 ..lin.D.3A.5CRenesas_Electronics.5CD1x_RGL.5Crgl_ghs_D1Lx_obj_V1.2E2.2E0.5Cvlib.5Capp.5Cgfx_apps.5Csimple_draw_d1l2.5Ctarget.5Cd1lx_mango_ghs.5Cobj.5Ccom.525::
                        5323 .LDWlin525:
00001c34 7cef0000       5324 	st.h	r29,0[r28]
00001c38 80074001*      5325 	br	.L3444
                        5326 .L3430:
                        5327 --1280: 		break;
                        5328 --1281: 		case  INDEX_COM_RS_SPDASTSYSTRGTSPD:/*SpdAstSysTrgtSpd*/
                        5329 --1282: 			Value16 = v_rd_16 (SpdAstSysTrgtSpd_handle);
                        5330 --line1282
                        5331 ..lin.D.3A.5CRenesas_Electronics.5CD1x_RGL.5Crgl_ghs_D1Lx_obj_V1.2E2.2E0.5Cvlib.5Capp.5Cgfx_apps.5Csimple_draw_d1l2.5Ctarget.5Cd1lx_mango_ghs.5Cobj.5Ccom.526::
                        5332 .LDWlin526:
00001c3c 2606fc193f00   5333 	mov	4135420,r6
                        5334 	jarl	_v_rd_16,lp
                        5334 <EXPANSION BEGIN>
                        5334 jarl22 _v_rd_16 , lp 
00001c42 80ff0000*      5334 <EXPANSION END>
00001c46 0ae8           5335 	mov	r10,r29
                        5336 --1283: 			*pRes = Value16 * 16;
                        5337 --line1283
                        5338 ..lin.D.3A.5CRenesas_Electronics.5CD1x_RGL.5Crgl_ghs_D1Lx_obj_V1.2E2.2E0.5Cvlib.5Capp.5Cgfx_apps.5Csimple_draw_d1l2.5Ctarget.5Cd1lx_mango_ghs.5Cobj.5Ccom.527::
                        5339 .LDWlin527:
00001c48 1d08           5340 	mov	r29,r1
00001c4a c40a           5341 	shl	4,r1
00001c4c 7c0f0000       5342 	st.h	r1,0[r28]
00001c50 80072801*      5343 	br	.L3444
                        5344 .L3431:
                        5345 --1284: 		break;
                        5346 --1285: 		case  INDEX_COM_RS_RMNDRVNGDIST:/*RmnDrvngDist*/
                        5347 --1286: 			Value16 = v_rd_16 (RmnDrvngDist_handle);
                        5348 --line1286
                        5349 ..lin.D.3A.5CRenesas_Electronics.5CD1x_RGL.5Crgl_ghs_D1Lx_obj_V1.2E2.2E0.5Cvlib.5Capp.5Cgfx_apps.5Csimple_draw_d1l2.5Ctarget.5Cd1lx_mango_ghs.5Cobj.5Ccom.528::
                        5350 .LDWlin528:
00001c54 260644353f00   5351 	mov	4142404,r6
                        5352 	jarl	_v_rd_16,lp
                        5352 <EXPANSION BEGIN>
                        5352 jarl22 _v_rd_16 , lp 
00001c5a 80ff0000*      5352 <EXPANSION END>

                                                                      Page 102
                                                              C:\Users\YINGAO~1\AppData\Local\Temp\gh_000086k1.si
00001c5e 0ae8           5353 	mov	r10,r29
                        5354 --1287: 			*pRes = Value16 * 16;
                        5355 --line1287
                        5356 ..lin.D.3A.5CRenesas_Electronics.5CD1x_RGL.5Crgl_ghs_D1Lx_obj_V1.2E2.2E0.5Cvlib.5Capp.5Cgfx_apps.5Csimple_draw_d1l2.5Ctarget.5Cd1lx_mango_ghs.5Cobj.5Ccom.529::
                        5357 .LDWlin529:
00001c60 1d08           5358 	mov	r29,r1
00001c62 c40a           5359 	shl	4,r1
00001c64 7c0f0000       5360 	st.h	r1,0[r28]
00001c68 80071001*      5361 	br	.L3444
                        5362 .L3432:
                        5363 --1288: 		break;
                        5364 --1289: 		
                        5365 --1290: 		case  INDEX_COM_RS_BATVOL:/*BatVol*/
                        5366 --1291: 			Value16 = v_rd_16 (BatVol_handle);			
                        5367 --line1291
                        5368 ..lin.D.3A.5CRenesas_Electronics.5CD1x_RGL.5Crgl_ghs_D1Lx_obj_V1.2E2.2E0.5Cvlib.5Capp.5Cgfx_apps.5Csimple_draw_d1l2.5Ctarget.5Cd1lx_mango_ghs.5Cobj.5Ccom.530::
                        5369 .LDWlin530:
00001c6c 2606a8013f00   5370 	mov	4129192,r6
                        5371 	jarl	_v_rd_16,lp
                        5371 <EXPANSION BEGIN>
                        5371 jarl22 _v_rd_16 , lp 
00001c72 80ff0000*      5371 <EXPANSION END>
00001c76 0ae8           5372 	mov	r10,r29
                        5373 --1292: 			*pRes = Value16;
                        5374 --line1292
                        5375 ..lin.D.3A.5CRenesas_Electronics.5CD1x_RGL.5Crgl_ghs_D1Lx_obj_V1.2E2.2E0.5Cvlib.5Capp.5Cgfx_apps.5Csimple_draw_d1l2.5Ctarget.5Cd1lx_mango_ghs.5Cobj.5Ccom.531::
                        5376 .LDWlin531:
00001c78 7cef0000       5377 	st.h	r29,0[r28]
00001c7c e57d*          5378 	br	.L3444
                        5379 .L3433:
                        5380 --1293: 		break;
                        5381 --1294: 		case  INDEX_COM_RS_ENCLNTTEM:/*EnClntTem*/
                        5382 --1295: 			Value16 = v_rd_8(EnClntTem_handle);
                        5383 --line1295
                        5384 ..lin.D.3A.5CRenesas_Electronics.5CD1x_RGL.5Crgl_ghs_D1Lx_obj_V1.2E2.2E0.5Cvlib.5Capp.5Cgfx_apps.5Csimple_draw_d1l2.5Ctarget.5Cd1lx_mango_ghs.5Cobj.5Ccom.532::
                        5385 .LDWlin532:
00001c7e 2606d0093f00   5386 	mov	4131280,r6
                        5387 	jarl	_v_rd_8,lp
                        5387 <EXPANSION BEGIN>
                        5387 jarl22 _v_rd_8 , lp 
00001c84 80ff0000*      5387 <EXPANSION END>
00001c88 0ae8           5388 	mov	r10,r29
                        5389 --1296: 			sValue = Value16 - 40;
                        5390 --line1296
                        5391 ..lin.D.3A.5CRenesas_Electronics.5CD1x_RGL.5Crgl_ghs_D1Lx_obj_V1.2E2.2E0.5Cvlib.5Capp.5Cgfx_apps.5Csimple_draw_d1l2.5Ctarget.5Cd1lx_mango_ghs.5Cobj.5Ccom.533::
                        5392 .LDWlin533:
00001c8a 1d0ed8ff       5393 	addi	-40,r29,r1
00001c8e e100           5394 	sxh	r1
                        5395 --1297: 			*pRes = sValue;
00001c90 7c0f0000       5396 	st.h	r1,0[r28]
00001c94 a575*          5397 	br	.L3444
                        5398 .L3434:
                        5399 --1298: 		break;
                        5400 --1299:          #if 1  //return U16
                        5401 --1300:           case  INDEX_COM_RS_FLTIREPRS:/*FLTirePrs*/
                        5402 --1301: 		  	Value16 = v_rd_8(FLTirePrs_handle);
                        5403 --line1301
                        5404 ..lin.D.3A.5CRenesas_Electronics.5CD1x_RGL.5Crgl_ghs_D1Lx_obj_V1.2E2.2E0.5Cvlib.5Capp.5Cgfx_apps.5Csimple_draw_d1l2.5Ctarget.5Cd1lx_mango_ghs.5Cobj.5Ccom.534::
                        5405 .LDWlin534:
00001c96 2606e00e3f00   5406 	mov	4132576,r6
                        5407 	jarl	_v_rd_8,lp

                                                                      Page 103
                                                              C:\Users\YINGAO~1\AppData\Local\Temp\gh_000086k1.si
                        5407 <EXPANSION BEGIN>
                        5407 jarl22 _v_rd_8 , lp 
00001c9c 80ff0000*      5407 <EXPANSION END>
00001ca0 0ae8           5408 	mov	r10,r29
                        5409 --1302: 			*pRes =Value16* 4;
                        5410 --line1302
                        5411 ..lin.D.3A.5CRenesas_Electronics.5CD1x_RGL.5Crgl_ghs_D1Lx_obj_V1.2E2.2E0.5Cvlib.5Capp.5Cgfx_apps.5Csimple_draw_d1l2.5Ctarget.5Cd1lx_mango_ghs.5Cobj.5Ccom.535::
                        5412 .LDWlin535:
00001ca2 1d08           5413 	mov	r29,r1
00001ca4 c20a           5414 	shl	2,r1
00001ca6 7c0f0000       5415 	st.h	r1,0[r28]
00001caa f565*          5416 	br	.L3444
                        5417 .L3435:
                        5418 --1303: 		break;
                        5419 --1304: 		case  INDEX_COM_RS_FLTIRETEM:/*FLTireTem*/
                        5420 --1305: 			Value16 = v_rd_8(FLTireTem_handle);
                        5421 --line1305
                        5422 ..lin.D.3A.5CRenesas_Electronics.5CD1x_RGL.5Crgl_ghs_D1Lx_obj_V1.2E2.2E0.5Cvlib.5Capp.5Cgfx_apps.5Csimple_draw_d1l2.5Ctarget.5Cd1lx_mango_ghs.5Cobj.5Ccom.536::
                        5423 .LDWlin536:
00001cac 26064c0f3f00   5424 	mov	4132684,r6
                        5425 	jarl	_v_rd_8,lp
                        5425 <EXPANSION BEGIN>
                        5425 jarl22 _v_rd_8 , lp 
00001cb2 80ff0000*      5425 <EXPANSION END>
00001cb6 0ae8           5426 	mov	r10,r29
                        5427 --1306: 			sValue = Value16*2-60;
                        5428 --line1306
                        5429 ..lin.D.3A.5CRenesas_Electronics.5CD1x_RGL.5Crgl_ghs_D1Lx_obj_V1.2E2.2E0.5Cvlib.5Capp.5Cgfx_apps.5Csimple_draw_d1l2.5Ctarget.5Cd1lx_mango_ghs.5Cobj.5Ccom.537::
                        5430 .LDWlin537:
00001cb8 1d70           5431 	mov	r29,r14
00001cba c172           5432 	shl	1,r14
00001cbc 0e0ec4ff       5433 	addi	-60,r14,r1
00001cc0 e100           5434 	sxh	r1
                        5435 --1307: 			*pRes = sValue;
00001cc2 7c0f0000       5436 	st.h	r1,0[r28]
00001cc6 955d*          5437 	br	.L3444
                        5438 .L3436:
                        5439 --1308: 		break;
                        5440 --1309: 		
                        5441 --1310: 		case  INDEX_COM_RS_FRTIREPRS:/*FRTirePrs*/			
                        5442 --1311: 		  	Value16 = v_rd_8(FRTirePrs_handle);
                        5443 --line1311
                        5444 ..lin.D.3A.5CRenesas_Electronics.5CD1x_RGL.5Crgl_ghs_D1Lx_obj_V1.2E2.2E0.5Cvlib.5Capp.5Cgfx_apps.5Csimple_draw_d1l2.5Ctarget.5Cd1lx_mango_ghs.5Cobj.5Ccom.538::
                        5445 .LDWlin538:
00001cc8 2606b80f3f00   5446 	mov	4132792,r6
                        5447 	jarl	_v_rd_8,lp
                        5447 <EXPANSION BEGIN>
                        5447 jarl22 _v_rd_8 , lp 
00001cce 80ff0000*      5447 <EXPANSION END>
00001cd2 0ae8           5448 	mov	r10,r29
                        5449 --1312: 			*pRes =Value16* 4;
                        5450 --line1312
                        5451 ..lin.D.3A.5CRenesas_Electronics.5CD1x_RGL.5Crgl_ghs_D1Lx_obj_V1.2E2.2E0.5Cvlib.5Capp.5Cgfx_apps.5Csimple_draw_d1l2.5Ctarget.5Cd1lx_mango_ghs.5Cobj.5Ccom.539::
                        5452 .LDWlin539:
00001cd4 1d08           5453 	mov	r29,r1
00001cd6 c20a           5454 	shl	2,r1
00001cd8 7c0f0000       5455 	st.h	r1,0[r28]
00001cdc e54d*          5456 	br	.L3444
                        5457 .L3437:
                        5458 --1313: 		break;
                        5459 --1314: 		case  INDEX_COM_RS_FRTIRETEM:/*FLTireTem*/

                                                                      Page 104
                                                              C:\Users\YINGAO~1\AppData\Local\Temp\gh_000086k1.si
                        5460 --1315: 			Value16 = v_rd_8(FRTireTem_handle);
                        5461 --line1315
                        5462 ..lin.D.3A.5CRenesas_Electronics.5CD1x_RGL.5Crgl_ghs_D1Lx_obj_V1.2E2.2E0.5Cvlib.5Capp.5Cgfx_apps.5Csimple_draw_d1l2.5Ctarget.5Cd1lx_mango_ghs.5Cobj.5Ccom.540::
                        5463 .LDWlin540:
00001cde 260624103f00   5464 	mov	4132900,r6
                        5465 	jarl	_v_rd_8,lp
                        5465 <EXPANSION BEGIN>
                        5465 jarl22 _v_rd_8 , lp 
00001ce4 80ff0000*      5465 <EXPANSION END>
00001ce8 0ae8           5466 	mov	r10,r29
                        5467 --1316: 			sValue = Value16*2-60;
                        5468 --line1316
                        5469 ..lin.D.3A.5CRenesas_Electronics.5CD1x_RGL.5Crgl_ghs_D1Lx_obj_V1.2E2.2E0.5Cvlib.5Capp.5Cgfx_apps.5Csimple_draw_d1l2.5Ctarget.5Cd1lx_mango_ghs.5Cobj.5Ccom.541::
                        5470 .LDWlin541:
00001cea 1d70           5471 	mov	r29,r14
00001cec c172           5472 	shl	1,r14
00001cee 0e0ec4ff       5473 	addi	-60,r14,r1
00001cf2 e100           5474 	sxh	r1
                        5475 --1317: 			*pRes = sValue;
00001cf4 7c0f0000       5476 	st.h	r1,0[r28]
00001cf8 8545*          5477 	br	.L3444
                        5478 .L3438:
                        5479 --1318: 		break;
                        5480 --1319: 		case  INDEX_COM_RS_RLTIREPRS:/*RLTirePrs*/			
                        5481 --1320: 		  	Value16 = v_rd_8(RLTirePrs_handle);
                        5482 --line1320
                        5483 ..lin.D.3A.5CRenesas_Electronics.5CD1x_RGL.5Crgl_ghs_D1Lx_obj_V1.2E2.2E0.5Cvlib.5Capp.5Cgfx_apps.5Csimple_draw_d1l2.5Ctarget.5Cd1lx_mango_ghs.5Cobj.5Ccom.542::
                        5484 .LDWlin542:
00001cfa 2606c0163f00   5485 	mov	4134592,r6
                        5486 	jarl	_v_rd_8,lp
                        5486 <EXPANSION BEGIN>
                        5486 jarl22 _v_rd_8 , lp 
00001d00 80ff0000*      5486 <EXPANSION END>
00001d04 0ae8           5487 	mov	r10,r29
                        5488 --1321: 			*pRes =Value16* 4;
                        5489 --line1321
                        5490 ..lin.D.3A.5CRenesas_Electronics.5CD1x_RGL.5Crgl_ghs_D1Lx_obj_V1.2E2.2E0.5Cvlib.5Capp.5Cgfx_apps.5Csimple_draw_d1l2.5Ctarget.5Cd1lx_mango_ghs.5Cobj.5Ccom.543::
                        5491 .LDWlin543:
00001d06 1d08           5492 	mov	r29,r1
00001d08 c20a           5493 	shl	2,r1
00001d0a 7c0f0000       5494 	st.h	r1,0[r28]
00001d0e d535*          5495 	br	.L3444
                        5496 .L3439:
                        5497 --1322: 		break;
                        5498 --1323: 		case  INDEX_COM_RS_RLTIRETEM:/*FLTireTem*/
                        5499 --1324: 			Value16 = v_rd_8(RLTireTem_handle);
                        5500 --line1324
                        5501 ..lin.D.3A.5CRenesas_Electronics.5CD1x_RGL.5Crgl_ghs_D1Lx_obj_V1.2E2.2E0.5Cvlib.5Capp.5Cgfx_apps.5Csimple_draw_d1l2.5Ctarget.5Cd1lx_mango_ghs.5Cobj.5Ccom.544::
                        5502 .LDWlin544:
00001d10 26062c173f00   5503 	mov	4134700,r6
                        5504 	jarl	_v_rd_8,lp
                        5504 <EXPANSION BEGIN>
                        5504 jarl22 _v_rd_8 , lp 
00001d16 80ff0000*      5504 <EXPANSION END>
00001d1a 0ae8           5505 	mov	r10,r29
                        5506 --1325: 			sValue = Value16*2-60;
                        5507 --line1325
                        5508 ..lin.D.3A.5CRenesas_Electronics.5CD1x_RGL.5Crgl_ghs_D1Lx_obj_V1.2E2.2E0.5Cvlib.5Capp.5Cgfx_apps.5Csimple_draw_d1l2.5Ctarget.5Cd1lx_mango_ghs.5Cobj.5Ccom.545::
                        5509 .LDWlin545:
00001d1c 1d70           5510 	mov	r29,r14
00001d1e c172           5511 	shl	1,r14

                                                                      Page 105
                                                              C:\Users\YINGAO~1\AppData\Local\Temp\gh_000086k1.si
00001d20 0e0ec4ff       5512 	addi	-60,r14,r1
00001d24 e100           5513 	sxh	r1
                        5514 --1326: 			*pRes = sValue;
00001d26 7c0f0000       5515 	st.h	r1,0[r28]
00001d2a f525*          5516 	br	.L3444
                        5517 .L3440:
                        5518 --1327: 		break;
                        5519 --1328: 		case  INDEX_COM_RS_RRTIREPRS:/*RRTirePrs*/					
                        5520 --1329: 		  	Value16 = v_rd_8(RRTirePrs_handle);
                        5521 --line1329
                        5522 ..lin.D.3A.5CRenesas_Electronics.5CD1x_RGL.5Crgl_ghs_D1Lx_obj_V1.2E2.2E0.5Cvlib.5Capp.5Cgfx_apps.5Csimple_draw_d1l2.5Ctarget.5Cd1lx_mango_ghs.5Cobj.5Ccom.546::
                        5523 .LDWlin546:
00001d2c 260604183f00   5524 	mov	4134916,r6
                        5525 	jarl	_v_rd_8,lp
                        5525 <EXPANSION BEGIN>
                        5525 jarl22 _v_rd_8 , lp 
00001d32 80ff0000*      5525 <EXPANSION END>
00001d36 0ae8           5526 	mov	r10,r29
                        5527 --1330: 			*pRes =Value16* 4;
                        5528 --line1330
                        5529 ..lin.D.3A.5CRenesas_Electronics.5CD1x_RGL.5Crgl_ghs_D1Lx_obj_V1.2E2.2E0.5Cvlib.5Capp.5Cgfx_apps.5Csimple_draw_d1l2.5Ctarget.5Cd1lx_mango_ghs.5Cobj.5Ccom.547::
                        5530 .LDWlin547:
00001d38 1d08           5531 	mov	r29,r1
00001d3a c20a           5532 	shl	2,r1
00001d3c 7c0f0000       5533 	st.h	r1,0[r28]
00001d40 c51d*          5534 	br	.L3444
                        5535 .L3441:
                        5536 --1331: 		break;
                        5537 --1332: 		case  INDEX_COM_RS_RRTIRETEM:/*FLTireTem*/
                        5538 --1333: 			Value16 = v_rd_8(RRTireTem_handle);
                        5539 --line1333
                        5540 ..lin.D.3A.5CRenesas_Electronics.5CD1x_RGL.5Crgl_ghs_D1Lx_obj_V1.2E2.2E0.5Cvlib.5Capp.5Cgfx_apps.5Csimple_draw_d1l2.5Ctarget.5Cd1lx_mango_ghs.5Cobj.5Ccom.548::
                        5541 .LDWlin548:
00001d42 260670183f00   5542 	mov	4135024,r6
                        5543 	jarl	_v_rd_8,lp
                        5543 <EXPANSION BEGIN>
                        5543 jarl22 _v_rd_8 , lp 
00001d48 80ff0000*      5543 <EXPANSION END>
00001d4c 0ae8           5544 	mov	r10,r29
                        5545 --1334: 			sValue = Value16*2-60;
                        5546 --line1334
                        5547 ..lin.D.3A.5CRenesas_Electronics.5CD1x_RGL.5Crgl_ghs_D1Lx_obj_V1.2E2.2E0.5Cvlib.5Capp.5Cgfx_apps.5Csimple_draw_d1l2.5Ctarget.5Cd1lx_mango_ghs.5Cobj.5Ccom.549::
                        5548 .LDWlin549:
00001d4e 1d70           5549 	mov	r29,r14
00001d50 c172           5550 	shl	1,r14
00001d52 0e0ec4ff       5551 	addi	-60,r14,r1
00001d56 e100           5552 	sxh	r1
                        5553 --1335: 			*pRes = sValue;
00001d58 7c0f0000       5554 	st.h	r1,0[r28]
00001d5c e50d*          5555 	br	.L3444
                        5556 .L3442:
                        5557 --1336: 		break;
                        5558 --1337:          #endif
                        5559 --1338: 		 case  INDEX_COM_RS_FICMOVERSPDTHRSHLDADJ:/*FICMOvrSpdThrshldAdj*/
                        5560 --1339: 			Value16 = v_rd_8(FICMOvrSpdThrshldAdj_handle);
                        5561 --line1339
                        5562 ..lin.D.3A.5CRenesas_Electronics.5CD1x_RGL.5Crgl_ghs_D1Lx_obj_V1.2E2.2E0.5Cvlib.5Capp.5Cgfx_apps.5Csimple_draw_d1l2.5Ctarget.5Cd1lx_mango_ghs.5Cobj.5Ccom.550::
                        5563 .LDWlin550:
00001d5e 26069c0d3f00   5564 	mov	4132252,r6
                        5565 	jarl	_v_rd_8,lp
                        5565 <EXPANSION BEGIN>

                                                                      Page 106
                                                              C:\Users\YINGAO~1\AppData\Local\Temp\gh_000086k1.si
                        5565 jarl22 _v_rd_8 , lp 
00001d64 80ff0000*      5565 <EXPANSION END>
00001d68 0ae8           5566 	mov	r10,r29
                        5567 --1340: 			*pRes = Value16*5;			
                        5568 --line1340
                        5569 ..lin.D.3A.5CRenesas_Electronics.5CD1x_RGL.5Crgl_ghs_D1Lx_obj_V1.2E2.2E0.5Cvlib.5Capp.5Cgfx_apps.5Csimple_draw_d1l2.5Ctarget.5Cd1lx_mango_ghs.5Cobj.5Ccom.551::
                        5570 .LDWlin551:
00001d6a 1d08           5571 	mov	r29,r1
00001d6c e50f4002       5572 	mul	5,r1,zero
00001d70 7c0f0000       5573 	st.h	r1,0[r28]
00001d74 a505*          5574 	br	.L3444
                        5575 .L3443:
                        5576 --line1343
                        5577 ..lin.D.3A.5CRenesas_Electronics.5CD1x_RGL.5Crgl_ghs_D1Lx_obj_V1.2E2.2E0.5Cvlib.5Capp.5Cgfx_apps.5Csimple_draw_d1l2.5Ctarget.5Cd1lx_mango_ghs.5Cobj.5Ccom.552::
                        5578 .LDWlin552:
00001d76 0000           5579 	nop
                        5580 .L3444:
                        5581 --1341: 			break;	
                        5582 --1342:           default:
                        5583 --1343:             break;
                        5584 --1344: 		 }
                        5585 --1345: 	    }
                        5586 --1346:         else
                        5587 --1347:         {
                        5588 --1348:         }
                        5589 --1349: }
00001d78 0000           5590 	nop
                        5591 --	    .ef
                        5592 .LDW44:
00001d7a 4206ff70       5593 	dispose	1,{r25,r26,r27,r28,r29,r31},[lp]
                        5594 	.type	_COM_GetSignalValue_16,@function
                        5595 	.size	_COM_GetSignalValue_16,.-_COM_GetSignalValue_16
                        5596 	.align	2
                        5597 .LDW54:
                        5598 --_Value16	r29	local
                        5599 --_sValue	r1	local
                        5600 --_fValue	0[sp]	local
                        5601 
                        5602 --_Index	r25	param
                        5603 --_pRes	r28	param
                        5604 
                        5605 	.section ".bss","awb"
                        5606 .L3626:
                        5607 	.type	.L3626,@object
                        5608 	.size	.L3626,0
                        5609 	.data
                        5610 	.text
                        5611 
                        5612 
                        5613 --1351: BOOL com_WakeUpFrameStoped(void)
                        5614 	.align	2
                        5615 	.align	2
                        5616 	.global	_com_WakeUpFrameStoped..D.3A.5CRenesas_Electronics.5CD1x_RGL.5Crgl_ghs_D1Lx_obj_V1.2E2.2E0.5Cvlib.5Capp.5Cgfx_apps.5Csimple_draw_d1l2.5Ctarget.5Cd1lx_mango_ghs.5Cobj.5Ccom.
                        5617 _com_WakeUpFrameStoped..D.3A.5CRenesas_Electronics.5CD1x_RGL.5Crgl_ghs_D1Lx_obj_V1.2E2.2E0.5Cvlib.5Capp.5Cgfx_apps.5Csimple_draw_d1l2.5Ctarget.5Cd1lx_mango_ghs.5Cobj.5Ccom.:
                        5618 _com_WakeUpFrameStoped:
00001d7e 8007e130       5619 	prepare	{r26,r27,r28,r29,r31},0
00001d82 3d0600000000*  5620 	mov	.L4058-2,r29
00001d88 3dde0200       5621 	movea	2,r29,r27
00001d8c 3dd60300       5622 	movea	3,r29,r26
00001d90 3c0600000000*  5623 	mov	_v_flags,r28
                        5624 --	    .bf

                                                                      Page 107
                                                              C:\Users\YINGAO~1\AppData\Local\Temp\gh_000086k1.si
                        5625 .LDW64:
                        5626 --1352: {
                        5627 --1353: 	static BOOL isStoped = FALSE;
                        5628 --1354:     static U8 FrmLostCnt = 0;
                        5629 --1355: 		
                        5630 --1356: 	if(FALSE == v_test_flag(yytest_handle))
00001d96 1c30           5631 	mov	r28,r6
                        5632 	jarl	_v_test_flag,lp
                        5632 <EXPANSION BEGIN>
                        5632 jarl22 _v_test_flag , lp 
00001d98 80ff0000*      5632 <EXPANSION END>
00001d9c e051           5633 	cmp	zero,r10
00001d9e ea15*          5634 	bne	.L4014
                        5635 --1357: 	{
                        5636 --1358: 	  	if(FALSE == isStoped)
                        5637 --line1358
                        5638 ..lin.D.3A.5CRenesas_Electronics.5CD1x_RGL.5Crgl_ghs_D1Lx_obj_V1.2E2.2E0.5Cvlib.5Capp.5Cgfx_apps.5Csimple_draw_d1l2.5Ctarget.5Cd1lx_mango_ghs.5Cobj.5Ccom.553::
                        5639 .LDWlin553:
00001da0 9d0f0300       5640 	ld.bu	2[r29],r1
00001da4 e009           5641 	cmp	zero,r1
00001da6 fa0d*          5642 	bne	.L4016
                        5643 --1359:   	    {
                        5644 --1360:             FrmLostCnt ++;
                        5645 --line1360
                        5646 ..lin.D.3A.5CRenesas_Electronics.5CD1x_RGL.5Crgl_ghs_D1Lx_obj_V1.2E2.2E0.5Cvlib.5Capp.5Cgfx_apps.5Csimple_draw_d1l2.5Ctarget.5Cd1lx_mango_ghs.5Cobj.5Ccom.554::
                        5647 .LDWlin554:
00001da8 bd0f0300       5648 	ld.bu	3[r29],r1
00001dac 410a           5649 	add	1,r1
00001dae 5d0f0300       5650 	st.b	r1,3[r29]
                        5651 --1361:             if(COM_100MS_CNT < FrmLostCnt)
00001db2 bd0f0300       5652 	ld.bu	3[r29],r1
00001db6 0106ebff       5653 	addi	-21,r1,zero
00001dba f90d*          5654 	bnl	.L4022
                        5655 --1362:             {
                        5656 --1363:                 isStoped = TRUE;
                        5657 --line1363
                        5658 ..lin.D.3A.5CRenesas_Electronics.5CD1x_RGL.5Crgl_ghs_D1Lx_obj_V1.2E2.2E0.5Cvlib.5Capp.5Cgfx_apps.5Csimple_draw_d1l2.5Ctarget.5Cd1lx_mango_ghs.5Cobj.5Ccom.555::
                        5659 .LDWlin555:
00001dbc 010a           5660 	mov	1,r1
00001dbe 5d0f0200       5661 	st.b	r1,2[r29]
00001dc2 b50d*          5662 	br	.L4022
                        5663 .L4016:
                        5664 --1364:             }
                        5665 --1365: 			else
                        5666 --1366:     		{ 
                        5667 --1367:     		}
                        5668 --1368:   	    }
                        5669 --1369:         else
                        5670 --1370:         {
                        5671 --1371:             FrmLostCnt = 0;
                        5672 --line1371
                        5673 ..lin.D.3A.5CRenesas_Electronics.5CD1x_RGL.5Crgl_ghs_D1Lx_obj_V1.2E2.2E0.5Cvlib.5Capp.5Cgfx_apps.5Csimple_draw_d1l2.5Ctarget.5Cd1lx_mango_ghs.5Cobj.5Ccom.556::
                        5674 .LDWlin556:
00001dc4 5d070300       5675 	st.b	zero,3[r29]
00001dc8 850d*          5676 	br	.L4022
                        5677 .L4014:
                        5678 --1372:         }
                        5679 --1373: 	}
                        5680 --1374: 	else
                        5681 --1375: 	{	    
                        5682 --1376: 	    v_clear_flag(yytest_handle);

                                                                      Page 108
                                                              C:\Users\YINGAO~1\AppData\Local\Temp\gh_000086k1.si
                        5683 --line1376
                        5684 ..lin.D.3A.5CRenesas_Electronics.5CD1x_RGL.5Crgl_ghs_D1Lx_obj_V1.2E2.2E0.5Cvlib.5Capp.5Cgfx_apps.5Csimple_draw_d1l2.5Ctarget.5Cd1lx_mango_ghs.5Cobj.5Ccom.557::
                        5685 .LDWlin557:
00001dca 1c30           5686 	mov	r28,r6
                        5687 	jarl	_v_clear_flag,lp
                        5687 <EXPANSION BEGIN>
                        5687 jarl22 _v_clear_flag , lp 
00001dcc 80ff0000*      5687 <EXPANSION END>
                        5688 --1377: 		isStoped = FALSE;
                        5689 --line1377
                        5690 ..lin.D.3A.5CRenesas_Electronics.5CD1x_RGL.5Crgl_ghs_D1Lx_obj_V1.2E2.2E0.5Cvlib.5Capp.5Cgfx_apps.5Csimple_draw_d1l2.5Ctarget.5Cd1lx_mango_ghs.5Cobj.5Ccom.558::
                        5691 .LDWlin558:
00001dd0 5d070200       5692 	st.b	zero,2[r29]
                        5693 --1378:         FrmLostCnt = 0;
00001dd4 5d070300       5694 	st.b	zero,3[r29]
                        5695 .L4022:
                        5696 --1379: 	}
                        5697 --1380: 	return isStoped;
00001dd8 9d570300       5698 	ld.bu	2[r29],r10
                        5699 --	    .ef
                        5700 .LDW74:
00001ddc 4006ff30       5701 	dispose	0,{r26,r27,r28,r29,r31},[lp]
                        5702 	.type	_com_WakeUpFrameStoped,@function
                        5703 	.size	_com_WakeUpFrameStoped,.-_com_WakeUpFrameStoped
                        5704 	.type	_com_WakeUpFrameStoped..D.3A.5CRenesas_Electronics.5CD1x_RGL.5Crgl_ghs_D1Lx_obj_V1.2E2.2E0.5Cvlib.5Capp.5Cgfx_apps.5Csimple_draw_d1l2.5Ctarget.5Cd1lx_mango_ghs.5Cobj.5Ccom.,@function
                        5705 	.size	_com_WakeUpFrameStoped..D.3A.5CRenesas_Electronics.5CD1x_RGL.5Crgl_ghs_D1Lx_obj_V1.2E2.2E0.5Cvlib.5Capp.5Cgfx_apps.5Csimple_draw_d1l2.5Ctarget.5Cd1lx_mango_ghs.5Cobj.5Ccom.,.-_com_WakeUpFrameStoped..D.3A.5CRenesas_Electronics.5CD1x_RGL.5Crgl_ghs_D1Lx_obj_V1.2E2.2E0.5Cvlib.5Capp.5Cgfx_apps.5Csimple_draw_d1l2.5Ctarget.5Cd1lx_mango_ghs.5Cobj.5Ccom.
                        5706 	.align	2
                        5707 .LDW84:
                        5708 --_isStoped	.L4085	static
                        5709 --_FrmLostCnt	.L4086	static
                        5710 
                        5711 	.data
                        5712 .L4058:
                        5713 	.type	.L4058,@object
                        5714 	.size	.L4058,0
                        5715 .L4085:
                        5716 	.global	_isStoped.com_WakeUpFrameStoped.D.3A.5CRenesas_Electronics.5CD1x_RGL.5Crgl_ghs_D1Lx_obj_V1.2E2.2E0.5Cvlib.5Capp.5Cgfx_apps.5Csimple_draw_d1l2.5Ctarget.5Cd1lx_mango_ghs.5Cobj.5Ccom..21
                        5717 _isStoped.com_WakeUpFrameStoped.D.3A.5CRenesas_Electronics.5CD1x_RGL.5Crgl_ghs_D1Lx_obj_V1.2E2.2E0.5Cvlib.5Capp.5Cgfx_apps.5Csimple_draw_d1l2.5Ctarget.5Cd1lx_mango_ghs.5Cobj.5Ccom..21:
                        5718 	.type	_isStoped.com_WakeUpFrameStoped.D.3A.5CRenesas_Electronics.5CD1x_RGL.5Crgl_ghs_D1Lx_obj_V1.2E2.2E0.5Cvlib.5Capp.5Cgfx_apps.5Csimple_draw_d1l2.5Ctarget.5Cd1lx_mango_ghs.5Cobj.5Ccom..21,@object
                        5719 	.size	_isStoped.com_WakeUpFrameStoped.D.3A.5CRenesas_Electronics.5CD1x_RGL.5Crgl_ghs_D1Lx_obj_V1.2E2.2E0.5Cvlib.5Capp.5Cgfx_apps.5Csimple_draw_d1l2.5Ctarget.5Cd1lx_mango_ghs.5Cobj.5Ccom..21,1
00000022 00             5720 	.byte	0
                        5721 	.type	.L4085,@object
                        5722 	.size	.L4085,1
                        5723 .L4086:
                        5724 	.global	_FrmLostCnt.com_WakeUpFrameStoped.D.3A.5CRenesas_Electronics.5CD1x_RGL.5Crgl_ghs_D1Lx_obj_V1.2E2.2E0.5Cvlib.5Capp.5Cgfx_apps.5Csimple_draw_d1l2.5Ctarget.5Cd1lx_mango_ghs.5Cobj.5Ccom..22
                        5725 _FrmLostCnt.com_WakeUpFrameStoped.D.3A.5CRenesas_Electronics.5CD1x_RGL.5Crgl_ghs_D1Lx_obj_V1.2E2.2E0.5Cvlib.5Capp.5Cgfx_apps.5Csimple_draw_d1l2.5Ctarget.5Cd1lx_mango_ghs.5Cobj.5Ccom..22:
                        5726 	.type	_FrmLostCnt.com_WakeUpFrameStoped.D.3A.5CRenesas_Electronics.5CD1x_RGL.5Crgl_ghs_D1Lx_obj_V1.2E2.2E0.5Cvlib.5Capp.5Cgfx_apps.5Csimple_draw_d1l2.5Ctarget.5Cd1lx_mango_ghs.5Cobj.5Ccom..22,@object
                        5727 	.size	_FrmLostCnt.com_WakeUpFrameStoped.D.3A.5CRenesas_Electronics.5CD1x_RGL.5Crgl_ghs_D1Lx_obj_V1.2E2.2E0.5Cvlib.5Capp.5Cgfx_apps.5Csimple_draw_d1l2.5Ctarget.5Cd1lx_mango_ghs.5Cobj.5Ccom..22,1
00000023 00             5728 	.byte	0
                        5729 	.type	.L4086,@object
                        5730 	.size	.L4086,1
                        5731 	.text
                        5732 
                        5733 --1381: }
                        5734 
                        5735 --1383: /******************************************************************************************/
                        5736 --1384: void v_ctl_ints_restore(v_imask previous)
                        5737 	.align	2
                        5738 	.align	2
                        5739 	.global	_v_ctl_ints_restore
                        5740 _v_ctl_ints_restore:

                                                                      Page 109
                                                              C:\Users\YINGAO~1\AppData\Local\Temp\gh_000086k1.si
00001de0 501a           5741 	add	-16,sp
00001de2 634f0d00       5742 	st.w	r9,12[sp]
00001de6 63470900       5743 	st.w	r8,8[sp]
00001dea 633f0500       5744 	st.w	r7,4[sp]
00001dee 63370100       5745 	st.w	r6,0[sp]
                        5746 --	    .bf
                        5747 .LDW94:
                        5748 --1385: {
                        5749 --1386:      __DI();                            /* disable interrupts */
00001df2 e0076001       5750 	di
                        5751 --1387:      IMASK_TO_IMR(previous);
00001df6 0000           5752 	nop
00001df8 230f0100       5753 	ld.w	0[sp],r1
00001dfc 80070f0fd5fd   5754 	st.w	r1,4294896368[zero]
00001e02 230f0500       5755 	ld.w	4[sp],r1
00001e06 600f05b4       5756 	st.w	r1,lo(4294947844)[zero]
00001e0a 230f0900       5757 	ld.w	8[sp],r1
00001e0e 600f09b4       5758 	st.w	r1,lo(4294947848)[zero]
00001e12 230f0d00       5759 	ld.w	12[sp],r1
00001e16 600f0db4       5760 	st.w	r1,lo(4294947852)[zero]
00001e1a 230f1100       5761 	ld.w	16[sp],r1
00001e1e 600f11b4       5762 	st.w	r1,lo(4294947856)[zero]
00001e22 230f1500       5763 	ld.w	20[sp],r1
00001e26 600f15b4       5764 	st.w	r1,lo(4294947860)[zero]
00001e2a 230f1900       5765 	ld.w	24[sp],r1
00001e2e 600f19b4       5766 	st.w	r1,lo(4294947864)[zero]
00001e32 230f1d00       5767 	ld.w	28[sp],r1
00001e36 600f1db4       5768 	st.w	r1,lo(4294947868)[zero]
00001e3a 0000           5769 	nop
                        5770 --1388:      __EI();                             /* enable interrupts  */
00001e3c e0876001       5771 	ei
                        5772 --1389: } /* v_ctl_ints_restore */
00001e40 0000           5773 	nop
                        5774 --	    .ef
                        5775 .LDW05:
00001e42 031e1000       5776 	addi	16,sp,sp
00001e46 7f00           5777 	jmp	[lp]
                        5778 	.type	_v_ctl_ints_restore,@function
                        5779 	.size	_v_ctl_ints_restore,.-_v_ctl_ints_restore
                        5780 	.align	2
                        5781 .LDW15:
                        5782 
                        5783 --_previous	0[sp]	param
                        5784 
                        5785 	.section ".bss","awb"
                        5786 .L4144:
                        5787 	.type	.L4144,@object
                        5788 	.size	.L4144,0
                        5789 	.data
                        5790 	.text
                        5791 
                        5792 
                        5793 --1390: v_imask v_ctl_ints_disable(void)
                        5794 	.align	2
                        5795 	.align	2
                        5796 	.global	_v_ctl_ints_disable
                        5797 _v_ctl_ints_disable:
00001e48 031edcff       5798 	addi	-36,sp,sp
00001e4c 0608           5799 	mov	r6,r1
                        5800 --	    .bf
                        5801 .LDW25:

                                                                      Page 110
                                                              C:\Users\YINGAO~1\AppData\Local\Temp\gh_000086k1.si
                        5802 --1391: {
                        5803 --1392:      v_imask il_tmp;
                        5804 --1393:      __DI();                            /* disable interrupts */
00001e4e e0076001       5805 	di
                        5806 --1394:      IMR_TO_IMASK(il_tmp);
00001e52 0000           5807 	nop
00001e54 80070977d5fd   5808 	ld.w	4294896368[zero],r14
00001e5a 63770100       5809 	st.w	r14,0[sp]
00001e5e 207705b4       5810 	ld.w	lo(4294947844)[zero],r14
00001e62 63770500       5811 	st.w	r14,4[sp]
00001e66 207709b4       5812 	ld.w	lo(4294947848)[zero],r14
00001e6a 63770900       5813 	st.w	r14,8[sp]
00001e6e 20770db4       5814 	ld.w	lo(4294947852)[zero],r14
00001e72 63770d00       5815 	st.w	r14,12[sp]
00001e76 207711b4       5816 	ld.w	lo(4294947856)[zero],r14
00001e7a 63771100       5817 	st.w	r14,16[sp]
00001e7e 207715b4       5818 	ld.w	lo(4294947860)[zero],r14
00001e82 63771500       5819 	st.w	r14,20[sp]
00001e86 207719b4       5820 	ld.w	lo(4294947864)[zero],r14
00001e8a 63771900       5821 	st.w	r14,24[sp]
00001e8e 20771db4       5822 	ld.w	lo(4294947868)[zero],r14
00001e92 63771d00       5823 	st.w	r14,28[sp]
00001e96 0000           5824 	nop
                        5825 --1395:      SET_IMASK_ONE();
00001e98 0000           5826 	nop
00001e9a 1f72           5827 	mov	-1,r14
00001e9c 80070f77d5fd   5828 	st.w	r14,4294896368[zero]
00001ea2 1f72           5829 	mov	-1,r14
00001ea4 607705b4       5830 	st.w	r14,lo(4294947844)[zero]
00001ea8 1f72           5831 	mov	-1,r14
00001eaa 607709b4       5832 	st.w	r14,lo(4294947848)[zero]
00001eae 1f72           5833 	mov	-1,r14
00001eb0 60770db4       5834 	st.w	r14,lo(4294947852)[zero]
00001eb4 1f72           5835 	mov	-1,r14
00001eb6 607711b4       5836 	st.w	r14,lo(4294947856)[zero]
00001eba 1f72           5837 	mov	-1,r14
00001ebc 607715b4       5838 	st.w	r14,lo(4294947860)[zero]
00001ec0 1f72           5839 	mov	-1,r14
00001ec2 607719b4       5840 	st.w	r14,lo(4294947864)[zero]
00001ec6 1f72           5841 	mov	-1,r14
00001ec8 60771db4       5842 	st.w	r14,lo(4294947868)[zero]
00001ecc 0000           5843 	nop
                        5844 --1396:      __EI();                            /* enable interrupts  */
00001ece e0876001       5845 	ei
                        5846 --1397:      return il_tmp;
00001ed2 23f60000       5847 	movea	0,sp,ep
00001ed6 0170           5848 	mov	r1,r14
00001ed8 036e2400       5849 	addi	36,sp,r13
                        5850 .L4261:
00001edc 0065           5851 	sld.w	0[ep],r12
00001ede 44f2           5852 	add	4,ep
00001ee0 6e670100       5853 	st.w	r12,0[r14]
00001ee4 4472           5854 	add	4,r14
00001ee6 fe69           5855 	cmp	ep,r13
00001ee8 aafd*          5856 	bne	.L4261
                        5857 --	    .ef
                        5858 .LDW35:
                        5859 --line1398
                        5860 ..lin.D.3A.5CRenesas_Electronics.5CD1x_RGL.5Crgl_ghs_D1Lx_obj_V1.2E2.2E0.5Cvlib.5Capp.5Cgfx_apps.5Csimple_draw_d1l2.5Ctarget.5Cd1lx_mango_ghs.5Cobj.5Ccom.559::
                        5861 .LDWlin559:
00001eea 031e2400       5862 	addi	36,sp,sp

                                                                      Page 111
                                                              C:\Users\YINGAO~1\AppData\Local\Temp\gh_000086k1.si
00001eee 7f00           5863 	jmp	[lp]
                        5864 	.type	_v_ctl_ints_disable,@function
                        5865 	.size	_v_ctl_ints_disable,.-_v_ctl_ints_disable
                        5866 	.align	2
                        5867 .LDW45:
                        5868 --_il_tmp	0[sp]	local
                        5869 
                        5870 --LRETURN..	r1	param
                        5871 
                        5872 	.section ".bss","awb"
                        5873 .L4260:
                        5874 	.type	.L4260,@object
                        5875 	.size	.L4260,0
                        5876 	.data
                        5877 	.text
                        5878 
                        5879 --1398: } /* v_ctl_ints_disable */
                        5880 
                        5881 --1401: v_uint8 v_co_tx_frame_checksum(v_uint8 checksum_id, V_ARAM v_uint8  * V_ARAM_PM buff, v_uint8 len, v_uint32 frame_id)
                        5882 	.align	2
                        5883 	.align	2
                        5884 	.global	_v_co_tx_frame_checksum
                        5885 _v_co_tx_frame_checksum:
00001ef0 c60eff00       5886 	andi	255,r6,r1
00001ef4 0770           5887 	mov	r7,r14
00001ef6 c86eff00       5888 	andi	255,r8,r13
00001efa 0960           5889 	mov	r9,r12
                        5890 --	    .bf
                        5891 .LDW55:
                        5892 --1402: {
                        5893 --1403: return 0;
00001efc 0052           5894 	mov	0,r10
                        5895 --	    .ef
                        5896 .LDW65:
00001efe 7f00           5897 	jmp	[lp]
                        5898 	.type	_v_co_tx_frame_checksum,@function
                        5899 	.size	_v_co_tx_frame_checksum,.-_v_co_tx_frame_checksum
                        5900 	.align	2
                        5901 .LDW75:
                        5902 
                        5903 --_checksum_id	r1	param
                        5904 --_buff	r14	param
                        5905 --_len	r13	param
                        5906 --_frame_id	r12	param
                        5907 
                        5908 	.section ".bss","awb"
                        5909 .L4360:
                        5910 	.type	.L4360,@object
                        5911 	.size	.L4360,0
                        5912 	.data
                        5913 	.text
                        5914 
                        5915 --1404: }
                        5916 
                        5917 --1405: v_uint8 v_co_rx_frame_checksum(v_uint8 checksum_id, V_ARAM v_uint8  * V_ARAM_PM buff, v_uint8 len, v_uint32 frame_id, v_uint8 checksum)
                        5918 	.align	2
                        5919 	.align	2
                        5920 	.global	_v_co_rx_frame_checksum
                        5921 _v_co_rx_frame_checksum:
00001f00 c60eff00       5922 	andi	255,r6,r1
00001f04 0770           5923 	mov	r7,r14

                                                                      Page 112
                                                              C:\Users\YINGAO~1\AppData\Local\Temp\gh_000086k1.si
00001f06 c86eff00       5924 	andi	255,r8,r13
00001f0a 0960           5925 	mov	r9,r12
                        5926 --	    .bf
                        5927 .LDW85:
                        5928 --1406: {
                        5929 --1407:     return 0;
00001f0c 0052           5930 	mov	0,r10
                        5931 --	    .ef
                        5932 .LDW95:
00001f0e 7f00           5933 	jmp	[lp]
                        5934 	.type	_v_co_rx_frame_checksum,@function
                        5935 	.size	_v_co_rx_frame_checksum,.-_v_co_rx_frame_checksum
                        5936 	.align	2
                        5937 .LDW06:
                        5938 
                        5939 --_checksum_id	r1	param
                        5940 --_buff	r14	param
                        5941 --_len	r13	param
                        5942 --_frame_id	r12	param
                        5943 --_checksum	0[sp]	param
                        5944 
                        5945 	.section ".bss","awb"
                        5946 .L4392:
                        5947 	.type	.L4392,@object
                        5948 	.size	.L4392,0
                        5949 	.data
                        5950 	.text
                        5951 
                        5952 --1409: }
                        5953 
                        5954 --1410: v_uint16 v_nmco_ioctl(v_c_handle c, v_uint16 op)
                        5955 	.align	2
                        5956 	.align	2
                        5957 	.global	_v_nmco_ioctl
                        5958 _v_nmco_ioctl:
00001f10 8007e100       5959 	prepare	{r28,r29,r31},0
00001f14 06e8           5960 	mov	r6,r29
00001f16 c7e6ffff       5961 	andi	65535,r7,r28
                        5962 --	    .bf
                        5963 .LDW16:
                        5964 --1411: {
                        5965 --1412:     return v_ctl_ioctl(c, (v_ioctl_op) op, (void *) 0);
00001f1a 1c38           5966 	mov	r28,r7
00001f1c 1d30           5967 	mov	r29,r6
00001f1e 8700           5968 	zxb	r7
00001f20 0042           5969 	mov	0,r8
                        5970 	jarl	_v_ctl_ioctl,lp
                        5970 <EXPANSION BEGIN>
                        5970 jarl22 _v_ctl_ioctl , lp 
00001f22 80ff0000*      5970 <EXPANSION END>
00001f26 ca00           5971 	zxh	r10
                        5972 --	    .ef
                        5973 .LDW26:
                        5974 --line1413
                        5975 ..lin.D.3A.5CRenesas_Electronics.5CD1x_RGL.5Crgl_ghs_D1Lx_obj_V1.2E2.2E0.5Cvlib.5Capp.5Cgfx_apps.5Csimple_draw_d1l2.5Ctarget.5Cd1lx_mango_ghs.5Cobj.5Ccom.560::
                        5976 .LDWlin560:
00001f28 4006ff00       5977 	dispose	0,{r28,r29,r31},[lp]
                        5978 	.type	_v_nmco_ioctl,@function
                        5979 	.size	_v_nmco_ioctl,.-_v_nmco_ioctl
                        5980 	.align	2
                        5981 .LDW36:

                                                                      Page 113
                                                              C:\Users\YINGAO~1\AppData\Local\Temp\gh_000086k1.si
                        5982 
                        5983 --_c	r29	param
                        5984 --_op	r28	param
                        5985 
                        5986 	.section ".bss","awb"
                        5987 .L4424:
                        5988 	.type	.L4424,@object
                        5989 	.size	.L4424,0
                        5990 	.data
                        5991 	.text
                        5992 
                        5993 --1413: }
                        5994 	.align	2
                        5995 --_v_controllers	_v_controllers	import
                        5996 --_v_flags	_v_flags	import
                        5997 --_nwm_instances	_nwm_instances	import
                        5998 --_nwm_slave_instance	_nwm_slave_instance	import
                        5999 --_com_NetWake	_com_NetWake	static
                        6000 --_com_InitSts	_com_InitSts	static
                        6001 --_isNetWorkStoped	_isNetWorkStoped	static
                        6002 --_com_SSBPress	_com_SSBPress	static
                        6003 --_com_ssbKey	_com_ssbKey	static
                        6004 --_current_nwm_state	_current_nwm_state	static
                        6005 --_L_PDCSysSts	_L_PDCSysSts	static
                        6006 --_L_RLObsRng	_L_RLObsRng	static
                        6007 --_L_RRObsRng	_L_RRObsRng	static
                        6008 --_L_RrMidLObsRng	_L_RrMidLObsRng	static
                        6009 --_L_RrMidRObsRng	_L_RrMidRObsRng	static
                        6010 --_L_PDCConfigSts	_L_PDCConfigSts	static
                        6011 --_com_DisPlayspeed	_com_DisPlayspeed	static
                        6012 --_com_TrShftLvrPos	_com_TrShftLvrPos	static
                        6013 --_com_TrShftLvrPosV	_com_TrShftLvrPosV	static
                        6014 --_com_MstrSysPwrMd	_com_MstrSysPwrMd	static
                        6015 --_com_NetWorkModeSleepFlg	_com_NetWorkModeSleepFlg	static
                        6016 
                        6017 	.data
                        6018 	.ghsnote version,14
                        6019 	.ghsnote tools,3
                        6020 	.ghsnote options,144
                        6021 	.text
                        6022 	.align	2
                        6023 ..eof.D.3A.5CRenesas_Electronics.5CD1x_RGL.5Crgl_ghs_D1Lx_obj_V1.2E2.2E0.5Cvlib.5Capp.5Cgfx_apps.5Csimple_draw_d1l2.5Ctarget.5Cd1lx_mango_ghs.5Cobj.5Ccom...44.3A.5CRenesas_Electronics.5CD1x_RGL.5Crgl_ghs_D1Lx_obj_V1.2E2.2E0.5Cvlib.5Capp.5Cgfx_apps.5Csimple_draw_d1l2.5Ctarget.5Cd1lx_mango_ghs..5A740373..0::
                        6024 .rh850_flags DOUBLE,REGMODE22,DATA_ALIGN8,GP_FIX,EP_NONFIX,TP_FIX,REG2_RESERVE,DOUBLE64,G3M
