                                                                      Page 1
                                                              C:\Users\YINGAO~1\AppData\Local\Temp\gh_00005601.si
Command Line: C:\ghs\comp_201355\ease850.exe -w -elf -b0 -I../../../../../Device -I../../../../../Driver/ADCE -I../../../../../Driver/CLOCK -I../../../../../Driver/DIO -I../../../../../Driver/DSPI -I../../../../../Driver/Interrupt -I../../../../../Driver/ISM -I../../../../../Driver/OSTM -I../../../../../Driver/PWM -I../../../../../Driver/RSTC -I../../../../../Driver/RTCA -I../../../../../Driver/STBC -I../../../../../Driver/TAUB -I../../../../../Driver/WDT -I../../../../../middleware\ADM -I../../../../../middleware\BPM -I../../../../../middleware\EED -I../../../../../middleware\IOM -I../../../../../middleware\LRM -I../../../../../middleware\MOM -I../../../../../middleware\PWMM -I../../../../../Common -I../../../../../Applayer\DSM -I../../../../../Applayer\FM -I../../../../../Applayer\TPM -I../../../../../Applayer\ACC -I../../../../../Applayer\ASS -I../../../../../Applayer\BAT -I../../../../../Applayer\COM -I../../../../../Applayer\COM\vtp -I../../../../../Applayer\COM\vtp\lib -I../../../../../Applayer\CRUS -I../../../../../Applayer\DIAG -I../../../../../Applayer\FC -I../../../../../Applayer\FL -I../../../../../Applayer\HSD -I../../../../../Applayer\IDLE -I../../../../../Applayer\ILLU -I../../../../../Applayer\LED -I../../../../../Applayer\MSG -I../../../../../Applayer\NVM -I../../../../../Applayer\ODO -I../../../../../Applayer\PWR -I../../../../../Applayer\RANG -I../../../../../Applayer\RST -I../../../../../Applayer\RTC -I../../../../../Applayer\SCS -I../../../../../Applayer\SSB -I../../../../../Applayer\ST -I../../../../../Applayer\STSMG -I../../../../../Applayer\SYS -I../../../../../Applayer\TIP -I../../../../../Applayer\TRIP -I../../../../../Applayer\CHM -I../../../../../Applayer\DM -I../../../../../Applayer\EVT -I../../../../../Applayer\FTR -I../../../../../Applayer\SLF -I../../../../../Applayer\NWD -I../../../../../Applayer\TPMS -I../../../../../Applayer\WFM -I../../../../../Applayer\NZM -I../../../../../app/gfx_apps/simple_draw_d1l2/src -I../../../../../bsp/board//config -I../../../../../bsp/board//src/gfx -I../../../../../bsp/board//src/hmi -I../../../../../bsp/board//src/stdio -I../../../../../bsp/board/d1lx_mango/config -I../../../../../bsp/board/d1lx_mango/src -I../../../../../bsp/board/d1lx_mango/src/gfx -I../../../../../bsp/board/d1lx_mango/src/hmi -I../../../../../bsp/board/d1lx_mango/src/stdio -I../../../../../bsp/gfx/lib -I../../../../../bsp/gfx/src -I../../../../../bsp/hmi/lib -I../../../../../bsp/hmi/src -I../../../../../bsp/lib -I../../../../../bsp/stdio/lib -I../../../../../bsp/stdio/src -I../../../../../cdi/lib -I../../../../../cdi/src -I../../../../../compiler/rh850_ghs/inc -I../../../../../device/d1lx/lib -I../../../../../device/d1lx/macro_cfg -I../../../../../device/d1lx/src/dev -I../../../../../device/d1lx/src/rh850_ghs -I../../../../../device/d1x_common/macro_cfg -I../../../../../device/d1x_common/src/csisw -I../../../../../device/d1x_common/src/ddb -I../../../../../device/d1x_common/src/dev -I../../../../../device/d1x_common/src/gfxbus -I../../../../../device/d1x_common/src/gpio -I../../../../../device/d1x_common/src/ostm -I../../../../../device/d1x_common/src/pbg -I../../../../../device/d1x_common/src/riic -I../../../../../device/d1x_common/src/sfma -I../../../../../device/d1x_common/src/spea -I../../../../../device/d1x_common/src/tauj -I../../../../../device/d1x_common/src/tick -I../../../../../device/d1x_common/src/vdce -I../../../../../device/d1x_common/src/wm -I../../../../../device/d1x_common/src/xbus -I../../../../../device/lib -I../../../../../macro/bus/pbg/lib -I../../../../../macro/bus/pbg/src -I../../../../../macro/csi/csisw/lib -I../../../../../macro/csi/csisw/src -I../../../../../macro/drw2d/lib -I../../../../../macro/drw2d/platform/cpu -I../../../../../macro/drw2d/platform/os/no_os -I../../../../../macro/drw2d/src -I../../../../../macro/flashc/sfcdb/lib -I../../../../../macro/flashc/sfcdb/src -I../../../../../macro/flashc/sfma/lib -I../../../../../macro/flashc/sfma/src -I../../../../../macro/gfxbus/lib -I../../../../../macro/gfxbus/src -I../../../../../macro/gfxbus/xbus/lib -I../../../../../macro/gfxbus/xbus/src -I../../../../../macro/gpio/lib -I../../../../../macro/gpio/src -I../../../../../macro/i2c/riic/lib -I../../../../../macro/i2c/riic/src -I../../../../../macro/tick/lib -I../../../../../macro/tick/src -I../../../../../macro/timer/ostm/lib -I../../../../../macro/timer/ostm/src -I../../../../../macro/timer/tauj/lib -I../../../../../macro/timer/tauj/src -I../../../../../macro/vdce/lib -I../../../../../macro/vdce/src -I../../../../../macro/vo/ddb/lib -I../../../../../macro/vo/ddb/src -I../../../../../macro/vo/spea/lib -I../../../../../macro/vo/spea/src -I../../../../../macro/wm/lib -I../../../../../macro/wm/src -I../../../../../app/gfx_apps/simple_draw_d1l2/src/QD_HMI -I../../../../../app/gfx_apps/simple_draw_d1l2/src/QD_HMI/HMI_Data -IC:\ghs\comp_201355\lib\rh850_22 -cg_underscore -cpu=rh850g3m -no_v850_simd -nomacro -patch_dbo=D:\Renesas_Electronics\D1x_RGL\rgl_ghs_D1Lx_obj_V1.2.0\vlib\app\gfx_apps\simple_draw_d1l2\target\d1lx_mango_ghs\obj\dio.dbo -source=dio.c -o .\obj\gh_00005601.o -list=.\obj\dio.lst C:\Users\YINGAO~1\AppData\Local\Temp\gh_00005601.si 
Original File: C:\Users\YINGAO~1\AppData\Local\Temp\gh_00005601.si
Source File: dio.c
Directory: D:\Renesas_Electronics\D1x_RGL\rgl_ghs_D1Lx_obj_V1.2.0\vlib\app\gfx_apps\simple_draw_d1l2\target\d1lx_mango_ghs
Host OS: Windows 7 Service Pack 1
EASE: Copyright (C) 1983-2013 Green Hills Software.  All Rights Reversed.
Release: Compiler v2013.5.5
Build Directory: [Directory] BTOWINBOX:c:/build_2013_5_bto/2013-10-04.1311-2013_5_bto/win32-comp-ecom
Revision: [VCInfo] http://toolsvc/branches/release-branch-2013-5-bto/src@496240 (built by build)
Revision Date: Sat Oct 05 04:54:43 2013

Release Date: Sat Oct 05 05:20:49 2013

                           1 --Driver Command: ccv850 -c -MD -I../../../../../Device
                           2 --		-I../../../../../Driver/ADCE -I../../../../../Driver/CLOCK
                           3 --		-I../../../../../Driver/DIO -I../../../../../Driver/DSPI
                           4 --		-I../../../../../Driver/Interrupt -I../../../../../Driver/ISM
                           5 --		-I../../../../../Driver/OSTM -I../../../../../Driver/PWM
                           6 --		-I../../../../../Driver/RSTC -I../../../../../Driver/RTCA
                           7 --		-I../../../../../Driver/STBC -I../../../../../Driver/TAUB
                           8 --		-I../../../../../Driver/WDT -I../../../../../middleware\ADM
                           9 --		-I../../../../../middleware\BPM -I../../../../../middleware\EED
                          10 --		-I../../../../../middleware\IOM -I../../../../../middleware\LRM
                          11 --		-I../../../../../middleware\MOM -I../../../../../middleware\PWMM
                          12 --		-I../../../../../Common -I../../../../../Applayer\DSM
                          13 --		-I../../../../../Applayer\FM -I../../../../../Applayer\TPM
                          14 --		-I../../../../../Applayer\ACC -I../../../../../Applayer\ASS
                          15 --		-I../../../../../Applayer\BAT -I../../../../../Applayer\COM
                          16 --		-I../../../../../Applayer\COM\vtp
                          17 --		-I../../../../../Applayer\COM\vtp\lib
                          18 --		-I../../../../../Applayer\CRUS -I../../../../../Applayer\DIAG
                          19 --		-I../../../../../Applayer\FC -I../../../../../Applayer\FL
                          20 --		-I../../../../../Applayer\HSD -I../../../../../Applayer\IDLE
                          21 --		-I../../../../../Applayer\ILLU -I../../../../../Applayer\LED
                          22 --		-I../../../../../Applayer\MSG -I../../../../../Applayer\NVM
                          23 --		-I../../../../../Applayer\ODO -I../../../../../Applayer\PWR
                          24 --		-I../../../../../Applayer\RANG -I../../../../../Applayer\RST
                          25 --		-I../../../../../Applayer\RTC -I../../../../../Applayer\SCS
                          26 --		-I../../../../../Applayer\SSB -I../../../../../Applayer\ST
                          27 --		-I../../../../../Applayer\STSMG -I../../../../../Applayer\SYS
                          28 --		-I../../../../../Applayer\TIP -I../../../../../Applayer\TRIP
                          29 --		-I../../../../../Applayer\CHM -I../../../../../Applayer\DM
                          30 --		-I../../../../../Applayer\EVT -I../../../../../Applayer\FTR
                          31 --		-I../../../../../Applayer\SLF -I../../../../../Applayer\NWD
                          32 --		-I../../../../../Applayer\TPMS -I../../../../../Applayer\WFM
                          33 --		-I../../../../../Applayer\NZM
                          34 --		-I../../../../../app/gfx_apps/simple_draw_d1l2/src
                          35 --		-I../../../../../bsp/board//config
                          36 --		-I../../../../../bsp/board//src/gfx
                          37 --		-I../../../../../bsp/board//src/hmi
                          38 --		-I../../../../../bsp/board//src/stdio
                          39 --		-I../../../../../bsp/board/d1lx_mango/config
                          40 --		-I../../../../../bsp/board/d1lx_mango/src
                          41 --		-I../../../../../bsp/board/d1lx_mango/src/gfx
                          42 --		-I../../../../../bsp/board/d1lx_mango/src/hmi
                          43 --		-I../../../../../bsp/board/d1lx_mango/src/stdio
                          44 --		-I../../../../../bsp/gfx/lib -I../../../../../bsp/gfx/src
                          45 --		-I../../../../../bsp/hmi/lib -I../../../../../bsp/hmi/src
                          46 --		-I../../../../../bsp/lib -I../../../../../bsp/stdio/lib
                          47 --		-I../../../../../bsp/stdio/src -I../../../../../cdi/lib
                          48 --		-I../../../../../cdi/src -I../../../../../compiler/rh850_ghs/inc
                          49 --		-I../../../../../device/d1lx/lib
                          50 --		-I../../../../../device/d1lx/macro_cfg

                                                                      Page 2
                                                              C:\Users\YINGAO~1\AppData\Local\Temp\gh_00005601.si
                          51 --		-I../../../../../device/d1lx/src/dev
                          52 --		-I../../../../../device/d1lx/src/rh850_ghs
                          53 --		-I../../../../../device/d1x_common/macro_cfg
                          54 --		-I../../../../../device/d1x_common/src/csisw
                          55 --		-I../../../../../device/d1x_common/src/ddb
                          56 --		-I../../../../../device/d1x_common/src/dev
                          57 --		-I../../../../../device/d1x_common/src/gfxbus
                          58 --		-I../../../../../device/d1x_common/src/gpio
                          59 --		-I../../../../../device/d1x_common/src/ostm
                          60 --		-I../../../../../device/d1x_common/src/pbg
                          61 --		-I../../../../../device/d1x_common/src/riic
                          62 --		-I../../../../../device/d1x_common/src/sfma
                          63 --		-I../../../../../device/d1x_common/src/spea
                          64 --		-I../../../../../device/d1x_common/src/tauj
                          65 --		-I../../../../../device/d1x_common/src/tick
                          66 --		-I../../../../../device/d1x_common/src/vdce
                          67 --		-I../../../../../device/d1x_common/src/wm
                          68 --		-I../../../../../device/d1x_common/src/xbus
                          69 --		-I../../../../../device/lib -I../../../../../macro/bus/pbg/lib
                          70 --		-I../../../../../macro/bus/pbg/src
                          71 --		-I../../../../../macro/csi/csisw/lib
                          72 --		-I../../../../../macro/csi/csisw/src
                          73 --		-I../../../../../macro/drw2d/lib
                          74 --		-I../../../../../macro/drw2d/platform/cpu
                          75 --		-I../../../../../macro/drw2d/platform/os/no_os
                          76 --		-I../../../../../macro/drw2d/src
                          77 --		-I../../../../../macro/flashc/sfcdb/lib
                          78 --		-I../../../../../macro/flashc/sfcdb/src
                          79 --		-I../../../../../macro/flashc/sfma/lib
                          80 --		-I../../../../../macro/flashc/sfma/src
                          81 --		-I../../../../../macro/gfxbus/lib
                          82 --		-I../../../../../macro/gfxbus/src
                          83 --		-I../../../../../macro/gfxbus/xbus/lib
                          84 --		-I../../../../../macro/gfxbus/xbus/src
                          85 --		-I../../../../../macro/gpio/lib -I../../../../../macro/gpio/src
                          86 --		-I../../../../../macro/i2c/riic/lib
                          87 --		-I../../../../../macro/i2c/riic/src
                          88 --		-I../../../../../macro/tick/lib -I../../../../../macro/tick/src
                          89 --		-I../../../../../macro/timer/ostm/lib
                          90 --		-I../../../../../macro/timer/ostm/src
                          91 --		-I../../../../../macro/timer/tauj/lib
                          92 --		-I../../../../../macro/timer/tauj/src
                          93 --		-I../../../../../macro/vdce/lib -I../../../../../macro/vdce/src
                          94 --		-I../../../../../macro/vo/ddb/lib
                          95 --		-I../../../../../macro/vo/ddb/src
                          96 --		-I../../../../../macro/vo/spea/lib
                          97 --		-I../../../../../macro/vo/spea/src -I../../../../../macro/wm/lib
                          98 --		-I../../../../../macro/wm/src
                          99 --		-I../../../../../app/gfx_apps/simple_draw_d1l2/src/QD_HMI
                         100 --		-I../../../../../app/gfx_apps/simple_draw_d1l2/src/QD_HMI/HMI_Data
                         101 --		-G --no_commons --no_implicit_include --prototype_errors
                         102 --		-DR_DRW2D_OS_NO_OS -DR_DRW2D_SYS_CPU -DUSED_CPU=RH850G3M
                         103 --		-DUSE_BSP_GFX -DUSE_BSP_HMI -DUSE_BSP_STDIO -DUSE_CDI -DUSE_CSISW
                         104 --		-DUSE_DDB -DUSE_DRW2D -DUSE_GFXBUS -DUSE_GPIO -DUSE_OSTM
                         105 --		-DUSE_PBG -DUSE_RIIC -DUSE_SFCDB -DUSE_SFMA -DUSE_SPEA -DUSE_TAUJ
                         106 --		-DUSE_TICK -DUSE_VDCE -DUSE_WM -DUSE_XBUS -MD -Mn -Mx -Zuse1bit
                         107 --		-allocate_ep -cpu=rh850g3m -entry=_RESET -large_sda -list
                         108 --		-no_callt -notda -passsource -preprocess_assembly_files
                         109 --		-registermode=22 -reserve_r2 --diag_warning 1 -object_dir=./obj
                         110 --		-filetype.c
                         111 --		D:\Renesas_Electronics\D1x_RGL\rgl_ghs_D1Lx_obj_V1.2.0\vlib\Driver\DIO\dio.c

                                                                      Page 3
                                                              C:\Users\YINGAO~1\AppData\Local\Temp\gh_00005601.si
                         112 --		-o .\obj\dio.o
                         113 --Source File:   D:\Renesas_Electronics\D1x_RGL\rgl_ghs_D1Lx_obj_V1.2.0\vlib\Driver\DIO\dio.c
                         114 --Directory:     
                         115 --		D:\Renesas_Electronics\D1x_RGL\rgl_ghs_D1Lx_obj_V1.2.0\vlib\app\gfx_apps\simple_draw_d1l2\target\d1lx_mango_ghs
                         116 --Compile Date:  Fri Feb 02 14:21:26 2018
                         117 --Host OS:       Win32
                         118 --Version:       C-RH850 2013.5.5 DEVELOPMENT VERSION
                         119 --Release:       Compiler v2013.5.5
                         120 --Revision Date: Sat Oct 05 05:01:20 2013
                         121 --Release Date:  Sat Oct 05 05:22:44 2013
                         122 -- ecom  -g -w
                         123 
                         124 --1: /*****************************************************************************
                         125 --2: * Copyright (C) 2016 ShenZhen Yeedon Media co.,LTD. All rights reserved.
                         126 --3: *
                         127 --4: * File Name : dio.c
                         128 --5: * Description : Driver source file of DIO.
                         129 --6: * Author: Qinhui.Shen
                         130 --7: * Date: 2016-10-14
                         131 --8: ******************************************************************************/
                         132 --10: /* Files for including */
                         133 --11: #include "dio_info.inc"
                         134 --13: /*--------------- Global variable definition and initialization -----------------*/
                         135 --14: static BOOL Dio_Status = FALSE;
                         136 --16: /*---------------------- Implementation of module ---------------------*/
                         137 --18: /***************************************************
                         138 --19: * Function: gpio_init
                         139 --20: * Description: GPIO initialization
                         140 --21: * Parameters:
                         141 --22: *                  port - GPIO port
                         142 --23: *                  pin - GPIO pin
                         143 --24: *                  direction - 0=output, 1=input
                         144 --25: *                  initval - GPIO init value.
                         145 --26: * Returns:
                         146 --27: *            FALSE(0): init fail.
                         147 --28: *            TRUE(1):  init success.
                         148 --29: *
                         149 --30: * $Create & Verlog:$
                         150 --31: * Author:Qinhui.Shen  Date:2016-10-14   Version:V1.0
                         151 --32: ****************************************************/
                         152 --33: static BOOL dio_GPIO_Init(DioPort_ENUM port, U8 pin, DioDir_ENUM direction, U8 initval)
                         153 	.text
                         154 ..bof.D.3A.5CRenesas_Electronics.5CD1x_RGL.5Crgl_ghs_D1Lx_obj_V1.2E2.2E0.5Cvlib.5Capp.5Cgfx_apps.5Csimple_draw_d1l2.5Ctarget.5Cd1lx_mango_ghs.5Cobj.5Cdio...44.3A.5CRenesas_Electronics.5CD1x_RGL.5Crgl_ghs_D1Lx_obj_V1.2E2.2E0.5Cvlib.5Capp.5Cgfx_apps.5Csimple_draw_d1l2.5Ctarget.5Cd1lx_mango_ghs..5A740366..0::
                         155 	.align	2
                         156 	.global	_dio_GPIO_Init..D.3A.5CRenesas_Electronics.5CD1x_RGL.5Crgl_ghs_D1Lx_obj_V1.2E2.2E0.5Cvlib.5Capp.5Cgfx_apps.5Csimple_draw_d1l2.5Ctarget.5Cd1lx_mango_ghs.5Cobj.5Cdio.
                         157 _dio_GPIO_Init..D.3A.5CRenesas_Electronics.5CD1x_RGL.5Crgl_ghs_D1Lx_obj_V1.2E2.2E0.5Cvlib.5Capp.5Cgfx_apps.5Csimple_draw_d1l2.5Ctarget.5Cd1lx_mango_ghs.5Cobj.5Cdio.:
                         158 _dio_GPIO_Init:
00000000 8007c100        159 	prepare	{r28,r29},0
00000004 0650            160 	mov	r6,r10
00000006 c70eff00        161 	andi	255,r7,r1
0000000a 0870            162 	mov	r8,r14
0000000c c966ff00        163 	andi	255,r9,r12
00000010 3e06400061ff    164 	mov	-10420160,ep
                         165 --	    .bf
                         166 .LDW01:
                         167 --34: {
                         168 --35:     U8 ret = TRUE;
00000016 015a            169 	mov	1,r11
                         170 --37:     switch (port)
00000018 0a68            171 	mov	r10,r13
0000001a 6d6a            172 	cmp	13,r13

                                                                      Page 4
                                                              C:\Users\YINGAO~1\AppData\Local\Temp\gh_00005601.si
0000001c eb07a50c*       173 	bh	.L98
00000020 0de8            174 	mov	r13,r29
00000022 c2ea            175 	shl	2,r29
00000024 fd0600000000*   176 	jmp	.L444[r29]
                         177 .L444:
0000002a 80073800*       178 	jr	.L6
0000002e 80075401*       179 	jr	.L13
00000032 80076402*       180 	jr	.L20
00000036 80073803*       181 	jr	.L27
0000003a 80071804*       182 	jr	.L34
0000003e 80070405*       183 	jr	.L41
00000042 8007f005*       184 	jr	.L48
00000046 8007dc06*       185 	jr	.L55
0000004a 8007c807*       186 	jr	.L62
0000004e 8007b408*       187 	jr	.L69
00000052 8007a009*       188 	jr	.L76
00000056 80078c0a*       189 	jr	.L83
0000005a 8007760b*       190 	jr	.L90
0000005e 8007600c*       191 	jr	.L97
                         192 .L6:
                         193 --38:     {
                         194 --39:         case PORT_DIO_JP0: /* JP0_0~4 */
                         195 --40:             if (DIR_DIO_INPUT == direction)
                         196 --line40
                         197 ..lin.D.3A.5CRenesas_Electronics.5CD1x_RGL.5Crgl_ghs_D1Lx_obj_V1.2E2.2E0.5Cvlib.5Capp.5Cgfx_apps.5Csimple_draw_d1l2.5Ctarget.5Cd1lx_mango_ghs.5Cobj.5Cdio.1::
                         198 .LDWlin1:
00000062 6172            199 	cmp	1,r14
00000064 fa2d*           200 	bne	.L7
                         201 --41:             {
                         202 --42:                 CLR_BIT(PORTJ_AWO.JPMC0.UINT8, pin);/* =0 PORT MODE */
                         203 --line42
                         204 ..lin.D.3A.5CRenesas_Electronics.5CD1x_RGL.5Crgl_ghs_D1Lx_obj_V1.2E2.2E0.5Cvlib.5Capp.5Cgfx_apps.5Csimple_draw_d1l2.5Ctarget.5Cd1lx_mango_ghs.5Cobj.5Cdio.2::
                         205 .LDWlin2:
00000066 016a            206 	mov	1,r13
00000068 e16fc268        207 	shl	r1,r13,r13
0000006c 2de0            208 	not	r13,r28
0000006e 80eec0ff        209 	ori	65472,zero,r29
00000072 1e68            210 	mov	ep,r13
00000074 dd69            211 	add	r29,r13
00000076 8def1500        212 	ld.bu	20[r13],r29
0000007a 5ce9            213 	and	r28,r29
0000007c 4def1400        214 	st.b	r29,20[r13]
                         215 --43:                 SET_BIT(PORTJ_AWO.JPM0.UINT8, pin); /* =1 INTPUT MODE */
00000080 016a            216 	mov	1,r13
00000082 e16fc2e0        217 	shl	r1,r13,r28
00000086 80eec0ff        218 	ori	65472,zero,r29
0000008a 1e68            219 	mov	ep,r13
0000008c dd69            220 	add	r29,r13
0000008e 8def1100        221 	ld.bu	16[r13],r29
00000092 1ce9            222 	or	r28,r29
00000094 4def1000        223 	st.b	r29,16[r13]
                         224 --44:                 SET_BIT(PORTJ_AWO.JPIBC0.UINT8, pin); /* =1 Enable input buffer. */
00000098 016a            225 	mov	1,r13
0000009a e16fc2e0        226 	shl	r1,r13,r28
0000009e ff4760f9        227 	pushsp	lp-lp
000000a2 40fec2ff        228 	movhi	65474,zero,lp
000000a6 3ffe0040        229 	movea	lo(6307840),lp,lp
000000aa 9fef0100        230 	ld.bu	0[lp],r29
000000ae 40fec2ff        231 	movhi	65474,zero,lp
000000b2 3ffe0040        232 	movea	lo(6307840),lp,lp
000000b6 1ce9            233 	or	r28,r29

                                                                      Page 5
                                                              C:\Users\YINGAO~1\AppData\Local\Temp\gh_00005601.si
000000b8 5fef0000        234 	st.b	r29,0[lp]
000000bc ff6760f9        235 	popsp	lp-lp
000000c0 f55d*           236 	br	.L9
                         237 .L7:
                         238 --45:             }
                         239 --46:             else
                         240 --47:             {
                         241 --48:                 CLR_BIT(PORTJ_AWO.JPMC0.UINT8, pin);/* =0 PORT MODE */
                         242 --line48
                         243 ..lin.D.3A.5CRenesas_Electronics.5CD1x_RGL.5Crgl_ghs_D1Lx_obj_V1.2E2.2E0.5Cvlib.5Capp.5Cgfx_apps.5Csimple_draw_d1l2.5Ctarget.5Cd1lx_mango_ghs.5Cobj.5Cdio.3::
                         244 .LDWlin3:
000000c2 016a            245 	mov	1,r13
000000c4 e16fc268        246 	shl	r1,r13,r13
000000c8 2de0            247 	not	r13,r28
000000ca 80eec0ff        248 	ori	65472,zero,r29
000000ce 1e68            249 	mov	ep,r13
000000d0 dd69            250 	add	r29,r13
000000d2 8def1500        251 	ld.bu	20[r13],r29
000000d6 5ce9            252 	and	r28,r29
000000d8 4def1400        253 	st.b	r29,20[r13]
                         254 --49:                 CLR_BIT(PORTJ_AWO.JPM0.UINT8, pin); /* =0 OUTPUT MODE */
000000dc 016a            255 	mov	1,r13
000000de e16fc268        256 	shl	r1,r13,r13
000000e2 2de0            257 	not	r13,r28
000000e4 80eec0ff        258 	ori	65472,zero,r29
000000e8 1e68            259 	mov	ep,r13
000000ea dd69            260 	add	r29,r13
000000ec 8def1100        261 	ld.bu	16[r13],r29
000000f0 5ce9            262 	and	r28,r29
000000f2 4def1000        263 	st.b	r29,16[r13]
                         264 --50:                 /* for loopback */
                         265 --51:                 SET_BIT(PORTJ_AWO.JPIBC0.UINT8, pin); /* =1 Enable input buffer. */
000000f6 016a            266 	mov	1,r13
000000f8 e16fc2e0        267 	shl	r1,r13,r28
000000fc ff4760f9        268 	pushsp	lp-lp
00000100 40fec2ff        269 	movhi	65474,zero,lp
00000104 3ffe0040        270 	movea	lo(6307840),lp,lp
00000108 9fef0100        271 	ld.bu	0[lp],r29
0000010c 40fec2ff        272 	movhi	65474,zero,lp
00000110 3ffe0040        273 	movea	lo(6307840),lp,lp
00000114 1ce9            274 	or	r28,r29
00000116 5fef0000        275 	st.b	r29,0[lp]
0000011a ff6760f9        276 	popsp	lp-lp
                         277 --52:                 SET_BIT(PORTJ_AWO.JPBDC0.UINT8, pin); /* =1 Enable Bi-direction mode. */
0000011e 016a            278 	mov	1,r13
00000120 e16fc2e0        279 	shl	r1,r13,r28
00000124 ff4760f9        280 	pushsp	lp-lp
00000128 40fec2ff        281 	movhi	65474,zero,lp
0000012c 3ffe0440        282 	movea	lo(6307844),lp,lp
00000130 9fef0100        283 	ld.bu	0[lp],r29
00000134 40fec2ff        284 	movhi	65474,zero,lp
00000138 3ffe0440        285 	movea	lo(6307844),lp,lp
0000013c 1ce9            286 	or	r28,r29
0000013e 5fef0000        287 	st.b	r29,0[lp]
00000142 ff6760f9        288 	popsp	lp-lp
                         289 --53:                 if (initval)
00000146 e061            290 	cmp	zero,r12
00000148 e20d*           291 	be	.L10
                         292 --54:                 {
                         293 --55:                     SET_BIT(PORTJ_AWO.JP0.UINT8, pin); /* =1 HIGH LEVEL OUTPUT */
                         294 --line55

                                                                      Page 6
                                                              C:\Users\YINGAO~1\AppData\Local\Temp\gh_00005601.si
                         295 ..lin.D.3A.5CRenesas_Electronics.5CD1x_RGL.5Crgl_ghs_D1Lx_obj_V1.2E2.2E0.5Cvlib.5Capp.5Cgfx_apps.5Csimple_draw_d1l2.5Ctarget.5Cd1lx_mango_ghs.5Cobj.5Cdio.4::
                         296 .LDWlin4:
0000014a 016a            297 	mov	1,r13
0000014c e16fc2e0        298 	shl	r1,r13,r28
00000150 80eec0ff        299 	ori	65472,zero,r29
00000154 1e68            300 	mov	ep,r13
00000156 dd69            301 	add	r29,r13
00000158 8def0100        302 	ld.bu	0[r13],r29
0000015c 1ce9            303 	or	r28,r29
0000015e 4def0000        304 	st.b	r29,0[r13]
00000162 e50d*           305 	br	.L9
                         306 .L10:
                         307 --56:                 }
                         308 --57:                 else
                         309 --58:                 {
                         310 --59:                     CLR_BIT(PORTJ_AWO.JP0.UINT8, pin); /* =0 LOW LEVEL OUTPUT*/
                         311 --line59
                         312 ..lin.D.3A.5CRenesas_Electronics.5CD1x_RGL.5Crgl_ghs_D1Lx_obj_V1.2E2.2E0.5Cvlib.5Capp.5Cgfx_apps.5Csimple_draw_d1l2.5Ctarget.5Cd1lx_mango_ghs.5Cobj.5Cdio.5::
                         313 .LDWlin5:
00000164 016a            314 	mov	1,r13
00000166 e16fc268        315 	shl	r1,r13,r13
0000016a 2de0            316 	not	r13,r28
0000016c 80eec0ff        317 	ori	65472,zero,r29
00000170 1e68            318 	mov	ep,r13
00000172 dd69            319 	add	r29,r13
00000174 8def0100        320 	ld.bu	0[r13],r29
00000178 5ce9            321 	and	r28,r29
0000017a 4def0000        322 	st.b	r29,0[r13]
                         323 .L9:
0000017e 8007460b*       324 	br	.L4
                         325 .L13:
                         326 --60:                 }
                         327 --61:             }
                         328 --62:             break;
                         329 --63:         case PORT_DIO_P0: /* P0_0~9 */
                         330 --64:             if (DIR_DIO_INPUT == direction)
                         331 --line64
                         332 ..lin.D.3A.5CRenesas_Electronics.5CD1x_RGL.5Crgl_ghs_D1Lx_obj_V1.2E2.2E0.5Cvlib.5Capp.5Cgfx_apps.5Csimple_draw_d1l2.5Ctarget.5Cd1lx_mango_ghs.5Cobj.5Cdio.6::
                         333 .LDWlin6:
00000182 6172            334 	cmp	1,r14
00000184 da2d*           335 	bne	.L14
                         336 --65:             {
                         337 --66:                 CLR_BIT(PORT_AWO.PMC0.UINT16, pin);/* =0 PORT MODE */
                         338 --line66
                         339 ..lin.D.3A.5CRenesas_Electronics.5CD1x_RGL.5Crgl_ghs_D1Lx_obj_V1.2E2.2E0.5Cvlib.5Capp.5Cgfx_apps.5Csimple_draw_d1l2.5Ctarget.5Cd1lx_mango_ghs.5Cobj.5Cdio.7::
                         340 .LDWlin7:
00000186 016a            341 	mov	1,r13
00000188 e16fc268        342 	shl	r1,r13,r13
0000018c 2de0            343 	not	r13,r28
0000018e 1eeec07f        344 	addi	32704,ep,r29
00000192 fe6fd57f        345 	ld.hu	32724[ep],r13
00000196 5c69            346 	and	r28,r13
00000198 7d6f1400        347 	st.h	r13,20[r29]
                         348 --67:                 SET_BIT(PORT_AWO.PM0.UINT16, pin); /* =1 INTPUT MODE */
0000019c 016a            349 	mov	1,r13
0000019e e16fc2e0        350 	shl	r1,r13,r28
000001a2 fe6fd17f        351 	ld.hu	32720[ep],r13
000001a6 1eeec07f        352 	addi	32704,ep,r29
000001aa 1c69            353 	or	r28,r13
000001ac 7d6f1000        354 	st.h	r13,16[r29]
                         355 --68:                 SET_BIT(PORT_AWO.PIBC0.UINT16, pin); /* =1 Enable input buffer. */

                                                                      Page 7
                                                              C:\Users\YINGAO~1\AppData\Local\Temp\gh_00005601.si
000001b0 016a            356 	mov	1,r13
000001b2 e16fc2e0        357 	shl	r1,r13,r28
000001b6 1eeec07f        358 	addi	32704,ep,r29
000001ba ff4760f9        359 	pushsp	lp-lp
000001be 5dfe6000        360 	movhi	hi(6307840),r29,lp
000001c2 3ffe0040        361 	movea	lo(6307840),lp,lp
000001c6 ff6f0100        362 	ld.hu	0[lp],r13
000001ca 5dfe6000        363 	movhi	hi(6307840),r29,lp
000001ce 3ffe0040        364 	movea	lo(6307840),lp,lp
000001d2 1c69            365 	or	r28,r13
000001d4 7f6f0000        366 	st.h	r13,0[lp]
000001d8 ff6760f9        367 	popsp	lp-lp
000001dc b55d*           368 	br	.L16
                         369 .L14:
                         370 --69:             }
                         371 --70:             else
                         372 --71:             {
                         373 --72:                 CLR_BIT(PORT_AWO.PMC0.UINT16, pin);/* =0 PORT MODE */
                         374 --line72
                         375 ..lin.D.3A.5CRenesas_Electronics.5CD1x_RGL.5Crgl_ghs_D1Lx_obj_V1.2E2.2E0.5Cvlib.5Capp.5Cgfx_apps.5Csimple_draw_d1l2.5Ctarget.5Cd1lx_mango_ghs.5Cobj.5Cdio.8::
                         376 .LDWlin8:
000001de 016a            377 	mov	1,r13
000001e0 e16fc268        378 	shl	r1,r13,r13
000001e4 2de0            379 	not	r13,r28
000001e6 1eeec07f        380 	addi	32704,ep,r29
000001ea fe6fd57f        381 	ld.hu	32724[ep],r13
000001ee 5c69            382 	and	r28,r13
000001f0 7d6f1400        383 	st.h	r13,20[r29]
                         384 --73:                 CLR_BIT(PORT_AWO.PM0.UINT16, pin); /* =0 OUTPUT MODE */
000001f4 016a            385 	mov	1,r13
000001f6 e16fc268        386 	shl	r1,r13,r13
000001fa 2de0            387 	not	r13,r28
000001fc 1eeec07f        388 	addi	32704,ep,r29
00000200 fe6fd17f        389 	ld.hu	32720[ep],r13
00000204 5c69            390 	and	r28,r13
00000206 7d6f1000        391 	st.h	r13,16[r29]
                         392 --74:                 /* for loopback */
                         393 --75:                 SET_BIT(PORT_AWO.PIBC0.UINT16, pin); /* =1 Enable input buffer. */
0000020a 016a            394 	mov	1,r13
0000020c e16fc2e0        395 	shl	r1,r13,r28
00000210 1eeec07f        396 	addi	32704,ep,r29
00000214 ff4760f9        397 	pushsp	lp-lp
00000218 5dfe6000        398 	movhi	hi(6307840),r29,lp
0000021c 3ffe0040        399 	movea	lo(6307840),lp,lp
00000220 ff6f0100        400 	ld.hu	0[lp],r13
00000224 5dfe6000        401 	movhi	hi(6307840),r29,lp
00000228 3ffe0040        402 	movea	lo(6307840),lp,lp
0000022c 1c69            403 	or	r28,r13
0000022e 7f6f0000        404 	st.h	r13,0[lp]
00000232 ff6760f9        405 	popsp	lp-lp
                         406 --76:                 SET_BIT(PORT_AWO.PBDC0.UINT16, pin); /* =1 Enable Bi-direction mode. */
00000236 016a            407 	mov	1,r13
00000238 e16fc2e0        408 	shl	r1,r13,r28
0000023c 1eeec07f        409 	addi	32704,ep,r29
00000240 ff4760f9        410 	pushsp	lp-lp
00000244 5dfe6000        411 	movhi	hi(6307844),r29,lp
00000248 3ffe0440        412 	movea	lo(6307844),lp,lp
0000024c ff6f0100        413 	ld.hu	0[lp],r13
00000250 5dfe6000        414 	movhi	hi(6307844),r29,lp
00000254 3ffe0440        415 	movea	lo(6307844),lp,lp
00000258 1c69            416 	or	r28,r13

                                                                      Page 8
                                                              C:\Users\YINGAO~1\AppData\Local\Temp\gh_00005601.si
0000025a 7f6f0000        417 	st.h	r13,0[lp]
0000025e ff6760f9        418 	popsp	lp-lp
                         419 --77:                 if (initval)
00000262 e061            420 	cmp	zero,r12
00000264 c20d*           421 	be	.L17
                         422 --78:                 {
                         423 --79:                     SET_BIT(PORT_AWO.P0.UINT16, pin); /* =1 HIGH LEVEL OUTPUT */
                         424 --line79
                         425 ..lin.D.3A.5CRenesas_Electronics.5CD1x_RGL.5Crgl_ghs_D1Lx_obj_V1.2E2.2E0.5Cvlib.5Capp.5Cgfx_apps.5Csimple_draw_d1l2.5Ctarget.5Cd1lx_mango_ghs.5Cobj.5Cdio.9::
                         426 .LDWlin9:
00000266 016a            427 	mov	1,r13
00000268 e16fc2e0        428 	shl	r1,r13,r28
0000026c fe6fc17f        429 	ld.hu	32704[ep],r13
00000270 1eeec07f        430 	addi	32704,ep,r29
00000274 1c69            431 	or	r28,r13
00000276 7d6f0000        432 	st.h	r13,0[r29]
0000027a c50d*           433 	br	.L16
                         434 .L17:
                         435 --80:                 }
                         436 --81:                 else
                         437 --82:                 {
                         438 --83:                     CLR_BIT(PORT_AWO.P0.UINT16, pin); /* =0 LOW LEVEL OUTPUT*/
                         439 --line83
                         440 ..lin.D.3A.5CRenesas_Electronics.5CD1x_RGL.5Crgl_ghs_D1Lx_obj_V1.2E2.2E0.5Cvlib.5Capp.5Cgfx_apps.5Csimple_draw_d1l2.5Ctarget.5Cd1lx_mango_ghs.5Cobj.5Cdio.10::
                         441 .LDWlin10:
0000027c 016a            442 	mov	1,r13
0000027e e16fc268        443 	shl	r1,r13,r13
00000282 2de0            444 	not	r13,r28
00000284 1eeec07f        445 	addi	32704,ep,r29
00000288 fe6fc17f        446 	ld.hu	32704[ep],r13
0000028c 5c69            447 	and	r28,r13
0000028e 7d6f0000        448 	st.h	r13,0[r29]
                         449 .L16:
00000292 8007320a*       450 	br	.L4
                         451 .L20:
                         452 --84:                 }
                         453 --85:             }
                         454 --86:             break;
                         455 --87:         case PORT_DIO_P1: /* P1_0~2 */
                         456 --88:             if (DIR_DIO_INPUT == direction)
                         457 --line88
                         458 ..lin.D.3A.5CRenesas_Electronics.5CD1x_RGL.5Crgl_ghs_D1Lx_obj_V1.2E2.2E0.5Cvlib.5Capp.5Cgfx_apps.5Csimple_draw_d1l2.5Ctarget.5Cd1lx_mango_ghs.5Cobj.5Cdio.11::
                         459 .LDWlin11:
00000296 6172            460 	cmp	1,r14
00000298 ba25*           461 	bne	.L21
                         462 --89:             {
                         463 --90:                 CLR_BIT(PORT_ISO.PMC1.UINT16, pin);/* =0 PORT MODE */
                         464 --line90
                         465 ..lin.D.3A.5CRenesas_Electronics.5CD1x_RGL.5Crgl_ghs_D1Lx_obj_V1.2E2.2E0.5Cvlib.5Capp.5Cgfx_apps.5Csimple_draw_d1l2.5Ctarget.5Cd1lx_mango_ghs.5Cobj.5Cdio.12::
                         466 .LDWlin12:
0000029a 016a            467 	mov	1,r13
0000029c e16fc268        468 	shl	r1,r13,r13
000002a0 2de8            469 	not	r13,r29
000002a2 7a68            470 	sld.hu	20[ep],r13
000002a4 5d69            471 	and	r29,r13
000002a6 8a6c            472 	sst.h	r13,20[ep]
                         473 --91:                 SET_BIT(PORT_ISO.PM1.UINT16, pin); /* =1 INTPUT MODE */
000002a8 016a            474 	mov	1,r13
000002aa e16fc2e8        475 	shl	r1,r13,r29
000002ae 7868            476 	sld.hu	16[ep],r13
000002b0 1d69            477 	or	r29,r13

                                                                      Page 9
                                                              C:\Users\YINGAO~1\AppData\Local\Temp\gh_00005601.si
000002b2 886c            478 	sst.h	r13,16[ep]
                         479 --92:                 SET_BIT(PORT_ISO.PIBC1.UINT16, pin); /* =1 Enable input buffer. */
000002b4 016a            480 	mov	1,r13
000002b6 e16fc2e8        481 	shl	r1,r13,r29
000002ba ff4760f9        482 	pushsp	lp-lp
000002be 5efe6000        483 	movhi	hi(6307840),ep,lp
000002c2 3ffe0040        484 	movea	lo(6307840),lp,lp
000002c6 ff6f0100        485 	ld.hu	0[lp],r13
000002ca ff6760f9        486 	popsp	lp-lp
000002ce 1d69            487 	or	r29,r13
000002d0 5eee6000        488 	movhi	hi(6307840),ep,r29
000002d4 3dee0040        489 	movea	lo(6307840),r29,r29
000002d8 7d6f0000        490 	st.h	r13,0[r29]
000002dc f545*           491 	br	.L23
                         492 .L21:
                         493 --93:             }
                         494 --94:             else
                         495 --95:             {
                         496 --96:                 CLR_BIT(PORT_ISO.PMC1.UINT16, pin);/* =0 PORT MODE */
                         497 --line96
                         498 ..lin.D.3A.5CRenesas_Electronics.5CD1x_RGL.5Crgl_ghs_D1Lx_obj_V1.2E2.2E0.5Cvlib.5Capp.5Cgfx_apps.5Csimple_draw_d1l2.5Ctarget.5Cd1lx_mango_ghs.5Cobj.5Cdio.13::
                         499 .LDWlin13:
000002de 016a            500 	mov	1,r13
000002e0 e16fc268        501 	shl	r1,r13,r13
000002e4 2de8            502 	not	r13,r29
000002e6 7a68            503 	sld.hu	20[ep],r13
000002e8 5d69            504 	and	r29,r13
000002ea 8a6c            505 	sst.h	r13,20[ep]
                         506 --97:                 CLR_BIT(PORT_ISO.PM1.UINT16, pin); /* =0 OUTPUT MODE */
000002ec 016a            507 	mov	1,r13
000002ee e16fc268        508 	shl	r1,r13,r13
000002f2 2de8            509 	not	r13,r29
000002f4 7868            510 	sld.hu	16[ep],r13
000002f6 5d69            511 	and	r29,r13
000002f8 886c            512 	sst.h	r13,16[ep]
                         513 --98:                 /* for loopback */
                         514 --99:                 SET_BIT(PORT_ISO.PIBC1.UINT16, pin); /* =1 Enable input buffer. */
000002fa 016a            515 	mov	1,r13
000002fc e16fc2e8        516 	shl	r1,r13,r29
00000300 ff4760f9        517 	pushsp	lp-lp
00000304 5efe6000        518 	movhi	hi(6307840),ep,lp
00000308 3ffe0040        519 	movea	lo(6307840),lp,lp
0000030c ff6f0100        520 	ld.hu	0[lp],r13
00000310 ff6760f9        521 	popsp	lp-lp
00000314 1d69            522 	or	r29,r13
00000316 5eee6000        523 	movhi	hi(6307840),ep,r29
0000031a 3dee0040        524 	movea	lo(6307840),r29,r29
0000031e 7d6f0000        525 	st.h	r13,0[r29]
                         526 --100:                 SET_BIT(PORT_ISO.PBDC1.UINT16, pin); /* =1 Enable Bi-direction mode. */
00000322 016a            527 	mov	1,r13
00000324 e16fc2e8        528 	shl	r1,r13,r29
00000328 ff4760f9        529 	pushsp	lp-lp
0000032c 5efe6000        530 	movhi	hi(6307844),ep,lp
00000330 3ffe0440        531 	movea	lo(6307844),lp,lp
00000334 ff6f0100        532 	ld.hu	0[lp],r13
00000338 ff6760f9        533 	popsp	lp-lp
0000033c 1d69            534 	or	r29,r13
0000033e 5eee6000        535 	movhi	hi(6307844),ep,r29
00000342 3dee0440        536 	movea	lo(6307844),r29,r29
00000346 7d6f0000        537 	st.h	r13,0[r29]
                         538 --101:                 if (initval)

                                                                      Page 10
                                                              C:\Users\YINGAO~1\AppData\Local\Temp\gh_00005601.si
0000034a e061            539 	cmp	zero,r12
0000034c 820d*           540 	be	.L24
                         541 --102:                 {
                         542 --103:                     SET_BIT(PORT_ISO.P1.UINT16, pin); /* =1 HIGH LEVEL OUTPUT */
                         543 --line103
                         544 ..lin.D.3A.5CRenesas_Electronics.5CD1x_RGL.5Crgl_ghs_D1Lx_obj_V1.2E2.2E0.5Cvlib.5Capp.5Cgfx_apps.5Csimple_draw_d1l2.5Ctarget.5Cd1lx_mango_ghs.5Cobj.5Cdio.14::
                         545 .LDWlin14:
0000034e 016a            546 	mov	1,r13
00000350 e16fc2e8        547 	shl	r1,r13,r29
00000354 7068            548 	sld.hu	0[ep],r13
00000356 1d69            549 	or	r29,r13
00000358 806c            550 	sst.h	r13,0[ep]
0000035a 850d*           551 	br	.L23
                         552 .L24:
                         553 --104:                 }
                         554 --105:                 else
                         555 --106:                 {
                         556 --107:                     CLR_BIT(PORT_ISO.P1.UINT16, pin); /* =0 LOW LEVEL OUTPUT*/
                         557 --line107
                         558 ..lin.D.3A.5CRenesas_Electronics.5CD1x_RGL.5Crgl_ghs_D1Lx_obj_V1.2E2.2E0.5Cvlib.5Capp.5Cgfx_apps.5Csimple_draw_d1l2.5Ctarget.5Cd1lx_mango_ghs.5Cobj.5Cdio.15::
                         559 .LDWlin15:
0000035c 016a            560 	mov	1,r13
0000035e e16fc268        561 	shl	r1,r13,r13
00000362 2de8            562 	not	r13,r29
00000364 7068            563 	sld.hu	0[ep],r13
00000366 5d69            564 	and	r29,r13
00000368 806c            565 	sst.h	r13,0[ep]
                         566 .L23:
0000036a 80075a09*       567 	br	.L4
                         568 .L27:
                         569 --108:                 }
                         570 --109:             }
                         571 --110:             break;
                         572 --111:         case PORT_DIO_P3: /* P3_2~9 */
                         573 --112:             if (DIR_DIO_INPUT == direction)
                         574 --line112
                         575 ..lin.D.3A.5CRenesas_Electronics.5CD1x_RGL.5Crgl_ghs_D1Lx_obj_V1.2E2.2E0.5Cvlib.5Capp.5Cgfx_apps.5Csimple_draw_d1l2.5Ctarget.5Cd1lx_mango_ghs.5Cobj.5Cdio.16::
                         576 .LDWlin16:
0000036e 6172            577 	cmp	1,r14
00000370 da25*           578 	bne	.L28
                         579 --113:             {
                         580 --114:                 CLR_BIT(PORT_ISO.PMC3.UINT16, pin);/* =0 PORT MODE */
                         581 --line114
                         582 ..lin.D.3A.5CRenesas_Electronics.5CD1x_RGL.5Crgl_ghs_D1Lx_obj_V1.2E2.2E0.5Cvlib.5Capp.5Cgfx_apps.5Csimple_draw_d1l2.5Ctarget.5Cd1lx_mango_ghs.5Cobj.5Cdio.17::
                         583 .LDWlin17:
00000372 016a            584 	mov	1,r13
00000374 e16fc268        585 	shl	r1,r13,r13
00000378 2de8            586 	not	r13,r29
0000037a fe6f9500        587 	ld.hu	148[ep],r13
0000037e 5d69            588 	and	r29,r13
00000380 ca6c            589 	sst.h	r13,148[ep]
                         590 --115:                 SET_BIT(PORT_ISO.PM3.UINT16, pin); /* =1 INTPUT MODE */
00000382 016a            591 	mov	1,r13
00000384 e16fc2e8        592 	shl	r1,r13,r29
00000388 fe6f9100        593 	ld.hu	144[ep],r13
0000038c 1d69            594 	or	r29,r13
0000038e c86c            595 	sst.h	r13,144[ep]
                         596 --116:                 SET_BIT(PORT_ISO.PIBC3.UINT16, pin); /* =1 Enable input buffer. */
00000390 016a            597 	mov	1,r13
00000392 e16fc2e8        598 	shl	r1,r13,r29
00000396 ff4760f9        599 	pushsp	lp-lp

                                                                      Page 11
                                                              C:\Users\YINGAO~1\AppData\Local\Temp\gh_00005601.si
0000039a 5efe6000        600 	movhi	hi(6307968),ep,lp
0000039e 3ffe8040        601 	movea	lo(6307968),lp,lp
000003a2 ff6f0100        602 	ld.hu	0[lp],r13
000003a6 ff6760f9        603 	popsp	lp-lp
000003aa 1d69            604 	or	r29,r13
000003ac 5eee6000        605 	movhi	hi(6307968),ep,r29
000003b0 3dee8040        606 	movea	lo(6307968),r29,r29
000003b4 7d6f0000        607 	st.h	r13,0[r29]
000003b8 b54d*           608 	br	.L30
                         609 .L28:
                         610 --117:             }
                         611 --118:             else
                         612 --119:             {
                         613 --120:                 CLR_BIT(PORT_ISO.PMC3.UINT16, pin);/* =0 PORT MODE */
                         614 --line120
                         615 ..lin.D.3A.5CRenesas_Electronics.5CD1x_RGL.5Crgl_ghs_D1Lx_obj_V1.2E2.2E0.5Cvlib.5Capp.5Cgfx_apps.5Csimple_draw_d1l2.5Ctarget.5Cd1lx_mango_ghs.5Cobj.5Cdio.18::
                         616 .LDWlin18:
000003ba 016a            617 	mov	1,r13
000003bc e16fc268        618 	shl	r1,r13,r13
000003c0 2de8            619 	not	r13,r29
000003c2 fe6f9500        620 	ld.hu	148[ep],r13
000003c6 5d69            621 	and	r29,r13
000003c8 ca6c            622 	sst.h	r13,148[ep]
                         623 --121:                 CLR_BIT(PORT_ISO.PM3.UINT16, pin); /* =0 OUTPUT MODE */
000003ca 016a            624 	mov	1,r13
000003cc e16fc268        625 	shl	r1,r13,r13
000003d0 2de8            626 	not	r13,r29
000003d2 fe6f9100        627 	ld.hu	144[ep],r13
000003d6 5d69            628 	and	r29,r13
000003d8 c86c            629 	sst.h	r13,144[ep]
                         630 --122:                 /* for loopback */
                         631 --123:                 SET_BIT(PORT_ISO.PIBC3.UINT16, pin); /* =1 Enable input buffer. */
000003da 016a            632 	mov	1,r13
000003dc e16fc2e8        633 	shl	r1,r13,r29
000003e0 ff4760f9        634 	pushsp	lp-lp
000003e4 5efe6000        635 	movhi	hi(6307968),ep,lp
000003e8 3ffe8040        636 	movea	lo(6307968),lp,lp
000003ec ff6f0100        637 	ld.hu	0[lp],r13
000003f0 ff6760f9        638 	popsp	lp-lp
000003f4 1d69            639 	or	r29,r13
000003f6 5eee6000        640 	movhi	hi(6307968),ep,r29
000003fa 3dee8040        641 	movea	lo(6307968),r29,r29
000003fe 7d6f0000        642 	st.h	r13,0[r29]
                         643 --124:                 SET_BIT(PORT_ISO.PBDC3.UINT16, pin); /* =1 Enable Bi-direction mode. */
00000402 016a            644 	mov	1,r13
00000404 e16fc2e8        645 	shl	r1,r13,r29
00000408 ff4760f9        646 	pushsp	lp-lp
0000040c 5efe6000        647 	movhi	hi(6307972),ep,lp
00000410 3ffe8440        648 	movea	lo(6307972),lp,lp
00000414 ff6f0100        649 	ld.hu	0[lp],r13
00000418 ff6760f9        650 	popsp	lp-lp
0000041c 1d69            651 	or	r29,r13
0000041e 5eee6000        652 	movhi	hi(6307972),ep,r29
00000422 3dee8440        653 	movea	lo(6307972),r29,r29
00000426 7d6f0000        654 	st.h	r13,0[r29]
                         655 --125:                 if (initval)
0000042a e061            656 	cmp	zero,r12
0000042c 920d*           657 	be	.L31
                         658 --126:                 {
                         659 --127:                     SET_BIT(PORT_ISO.P3.UINT16, pin); /* =1 HIGH LEVEL OUTPUT */
                         660 --line127

                                                                      Page 12
                                                              C:\Users\YINGAO~1\AppData\Local\Temp\gh_00005601.si
                         661 ..lin.D.3A.5CRenesas_Electronics.5CD1x_RGL.5Crgl_ghs_D1Lx_obj_V1.2E2.2E0.5Cvlib.5Capp.5Cgfx_apps.5Csimple_draw_d1l2.5Ctarget.5Cd1lx_mango_ghs.5Cobj.5Cdio.19::
                         662 .LDWlin19:
0000042e 016a            663 	mov	1,r13
00000430 e16fc2e8        664 	shl	r1,r13,r29
00000434 fe6f8100        665 	ld.hu	128[ep],r13
00000438 1d69            666 	or	r29,r13
0000043a c06c            667 	sst.h	r13,128[ep]
0000043c 950d*           668 	br	.L30
                         669 .L31:
                         670 --128:                 }
                         671 --129:                 else
                         672 --130:                 {
                         673 --131:                     CLR_BIT(PORT_ISO.P3.UINT16, pin); /* =0 LOW LEVEL OUTPUT*/
                         674 --line131
                         675 ..lin.D.3A.5CRenesas_Electronics.5CD1x_RGL.5Crgl_ghs_D1Lx_obj_V1.2E2.2E0.5Cvlib.5Capp.5Cgfx_apps.5Csimple_draw_d1l2.5Ctarget.5Cd1lx_mango_ghs.5Cobj.5Cdio.20::
                         676 .LDWlin20:
0000043e 016a            677 	mov	1,r13
00000440 e16fc268        678 	shl	r1,r13,r13
00000444 2de8            679 	not	r13,r29
00000446 fe6f8100        680 	ld.hu	128[ep],r13
0000044a 5d69            681 	and	r29,r13
0000044c c06c            682 	sst.h	r13,128[ep]
                         683 .L30:
0000044e 80077608*       684 	br	.L4
                         685 .L34:
                         686 --132:                 }
                         687 --133:             }
                         688 --134:             break;
                         689 --135:         case PORT_DIO_P10: /* P10_0~11 */
                         690 --136:             if (DIR_DIO_INPUT == direction)
                         691 --line136
                         692 ..lin.D.3A.5CRenesas_Electronics.5CD1x_RGL.5Crgl_ghs_D1Lx_obj_V1.2E2.2E0.5Cvlib.5Capp.5Cgfx_apps.5Csimple_draw_d1l2.5Ctarget.5Cd1lx_mango_ghs.5Cobj.5Cdio.21::
                         693 .LDWlin21:
00000452 6172            694 	cmp	1,r14
00000454 fa25*           695 	bne	.L35
                         696 --137:             {
                         697 --138:                 CLR_BIT(PORT_ISO.PMC10.UINT16, pin);/* =0 PORT MODE */
                         698 --line138
                         699 ..lin.D.3A.5CRenesas_Electronics.5CD1x_RGL.5Crgl_ghs_D1Lx_obj_V1.2E2.2E0.5Cvlib.5Capp.5Cgfx_apps.5Csimple_draw_d1l2.5Ctarget.5Cd1lx_mango_ghs.5Cobj.5Cdio.22::
                         700 .LDWlin22:
00000456 016a            701 	mov	1,r13
00000458 e16fc268        702 	shl	r1,r13,r13
0000045c 2de8            703 	not	r13,r29
0000045e fe6f5502        704 	ld.hu	596[ep],r13
00000462 5d69            705 	and	r29,r13
00000464 7e6f5402        706 	st.h	r13,596[ep]
                         707 --139:                 SET_BIT(PORT_ISO.PM10.UINT16, pin); /* =1 INTPUT MODE */
00000468 016a            708 	mov	1,r13
0000046a e16fc2e8        709 	shl	r1,r13,r29
0000046e fe6f5102        710 	ld.hu	592[ep],r13
00000472 1d69            711 	or	r29,r13
00000474 7e6f5002        712 	st.h	r13,592[ep]
                         713 --140:                 SET_BIT(PORT_ISO.PIBC10.UINT16, pin); /* =1 Enable input buffer. */
00000478 016a            714 	mov	1,r13
0000047a e16fc2e8        715 	shl	r1,r13,r29
0000047e ff4760f9        716 	pushsp	lp-lp
00000482 5efe6000        717 	movhi	hi(6308416),ep,lp
00000486 3ffe4042        718 	movea	lo(6308416),lp,lp
0000048a ff6f0100        719 	ld.hu	0[lp],r13
0000048e ff6760f9        720 	popsp	lp-lp
00000492 1d69            721 	or	r29,r13

                                                                      Page 13
                                                              C:\Users\YINGAO~1\AppData\Local\Temp\gh_00005601.si
00000494 5eee6000        722 	movhi	hi(6308416),ep,r29
00000498 3dee4042        723 	movea	lo(6308416),r29,r29
0000049c 7d6f0000        724 	st.h	r13,0[r29]
000004a0 f54d*           725 	br	.L37
                         726 .L35:
                         727 --141:             }
                         728 --142:             else
                         729 --143:             {
                         730 --144:                 CLR_BIT(PORT_ISO.PMC10.UINT16, pin);/* =0 PORT MODE */
                         731 --line144
                         732 ..lin.D.3A.5CRenesas_Electronics.5CD1x_RGL.5Crgl_ghs_D1Lx_obj_V1.2E2.2E0.5Cvlib.5Capp.5Cgfx_apps.5Csimple_draw_d1l2.5Ctarget.5Cd1lx_mango_ghs.5Cobj.5Cdio.23::
                         733 .LDWlin23:
000004a2 016a            734 	mov	1,r13
000004a4 e16fc268        735 	shl	r1,r13,r13
000004a8 2de8            736 	not	r13,r29
000004aa fe6f5502        737 	ld.hu	596[ep],r13
000004ae 5d69            738 	and	r29,r13
000004b0 7e6f5402        739 	st.h	r13,596[ep]
                         740 --145:                 CLR_BIT(PORT_ISO.PM10.UINT16, pin); /* =0 OUTPUT MODE */
000004b4 016a            741 	mov	1,r13
000004b6 e16fc268        742 	shl	r1,r13,r13
000004ba 2de8            743 	not	r13,r29
000004bc fe6f5102        744 	ld.hu	592[ep],r13
000004c0 5d69            745 	and	r29,r13
000004c2 7e6f5002        746 	st.h	r13,592[ep]
                         747 --146:                 /* for loopback */
                         748 --147:                 SET_BIT(PORT_ISO.PIBC10.UINT16, pin); /* =1 Enable input buffer. */
000004c6 016a            749 	mov	1,r13
000004c8 e16fc2e8        750 	shl	r1,r13,r29
000004cc ff4760f9        751 	pushsp	lp-lp
000004d0 5efe6000        752 	movhi	hi(6308416),ep,lp
000004d4 3ffe4042        753 	movea	lo(6308416),lp,lp
000004d8 ff6f0100        754 	ld.hu	0[lp],r13
000004dc ff6760f9        755 	popsp	lp-lp
000004e0 1d69            756 	or	r29,r13
000004e2 5eee6000        757 	movhi	hi(6308416),ep,r29
000004e6 3dee4042        758 	movea	lo(6308416),r29,r29
000004ea 7d6f0000        759 	st.h	r13,0[r29]
                         760 --148:                 SET_BIT(PORT_ISO.PBDC10.UINT16, pin); /* =1 Enable Bi-direction mode. */
000004ee 016a            761 	mov	1,r13
000004f0 e16fc2e8        762 	shl	r1,r13,r29
000004f4 ff4760f9        763 	pushsp	lp-lp
000004f8 5efe6000        764 	movhi	hi(6308420),ep,lp
000004fc 3ffe4442        765 	movea	lo(6308420),lp,lp
00000500 ff6f0100        766 	ld.hu	0[lp],r13
00000504 ff6760f9        767 	popsp	lp-lp
00000508 1d69            768 	or	r29,r13
0000050a 5eee6000        769 	movhi	hi(6308420),ep,r29
0000050e 3dee4442        770 	movea	lo(6308420),r29,r29
00000512 7d6f0000        771 	st.h	r13,0[r29]
                         772 --149:                 if (initval)
00000516 e061            773 	cmp	zero,r12
00000518 a20d*           774 	be	.L38
                         775 --150:                 {
                         776 --151:                     SET_BIT(PORT_ISO.P10.UINT16, pin); /* =1 HIGH LEVEL OUTPUT */
                         777 --line151
                         778 ..lin.D.3A.5CRenesas_Electronics.5CD1x_RGL.5Crgl_ghs_D1Lx_obj_V1.2E2.2E0.5Cvlib.5Capp.5Cgfx_apps.5Csimple_draw_d1l2.5Ctarget.5Cd1lx_mango_ghs.5Cobj.5Cdio.24::
                         779 .LDWlin24:
0000051a 016a            780 	mov	1,r13
0000051c e16fc2e8        781 	shl	r1,r13,r29
00000520 fe6f4102        782 	ld.hu	576[ep],r13

                                                                      Page 14
                                                              C:\Users\YINGAO~1\AppData\Local\Temp\gh_00005601.si
00000524 1d69            783 	or	r29,r13
00000526 7e6f4002        784 	st.h	r13,576[ep]
0000052a a50d*           785 	br	.L37
                         786 .L38:
                         787 --152:                 }
                         788 --153:                 else
                         789 --154:                 {
                         790 --155:                     CLR_BIT(PORT_ISO.P10.UINT16, pin); /* =0 LOW LEVEL OUTPUT*/
                         791 --line155
                         792 ..lin.D.3A.5CRenesas_Electronics.5CD1x_RGL.5Crgl_ghs_D1Lx_obj_V1.2E2.2E0.5Cvlib.5Capp.5Cgfx_apps.5Csimple_draw_d1l2.5Ctarget.5Cd1lx_mango_ghs.5Cobj.5Cdio.25::
                         793 .LDWlin25:
0000052c 016a            794 	mov	1,r13
0000052e e16fc268        795 	shl	r1,r13,r13
00000532 2de8            796 	not	r13,r29
00000534 fe6f4102        797 	ld.hu	576[ep],r13
00000538 5d69            798 	and	r29,r13
0000053a 7e6f4002        799 	st.h	r13,576[ep]
                         800 .L37:
0000053e 80078607*       801 	br	.L4
                         802 .L41:
                         803 --156:                 }
                         804 --157:             }
                         805 --158:             break;
                         806 --159:         case PORT_DIO_P11: /* P11_0~3 */
                         807 --160:             if (DIR_DIO_INPUT == direction)
                         808 --line160
                         809 ..lin.D.3A.5CRenesas_Electronics.5CD1x_RGL.5Crgl_ghs_D1Lx_obj_V1.2E2.2E0.5Cvlib.5Capp.5Cgfx_apps.5Csimple_draw_d1l2.5Ctarget.5Cd1lx_mango_ghs.5Cobj.5Cdio.26::
                         810 .LDWlin26:
00000542 6172            811 	cmp	1,r14
00000544 fa25*           812 	bne	.L42
                         813 --161:             {
                         814 --162:                 CLR_BIT(PORT_ISO.PMC11.UINT16, pin);/* =0 PORT MODE */
                         815 --line162
                         816 ..lin.D.3A.5CRenesas_Electronics.5CD1x_RGL.5Crgl_ghs_D1Lx_obj_V1.2E2.2E0.5Cvlib.5Capp.5Cgfx_apps.5Csimple_draw_d1l2.5Ctarget.5Cd1lx_mango_ghs.5Cobj.5Cdio.27::
                         817 .LDWlin27:
00000546 016a            818 	mov	1,r13
00000548 e16fc268        819 	shl	r1,r13,r13
0000054c 2de8            820 	not	r13,r29
0000054e fe6f9502        821 	ld.hu	660[ep],r13
00000552 5d69            822 	and	r29,r13
00000554 7e6f9402        823 	st.h	r13,660[ep]
                         824 --163:                 SET_BIT(PORT_ISO.PM11.UINT16, pin); /* =1 INTPUT MODE */
00000558 016a            825 	mov	1,r13
0000055a e16fc2e8        826 	shl	r1,r13,r29
0000055e fe6f9102        827 	ld.hu	656[ep],r13
00000562 1d69            828 	or	r29,r13
00000564 7e6f9002        829 	st.h	r13,656[ep]
                         830 --164:                 SET_BIT(PORT_ISO.PIBC11.UINT16, pin); /* =1 Enable input buffer. */
00000568 016a            831 	mov	1,r13
0000056a e16fc2e8        832 	shl	r1,r13,r29
0000056e ff4760f9        833 	pushsp	lp-lp
00000572 5efe6000        834 	movhi	hi(6308480),ep,lp
00000576 3ffe8042        835 	movea	lo(6308480),lp,lp
0000057a ff6f0100        836 	ld.hu	0[lp],r13
0000057e ff6760f9        837 	popsp	lp-lp
00000582 1d69            838 	or	r29,r13
00000584 5eee6000        839 	movhi	hi(6308480),ep,r29
00000588 3dee8042        840 	movea	lo(6308480),r29,r29
0000058c 7d6f0000        841 	st.h	r13,0[r29]
00000590 f54d*           842 	br	.L44
                         843 .L42:

                                                                      Page 15
                                                              C:\Users\YINGAO~1\AppData\Local\Temp\gh_00005601.si
                         844 --165:             }
                         845 --166:             else
                         846 --167:             {
                         847 --168:                 CLR_BIT(PORT_ISO.PMC11.UINT16, pin);/* =0 PORT MODE */
                         848 --line168
                         849 ..lin.D.3A.5CRenesas_Electronics.5CD1x_RGL.5Crgl_ghs_D1Lx_obj_V1.2E2.2E0.5Cvlib.5Capp.5Cgfx_apps.5Csimple_draw_d1l2.5Ctarget.5Cd1lx_mango_ghs.5Cobj.5Cdio.28::
                         850 .LDWlin28:
00000592 016a            851 	mov	1,r13
00000594 e16fc268        852 	shl	r1,r13,r13
00000598 2de8            853 	not	r13,r29
0000059a fe6f9502        854 	ld.hu	660[ep],r13
0000059e 5d69            855 	and	r29,r13
000005a0 7e6f9402        856 	st.h	r13,660[ep]
                         857 --169:                 CLR_BIT(PORT_ISO.PM11.UINT16, pin); /* =0 OUTPUT MODE */
000005a4 016a            858 	mov	1,r13
000005a6 e16fc268        859 	shl	r1,r13,r13
000005aa 2de8            860 	not	r13,r29
000005ac fe6f9102        861 	ld.hu	656[ep],r13
000005b0 5d69            862 	and	r29,r13
000005b2 7e6f9002        863 	st.h	r13,656[ep]
                         864 --170:                 /* for loopback */
                         865 --171:                 SET_BIT(PORT_ISO.PIBC11.UINT16, pin); /* =1 Enable input buffer. */
000005b6 016a            866 	mov	1,r13
000005b8 e16fc2e8        867 	shl	r1,r13,r29
000005bc ff4760f9        868 	pushsp	lp-lp
000005c0 5efe6000        869 	movhi	hi(6308480),ep,lp
000005c4 3ffe8042        870 	movea	lo(6308480),lp,lp
000005c8 ff6f0100        871 	ld.hu	0[lp],r13
000005cc ff6760f9        872 	popsp	lp-lp
000005d0 1d69            873 	or	r29,r13
000005d2 5eee6000        874 	movhi	hi(6308480),ep,r29
000005d6 3dee8042        875 	movea	lo(6308480),r29,r29
000005da 7d6f0000        876 	st.h	r13,0[r29]
                         877 --172:                 SET_BIT(PORT_ISO.PBDC11.UINT16, pin); /* =1 Enable Bi-direction mode. */
000005de 016a            878 	mov	1,r13
000005e0 e16fc2e8        879 	shl	r1,r13,r29
000005e4 ff4760f9        880 	pushsp	lp-lp
000005e8 5efe6000        881 	movhi	hi(6308484),ep,lp
000005ec 3ffe8442        882 	movea	lo(6308484),lp,lp
000005f0 ff6f0100        883 	ld.hu	0[lp],r13
000005f4 ff6760f9        884 	popsp	lp-lp
000005f8 1d69            885 	or	r29,r13
000005fa 5eee6000        886 	movhi	hi(6308484),ep,r29
000005fe 3dee8442        887 	movea	lo(6308484),r29,r29
00000602 7d6f0000        888 	st.h	r13,0[r29]
                         889 --173:                 if (initval)
00000606 e061            890 	cmp	zero,r12
00000608 a20d*           891 	be	.L45
                         892 --174:                 {
                         893 --175:                     SET_BIT(PORT_ISO.P11.UINT16, pin); /* =1 HIGH LEVEL OUTPUT */
                         894 --line175
                         895 ..lin.D.3A.5CRenesas_Electronics.5CD1x_RGL.5Crgl_ghs_D1Lx_obj_V1.2E2.2E0.5Cvlib.5Capp.5Cgfx_apps.5Csimple_draw_d1l2.5Ctarget.5Cd1lx_mango_ghs.5Cobj.5Cdio.29::
                         896 .LDWlin29:
0000060a 016a            897 	mov	1,r13
0000060c e16fc2e8        898 	shl	r1,r13,r29
00000610 fe6f8102        899 	ld.hu	640[ep],r13
00000614 1d69            900 	or	r29,r13
00000616 7e6f8002        901 	st.h	r13,640[ep]
0000061a a50d*           902 	br	.L44
                         903 .L45:
                         904 --176:                 }

                                                                      Page 16
                                                              C:\Users\YINGAO~1\AppData\Local\Temp\gh_00005601.si
                         905 --177:                 else
                         906 --178:                 {
                         907 --179:                     CLR_BIT(PORT_ISO.P11.UINT16, pin); /* =0 LOW LEVEL OUTPUT*/
                         908 --line179
                         909 ..lin.D.3A.5CRenesas_Electronics.5CD1x_RGL.5Crgl_ghs_D1Lx_obj_V1.2E2.2E0.5Cvlib.5Capp.5Cgfx_apps.5Csimple_draw_d1l2.5Ctarget.5Cd1lx_mango_ghs.5Cobj.5Cdio.30::
                         910 .LDWlin30:
0000061c 016a            911 	mov	1,r13
0000061e e16fc268        912 	shl	r1,r13,r13
00000622 2de8            913 	not	r13,r29
00000624 fe6f8102        914 	ld.hu	640[ep],r13
00000628 5d69            915 	and	r29,r13
0000062a 7e6f8002        916 	st.h	r13,640[ep]
                         917 .L44:
0000062e 80079606*       918 	br	.L4
                         919 .L48:
                         920 --180:                 }
                         921 --181:             }
                         922 --182:             break;
                         923 --183:         case PORT_DIO_P16: /* P16_0~11 */
                         924 --184:             if (DIR_DIO_INPUT == direction)
                         925 --line184
                         926 ..lin.D.3A.5CRenesas_Electronics.5CD1x_RGL.5Crgl_ghs_D1Lx_obj_V1.2E2.2E0.5Cvlib.5Capp.5Cgfx_apps.5Csimple_draw_d1l2.5Ctarget.5Cd1lx_mango_ghs.5Cobj.5Cdio.31::
                         927 .LDWlin31:
00000632 6172            928 	cmp	1,r14
00000634 fa25*           929 	bne	.L49
                         930 --185:             {
                         931 --186:                 CLR_BIT(PORT_ISO.PMC16.UINT16, pin);/* =0 PORT MODE */
                         932 --line186
                         933 ..lin.D.3A.5CRenesas_Electronics.5CD1x_RGL.5Crgl_ghs_D1Lx_obj_V1.2E2.2E0.5Cvlib.5Capp.5Cgfx_apps.5Csimple_draw_d1l2.5Ctarget.5Cd1lx_mango_ghs.5Cobj.5Cdio.32::
                         934 .LDWlin32:
00000636 016a            935 	mov	1,r13
00000638 e16fc268        936 	shl	r1,r13,r13
0000063c 2de8            937 	not	r13,r29
0000063e fe6fd503        938 	ld.hu	980[ep],r13
00000642 5d69            939 	and	r29,r13
00000644 7e6fd403        940 	st.h	r13,980[ep]
                         941 --187:                 SET_BIT(PORT_ISO.PM16.UINT16, pin); /* =1 INTPUT MODE */
00000648 016a            942 	mov	1,r13
0000064a e16fc2e8        943 	shl	r1,r13,r29
0000064e fe6fd103        944 	ld.hu	976[ep],r13
00000652 1d69            945 	or	r29,r13
00000654 7e6fd003        946 	st.h	r13,976[ep]
                         947 --188:                 SET_BIT(PORT_ISO.PIBC16.UINT16, pin); /* =1 Enable input buffer. */
00000658 016a            948 	mov	1,r13
0000065a e16fc2e8        949 	shl	r1,r13,r29
0000065e ff4760f9        950 	pushsp	lp-lp
00000662 5efe6000        951 	movhi	hi(6308800),ep,lp
00000666 3ffec043        952 	movea	lo(6308800),lp,lp
0000066a ff6f0100        953 	ld.hu	0[lp],r13
0000066e ff6760f9        954 	popsp	lp-lp
00000672 1d69            955 	or	r29,r13
00000674 5eee6000        956 	movhi	hi(6308800),ep,r29
00000678 3deec043        957 	movea	lo(6308800),r29,r29
0000067c 7d6f0000        958 	st.h	r13,0[r29]
00000680 f54d*           959 	br	.L51
                         960 .L49:
                         961 --189:             }
                         962 --190:             else
                         963 --191:             {
                         964 --192:                 CLR_BIT(PORT_ISO.PMC16.UINT16, pin);/* =0 PORT MODE */
                         965 --line192

                                                                      Page 17
                                                              C:\Users\YINGAO~1\AppData\Local\Temp\gh_00005601.si
                         966 ..lin.D.3A.5CRenesas_Electronics.5CD1x_RGL.5Crgl_ghs_D1Lx_obj_V1.2E2.2E0.5Cvlib.5Capp.5Cgfx_apps.5Csimple_draw_d1l2.5Ctarget.5Cd1lx_mango_ghs.5Cobj.5Cdio.33::
                         967 .LDWlin33:
00000682 016a            968 	mov	1,r13
00000684 e16fc268        969 	shl	r1,r13,r13
00000688 2de8            970 	not	r13,r29
0000068a fe6fd503        971 	ld.hu	980[ep],r13
0000068e 5d69            972 	and	r29,r13
00000690 7e6fd403        973 	st.h	r13,980[ep]
                         974 --193:                 CLR_BIT(PORT_ISO.PM16.UINT16, pin); /* =0 OUTPUT MODE */
00000694 016a            975 	mov	1,r13
00000696 e16fc268        976 	shl	r1,r13,r13
0000069a 2de8            977 	not	r13,r29
0000069c fe6fd103        978 	ld.hu	976[ep],r13
000006a0 5d69            979 	and	r29,r13
000006a2 7e6fd003        980 	st.h	r13,976[ep]
                         981 --194:                 /* for loopback */
                         982 --195:                 SET_BIT(PORT_ISO.PIBC16.UINT16, pin); /* =1 Enable input buffer. */
000006a6 016a            983 	mov	1,r13
000006a8 e16fc2e8        984 	shl	r1,r13,r29
000006ac ff4760f9        985 	pushsp	lp-lp
000006b0 5efe6000        986 	movhi	hi(6308800),ep,lp
000006b4 3ffec043        987 	movea	lo(6308800),lp,lp
000006b8 ff6f0100        988 	ld.hu	0[lp],r13
000006bc ff6760f9        989 	popsp	lp-lp
000006c0 1d69            990 	or	r29,r13
000006c2 5eee6000        991 	movhi	hi(6308800),ep,r29
000006c6 3deec043        992 	movea	lo(6308800),r29,r29
000006ca 7d6f0000        993 	st.h	r13,0[r29]
                         994 --196:                 SET_BIT(PORT_ISO.PBDC16.UINT16, pin); /* =1 Enable Bi-direction mode. */
000006ce 016a            995 	mov	1,r13
000006d0 e16fc2e8        996 	shl	r1,r13,r29
000006d4 ff4760f9        997 	pushsp	lp-lp
000006d8 5efe6000        998 	movhi	hi(6308804),ep,lp
000006dc 3ffec443        999 	movea	lo(6308804),lp,lp
000006e0 ff6f0100       1000 	ld.hu	0[lp],r13
000006e4 ff6760f9       1001 	popsp	lp-lp
000006e8 1d69           1002 	or	r29,r13
000006ea 5eee6000       1003 	movhi	hi(6308804),ep,r29
000006ee 3deec443       1004 	movea	lo(6308804),r29,r29
000006f2 7d6f0000       1005 	st.h	r13,0[r29]
                        1006 --197:                 if (initval)
000006f6 e061           1007 	cmp	zero,r12
000006f8 a20d*          1008 	be	.L52
                        1009 --198:                 {
                        1010 --199:                     SET_BIT(PORT_ISO.P16.UINT16, pin); /* =1 HIGH LEVEL OUTPUT */
                        1011 --line199
                        1012 ..lin.D.3A.5CRenesas_Electronics.5CD1x_RGL.5Crgl_ghs_D1Lx_obj_V1.2E2.2E0.5Cvlib.5Capp.5Cgfx_apps.5Csimple_draw_d1l2.5Ctarget.5Cd1lx_mango_ghs.5Cobj.5Cdio.34::
                        1013 .LDWlin34:
000006fa 016a           1014 	mov	1,r13
000006fc e16fc2e8       1015 	shl	r1,r13,r29
00000700 fe6fc103       1016 	ld.hu	960[ep],r13
00000704 1d69           1017 	or	r29,r13
00000706 7e6fc003       1018 	st.h	r13,960[ep]
0000070a a50d*          1019 	br	.L51
                        1020 .L52:
                        1021 --200:                 }
                        1022 --201:                 else
                        1023 --202:                 {
                        1024 --203:                     CLR_BIT(PORT_ISO.P16.UINT16, pin); /* =0 LOW LEVEL OUTPUT*/
                        1025 --line203
                        1026 ..lin.D.3A.5CRenesas_Electronics.5CD1x_RGL.5Crgl_ghs_D1Lx_obj_V1.2E2.2E0.5Cvlib.5Capp.5Cgfx_apps.5Csimple_draw_d1l2.5Ctarget.5Cd1lx_mango_ghs.5Cobj.5Cdio.35::

                                                                      Page 18
                                                              C:\Users\YINGAO~1\AppData\Local\Temp\gh_00005601.si
                        1027 .LDWlin35:
0000070c 016a           1028 	mov	1,r13
0000070e e16fc268       1029 	shl	r1,r13,r13
00000712 2de8           1030 	not	r13,r29
00000714 fe6fc103       1031 	ld.hu	960[ep],r13
00000718 5d69           1032 	and	r29,r13
0000071a 7e6fc003       1033 	st.h	r13,960[ep]
                        1034 .L51:
0000071e 8007a605*      1035 	br	.L4
                        1036 .L55:
                        1037 --204:                 }
                        1038 --205:             }
                        1039 --206:             break;
                        1040 --207:         case PORT_DIO_P17: /* P17_0~11 */
                        1041 --208:             if (DIR_DIO_INPUT == direction)
                        1042 --line208
                        1043 ..lin.D.3A.5CRenesas_Electronics.5CD1x_RGL.5Crgl_ghs_D1Lx_obj_V1.2E2.2E0.5Cvlib.5Capp.5Cgfx_apps.5Csimple_draw_d1l2.5Ctarget.5Cd1lx_mango_ghs.5Cobj.5Cdio.36::
                        1044 .LDWlin36:
00000722 6172           1045 	cmp	1,r14
00000724 fa25*          1046 	bne	.L56
                        1047 --209:             {
                        1048 --210:                 CLR_BIT(PORT_ISO.PMC17.UINT16, pin);/* =0 PORT MODE */
                        1049 --line210
                        1050 ..lin.D.3A.5CRenesas_Electronics.5CD1x_RGL.5Crgl_ghs_D1Lx_obj_V1.2E2.2E0.5Cvlib.5Capp.5Cgfx_apps.5Csimple_draw_d1l2.5Ctarget.5Cd1lx_mango_ghs.5Cobj.5Cdio.37::
                        1051 .LDWlin37:
00000726 016a           1052 	mov	1,r13
00000728 e16fc268       1053 	shl	r1,r13,r13
0000072c 2de8           1054 	not	r13,r29
0000072e fe6f1504       1055 	ld.hu	1044[ep],r13
00000732 5d69           1056 	and	r29,r13
00000734 7e6f1404       1057 	st.h	r13,1044[ep]
                        1058 --211:                 SET_BIT(PORT_ISO.PM17.UINT16, pin); /* =1 INTPUT MODE */
00000738 016a           1059 	mov	1,r13
0000073a e16fc2e8       1060 	shl	r1,r13,r29
0000073e fe6f1104       1061 	ld.hu	1040[ep],r13
00000742 1d69           1062 	or	r29,r13
00000744 7e6f1004       1063 	st.h	r13,1040[ep]
                        1064 --212:                 SET_BIT(PORT_ISO.PIBC17.UINT16, pin); /* =1 Enable input buffer. */
00000748 016a           1065 	mov	1,r13
0000074a e16fc2e8       1066 	shl	r1,r13,r29
0000074e ff4760f9       1067 	pushsp	lp-lp
00000752 5efe6000       1068 	movhi	hi(6308864),ep,lp
00000756 3ffe0044       1069 	movea	lo(6308864),lp,lp
0000075a ff6f0100       1070 	ld.hu	0[lp],r13
0000075e ff6760f9       1071 	popsp	lp-lp
00000762 1d69           1072 	or	r29,r13
00000764 5eee6000       1073 	movhi	hi(6308864),ep,r29
00000768 3dee0044       1074 	movea	lo(6308864),r29,r29
0000076c 7d6f0000       1075 	st.h	r13,0[r29]
00000770 f54d*          1076 	br	.L58
                        1077 .L56:
                        1078 --213:             }
                        1079 --214:             else
                        1080 --215:             {
                        1081 --216:                 CLR_BIT(PORT_ISO.PMC17.UINT16, pin);/* =0 PORT MODE */
                        1082 --line216
                        1083 ..lin.D.3A.5CRenesas_Electronics.5CD1x_RGL.5Crgl_ghs_D1Lx_obj_V1.2E2.2E0.5Cvlib.5Capp.5Cgfx_apps.5Csimple_draw_d1l2.5Ctarget.5Cd1lx_mango_ghs.5Cobj.5Cdio.38::
                        1084 .LDWlin38:
00000772 016a           1085 	mov	1,r13
00000774 e16fc268       1086 	shl	r1,r13,r13
00000778 2de8           1087 	not	r13,r29

                                                                      Page 19
                                                              C:\Users\YINGAO~1\AppData\Local\Temp\gh_00005601.si
0000077a fe6f1504       1088 	ld.hu	1044[ep],r13
0000077e 5d69           1089 	and	r29,r13
00000780 7e6f1404       1090 	st.h	r13,1044[ep]
                        1091 --217:                 CLR_BIT(PORT_ISO.PM17.UINT16, pin); /* =0 OUTPUT MODE */
00000784 016a           1092 	mov	1,r13
00000786 e16fc268       1093 	shl	r1,r13,r13
0000078a 2de8           1094 	not	r13,r29
0000078c fe6f1104       1095 	ld.hu	1040[ep],r13
00000790 5d69           1096 	and	r29,r13
00000792 7e6f1004       1097 	st.h	r13,1040[ep]
                        1098 --218:                 /* for loopback */
                        1099 --219:                 SET_BIT(PORT_ISO.PIBC17.UINT16, pin); /* =1 Enable input buffer. */
00000796 016a           1100 	mov	1,r13
00000798 e16fc2e8       1101 	shl	r1,r13,r29
0000079c ff4760f9       1102 	pushsp	lp-lp
000007a0 5efe6000       1103 	movhi	hi(6308864),ep,lp
000007a4 3ffe0044       1104 	movea	lo(6308864),lp,lp
000007a8 ff6f0100       1105 	ld.hu	0[lp],r13
000007ac ff6760f9       1106 	popsp	lp-lp
000007b0 1d69           1107 	or	r29,r13
000007b2 5eee6000       1108 	movhi	hi(6308864),ep,r29
000007b6 3dee0044       1109 	movea	lo(6308864),r29,r29
000007ba 7d6f0000       1110 	st.h	r13,0[r29]
                        1111 --220:                 SET_BIT(PORT_ISO.PBDC17.UINT16, pin); /* =1 Enable Bi-direction mode. */
000007be 016a           1112 	mov	1,r13
000007c0 e16fc2e8       1113 	shl	r1,r13,r29
000007c4 ff4760f9       1114 	pushsp	lp-lp
000007c8 5efe6000       1115 	movhi	hi(6308868),ep,lp
000007cc 3ffe0444       1116 	movea	lo(6308868),lp,lp
000007d0 ff6f0100       1117 	ld.hu	0[lp],r13
000007d4 ff6760f9       1118 	popsp	lp-lp
000007d8 1d69           1119 	or	r29,r13
000007da 5eee6000       1120 	movhi	hi(6308868),ep,r29
000007de 3dee0444       1121 	movea	lo(6308868),r29,r29
000007e2 7d6f0000       1122 	st.h	r13,0[r29]
                        1123 --221:                 if (initval)
000007e6 e061           1124 	cmp	zero,r12
000007e8 a20d*          1125 	be	.L59
                        1126 --222:                 {
                        1127 --223:                     SET_BIT(PORT_ISO.P17.UINT16, pin); /* =1 HIGH LEVEL OUTPUT */
                        1128 --line223
                        1129 ..lin.D.3A.5CRenesas_Electronics.5CD1x_RGL.5Crgl_ghs_D1Lx_obj_V1.2E2.2E0.5Cvlib.5Capp.5Cgfx_apps.5Csimple_draw_d1l2.5Ctarget.5Cd1lx_mango_ghs.5Cobj.5Cdio.39::
                        1130 .LDWlin39:
000007ea 016a           1131 	mov	1,r13
000007ec e16fc2e8       1132 	shl	r1,r13,r29
000007f0 fe6f0104       1133 	ld.hu	1024[ep],r13
000007f4 1d69           1134 	or	r29,r13
000007f6 7e6f0004       1135 	st.h	r13,1024[ep]
000007fa a50d*          1136 	br	.L58
                        1137 .L59:
                        1138 --224:                 }
                        1139 --225:                 else
                        1140 --226:                 {
                        1141 --227:                     CLR_BIT(PORT_ISO.P17.UINT16, pin); /* =0 LOW LEVEL OUTPUT*/
                        1142 --line227
                        1143 ..lin.D.3A.5CRenesas_Electronics.5CD1x_RGL.5Crgl_ghs_D1Lx_obj_V1.2E2.2E0.5Cvlib.5Capp.5Cgfx_apps.5Csimple_draw_d1l2.5Ctarget.5Cd1lx_mango_ghs.5Cobj.5Cdio.40::
                        1144 .LDWlin40:
000007fc 016a           1145 	mov	1,r13
000007fe e16fc268       1146 	shl	r1,r13,r13
00000802 2de8           1147 	not	r13,r29
00000804 fe6f0104       1148 	ld.hu	1024[ep],r13

                                                                      Page 20
                                                              C:\Users\YINGAO~1\AppData\Local\Temp\gh_00005601.si
00000808 5d69           1149 	and	r29,r13
0000080a 7e6f0004       1150 	st.h	r13,1024[ep]
                        1151 .L58:
0000080e 8007b604*      1152 	br	.L4
                        1153 .L62:
                        1154 --228:                 }
                        1155 --229:             }
                        1156 --230:             break;
                        1157 --231:         case PORT_DIO_P21: /* P21_0~5 */
                        1158 --232:             if (DIR_DIO_INPUT == direction)
                        1159 --line232
                        1160 ..lin.D.3A.5CRenesas_Electronics.5CD1x_RGL.5Crgl_ghs_D1Lx_obj_V1.2E2.2E0.5Cvlib.5Capp.5Cgfx_apps.5Csimple_draw_d1l2.5Ctarget.5Cd1lx_mango_ghs.5Cobj.5Cdio.41::
                        1161 .LDWlin41:
00000812 6172           1162 	cmp	1,r14
00000814 fa25*          1163 	bne	.L63
                        1164 --233:             {
                        1165 --234:                 CLR_BIT(PORT_ISO.PMC21.UINT16, pin);/* =0 PORT MODE */
                        1166 --line234
                        1167 ..lin.D.3A.5CRenesas_Electronics.5CD1x_RGL.5Crgl_ghs_D1Lx_obj_V1.2E2.2E0.5Cvlib.5Capp.5Cgfx_apps.5Csimple_draw_d1l2.5Ctarget.5Cd1lx_mango_ghs.5Cobj.5Cdio.42::
                        1168 .LDWlin42:
00000816 016a           1169 	mov	1,r13
00000818 e16fc268       1170 	shl	r1,r13,r13
0000081c 2de8           1171 	not	r13,r29
0000081e fe6f1505       1172 	ld.hu	1300[ep],r13
00000822 5d69           1173 	and	r29,r13
00000824 7e6f1405       1174 	st.h	r13,1300[ep]
                        1175 --235:                 SET_BIT(PORT_ISO.PM21.UINT16, pin); /* =1 INTPUT MODE */
00000828 016a           1176 	mov	1,r13
0000082a e16fc2e8       1177 	shl	r1,r13,r29
0000082e fe6f1105       1178 	ld.hu	1296[ep],r13
00000832 1d69           1179 	or	r29,r13
00000834 7e6f1005       1180 	st.h	r13,1296[ep]
                        1181 --236:                 SET_BIT(PORT_ISO.PIBC21.UINT16, pin); /* =1 Enable input buffer. */
00000838 016a           1182 	mov	1,r13
0000083a e16fc2e8       1183 	shl	r1,r13,r29
0000083e ff4760f9       1184 	pushsp	lp-lp
00000842 5efe6000       1185 	movhi	hi(6309120),ep,lp
00000846 3ffe0045       1186 	movea	lo(6309120),lp,lp
0000084a ff6f0100       1187 	ld.hu	0[lp],r13
0000084e ff6760f9       1188 	popsp	lp-lp
00000852 1d69           1189 	or	r29,r13
00000854 5eee6000       1190 	movhi	hi(6309120),ep,r29
00000858 3dee0045       1191 	movea	lo(6309120),r29,r29
0000085c 7d6f0000       1192 	st.h	r13,0[r29]
00000860 f54d*          1193 	br	.L65
                        1194 .L63:
                        1195 --237:             }
                        1196 --238:             else
                        1197 --239:             {
                        1198 --240:                 CLR_BIT(PORT_ISO.PMC21.UINT16, pin);/* =0 PORT MODE */
                        1199 --line240
                        1200 ..lin.D.3A.5CRenesas_Electronics.5CD1x_RGL.5Crgl_ghs_D1Lx_obj_V1.2E2.2E0.5Cvlib.5Capp.5Cgfx_apps.5Csimple_draw_d1l2.5Ctarget.5Cd1lx_mango_ghs.5Cobj.5Cdio.43::
                        1201 .LDWlin43:
00000862 016a           1202 	mov	1,r13
00000864 e16fc268       1203 	shl	r1,r13,r13
00000868 2de8           1204 	not	r13,r29
0000086a fe6f1505       1205 	ld.hu	1300[ep],r13
0000086e 5d69           1206 	and	r29,r13
00000870 7e6f1405       1207 	st.h	r13,1300[ep]
                        1208 --241:                 CLR_BIT(PORT_ISO.PM21.UINT16, pin); /* =0 OUTPUT MODE */
00000874 016a           1209 	mov	1,r13

                                                                      Page 21
                                                              C:\Users\YINGAO~1\AppData\Local\Temp\gh_00005601.si
00000876 e16fc268       1210 	shl	r1,r13,r13
0000087a 2de8           1211 	not	r13,r29
0000087c fe6f1105       1212 	ld.hu	1296[ep],r13
00000880 5d69           1213 	and	r29,r13
00000882 7e6f1005       1214 	st.h	r13,1296[ep]
                        1215 --242:                 /* for loopback */
                        1216 --243:                 SET_BIT(PORT_ISO.PIBC21.UINT16, pin); /* =1 Enable input buffer. */
00000886 016a           1217 	mov	1,r13
00000888 e16fc2e8       1218 	shl	r1,r13,r29
0000088c ff4760f9       1219 	pushsp	lp-lp
00000890 5efe6000       1220 	movhi	hi(6309120),ep,lp
00000894 3ffe0045       1221 	movea	lo(6309120),lp,lp
00000898 ff6f0100       1222 	ld.hu	0[lp],r13
0000089c ff6760f9       1223 	popsp	lp-lp
000008a0 1d69           1224 	or	r29,r13
000008a2 5eee6000       1225 	movhi	hi(6309120),ep,r29
000008a6 3dee0045       1226 	movea	lo(6309120),r29,r29
000008aa 7d6f0000       1227 	st.h	r13,0[r29]
                        1228 --244:                 SET_BIT(PORT_ISO.PBDC21.UINT16, pin); /* =1 Enable Bi-direction mode. */
000008ae 016a           1229 	mov	1,r13
000008b0 e16fc2e8       1230 	shl	r1,r13,r29
000008b4 ff4760f9       1231 	pushsp	lp-lp
000008b8 5efe6000       1232 	movhi	hi(6309124),ep,lp
000008bc 3ffe0445       1233 	movea	lo(6309124),lp,lp
000008c0 ff6f0100       1234 	ld.hu	0[lp],r13
000008c4 ff6760f9       1235 	popsp	lp-lp
000008c8 1d69           1236 	or	r29,r13
000008ca 5eee6000       1237 	movhi	hi(6309124),ep,r29
000008ce 3dee0445       1238 	movea	lo(6309124),r29,r29
000008d2 7d6f0000       1239 	st.h	r13,0[r29]
                        1240 --245:                 if (initval)
000008d6 e061           1241 	cmp	zero,r12
000008d8 a20d*          1242 	be	.L66
                        1243 --246:                 {
                        1244 --247:                     SET_BIT(PORT_ISO.P21.UINT16, pin); /* =1 HIGH LEVEL OUTPUT */
                        1245 --line247
                        1246 ..lin.D.3A.5CRenesas_Electronics.5CD1x_RGL.5Crgl_ghs_D1Lx_obj_V1.2E2.2E0.5Cvlib.5Capp.5Cgfx_apps.5Csimple_draw_d1l2.5Ctarget.5Cd1lx_mango_ghs.5Cobj.5Cdio.44::
                        1247 .LDWlin44:
000008da 016a           1248 	mov	1,r13
000008dc e16fc2e8       1249 	shl	r1,r13,r29
000008e0 fe6f0105       1250 	ld.hu	1280[ep],r13
000008e4 1d69           1251 	or	r29,r13
000008e6 7e6f0005       1252 	st.h	r13,1280[ep]
000008ea a50d*          1253 	br	.L65
                        1254 .L66:
                        1255 --248:                 }
                        1256 --249:                 else
                        1257 --250:                 {
                        1258 --251:                     CLR_BIT(PORT_ISO.P21.UINT16, pin); /* =0 LOW LEVEL OUTPUT*/
                        1259 --line251
                        1260 ..lin.D.3A.5CRenesas_Electronics.5CD1x_RGL.5Crgl_ghs_D1Lx_obj_V1.2E2.2E0.5Cvlib.5Capp.5Cgfx_apps.5Csimple_draw_d1l2.5Ctarget.5Cd1lx_mango_ghs.5Cobj.5Cdio.45::
                        1261 .LDWlin45:
000008ec 016a           1262 	mov	1,r13
000008ee e16fc268       1263 	shl	r1,r13,r13
000008f2 2de8           1264 	not	r13,r29
000008f4 fe6f0105       1265 	ld.hu	1280[ep],r13
000008f8 5d69           1266 	and	r29,r13
000008fa 7e6f0005       1267 	st.h	r13,1280[ep]
                        1268 .L65:
000008fe 8007c603*      1269 	br	.L4
                        1270 .L69:

                                                                      Page 22
                                                              C:\Users\YINGAO~1\AppData\Local\Temp\gh_00005601.si
                        1271 --252:                 }
                        1272 --253:             }
                        1273 --254:             break;
                        1274 --255:         case PORT_DIO_P42: /* P42_7~10 */
                        1275 --256:             if (DIR_DIO_INPUT == direction)
                        1276 --line256
                        1277 ..lin.D.3A.5CRenesas_Electronics.5CD1x_RGL.5Crgl_ghs_D1Lx_obj_V1.2E2.2E0.5Cvlib.5Capp.5Cgfx_apps.5Csimple_draw_d1l2.5Ctarget.5Cd1lx_mango_ghs.5Cobj.5Cdio.46::
                        1278 .LDWlin46:
00000902 6172           1279 	cmp	1,r14
00000904 fa25*          1280 	bne	.L70
                        1281 --257:             {
                        1282 --258:                 CLR_BIT(PORT_ISO.PMC42.UINT16, pin);/* =0 PORT MODE */
                        1283 --line258
                        1284 ..lin.D.3A.5CRenesas_Electronics.5CD1x_RGL.5Crgl_ghs_D1Lx_obj_V1.2E2.2E0.5Cvlib.5Capp.5Cgfx_apps.5Csimple_draw_d1l2.5Ctarget.5Cd1lx_mango_ghs.5Cobj.5Cdio.47::
                        1285 .LDWlin47:
00000906 016a           1286 	mov	1,r13
00000908 e16fc268       1287 	shl	r1,r13,r13
0000090c 2de8           1288 	not	r13,r29
0000090e fe6f550a       1289 	ld.hu	2644[ep],r13
00000912 5d69           1290 	and	r29,r13
00000914 7e6f540a       1291 	st.h	r13,2644[ep]
                        1292 --259:                 SET_BIT(PORT_ISO.PM42.UINT16, pin); /* =1 INTPUT MODE */
00000918 016a           1293 	mov	1,r13
0000091a e16fc2e8       1294 	shl	r1,r13,r29
0000091e fe6f510a       1295 	ld.hu	2640[ep],r13
00000922 1d69           1296 	or	r29,r13
00000924 7e6f500a       1297 	st.h	r13,2640[ep]
                        1298 --260:                 SET_BIT(PORT_ISO.PIBC42.UINT16, pin); /* =1 Enable input buffer. */
00000928 016a           1299 	mov	1,r13
0000092a e16fc2e8       1300 	shl	r1,r13,r29
0000092e ff4760f9       1301 	pushsp	lp-lp
00000932 5efe6000       1302 	movhi	hi(6310464),ep,lp
00000936 3ffe404a       1303 	movea	lo(6310464),lp,lp
0000093a ff6f0100       1304 	ld.hu	0[lp],r13
0000093e ff6760f9       1305 	popsp	lp-lp
00000942 1d69           1306 	or	r29,r13
00000944 5eee6000       1307 	movhi	hi(6310464),ep,r29
00000948 3dee404a       1308 	movea	lo(6310464),r29,r29
0000094c 7d6f0000       1309 	st.h	r13,0[r29]
00000950 f54d*          1310 	br	.L72
                        1311 .L70:
                        1312 --261:             }
                        1313 --262:             else
                        1314 --263:             {
                        1315 --264:                 CLR_BIT(PORT_ISO.PMC42.UINT16, pin);/* =0 PORT MODE */
                        1316 --line264
                        1317 ..lin.D.3A.5CRenesas_Electronics.5CD1x_RGL.5Crgl_ghs_D1Lx_obj_V1.2E2.2E0.5Cvlib.5Capp.5Cgfx_apps.5Csimple_draw_d1l2.5Ctarget.5Cd1lx_mango_ghs.5Cobj.5Cdio.48::
                        1318 .LDWlin48:
00000952 016a           1319 	mov	1,r13
00000954 e16fc268       1320 	shl	r1,r13,r13
00000958 2de8           1321 	not	r13,r29
0000095a fe6f550a       1322 	ld.hu	2644[ep],r13
0000095e 5d69           1323 	and	r29,r13
00000960 7e6f540a       1324 	st.h	r13,2644[ep]
                        1325 --265:                 CLR_BIT(PORT_ISO.PM42.UINT16, pin); /* =0 OUTPUT MODE */
00000964 016a           1326 	mov	1,r13
00000966 e16fc268       1327 	shl	r1,r13,r13
0000096a 2de8           1328 	not	r13,r29
0000096c fe6f510a       1329 	ld.hu	2640[ep],r13
00000970 5d69           1330 	and	r29,r13
00000972 7e6f500a       1331 	st.h	r13,2640[ep]

                                                                      Page 23
                                                              C:\Users\YINGAO~1\AppData\Local\Temp\gh_00005601.si
                        1332 --266:                 /* for loopback */
                        1333 --267:                 SET_BIT(PORT_ISO.PIBC42.UINT16, pin); /* =1 Enable input buffer. */
00000976 016a           1334 	mov	1,r13
00000978 e16fc2e8       1335 	shl	r1,r13,r29
0000097c ff4760f9       1336 	pushsp	lp-lp
00000980 5efe6000       1337 	movhi	hi(6310464),ep,lp
00000984 3ffe404a       1338 	movea	lo(6310464),lp,lp
00000988 ff6f0100       1339 	ld.hu	0[lp],r13
0000098c ff6760f9       1340 	popsp	lp-lp
00000990 1d69           1341 	or	r29,r13
00000992 5eee6000       1342 	movhi	hi(6310464),ep,r29
00000996 3dee404a       1343 	movea	lo(6310464),r29,r29
0000099a 7d6f0000       1344 	st.h	r13,0[r29]
                        1345 --268:                 SET_BIT(PORT_ISO.PBDC42.UINT16, pin); /* =1 Enable Bi-direction mode. */
0000099e 016a           1346 	mov	1,r13
000009a0 e16fc2e8       1347 	shl	r1,r13,r29
000009a4 ff4760f9       1348 	pushsp	lp-lp
000009a8 5efe6000       1349 	movhi	hi(6310468),ep,lp
000009ac 3ffe444a       1350 	movea	lo(6310468),lp,lp
000009b0 ff6f0100       1351 	ld.hu	0[lp],r13
000009b4 ff6760f9       1352 	popsp	lp-lp
000009b8 1d69           1353 	or	r29,r13
000009ba 5eee6000       1354 	movhi	hi(6310468),ep,r29
000009be 3dee444a       1355 	movea	lo(6310468),r29,r29
000009c2 7d6f0000       1356 	st.h	r13,0[r29]
                        1357 --269:                 if (initval)
000009c6 e061           1358 	cmp	zero,r12
000009c8 a20d*          1359 	be	.L73
                        1360 --270:                 {
                        1361 --271:                     SET_BIT(PORT_ISO.P42.UINT16, pin); /* =1 HIGH LEVEL OUTPUT */
                        1362 --line271
                        1363 ..lin.D.3A.5CRenesas_Electronics.5CD1x_RGL.5Crgl_ghs_D1Lx_obj_V1.2E2.2E0.5Cvlib.5Capp.5Cgfx_apps.5Csimple_draw_d1l2.5Ctarget.5Cd1lx_mango_ghs.5Cobj.5Cdio.49::
                        1364 .LDWlin49:
000009ca 016a           1365 	mov	1,r13
000009cc e16fc2e8       1366 	shl	r1,r13,r29
000009d0 fe6f410a       1367 	ld.hu	2624[ep],r13
000009d4 1d69           1368 	or	r29,r13
000009d6 7e6f400a       1369 	st.h	r13,2624[ep]
000009da a50d*          1370 	br	.L72
                        1371 .L73:
                        1372 --272:                 }
                        1373 --273:                 else
                        1374 --274:                 {
                        1375 --275:                     CLR_BIT(PORT_ISO.P42.UINT16, pin); /* =0 LOW LEVEL OUTPUT*/
                        1376 --line275
                        1377 ..lin.D.3A.5CRenesas_Electronics.5CD1x_RGL.5Crgl_ghs_D1Lx_obj_V1.2E2.2E0.5Cvlib.5Capp.5Cgfx_apps.5Csimple_draw_d1l2.5Ctarget.5Cd1lx_mango_ghs.5Cobj.5Cdio.50::
                        1378 .LDWlin50:
000009dc 016a           1379 	mov	1,r13
000009de e16fc268       1380 	shl	r1,r13,r13
000009e2 2de8           1381 	not	r13,r29
000009e4 fe6f410a       1382 	ld.hu	2624[ep],r13
000009e8 5d69           1383 	and	r29,r13
000009ea 7e6f400a       1384 	st.h	r13,2624[ep]
                        1385 .L72:
000009ee 8007d602*      1386 	br	.L4
                        1387 .L76:
                        1388 --276:                 }
                        1389 --277:             }
                        1390 --278:             break;
                        1391 --279:         case PORT_DIO_P43: /* P43_0~1 */
                        1392 --280:             if (DIR_DIO_INPUT == direction)

                                                                      Page 24
                                                              C:\Users\YINGAO~1\AppData\Local\Temp\gh_00005601.si
                        1393 --line280
                        1394 ..lin.D.3A.5CRenesas_Electronics.5CD1x_RGL.5Crgl_ghs_D1Lx_obj_V1.2E2.2E0.5Cvlib.5Capp.5Cgfx_apps.5Csimple_draw_d1l2.5Ctarget.5Cd1lx_mango_ghs.5Cobj.5Cdio.51::
                        1395 .LDWlin51:
000009f2 6172           1396 	cmp	1,r14
000009f4 fa25*          1397 	bne	.L77
                        1398 --281:             {
                        1399 --282:                 CLR_BIT(PORT_ISO.PMC43.UINT16, pin);/* =0 PORT MODE */
                        1400 --line282
                        1401 ..lin.D.3A.5CRenesas_Electronics.5CD1x_RGL.5Crgl_ghs_D1Lx_obj_V1.2E2.2E0.5Cvlib.5Capp.5Cgfx_apps.5Csimple_draw_d1l2.5Ctarget.5Cd1lx_mango_ghs.5Cobj.5Cdio.52::
                        1402 .LDWlin52:
000009f6 016a           1403 	mov	1,r13
000009f8 e16fc268       1404 	shl	r1,r13,r13
000009fc 2de8           1405 	not	r13,r29
000009fe fe6f950a       1406 	ld.hu	2708[ep],r13
00000a02 5d69           1407 	and	r29,r13
00000a04 7e6f940a       1408 	st.h	r13,2708[ep]
                        1409 --283:                 SET_BIT(PORT_ISO.PM43.UINT16, pin); /* =1 INTPUT MODE */
00000a08 016a           1410 	mov	1,r13
00000a0a e16fc2e8       1411 	shl	r1,r13,r29
00000a0e fe6f910a       1412 	ld.hu	2704[ep],r13
00000a12 1d69           1413 	or	r29,r13
00000a14 7e6f900a       1414 	st.h	r13,2704[ep]
                        1415 --284:                 SET_BIT(PORT_ISO.PIBC43.UINT16, pin); /* =1 Enable input buffer. */
00000a18 016a           1416 	mov	1,r13
00000a1a e16fc2e8       1417 	shl	r1,r13,r29
00000a1e ff4760f9       1418 	pushsp	lp-lp
00000a22 5efe6000       1419 	movhi	hi(6310528),ep,lp
00000a26 3ffe804a       1420 	movea	lo(6310528),lp,lp
00000a2a ff6f0100       1421 	ld.hu	0[lp],r13
00000a2e ff6760f9       1422 	popsp	lp-lp
00000a32 1d69           1423 	or	r29,r13
00000a34 5eee6000       1424 	movhi	hi(6310528),ep,r29
00000a38 3dee804a       1425 	movea	lo(6310528),r29,r29
00000a3c 7d6f0000       1426 	st.h	r13,0[r29]
00000a40 f54d*          1427 	br	.L79
                        1428 .L77:
                        1429 --285:             }
                        1430 --286:             else
                        1431 --287:             {
                        1432 --288:                 CLR_BIT(PORT_ISO.PMC43.UINT16, pin);/* =0 PORT MODE */
                        1433 --line288
                        1434 ..lin.D.3A.5CRenesas_Electronics.5CD1x_RGL.5Crgl_ghs_D1Lx_obj_V1.2E2.2E0.5Cvlib.5Capp.5Cgfx_apps.5Csimple_draw_d1l2.5Ctarget.5Cd1lx_mango_ghs.5Cobj.5Cdio.53::
                        1435 .LDWlin53:
00000a42 016a           1436 	mov	1,r13
00000a44 e16fc268       1437 	shl	r1,r13,r13
00000a48 2de8           1438 	not	r13,r29
00000a4a fe6f950a       1439 	ld.hu	2708[ep],r13
00000a4e 5d69           1440 	and	r29,r13
00000a50 7e6f940a       1441 	st.h	r13,2708[ep]
                        1442 --289:                 CLR_BIT(PORT_ISO.PM43.UINT16, pin); /* =0 OUTPUT MODE */
00000a54 016a           1443 	mov	1,r13
00000a56 e16fc268       1444 	shl	r1,r13,r13
00000a5a 2de8           1445 	not	r13,r29
00000a5c fe6f910a       1446 	ld.hu	2704[ep],r13
00000a60 5d69           1447 	and	r29,r13
00000a62 7e6f900a       1448 	st.h	r13,2704[ep]
                        1449 --290:                 /* for loopback */
                        1450 --291:                 SET_BIT(PORT_ISO.PIBC43.UINT16, pin); /* =1 Enable input buffer. */
00000a66 016a           1451 	mov	1,r13
00000a68 e16fc2e8       1452 	shl	r1,r13,r29
00000a6c ff4760f9       1453 	pushsp	lp-lp

                                                                      Page 25
                                                              C:\Users\YINGAO~1\AppData\Local\Temp\gh_00005601.si
00000a70 5efe6000       1454 	movhi	hi(6310528),ep,lp
00000a74 3ffe804a       1455 	movea	lo(6310528),lp,lp
00000a78 ff6f0100       1456 	ld.hu	0[lp],r13
00000a7c ff6760f9       1457 	popsp	lp-lp
00000a80 1d69           1458 	or	r29,r13
00000a82 5eee6000       1459 	movhi	hi(6310528),ep,r29
00000a86 3dee804a       1460 	movea	lo(6310528),r29,r29
00000a8a 7d6f0000       1461 	st.h	r13,0[r29]
                        1462 --292:                 SET_BIT(PORT_ISO.PBDC43.UINT16, pin); /* =1 Enable Bi-direction mode. */
00000a8e 016a           1463 	mov	1,r13
00000a90 e16fc2e8       1464 	shl	r1,r13,r29
00000a94 ff4760f9       1465 	pushsp	lp-lp
00000a98 5efe6000       1466 	movhi	hi(6310532),ep,lp
00000a9c 3ffe844a       1467 	movea	lo(6310532),lp,lp
00000aa0 ff6f0100       1468 	ld.hu	0[lp],r13
00000aa4 ff6760f9       1469 	popsp	lp-lp
00000aa8 1d69           1470 	or	r29,r13
00000aaa 5eee6000       1471 	movhi	hi(6310532),ep,r29
00000aae 3dee844a       1472 	movea	lo(6310532),r29,r29
00000ab2 7d6f0000       1473 	st.h	r13,0[r29]
                        1474 --293:                 if (initval)
00000ab6 e061           1475 	cmp	zero,r12
00000ab8 a20d*          1476 	be	.L80
                        1477 --294:                 {
                        1478 --295:                     SET_BIT(PORT_ISO.P43.UINT16, pin); /* =1 HIGH LEVEL OUTPUT */
                        1479 --line295
                        1480 ..lin.D.3A.5CRenesas_Electronics.5CD1x_RGL.5Crgl_ghs_D1Lx_obj_V1.2E2.2E0.5Cvlib.5Capp.5Cgfx_apps.5Csimple_draw_d1l2.5Ctarget.5Cd1lx_mango_ghs.5Cobj.5Cdio.54::
                        1481 .LDWlin54:
00000aba 016a           1482 	mov	1,r13
00000abc e16fc2e8       1483 	shl	r1,r13,r29
00000ac0 fe6f810a       1484 	ld.hu	2688[ep],r13
00000ac4 1d69           1485 	or	r29,r13
00000ac6 7e6f800a       1486 	st.h	r13,2688[ep]
00000aca a50d*          1487 	br	.L79
                        1488 .L80:
                        1489 --296:                 }
                        1490 --297:                 else
                        1491 --298:                 {
                        1492 --299:                     CLR_BIT(PORT_ISO.P43.UINT16, pin); /* =0 LOW LEVEL OUTPUT*/
                        1493 --line299
                        1494 ..lin.D.3A.5CRenesas_Electronics.5CD1x_RGL.5Crgl_ghs_D1Lx_obj_V1.2E2.2E0.5Cvlib.5Capp.5Cgfx_apps.5Csimple_draw_d1l2.5Ctarget.5Cd1lx_mango_ghs.5Cobj.5Cdio.55::
                        1495 .LDWlin55:
00000acc 016a           1496 	mov	1,r13
00000ace e16fc268       1497 	shl	r1,r13,r13
00000ad2 2de8           1498 	not	r13,r29
00000ad4 fe6f810a       1499 	ld.hu	2688[ep],r13
00000ad8 5d69           1500 	and	r29,r13
00000ada 7e6f800a       1501 	st.h	r13,2688[ep]
                        1502 .L79:
00000ade 8007e601*      1503 	br	.L4
                        1504 .L83:
                        1505 --300:                 }
                        1506 --301:             }
                        1507 --302:             break;
                        1508 --303:         case PORT_DIO_P44: /* P44_1~11 */
                        1509 --304:             if (DIR_DIO_INPUT == direction)
                        1510 --line304
                        1511 ..lin.D.3A.5CRenesas_Electronics.5CD1x_RGL.5Crgl_ghs_D1Lx_obj_V1.2E2.2E0.5Cvlib.5Capp.5Cgfx_apps.5Csimple_draw_d1l2.5Ctarget.5Cd1lx_mango_ghs.5Cobj.5Cdio.56::
                        1512 .LDWlin56:
00000ae2 6172           1513 	cmp	1,r14
00000ae4 fa25*          1514 	bne	.L84

                                                                      Page 26
                                                              C:\Users\YINGAO~1\AppData\Local\Temp\gh_00005601.si
                        1515 --305:             {
                        1516 --306:                 CLR_BIT(PORT_ISO.PMC44.UINT16, pin);/* =0 PORT MODE */
                        1517 --line306
                        1518 ..lin.D.3A.5CRenesas_Electronics.5CD1x_RGL.5Crgl_ghs_D1Lx_obj_V1.2E2.2E0.5Cvlib.5Capp.5Cgfx_apps.5Csimple_draw_d1l2.5Ctarget.5Cd1lx_mango_ghs.5Cobj.5Cdio.57::
                        1519 .LDWlin57:
00000ae6 016a           1520 	mov	1,r13
00000ae8 e16fc268       1521 	shl	r1,r13,r13
00000aec 2de8           1522 	not	r13,r29
00000aee fe6fd50a       1523 	ld.hu	2772[ep],r13
00000af2 5d69           1524 	and	r29,r13
00000af4 7e6fd40a       1525 	st.h	r13,2772[ep]
                        1526 --307:                 SET_BIT(PORT_ISO.PM44.UINT16, pin); /* =1 INTPUT MODE */
00000af8 016a           1527 	mov	1,r13
00000afa e16fc2e8       1528 	shl	r1,r13,r29
00000afe fe6fd10a       1529 	ld.hu	2768[ep],r13
00000b02 1d69           1530 	or	r29,r13
00000b04 7e6fd00a       1531 	st.h	r13,2768[ep]
                        1532 --308:                 SET_BIT(PORT_ISO.PIBC44.UINT16, pin); /* =1 Enable input buffer. */
00000b08 016a           1533 	mov	1,r13
00000b0a e16fc2e8       1534 	shl	r1,r13,r29
00000b0e ff4760f9       1535 	pushsp	lp-lp
00000b12 5efe6000       1536 	movhi	hi(6310592),ep,lp
00000b16 3ffec04a       1537 	movea	lo(6310592),lp,lp
00000b1a ff6f0100       1538 	ld.hu	0[lp],r13
00000b1e ff6760f9       1539 	popsp	lp-lp
00000b22 1d69           1540 	or	r29,r13
00000b24 5eee6000       1541 	movhi	hi(6310592),ep,r29
00000b28 3deec04a       1542 	movea	lo(6310592),r29,r29
00000b2c 7d6f0000       1543 	st.h	r13,0[r29]
00000b30 f54d*          1544 	br	.L86
                        1545 .L84:
                        1546 --309:             }
                        1547 --310:             else
                        1548 --311:             {
                        1549 --312:                 CLR_BIT(PORT_ISO.PMC44.UINT16, pin);/* =0 PORT MODE */
                        1550 --line312
                        1551 ..lin.D.3A.5CRenesas_Electronics.5CD1x_RGL.5Crgl_ghs_D1Lx_obj_V1.2E2.2E0.5Cvlib.5Capp.5Cgfx_apps.5Csimple_draw_d1l2.5Ctarget.5Cd1lx_mango_ghs.5Cobj.5Cdio.58::
                        1552 .LDWlin58:
00000b32 016a           1553 	mov	1,r13
00000b34 e16fc268       1554 	shl	r1,r13,r13
00000b38 2de8           1555 	not	r13,r29
00000b3a fe6fd50a       1556 	ld.hu	2772[ep],r13
00000b3e 5d69           1557 	and	r29,r13
00000b40 7e6fd40a       1558 	st.h	r13,2772[ep]
                        1559 --313:                 CLR_BIT(PORT_ISO.PM44.UINT16, pin); /* =0 OUTPUT MODE */
00000b44 016a           1560 	mov	1,r13
00000b46 e16fc268       1561 	shl	r1,r13,r13
00000b4a 2de8           1562 	not	r13,r29
00000b4c fe6fd10a       1563 	ld.hu	2768[ep],r13
00000b50 5d69           1564 	and	r29,r13
00000b52 7e6fd00a       1565 	st.h	r13,2768[ep]
                        1566 --314:                 /* for loopback */
                        1567 --315:                 SET_BIT(PORT_ISO.PIBC44.UINT16, pin); /* =1 Enable input buffer. */
00000b56 016a           1568 	mov	1,r13
00000b58 e16fc2e8       1569 	shl	r1,r13,r29
00000b5c ff4760f9       1570 	pushsp	lp-lp
00000b60 5efe6000       1571 	movhi	hi(6310592),ep,lp
00000b64 3ffec04a       1572 	movea	lo(6310592),lp,lp
00000b68 ff6f0100       1573 	ld.hu	0[lp],r13
00000b6c ff6760f9       1574 	popsp	lp-lp
00000b70 1d69           1575 	or	r29,r13

                                                                      Page 27
                                                              C:\Users\YINGAO~1\AppData\Local\Temp\gh_00005601.si
00000b72 5eee6000       1576 	movhi	hi(6310592),ep,r29
00000b76 3deec04a       1577 	movea	lo(6310592),r29,r29
00000b7a 7d6f0000       1578 	st.h	r13,0[r29]
                        1579 --316:                 SET_BIT(PORT_ISO.PBDC44.UINT16, pin); /* =1 Enable Bi-direction mode. */
00000b7e 016a           1580 	mov	1,r13
00000b80 e16fc2e8       1581 	shl	r1,r13,r29
00000b84 ff4760f9       1582 	pushsp	lp-lp
00000b88 5efe6000       1583 	movhi	hi(6310596),ep,lp
00000b8c 3ffec44a       1584 	movea	lo(6310596),lp,lp
00000b90 ff6f0100       1585 	ld.hu	0[lp],r13
00000b94 ff6760f9       1586 	popsp	lp-lp
00000b98 1d69           1587 	or	r29,r13
00000b9a 5eee6000       1588 	movhi	hi(6310596),ep,r29
00000b9e 3deec44a       1589 	movea	lo(6310596),r29,r29
00000ba2 7d6f0000       1590 	st.h	r13,0[r29]
                        1591 --317:                 if (initval)
00000ba6 e061           1592 	cmp	zero,r12
00000ba8 a20d*          1593 	be	.L87
                        1594 --318:                 {
                        1595 --319:                     SET_BIT(PORT_ISO.P44.UINT16, pin); /* =1 HIGH LEVEL OUTPUT */
                        1596 --line319
                        1597 ..lin.D.3A.5CRenesas_Electronics.5CD1x_RGL.5Crgl_ghs_D1Lx_obj_V1.2E2.2E0.5Cvlib.5Capp.5Cgfx_apps.5Csimple_draw_d1l2.5Ctarget.5Cd1lx_mango_ghs.5Cobj.5Cdio.59::
                        1598 .LDWlin59:
00000baa 016a           1599 	mov	1,r13
00000bac e16fc2e8       1600 	shl	r1,r13,r29
00000bb0 fe6fc10a       1601 	ld.hu	2752[ep],r13
00000bb4 1d69           1602 	or	r29,r13
00000bb6 7e6fc00a       1603 	st.h	r13,2752[ep]
00000bba a50d*          1604 	br	.L86
                        1605 .L87:
                        1606 --320:                 }
                        1607 --321:                 else
                        1608 --322:                 {
                        1609 --323:                     CLR_BIT(PORT_ISO.P44.UINT16, pin); /* =0 LOW LEVEL OUTPUT*/
                        1610 --line323
                        1611 ..lin.D.3A.5CRenesas_Electronics.5CD1x_RGL.5Crgl_ghs_D1Lx_obj_V1.2E2.2E0.5Cvlib.5Capp.5Cgfx_apps.5Csimple_draw_d1l2.5Ctarget.5Cd1lx_mango_ghs.5Cobj.5Cdio.60::
                        1612 .LDWlin60:
00000bbc 016a           1613 	mov	1,r13
00000bbe e16fc268       1614 	shl	r1,r13,r13
00000bc2 2de8           1615 	not	r13,r29
00000bc4 fe6fc10a       1616 	ld.hu	2752[ep],r13
00000bc8 5d69           1617 	and	r29,r13
00000bca 7e6fc00a       1618 	st.h	r13,2752[ep]
                        1619 .L86:
00000bce b57d*          1620 	br	.L4
                        1621 .L90:
                        1622 --324:                 }
                        1623 --325:             }
                        1624 --326:             break;
                        1625 --327:         case PORT_DIO_P45: /* P45_0~13 */
                        1626 --328:             if (DIR_DIO_INPUT == direction)
                        1627 --line328
                        1628 ..lin.D.3A.5CRenesas_Electronics.5CD1x_RGL.5Crgl_ghs_D1Lx_obj_V1.2E2.2E0.5Cvlib.5Capp.5Cgfx_apps.5Csimple_draw_d1l2.5Ctarget.5Cd1lx_mango_ghs.5Cobj.5Cdio.61::
                        1629 .LDWlin61:
00000bd0 6172           1630 	cmp	1,r14
00000bd2 fa25*          1631 	bne	.L91
                        1632 --329:             {
                        1633 --330:                 CLR_BIT(PORT_ISO.PMC45.UINT16, pin);/* =0 PORT MODE */
                        1634 --line330
                        1635 ..lin.D.3A.5CRenesas_Electronics.5CD1x_RGL.5Crgl_ghs_D1Lx_obj_V1.2E2.2E0.5Cvlib.5Capp.5Cgfx_apps.5Csimple_draw_d1l2.5Ctarget.5Cd1lx_mango_ghs.5Cobj.5Cdio.62::
                        1636 .LDWlin62:

                                                                      Page 28
                                                              C:\Users\YINGAO~1\AppData\Local\Temp\gh_00005601.si
00000bd4 016a           1637 	mov	1,r13
00000bd6 e16fc268       1638 	shl	r1,r13,r13
00000bda 2de8           1639 	not	r13,r29
00000bdc fe6f150b       1640 	ld.hu	2836[ep],r13
00000be0 5d69           1641 	and	r29,r13
00000be2 7e6f140b       1642 	st.h	r13,2836[ep]
                        1643 --331:                 SET_BIT(PORT_ISO.PM45.UINT16, pin); /* =1 INTPUT MODE */
00000be6 016a           1644 	mov	1,r13
00000be8 e16fc2e8       1645 	shl	r1,r13,r29
00000bec fe6f110b       1646 	ld.hu	2832[ep],r13
00000bf0 1d69           1647 	or	r29,r13
00000bf2 7e6f100b       1648 	st.h	r13,2832[ep]
                        1649 --332:                 SET_BIT(PORT_ISO.PIBC45.UINT16, pin); /* =1 Enable input buffer. */
00000bf6 016a           1650 	mov	1,r13
00000bf8 e16fc2e8       1651 	shl	r1,r13,r29
00000bfc ff4760f9       1652 	pushsp	lp-lp
00000c00 5efe6000       1653 	movhi	hi(6310656),ep,lp
00000c04 3ffe004b       1654 	movea	lo(6310656),lp,lp
00000c08 ff6f0100       1655 	ld.hu	0[lp],r13
00000c0c ff6760f9       1656 	popsp	lp-lp
00000c10 1d69           1657 	or	r29,r13
00000c12 5eee6000       1658 	movhi	hi(6310656),ep,r29
00000c16 3dee004b       1659 	movea	lo(6310656),r29,r29
00000c1a 7d6f0000       1660 	st.h	r13,0[r29]
00000c1e f54d*          1661 	br	.L93
                        1662 .L91:
                        1663 --333:             }
                        1664 --334:             else
                        1665 --335:             {
                        1666 --336:                 CLR_BIT(PORT_ISO.PMC45.UINT16, pin);/* =0 PORT MODE */
                        1667 --line336
                        1668 ..lin.D.3A.5CRenesas_Electronics.5CD1x_RGL.5Crgl_ghs_D1Lx_obj_V1.2E2.2E0.5Cvlib.5Capp.5Cgfx_apps.5Csimple_draw_d1l2.5Ctarget.5Cd1lx_mango_ghs.5Cobj.5Cdio.63::
                        1669 .LDWlin63:
00000c20 016a           1670 	mov	1,r13
00000c22 e16fc268       1671 	shl	r1,r13,r13
00000c26 2de8           1672 	not	r13,r29
00000c28 fe6f150b       1673 	ld.hu	2836[ep],r13
00000c2c 5d69           1674 	and	r29,r13
00000c2e 7e6f140b       1675 	st.h	r13,2836[ep]
                        1676 --337:                 CLR_BIT(PORT_ISO.PM45.UINT16, pin); /* =0 OUTPUT MODE */
00000c32 016a           1677 	mov	1,r13
00000c34 e16fc268       1678 	shl	r1,r13,r13
00000c38 2de8           1679 	not	r13,r29
00000c3a fe6f110b       1680 	ld.hu	2832[ep],r13
00000c3e 5d69           1681 	and	r29,r13
00000c40 7e6f100b       1682 	st.h	r13,2832[ep]
                        1683 --338:                 /* for loopback */
                        1684 --339:                 SET_BIT(PORT_ISO.PIBC45.UINT16, pin); /* =1 Enable input buffer. */
00000c44 016a           1685 	mov	1,r13
00000c46 e16fc2e8       1686 	shl	r1,r13,r29
00000c4a ff4760f9       1687 	pushsp	lp-lp
00000c4e 5efe6000       1688 	movhi	hi(6310656),ep,lp
00000c52 3ffe004b       1689 	movea	lo(6310656),lp,lp
00000c56 ff6f0100       1690 	ld.hu	0[lp],r13
00000c5a ff6760f9       1691 	popsp	lp-lp
00000c5e 1d69           1692 	or	r29,r13
00000c60 5eee6000       1693 	movhi	hi(6310656),ep,r29
00000c64 3dee004b       1694 	movea	lo(6310656),r29,r29
00000c68 7d6f0000       1695 	st.h	r13,0[r29]
                        1696 --340:                 SET_BIT(PORT_ISO.PBDC45.UINT16, pin); /* =1 Enable Bi-direction mode. */
00000c6c 016a           1697 	mov	1,r13

                                                                      Page 29
                                                              C:\Users\YINGAO~1\AppData\Local\Temp\gh_00005601.si
00000c6e e16fc2e8       1698 	shl	r1,r13,r29
00000c72 ff4760f9       1699 	pushsp	lp-lp
00000c76 5efe6000       1700 	movhi	hi(6310660),ep,lp
00000c7a 3ffe044b       1701 	movea	lo(6310660),lp,lp
00000c7e ff6f0100       1702 	ld.hu	0[lp],r13
00000c82 ff6760f9       1703 	popsp	lp-lp
00000c86 1d69           1704 	or	r29,r13
00000c88 5eee6000       1705 	movhi	hi(6310660),ep,r29
00000c8c 3dee044b       1706 	movea	lo(6310660),r29,r29
00000c90 7d6f0000       1707 	st.h	r13,0[r29]
                        1708 --341:                 if (initval)
00000c94 e061           1709 	cmp	zero,r12
00000c96 a20d*          1710 	be	.L94
                        1711 --342:                 {
                        1712 --343:                     SET_BIT(PORT_ISO.P45.UINT16, pin); /* =1 HIGH LEVEL OUTPUT */
                        1713 --line343
                        1714 ..lin.D.3A.5CRenesas_Electronics.5CD1x_RGL.5Crgl_ghs_D1Lx_obj_V1.2E2.2E0.5Cvlib.5Capp.5Cgfx_apps.5Csimple_draw_d1l2.5Ctarget.5Cd1lx_mango_ghs.5Cobj.5Cdio.64::
                        1715 .LDWlin64:
00000c98 016a           1716 	mov	1,r13
00000c9a e16fc2e8       1717 	shl	r1,r13,r29
00000c9e fe6f010b       1718 	ld.hu	2816[ep],r13
00000ca2 1d69           1719 	or	r29,r13
00000ca4 7e6f000b       1720 	st.h	r13,2816[ep]
00000ca8 a50d*          1721 	br	.L93
                        1722 .L94:
                        1723 --344:                 }
                        1724 --345:                 else
                        1725 --346:                 {
                        1726 --347:                     CLR_BIT(PORT_ISO.P45.UINT16, pin); /* =0 LOW LEVEL OUTPUT*/
                        1727 --line347
                        1728 ..lin.D.3A.5CRenesas_Electronics.5CD1x_RGL.5Crgl_ghs_D1Lx_obj_V1.2E2.2E0.5Cvlib.5Capp.5Cgfx_apps.5Csimple_draw_d1l2.5Ctarget.5Cd1lx_mango_ghs.5Cobj.5Cdio.65::
                        1729 .LDWlin65:
00000caa 016a           1730 	mov	1,r13
00000cac e16fc268       1731 	shl	r1,r13,r13
00000cb0 2de8           1732 	not	r13,r29
00000cb2 fe6f010b       1733 	ld.hu	2816[ep],r13
00000cb6 5d69           1734 	and	r29,r13
00000cb8 7e6f000b       1735 	st.h	r13,2816[ep]
                        1736 .L93:
00000cbc c505*          1737 	br	.L4
                        1738 .L97:
                        1739 --line352
                        1740 ..lin.D.3A.5CRenesas_Electronics.5CD1x_RGL.5Crgl_ghs_D1Lx_obj_V1.2E2.2E0.5Cvlib.5Capp.5Cgfx_apps.5Csimple_draw_d1l2.5Ctarget.5Cd1lx_mango_ghs.5Cobj.5Cdio.66::
                        1741 .LDWlin66:
00000cbe b505*          1742 	br	.L4
                        1743 .L98:
                        1744 --348:                 }
                        1745 --349:             }
                        1746 --350:             break;
                        1747 --351:         case PORT_DIO_ALL: /* Do Nothing. */
                        1748 --352:             break;
                        1749 --353:         default:
                        1750 --354:             ret = FALSE;
                        1751 --line354
                        1752 ..lin.D.3A.5CRenesas_Electronics.5CD1x_RGL.5Crgl_ghs_D1Lx_obj_V1.2E2.2E0.5Cvlib.5Capp.5Cgfx_apps.5Csimple_draw_d1l2.5Ctarget.5Cd1lx_mango_ghs.5Cobj.5Cdio.67::
                        1753 .LDWlin67:
00000cc0 005a           1754 	mov	0,r11
00000cc2 0000           1755 	nop
                        1756 .L4:
                        1757 --355:             break;
                        1758 --356:     }

                                                                      Page 30
                                                              C:\Users\YINGAO~1\AppData\Local\Temp\gh_00005601.si
                        1759 --358:     return ret;
00000cc4 0b68           1760 	mov	r11,r13
                        1761 --	    .ef
                        1762 .LDW11:
00000cc6 0d50           1763 	mov	r13,r10
00000cc8 4006df00       1764 	dispose	0,{r28,r29},[lp]
                        1765 	.type	_dio_GPIO_Init,@function
                        1766 	.size	_dio_GPIO_Init,.-_dio_GPIO_Init
                        1767 	.type	_dio_GPIO_Init..D.3A.5CRenesas_Electronics.5CD1x_RGL.5Crgl_ghs_D1Lx_obj_V1.2E2.2E0.5Cvlib.5Capp.5Cgfx_apps.5Csimple_draw_d1l2.5Ctarget.5Cd1lx_mango_ghs.5Cobj.5Cdio.,@function
                        1768 	.size	_dio_GPIO_Init..D.3A.5CRenesas_Electronics.5CD1x_RGL.5Crgl_ghs_D1Lx_obj_V1.2E2.2E0.5Cvlib.5Capp.5Cgfx_apps.5Csimple_draw_d1l2.5Ctarget.5Cd1lx_mango_ghs.5Cobj.5Cdio.,.-_dio_GPIO_Init..D.3A.5CRenesas_Electronics.5CD1x_RGL.5Crgl_ghs_D1Lx_obj_V1.2E2.2E0.5Cvlib.5Capp.5Cgfx_apps.5Csimple_draw_d1l2.5Ctarget.5Cd1lx_mango_ghs.5Cobj.5Cdio.
                        1769 	.align	2
                        1770 .LDW21:
                        1771 --_ret	r11	local
                        1772 
                        1773 --_port	r10	param
                        1774 --_pin	r1	param
                        1775 --_direction	r14	param
                        1776 --_initval	r12	param
                        1777 
                        1778 	.section ".bss","awb"
                        1779 .L442:
                        1780 	.type	.L442,@object
                        1781 	.size	.L442,0
                        1782 	.data
                        1783 	.ghsnote jtable,2097156,.L444,.L444,.L444,14
                        1784 	.text
                        1785 
                        1786 --359: }
                        1787 
                        1788 --361: /***************************************************
                        1789 --362: * Function: dio_GPIO_Set
                        1790 --363: * Description: GPIO set
                        1791 --364: * Parameters:
                        1792 --365: *                  port - GPIO port
                        1793 --366: *                  pin - GPIO pin
                        1794 --367: *                  val - GPIO pin level value.
                        1795 --368: * Returns:
                        1796 --369: *            FALSE(0): set fail.
                        1797 --370: *            TRUE(1):  set success.
                        1798 --371: *
                        1799 --372: * $Create & Verlog:$
                        1800 --373: * Author:Qinhui.Shen  Date:2016-10-14   Version:V1.0
                        1801 --374: ****************************************************/
                        1802 --375: static BOOL dio_GPIO_Set(DioPort_ENUM port, U8 pin, U8 val)
                        1803 	.align	2
                        1804 	.align	2
                        1805 	.global	_dio_GPIO_Set..D.3A.5CRenesas_Electronics.5CD1x_RGL.5Crgl_ghs_D1Lx_obj_V1.2E2.2E0.5Cvlib.5Capp.5Cgfx_apps.5Csimple_draw_d1l2.5Ctarget.5Cd1lx_mango_ghs.5Cobj.5Cdio.
                        1806 _dio_GPIO_Set..D.3A.5CRenesas_Electronics.5CD1x_RGL.5Crgl_ghs_D1Lx_obj_V1.2E2.2E0.5Cvlib.5Capp.5Cgfx_apps.5Csimple_draw_d1l2.5Ctarget.5Cd1lx_mango_ghs.5Cobj.5Cdio.:
                        1807 _dio_GPIO_Set:
00000ccc 0658           1808 	mov	r6,r11
00000cce c70eff00       1809 	andi	255,r7,r1
00000cd2 c876ff00       1810 	andi	255,r8,r14
00000cd6 3e06400061ff   1811 	mov	-10420160,ep
                        1812 --	    .bf
                        1813 .LDW31:
                        1814 --376: {
                        1815 --377:     U8 ret = TRUE;
00000cdc 0162           1816 	mov	1,r12
                        1817 --379:     switch (port)
00000cde 0b68           1818 	mov	r11,r13
00000ce0 6c6a           1819 	cmp	12,r13

                                                                      Page 31
                                                              C:\Users\YINGAO~1\AppData\Local\Temp\gh_00005601.si
00000ce2 eb077f02*      1820 	bh	.L998
00000ce6 0d50           1821 	mov	r13,r10
00000ce8 c252           1822 	shl	2,r10
00000cea ea0600000000*  1823 	jmp	.L1130[r10]
                        1824 .L1130:
00000cf0 80073400*      1825 	jr	.L946
00000cf4 80076c00*      1826 	jr	.L950
00000cf8 80079c00*      1827 	jr	.L954
00000cfc 8007bc00*      1828 	jr	.L958
00000d00 8007e000*      1829 	jr	.L962
00000d04 80070801*      1830 	jr	.L966
00000d08 80073001*      1831 	jr	.L970
00000d0c 80075801*      1832 	jr	.L974
00000d10 80077e01*      1833 	jr	.L978
00000d14 8007a401*      1834 	jr	.L982
00000d18 8007ca01*      1835 	jr	.L986
00000d1c 8007f001*      1836 	jr	.L990
00000d20 80071602*      1837 	jr	.L994
                        1838 .L946:
                        1839 --380:     {
                        1840 --381:         case PORT_DIO_JP0: /* JP0_0~4 */
                        1841 --382:             if (val)
                        1842 --line382
                        1843 ..lin.D.3A.5CRenesas_Electronics.5CD1x_RGL.5Crgl_ghs_D1Lx_obj_V1.2E2.2E0.5Cvlib.5Capp.5Cgfx_apps.5Csimple_draw_d1l2.5Ctarget.5Cd1lx_mango_ghs.5Cobj.5Cdio.68::
                        1844 .LDWlin68:
00000d24 e071           1845 	cmp	zero,r14
00000d26 e20d*          1846 	be	.L947
                        1847 --383:             {
                        1848 --384:                 SET_BIT(PORTJ_AWO.JP0.UINT8, pin); /* =1 HIGH LEVEL OUTPUT */
                        1849 --line384
                        1850 ..lin.D.3A.5CRenesas_Electronics.5CD1x_RGL.5Crgl_ghs_D1Lx_obj_V1.2E2.2E0.5Cvlib.5Capp.5Cgfx_apps.5Csimple_draw_d1l2.5Ctarget.5Cd1lx_mango_ghs.5Cobj.5Cdio.69::
                        1851 .LDWlin69:
00000d28 016a           1852 	mov	1,r13
00000d2a e16fc248       1853 	shl	r1,r13,r9
00000d2e 8056c0ff       1854 	ori	65472,zero,r10
00000d32 1e68           1855 	mov	ep,r13
00000d34 ca69           1856 	add	r10,r13
00000d36 8d570100       1857 	ld.bu	0[r13],r10
00000d3a 0951           1858 	or	r9,r10
00000d3c 4d570000       1859 	st.b	r10,0[r13]
00000d40 e50d*          1860 	br	.L949
                        1861 .L947:
                        1862 --385:             }
                        1863 --386:             else
                        1864 --387:             {
                        1865 --388:                 CLR_BIT(PORTJ_AWO.JP0.UINT8, pin); /* =0 LOW LEVEL OUTPUT*/
                        1866 --line388
                        1867 ..lin.D.3A.5CRenesas_Electronics.5CD1x_RGL.5Crgl_ghs_D1Lx_obj_V1.2E2.2E0.5Cvlib.5Capp.5Cgfx_apps.5Csimple_draw_d1l2.5Ctarget.5Cd1lx_mango_ghs.5Cobj.5Cdio.70::
                        1868 .LDWlin70:
00000d42 016a           1869 	mov	1,r13
00000d44 e16fc268       1870 	shl	r1,r13,r13
00000d48 2d48           1871 	not	r13,r9
00000d4a 8056c0ff       1872 	ori	65472,zero,r10
00000d4e 1e68           1873 	mov	ep,r13
00000d50 ca69           1874 	add	r10,r13
00000d52 8d570100       1875 	ld.bu	0[r13],r10
00000d56 4951           1876 	and	r9,r10
00000d58 4d570000       1877 	st.b	r10,0[r13]
                        1878 .L949:
00000d5c 80070802*      1879 	br	.L944
                        1880 .L950:

                                                                      Page 32
                                                              C:\Users\YINGAO~1\AppData\Local\Temp\gh_00005601.si
                        1881 --389:             }
                        1882 --390:             break;
                        1883 --391:         case PORT_DIO_P0: /* P0_0~9 */
                        1884 --392:             if (val)
                        1885 --line392
                        1886 ..lin.D.3A.5CRenesas_Electronics.5CD1x_RGL.5Crgl_ghs_D1Lx_obj_V1.2E2.2E0.5Cvlib.5Capp.5Cgfx_apps.5Csimple_draw_d1l2.5Ctarget.5Cd1lx_mango_ghs.5Cobj.5Cdio.71::
                        1887 .LDWlin71:
00000d60 e071           1888 	cmp	zero,r14
00000d62 c20d*          1889 	be	.L951
                        1890 --393:             {
                        1891 --394:                 SET_BIT(PORT_AWO.P0.UINT16, pin); /* =1 HIGH LEVEL OUTPUT */
                        1892 --line394
                        1893 ..lin.D.3A.5CRenesas_Electronics.5CD1x_RGL.5Crgl_ghs_D1Lx_obj_V1.2E2.2E0.5Cvlib.5Capp.5Cgfx_apps.5Csimple_draw_d1l2.5Ctarget.5Cd1lx_mango_ghs.5Cobj.5Cdio.72::
                        1894 .LDWlin72:
00000d64 016a           1895 	mov	1,r13
00000d66 e16fc248       1896 	shl	r1,r13,r9
00000d6a fe6fc17f       1897 	ld.hu	32704[ep],r13
00000d6e 1e56c07f       1898 	addi	32704,ep,r10
00000d72 0969           1899 	or	r9,r13
00000d74 6a6f0000       1900 	st.h	r13,0[r10]
00000d78 c50d*          1901 	br	.L953
                        1902 .L951:
                        1903 --395:             }
                        1904 --396:             else
                        1905 --397:             {
                        1906 --398:                 CLR_BIT(PORT_AWO.P0.UINT16, pin); /* =0 LOW LEVEL OUTPUT*/
                        1907 --line398
                        1908 ..lin.D.3A.5CRenesas_Electronics.5CD1x_RGL.5Crgl_ghs_D1Lx_obj_V1.2E2.2E0.5Cvlib.5Capp.5Cgfx_apps.5Csimple_draw_d1l2.5Ctarget.5Cd1lx_mango_ghs.5Cobj.5Cdio.73::
                        1909 .LDWlin73:
00000d7a 016a           1910 	mov	1,r13
00000d7c e16fc268       1911 	shl	r1,r13,r13
00000d80 2d48           1912 	not	r13,r9
00000d82 1e56c07f       1913 	addi	32704,ep,r10
00000d86 fe6fc17f       1914 	ld.hu	32704[ep],r13
00000d8a 4969           1915 	and	r9,r13
00000d8c 6a6f0000       1916 	st.h	r13,0[r10]
                        1917 .L953:
00000d90 8007d401*      1918 	br	.L944
                        1919 .L954:
                        1920 --399:             }
                        1921 --400:             break;
                        1922 --401:         case PORT_DIO_P1: /* P1_0~2 */
                        1923 --402:             if (val)
                        1924 --line402
                        1925 ..lin.D.3A.5CRenesas_Electronics.5CD1x_RGL.5Crgl_ghs_D1Lx_obj_V1.2E2.2E0.5Cvlib.5Capp.5Cgfx_apps.5Csimple_draw_d1l2.5Ctarget.5Cd1lx_mango_ghs.5Cobj.5Cdio.74::
                        1926 .LDWlin74:
00000d94 e071           1927 	cmp	zero,r14
00000d96 820d*          1928 	be	.L955
                        1929 --403:             {
                        1930 --404:                 SET_BIT(PORT_ISO.P1.UINT16, pin); /* =1 HIGH LEVEL OUTPUT */
                        1931 --line404
                        1932 ..lin.D.3A.5CRenesas_Electronics.5CD1x_RGL.5Crgl_ghs_D1Lx_obj_V1.2E2.2E0.5Cvlib.5Capp.5Cgfx_apps.5Csimple_draw_d1l2.5Ctarget.5Cd1lx_mango_ghs.5Cobj.5Cdio.75::
                        1933 .LDWlin75:
00000d98 016a           1934 	mov	1,r13
00000d9a e16fc250       1935 	shl	r1,r13,r10
00000d9e 7068           1936 	sld.hu	0[ep],r13
00000da0 0a69           1937 	or	r10,r13
00000da2 806c           1938 	sst.h	r13,0[ep]
00000da4 850d*          1939 	br	.L957
                        1940 .L955:
                        1941 --405:             }

                                                                      Page 33
                                                              C:\Users\YINGAO~1\AppData\Local\Temp\gh_00005601.si
                        1942 --406:             else
                        1943 --407:             {
                        1944 --408:                 CLR_BIT(PORT_ISO.P1.UINT16, pin); /* =0 LOW LEVEL OUTPUT*/
                        1945 --line408
                        1946 ..lin.D.3A.5CRenesas_Electronics.5CD1x_RGL.5Crgl_ghs_D1Lx_obj_V1.2E2.2E0.5Cvlib.5Capp.5Cgfx_apps.5Csimple_draw_d1l2.5Ctarget.5Cd1lx_mango_ghs.5Cobj.5Cdio.76::
                        1947 .LDWlin76:
00000da6 016a           1948 	mov	1,r13
00000da8 e16fc268       1949 	shl	r1,r13,r13
00000dac 2d50           1950 	not	r13,r10
00000dae 7068           1951 	sld.hu	0[ep],r13
00000db0 4a69           1952 	and	r10,r13
00000db2 806c           1953 	sst.h	r13,0[ep]
                        1954 .L957:
00000db4 8007b001*      1955 	br	.L944
                        1956 .L958:
                        1957 --409:             }
                        1958 --410:             break;
                        1959 --411:         case PORT_DIO_P3: /* P3_2~9 */
                        1960 --412:             if (val)
                        1961 --line412
                        1962 ..lin.D.3A.5CRenesas_Electronics.5CD1x_RGL.5Crgl_ghs_D1Lx_obj_V1.2E2.2E0.5Cvlib.5Capp.5Cgfx_apps.5Csimple_draw_d1l2.5Ctarget.5Cd1lx_mango_ghs.5Cobj.5Cdio.77::
                        1963 .LDWlin77:
00000db8 e071           1964 	cmp	zero,r14
00000dba 920d*          1965 	be	.L959
                        1966 --413:             {
                        1967 --414:                 SET_BIT(PORT_ISO.P3.UINT16, pin); /* =1 HIGH LEVEL OUTPUT */
                        1968 --line414
                        1969 ..lin.D.3A.5CRenesas_Electronics.5CD1x_RGL.5Crgl_ghs_D1Lx_obj_V1.2E2.2E0.5Cvlib.5Capp.5Cgfx_apps.5Csimple_draw_d1l2.5Ctarget.5Cd1lx_mango_ghs.5Cobj.5Cdio.78::
                        1970 .LDWlin78:
00000dbc 016a           1971 	mov	1,r13
00000dbe e16fc250       1972 	shl	r1,r13,r10
00000dc2 fe6f8100       1973 	ld.hu	128[ep],r13
00000dc6 0a69           1974 	or	r10,r13
00000dc8 c06c           1975 	sst.h	r13,128[ep]
00000dca 950d*          1976 	br	.L961
                        1977 .L959:
                        1978 --415:             }
                        1979 --416:             else
                        1980 --417:             {
                        1981 --418:                 CLR_BIT(PORT_ISO.P3.UINT16, pin); /* =0 LOW LEVEL OUTPUT*/
                        1982 --line418
                        1983 ..lin.D.3A.5CRenesas_Electronics.5CD1x_RGL.5Crgl_ghs_D1Lx_obj_V1.2E2.2E0.5Cvlib.5Capp.5Cgfx_apps.5Csimple_draw_d1l2.5Ctarget.5Cd1lx_mango_ghs.5Cobj.5Cdio.79::
                        1984 .LDWlin79:
00000dcc 016a           1985 	mov	1,r13
00000dce e16fc268       1986 	shl	r1,r13,r13
00000dd2 2d50           1987 	not	r13,r10
00000dd4 fe6f8100       1988 	ld.hu	128[ep],r13
00000dd8 4a69           1989 	and	r10,r13
00000dda c06c           1990 	sst.h	r13,128[ep]
                        1991 .L961:
00000ddc 80078801*      1992 	br	.L944
                        1993 .L962:
                        1994 --419:             }
                        1995 --420:             break;
                        1996 --421:         case PORT_DIO_P10: /* P10_0~11 */
                        1997 --422:             if (val)
                        1998 --line422
                        1999 ..lin.D.3A.5CRenesas_Electronics.5CD1x_RGL.5Crgl_ghs_D1Lx_obj_V1.2E2.2E0.5Cvlib.5Capp.5Cgfx_apps.5Csimple_draw_d1l2.5Ctarget.5Cd1lx_mango_ghs.5Cobj.5Cdio.80::
                        2000 .LDWlin80:
00000de0 e071           2001 	cmp	zero,r14
00000de2 a20d*          2002 	be	.L963

                                                                      Page 34
                                                              C:\Users\YINGAO~1\AppData\Local\Temp\gh_00005601.si
                        2003 --423:             {
                        2004 --424:                 SET_BIT(PORT_ISO.P10.UINT16, pin); /* =1 HIGH LEVEL OUTPUT */
                        2005 --line424
                        2006 ..lin.D.3A.5CRenesas_Electronics.5CD1x_RGL.5Crgl_ghs_D1Lx_obj_V1.2E2.2E0.5Cvlib.5Capp.5Cgfx_apps.5Csimple_draw_d1l2.5Ctarget.5Cd1lx_mango_ghs.5Cobj.5Cdio.81::
                        2007 .LDWlin81:
00000de4 016a           2008 	mov	1,r13
00000de6 e16fc250       2009 	shl	r1,r13,r10
00000dea fe6f4102       2010 	ld.hu	576[ep],r13
00000dee 0a69           2011 	or	r10,r13
00000df0 7e6f4002       2012 	st.h	r13,576[ep]
00000df4 a50d*          2013 	br	.L965
                        2014 .L963:
                        2015 --425:             }
                        2016 --426:             else
                        2017 --427:             {
                        2018 --428:                 CLR_BIT(PORT_ISO.P10.UINT16, pin); /* =0 LOW LEVEL OUTPUT*/
                        2019 --line428
                        2020 ..lin.D.3A.5CRenesas_Electronics.5CD1x_RGL.5Crgl_ghs_D1Lx_obj_V1.2E2.2E0.5Cvlib.5Capp.5Cgfx_apps.5Csimple_draw_d1l2.5Ctarget.5Cd1lx_mango_ghs.5Cobj.5Cdio.82::
                        2021 .LDWlin82:
00000df6 016a           2022 	mov	1,r13
00000df8 e16fc268       2023 	shl	r1,r13,r13
00000dfc 2d50           2024 	not	r13,r10
00000dfe fe6f4102       2025 	ld.hu	576[ep],r13
00000e02 4a69           2026 	and	r10,r13
00000e04 7e6f4002       2027 	st.h	r13,576[ep]
                        2028 .L965:
00000e08 80075c01*      2029 	br	.L944
                        2030 .L966:
                        2031 --429:             }
                        2032 --430:             break;
                        2033 --431:         case PORT_DIO_P11: /* P11_0~3 */
                        2034 --432:             if (val)
                        2035 --line432
                        2036 ..lin.D.3A.5CRenesas_Electronics.5CD1x_RGL.5Crgl_ghs_D1Lx_obj_V1.2E2.2E0.5Cvlib.5Capp.5Cgfx_apps.5Csimple_draw_d1l2.5Ctarget.5Cd1lx_mango_ghs.5Cobj.5Cdio.83::
                        2037 .LDWlin83:
00000e0c e071           2038 	cmp	zero,r14
00000e0e a20d*          2039 	be	.L967
                        2040 --433:             {
                        2041 --434:                 SET_BIT(PORT_ISO.P11.UINT16, pin); /* =1 HIGH LEVEL OUTPUT */
                        2042 --line434
                        2043 ..lin.D.3A.5CRenesas_Electronics.5CD1x_RGL.5Crgl_ghs_D1Lx_obj_V1.2E2.2E0.5Cvlib.5Capp.5Cgfx_apps.5Csimple_draw_d1l2.5Ctarget.5Cd1lx_mango_ghs.5Cobj.5Cdio.84::
                        2044 .LDWlin84:
00000e10 016a           2045 	mov	1,r13
00000e12 e16fc250       2046 	shl	r1,r13,r10
00000e16 fe6f8102       2047 	ld.hu	640[ep],r13
00000e1a 0a69           2048 	or	r10,r13
00000e1c 7e6f8002       2049 	st.h	r13,640[ep]
00000e20 a50d*          2050 	br	.L969
                        2051 .L967:
                        2052 --435:             }
                        2053 --436:             else
                        2054 --437:             {
                        2055 --438:                 CLR_BIT(PORT_ISO.P11.UINT16, pin); /* =0 LOW LEVEL OUTPUT*/
                        2056 --line438
                        2057 ..lin.D.3A.5CRenesas_Electronics.5CD1x_RGL.5Crgl_ghs_D1Lx_obj_V1.2E2.2E0.5Cvlib.5Capp.5Cgfx_apps.5Csimple_draw_d1l2.5Ctarget.5Cd1lx_mango_ghs.5Cobj.5Cdio.85::
                        2058 .LDWlin85:
00000e22 016a           2059 	mov	1,r13
00000e24 e16fc268       2060 	shl	r1,r13,r13
00000e28 2d50           2061 	not	r13,r10
00000e2a fe6f8102       2062 	ld.hu	640[ep],r13
00000e2e 4a69           2063 	and	r10,r13

                                                                      Page 35
                                                              C:\Users\YINGAO~1\AppData\Local\Temp\gh_00005601.si
00000e30 7e6f8002       2064 	st.h	r13,640[ep]
                        2065 .L969:
00000e34 80073001*      2066 	br	.L944
                        2067 .L970:
                        2068 --439:             }
                        2069 --440:             break;
                        2070 --441:         case PORT_DIO_P16: /* P16_0~11 */
                        2071 --442:             if (val)
                        2072 --line442
                        2073 ..lin.D.3A.5CRenesas_Electronics.5CD1x_RGL.5Crgl_ghs_D1Lx_obj_V1.2E2.2E0.5Cvlib.5Capp.5Cgfx_apps.5Csimple_draw_d1l2.5Ctarget.5Cd1lx_mango_ghs.5Cobj.5Cdio.86::
                        2074 .LDWlin86:
00000e38 e071           2075 	cmp	zero,r14
00000e3a a20d*          2076 	be	.L971
                        2077 --443:             {
                        2078 --444:                 SET_BIT(PORT_ISO.P16.UINT16, pin); /* =1 HIGH LEVEL OUTPUT */
                        2079 --line444
                        2080 ..lin.D.3A.5CRenesas_Electronics.5CD1x_RGL.5Crgl_ghs_D1Lx_obj_V1.2E2.2E0.5Cvlib.5Capp.5Cgfx_apps.5Csimple_draw_d1l2.5Ctarget.5Cd1lx_mango_ghs.5Cobj.5Cdio.87::
                        2081 .LDWlin87:
00000e3c 016a           2082 	mov	1,r13
00000e3e e16fc250       2083 	shl	r1,r13,r10
00000e42 fe6fc103       2084 	ld.hu	960[ep],r13
00000e46 0a69           2085 	or	r10,r13
00000e48 7e6fc003       2086 	st.h	r13,960[ep]
00000e4c a50d*          2087 	br	.L973
                        2088 .L971:
                        2089 --445:             }
                        2090 --446:             else
                        2091 --447:             {
                        2092 --448:                 CLR_BIT(PORT_ISO.P16.UINT16, pin); /* =0 LOW LEVEL OUTPUT*/
                        2093 --line448
                        2094 ..lin.D.3A.5CRenesas_Electronics.5CD1x_RGL.5Crgl_ghs_D1Lx_obj_V1.2E2.2E0.5Cvlib.5Capp.5Cgfx_apps.5Csimple_draw_d1l2.5Ctarget.5Cd1lx_mango_ghs.5Cobj.5Cdio.88::
                        2095 .LDWlin88:
00000e4e 016a           2096 	mov	1,r13
00000e50 e16fc268       2097 	shl	r1,r13,r13
00000e54 2d50           2098 	not	r13,r10
00000e56 fe6fc103       2099 	ld.hu	960[ep],r13
00000e5a 4a69           2100 	and	r10,r13
00000e5c 7e6fc003       2101 	st.h	r13,960[ep]
                        2102 .L973:
00000e60 80070401*      2103 	br	.L944
                        2104 .L974:
                        2105 --449:             }
                        2106 --450:             break;
                        2107 --451:         case PORT_DIO_P17: /* P17_0~11 */
                        2108 --452:             if (val)
                        2109 --line452
                        2110 ..lin.D.3A.5CRenesas_Electronics.5CD1x_RGL.5Crgl_ghs_D1Lx_obj_V1.2E2.2E0.5Cvlib.5Capp.5Cgfx_apps.5Csimple_draw_d1l2.5Ctarget.5Cd1lx_mango_ghs.5Cobj.5Cdio.89::
                        2111 .LDWlin89:
00000e64 e071           2112 	cmp	zero,r14
00000e66 a20d*          2113 	be	.L975
                        2114 --453:             {
                        2115 --454:                 SET_BIT(PORT_ISO.P17.UINT16, pin); /* =1 HIGH LEVEL OUTPUT */
                        2116 --line454
                        2117 ..lin.D.3A.5CRenesas_Electronics.5CD1x_RGL.5Crgl_ghs_D1Lx_obj_V1.2E2.2E0.5Cvlib.5Capp.5Cgfx_apps.5Csimple_draw_d1l2.5Ctarget.5Cd1lx_mango_ghs.5Cobj.5Cdio.90::
                        2118 .LDWlin90:
00000e68 016a           2119 	mov	1,r13
00000e6a e16fc250       2120 	shl	r1,r13,r10
00000e6e fe6f0104       2121 	ld.hu	1024[ep],r13
00000e72 0a69           2122 	or	r10,r13
00000e74 7e6f0004       2123 	st.h	r13,1024[ep]
00000e78 a50d*          2124 	br	.L977

                                                                      Page 36
                                                              C:\Users\YINGAO~1\AppData\Local\Temp\gh_00005601.si
                        2125 .L975:
                        2126 --455:             }
                        2127 --456:             else
                        2128 --457:             {
                        2129 --458:                 CLR_BIT(PORT_ISO.P17.UINT16, pin); /* =0 LOW LEVEL OUTPUT*/
                        2130 --line458
                        2131 ..lin.D.3A.5CRenesas_Electronics.5CD1x_RGL.5Crgl_ghs_D1Lx_obj_V1.2E2.2E0.5Cvlib.5Capp.5Cgfx_apps.5Csimple_draw_d1l2.5Ctarget.5Cd1lx_mango_ghs.5Cobj.5Cdio.91::
                        2132 .LDWlin91:
00000e7a 016a           2133 	mov	1,r13
00000e7c e16fc268       2134 	shl	r1,r13,r13
00000e80 2d50           2135 	not	r13,r10
00000e82 fe6f0104       2136 	ld.hu	1024[ep],r13
00000e86 4a69           2137 	and	r10,r13
00000e88 7e6f0004       2138 	st.h	r13,1024[ep]
                        2139 .L977:
00000e8c c56d*          2140 	br	.L944
                        2141 .L978:
                        2142 --459:             }
                        2143 --460:             break;
                        2144 --461:         case PORT_DIO_P21: /* P21_0~5 */
                        2145 --462:             if (val)
                        2146 --line462
                        2147 ..lin.D.3A.5CRenesas_Electronics.5CD1x_RGL.5Crgl_ghs_D1Lx_obj_V1.2E2.2E0.5Cvlib.5Capp.5Cgfx_apps.5Csimple_draw_d1l2.5Ctarget.5Cd1lx_mango_ghs.5Cobj.5Cdio.92::
                        2148 .LDWlin92:
00000e8e e071           2149 	cmp	zero,r14
00000e90 a20d*          2150 	be	.L979
                        2151 --463:             {
                        2152 --464:                 SET_BIT(PORT_ISO.P21.UINT16, pin); /* =1 HIGH LEVEL OUTPUT */
                        2153 --line464
                        2154 ..lin.D.3A.5CRenesas_Electronics.5CD1x_RGL.5Crgl_ghs_D1Lx_obj_V1.2E2.2E0.5Cvlib.5Capp.5Cgfx_apps.5Csimple_draw_d1l2.5Ctarget.5Cd1lx_mango_ghs.5Cobj.5Cdio.93::
                        2155 .LDWlin93:
00000e92 016a           2156 	mov	1,r13
00000e94 e16fc250       2157 	shl	r1,r13,r10
00000e98 fe6f0105       2158 	ld.hu	1280[ep],r13
00000e9c 0a69           2159 	or	r10,r13
00000e9e 7e6f0005       2160 	st.h	r13,1280[ep]
00000ea2 a50d*          2161 	br	.L981
                        2162 .L979:
                        2163 --465:             }
                        2164 --466:             else
                        2165 --467:             {
                        2166 --468:                 CLR_BIT(PORT_ISO.P21.UINT16, pin); /* =0 LOW LEVEL OUTPUT*/
                        2167 --line468
                        2168 ..lin.D.3A.5CRenesas_Electronics.5CD1x_RGL.5Crgl_ghs_D1Lx_obj_V1.2E2.2E0.5Cvlib.5Capp.5Cgfx_apps.5Csimple_draw_d1l2.5Ctarget.5Cd1lx_mango_ghs.5Cobj.5Cdio.94::
                        2169 .LDWlin94:
00000ea4 016a           2170 	mov	1,r13
00000ea6 e16fc268       2171 	shl	r1,r13,r13
00000eaa 2d50           2172 	not	r13,r10
00000eac fe6f0105       2173 	ld.hu	1280[ep],r13
00000eb0 4a69           2174 	and	r10,r13
00000eb2 7e6f0005       2175 	st.h	r13,1280[ep]
                        2176 .L981:
00000eb6 f555*          2177 	br	.L944
                        2178 .L982:
                        2179 --469:             }
                        2180 --470:             break;
                        2181 --471:         case PORT_DIO_P42: /* P42_7~10 */
                        2182 --472:             if (val)
                        2183 --line472
                        2184 ..lin.D.3A.5CRenesas_Electronics.5CD1x_RGL.5Crgl_ghs_D1Lx_obj_V1.2E2.2E0.5Cvlib.5Capp.5Cgfx_apps.5Csimple_draw_d1l2.5Ctarget.5Cd1lx_mango_ghs.5Cobj.5Cdio.95::
                        2185 .LDWlin95:

                                                                      Page 37
                                                              C:\Users\YINGAO~1\AppData\Local\Temp\gh_00005601.si
00000eb8 e071           2186 	cmp	zero,r14
00000eba a20d*          2187 	be	.L983
                        2188 --473:             {
                        2189 --474:                 SET_BIT(PORT_ISO.P42.UINT16, pin); /* =1 HIGH LEVEL OUTPUT */
                        2190 --line474
                        2191 ..lin.D.3A.5CRenesas_Electronics.5CD1x_RGL.5Crgl_ghs_D1Lx_obj_V1.2E2.2E0.5Cvlib.5Capp.5Cgfx_apps.5Csimple_draw_d1l2.5Ctarget.5Cd1lx_mango_ghs.5Cobj.5Cdio.96::
                        2192 .LDWlin96:
00000ebc 016a           2193 	mov	1,r13
00000ebe e16fc250       2194 	shl	r1,r13,r10
00000ec2 fe6f410a       2195 	ld.hu	2624[ep],r13
00000ec6 0a69           2196 	or	r10,r13
00000ec8 7e6f400a       2197 	st.h	r13,2624[ep]
00000ecc a50d*          2198 	br	.L985
                        2199 .L983:
                        2200 --475:             }
                        2201 --476:             else
                        2202 --477:             {
                        2203 --478:                 CLR_BIT(PORT_ISO.P42.UINT16, pin); /* =0 LOW LEVEL OUTPUT*/
                        2204 --line478
                        2205 ..lin.D.3A.5CRenesas_Electronics.5CD1x_RGL.5Crgl_ghs_D1Lx_obj_V1.2E2.2E0.5Cvlib.5Capp.5Cgfx_apps.5Csimple_draw_d1l2.5Ctarget.5Cd1lx_mango_ghs.5Cobj.5Cdio.97::
                        2206 .LDWlin97:
00000ece 016a           2207 	mov	1,r13
00000ed0 e16fc268       2208 	shl	r1,r13,r13
00000ed4 2d50           2209 	not	r13,r10
00000ed6 fe6f410a       2210 	ld.hu	2624[ep],r13
00000eda 4a69           2211 	and	r10,r13
00000edc 7e6f400a       2212 	st.h	r13,2624[ep]
                        2213 .L985:
00000ee0 a545*          2214 	br	.L944
                        2215 .L986:
                        2216 --479:             }
                        2217 --480:             break;
                        2218 --481:         case PORT_DIO_P43: /* P43_0~1 */
                        2219 --482:             if (val)
                        2220 --line482
                        2221 ..lin.D.3A.5CRenesas_Electronics.5CD1x_RGL.5Crgl_ghs_D1Lx_obj_V1.2E2.2E0.5Cvlib.5Capp.5Cgfx_apps.5Csimple_draw_d1l2.5Ctarget.5Cd1lx_mango_ghs.5Cobj.5Cdio.98::
                        2222 .LDWlin98:
00000ee2 e071           2223 	cmp	zero,r14
00000ee4 a20d*          2224 	be	.L987
                        2225 --483:             {
                        2226 --484:                 SET_BIT(PORT_ISO.P43.UINT16, pin); /* =1 HIGH LEVEL OUTPUT */
                        2227 --line484
                        2228 ..lin.D.3A.5CRenesas_Electronics.5CD1x_RGL.5Crgl_ghs_D1Lx_obj_V1.2E2.2E0.5Cvlib.5Capp.5Cgfx_apps.5Csimple_draw_d1l2.5Ctarget.5Cd1lx_mango_ghs.5Cobj.5Cdio.99::
                        2229 .LDWlin99:
00000ee6 016a           2230 	mov	1,r13
00000ee8 e16fc250       2231 	shl	r1,r13,r10
00000eec fe6f810a       2232 	ld.hu	2688[ep],r13
00000ef0 0a69           2233 	or	r10,r13
00000ef2 7e6f800a       2234 	st.h	r13,2688[ep]
00000ef6 a50d*          2235 	br	.L989
                        2236 .L987:
                        2237 --485:             }
                        2238 --486:             else
                        2239 --487:             {
                        2240 --488:                 CLR_BIT(PORT_ISO.P43.UINT16, pin); /* =0 LOW LEVEL OUTPUT*/
                        2241 --line488
                        2242 ..lin.D.3A.5CRenesas_Electronics.5CD1x_RGL.5Crgl_ghs_D1Lx_obj_V1.2E2.2E0.5Cvlib.5Capp.5Cgfx_apps.5Csimple_draw_d1l2.5Ctarget.5Cd1lx_mango_ghs.5Cobj.5Cdio.100::
                        2243 .LDWlin100:
00000ef8 016a           2244 	mov	1,r13
00000efa e16fc268       2245 	shl	r1,r13,r13
00000efe 2d50           2246 	not	r13,r10

                                                                      Page 38
                                                              C:\Users\YINGAO~1\AppData\Local\Temp\gh_00005601.si
00000f00 fe6f810a       2247 	ld.hu	2688[ep],r13
00000f04 4a69           2248 	and	r10,r13
00000f06 7e6f800a       2249 	st.h	r13,2688[ep]
                        2250 .L989:
00000f0a d52d*          2251 	br	.L944
                        2252 .L990:
                        2253 --489:             }
                        2254 --490:             break;
                        2255 --491:         case PORT_DIO_P44: /* P44_1~11 */
                        2256 --492:             if (val)
                        2257 --line492
                        2258 ..lin.D.3A.5CRenesas_Electronics.5CD1x_RGL.5Crgl_ghs_D1Lx_obj_V1.2E2.2E0.5Cvlib.5Capp.5Cgfx_apps.5Csimple_draw_d1l2.5Ctarget.5Cd1lx_mango_ghs.5Cobj.5Cdio.101::
                        2259 .LDWlin101:
00000f0c e071           2260 	cmp	zero,r14
00000f0e a20d*          2261 	be	.L991
                        2262 --493:             {
                        2263 --494:                 SET_BIT(PORT_ISO.P44.UINT16, pin); /* =1 HIGH LEVEL OUTPUT */
                        2264 --line494
                        2265 ..lin.D.3A.5CRenesas_Electronics.5CD1x_RGL.5Crgl_ghs_D1Lx_obj_V1.2E2.2E0.5Cvlib.5Capp.5Cgfx_apps.5Csimple_draw_d1l2.5Ctarget.5Cd1lx_mango_ghs.5Cobj.5Cdio.102::
                        2266 .LDWlin102:
00000f10 016a           2267 	mov	1,r13
00000f12 e16fc250       2268 	shl	r1,r13,r10
00000f16 fe6fc10a       2269 	ld.hu	2752[ep],r13
00000f1a 0a69           2270 	or	r10,r13
00000f1c 7e6fc00a       2271 	st.h	r13,2752[ep]
00000f20 a50d*          2272 	br	.L993
                        2273 .L991:
                        2274 --495:             }
                        2275 --496:             else
                        2276 --497:             {
                        2277 --498:                 CLR_BIT(PORT_ISO.P44.UINT16, pin); /* =0 LOW LEVEL OUTPUT*/
                        2278 --line498
                        2279 ..lin.D.3A.5CRenesas_Electronics.5CD1x_RGL.5Crgl_ghs_D1Lx_obj_V1.2E2.2E0.5Cvlib.5Capp.5Cgfx_apps.5Csimple_draw_d1l2.5Ctarget.5Cd1lx_mango_ghs.5Cobj.5Cdio.103::
                        2280 .LDWlin103:
00000f22 016a           2281 	mov	1,r13
00000f24 e16fc268       2282 	shl	r1,r13,r13
00000f28 2d50           2283 	not	r13,r10
00000f2a fe6fc10a       2284 	ld.hu	2752[ep],r13
00000f2e 4a69           2285 	and	r10,r13
00000f30 7e6fc00a       2286 	st.h	r13,2752[ep]
                        2287 .L993:
00000f34 851d*          2288 	br	.L944
                        2289 .L994:
                        2290 --499:             }
                        2291 --500:             break;
                        2292 --501:         case PORT_DIO_P45: /* P45_0~13 */
                        2293 --502:             if (val)
                        2294 --line502
                        2295 ..lin.D.3A.5CRenesas_Electronics.5CD1x_RGL.5Crgl_ghs_D1Lx_obj_V1.2E2.2E0.5Cvlib.5Capp.5Cgfx_apps.5Csimple_draw_d1l2.5Ctarget.5Cd1lx_mango_ghs.5Cobj.5Cdio.104::
                        2296 .LDWlin104:
00000f36 e071           2297 	cmp	zero,r14
00000f38 a20d*          2298 	be	.L995
                        2299 --503:             {
                        2300 --504:                 SET_BIT(PORT_ISO.P45.UINT16, pin); /* =1 HIGH LEVEL OUTPUT */
                        2301 --line504
                        2302 ..lin.D.3A.5CRenesas_Electronics.5CD1x_RGL.5Crgl_ghs_D1Lx_obj_V1.2E2.2E0.5Cvlib.5Capp.5Cgfx_apps.5Csimple_draw_d1l2.5Ctarget.5Cd1lx_mango_ghs.5Cobj.5Cdio.105::
                        2303 .LDWlin105:
00000f3a 016a           2304 	mov	1,r13
00000f3c e16fc250       2305 	shl	r1,r13,r10
00000f40 fe6f010b       2306 	ld.hu	2816[ep],r13
00000f44 0a69           2307 	or	r10,r13

                                                                      Page 39
                                                              C:\Users\YINGAO~1\AppData\Local\Temp\gh_00005601.si
00000f46 7e6f000b       2308 	st.h	r13,2816[ep]
00000f4a a50d*          2309 	br	.L997
                        2310 .L995:
                        2311 --505:             }
                        2312 --506:             else
                        2313 --507:             {
                        2314 --508:                 CLR_BIT(PORT_ISO.P45.UINT16, pin); /* =0 LOW LEVEL OUTPUT*/
                        2315 --line508
                        2316 ..lin.D.3A.5CRenesas_Electronics.5CD1x_RGL.5Crgl_ghs_D1Lx_obj_V1.2E2.2E0.5Cvlib.5Capp.5Cgfx_apps.5Csimple_draw_d1l2.5Ctarget.5Cd1lx_mango_ghs.5Cobj.5Cdio.106::
                        2317 .LDWlin106:
00000f4c 016a           2318 	mov	1,r13
00000f4e e16fc268       2319 	shl	r1,r13,r13
00000f52 2d50           2320 	not	r13,r10
00000f54 fe6f010b       2321 	ld.hu	2816[ep],r13
00000f58 4a69           2322 	and	r10,r13
00000f5a 7e6f000b       2323 	st.h	r13,2816[ep]
                        2324 .L997:
00000f5e b505*          2325 	br	.L944
                        2326 .L998:
                        2327 --509:             }
                        2328 --510:             break;
                        2329 --511:         default:
                        2330 --512:             ret = FALSE;
                        2331 --line512
                        2332 ..lin.D.3A.5CRenesas_Electronics.5CD1x_RGL.5Crgl_ghs_D1Lx_obj_V1.2E2.2E0.5Cvlib.5Capp.5Cgfx_apps.5Csimple_draw_d1l2.5Ctarget.5Cd1lx_mango_ghs.5Cobj.5Cdio.107::
                        2333 .LDWlin107:
00000f60 0062           2334 	mov	0,r12
00000f62 0000           2335 	nop
                        2336 .L944:
                        2337 --513:             break;
                        2338 --514:     }
                        2339 --516:     return ret;
00000f64 0c50           2340 	mov	r12,r10
                        2341 --	    .ef
                        2342 .LDW41:
00000f66 7f00           2343 	jmp	[lp]
                        2344 	.type	_dio_GPIO_Set,@function
                        2345 	.size	_dio_GPIO_Set,.-_dio_GPIO_Set
                        2346 	.type	_dio_GPIO_Set..D.3A.5CRenesas_Electronics.5CD1x_RGL.5Crgl_ghs_D1Lx_obj_V1.2E2.2E0.5Cvlib.5Capp.5Cgfx_apps.5Csimple_draw_d1l2.5Ctarget.5Cd1lx_mango_ghs.5Cobj.5Cdio.,@function
                        2347 	.size	_dio_GPIO_Set..D.3A.5CRenesas_Electronics.5CD1x_RGL.5Crgl_ghs_D1Lx_obj_V1.2E2.2E0.5Cvlib.5Capp.5Cgfx_apps.5Csimple_draw_d1l2.5Ctarget.5Cd1lx_mango_ghs.5Cobj.5Cdio.,.-_dio_GPIO_Set..D.3A.5CRenesas_Electronics.5CD1x_RGL.5Crgl_ghs_D1Lx_obj_V1.2E2.2E0.5Cvlib.5Capp.5Cgfx_apps.5Csimple_draw_d1l2.5Ctarget.5Cd1lx_mango_ghs.5Cobj.5Cdio.
                        2348 	.align	2
                        2349 .LDW51:
                        2350 --_ret	r12	local
                        2351 
                        2352 --_port	r11	param
                        2353 --_pin	r1	param
                        2354 --_val	r14	param
                        2355 
                        2356 	.section ".bss","awb"
                        2357 .L1128:
                        2358 	.type	.L1128,@object
                        2359 	.size	.L1128,0
                        2360 	.data
                        2361 	.ghsnote jtable,2097156,.L1130,.L1130,.L1130,13
                        2362 	.text
                        2363 
                        2364 --517: }
                        2365 
                        2366 --519: /***************************************************
                        2367 --520: * Function: dio_GPIO_Get
                        2368 --521: * Description: GPIO get

                                                                      Page 40
                                                              C:\Users\YINGAO~1\AppData\Local\Temp\gh_00005601.si
                        2369 --522: * Parameters:
                        2370 --523: *                  port - GPIO port
                        2371 --524: *                  pin - GPIO pin
                        2372 --525: *                  pVal - get the pin level.
                        2373 --526: * Returns:
                        2374 --527: *            FALSE(0): get fail.
                        2375 --528: *            TRUE(1):  get success.
                        2376 --529: *
                        2377 --530: * $Create & Verlog:$
                        2378 --531: * Author:Qinhui.Shen  Date:2016-10-14   Version:V1.0
                        2379 --532: ****************************************************/
                        2380 --533: static BOOL dio_GPIO_Get(DioPort_ENUM port, U8 pin, U8 *pVal)
                        2381 	.align	2
                        2382 	.align	2
                        2383 	.global	_dio_GPIO_Get..D.3A.5CRenesas_Electronics.5CD1x_RGL.5Crgl_ghs_D1Lx_obj_V1.2E2.2E0.5Cvlib.5Capp.5Cgfx_apps.5Csimple_draw_d1l2.5Ctarget.5Cd1lx_mango_ghs.5Cobj.5Cdio.
                        2384 _dio_GPIO_Get..D.3A.5CRenesas_Electronics.5CD1x_RGL.5Crgl_ghs_D1Lx_obj_V1.2E2.2E0.5Cvlib.5Capp.5Cgfx_apps.5Csimple_draw_d1l2.5Ctarget.5Cd1lx_mango_ghs.5Cobj.5Cdio.:
                        2385 _dio_GPIO_Get:
00000f68 0658           2386 	mov	r6,r11
00000f6a c776ff00       2387 	andi	255,r7,r14
00000f6e 08f0           2388 	mov	r8,ep
00000f70 2106400061ff   2389 	mov	-10420160,r1
                        2390 --	    .bf
                        2391 .LDW61:
                        2392 --534: {
                        2393 --535:     BOOL ret = TRUE;
00000f76 0162           2394 	mov	1,r12
                        2395 --537:     switch (port)
00000f78 0b68           2396 	mov	r11,r13
00000f7a 6c6a           2397 	cmp	12,r13
00000f7c eb078701*      2398 	bh	.L1369
00000f80 0d50           2399 	mov	r13,r10
00000f82 c252           2400 	shl	2,r10
00000f84 ea0600000000*  2401 	jmp	.L1498[r10]
                        2402 .L1498:
00000f8a 80073400*      2403 	jr	.L1317
00000f8e 80075200*      2404 	jr	.L1321
00000f92 80076800*      2405 	jr	.L1325
00000f96 80077c00*      2406 	jr	.L1329
00000f9a 80079000*      2407 	jr	.L1333
00000f9e 8007a400*      2408 	jr	.L1337
00000fa2 8007b800*      2409 	jr	.L1341
00000fa6 8007cc00*      2410 	jr	.L1345
00000faa 8007e000*      2411 	jr	.L1349
00000fae 8007f400*      2412 	jr	.L1353
00000fb2 80070801*      2413 	jr	.L1357
00000fb6 80071c01*      2414 	jr	.L1361
00000fba 80073001*      2415 	jr	.L1365
                        2416 .L1317:
                        2417 --538:     {
                        2418 --539:         case PORT_DIO_JP0: /* JP0_0~4 */
                        2419 --540:             if (GET_BIT(PORTJ_AWO.JPPR0.UINT8, pin))
                        2420 --line540
                        2421 ..lin.D.3A.5CRenesas_Electronics.5CD1x_RGL.5Crgl_ghs_D1Lx_obj_V1.2E2.2E0.5Cvlib.5Capp.5Cgfx_apps.5Csimple_draw_d1l2.5Ctarget.5Cd1lx_mango_ghs.5Cobj.5Cdio.108::
                        2422 .LDWlin108:
00000fbe 8056c0ff       2423 	ori	65472,zero,r10
00000fc2 0168           2424 	mov	r1,r13
00000fc4 ca69           2425 	add	r10,r13
00000fc6 8d4f0d00       2426 	ld.bu	12[r13],r9
00000fca 0152           2427 	mov	1,r10
00000fcc ee57c250       2428 	shl	r14,r10,r10
00000fd0 4951           2429 	and	r9,r10

                                                                      Page 41
                                                              C:\Users\YINGAO~1\AppData\Local\Temp\gh_00005601.si
00000fd2 c205*          2430 	be	.L1318
                        2431 --541:             {
                        2432 --542:                 *pVal = 0x01;
                        2433 --line542
                        2434 ..lin.D.3A.5CRenesas_Electronics.5CD1x_RGL.5Crgl_ghs_D1Lx_obj_V1.2E2.2E0.5Cvlib.5Capp.5Cgfx_apps.5Csimple_draw_d1l2.5Ctarget.5Cd1lx_mango_ghs.5Cobj.5Cdio.109::
                        2435 .LDWlin109:
00000fd4 016a           2436 	mov	1,r13
00000fd6 806b           2437 	sst.b	r13,0[ep]
00000fd8 a505*          2438 	br	.L1320
                        2439 .L1318:
                        2440 --543:             }
                        2441 --544:             else
                        2442 --545:             {
                        2443 --546:                 *pVal = 0x00;
                        2444 --line546
                        2445 ..lin.D.3A.5CRenesas_Electronics.5CD1x_RGL.5Crgl_ghs_D1Lx_obj_V1.2E2.2E0.5Cvlib.5Capp.5Cgfx_apps.5Csimple_draw_d1l2.5Ctarget.5Cd1lx_mango_ghs.5Cobj.5Cdio.110::
                        2446 .LDWlin110:
00000fda 8003           2447 	sst.b	zero,0[ep]
                        2448 .L1320:
00000fdc 80072a01*      2449 	br	.L1315
                        2450 .L1321:
                        2451 --547:             }
                        2452 --548:             break;
                        2453 --549:         case PORT_DIO_P0: /* P0_0~9 */
                        2454 --550:             if (GET_BIT(PORT_AWO.PPR0.UINT16, pin))
                        2455 --line550
                        2456 ..lin.D.3A.5CRenesas_Electronics.5CD1x_RGL.5Crgl_ghs_D1Lx_obj_V1.2E2.2E0.5Cvlib.5Capp.5Cgfx_apps.5Csimple_draw_d1l2.5Ctarget.5Cd1lx_mango_ghs.5Cobj.5Cdio.111::
                        2457 .LDWlin111:
00000fe0 e14fcd7f       2458 	ld.hu	32716[r1],r9
00000fe4 0152           2459 	mov	1,r10
00000fe6 ee57c250       2460 	shl	r14,r10,r10
00000fea 4951           2461 	and	r9,r10
00000fec c205*          2462 	be	.L1322
                        2463 --551:             {
                        2464 --552:                 *pVal = 0x01;
                        2465 --line552
                        2466 ..lin.D.3A.5CRenesas_Electronics.5CD1x_RGL.5Crgl_ghs_D1Lx_obj_V1.2E2.2E0.5Cvlib.5Capp.5Cgfx_apps.5Csimple_draw_d1l2.5Ctarget.5Cd1lx_mango_ghs.5Cobj.5Cdio.112::
                        2467 .LDWlin112:
00000fee 016a           2468 	mov	1,r13
00000ff0 806b           2469 	sst.b	r13,0[ep]
00000ff2 a505*          2470 	br	.L1324
                        2471 .L1322:
                        2472 --553:             }
                        2473 --554:             else
                        2474 --555:             {
                        2475 --556:                 *pVal = 0x00;
                        2476 --line556
                        2477 ..lin.D.3A.5CRenesas_Electronics.5CD1x_RGL.5Crgl_ghs_D1Lx_obj_V1.2E2.2E0.5Cvlib.5Capp.5Cgfx_apps.5Csimple_draw_d1l2.5Ctarget.5Cd1lx_mango_ghs.5Cobj.5Cdio.113::
                        2478 .LDWlin113:
00000ff4 8003           2479 	sst.b	zero,0[ep]
                        2480 .L1324:
00000ff6 80071001*      2481 	br	.L1315
                        2482 .L1325:
                        2483 --557:             }
                        2484 --558:             break;
                        2485 --559:         case PORT_DIO_P1: /* P1_0~2 */
                        2486 --560:             if (GET_BIT(PORT_ISO.PPR1.UINT16, pin))
                        2487 --line560
                        2488 ..lin.D.3A.5CRenesas_Electronics.5CD1x_RGL.5Crgl_ghs_D1Lx_obj_V1.2E2.2E0.5Cvlib.5Capp.5Cgfx_apps.5Csimple_draw_d1l2.5Ctarget.5Cd1lx_mango_ghs.5Cobj.5Cdio.114::
                        2489 .LDWlin114:
00000ffa e1570d00       2490 	ld.hu	12[r1],r10

                                                                      Page 42
                                                              C:\Users\YINGAO~1\AppData\Local\Temp\gh_00005601.si
00000ffe 016a           2491 	mov	1,r13
00001000 ee6fc268       2492 	shl	r14,r13,r13
00001004 4a69           2493 	and	r10,r13
00001006 c205*          2494 	be	.L1326
                        2495 --561:             {
                        2496 --562:                 *pVal = 0x01;
                        2497 --line562
                        2498 ..lin.D.3A.5CRenesas_Electronics.5CD1x_RGL.5Crgl_ghs_D1Lx_obj_V1.2E2.2E0.5Cvlib.5Capp.5Cgfx_apps.5Csimple_draw_d1l2.5Ctarget.5Cd1lx_mango_ghs.5Cobj.5Cdio.115::
                        2499 .LDWlin115:
00001008 016a           2500 	mov	1,r13
0000100a 806b           2501 	sst.b	r13,0[ep]
0000100c a505*          2502 	br	.L1328
                        2503 .L1326:
                        2504 --563:             }
                        2505 --564:             else
                        2506 --565:             {
                        2507 --566:                 *pVal = 0x00;
                        2508 --line566
                        2509 ..lin.D.3A.5CRenesas_Electronics.5CD1x_RGL.5Crgl_ghs_D1Lx_obj_V1.2E2.2E0.5Cvlib.5Capp.5Cgfx_apps.5Csimple_draw_d1l2.5Ctarget.5Cd1lx_mango_ghs.5Cobj.5Cdio.116::
                        2510 .LDWlin116:
0000100e 8003           2511 	sst.b	zero,0[ep]
                        2512 .L1328:
00001010 b57d*          2513 	br	.L1315
                        2514 .L1329:
                        2515 --567:             }
                        2516 --568:             break;
                        2517 --569:         case PORT_DIO_P3: /* P3_2~9 */
                        2518 --570:             if (GET_BIT(PORT_ISO.PPR3.UINT16, pin))
                        2519 --line570
                        2520 ..lin.D.3A.5CRenesas_Electronics.5CD1x_RGL.5Crgl_ghs_D1Lx_obj_V1.2E2.2E0.5Cvlib.5Capp.5Cgfx_apps.5Csimple_draw_d1l2.5Ctarget.5Cd1lx_mango_ghs.5Cobj.5Cdio.117::
                        2521 .LDWlin117:
00001012 e1578d00       2522 	ld.hu	140[r1],r10
00001016 016a           2523 	mov	1,r13
00001018 ee6fc268       2524 	shl	r14,r13,r13
0000101c 4a69           2525 	and	r10,r13
0000101e c205*          2526 	be	.L1330
                        2527 --571:             {
                        2528 --572:                 *pVal = 0x01;
                        2529 --line572
                        2530 ..lin.D.3A.5CRenesas_Electronics.5CD1x_RGL.5Crgl_ghs_D1Lx_obj_V1.2E2.2E0.5Cvlib.5Capp.5Cgfx_apps.5Csimple_draw_d1l2.5Ctarget.5Cd1lx_mango_ghs.5Cobj.5Cdio.118::
                        2531 .LDWlin118:
00001020 016a           2532 	mov	1,r13
00001022 806b           2533 	sst.b	r13,0[ep]
00001024 a505*          2534 	br	.L1332
                        2535 .L1330:
                        2536 --573:             }
                        2537 --574:             else
                        2538 --575:             {
                        2539 --576:                 *pVal = 0x00;
                        2540 --line576
                        2541 ..lin.D.3A.5CRenesas_Electronics.5CD1x_RGL.5Crgl_ghs_D1Lx_obj_V1.2E2.2E0.5Cvlib.5Capp.5Cgfx_apps.5Csimple_draw_d1l2.5Ctarget.5Cd1lx_mango_ghs.5Cobj.5Cdio.119::
                        2542 .LDWlin119:
00001026 8003           2543 	sst.b	zero,0[ep]
                        2544 .L1332:
00001028 f56d*          2545 	br	.L1315
                        2546 .L1333:
                        2547 --577:             }
                        2548 --578:             break;
                        2549 --579:         case PORT_DIO_P10: /* P10_0~11 */
                        2550 --580:             if (GET_BIT(PORT_ISO.PPR10.UINT16, pin))
                        2551 --line580

                                                                      Page 43
                                                              C:\Users\YINGAO~1\AppData\Local\Temp\gh_00005601.si
                        2552 ..lin.D.3A.5CRenesas_Electronics.5CD1x_RGL.5Crgl_ghs_D1Lx_obj_V1.2E2.2E0.5Cvlib.5Capp.5Cgfx_apps.5Csimple_draw_d1l2.5Ctarget.5Cd1lx_mango_ghs.5Cobj.5Cdio.120::
                        2553 .LDWlin120:
0000102a e1574d02       2554 	ld.hu	588[r1],r10
0000102e 016a           2555 	mov	1,r13
00001030 ee6fc268       2556 	shl	r14,r13,r13
00001034 4a69           2557 	and	r10,r13
00001036 c205*          2558 	be	.L1334
                        2559 --581:             {
                        2560 --582:                 *pVal = 0x01;
                        2561 --line582
                        2562 ..lin.D.3A.5CRenesas_Electronics.5CD1x_RGL.5Crgl_ghs_D1Lx_obj_V1.2E2.2E0.5Cvlib.5Capp.5Cgfx_apps.5Csimple_draw_d1l2.5Ctarget.5Cd1lx_mango_ghs.5Cobj.5Cdio.121::
                        2563 .LDWlin121:
00001038 016a           2564 	mov	1,r13
0000103a 806b           2565 	sst.b	r13,0[ep]
0000103c a505*          2566 	br	.L1336
                        2567 .L1334:
                        2568 --583:             }
                        2569 --584:             else
                        2570 --585:             {
                        2571 --586:                 *pVal = 0x00;
                        2572 --line586
                        2573 ..lin.D.3A.5CRenesas_Electronics.5CD1x_RGL.5Crgl_ghs_D1Lx_obj_V1.2E2.2E0.5Cvlib.5Capp.5Cgfx_apps.5Csimple_draw_d1l2.5Ctarget.5Cd1lx_mango_ghs.5Cobj.5Cdio.122::
                        2574 .LDWlin122:
0000103e 8003           2575 	sst.b	zero,0[ep]
                        2576 .L1336:
00001040 b565*          2577 	br	.L1315
                        2578 .L1337:
                        2579 --587:             }
                        2580 --588:             break;
                        2581 --589:         case PORT_DIO_P11: /* P11_0~3 */
                        2582 --590:             if (GET_BIT(PORT_ISO.PPR11.UINT16, pin))
                        2583 --line590
                        2584 ..lin.D.3A.5CRenesas_Electronics.5CD1x_RGL.5Crgl_ghs_D1Lx_obj_V1.2E2.2E0.5Cvlib.5Capp.5Cgfx_apps.5Csimple_draw_d1l2.5Ctarget.5Cd1lx_mango_ghs.5Cobj.5Cdio.123::
                        2585 .LDWlin123:
00001042 e1578d02       2586 	ld.hu	652[r1],r10
00001046 016a           2587 	mov	1,r13
00001048 ee6fc268       2588 	shl	r14,r13,r13
0000104c 4a69           2589 	and	r10,r13
0000104e c205*          2590 	be	.L1338
                        2591 --591:             {
                        2592 --592:                 *pVal = 0x01;
                        2593 --line592
                        2594 ..lin.D.3A.5CRenesas_Electronics.5CD1x_RGL.5Crgl_ghs_D1Lx_obj_V1.2E2.2E0.5Cvlib.5Capp.5Cgfx_apps.5Csimple_draw_d1l2.5Ctarget.5Cd1lx_mango_ghs.5Cobj.5Cdio.124::
                        2595 .LDWlin124:
00001050 016a           2596 	mov	1,r13
00001052 806b           2597 	sst.b	r13,0[ep]
00001054 a505*          2598 	br	.L1340
                        2599 .L1338:
                        2600 --593:             }
                        2601 --594:             else
                        2602 --595:             {
                        2603 --596:                 *pVal = 0x00;
                        2604 --line596
                        2605 ..lin.D.3A.5CRenesas_Electronics.5CD1x_RGL.5Crgl_ghs_D1Lx_obj_V1.2E2.2E0.5Cvlib.5Capp.5Cgfx_apps.5Csimple_draw_d1l2.5Ctarget.5Cd1lx_mango_ghs.5Cobj.5Cdio.125::
                        2606 .LDWlin125:
00001056 8003           2607 	sst.b	zero,0[ep]
                        2608 .L1340:
00001058 f555*          2609 	br	.L1315
                        2610 .L1341:
                        2611 --597:             }
                        2612 --598:             break;

                                                                      Page 44
                                                              C:\Users\YINGAO~1\AppData\Local\Temp\gh_00005601.si
                        2613 --599:         case PORT_DIO_P16: /* P16_0~11 */
                        2614 --600:             if (GET_BIT(PORT_ISO.PPR16.UINT16, pin))
                        2615 --line600
                        2616 ..lin.D.3A.5CRenesas_Electronics.5CD1x_RGL.5Crgl_ghs_D1Lx_obj_V1.2E2.2E0.5Cvlib.5Capp.5Cgfx_apps.5Csimple_draw_d1l2.5Ctarget.5Cd1lx_mango_ghs.5Cobj.5Cdio.126::
                        2617 .LDWlin126:
0000105a e157cd03       2618 	ld.hu	972[r1],r10
0000105e 016a           2619 	mov	1,r13
00001060 ee6fc268       2620 	shl	r14,r13,r13
00001064 4a69           2621 	and	r10,r13
00001066 c205*          2622 	be	.L1342
                        2623 --601:             {
                        2624 --602:                 *pVal = 0x01;
                        2625 --line602
                        2626 ..lin.D.3A.5CRenesas_Electronics.5CD1x_RGL.5Crgl_ghs_D1Lx_obj_V1.2E2.2E0.5Cvlib.5Capp.5Cgfx_apps.5Csimple_draw_d1l2.5Ctarget.5Cd1lx_mango_ghs.5Cobj.5Cdio.127::
                        2627 .LDWlin127:
00001068 016a           2628 	mov	1,r13
0000106a 806b           2629 	sst.b	r13,0[ep]
0000106c a505*          2630 	br	.L1344
                        2631 .L1342:
                        2632 --603:             }
                        2633 --604:             else
                        2634 --605:             {
                        2635 --606:                 *pVal = 0x00;
                        2636 --line606
                        2637 ..lin.D.3A.5CRenesas_Electronics.5CD1x_RGL.5Crgl_ghs_D1Lx_obj_V1.2E2.2E0.5Cvlib.5Capp.5Cgfx_apps.5Csimple_draw_d1l2.5Ctarget.5Cd1lx_mango_ghs.5Cobj.5Cdio.128::
                        2638 .LDWlin128:
0000106e 8003           2639 	sst.b	zero,0[ep]
                        2640 .L1344:
00001070 b54d*          2641 	br	.L1315
                        2642 .L1345:
                        2643 --607:             }
                        2644 --608:             break;
                        2645 --609:         case PORT_DIO_P17: /* P17_0~11 */
                        2646 --610:             if (GET_BIT(PORT_ISO.PPR17.UINT16, pin))
                        2647 --line610
                        2648 ..lin.D.3A.5CRenesas_Electronics.5CD1x_RGL.5Crgl_ghs_D1Lx_obj_V1.2E2.2E0.5Cvlib.5Capp.5Cgfx_apps.5Csimple_draw_d1l2.5Ctarget.5Cd1lx_mango_ghs.5Cobj.5Cdio.129::
                        2649 .LDWlin129:
00001072 e1570d04       2650 	ld.hu	1036[r1],r10
00001076 016a           2651 	mov	1,r13
00001078 ee6fc268       2652 	shl	r14,r13,r13
0000107c 4a69           2653 	and	r10,r13
0000107e c205*          2654 	be	.L1346
                        2655 --611:             {
                        2656 --612:                 *pVal = 0x01;
                        2657 --line612
                        2658 ..lin.D.3A.5CRenesas_Electronics.5CD1x_RGL.5Crgl_ghs_D1Lx_obj_V1.2E2.2E0.5Cvlib.5Capp.5Cgfx_apps.5Csimple_draw_d1l2.5Ctarget.5Cd1lx_mango_ghs.5Cobj.5Cdio.130::
                        2659 .LDWlin130:
00001080 016a           2660 	mov	1,r13
00001082 806b           2661 	sst.b	r13,0[ep]
00001084 a505*          2662 	br	.L1348
                        2663 .L1346:
                        2664 --613:             }
                        2665 --614:             else
                        2666 --615:             {
                        2667 --616:                 *pVal = 0x00;
                        2668 --line616
                        2669 ..lin.D.3A.5CRenesas_Electronics.5CD1x_RGL.5Crgl_ghs_D1Lx_obj_V1.2E2.2E0.5Cvlib.5Capp.5Cgfx_apps.5Csimple_draw_d1l2.5Ctarget.5Cd1lx_mango_ghs.5Cobj.5Cdio.131::
                        2670 .LDWlin131:
00001086 8003           2671 	sst.b	zero,0[ep]
                        2672 .L1348:
00001088 f53d*          2673 	br	.L1315

                                                                      Page 45
                                                              C:\Users\YINGAO~1\AppData\Local\Temp\gh_00005601.si
                        2674 .L1349:
                        2675 --617:             }
                        2676 --618:             break;
                        2677 --619:         case PORT_DIO_P21: /* P21_0~5 */
                        2678 --620:             if (GET_BIT(PORT_ISO.PPR21.UINT16, pin))
                        2679 --line620
                        2680 ..lin.D.3A.5CRenesas_Electronics.5CD1x_RGL.5Crgl_ghs_D1Lx_obj_V1.2E2.2E0.5Cvlib.5Capp.5Cgfx_apps.5Csimple_draw_d1l2.5Ctarget.5Cd1lx_mango_ghs.5Cobj.5Cdio.132::
                        2681 .LDWlin132:
0000108a e1570d05       2682 	ld.hu	1292[r1],r10
0000108e 016a           2683 	mov	1,r13
00001090 ee6fc268       2684 	shl	r14,r13,r13
00001094 4a69           2685 	and	r10,r13
00001096 c205*          2686 	be	.L1350
                        2687 --621:             {
                        2688 --622:                 *pVal = 0x01;
                        2689 --line622
                        2690 ..lin.D.3A.5CRenesas_Electronics.5CD1x_RGL.5Crgl_ghs_D1Lx_obj_V1.2E2.2E0.5Cvlib.5Capp.5Cgfx_apps.5Csimple_draw_d1l2.5Ctarget.5Cd1lx_mango_ghs.5Cobj.5Cdio.133::
                        2691 .LDWlin133:
00001098 016a           2692 	mov	1,r13
0000109a 806b           2693 	sst.b	r13,0[ep]
0000109c a505*          2694 	br	.L1352
                        2695 .L1350:
                        2696 --623:             }
                        2697 --624:             else
                        2698 --625:             {
                        2699 --626:                 *pVal = 0x00;
                        2700 --line626
                        2701 ..lin.D.3A.5CRenesas_Electronics.5CD1x_RGL.5Crgl_ghs_D1Lx_obj_V1.2E2.2E0.5Cvlib.5Capp.5Cgfx_apps.5Csimple_draw_d1l2.5Ctarget.5Cd1lx_mango_ghs.5Cobj.5Cdio.134::
                        2702 .LDWlin134:
0000109e 8003           2703 	sst.b	zero,0[ep]
                        2704 .L1352:
000010a0 b535*          2705 	br	.L1315
                        2706 .L1353:
                        2707 --627:             }
                        2708 --628:             break;
                        2709 --629:         case PORT_DIO_P42: /* P42_7~10 */
                        2710 --630:             if (GET_BIT(PORT_ISO.PPR42.UINT16, pin))
                        2711 --line630
                        2712 ..lin.D.3A.5CRenesas_Electronics.5CD1x_RGL.5Crgl_ghs_D1Lx_obj_V1.2E2.2E0.5Cvlib.5Capp.5Cgfx_apps.5Csimple_draw_d1l2.5Ctarget.5Cd1lx_mango_ghs.5Cobj.5Cdio.135::
                        2713 .LDWlin135:
000010a2 e1574d0a       2714 	ld.hu	2636[r1],r10
000010a6 016a           2715 	mov	1,r13
000010a8 ee6fc268       2716 	shl	r14,r13,r13
000010ac 4a69           2717 	and	r10,r13
000010ae c205*          2718 	be	.L1354
                        2719 --631:             {
                        2720 --632:                 *pVal = 0x01;
                        2721 --line632
                        2722 ..lin.D.3A.5CRenesas_Electronics.5CD1x_RGL.5Crgl_ghs_D1Lx_obj_V1.2E2.2E0.5Cvlib.5Capp.5Cgfx_apps.5Csimple_draw_d1l2.5Ctarget.5Cd1lx_mango_ghs.5Cobj.5Cdio.136::
                        2723 .LDWlin136:
000010b0 016a           2724 	mov	1,r13
000010b2 806b           2725 	sst.b	r13,0[ep]
000010b4 a505*          2726 	br	.L1356
                        2727 .L1354:
                        2728 --633:             }
                        2729 --634:             else
                        2730 --635:             {
                        2731 --636:                 *pVal = 0x00;
                        2732 --line636
                        2733 ..lin.D.3A.5CRenesas_Electronics.5CD1x_RGL.5Crgl_ghs_D1Lx_obj_V1.2E2.2E0.5Cvlib.5Capp.5Cgfx_apps.5Csimple_draw_d1l2.5Ctarget.5Cd1lx_mango_ghs.5Cobj.5Cdio.137::
                        2734 .LDWlin137:

                                                                      Page 46
                                                              C:\Users\YINGAO~1\AppData\Local\Temp\gh_00005601.si
000010b6 8003           2735 	sst.b	zero,0[ep]
                        2736 .L1356:
000010b8 f525*          2737 	br	.L1315
                        2738 .L1357:
                        2739 --637:             }
                        2740 --638:             break;
                        2741 --639:         case PORT_DIO_P43: /* P43_0~1 */
                        2742 --640:             if (GET_BIT(PORT_ISO.PPR43.UINT16, pin))
                        2743 --line640
                        2744 ..lin.D.3A.5CRenesas_Electronics.5CD1x_RGL.5Crgl_ghs_D1Lx_obj_V1.2E2.2E0.5Cvlib.5Capp.5Cgfx_apps.5Csimple_draw_d1l2.5Ctarget.5Cd1lx_mango_ghs.5Cobj.5Cdio.138::
                        2745 .LDWlin138:
000010ba e1578d0a       2746 	ld.hu	2700[r1],r10
000010be 016a           2747 	mov	1,r13
000010c0 ee6fc268       2748 	shl	r14,r13,r13
000010c4 4a69           2749 	and	r10,r13
000010c6 c205*          2750 	be	.L1358
                        2751 --641:             {
                        2752 --642:                 *pVal = 0x01;
                        2753 --line642
                        2754 ..lin.D.3A.5CRenesas_Electronics.5CD1x_RGL.5Crgl_ghs_D1Lx_obj_V1.2E2.2E0.5Cvlib.5Capp.5Cgfx_apps.5Csimple_draw_d1l2.5Ctarget.5Cd1lx_mango_ghs.5Cobj.5Cdio.139::
                        2755 .LDWlin139:
000010c8 016a           2756 	mov	1,r13
000010ca 806b           2757 	sst.b	r13,0[ep]
000010cc a505*          2758 	br	.L1360
                        2759 .L1358:
                        2760 --643:             }
                        2761 --644:             else
                        2762 --645:             {
                        2763 --646:                 *pVal = 0x00;
                        2764 --line646
                        2765 ..lin.D.3A.5CRenesas_Electronics.5CD1x_RGL.5Crgl_ghs_D1Lx_obj_V1.2E2.2E0.5Cvlib.5Capp.5Cgfx_apps.5Csimple_draw_d1l2.5Ctarget.5Cd1lx_mango_ghs.5Cobj.5Cdio.140::
                        2766 .LDWlin140:
000010ce 8003           2767 	sst.b	zero,0[ep]
                        2768 .L1360:
000010d0 b51d*          2769 	br	.L1315
                        2770 .L1361:
                        2771 --647:             }
                        2772 --648:             break;
                        2773 --649:         case PORT_DIO_P44: /* P44_1~11 */
                        2774 --650:             if (GET_BIT(PORT_ISO.PPR44.UINT16, pin))
                        2775 --line650
                        2776 ..lin.D.3A.5CRenesas_Electronics.5CD1x_RGL.5Crgl_ghs_D1Lx_obj_V1.2E2.2E0.5Cvlib.5Capp.5Cgfx_apps.5Csimple_draw_d1l2.5Ctarget.5Cd1lx_mango_ghs.5Cobj.5Cdio.141::
                        2777 .LDWlin141:
000010d2 e157cd0a       2778 	ld.hu	2764[r1],r10
000010d6 016a           2779 	mov	1,r13
000010d8 ee6fc268       2780 	shl	r14,r13,r13
000010dc 4a69           2781 	and	r10,r13
000010de c205*          2782 	be	.L1362
                        2783 --651:             {
                        2784 --652:                 *pVal = 0x01;
                        2785 --line652
                        2786 ..lin.D.3A.5CRenesas_Electronics.5CD1x_RGL.5Crgl_ghs_D1Lx_obj_V1.2E2.2E0.5Cvlib.5Capp.5Cgfx_apps.5Csimple_draw_d1l2.5Ctarget.5Cd1lx_mango_ghs.5Cobj.5Cdio.142::
                        2787 .LDWlin142:
000010e0 016a           2788 	mov	1,r13
000010e2 806b           2789 	sst.b	r13,0[ep]
000010e4 a505*          2790 	br	.L1364
                        2791 .L1362:
                        2792 --653:             }
                        2793 --654:             else
                        2794 --655:             {
                        2795 --656:                 *pVal = 0x00;

                                                                      Page 47
                                                              C:\Users\YINGAO~1\AppData\Local\Temp\gh_00005601.si
                        2796 --line656
                        2797 ..lin.D.3A.5CRenesas_Electronics.5CD1x_RGL.5Crgl_ghs_D1Lx_obj_V1.2E2.2E0.5Cvlib.5Capp.5Cgfx_apps.5Csimple_draw_d1l2.5Ctarget.5Cd1lx_mango_ghs.5Cobj.5Cdio.143::
                        2798 .LDWlin143:
000010e6 8003           2799 	sst.b	zero,0[ep]
                        2800 .L1364:
000010e8 f50d*          2801 	br	.L1315
                        2802 .L1365:
                        2803 --657:             }
                        2804 --658:             break;
                        2805 --659:         case PORT_DIO_P45: /* P45_0~13 */
                        2806 --660:             if (GET_BIT(PORT_ISO.PPR45.UINT16, pin))
                        2807 --line660
                        2808 ..lin.D.3A.5CRenesas_Electronics.5CD1x_RGL.5Crgl_ghs_D1Lx_obj_V1.2E2.2E0.5Cvlib.5Capp.5Cgfx_apps.5Csimple_draw_d1l2.5Ctarget.5Cd1lx_mango_ghs.5Cobj.5Cdio.144::
                        2809 .LDWlin144:
000010ea e1570d0b       2810 	ld.hu	2828[r1],r10
000010ee 016a           2811 	mov	1,r13
000010f0 ee6fc268       2812 	shl	r14,r13,r13
000010f4 4a69           2813 	and	r10,r13
000010f6 c205*          2814 	be	.L1366
                        2815 --661:             {
                        2816 --662:                 *pVal = 0x01;
                        2817 --line662
                        2818 ..lin.D.3A.5CRenesas_Electronics.5CD1x_RGL.5Crgl_ghs_D1Lx_obj_V1.2E2.2E0.5Cvlib.5Capp.5Cgfx_apps.5Csimple_draw_d1l2.5Ctarget.5Cd1lx_mango_ghs.5Cobj.5Cdio.145::
                        2819 .LDWlin145:
000010f8 016a           2820 	mov	1,r13
000010fa 806b           2821 	sst.b	r13,0[ep]
000010fc a505*          2822 	br	.L1368
                        2823 .L1366:
                        2824 --663:             }
                        2825 --664:             else
                        2826 --665:             {
                        2827 --666:                 *pVal = 0x00;
                        2828 --line666
                        2829 ..lin.D.3A.5CRenesas_Electronics.5CD1x_RGL.5Crgl_ghs_D1Lx_obj_V1.2E2.2E0.5Cvlib.5Capp.5Cgfx_apps.5Csimple_draw_d1l2.5Ctarget.5Cd1lx_mango_ghs.5Cobj.5Cdio.146::
                        2830 .LDWlin146:
000010fe 8003           2831 	sst.b	zero,0[ep]
                        2832 .L1368:
00001100 b505*          2833 	br	.L1315
                        2834 .L1369:
                        2835 --667:             }
                        2836 --668:             break;
                        2837 --669:         default:
                        2838 --670:             ret = FALSE;
                        2839 --line670
                        2840 ..lin.D.3A.5CRenesas_Electronics.5CD1x_RGL.5Crgl_ghs_D1Lx_obj_V1.2E2.2E0.5Cvlib.5Capp.5Cgfx_apps.5Csimple_draw_d1l2.5Ctarget.5Cd1lx_mango_ghs.5Cobj.5Cdio.147::
                        2841 .LDWlin147:
00001102 0062           2842 	mov	0,r12
00001104 0000           2843 	nop
                        2844 .L1315:
                        2845 --671:             break;
                        2846 --672:     }
                        2847 --674:     return ret;
00001106 0c50           2848 	mov	r12,r10
                        2849 --	    .ef
                        2850 .LDW71:
00001108 7f00           2851 	jmp	[lp]
                        2852 	.type	_dio_GPIO_Get,@function
                        2853 	.size	_dio_GPIO_Get,.-_dio_GPIO_Get
                        2854 	.type	_dio_GPIO_Get..D.3A.5CRenesas_Electronics.5CD1x_RGL.5Crgl_ghs_D1Lx_obj_V1.2E2.2E0.5Cvlib.5Capp.5Cgfx_apps.5Csimple_draw_d1l2.5Ctarget.5Cd1lx_mango_ghs.5Cobj.5Cdio.,@function
                        2855 	.size	_dio_GPIO_Get..D.3A.5CRenesas_Electronics.5CD1x_RGL.5Crgl_ghs_D1Lx_obj_V1.2E2.2E0.5Cvlib.5Capp.5Cgfx_apps.5Csimple_draw_d1l2.5Ctarget.5Cd1lx_mango_ghs.5Cobj.5Cdio.,.-_dio_GPIO_Get..D.3A.5CRenesas_Electronics.5CD1x_RGL.5Crgl_ghs_D1Lx_obj_V1.2E2.2E0.5Cvlib.5Capp.5Cgfx_apps.5Csimple_draw_d1l2.5Ctarget.5Cd1lx_mango_ghs.5Cobj.5Cdio.
                        2856 	.align	2

                                                                      Page 48
                                                              C:\Users\YINGAO~1\AppData\Local\Temp\gh_00005601.si
                        2857 .LDW81:
                        2858 --_ret	r12	local
                        2859 
                        2860 --_port	r11	param
                        2861 --_pin	r14	param
                        2862 --_pVal	ep	param
                        2863 
                        2864 	.section ".bss","awb"
                        2865 .L1496:
                        2866 	.type	.L1496,@object
                        2867 	.size	.L1496,0
                        2868 	.data
                        2869 	.ghsnote jtable,2097156,.L1498,.L1498,.L1498,13
                        2870 	.text
                        2871 
                        2872 --675: }
                        2873 
                        2874 --678: /***************************************************
                        2875 --679: * Function: DIO_GetInitStatus
                        2876 --680: * Description: DIO
                        2877 --681: * Parameters: none
                        2878 --682: * Returns:
                        2879 --683: *            FALSE(0): 
                        2880 --684: *            TRUE(1): 
                        2881 --685: *
                        2882 --686: * $Create & Verlog:$
                        2883 --687: * Author:Qinhui.Shen  Date:2016-10-14   Version:V1.0
                        2884 --688: ****************************************************/
                        2885 --689: BOOL  DIO_GetInitStatus(void)
                        2886 	.align	2
                        2887 	.align	2
                        2888 	.align	2
                        2889 	.global	_DIO_GetInitStatus
                        2890 _DIO_GetInitStatus:
                        2891 --	    .bf
                        2892 .LDW91:
                        2893 --690: {
                        2894 --691:     return Dio_Status;
0000110a 2a0600000000*  2895 	mov	_Dio_Status,r10
00001110 8a570100       2896 	ld.bu	0[r10],r10
                        2897 --	    .ef
                        2898 .LDW02:
00001114 7f00           2899 	jmp	[lp]
                        2900 	.type	_DIO_GetInitStatus,@function
                        2901 	.size	_DIO_GetInitStatus,.-_DIO_GetInitStatus
                        2902 	.align	2
                        2903 .LDW12:
                        2904 
                        2905 	.data
                        2906 .L1704:
                        2907 	.type	.L1704,@object
                        2908 	.size	.L1704,0
                        2909 	.global	_Dio_Status..D.3A.5CRenesas_Electronics.5CD1x_RGL.5Crgl_ghs_D1Lx_obj_V1.2E2.2E0.5Cvlib.5Capp.5Cgfx_apps.5Csimple_draw_d1l2.5Ctarget.5Cd1lx_mango_ghs.5Cobj.5Cdio.
                        2910 _Dio_Status..D.3A.5CRenesas_Electronics.5CD1x_RGL.5Crgl_ghs_D1Lx_obj_V1.2E2.2E0.5Cvlib.5Capp.5Cgfx_apps.5Csimple_draw_d1l2.5Ctarget.5Cd1lx_mango_ghs.5Cobj.5Cdio.:
                        2911 	.type	_Dio_Status..D.3A.5CRenesas_Electronics.5CD1x_RGL.5Crgl_ghs_D1Lx_obj_V1.2E2.2E0.5Cvlib.5Capp.5Cgfx_apps.5Csimple_draw_d1l2.5Ctarget.5Cd1lx_mango_ghs.5Cobj.5Cdio.,@object
                        2912 	.size	_Dio_Status..D.3A.5CRenesas_Electronics.5CD1x_RGL.5Crgl_ghs_D1Lx_obj_V1.2E2.2E0.5Cvlib.5Capp.5Cgfx_apps.5Csimple_draw_d1l2.5Ctarget.5Cd1lx_mango_ghs.5Cobj.5Cdio.,1
00000000 00             2913 _Dio_Status:	.byte	0
                        2914 	.type	_Dio_Status,@object
                        2915 	.size	_Dio_Status,1
                        2916 	.text
                        2917 

                                                                      Page 49
                                                              C:\Users\YINGAO~1\AppData\Local\Temp\gh_00005601.si
                        2918 --692: }
                        2919 
                        2920 --693: /***************************************************
                        2921 --694: * Function: DIO_Init
                        2922 --695: * Description: DIO initialization.
                        2923 --696: * Parameters: none
                        2924 --697: * Returns:
                        2925 --698: *
                        2926 --699: * $Create & Verlog:$
                        2927 --700: * Author:Qinhui.Shen  Date:2016-10-14   Version:V1.0
                        2928 --701: ****************************************************/
                        2929 --702: void  DIO_Init(void)
                        2930 	.align	2
                        2931 	.align	2
                        2932 	.global	_DIO_Init
                        2933 _DIO_Init:
00001116 8007e170       2934 	prepare	{r25,r26,r27,r28,r29,r31},0
0000111a 3d0600000000*  2935 	mov	_Dio_Status,r29
00001120 3b0600000000*  2936 	mov	_GpioList,r27
00001126 1dc8           2937 	mov	r29,r25
                        2938 --	    .bf
                        2939 .LDW22:
                        2940 --703: {
                        2941 --704:     U8 k = 0;
00001128 00e2           2942 	mov	0,r28
                        2943 --705:     BOOL res = TRUE;
0000112a 01d2           2944 	mov	1,r26
                        2945 --707:    for (k = 0; k < INDEX_DIO_ALL; k++)
0000112c 00e2           2946 	mov	0,r28
0000112e 0000           2947 	nop
                        2948 .L1720:
                        2949 --708:     {
                        2950 --709:         res = dio_GPIO_Init(GpioList[k].port, GpioList[k].pin, GpioList[k].dir, GpioList[k].initval);
00001130 1cf0           2951 	mov	r28,ep
00001132 c4f2           2952 	shl	4,ep
00001134 1e08           2953 	mov	ep,r1
00001136 dbf1           2954 	add	r27,ep
00001138 0035           2955 	sld.w	0[ep],r6
0000113a 01f0           2956 	mov	r1,ep
0000113c dbf1           2957 	add	r27,ep
0000113e 6438           2958 	sld.bu	4[ep],r7
00001140 1cf0           2959 	mov	r28,ep
00001142 c4f2           2960 	shl	4,ep
00001144 1e08           2961 	mov	ep,r1
00001146 dbf1           2962 	add	r27,ep
00001148 0445           2963 	sld.w	8[ep],r8
0000114a 01f0           2964 	mov	r1,ep
0000114c dbf1           2965 	add	r27,ep
0000114e 6c48           2966 	sld.bu	12[ep],r9
                        2967 	jarl	_dio_GPIO_Init,lp
                        2967 <EXPANSION BEGIN>
                        2967 jarl22 _dio_GPIO_Init , lp 
00001150 bfffb0ee*      2967 <EXPANSION END>
00001154 0ad0           2968 	mov	r10,r26
                        2969 --710:         if (FALSE == res)
                        2970 --line710
                        2971 ..lin.D.3A.5CRenesas_Electronics.5CD1x_RGL.5Crgl_ghs_D1Lx_obj_V1.2E2.2E0.5Cvlib.5Capp.5Cgfx_apps.5Csimple_draw_d1l2.5Ctarget.5Cd1lx_mango_ghs.5Cobj.5Cdio.148::
                        2972 .LDWlin148:
00001156 e0d1           2973 	cmp	zero,r26
00001158 ca05*          2974 	bne	.L1724
                        2975 --711:         {

                                                                      Page 50
                                                              C:\Users\YINGAO~1\AppData\Local\Temp\gh_00005601.si
                        2976 --712:             Dio_Status = FALSE;
                        2977 --line712
                        2978 ..lin.D.3A.5CRenesas_Electronics.5CD1x_RGL.5Crgl_ghs_D1Lx_obj_V1.2E2.2E0.5Cvlib.5Capp.5Cgfx_apps.5Csimple_draw_d1l2.5Ctarget.5Cd1lx_mango_ghs.5Cobj.5Cdio.149::
                        2979 .LDWlin149:
0000115a 5d070000       2980 	st.b	zero,0[r29]
                        2981 --713:             return;
0000115e a50d*          2982 	br	.L1716
                        2983 .L1724:
                        2984 --714:         }
                        2985 --715: 		else
                        2986 --716: 		{
                        2987 --line707
                        2988 ..lin.D.3A.5CRenesas_Electronics.5CD1x_RGL.5Crgl_ghs_D1Lx_obj_V1.2E2.2E0.5Cvlib.5Capp.5Cgfx_apps.5Csimple_draw_d1l2.5Ctarget.5Cd1lx_mango_ghs.5Cobj.5Cdio.150::
                        2989 .LDWlin150:
00001160 41e2           2990 	add	1,r28
00001162 9c00           2991 	zxb	r28
00001164 1c06e6ff       2992 	addi	-26,r28,zero
00001168 c9e5*          2993 	bnl	.L1720
                        2994 --717: 		}
                        2995 --718:     }
                        2996 --720:     Dio_Status = TRUE;
                        2997 --line720
                        2998 ..lin.D.3A.5CRenesas_Electronics.5CD1x_RGL.5Crgl_ghs_D1Lx_obj_V1.2E2.2E0.5Cvlib.5Capp.5Cgfx_apps.5Csimple_draw_d1l2.5Ctarget.5Cd1lx_mango_ghs.5Cobj.5Cdio.151::
                        2999 .LDWlin151:
0000116a 010a           3000 	mov	1,r1
0000116c 5d0f0000       3001 	st.b	r1,0[r29]
                        3002 --721: }
00001170 0000           3003 	nop
                        3004 .L1716:
                        3005 --	    .ef
                        3006 .LDW32:
00001172 4006ff70       3007 	dispose	0,{r25,r26,r27,r28,r29,r31},[lp]
                        3008 	.type	_DIO_Init,@function
                        3009 	.size	_DIO_Init,.-_DIO_Init
                        3010 	.align	2
                        3011 .LDW42:
                        3012 --_k	r28	local
                        3013 --_res	r26	local
                        3014 
                        3015 	.data
                        3016 	.text
                        3017 
                        3018 
                        3019 --723: /***************************************************
                        3020 --724: * Function: DIO_SetIOSts
                        3021 --725: * Description: IO
                        3022 --726: * Parameters:
                        3023 --727: *               Input:
                        3024 --728: *                    Index -IOIO
                        3025 --729: *                    pRes - 
                        3026 --730: *                    PinLevel - 
                        3027 --731: * Returns:
                        3028 --732: *           FALSE(0):
                        3029 --733: *           TRUE(1):
                        3030 --734: *
                        3031 --735: * $Create & Verlog:$
                        3032 --736: * Author:Qinhui.Shen  Date:2016-10-14   Version:V1.0
                        3033 --737: ****************************************************/
                        3034 --738: U8  DIO_SetIOSts(U16 Index,U8 PinLevel,PU8 pRes)
                        3035 	.align	2
                        3036 	.align	2

                                                                      Page 51
                                                              C:\Users\YINGAO~1\AppData\Local\Temp\gh_00005601.si
                        3037 	.global	_DIO_SetIOSts
                        3038 _DIO_SetIOSts:
00001176 8007e170       3039 	prepare	{r25,r26,r27,r28,r29,r31},0
0000117a c6e6ffff       3040 	andi	65535,r6,r28
0000117e c7ceff00       3041 	andi	255,r7,r25
00001182 08d0           3042 	mov	r8,r26
00001184 210600000000*  3043 	mov	_Dio_Status,r1
0000118a 3b0600000000*  3044 	mov	_GpioList,r27
                        3045 --	    .bf
                        3046 .LDW52:
                        3047 --739: {
                        3048 --740:     U8 res = RET_FAIL;
00001190 00ea           3049 	mov	0,r29
                        3050 --742:     if (FALSE == Dio_Status)
00001192 210600000000*  3051 	mov	_Dio_Status,r1
00001198 810f0100       3052 	ld.bu	0[r1],r1
0000119c e009           3053 	cmp	zero,r1
0000119e ba05*          3054 	bne	.L1804
                        3055 --743:     {
                        3056 --744:         res = RET_FAIL;
                        3057 --line744
                        3058 ..lin.D.3A.5CRenesas_Electronics.5CD1x_RGL.5Crgl_ghs_D1Lx_obj_V1.2E2.2E0.5Cvlib.5Capp.5Cgfx_apps.5Csimple_draw_d1l2.5Ctarget.5Cd1lx_mango_ghs.5Cobj.5Cdio.152::
                        3059 .LDWlin152:
000011a0 00ea           3060 	mov	0,r29
000011a2 b535*          3061 	br	.L1806
                        3062 .L1804:
                        3063 --745:     }
                        3064 --746:     else if ((NULL == pRes) || (Index >= INDEX_DIO_ALL))
                        3065 --line746
                        3066 ..lin.D.3A.5CRenesas_Electronics.5CD1x_RGL.5Crgl_ghs_D1Lx_obj_V1.2E2.2E0.5Cvlib.5Capp.5Cgfx_apps.5Csimple_draw_d1l2.5Ctarget.5Cd1lx_mango_ghs.5Cobj.5Cdio.153::
                        3067 .LDWlin153:
000011a4 e0d1           3068 	cmp	zero,r26
000011a6 c205*          3069 	be	.L1808
000011a8 1c06e6ff       3070 	addi	-26,r28,zero
000011ac b905*          3071 	bnl	.L1807
                        3072 .L1808:
                        3073 --747:     {
                        3074 --748:         res  = RET_INVALID;
                        3075 --line748
                        3076 ..lin.D.3A.5CRenesas_Electronics.5CD1x_RGL.5Crgl_ghs_D1Lx_obj_V1.2E2.2E0.5Cvlib.5Capp.5Cgfx_apps.5Csimple_draw_d1l2.5Ctarget.5Cd1lx_mango_ghs.5Cobj.5Cdio.154::
                        3077 .LDWlin154:
000011ae 02ea           3078 	mov	2,r29
000011b0 c52d*          3079 	br	.L1806
                        3080 .L1807:
                        3081 --749:     }
                        3082 --750:     else
                        3083 --751:     {
                        3084 --752:             if (DIR_DIO_OUTPUT != GpioList[Index].dir)
                        3085 --line752
                        3086 ..lin.D.3A.5CRenesas_Electronics.5CD1x_RGL.5Crgl_ghs_D1Lx_obj_V1.2E2.2E0.5Cvlib.5Capp.5Cgfx_apps.5Csimple_draw_d1l2.5Ctarget.5Cd1lx_mango_ghs.5Cobj.5Cdio.155::
                        3087 .LDWlin155:
000011b2 1cf0           3088 	mov	r28,ep
000011b4 c4f2           3089 	shl	4,ep
000011b6 dbf1           3090 	add	r27,ep
000011b8 040d           3091 	sld.w	8[ep],r1
000011ba e009           3092 	cmp	zero,r1
000011bc b205*          3093 	be	.L1811
                        3094 --753:             {
                        3095 --754:                 res  = RET_FAIL;
                        3096 --line754
                        3097 ..lin.D.3A.5CRenesas_Electronics.5CD1x_RGL.5Crgl_ghs_D1Lx_obj_V1.2E2.2E0.5Cvlib.5Capp.5Cgfx_apps.5Csimple_draw_d1l2.5Ctarget.5Cd1lx_mango_ghs.5Cobj.5Cdio.156::

                                                                      Page 52
                                                              C:\Users\YINGAO~1\AppData\Local\Temp\gh_00005601.si
                        3098 .LDWlin156:
000011be 00ea           3099 	mov	0,r29
000011c0 c525*          3100 	br	.L1806
                        3101 .L1811:
                        3102 --755:             }
                        3103 --756:             else if (INDEX_DIO_PIN16 == Index) /* exclude PWRCTL*/
                        3104 --line756
                        3105 ..lin.D.3A.5CRenesas_Electronics.5CD1x_RGL.5Crgl_ghs_D1Lx_obj_V1.2E2.2E0.5Cvlib.5Capp.5Cgfx_apps.5Csimple_draw_d1l2.5Ctarget.5Cd1lx_mango_ghs.5Cobj.5Cdio.157::
                        3106 .LDWlin157:
000011c2 69e2           3107 	cmp	9,r28
000011c4 ba05*          3108 	bne	.L1814
                        3109 --757:             {
                        3110 --758:                 res  = RET_FAIL;
                        3111 --line758
                        3112 ..lin.D.3A.5CRenesas_Electronics.5CD1x_RGL.5Crgl_ghs_D1Lx_obj_V1.2E2.2E0.5Cvlib.5Capp.5Cgfx_apps.5Csimple_draw_d1l2.5Ctarget.5Cd1lx_mango_ghs.5Cobj.5Cdio.158::
                        3113 .LDWlin158:
000011c6 00ea           3114 	mov	0,r29
000011c8 8525*          3115 	br	.L1806
                        3116 .L1814:
                        3117 --759:             }
                        3118 --760:             else if (FALSE == dio_GPIO_Set(GpioList[Index].port, GpioList[Index].pin, PinLevel))
                        3119 --line760
                        3120 ..lin.D.3A.5CRenesas_Electronics.5CD1x_RGL.5Crgl_ghs_D1Lx_obj_V1.2E2.2E0.5Cvlib.5Capp.5Cgfx_apps.5Csimple_draw_d1l2.5Ctarget.5Cd1lx_mango_ghs.5Cobj.5Cdio.159::
                        3121 .LDWlin159:
000011ca 1cf0           3122 	mov	r28,ep
000011cc c4f2           3123 	shl	4,ep
000011ce 1e08           3124 	mov	ep,r1
000011d0 1940           3125 	mov	r25,r8
000011d2 dbf1           3126 	add	r27,ep
000011d4 0035           3127 	sld.w	0[ep],r6
000011d6 01f0           3128 	mov	r1,ep
000011d8 dbf1           3129 	add	r27,ep
000011da 6438           3130 	sld.bu	4[ep],r7
                        3131 	jarl	_dio_GPIO_Set,lp
                        3131 <EXPANSION BEGIN>
                        3131 jarl22 _dio_GPIO_Set , lp 
000011dc bffff0fa*      3131 <EXPANSION END>
000011e0 e051           3132 	cmp	zero,r10
000011e2 ba05*          3133 	bne	.L1817
                        3134 --761:             {
                        3135 --762:                 res  = RET_FAIL;
                        3136 --line762
                        3137 ..lin.D.3A.5CRenesas_Electronics.5CD1x_RGL.5Crgl_ghs_D1Lx_obj_V1.2E2.2E0.5Cvlib.5Capp.5Cgfx_apps.5Csimple_draw_d1l2.5Ctarget.5Cd1lx_mango_ghs.5Cobj.5Cdio.160::
                        3138 .LDWlin160:
000011e4 00ea           3139 	mov	0,r29
000011e6 9515*          3140 	br	.L1806
                        3141 .L1817:
                        3142 --763:             }
                        3143 --764:             else if (FALSE == dio_GPIO_Get(GpioList[Index].port, GpioList[Index].pin, pRes)) /* read back. */
                        3144 --line764
                        3145 ..lin.D.3A.5CRenesas_Electronics.5CD1x_RGL.5Crgl_ghs_D1Lx_obj_V1.2E2.2E0.5Cvlib.5Capp.5Cgfx_apps.5Csimple_draw_d1l2.5Ctarget.5Cd1lx_mango_ghs.5Cobj.5Cdio.161::
                        3146 .LDWlin161:
000011e8 1cf0           3147 	mov	r28,ep
000011ea c4f2           3148 	shl	4,ep
000011ec 1e08           3149 	mov	ep,r1
000011ee 1a40           3150 	mov	r26,r8
000011f0 dbf1           3151 	add	r27,ep
000011f2 0035           3152 	sld.w	0[ep],r6
000011f4 01f0           3153 	mov	r1,ep
000011f6 dbf1           3154 	add	r27,ep
000011f8 6438           3155 	sld.bu	4[ep],r7

                                                                      Page 53
                                                              C:\Users\YINGAO~1\AppData\Local\Temp\gh_00005601.si
                        3156 	jarl	_dio_GPIO_Get,lp
                        3156 <EXPANSION BEGIN>
                        3156 jarl22 _dio_GPIO_Get , lp 
000011fa bfff6efd*      3156 <EXPANSION END>
000011fe e051           3157 	cmp	zero,r10
00001200 ba05*          3158 	bne	.L1820
                        3159 --765:             {
                        3160 --766:                 res  = RET_FAIL;
                        3161 --line766
                        3162 ..lin.D.3A.5CRenesas_Electronics.5CD1x_RGL.5Crgl_ghs_D1Lx_obj_V1.2E2.2E0.5Cvlib.5Capp.5Cgfx_apps.5Csimple_draw_d1l2.5Ctarget.5Cd1lx_mango_ghs.5Cobj.5Cdio.162::
                        3163 .LDWlin162:
00001202 00ea           3164 	mov	0,r29
00001204 a505*          3165 	br	.L1806
                        3166 .L1820:
                        3167 --767:             }
                        3168 --768:             else
                        3169 --769:             {
                        3170 --770:                 res  = RET_OK;
                        3171 --line770
                        3172 ..lin.D.3A.5CRenesas_Electronics.5CD1x_RGL.5Crgl_ghs_D1Lx_obj_V1.2E2.2E0.5Cvlib.5Capp.5Cgfx_apps.5Csimple_draw_d1l2.5Ctarget.5Cd1lx_mango_ghs.5Cobj.5Cdio.163::
                        3173 .LDWlin163:
00001206 01ea           3174 	mov	1,r29
                        3175 .L1806:
                        3176 --771:             }
                        3177 --772:     }
                        3178 --773:     return res ;
00001208 1d50           3179 	mov	r29,r10
                        3180 --	    .ef
                        3181 .LDW62:
0000120a 4006ff70       3182 	dispose	0,{r25,r26,r27,r28,r29,r31},[lp]
                        3183 	.type	_DIO_SetIOSts,@function
                        3184 	.size	_DIO_SetIOSts,.-_DIO_SetIOSts
                        3185 	.align	2
                        3186 .LDW72:
                        3187 --_res	r29	local
                        3188 
                        3189 --_Index	r28	param
                        3190 --_PinLevel	r25	param
                        3191 --_pRes	r26	param
                        3192 
                        3193 	.data
                        3194 	.text
                        3195 
                        3196 --774: }
                        3197 
                        3198 --776: /***************************************************
                        3199 --777: * Function: DIO_GetIOSts
                        3200 --778: * Description: IO
                        3201 --779: * Parameters:
                        3202 --780: *               Input:
                        3203 --781: *                    Index -IOIO
                        3204 --782: *                    PinLevel
                        3205 --783: *
                        3206 --784: * Returns:
                        3207 --785: *           FALSE(0):
                        3208 --786: *           TRUE(1):
                        3209 --787: *
                        3210 --788: * $Create & Verlog:$
                        3211 --789: * Author:Qinhui.Shen  Date:2016-10-14   Version:V1.0
                        3212 --790: ****************************************************/
                        3213 --791: U8  DIO_GetIOSts(U16 Index,PU8 PinLevel)

                                                                      Page 54
                                                              C:\Users\YINGAO~1\AppData\Local\Temp\gh_00005601.si
                        3214 	.align	2
                        3215 	.align	2
                        3216 	.global	_DIO_GetIOSts
                        3217 _DIO_GetIOSts:
0000120e 8007e110       3218 	prepare	{r27,r28,r29,r31},0
00001212 c6eeffff       3219 	andi	65535,r6,r29
00001216 07d8           3220 	mov	r7,r27
00001218 210600000000*  3221 	mov	_Dio_Status,r1
0000121e 3c0600000000*  3222 	mov	_GpioList,r28
                        3223 --	    .bf
                        3224 .LDW82:
                        3225 --792: {
                        3226 --793:    U8 dioiores;
                        3227 --795:     if (FALSE == Dio_Status)
00001224 210600000000*  3228 	mov	_Dio_Status,r1
0000122a 810f0100       3229 	ld.bu	0[r1],r1
0000122e e009           3230 	cmp	zero,r1
00001230 ba05*          3231 	bne	.L1920
                        3232 --796:     {
                        3233 --797:         dioiores = RET_FAIL;
                        3234 --line797
                        3235 ..lin.D.3A.5CRenesas_Electronics.5CD1x_RGL.5Crgl_ghs_D1Lx_obj_V1.2E2.2E0.5Cvlib.5Capp.5Cgfx_apps.5Csimple_draw_d1l2.5Ctarget.5Cd1lx_mango_ghs.5Cobj.5Cdio.164::
                        3236 .LDWlin164:
00001232 000a           3237 	mov	0,r1
00001234 e51d*          3238 	br	.L1922
                        3239 .L1920:
                        3240 --798:     }
                        3241 --799:     else if ((NULL == PinLevel) || (Index >= INDEX_DIO_ALL))
                        3242 --line799
                        3243 ..lin.D.3A.5CRenesas_Electronics.5CD1x_RGL.5Crgl_ghs_D1Lx_obj_V1.2E2.2E0.5Cvlib.5Capp.5Cgfx_apps.5Csimple_draw_d1l2.5Ctarget.5Cd1lx_mango_ghs.5Cobj.5Cdio.165::
                        3244 .LDWlin165:
00001236 e0d9           3245 	cmp	zero,r27
00001238 c205*          3246 	be	.L1924
0000123a 1d06e6ff       3247 	addi	-26,r29,zero
0000123e b905*          3248 	bnl	.L1923
                        3249 .L1924:
                        3250 --800:     {
                        3251 --801:         dioiores = RET_INVALID;
                        3252 --line801
                        3253 ..lin.D.3A.5CRenesas_Electronics.5CD1x_RGL.5Crgl_ghs_D1Lx_obj_V1.2E2.2E0.5Cvlib.5Capp.5Cgfx_apps.5Csimple_draw_d1l2.5Ctarget.5Cd1lx_mango_ghs.5Cobj.5Cdio.166::
                        3254 .LDWlin166:
00001240 020a           3255 	mov	2,r1
00001242 f515*          3256 	br	.L1922
                        3257 .L1923:
                        3258 --802:     }
                        3259 --803:     else
                        3260 --804:     {
                        3261 --805:         if (DIR_DIO_INPUT != GpioList[Index].dir)
                        3262 --line805
                        3263 ..lin.D.3A.5CRenesas_Electronics.5CD1x_RGL.5Crgl_ghs_D1Lx_obj_V1.2E2.2E0.5Cvlib.5Capp.5Cgfx_apps.5Csimple_draw_d1l2.5Ctarget.5Cd1lx_mango_ghs.5Cobj.5Cdio.167::
                        3264 .LDWlin167:
00001244 1df0           3265 	mov	r29,ep
00001246 c4f2           3266 	shl	4,ep
00001248 dcf1           3267 	add	r28,ep
0000124a 040d           3268 	sld.w	8[ep],r1
0000124c 610a           3269 	cmp	1,r1
0000124e b205*          3270 	be	.L1927
                        3271 --806:         {
                        3272 --807:             dioiores = RET_FAIL;
                        3273 --line807
                        3274 ..lin.D.3A.5CRenesas_Electronics.5CD1x_RGL.5Crgl_ghs_D1Lx_obj_V1.2E2.2E0.5Cvlib.5Capp.5Cgfx_apps.5Csimple_draw_d1l2.5Ctarget.5Cd1lx_mango_ghs.5Cobj.5Cdio.168::

                                                                      Page 55
                                                              C:\Users\YINGAO~1\AppData\Local\Temp\gh_00005601.si
                        3275 .LDWlin168:
00001250 000a           3276 	mov	0,r1
00001252 f50d*          3277 	br	.L1922
                        3278 .L1927:
                        3279 --808:         }
                        3280 --809:         else
                        3281 --810:         {
                        3282 --811:             if (TRUE ==dio_GPIO_Get(GpioList[Index].port, GpioList[Index].pin, PinLevel))
                        3283 --line811
                        3284 ..lin.D.3A.5CRenesas_Electronics.5CD1x_RGL.5Crgl_ghs_D1Lx_obj_V1.2E2.2E0.5Cvlib.5Capp.5Cgfx_apps.5Csimple_draw_d1l2.5Ctarget.5Cd1lx_mango_ghs.5Cobj.5Cdio.169::
                        3285 .LDWlin169:
00001254 1df0           3286 	mov	r29,ep
00001256 c4f2           3287 	shl	4,ep
00001258 1e08           3288 	mov	ep,r1
0000125a 1b40           3289 	mov	r27,r8
0000125c dcf1           3290 	add	r28,ep
0000125e 0035           3291 	sld.w	0[ep],r6
00001260 01f0           3292 	mov	r1,ep
00001262 dcf1           3293 	add	r28,ep
00001264 6438           3294 	sld.bu	4[ep],r7
                        3295 	jarl	_dio_GPIO_Get,lp
                        3295 <EXPANSION BEGIN>
                        3295 jarl22 _dio_GPIO_Get , lp 
00001266 bfff02fd*      3295 <EXPANSION END>
0000126a 6152           3296 	cmp	1,r10
0000126c aa05*          3297 	bne	.L1922
                        3298 --812:             {
                        3299 --813:                 dioiores = RET_OK;
                        3300 --line813
                        3301 ..lin.D.3A.5CRenesas_Electronics.5CD1x_RGL.5Crgl_ghs_D1Lx_obj_V1.2E2.2E0.5Cvlib.5Capp.5Cgfx_apps.5Csimple_draw_d1l2.5Ctarget.5Cd1lx_mango_ghs.5Cobj.5Cdio.170::
                        3302 .LDWlin170:
0000126e 010a           3303 	mov	1,r1
                        3304 .L1922:
                        3305 --814:             }
                        3306 --815:             else
                        3307 --816:             {
                        3308 --817:             }
                        3309 --818:         }
                        3310 --819:     }
                        3311 --820:     return dioiores;
00001270 0150           3312 	mov	r1,r10
                        3313 --	    .ef
                        3314 .LDW92:
00001272 4006ff10       3315 	dispose	0,{r27,r28,r29,r31},[lp]
                        3316 	.type	_DIO_GetIOSts,@function
                        3317 	.size	_DIO_GetIOSts,.-_DIO_GetIOSts
                        3318 	.align	2
                        3319 .LDW03:
                        3320 --_dioiores	r1	local
                        3321 
                        3322 --_Index	r29	param
                        3323 --_PinLevel	r27	param
                        3324 
                        3325 	.data
                        3326 	.text
                        3327 
                        3328 --821: }
                        3329 
                        3330 --823:  void DIO_GPIO_Dlayus(U32 cnt)
                        3331 	.align	2
                        3332 	.align	2

                                                                      Page 56
                                                              C:\Users\YINGAO~1\AppData\Local\Temp\gh_00005601.si
                        3333 	.global	_DIO_GPIO_Dlayus
                        3334 _DIO_GPIO_Dlayus:
00001276 0670           3335 	mov	r6,r14
                        3336 --	    .bf
                        3337 .LDW13:
                        3338 --824:     {
                        3339 --825:         U32 counter = 1000;
00001278 200ee803       3340 	movea	1000,zero,r1
                        3341 --826:         for( ;0 != cnt;cnt --)
0000127c e505*          3342 	br	.L2005
                        3343 .L2004:
                        3344 --827:             {
                        3345 --828:               for(; 0 != counter;counter--)
                        3346 --line828
                        3347 ..lin.D.3A.5CRenesas_Electronics.5CD1x_RGL.5Crgl_ghs_D1Lx_obj_V1.2E2.2E0.5Cvlib.5Capp.5Cgfx_apps.5Csimple_draw_d1l2.5Ctarget.5Cd1lx_mango_ghs.5Cobj.5Cdio.171::
                        3348 .LDWlin171:
0000127e a505*          3349 	br	.L2009
                        3350 .L2007:
                        3351 --829:                 {
                        3352 --line828
                        3353 ..lin.D.3A.5CRenesas_Electronics.5CD1x_RGL.5Crgl_ghs_D1Lx_obj_V1.2E2.2E0.5Cvlib.5Capp.5Cgfx_apps.5Csimple_draw_d1l2.5Ctarget.5Cd1lx_mango_ghs.5Cobj.5Cdio.172::
                        3354 .LDWlin172:
00001280 5f0a           3355 	add	-1,r1
                        3356 .L2009:
00001282 e009           3357 	cmp	zero,r1
00001284 eafd*          3358 	bne	.L2007
                        3359 --line826
                        3360 ..lin.D.3A.5CRenesas_Electronics.5CD1x_RGL.5Crgl_ghs_D1Lx_obj_V1.2E2.2E0.5Cvlib.5Capp.5Cgfx_apps.5Csimple_draw_d1l2.5Ctarget.5Cd1lx_mango_ghs.5Cobj.5Cdio.173::
                        3361 .LDWlin173:
00001286 5f72           3362 	add	-1,r14
                        3363 .L2005:
00001288 e071           3364 	cmp	zero,r14
0000128a aafd*          3365 	bne	.L2004
                        3366 --830:                ;
                        3367 --831:                 }
                        3368 --832:             }
                        3369 --833:     }
                        3370 --line833
                        3371 ..lin.D.3A.5CRenesas_Electronics.5CD1x_RGL.5Crgl_ghs_D1Lx_obj_V1.2E2.2E0.5Cvlib.5Capp.5Cgfx_apps.5Csimple_draw_d1l2.5Ctarget.5Cd1lx_mango_ghs.5Cobj.5Cdio.174::
                        3372 .LDWlin174:
0000128c 0000           3373 	nop
                        3374 --	    .ef
                        3375 .LDW23:
0000128e 7f00           3376 	jmp	[lp]
                        3377 	.type	_DIO_GPIO_Dlayus,@function
                        3378 	.size	_DIO_GPIO_Dlayus,.-_DIO_GPIO_Dlayus
                        3379 	.align	2
                        3380 .LDW33:
                        3381 --_counter	r1	local
                        3382 
                        3383 --_cnt	r14	param
                        3384 
                        3385 	.section ".bss","awb"
                        3386 .L2038:
                        3387 	.type	.L2038,@object
                        3388 	.size	.L2038,0
                        3389 	.data
                        3390 	.text
                        3391 
                        3392 	.align	2
                        3393 --_Dio_Status	_Dio_Status	static

                                                                      Page 57
                                                              C:\Users\YINGAO~1\AppData\Local\Temp\gh_00005601.si
                        3394 
                        3395 	.section ".rodata","a"
                        3396 	.align	4
                        3397 	.global	_GpioList
00000000 07000000       3398 _GpioList:	.byte	7,0,0,0
00000004 0b             3399 	.byte	11
00000005 000000         3400 	.space	3
00000008 01000000       3401 	.byte	1,0,0,0
0000000c 00             3402 	.space	1
0000000d 000000         3403 	.space	3
00000010 03000000       3404 	.byte	3,0,0,0
00000014 02             3405 	.byte	2
00000015 000000         3406 	.space	3
00000018 01000000       3407 	.byte	1,0,0,0
0000001c 00             3408 	.space	1
0000001d 000000         3409 	.space	3
00000020 03000000       3410 	.byte	3,0,0,0
00000024 04             3411 	.byte	4
00000025 000000         3412 	.space	3
00000028 01000000       3413 	.byte	1,0,0,0
0000002c 00             3414 	.space	1
0000002d 000000         3415 	.space	3
00000030 03000000       3416 	.byte	3,0,0,0
00000034 05             3417 	.byte	5
00000035 000000         3418 	.space	3
00000038 01000000       3419 	.byte	1,0,0,0
0000003c 00             3420 	.space	1
0000003d 000000         3421 	.space	3
00000040 03000000       3422 	.byte	3,0,0,0
00000044 06             3423 	.byte	6
00000045 000000         3424 	.space	3
00000048 01000000       3425 	.byte	1,0,0,0
0000004c 00             3426 	.space	1
0000004d 000000         3427 	.space	3
00000050 03000000       3428 	.byte	3,0,0,0
00000054 08             3429 	.byte	8
00000055 000000         3430 	.space	3
00000058 01000000       3431 	.byte	1,0,0,0
0000005c 00             3432 	.space	1
0000005d 000000         3433 	.space	3
00000060 01000000       3434 	.byte	1,0,0,0
00000064 00             3435 	.space	1
00000065 000000         3436 	.space	3
00000068 01000000       3437 	.byte	1,0,0,0
0000006c 00             3438 	.space	1
0000006d 000000         3439 	.space	3
00000070 03000000       3440 	.byte	3,0,0,0
00000074 09             3441 	.byte	9
00000075 000000         3442 	.space	3
00000078 01000000       3443 	.byte	1,0,0,0
0000007c 00             3444 	.space	1
0000007d 000000         3445 	.space	3
00000080 01000000       3446 	.byte	1,0,0,0
00000084 02             3447 	.byte	2
00000085 000000         3448 	.space	3
00000088 00000000       3449 	.space	4
0000008c 00             3450 	.space	1
0000008d 000000         3451 	.space	3
00000090 0d000000       3452 	.byte	13,0,0,0
00000094 00             3453 	.space	1
00000095 000000         3454 	.space	3

                                                                      Page 58
                                                              C:\Users\YINGAO~1\AppData\Local\Temp\gh_00005601.si
00000098 00000000       3455 	.space	4
0000009c 00             3456 	.space	1
0000009d 000000         3457 	.space	3
000000a0 07000000       3458 	.byte	7,0,0,0
000000a4 04             3459 	.byte	4
000000a5 000000         3460 	.space	3
000000a8 00000000       3461 	.space	4
000000ac 00             3462 	.space	1
000000ad 000000         3463 	.space	3
000000b0 07000000       3464 	.byte	7,0,0,0
000000b4 05             3465 	.byte	5
000000b5 000000         3466 	.space	3
000000b8 00000000       3467 	.space	4
000000bc 00             3468 	.space	1
000000bd 000000         3469 	.space	3
000000c0 07000000       3470 	.byte	7,0,0,0
000000c4 06             3471 	.byte	6
000000c5 000000         3472 	.space	3
000000c8 00000000       3473 	.space	4
000000cc 00             3474 	.space	1
000000cd 000000         3475 	.space	3
000000d0 07000000       3476 	.byte	7,0,0,0
000000d4 07             3477 	.byte	7
000000d5 000000         3478 	.space	3
000000d8 00000000       3479 	.space	4
000000dc 00             3480 	.space	1
000000dd 000000         3481 	.space	3
000000e0 07000000       3482 	.byte	7,0,0,0
000000e4 08             3483 	.byte	8
000000e5 000000         3484 	.space	3
000000e8 00000000       3485 	.space	4
000000ec 00             3486 	.space	1
000000ed 000000         3487 	.space	3
000000f0 07000000       3488 	.byte	7,0,0,0
000000f4 09             3489 	.byte	9
000000f5 000000         3490 	.space	3
000000f8 00000000       3491 	.space	4
000000fc 00             3492 	.space	1
000000fd 000000         3493 	.space	3
00000100 07000000       3494 	.byte	7,0,0,0
00000104 0a             3495 	.byte	10
00000105 000000         3496 	.space	3
00000108 00000000       3497 	.space	4
0000010c 00             3498 	.space	1
0000010d 000000         3499 	.space	3
00000110 01000000       3500 	.byte	1,0,0,0
00000114 06             3501 	.byte	6
00000115 000000         3502 	.space	3
00000118 00000000       3503 	.space	4
0000011c 00             3504 	.space	1
0000011d 000000         3505 	.space	3
00000120 06000000       3506 	.byte	6,0,0,0
00000124 07             3507 	.byte	7
00000125 000000         3508 	.space	3
00000128 00000000       3509 	.space	4
0000012c 00             3510 	.space	1
0000012d 000000         3511 	.space	3
00000130 07000000       3512 	.byte	7,0,0,0
00000134 00             3513 	.space	1
00000135 000000         3514 	.space	3
00000138 00000000       3515 	.space	4

                                                                      Page 59
                                                              C:\Users\YINGAO~1\AppData\Local\Temp\gh_00005601.si
0000013c 00             3516 	.space	1
0000013d 000000         3517 	.space	3
00000140 07000000       3518 	.byte	7,0,0,0
00000144 01             3519 	.byte	1
00000145 000000         3520 	.space	3
00000148 00000000       3521 	.space	4
0000014c 00             3522 	.space	1
0000014d 000000         3523 	.space	3
00000150 07000000       3524 	.byte	7,0,0,0
00000154 02             3525 	.byte	2
00000155 000000         3526 	.space	3
00000158 00000000       3527 	.space	4
0000015c 00             3528 	.space	1
0000015d 000000         3529 	.space	3
00000160 07000000       3530 	.byte	7,0,0,0
00000164 03             3531 	.byte	3
00000165 000000         3532 	.space	3
00000168 00000000       3533 	.space	4
0000016c 00             3534 	.space	1
0000016d 000000         3535 	.space	3
00000170 06000000       3536 	.byte	6,0,0,0
00000174 04             3537 	.byte	4
00000175 000000         3538 	.space	3
00000178 00000000       3539 	.space	4
0000017c 00             3540 	.space	1
0000017d 000000         3541 	.space	3
00000180 06000000       3542 	.byte	6,0,0,0
00000184 05             3543 	.byte	5
00000185 000000         3544 	.space	3
00000188 00000000       3545 	.space	4
0000018c 00             3546 	.space	1
0000018d 000000         3547 	.space	3
00000190 06000000       3548 	.byte	6,0,0,0
00000194 06             3549 	.byte	6
00000195 000000         3550 	.space	3
00000198 00000000       3551 	.space	4
0000019c 00             3552 	.space	1
0000019d 000000         3553 	.space	3
                        3554 	.type	_GpioList,@object
                        3555 	.size	_GpioList,416
                        3556 	.data
                        3557 	.ghsnote version,14
                        3558 	.ghsnote tools,3
                        3559 	.ghsnote options,144
                        3560 	.text
                        3561 	.align	2
                        3562 ..eof.D.3A.5CRenesas_Electronics.5CD1x_RGL.5Crgl_ghs_D1Lx_obj_V1.2E2.2E0.5Cvlib.5Capp.5Cgfx_apps.5Csimple_draw_d1l2.5Ctarget.5Cd1lx_mango_ghs.5Cobj.5Cdio...44.3A.5CRenesas_Electronics.5CD1x_RGL.5Crgl_ghs_D1Lx_obj_V1.2E2.2E0.5Cvlib.5Capp.5Cgfx_apps.5Csimple_draw_d1l2.5Ctarget.5Cd1lx_mango_ghs..5A740366..0::
                        3563 .rh850_flags REGMODE22,DATA_ALIGN8,GP_FIX,EP_NONFIX,TP_FIX,REG2_RESERVE,G3M
