                                                                      Page 1
                                                              C:\Users\YINGAO~1\AppData\Local\Temp\gh_000004s1.si
Command Line: C:\ghs\comp_201355\ease850.exe -w -elf -b0 -I../../../../../Device -I../../../../../Driver/ADCE -I../../../../../Driver/CLOCK -I../../../../../Driver/DIO -I../../../../../Driver/DSPI -I../../../../../Driver/Interrupt -I../../../../../Driver/ISM -I../../../../../Driver/OSTM -I../../../../../Driver/PWM -I../../../../../Driver/RSTC -I../../../../../Driver/RTCA -I../../../../../Driver/STBC -I../../../../../Driver/TAUB -I../../../../../Driver/WDT -I../../../../../middleware\ADM -I../../../../../middleware\BPM -I../../../../../middleware\EED -I../../../../../middleware\IOM -I../../../../../middleware\LRM -I../../../../../middleware\MOM -I../../../../../middleware\PWMM -I../../../../../Common -I../../../../../Applayer\DSM -I../../../../../Applayer\FM -I../../../../../Applayer\TPM -I../../../../../Applayer\ACC -I../../../../../Applayer\ASS -I../../../../../Applayer\BAT -I../../../../../Applayer\COM -I../../../../../Applayer\COM\vtp -I../../../../../Applayer\COM\vtp\lib -I../../../../../Applayer\CRUS -I../../../../../Applayer\DIAG -I../../../../../Applayer\FC -I../../../../../Applayer\FL -I../../../../../Applayer\HSD -I../../../../../Applayer\IDLE -I../../../../../Applayer\ILLU -I../../../../../Applayer\LED -I../../../../../Applayer\MSG -I../../../../../Applayer\NVM -I../../../../../Applayer\ODO -I../../../../../Applayer\PWR -I../../../../../Applayer\RANG -I../../../../../Applayer\RST -I../../../../../Applayer\RTC -I../../../../../Applayer\SCS -I../../../../../Applayer\SSB -I../../../../../Applayer\ST -I../../../../../Applayer\STSMG -I../../../../../Applayer\SYS -I../../../../../Applayer\TIP -I../../../../../Applayer\TRIP -I../../../../../Applayer\CHM -I../../../../../Applayer\DM -I../../../../../Applayer\EVT -I../../../../../Applayer\FTR -I../../../../../Applayer\SLF -I../../../../../Applayer\NWD -I../../../../../Applayer\TPMS -I../../../../../Applayer\WFM -I../../../../../Applayer\NZM -I../../../../../app/gfx_apps/simple_draw_d1l2/src -I../../../../../bsp/board//config -I../../../../../bsp/board//src/gfx -I../../../../../bsp/board//src/hmi -I../../../../../bsp/board//src/stdio -I../../../../../bsp/board/d1lx_mango/config -I../../../../../bsp/board/d1lx_mango/src -I../../../../../bsp/board/d1lx_mango/src/gfx -I../../../../../bsp/board/d1lx_mango/src/hmi -I../../../../../bsp/board/d1lx_mango/src/stdio -I../../../../../bsp/gfx/lib -I../../../../../bsp/gfx/src -I../../../../../bsp/hmi/lib -I../../../../../bsp/hmi/src -I../../../../../bsp/lib -I../../../../../bsp/stdio/lib -I../../../../../bsp/stdio/src -I../../../../../cdi/lib -I../../../../../cdi/src -I../../../../../compiler/rh850_ghs/inc -I../../../../../device/d1lx/lib -I../../../../../device/d1lx/macro_cfg -I../../../../../device/d1lx/src/dev -I../../../../../device/d1lx/src/rh850_ghs -I../../../../../device/d1x_common/macro_cfg -I../../../../../device/d1x_common/src/csisw -I../../../../../device/d1x_common/src/ddb -I../../../../../device/d1x_common/src/dev -I../../../../../device/d1x_common/src/gfxbus -I../../../../../device/d1x_common/src/gpio -I../../../../../device/d1x_common/src/ostm -I../../../../../device/d1x_common/src/pbg -I../../../../../device/d1x_common/src/riic -I../../../../../device/d1x_common/src/sfma -I../../../../../device/d1x_common/src/spea -I../../../../../device/d1x_common/src/tauj -I../../../../../device/d1x_common/src/tick -I../../../../../device/d1x_common/src/vdce -I../../../../../device/d1x_common/src/wm -I../../../../../device/d1x_common/src/xbus -I../../../../../device/lib -I../../../../../macro/bus/pbg/lib -I../../../../../macro/bus/pbg/src -I../../../../../macro/csi/csisw/lib -I../../../../../macro/csi/csisw/src -I../../../../../macro/drw2d/lib -I../../../../../macro/drw2d/platform/cpu -I../../../../../macro/drw2d/platform/os/no_os -I../../../../../macro/drw2d/src -I../../../../../macro/flashc/sfcdb/lib -I../../../../../macro/flashc/sfcdb/src -I../../../../../macro/flashc/sfma/lib -I../../../../../macro/flashc/sfma/src -I../../../../../macro/gfxbus/lib -I../../../../../macro/gfxbus/src -I../../../../../macro/gfxbus/xbus/lib -I../../../../../macro/gfxbus/xbus/src -I../../../../../macro/gpio/lib -I../../../../../macro/gpio/src -I../../../../../macro/i2c/riic/lib -I../../../../../macro/i2c/riic/src -I../../../../../macro/tick/lib -I../../../../../macro/tick/src -I../../../../../macro/timer/ostm/lib -I../../../../../macro/timer/ostm/src -I../../../../../macro/timer/tauj/lib -I../../../../../macro/timer/tauj/src -I../../../../../macro/vdce/lib -I../../../../../macro/vdce/src -I../../../../../macro/vo/ddb/lib -I../../../../../macro/vo/ddb/src -I../../../../../macro/vo/spea/lib -I../../../../../macro/vo/spea/src -I../../../../../macro/wm/lib -I../../../../../macro/wm/src -I../../../../../app/gfx_apps/simple_draw_d1l2/src/QD_HMI -I../../../../../app/gfx_apps/simple_draw_d1l2/src/QD_HMI/HMI_Data -IC:\ghs\comp_201355\lib\rh850_22 -cg_underscore -cpu=rh850g3m -no_v850_simd -nomacro -patch_dbo=D:\Renesas_Electronics\D1x_RGL\rgl_ghs_D1Lx_obj_V1.2.0\vlib\app\gfx_apps\simple_draw_d1l2\target\d1lx_mango_ghs\obj\dm.dbo -source=dm.c -o .\obj\gh_000004s1.o -list=.\obj\dm.lst C:\Users\YINGAO~1\AppData\Local\Temp\gh_000004s1.si 
Original File: C:\Users\YINGAO~1\AppData\Local\Temp\gh_000004s1.si
Source File: dm.c
Directory: D:\Renesas_Electronics\D1x_RGL\rgl_ghs_D1Lx_obj_V1.2.0\vlib\app\gfx_apps\simple_draw_d1l2\target\d1lx_mango_ghs
Host OS: Windows 7 Service Pack 1
EASE: Copyright (C) 1983-2013 Green Hills Software.  All Rights Reversed.
Release: Compiler v2013.5.5
Build Directory: [Directory] BTOWINBOX:c:/build_2013_5_bto/2013-10-04.1311-2013_5_bto/win32-comp-ecom
Revision: [VCInfo] http://toolsvc/branches/release-branch-2013-5-bto/src@496240 (built by build)
Revision Date: Sat Oct 05 04:54:43 2013

Release Date: Sat Oct 05 05:20:49 2013

                           1 --Driver Command: ccv850 -c -MD -I../../../../../Device
                           2 --		-I../../../../../Driver/ADCE -I../../../../../Driver/CLOCK
                           3 --		-I../../../../../Driver/DIO -I../../../../../Driver/DSPI
                           4 --		-I../../../../../Driver/Interrupt -I../../../../../Driver/ISM
                           5 --		-I../../../../../Driver/OSTM -I../../../../../Driver/PWM
                           6 --		-I../../../../../Driver/RSTC -I../../../../../Driver/RTCA
                           7 --		-I../../../../../Driver/STBC -I../../../../../Driver/TAUB
                           8 --		-I../../../../../Driver/WDT -I../../../../../middleware\ADM
                           9 --		-I../../../../../middleware\BPM -I../../../../../middleware\EED
                          10 --		-I../../../../../middleware\IOM -I../../../../../middleware\LRM
                          11 --		-I../../../../../middleware\MOM -I../../../../../middleware\PWMM
                          12 --		-I../../../../../Common -I../../../../../Applayer\DSM
                          13 --		-I../../../../../Applayer\FM -I../../../../../Applayer\TPM
                          14 --		-I../../../../../Applayer\ACC -I../../../../../Applayer\ASS
                          15 --		-I../../../../../Applayer\BAT -I../../../../../Applayer\COM
                          16 --		-I../../../../../Applayer\COM\vtp
                          17 --		-I../../../../../Applayer\COM\vtp\lib
                          18 --		-I../../../../../Applayer\CRUS -I../../../../../Applayer\DIAG
                          19 --		-I../../../../../Applayer\FC -I../../../../../Applayer\FL
                          20 --		-I../../../../../Applayer\HSD -I../../../../../Applayer\IDLE
                          21 --		-I../../../../../Applayer\ILLU -I../../../../../Applayer\LED
                          22 --		-I../../../../../Applayer\MSG -I../../../../../Applayer\NVM
                          23 --		-I../../../../../Applayer\ODO -I../../../../../Applayer\PWR
                          24 --		-I../../../../../Applayer\RANG -I../../../../../Applayer\RST
                          25 --		-I../../../../../Applayer\RTC -I../../../../../Applayer\SCS
                          26 --		-I../../../../../Applayer\SSB -I../../../../../Applayer\ST
                          27 --		-I../../../../../Applayer\STSMG -I../../../../../Applayer\SYS
                          28 --		-I../../../../../Applayer\TIP -I../../../../../Applayer\TRIP
                          29 --		-I../../../../../Applayer\CHM -I../../../../../Applayer\DM
                          30 --		-I../../../../../Applayer\EVT -I../../../../../Applayer\FTR
                          31 --		-I../../../../../Applayer\SLF -I../../../../../Applayer\NWD
                          32 --		-I../../../../../Applayer\TPMS -I../../../../../Applayer\WFM
                          33 --		-I../../../../../Applayer\NZM
                          34 --		-I../../../../../app/gfx_apps/simple_draw_d1l2/src
                          35 --		-I../../../../../bsp/board//config
                          36 --		-I../../../../../bsp/board//src/gfx
                          37 --		-I../../../../../bsp/board//src/hmi
                          38 --		-I../../../../../bsp/board//src/stdio
                          39 --		-I../../../../../bsp/board/d1lx_mango/config
                          40 --		-I../../../../../bsp/board/d1lx_mango/src
                          41 --		-I../../../../../bsp/board/d1lx_mango/src/gfx
                          42 --		-I../../../../../bsp/board/d1lx_mango/src/hmi
                          43 --		-I../../../../../bsp/board/d1lx_mango/src/stdio
                          44 --		-I../../../../../bsp/gfx/lib -I../../../../../bsp/gfx/src
                          45 --		-I../../../../../bsp/hmi/lib -I../../../../../bsp/hmi/src
                          46 --		-I../../../../../bsp/lib -I../../../../../bsp/stdio/lib
                          47 --		-I../../../../../bsp/stdio/src -I../../../../../cdi/lib
                          48 --		-I../../../../../cdi/src -I../../../../../compiler/rh850_ghs/inc
                          49 --		-I../../../../../device/d1lx/lib
                          50 --		-I../../../../../device/d1lx/macro_cfg

                                                                      Page 2
                                                              C:\Users\YINGAO~1\AppData\Local\Temp\gh_000004s1.si
                          51 --		-I../../../../../device/d1lx/src/dev
                          52 --		-I../../../../../device/d1lx/src/rh850_ghs
                          53 --		-I../../../../../device/d1x_common/macro_cfg
                          54 --		-I../../../../../device/d1x_common/src/csisw
                          55 --		-I../../../../../device/d1x_common/src/ddb
                          56 --		-I../../../../../device/d1x_common/src/dev
                          57 --		-I../../../../../device/d1x_common/src/gfxbus
                          58 --		-I../../../../../device/d1x_common/src/gpio
                          59 --		-I../../../../../device/d1x_common/src/ostm
                          60 --		-I../../../../../device/d1x_common/src/pbg
                          61 --		-I../../../../../device/d1x_common/src/riic
                          62 --		-I../../../../../device/d1x_common/src/sfma
                          63 --		-I../../../../../device/d1x_common/src/spea
                          64 --		-I../../../../../device/d1x_common/src/tauj
                          65 --		-I../../../../../device/d1x_common/src/tick
                          66 --		-I../../../../../device/d1x_common/src/vdce
                          67 --		-I../../../../../device/d1x_common/src/wm
                          68 --		-I../../../../../device/d1x_common/src/xbus
                          69 --		-I../../../../../device/lib -I../../../../../macro/bus/pbg/lib
                          70 --		-I../../../../../macro/bus/pbg/src
                          71 --		-I../../../../../macro/csi/csisw/lib
                          72 --		-I../../../../../macro/csi/csisw/src
                          73 --		-I../../../../../macro/drw2d/lib
                          74 --		-I../../../../../macro/drw2d/platform/cpu
                          75 --		-I../../../../../macro/drw2d/platform/os/no_os
                          76 --		-I../../../../../macro/drw2d/src
                          77 --		-I../../../../../macro/flashc/sfcdb/lib
                          78 --		-I../../../../../macro/flashc/sfcdb/src
                          79 --		-I../../../../../macro/flashc/sfma/lib
                          80 --		-I../../../../../macro/flashc/sfma/src
                          81 --		-I../../../../../macro/gfxbus/lib
                          82 --		-I../../../../../macro/gfxbus/src
                          83 --		-I../../../../../macro/gfxbus/xbus/lib
                          84 --		-I../../../../../macro/gfxbus/xbus/src
                          85 --		-I../../../../../macro/gpio/lib -I../../../../../macro/gpio/src
                          86 --		-I../../../../../macro/i2c/riic/lib
                          87 --		-I../../../../../macro/i2c/riic/src
                          88 --		-I../../../../../macro/tick/lib -I../../../../../macro/tick/src
                          89 --		-I../../../../../macro/timer/ostm/lib
                          90 --		-I../../../../../macro/timer/ostm/src
                          91 --		-I../../../../../macro/timer/tauj/lib
                          92 --		-I../../../../../macro/timer/tauj/src
                          93 --		-I../../../../../macro/vdce/lib -I../../../../../macro/vdce/src
                          94 --		-I../../../../../macro/vo/ddb/lib
                          95 --		-I../../../../../macro/vo/ddb/src
                          96 --		-I../../../../../macro/vo/spea/lib
                          97 --		-I../../../../../macro/vo/spea/src -I../../../../../macro/wm/lib
                          98 --		-I../../../../../macro/wm/src
                          99 --		-I../../../../../app/gfx_apps/simple_draw_d1l2/src/QD_HMI
                         100 --		-I../../../../../app/gfx_apps/simple_draw_d1l2/src/QD_HMI/HMI_Data
                         101 --		-G --no_commons --no_implicit_include --prototype_errors
                         102 --		-DR_DRW2D_OS_NO_OS -DR_DRW2D_SYS_CPU -DUSED_CPU=RH850G3M
                         103 --		-DUSE_BSP_GFX -DUSE_BSP_HMI -DUSE_BSP_STDIO -DUSE_CDI -DUSE_CSISW
                         104 --		-DUSE_DDB -DUSE_DRW2D -DUSE_GFXBUS -DUSE_GPIO -DUSE_OSTM
                         105 --		-DUSE_PBG -DUSE_RIIC -DUSE_SFCDB -DUSE_SFMA -DUSE_SPEA -DUSE_TAUJ
                         106 --		-DUSE_TICK -DUSE_VDCE -DUSE_WM -DUSE_XBUS -MD -Mn -Mx -Zuse1bit
                         107 --		-allocate_ep -cpu=rh850g3m -entry=_RESET -large_sda -list
                         108 --		-no_callt -notda -passsource -preprocess_assembly_files
                         109 --		-registermode=22 -reserve_r2 --diag_warning 1 -object_dir=./obj
                         110 --		-filetype.c
                         111 --		D:\Renesas_Electronics\D1x_RGL\rgl_ghs_D1Lx_obj_V1.2.0\vlib\Applayer\DM\dm.c

                                                                      Page 3
                                                              C:\Users\YINGAO~1\AppData\Local\Temp\gh_000004s1.si
                         112 --		-o .\obj\dm.o
                         113 --Source File:   D:\Renesas_Electronics\D1x_RGL\rgl_ghs_D1Lx_obj_V1.2.0\vlib\Applayer\DM\dm.c
                         114 --Directory:     
                         115 --		D:\Renesas_Electronics\D1x_RGL\rgl_ghs_D1Lx_obj_V1.2.0\vlib\app\gfx_apps\simple_draw_d1l2\target\d1lx_mango_ghs
                         116 --Compile Date:  Fri Feb 02 14:21:40 2018
                         117 --Host OS:       Win32
                         118 --Version:       C-RH850 2013.5.5 DEVELOPMENT VERSION
                         119 --Release:       Compiler v2013.5.5
                         120 --Revision Date: Sat Oct 05 05:01:20 2013
                         121 --Release Date:  Sat Oct 05 05:22:44 2013
                         122 -- ecom  -g -w
                         123 
                         124 --1: /**************************************************************************
                         125 --2: |                                Copyright
                         126 --3: |------------------------------------------------------------------------
                         127 --4: |Copyright(c) by YEEDON MultiMedia Co.LTD. All rights reserved.
                         128 --5: |
                         129 --6: |    this software if furnished under a license and may be used and copied
                         130 --7: |    only in accordance with the terms of such license and with the inclusion
                         131 --8: |    of he above copyright notic.This software or any other copies thereof
                         132 --9: |    may not be provided of otherwise made available to any other persion.
                         133 --10: |    No title to and ownership of the software is hereby transferred.
                         134 --11: |
                         135 --12: |    the information in this software is subject to change without notice
                         136 --13: |   and should not be construed as a commitment by
                         137 --14: |   YEEDON MultiMedia Co.LTD.
                         138 --15: |
                         139 --16: |     YEEDON MultiMedia Co.LTD. assumes no responsibility for the use or reliability
                         140 --17: |     of its Software on equipment which is not supported by YEEDON MultiMedia Co.LTD.
                         141 --18: |--------------------------------------------------------------
                         142 --19: **************************************************************************/
                         143 --21: /* Files for including */
                         144 --22: #include "dm_info.inc"
                         145 --24: static BOOL DM_InitSts = FALSE;
                         146 --25: static BOOL insTrip1UserEnPrm;
                         147 --26: static BOOL insTrip2UserEnPrm;
                         148 --27: static U8 insTCConUnitsPrm;
                         149 --28: static BOOL insTripRollOverPrm;
                         150 --29: static BOOL insUnitsPrm;
                         151 --30: static U8 insMenuSpeedTresholdPrm;
                         152 --31: static BOOL insIFCEnPrm;
                         153 --32: static BOOL insRTEEnPrm;
                         154 --33: static U8 insTCDispTimeoutPrm;
                         155 --34: static BOOL insMenuIllumAdEnPrm;
                         156 --35: static BOOL insMenuDigCEnPrm;
                         157 --36: static BOOL insSCSOffSwitchEnPrm;
                         158 --37: static U8 insPresstime1Prm;
                         159 --38: static U8 insTCFuelDispUpdatePrm;
                         160 --39: static U8 insPrndEnPrm;
                         161 --40: static BOOL insGearShiftUpDwnWarnPrm;
                         162 --41: static BOOL insTyrePresUnitsPrm;/*not defined*/
                         163 --42: static BOOL insTyrTemDisUntPrm;/*not defined*/
                         164 --44: static DM_Send_PageValue_ST Dm_Send_Data;
                         165 --45: static Dm_Logo_ENUM logoCnt;
                         166 --46: static Dm_SubFuction_TC_ENUM TCSel;
                         167 --47: static U8 SetSel;
                         168 --48: static Dm_ILLU_ENUM illu_Level;
                         169 --49: static Dm_SpeedLimit_ENUM speed_Limit;
                         170 --50: static U8 SCS_Sts;
                         171 --51: static BOOL  scs_cmd ;
                         172 --52: static AllPage_Index_ENUM  CurPage_Point;

                                                                      Page 4
                                                              C:\Users\YINGAO~1\AppData\Local\Temp\gh_000004s1.si
                         173 --53: static AllPage_Index_ENUM  DestPage_Point;
                         174 --54: static WarnEventData_ST Dm_CurEvent;
                         175 --55: static U8 CurTotolFaultList;
                         176 --56: static U8 CurFaultList = 0;
                         177 --57: static U8 dm_RadioSubPage = 0;
                         178 --58: static Dm_CMD_ST dm_FunPage;
                         179 --59: static MSG_EVENT_ENUM dm_MsgIndex = INDEX_MSG_NULL;
                         180 --60: static BOOL StartLogoEn = FALSE;
                         181 --61: static Dm_SetPageData_ST dm_stSet;
                         182 --62: static U32 dm_EscCnt = 0;
                         183 --63: static U32 dm_EscMaxCnt = 0;
                         184 --64: static BOOL EnableFun = FALSE;
                         185 --66: /**************************************************
                         186 --67: *Function :DM_Init
                         187 --68: *Description: DM Module Initial
                         188 --69: *Parameters:none
                         189 --70: *Returns: none
                         190 --71: **create&Verlog:
                         191 --72: *Author Name xs  Date:2017-09-22   Ver:02
                         192 --73: ***************************************************/
                         193 --74: void DM_Init(void)
                         194 	.text
                         195 ..bof.D.3A.5CRenesas_Electronics.5CD1x_RGL.5Crgl_ghs_D1Lx_obj_V1.2E2.2E0.5Cvlib.5Capp.5Cgfx_apps.5Csimple_draw_d1l2.5Ctarget.5Cd1lx_mango_ghs.5Cobj.5Cdm...44.3A.5CRenesas_Electronics.5CD1x_RGL.5Crgl_ghs_D1Lx_obj_V1.2E2.2E0.5Cvlib.5Capp.5Cgfx_apps.5Csimple_draw_d1l2.5Ctarget.5Cd1lx_mango_ghs..5A74037B..0::
                         196 	.align	2
                         197 	.global	_DM_Init
                         198 _DM_Init:
00000000 8607e170        199 	prepare	{r25,r26,r27,r28,r29,r31},3
00000004 3d0600000000*   200 	mov	.L236,r29
0000000a 3dce0400        201 	movea	4,r29,r25
0000000e 3dde3800        202 	movea	56,r29,r27
00000012 3dd62e00        203 	movea	46,r29,r26
                         204 --	    .bf
                         205 .LDW01:
                         206 --75: {
                         207 --76: 	U8 Value =0 ;
00000016 00e2            208 	mov	0,r28
                         209 --77: 	DM_InitSts = FALSE;
00000018 2b0600000000*   210 	mov	_DM_InitSts,r11
0000001e 4b070000        211 	st.b	zero,0[r11]
                         212 --78: 	
                         213 --79: 	insTrip1UserEnPrm = DIAG_GetTrip1UserEn();
                         214 	jarl	_DIAG_GetTrip1UserEn,lp
                         214 <EXPANSION BEGIN>
                         214 jarl22 _DIAG_GetTrip1UserEn , lp 
00000022 80ff0000*       214 <EXPANSION END>
00000026 5d571800        215 	st.b	r10,24[r29]
                         216 --80: 	insTrip2UserEnPrm = DIAG_GetTrip2UserEn();
                         217 --line80
                         218 ..lin.D.3A.5CRenesas_Electronics.5CD1x_RGL.5Crgl_ghs_D1Lx_obj_V1.2E2.2E0.5Cvlib.5Capp.5Cgfx_apps.5Csimple_draw_d1l2.5Ctarget.5Cd1lx_mango_ghs.5Cobj.5Cdm.1::
                         219 .LDWlin1:
                         220 	jarl	_DIAG_GetTrip2UserEn,lp
                         220 <EXPANSION BEGIN>
                         220 jarl22 _DIAG_GetTrip2UserEn , lp 
0000002a 80ff0000*       220 <EXPANSION END>
0000002e 5d571900        221 	st.b	r10,25[r29]
                         222 --81: 	insTCConUnitsPrm = DIAG_GetTCConUnits();
                         223 --line81
                         224 ..lin.D.3A.5CRenesas_Electronics.5CD1x_RGL.5Crgl_ghs_D1Lx_obj_V1.2E2.2E0.5Cvlib.5Capp.5Cgfx_apps.5Csimple_draw_d1l2.5Ctarget.5Cd1lx_mango_ghs.5Cobj.5Cdm.2::
                         225 .LDWlin2:
                         226 	jarl	_DIAG_GetTCConUnits,lp
                         226 <EXPANSION BEGIN>

                                                                      Page 5
                                                              C:\Users\YINGAO~1\AppData\Local\Temp\gh_000004s1.si
                         226 jarl22 _DIAG_GetTCConUnits , lp 
00000032 80ff0000*       226 <EXPANSION END>
00000036 5d571a00        227 	st.b	r10,26[r29]
                         228 --82: 	insTripRollOverPrm = DIAG_GetTripRollOver();
                         229 --line82
                         230 ..lin.D.3A.5CRenesas_Electronics.5CD1x_RGL.5Crgl_ghs_D1Lx_obj_V1.2E2.2E0.5Cvlib.5Capp.5Cgfx_apps.5Csimple_draw_d1l2.5Ctarget.5Cd1lx_mango_ghs.5Cobj.5Cdm.3::
                         231 .LDWlin3:
                         232 	jarl	_DIAG_GetTripRollOver,lp
                         232 <EXPANSION BEGIN>
                         232 jarl22 _DIAG_GetTripRollOver , lp 
0000003a 80ff0000*       232 <EXPANSION END>
0000003e 5d571b00        233 	st.b	r10,27[r29]
                         234 --83: 	insUnitsPrm = DIAG_GetUnits();
                         235 --line83
                         236 ..lin.D.3A.5CRenesas_Electronics.5CD1x_RGL.5Crgl_ghs_D1Lx_obj_V1.2E2.2E0.5Cvlib.5Capp.5Cgfx_apps.5Csimple_draw_d1l2.5Ctarget.5Cd1lx_mango_ghs.5Cobj.5Cdm.4::
                         237 .LDWlin4:
                         238 	jarl	_DIAG_GetUnits,lp
                         238 <EXPANSION BEGIN>
                         238 jarl22 _DIAG_GetUnits , lp 
00000042 80ff0000*       238 <EXPANSION END>
00000046 5d571c00        239 	st.b	r10,28[r29]
                         240 --84: 	insMenuSpeedTresholdPrm = DIAG_GetMenuSpeedTreshold();
                         241 --line84
                         242 ..lin.D.3A.5CRenesas_Electronics.5CD1x_RGL.5Crgl_ghs_D1Lx_obj_V1.2E2.2E0.5Cvlib.5Capp.5Cgfx_apps.5Csimple_draw_d1l2.5Ctarget.5Cd1lx_mango_ghs.5Cobj.5Cdm.5::
                         243 .LDWlin5:
                         244 	jarl	_DIAG_GetMenuSpeedTreshold,lp
                         244 <EXPANSION BEGIN>
                         244 jarl22 _DIAG_GetMenuSpeedTreshold , lp 
0000004a 80ff0000*       244 <EXPANSION END>
0000004e 5d571d00        245 	st.b	r10,29[r29]
                         246 --85: 	insIFCEnPrm = DIAG_GetIFCEn();
                         247 --line85
                         248 ..lin.D.3A.5CRenesas_Electronics.5CD1x_RGL.5Crgl_ghs_D1Lx_obj_V1.2E2.2E0.5Cvlib.5Capp.5Cgfx_apps.5Csimple_draw_d1l2.5Ctarget.5Cd1lx_mango_ghs.5Cobj.5Cdm.6::
                         249 .LDWlin6:
                         250 	jarl	_DIAG_GetIFCEn,lp
                         250 <EXPANSION BEGIN>
                         250 jarl22 _DIAG_GetIFCEn , lp 
00000052 80ff0000*       250 <EXPANSION END>
00000056 5d571e00        251 	st.b	r10,30[r29]
                         252 --86: 	insRTEEnPrm = DIAG_GetRTEEn();
                         253 --line86
                         254 ..lin.D.3A.5CRenesas_Electronics.5CD1x_RGL.5Crgl_ghs_D1Lx_obj_V1.2E2.2E0.5Cvlib.5Capp.5Cgfx_apps.5Csimple_draw_d1l2.5Ctarget.5Cd1lx_mango_ghs.5Cobj.5Cdm.7::
                         255 .LDWlin7:
                         256 	jarl	_DIAG_GetRTEEn,lp
                         256 <EXPANSION BEGIN>
                         256 jarl22 _DIAG_GetRTEEn , lp 
0000005a 80ff0000*       256 <EXPANSION END>
0000005e 5d571f00        257 	st.b	r10,31[r29]
                         258 --87: 	insTCDispTimeoutPrm = DIAG_GetTCDispTimeout();
                         259 --line87
                         260 ..lin.D.3A.5CRenesas_Electronics.5CD1x_RGL.5Crgl_ghs_D1Lx_obj_V1.2E2.2E0.5Cvlib.5Capp.5Cgfx_apps.5Csimple_draw_d1l2.5Ctarget.5Cd1lx_mango_ghs.5Cobj.5Cdm.8::
                         261 .LDWlin8:
                         262 	jarl	_DIAG_GetTCDispTimeout,lp
                         262 <EXPANSION BEGIN>
                         262 jarl22 _DIAG_GetTCDispTimeout , lp 
00000062 80ff0000*       262 <EXPANSION END>
00000066 5d572000        263 	st.b	r10,32[r29]
                         264 --88: 	insMenuIllumAdEnPrm = DIAG_GetMenuIllumAdEn();
                         265 --line88
                         266 ..lin.D.3A.5CRenesas_Electronics.5CD1x_RGL.5Crgl_ghs_D1Lx_obj_V1.2E2.2E0.5Cvlib.5Capp.5Cgfx_apps.5Csimple_draw_d1l2.5Ctarget.5Cd1lx_mango_ghs.5Cobj.5Cdm.9::
                         267 .LDWlin9:

                                                                      Page 6
                                                              C:\Users\YINGAO~1\AppData\Local\Temp\gh_000004s1.si
                         268 	jarl	_DIAG_GetMenuIllumAdEn,lp
                         268 <EXPANSION BEGIN>
                         268 jarl22 _DIAG_GetMenuIllumAdEn , lp 
0000006a 80ff0000*       268 <EXPANSION END>
0000006e 5d572100        269 	st.b	r10,33[r29]
                         270 --89: 	insMenuDigCEnPrm = DIAG_GetMenuDigCEn();
                         271 --line89
                         272 ..lin.D.3A.5CRenesas_Electronics.5CD1x_RGL.5Crgl_ghs_D1Lx_obj_V1.2E2.2E0.5Cvlib.5Capp.5Cgfx_apps.5Csimple_draw_d1l2.5Ctarget.5Cd1lx_mango_ghs.5Cobj.5Cdm.10::
                         273 .LDWlin10:
                         274 	jarl	_DIAG_GetMenuDigCEn,lp
                         274 <EXPANSION BEGIN>
                         274 jarl22 _DIAG_GetMenuDigCEn , lp 
00000072 80ff0000*       274 <EXPANSION END>
00000076 5d572200        275 	st.b	r10,34[r29]
                         276 --90: 	insMenuSpeedTresholdPrm = DIAG_GetMenuSpeedTreshold();
                         277 --line90
                         278 ..lin.D.3A.5CRenesas_Electronics.5CD1x_RGL.5Crgl_ghs_D1Lx_obj_V1.2E2.2E0.5Cvlib.5Capp.5Cgfx_apps.5Csimple_draw_d1l2.5Ctarget.5Cd1lx_mango_ghs.5Cobj.5Cdm.11::
                         279 .LDWlin11:
                         280 	jarl	_DIAG_GetMenuSpeedTreshold,lp
                         280 <EXPANSION BEGIN>
                         280 jarl22 _DIAG_GetMenuSpeedTreshold , lp 
0000007a 80ff0000*       280 <EXPANSION END>
0000007e 5d571d00        281 	st.b	r10,29[r29]
                         282 --91: 	insSCSOffSwitchEnPrm = DIAG_GetSCSOffSwitchEn();
                         283 --line91
                         284 ..lin.D.3A.5CRenesas_Electronics.5CD1x_RGL.5Crgl_ghs_D1Lx_obj_V1.2E2.2E0.5Cvlib.5Capp.5Cgfx_apps.5Csimple_draw_d1l2.5Ctarget.5Cd1lx_mango_ghs.5Cobj.5Cdm.12::
                         285 .LDWlin12:
                         286 	jarl	_DIAG_GetSCSOffSwitchEn,lp
                         286 <EXPANSION BEGIN>
                         286 jarl22 _DIAG_GetSCSOffSwitchEn , lp 
00000082 80ff0000*       286 <EXPANSION END>
00000086 5d572300        287 	st.b	r10,35[r29]
                         288 --92: 	insPresstime1Prm = DIAG_GetPresstime1();
                         289 --line92
                         290 ..lin.D.3A.5CRenesas_Electronics.5CD1x_RGL.5Crgl_ghs_D1Lx_obj_V1.2E2.2E0.5Cvlib.5Capp.5Cgfx_apps.5Csimple_draw_d1l2.5Ctarget.5Cd1lx_mango_ghs.5Cobj.5Cdm.13::
                         291 .LDWlin13:
                         292 	jarl	_DIAG_GetPresstime1,lp
                         292 <EXPANSION BEGIN>
                         292 jarl22 _DIAG_GetPresstime1 , lp 
0000008a 80ff0000*       292 <EXPANSION END>
0000008e 5d572400        293 	st.b	r10,36[r29]
                         294 --93: 	insTCFuelDispUpdatePrm = DIAG_GetTCFuelDispUpdate();
                         295 --line93
                         296 ..lin.D.3A.5CRenesas_Electronics.5CD1x_RGL.5Crgl_ghs_D1Lx_obj_V1.2E2.2E0.5Cvlib.5Capp.5Cgfx_apps.5Csimple_draw_d1l2.5Ctarget.5Cd1lx_mango_ghs.5Cobj.5Cdm.14::
                         297 .LDWlin14:
                         298 	jarl	_DIAG_GetTCFuelDispUpdate,lp
                         298 <EXPANSION BEGIN>
                         298 jarl22 _DIAG_GetTCFuelDispUpdate , lp 
00000092 80ff0000*       298 <EXPANSION END>
00000096 5d572500        299 	st.b	r10,37[r29]
                         300 --94: 	insPrndEnPrm = DIAG_GetPrndEn();
                         301 --line94
                         302 ..lin.D.3A.5CRenesas_Electronics.5CD1x_RGL.5Crgl_ghs_D1Lx_obj_V1.2E2.2E0.5Cvlib.5Capp.5Cgfx_apps.5Csimple_draw_d1l2.5Ctarget.5Cd1lx_mango_ghs.5Cobj.5Cdm.15::
                         303 .LDWlin15:
                         304 	jarl	_DIAG_GetPrndEn,lp
                         304 <EXPANSION BEGIN>
                         304 jarl22 _DIAG_GetPrndEn , lp 
0000009a 80ff0000*       304 <EXPANSION END>
0000009e 5d572600        305 	st.b	r10,38[r29]
                         306 --95: 	insGearShiftUpDwnWarnPrm = DIAG_GetGearShiftUpDwnWarn();
                         307 --line95

                                                                      Page 7
                                                              C:\Users\YINGAO~1\AppData\Local\Temp\gh_000004s1.si
                         308 ..lin.D.3A.5CRenesas_Electronics.5CD1x_RGL.5Crgl_ghs_D1Lx_obj_V1.2E2.2E0.5Cvlib.5Capp.5Cgfx_apps.5Csimple_draw_d1l2.5Ctarget.5Cd1lx_mango_ghs.5Cobj.5Cdm.16::
                         309 .LDWlin16:
                         310 	jarl	_DIAG_GetGearShiftUpDwnWarn,lp
                         310 <EXPANSION BEGIN>
                         310 jarl22 _DIAG_GetGearShiftUpDwnWarn , lp 
000000a2 80ff0000*       310 <EXPANSION END>
000000a6 5d572700        311 	st.b	r10,39[r29]
                         312 --96: 	insTyrePresUnitsPrm = DIAG_GetTyrePresUnits();
                         313 --line96
                         314 ..lin.D.3A.5CRenesas_Electronics.5CD1x_RGL.5Crgl_ghs_D1Lx_obj_V1.2E2.2E0.5Cvlib.5Capp.5Cgfx_apps.5Csimple_draw_d1l2.5Ctarget.5Cd1lx_mango_ghs.5Cobj.5Cdm.17::
                         315 .LDWlin17:
                         316 	jarl	_DIAG_GetTyrePresUnits,lp
                         316 <EXPANSION BEGIN>
                         316 jarl22 _DIAG_GetTyrePresUnits , lp 
000000aa 80ff0000*       316 <EXPANSION END>
000000ae 5d572800        317 	st.b	r10,40[r29]
                         318 --97: 	insTyrTemDisUntPrm = DIAG_GetTyrTemDisUnt();
                         319 --line97
                         320 ..lin.D.3A.5CRenesas_Electronics.5CD1x_RGL.5Crgl_ghs_D1Lx_obj_V1.2E2.2E0.5Cvlib.5Capp.5Cgfx_apps.5Csimple_draw_d1l2.5Ctarget.5Cd1lx_mango_ghs.5Cobj.5Cdm.18::
                         321 .LDWlin18:
                         322 	jarl	_DIAG_GetTyrTemDisUnt,lp
                         322 <EXPANSION BEGIN>
                         322 jarl22 _DIAG_GetTyrTemDisUnt , lp 
000000b2 80ff0000*       322 <EXPANSION END>
000000b6 5d572900        323 	st.b	r10,41[r29]
                         324 --98:     insTCDispTimeoutPrm = DIAG_GetTCDispTimeout();
                         325 --line98
                         326 ..lin.D.3A.5CRenesas_Electronics.5CD1x_RGL.5Crgl_ghs_D1Lx_obj_V1.2E2.2E0.5Cvlib.5Capp.5Cgfx_apps.5Csimple_draw_d1l2.5Ctarget.5Cd1lx_mango_ghs.5Cobj.5Cdm.19::
                         327 .LDWlin19:
                         328 	jarl	_DIAG_GetTCDispTimeout,lp
                         328 <EXPANSION BEGIN>
                         328 jarl22 _DIAG_GetTCDispTimeout , lp 
000000ba 80ff0000*       328 <EXPANSION END>
000000be 5d572000        329 	st.b	r10,32[r29]
                         330 --100: 	DestPage_Point = INDEX_TC_SPEED;
                         331 --line100
                         332 ..lin.D.3A.5CRenesas_Electronics.5CD1x_RGL.5Crgl_ghs_D1Lx_obj_V1.2E2.2E0.5Cvlib.5Capp.5Cgfx_apps.5Csimple_draw_d1l2.5Ctarget.5Cd1lx_mango_ghs.5Cobj.5Cdm.20::
                         333 .LDWlin20:
000000c2 7d071500        334 	st.w	zero,20[r29]
                         335 --101: 	CurPage_Point = INDEX_TC_SPEED;
000000c6 7d071100        336 	st.w	zero,16[r29]
                         337 --102: 	Value = DIAG_GetOSThresh();
                         338 	jarl	_DIAG_GetOSThresh,lp
                         338 <EXPANSION BEGIN>
                         338 jarl22 _DIAG_GetOSThresh , lp 
000000ca 80ff0000*       338 <EXPANSION END>
000000ce 0ae0            339 	mov	r10,r28
                         340 --103: 	if(Value < 30) Value = 0;
                         341 --line103
                         342 ..lin.D.3A.5CRenesas_Electronics.5CD1x_RGL.5Crgl_ghs_D1Lx_obj_V1.2E2.2E0.5Cvlib.5Capp.5Cgfx_apps.5Csimple_draw_d1l2.5Ctarget.5Cd1lx_mango_ghs.5Cobj.5Cdm.21::
                         343 .LDWlin21:
000000d0 1c06e2ff        344 	addi	-30,r28,zero
000000d4 a105*           345 	bl	.L4
                         346 --line103
                         347 ..lin.D.3A.5CRenesas_Electronics.5CD1x_RGL.5Crgl_ghs_D1Lx_obj_V1.2E2.2E0.5Cvlib.5Capp.5Cgfx_apps.5Csimple_draw_d1l2.5Ctarget.5Cd1lx_mango_ghs.5Cobj.5Cdm.22::
                         348 .LDWlin22:
000000d6 00e2            349 	mov	0,r28
                         350 .L4:
                         351 --104: 	speed_Limit = Value/5;			/*INDEX_SPEEDLIMIT_OFF*/
000000d8 1c08            352 	mov	r28,r1
000000da 0572            353 	mov	5,r14

                                                                      Page 8
                                                              C:\Users\YINGAO~1\AppData\Local\Temp\gh_000004s1.si
000000dc ee0ffc02        354 	divq	r14,r1,zero
000000e0 7d0f0d00        355 	st.w	r1,12[r29]
                         356 --105: 	logoCnt  = INDEX_LOGO1;
000000e4 7d070100        357 	st.w	zero,0[r29]
                         358 --106: 	SetSel   = 0;
000000e8 5d072a00        359 	st.b	zero,42[r29]
                         360 --107: 	TCSel    =  SUBFUCTION_TC_SPEED;
000000ec 7d070500        361 	st.w	zero,4[r29]
                         362 --108: 	SCS_Sts  = 0;
000000f0 5d072b00        363 	st.b	zero,43[r29]
                         364 --109: 	scs_cmd  = FALSE;
000000f4 5d072c00        365 	st.b	zero,44[r29]
                         366 --110: 	CurFaultList = 0;
000000f8 2b0600000000*   367 	mov	_CurFaultList,r11
000000fe 4b070000        368 	st.b	zero,0[r11]
                         369 --111: 	//dm_NavDircn  = INDEX_NAVI_PARKING;
                         370 --112: 	dm_MsgIndex  = INDEX_MSG_NULL;
00000102 2b0600000000*   371 	mov	_dm_MsgIndex,r11
00000108 6b070100        372 	st.w	zero,0[r11]
                         373 --114: 	dm_stSet.illuEn   = DIAG_GetMenuIllumAdEn();
                         374 	jarl	_DIAG_GetMenuIllumAdEn,lp
                         374 <EXPANSION BEGIN>
                         374 jarl22 _DIAG_GetMenuIllumAdEn , lp 
0000010c 80ff0000*       374 <EXPANSION END>
00000110 5d573300        375 	st.b	r10,51[r29]
                         376 --115: 	dm_stSet.SpdLmtEn = DIAG_GetMenuSpeedTreshold();
                         377 --line115
                         378 ..lin.D.3A.5CRenesas_Electronics.5CD1x_RGL.5Crgl_ghs_D1Lx_obj_V1.2E2.2E0.5Cvlib.5Capp.5Cgfx_apps.5Csimple_draw_d1l2.5Ctarget.5Cd1lx_mango_ghs.5Cobj.5Cdm.23::
                         379 .LDWlin23:
                         380 	jarl	_DIAG_GetMenuSpeedTreshold,lp
                         380 <EXPANSION BEGIN>
                         380 jarl22 _DIAG_GetMenuSpeedTreshold , lp 
00000114 80ff0000*       380 <EXPANSION END>
00000118 5d573200        381 	st.b	r10,50[r29]
                         382 --116: 	dm_stSet.ScsEn    = DIAG_GetSCSOffSwitchEn();
                         383 --line116
                         384 ..lin.D.3A.5CRenesas_Electronics.5CD1x_RGL.5Crgl_ghs_D1Lx_obj_V1.2E2.2E0.5Cvlib.5Capp.5Cgfx_apps.5Csimple_draw_d1l2.5Ctarget.5Cd1lx_mango_ghs.5Cobj.5Cdm.24::
                         385 .LDWlin24:
                         386 	jarl	_DIAG_GetSCSOffSwitchEn,lp
                         386 <EXPANSION BEGIN>
                         386 jarl22 _DIAG_GetSCSOffSwitchEn , lp 
0000011c 80ff0000*       386 <EXPANSION END>
00000120 5d573100        387 	st.b	r10,49[r29]
                         388 --117:     dm_EscMaxCnt = ((insTCDispTimeoutPrm*1000)/DM_PROCESS_PRO);
                         389 --line117
                         390 ..lin.D.3A.5CRenesas_Electronics.5CD1x_RGL.5Crgl_ghs_D1Lx_obj_V1.2E2.2E0.5Cvlib.5Capp.5Cgfx_apps.5Csimple_draw_d1l2.5Ctarget.5Cd1lx_mango_ghs.5Cobj.5Cdm.25::
                         391 .LDWlin25:
00000124 9d0f2100        392 	ld.bu	32[r29],r1
00000128 20763200        393 	movea	50,zero,r14
0000012c 2b0600000000*   394 	mov	_dm_EscMaxCnt,r11
00000132 e10ee803        395 	mulhi	1000,r1,r1
00000136 ee0ffc02        396 	divq	r14,r1,zero
0000013a 6b0f0100        397 	st.w	r1,0[r11]
                         398 --118:     dm_EscCnt = 0;
0000013e 2b0600000000*   399 	mov	_dm_EscCnt,r11
00000144 6b070100        400 	st.w	zero,0[r11]
                         401 --120: 	memset(&Dm_Send_Data.DATA, 0, sizeof(Dm_DATA_ST));
00000148 1b360400        402 	addi	4,r27,r6
0000014c 003a            403 	mov	0,r7
0000014e 20463c00        404 	movea	60,zero,r8
                         405 	jarl	_memset,lp

                                                                      Page 9
                                                              C:\Users\YINGAO~1\AppData\Local\Temp\gh_000004s1.si
                         405 <EXPANSION BEGIN>
                         405 jarl22 _memset , lp 
00000152 80ff0000*       405 <EXPANSION END>
                         406 --121: 	Dm_Send_Data.CMD.PageType = INDEX_NULL;
                         407 --line121
                         408 ..lin.D.3A.5CRenesas_Electronics.5CD1x_RGL.5Crgl_ghs_D1Lx_obj_V1.2E2.2E0.5Cvlib.5Capp.5Cgfx_apps.5Csimple_draw_d1l2.5Ctarget.5Cd1lx_mango_ghs.5Cobj.5Cdm.26::
                         409 .LDWlin26:
00000156 5d073800        410 	st.b	zero,56[r29]
                         411 --122: 	Dm_Send_Data.CMD.MainPage = 0;
0000015a 5d073900        412 	st.b	zero,57[r29]
                         413 --123: 	Dm_Send_Data.CMD.SubPage  = 0;
0000015e 5d073a00        414 	st.b	zero,58[r29]
                         415 --124:     NZM_GetDataValue(INDEX_NZM_MAINPAGE,&dm_FunPage.MainPage,1);
00000162 1a3e0100        416 	addi	1,r26,r7
00000166 0532            417 	mov	5,r6
00000168 0142            418 	mov	1,r8
                         419 	jarl	_NZM_GetDataValue,lp
                         419 <EXPANSION BEGIN>
                         419 jarl22 _NZM_GetDataValue , lp 
0000016a 80ff0000*       419 <EXPANSION END>
                         420 --125:        
                         421 --126:        switch(dm_FunPage.MainPage)
                         422 --line126
                         423 ..lin.D.3A.5CRenesas_Electronics.5CD1x_RGL.5Crgl_ghs_D1Lx_obj_V1.2E2.2E0.5Cvlib.5Capp.5Cgfx_apps.5Csimple_draw_d1l2.5Ctarget.5Cd1lx_mango_ghs.5Cobj.5Cdm.27::
                         424 .LDWlin27:
0000016e bd0f2f00        425 	ld.bu	47[r29],r1
00000172 610a            426 	cmp	1,r1
00000174 810d*           427 	bl	.L8
00000176 8275*           428 	be	.L26
00000178 630a            429 	cmp	3,r1
0000017a d17d*           430 	bl	.L27
0000017c eb073b01*       431 	bh	.L6
00000180 80070201*       432 	br	.L28
                         433 .L8:
                         434 --127:         {
                         435 --128:             case MAINFUCTION_TC:
                         436 --129:              NZM_GetDataValue(INDEX_NZM_TCSUBPAGE,&TCSel,1);
                         437 --line129
                         438 ..lin.D.3A.5CRenesas_Electronics.5CD1x_RGL.5Crgl_ghs_D1Lx_obj_V1.2E2.2E0.5Cvlib.5Capp.5Cgfx_apps.5Csimple_draw_d1l2.5Ctarget.5Cd1lx_mango_ghs.5Cobj.5Cdm.28::
                         439 .LDWlin28:
00000184 1938            440 	mov	r25,r7
00000186 0632            441 	mov	6,r6
00000188 0142            442 	mov	1,r8
                         443 	jarl	_NZM_GetDataValue,lp
                         443 <EXPANSION BEGIN>
                         443 jarl22 _NZM_GetDataValue , lp 
0000018a 80ff0000*       443 <EXPANSION END>
                         444 --130: 			 
                         445 --131: 			 if( (FALSE == DIAG_GetTrip1UserEn()) && (TCSel == 
                         446 --line131
                         447 ..lin.D.3A.5CRenesas_Electronics.5CD1x_RGL.5Crgl_ghs_D1Lx_obj_V1.2E2.2E0.5Cvlib.5Capp.5Cgfx_apps.5Csimple_draw_d1l2.5Ctarget.5Cd1lx_mango_ghs.5Cobj.5Cdm.29::
                         448 .LDWlin29:
                         449 	jarl	_DIAG_GetTrip1UserEn,lp
                         449 <EXPANSION BEGIN>
                         449 jarl22 _DIAG_GetTrip1UserEn , lp 
0000018e 80ff0000*       449 <EXPANSION END>
00000192 e051            450 	cmp	zero,r10
00000194 aa0d*           451 	bne	.L12
00000196 3d0f0500        452 	ld.w	4[r29],r1
0000019a 640a            453 	cmp	4,r1
0000019c ea05*           454 	bne	.L12

                                                                      Page 10
                                                              C:\Users\YINGAO~1\AppData\Local\Temp\gh_000004s1.si
                         455 --132: 			 SUBFUCTION_TC_AUTOSTART))
                         456 --133: 		 	 {
                         457 --134: 		 		 TCSel ++;
                         458 --line134
                         459 ..lin.D.3A.5CRenesas_Electronics.5CD1x_RGL.5Crgl_ghs_D1Lx_obj_V1.2E2.2E0.5Cvlib.5Capp.5Cgfx_apps.5Csimple_draw_d1l2.5Ctarget.5Cd1lx_mango_ghs.5Cobj.5Cdm.30::
                         460 .LDWlin30:
0000019e 3d0f0500        461 	ld.w	4[r29],r1
000001a2 410a            462 	add	1,r1
000001a4 7d0f0500        463 	st.w	r1,4[r29]
                         464 .L12:
                         465 --135: 		 	 }
                         466 --136: 			 else
                         467 --137: 		 	 {
                         468 --138: 		 	 }
                         469 --139: 			 if( (FALSE == DIAG_GetTrip2UserEn()) && (TCSel == 
                         470 	jarl	_DIAG_GetTrip2UserEn,lp
                         470 <EXPANSION BEGIN>
                         470 jarl22 _DIAG_GetTrip2UserEn , lp 
000001a8 80ff0000*       470 <EXPANSION END>
000001ac e051            471 	cmp	zero,r10
000001ae aa0d*           472 	bne	.L16
000001b0 3d0f0500        473 	ld.w	4[r29],r1
000001b4 650a            474 	cmp	5,r1
000001b6 ea05*           475 	bne	.L16
                         476 --140: 			 SUBFUCTION_TC_AUTORST))
                         477 --141: 			 {
                         478 --142: 			 	TCSel ++;
                         479 --line142
                         480 ..lin.D.3A.5CRenesas_Electronics.5CD1x_RGL.5Crgl_ghs_D1Lx_obj_V1.2E2.2E0.5Cvlib.5Capp.5Cgfx_apps.5Csimple_draw_d1l2.5Ctarget.5Cd1lx_mango_ghs.5Cobj.5Cdm.31::
                         481 .LDWlin31:
000001b8 3d0f0500        482 	ld.w	4[r29],r1
000001bc 410a            483 	add	1,r1
000001be 7d0f0500        484 	st.w	r1,4[r29]
                         485 .L16:
                         486 --143: 		 	 }
                         487 --144: 			 else
                         488 --145: 		 	 {
                         489 --146: 		 	 }
                         490 --147:              dm_FunPage.SubPage = TCSel; 
000001c2 3d0f0500        491 	ld.w	4[r29],r1
000001c6 5d0f3000        492 	st.b	r1,48[r29]
                         493 --148:              switch(TCSel)
000001ca 3d0f0500        494 	ld.w	4[r29],r1
000001ce 660a            495 	cmp	6,r1
000001d0 ab45*           496 	bh	.L17
000001d2 c20a            497 	shl	2,r1
000001d4 e10600000000*   498 	jmp	.L240[r1]
                         499 .L240:
000001da 80071c00*       500 	jr	.L19
000001de 80072200*       501 	jr	.L20
000001e2 80072c00*       502 	jr	.L21
000001e6 80073600*       503 	jr	.L22
000001ea 80074000*       504 	jr	.L23
000001ee 80074a00*       505 	jr	.L24
000001f2 80075400*       506 	jr	.L25
                         507 .L19:
                         508 --149:                 {
                         509 --150:                     case SUBFUCTION_TC_SPEED:                        
                         510 --151:                          CurPage_Point  = INDEX_TC_SPEED;
                         511 --line151
                         512 ..lin.D.3A.5CRenesas_Electronics.5CD1x_RGL.5Crgl_ghs_D1Lx_obj_V1.2E2.2E0.5Cvlib.5Capp.5Cgfx_apps.5Csimple_draw_d1l2.5Ctarget.5Cd1lx_mango_ghs.5Cobj.5Cdm.32::

                                                                      Page 11
                                                              C:\Users\YINGAO~1\AppData\Local\Temp\gh_000004s1.si
                         513 .LDWlin32:
000001f6 7d071100        514 	st.w	zero,16[r29]
                         515 --152:                          DestPage_Point = INDEX_TC_SPEED;
000001fa 7d071500        516 	st.w	zero,20[r29]
000001fe b52d*           517 	br	.L17
                         518 .L20:
                         519 --153:                     break;
                         520 --154:                     case SUBFUCTION_TC_INSFUELCOMP:                       
                         521 --155:                          CurPage_Point  = INDEX_TC_INSFUELCOMPN;
                         522 --line155
                         523 ..lin.D.3A.5CRenesas_Electronics.5CD1x_RGL.5Crgl_ghs_D1Lx_obj_V1.2E2.2E0.5Cvlib.5Capp.5Cgfx_apps.5Csimple_draw_d1l2.5Ctarget.5Cd1lx_mango_ghs.5Cobj.5Cdm.33::
                         524 .LDWlin33:
00000200 010a            525 	mov	1,r1
00000202 7d0f1100        526 	st.w	r1,16[r29]
                         527 --156:                          DestPage_Point = INDEX_TC_INSFUELCOMPN;
00000206 010a            528 	mov	1,r1
00000208 7d0f1500        529 	st.w	r1,20[r29]
0000020c c525*           530 	br	.L17
                         531 .L21:
                         532 --157:                     break;
                         533 --158:                     case SUBFUCTION_TC_RANGE:                     
                         534 --159:                          CurPage_Point  = INDEX_TC_RANG;
                         535 --line159
                         536 ..lin.D.3A.5CRenesas_Electronics.5CD1x_RGL.5Crgl_ghs_D1Lx_obj_V1.2E2.2E0.5Cvlib.5Capp.5Cgfx_apps.5Csimple_draw_d1l2.5Ctarget.5Cd1lx_mango_ghs.5Cobj.5Cdm.34::
                         537 .LDWlin34:
0000020e 020a            538 	mov	2,r1
00000210 7d0f1100        539 	st.w	r1,16[r29]
                         540 --160:                          DestPage_Point = INDEX_TC_RANG;
00000214 020a            541 	mov	2,r1
00000216 7d0f1500        542 	st.w	r1,20[r29]
0000021a d51d*           543 	br	.L17
                         544 .L22:
                         545 --161:                     break;
                         546 --162:                     case SUBFUCTION_TC_BAT:                  
                         547 --163:                          CurPage_Point  = INDEX_TC_BAT;
                         548 --line163
                         549 ..lin.D.3A.5CRenesas_Electronics.5CD1x_RGL.5Crgl_ghs_D1Lx_obj_V1.2E2.2E0.5Cvlib.5Capp.5Cgfx_apps.5Csimple_draw_d1l2.5Ctarget.5Cd1lx_mango_ghs.5Cobj.5Cdm.35::
                         550 .LDWlin35:
0000021c 030a            551 	mov	3,r1
0000021e 7d0f1100        552 	st.w	r1,16[r29]
                         553 --164:                          DestPage_Point = INDEX_TC_BAT;
00000222 030a            554 	mov	3,r1
00000224 7d0f1500        555 	st.w	r1,20[r29]
00000228 e515*           556 	br	.L17
                         557 .L23:
                         558 --165:                     break;
                         559 --166:                     case SUBFUCTION_TC_AUTOSTART:                
                         560 --167:                          CurPage_Point  = INDEX_TC_AUTOSTART;
                         561 --line167
                         562 ..lin.D.3A.5CRenesas_Electronics.5CD1x_RGL.5Crgl_ghs_D1Lx_obj_V1.2E2.2E0.5Cvlib.5Capp.5Cgfx_apps.5Csimple_draw_d1l2.5Ctarget.5Cd1lx_mango_ghs.5Cobj.5Cdm.36::
                         563 .LDWlin36:
0000022a 040a            564 	mov	4,r1
0000022c 7d0f1100        565 	st.w	r1,16[r29]
                         566 --168:                          DestPage_Point = INDEX_TC_AUTOSTART;
00000230 040a            567 	mov	4,r1
00000232 7d0f1500        568 	st.w	r1,20[r29]
00000236 f50d*           569 	br	.L17
                         570 .L24:
                         571 --169:                     break;
                         572 --170:                     case SUBFUCTION_TC_AUTORST:             
                         573 --171:                          CurPage_Point  = INDEX_TC_AUTORST;

                                                                      Page 12
                                                              C:\Users\YINGAO~1\AppData\Local\Temp\gh_000004s1.si
                         574 --line171
                         575 ..lin.D.3A.5CRenesas_Electronics.5CD1x_RGL.5Crgl_ghs_D1Lx_obj_V1.2E2.2E0.5Cvlib.5Capp.5Cgfx_apps.5Csimple_draw_d1l2.5Ctarget.5Cd1lx_mango_ghs.5Cobj.5Cdm.37::
                         576 .LDWlin37:
00000238 050a            577 	mov	5,r1
0000023a 7d0f1100        578 	st.w	r1,16[r29]
                         579 --172:                          DestPage_Point = INDEX_TC_AUTORST;
0000023e 050a            580 	mov	5,r1
00000240 7d0f1500        581 	st.w	r1,20[r29]
00000244 850d*           582 	br	.L17
                         583 .L25:
                         584 --173:                     break;
                         585 --174:                     case SUBFUCTION_TC_TIREPRESS:          
                         586 --175:                          CurPage_Point  = INDEX_TC_TIREPRESS;
                         587 --line175
                         588 ..lin.D.3A.5CRenesas_Electronics.5CD1x_RGL.5Crgl_ghs_D1Lx_obj_V1.2E2.2E0.5Cvlib.5Capp.5Cgfx_apps.5Csimple_draw_d1l2.5Ctarget.5Cd1lx_mango_ghs.5Cobj.5Cdm.38::
                         589 .LDWlin38:
00000246 060a            590 	mov	6,r1
00000248 7d0f1100        591 	st.w	r1,16[r29]
                         592 --176:                          DestPage_Point = INDEX_TC_TIREPRESS;
0000024c 060a            593 	mov	6,r1
0000024e 7d0f1500        594 	st.w	r1,20[r29]
00000252 0000            595 	nop
                         596 .L17:
00000254 9535*           597 	br	.L6
                         598 .L26:
                         599 --177:                     break;
                         600 --178:                 }
                         601 --179:              break;
                         602 --180:             case MAINFUCTION_SET:                
                         603 --181: 	        dm_FunPage.SubPage = SUBFUCTION_SETTING;
                         604 --line181
                         605 ..lin.D.3A.5CRenesas_Electronics.5CD1x_RGL.5Crgl_ghs_D1Lx_obj_V1.2E2.2E0.5Cvlib.5Capp.5Cgfx_apps.5Csimple_draw_d1l2.5Ctarget.5Cd1lx_mango_ghs.5Cobj.5Cdm.39::
                         606 .LDWlin39:
00000256 5d073000        607 	st.b	zero,48[r29]
                         608 --182:              NZM_GetDataValue(INDEX_NZM_SETINDEX,&SetSel,1);    
0000025a 0732            609 	mov	7,r6
0000025c 3d3e2a00        610 	movea	42,r29,r7
00000260 0142            611 	mov	1,r8
                         612 	jarl	_NZM_GetDataValue,lp
                         612 <EXPANSION BEGIN>
                         612 jarl22 _NZM_GetDataValue , lp 
00000262 80ff0000*       612 <EXPANSION END>
                         613 --183:              CurPage_Point  = INDEX_SET_SETTING;
                         614 --line183
                         615 ..lin.D.3A.5CRenesas_Electronics.5CD1x_RGL.5Crgl_ghs_D1Lx_obj_V1.2E2.2E0.5Cvlib.5Capp.5Cgfx_apps.5Csimple_draw_d1l2.5Ctarget.5Cd1lx_mango_ghs.5Cobj.5Cdm.40::
                         616 .LDWlin40:
00000266 070a            617 	mov	7,r1
00000268 7d0f1100        618 	st.w	r1,16[r29]
                         619 --184:              DestPage_Point = INDEX_SET_SETTING;
0000026c 070a            620 	mov	7,r1
0000026e 7d0f1500        621 	st.w	r1,20[r29]
00000272 a525*           622 	br	.L6
                         623 .L27:
                         624 --185:                 break;
                         625 --186:             case MAINFUCTION_ENTERTAINMENT:
                         626 --187:                  CurPage_Point  = INDEX_ENT_MEDIA_MUSIC;
                         627 --line187
                         628 ..lin.D.3A.5CRenesas_Electronics.5CD1x_RGL.5Crgl_ghs_D1Lx_obj_V1.2E2.2E0.5Cvlib.5Capp.5Cgfx_apps.5Csimple_draw_d1l2.5Ctarget.5Cd1lx_mango_ghs.5Cobj.5Cdm.41::
                         629 .LDWlin41:
00000274 0b0a            630 	mov	11,r1
00000276 7d0f1100        631 	st.w	r1,16[r29]

                                                                      Page 13
                                                              C:\Users\YINGAO~1\AppData\Local\Temp\gh_000004s1.si
                         632 --188:                  DestPage_Point = INDEX_ENT_MEDIA_MUSIC;
0000027a 0b0a            633 	mov	11,r1
0000027c 7d0f1500        634 	st.w	r1,20[r29]
00000280 b51d*           635 	br	.L6
                         636 .L28:
                         637 --189:                 break;
                         638 --190:             case MAINFUCTION_FAULT:                
                         639 --191:                  CurPage_Point  = INDEX_FAULT_FAULTLIST;
                         640 --line191
                         641 ..lin.D.3A.5CRenesas_Electronics.5CD1x_RGL.5Crgl_ghs_D1Lx_obj_V1.2E2.2E0.5Cvlib.5Capp.5Cgfx_apps.5Csimple_draw_d1l2.5Ctarget.5Cd1lx_mango_ghs.5Cobj.5Cdm.42::
                         642 .LDWlin42:
00000282 0c0a            643 	mov	12,r1
00000284 7d0f1100        644 	st.w	r1,16[r29]
                         645 --192:                  DestPage_Point = INDEX_FAULT_FAULTLIST;
00000288 0c0a            646 	mov	12,r1
0000028a 7d0f1500        647 	st.w	r1,20[r29]
                         648 --193:                  NZM_GetDataValue(INDEX_NZM_SETINDEX,&CurFaultList,1);
0000028e 0732            649 	mov	7,r6
00000290 0142            650 	mov	1,r8
00000292 270600000000*   651 	mov	_CurFaultList,r7
                         652 	jarl	_NZM_GetDataValue,lp
                         652 <EXPANSION BEGIN>
                         652 jarl22 _NZM_GetDataValue , lp 
00000298 80ff0000*       652 <EXPANSION END>
                         653 --194:                  if(CurFaultList%4 != 0) CurFaultList = 0;
                         654 --line194
                         655 ..lin.D.3A.5CRenesas_Electronics.5CD1x_RGL.5Crgl_ghs_D1Lx_obj_V1.2E2.2E0.5Cvlib.5Capp.5Cgfx_apps.5Csimple_draw_d1l2.5Ctarget.5Cd1lx_mango_ghs.5Cobj.5Cdm.43::
                         656 .LDWlin43:
0000029c 210600000000*   657 	mov	_CurFaultList,r1
000002a2 810f0100        658 	ld.bu	0[r1],r1
000002a6 de0a            659 	shl	30,r1
000002a8 e205*           660 	be	.L29
                         661 --line194
                         662 ..lin.D.3A.5CRenesas_Electronics.5CD1x_RGL.5Crgl_ghs_D1Lx_obj_V1.2E2.2E0.5Cvlib.5Capp.5Cgfx_apps.5Csimple_draw_d1l2.5Ctarget.5Cd1lx_mango_ghs.5Cobj.5Cdm.44::
                         663 .LDWlin44:
000002aa 2b0600000000*   664 	mov	_CurFaultList,r11
000002b0 4b070000        665 	st.b	zero,0[r11]
                         666 .L29:
000002b4 0000            667 	nop
                         668 .L6:
                         669 --195:                 break;
                         670 --196:         }     
                         671 --198:         NZM_GetDataValue(INDEX_NZM_ILLULEVEL,&illu_Level,1);
000002b6 270600000000*   672 	mov	_illu_Level,r7
000002bc 0832            673 	mov	8,r6
000002be 0142            674 	mov	1,r8
                         675 	jarl	_NZM_GetDataValue,lp
                         675 <EXPANSION BEGIN>
                         675 jarl22 _NZM_GetDataValue , lp 
000002c0 80ff0000*       675 <EXPANSION END>
                         676 --199:         if (INDEX_ILLU_OFF == illu_Level)
                         677 --line199
                         678 ..lin.D.3A.5CRenesas_Electronics.5CD1x_RGL.5Crgl_ghs_D1Lx_obj_V1.2E2.2E0.5Cvlib.5Capp.5Cgfx_apps.5Csimple_draw_d1l2.5Ctarget.5Cd1lx_mango_ghs.5Cobj.5Cdm.45::
                         679 .LDWlin45:
000002c4 3d0f0900        680 	ld.w	8[r29],r1
000002c8 e009            681 	cmp	zero,r1
000002ca ca05*           682 	bne	.L31
                         683 --200:         {
                         684 --201:             illu_Level = INDEX_ILLU_lEVEL2;
                         685 --line201
                         686 ..lin.D.3A.5CRenesas_Electronics.5CD1x_RGL.5Crgl_ghs_D1Lx_obj_V1.2E2.2E0.5Cvlib.5Capp.5Cgfx_apps.5Csimple_draw_d1l2.5Ctarget.5Cd1lx_mango_ghs.5Cobj.5Cdm.46::

                                                                      Page 14
                                                              C:\Users\YINGAO~1\AppData\Local\Temp\gh_000004s1.si
                         687 .LDWlin46:
000002cc 020a            688 	mov	2,r1
000002ce 7d0f0900        689 	st.w	r1,8[r29]
                         690 .L31:
                         691 --202:         }
                         692 --204: 	    ILLU_SetILLULevel(CHANNEL_ILLU_TFT,illu_Level);
000002d2 3d3f0900        693 	ld.w	8[r29],r7
000002d6 0032            694 	mov	0,r6
                         695 	jarl	_ILLU_SetILLULevel,lp
                         695 <EXPANSION BEGIN>
                         695 jarl22 _ILLU_SetILLULevel , lp 
000002d8 80ff0000*       695 <EXPANSION END>
                         696 --205: 		
                         697 --206:         memcpy(&Dm_Send_Data, &dm_FunPage,sizeof(Dm_DATA_ST));
                         698 --line206
                         699 ..lin.D.3A.5CRenesas_Electronics.5CD1x_RGL.5Crgl_ghs_D1Lx_obj_V1.2E2.2E0.5Cvlib.5Capp.5Cgfx_apps.5Csimple_draw_d1l2.5Ctarget.5Cd1lx_mango_ghs.5Cobj.5Cdm.47::
                         700 .LDWlin47:
000002dc 1b30            701 	mov	r27,r6
000002de 1a38            702 	mov	r26,r7
000002e0 20463c00        703 	movea	60,zero,r8
                         704 	jarl	_memcpy,lp
                         704 <EXPANSION BEGIN>
                         704 jarl22 _memcpy , lp 
000002e4 80ff0000*       704 <EXPANSION END>
                         705 --207:       	EnableFun    = FALSE;
                         706 --line207
                         707 ..lin.D.3A.5CRenesas_Electronics.5CD1x_RGL.5Crgl_ghs_D1Lx_obj_V1.2E2.2E0.5Cvlib.5Capp.5Cgfx_apps.5Csimple_draw_d1l2.5Ctarget.5Cd1lx_mango_ghs.5Cobj.5Cdm.48::
                         708 .LDWlin48:
000002e8 2b0600000000*   709 	mov	_EnableFun,r11
000002ee 4b070000        710 	st.b	zero,0[r11]
                         711 --208:       	DM_InitSts   = TRUE;
000002f2 2b0600000000*   712 	mov	_DM_InitSts,r11
000002f8 010a            713 	mov	1,r1
000002fa 4b0f0000        714 	st.b	r1,0[r11]
                         715 --209: }
000002fe 0000            716 	nop
                         717 --	    .ef
                         718 .LDW11:
00000300 4606ff70        719 	dispose	3,{r25,r26,r27,r28,r29,r31},[lp]
                         720 	.type	_DM_Init,@function
                         721 	.size	_DM_Init,.-_DM_Init
                         722 	.align	2
                         723 .LDW21:
                         724 --_Value	r28	local
                         725 
                         726 	.section ".bss","awb"
                         727 	.align	4
                         728 .L236:
                         729 	.type	.L236,@object
                         730 	.size	.L236,0
                         731 	.global	_logoCnt..D.3A.5CRenesas_Electronics.5CD1x_RGL.5Crgl_ghs_D1Lx_obj_V1.2E2.2E0.5Cvlib.5Capp.5Cgfx_apps.5Csimple_draw_d1l2.5Ctarget.5Cd1lx_mango_ghs.5Cobj.5Cdm.
                         732 _logoCnt..D.3A.5CRenesas_Electronics.5CD1x_RGL.5Crgl_ghs_D1Lx_obj_V1.2E2.2E0.5Cvlib.5Capp.5Cgfx_apps.5Csimple_draw_d1l2.5Ctarget.5Cd1lx_mango_ghs.5Cobj.5Cdm.:
                         733 	.type	_logoCnt..D.3A.5CRenesas_Electronics.5CD1x_RGL.5Crgl_ghs_D1Lx_obj_V1.2E2.2E0.5Cvlib.5Capp.5Cgfx_apps.5Csimple_draw_d1l2.5Ctarget.5Cd1lx_mango_ghs.5Cobj.5Cdm.,@object
                         734 	.size	_logoCnt..D.3A.5CRenesas_Electronics.5CD1x_RGL.5Crgl_ghs_D1Lx_obj_V1.2E2.2E0.5Cvlib.5Capp.5Cgfx_apps.5Csimple_draw_d1l2.5Ctarget.5Cd1lx_mango_ghs.5Cobj.5Cdm.,4
00000000 00000000        735 _logoCnt:	.space	4
                         736 	.type	_logoCnt,@object
                         737 	.size	_logoCnt,4
                         738 	.global	_TCSel..D.3A.5CRenesas_Electronics.5CD1x_RGL.5Crgl_ghs_D1Lx_obj_V1.2E2.2E0.5Cvlib.5Capp.5Cgfx_apps.5Csimple_draw_d1l2.5Ctarget.5Cd1lx_mango_ghs.5Cobj.5Cdm.
                         739 _TCSel..D.3A.5CRenesas_Electronics.5CD1x_RGL.5Crgl_ghs_D1Lx_obj_V1.2E2.2E0.5Cvlib.5Capp.5Cgfx_apps.5Csimple_draw_d1l2.5Ctarget.5Cd1lx_mango_ghs.5Cobj.5Cdm.:
                         740 	.type	_TCSel..D.3A.5CRenesas_Electronics.5CD1x_RGL.5Crgl_ghs_D1Lx_obj_V1.2E2.2E0.5Cvlib.5Capp.5Cgfx_apps.5Csimple_draw_d1l2.5Ctarget.5Cd1lx_mango_ghs.5Cobj.5Cdm.,@object
                         741 	.size	_TCSel..D.3A.5CRenesas_Electronics.5CD1x_RGL.5Crgl_ghs_D1Lx_obj_V1.2E2.2E0.5Cvlib.5Capp.5Cgfx_apps.5Csimple_draw_d1l2.5Ctarget.5Cd1lx_mango_ghs.5Cobj.5Cdm.,4

                                                                      Page 15
                                                              C:\Users\YINGAO~1\AppData\Local\Temp\gh_000004s1.si
00000004 00000000        742 _TCSel:	.space	4
                         743 	.type	_TCSel,@object
                         744 	.size	_TCSel,4
                         745 	.global	_illu_Level..D.3A.5CRenesas_Electronics.5CD1x_RGL.5Crgl_ghs_D1Lx_obj_V1.2E2.2E0.5Cvlib.5Capp.5Cgfx_apps.5Csimple_draw_d1l2.5Ctarget.5Cd1lx_mango_ghs.5Cobj.5Cdm.
                         746 _illu_Level..D.3A.5CRenesas_Electronics.5CD1x_RGL.5Crgl_ghs_D1Lx_obj_V1.2E2.2E0.5Cvlib.5Capp.5Cgfx_apps.5Csimple_draw_d1l2.5Ctarget.5Cd1lx_mango_ghs.5Cobj.5Cdm.:
                         747 	.type	_illu_Level..D.3A.5CRenesas_Electronics.5CD1x_RGL.5Crgl_ghs_D1Lx_obj_V1.2E2.2E0.5Cvlib.5Capp.5Cgfx_apps.5Csimple_draw_d1l2.5Ctarget.5Cd1lx_mango_ghs.5Cobj.5Cdm.,@object
                         748 	.size	_illu_Level..D.3A.5CRenesas_Electronics.5CD1x_RGL.5Crgl_ghs_D1Lx_obj_V1.2E2.2E0.5Cvlib.5Capp.5Cgfx_apps.5Csimple_draw_d1l2.5Ctarget.5Cd1lx_mango_ghs.5Cobj.5Cdm.,4
00000008 00000000        749 _illu_Level:	.space	4
                         750 	.type	_illu_Level,@object
                         751 	.size	_illu_Level,4
                         752 	.global	_speed_Limit..D.3A.5CRenesas_Electronics.5CD1x_RGL.5Crgl_ghs_D1Lx_obj_V1.2E2.2E0.5Cvlib.5Capp.5Cgfx_apps.5Csimple_draw_d1l2.5Ctarget.5Cd1lx_mango_ghs.5Cobj.5Cdm.
                         753 _speed_Limit..D.3A.5CRenesas_Electronics.5CD1x_RGL.5Crgl_ghs_D1Lx_obj_V1.2E2.2E0.5Cvlib.5Capp.5Cgfx_apps.5Csimple_draw_d1l2.5Ctarget.5Cd1lx_mango_ghs.5Cobj.5Cdm.:
                         754 	.type	_speed_Limit..D.3A.5CRenesas_Electronics.5CD1x_RGL.5Crgl_ghs_D1Lx_obj_V1.2E2.2E0.5Cvlib.5Capp.5Cgfx_apps.5Csimple_draw_d1l2.5Ctarget.5Cd1lx_mango_ghs.5Cobj.5Cdm.,@object
                         755 	.size	_speed_Limit..D.3A.5CRenesas_Electronics.5CD1x_RGL.5Crgl_ghs_D1Lx_obj_V1.2E2.2E0.5Cvlib.5Capp.5Cgfx_apps.5Csimple_draw_d1l2.5Ctarget.5Cd1lx_mango_ghs.5Cobj.5Cdm.,4
0000000c 00000000        756 _speed_Limit:	.space	4
                         757 	.type	_speed_Limit,@object
                         758 	.size	_speed_Limit,4
                         759 	.global	_CurPage_Point..D.3A.5CRenesas_Electronics.5CD1x_RGL.5Crgl_ghs_D1Lx_obj_V1.2E2.2E0.5Cvlib.5Capp.5Cgfx_apps.5Csimple_draw_d1l2.5Ctarget.5Cd1lx_mango_ghs.5Cobj.5Cdm.
                         760 _CurPage_Point..D.3A.5CRenesas_Electronics.5CD1x_RGL.5Crgl_ghs_D1Lx_obj_V1.2E2.2E0.5Cvlib.5Capp.5Cgfx_apps.5Csimple_draw_d1l2.5Ctarget.5Cd1lx_mango_ghs.5Cobj.5Cdm.:
                         761 	.type	_CurPage_Point..D.3A.5CRenesas_Electronics.5CD1x_RGL.5Crgl_ghs_D1Lx_obj_V1.2E2.2E0.5Cvlib.5Capp.5Cgfx_apps.5Csimple_draw_d1l2.5Ctarget.5Cd1lx_mango_ghs.5Cobj.5Cdm.,@object
                         762 	.size	_CurPage_Point..D.3A.5CRenesas_Electronics.5CD1x_RGL.5Crgl_ghs_D1Lx_obj_V1.2E2.2E0.5Cvlib.5Capp.5Cgfx_apps.5Csimple_draw_d1l2.5Ctarget.5Cd1lx_mango_ghs.5Cobj.5Cdm.,4
00000010 00000000        763 _CurPage_Point:	.space	4
                         764 	.type	_CurPage_Point,@object
                         765 	.size	_CurPage_Point,4
                         766 	.global	_DestPage_Point..D.3A.5CRenesas_Electronics.5CD1x_RGL.5Crgl_ghs_D1Lx_obj_V1.2E2.2E0.5Cvlib.5Capp.5Cgfx_apps.5Csimple_draw_d1l2.5Ctarget.5Cd1lx_mango_ghs.5Cobj.5Cdm.
                         767 _DestPage_Point..D.3A.5CRenesas_Electronics.5CD1x_RGL.5Crgl_ghs_D1Lx_obj_V1.2E2.2E0.5Cvlib.5Capp.5Cgfx_apps.5Csimple_draw_d1l2.5Ctarget.5Cd1lx_mango_ghs.5Cobj.5Cdm.:
                         768 	.type	_DestPage_Point..D.3A.5CRenesas_Electronics.5CD1x_RGL.5Crgl_ghs_D1Lx_obj_V1.2E2.2E0.5Cvlib.5Capp.5Cgfx_apps.5Csimple_draw_d1l2.5Ctarget.5Cd1lx_mango_ghs.5Cobj.5Cdm.,@object
                         769 	.size	_DestPage_Point..D.3A.5CRenesas_Electronics.5CD1x_RGL.5Crgl_ghs_D1Lx_obj_V1.2E2.2E0.5Cvlib.5Capp.5Cgfx_apps.5Csimple_draw_d1l2.5Ctarget.5Cd1lx_mango_ghs.5Cobj.5Cdm.,4
00000014 00000000        770 _DestPage_Point:	.space	4
                         771 	.type	_DestPage_Point,@object
                         772 	.size	_DestPage_Point,4
                         773 	.data
                         774 	.align	4
                         775 	.global	_dm_MsgIndex..D.3A.5CRenesas_Electronics.5CD1x_RGL.5Crgl_ghs_D1Lx_obj_V1.2E2.2E0.5Cvlib.5Capp.5Cgfx_apps.5Csimple_draw_d1l2.5Ctarget.5Cd1lx_mango_ghs.5Cobj.5Cdm.
                         776 _dm_MsgIndex..D.3A.5CRenesas_Electronics.5CD1x_RGL.5Crgl_ghs_D1Lx_obj_V1.2E2.2E0.5Cvlib.5Capp.5Cgfx_apps.5Csimple_draw_d1l2.5Ctarget.5Cd1lx_mango_ghs.5Cobj.5Cdm.:
                         777 	.type	_dm_MsgIndex..D.3A.5CRenesas_Electronics.5CD1x_RGL.5Crgl_ghs_D1Lx_obj_V1.2E2.2E0.5Cvlib.5Capp.5Cgfx_apps.5Csimple_draw_d1l2.5Ctarget.5Cd1lx_mango_ghs.5Cobj.5Cdm.,@object
                         778 	.size	_dm_MsgIndex..D.3A.5CRenesas_Electronics.5CD1x_RGL.5Crgl_ghs_D1Lx_obj_V1.2E2.2E0.5Cvlib.5Capp.5Cgfx_apps.5Csimple_draw_d1l2.5Ctarget.5Cd1lx_mango_ghs.5Cobj.5Cdm.,4
00000000 00000000        779 _dm_MsgIndex:	.byte	0,0,0,0
                         780 	.type	_dm_MsgIndex,@object
                         781 	.size	_dm_MsgIndex,4
                         782 	.global	_dm_EscCnt..D.3A.5CRenesas_Electronics.5CD1x_RGL.5Crgl_ghs_D1Lx_obj_V1.2E2.2E0.5Cvlib.5Capp.5Cgfx_apps.5Csimple_draw_d1l2.5Ctarget.5Cd1lx_mango_ghs.5Cobj.5Cdm.
                         783 _dm_EscCnt..D.3A.5CRenesas_Electronics.5CD1x_RGL.5Crgl_ghs_D1Lx_obj_V1.2E2.2E0.5Cvlib.5Capp.5Cgfx_apps.5Csimple_draw_d1l2.5Ctarget.5Cd1lx_mango_ghs.5Cobj.5Cdm.:
                         784 	.type	_dm_EscCnt..D.3A.5CRenesas_Electronics.5CD1x_RGL.5Crgl_ghs_D1Lx_obj_V1.2E2.2E0.5Cvlib.5Capp.5Cgfx_apps.5Csimple_draw_d1l2.5Ctarget.5Cd1lx_mango_ghs.5Cobj.5Cdm.,@object
                         785 	.size	_dm_EscCnt..D.3A.5CRenesas_Electronics.5CD1x_RGL.5Crgl_ghs_D1Lx_obj_V1.2E2.2E0.5Cvlib.5Capp.5Cgfx_apps.5Csimple_draw_d1l2.5Ctarget.5Cd1lx_mango_ghs.5Cobj.5Cdm.,4
00000004 00000000        786 _dm_EscCnt:	.byte	0,0,0,0
                         787 	.type	_dm_EscCnt,@object
                         788 	.size	_dm_EscCnt,4
                         789 	.global	_dm_EscMaxCnt..D.3A.5CRenesas_Electronics.5CD1x_RGL.5Crgl_ghs_D1Lx_obj_V1.2E2.2E0.5Cvlib.5Capp.5Cgfx_apps.5Csimple_draw_d1l2.5Ctarget.5Cd1lx_mango_ghs.5Cobj.5Cdm.
                         790 _dm_EscMaxCnt..D.3A.5CRenesas_Electronics.5CD1x_RGL.5Crgl_ghs_D1Lx_obj_V1.2E2.2E0.5Cvlib.5Capp.5Cgfx_apps.5Csimple_draw_d1l2.5Ctarget.5Cd1lx_mango_ghs.5Cobj.5Cdm.:
                         791 	.type	_dm_EscMaxCnt..D.3A.5CRenesas_Electronics.5CD1x_RGL.5Crgl_ghs_D1Lx_obj_V1.2E2.2E0.5Cvlib.5Capp.5Cgfx_apps.5Csimple_draw_d1l2.5Ctarget.5Cd1lx_mango_ghs.5Cobj.5Cdm.,@object
                         792 	.size	_dm_EscMaxCnt..D.3A.5CRenesas_Electronics.5CD1x_RGL.5Crgl_ghs_D1Lx_obj_V1.2E2.2E0.5Cvlib.5Capp.5Cgfx_apps.5Csimple_draw_d1l2.5Ctarget.5Cd1lx_mango_ghs.5Cobj.5Cdm.,4
00000008 00000000        793 _dm_EscMaxCnt:	.byte	0,0,0,0
                         794 	.type	_dm_EscMaxCnt,@object
                         795 	.size	_dm_EscMaxCnt,4
                         796 	.global	_DM_InitSts..D.3A.5CRenesas_Electronics.5CD1x_RGL.5Crgl_ghs_D1Lx_obj_V1.2E2.2E0.5Cvlib.5Capp.5Cgfx_apps.5Csimple_draw_d1l2.5Ctarget.5Cd1lx_mango_ghs.5Cobj.5Cdm.
                         797 _DM_InitSts..D.3A.5CRenesas_Electronics.5CD1x_RGL.5Crgl_ghs_D1Lx_obj_V1.2E2.2E0.5Cvlib.5Capp.5Cgfx_apps.5Csimple_draw_d1l2.5Ctarget.5Cd1lx_mango_ghs.5Cobj.5Cdm.:
                         798 	.type	_DM_InitSts..D.3A.5CRenesas_Electronics.5CD1x_RGL.5Crgl_ghs_D1Lx_obj_V1.2E2.2E0.5Cvlib.5Capp.5Cgfx_apps.5Csimple_draw_d1l2.5Ctarget.5Cd1lx_mango_ghs.5Cobj.5Cdm.,@object
                         799 	.size	_DM_InitSts..D.3A.5CRenesas_Electronics.5CD1x_RGL.5Crgl_ghs_D1Lx_obj_V1.2E2.2E0.5Cvlib.5Capp.5Cgfx_apps.5Csimple_draw_d1l2.5Ctarget.5Cd1lx_mango_ghs.5Cobj.5Cdm.,1
0000000c 00              800 _DM_InitSts:	.byte	0
                         801 	.type	_DM_InitSts,@object
                         802 	.size	_DM_InitSts,1

                                                                      Page 16
                                                              C:\Users\YINGAO~1\AppData\Local\Temp\gh_000004s1.si
                         803 	.section ".bss","awb"
                         804 	.global	_insTrip1UserEnPrm..D.3A.5CRenesas_Electronics.5CD1x_RGL.5Crgl_ghs_D1Lx_obj_V1.2E2.2E0.5Cvlib.5Capp.5Cgfx_apps.5Csimple_draw_d1l2.5Ctarget.5Cd1lx_mango_ghs.5Cobj.5Cdm.
                         805 _insTrip1UserEnPrm..D.3A.5CRenesas_Electronics.5CD1x_RGL.5Crgl_ghs_D1Lx_obj_V1.2E2.2E0.5Cvlib.5Capp.5Cgfx_apps.5Csimple_draw_d1l2.5Ctarget.5Cd1lx_mango_ghs.5Cobj.5Cdm.:
                         806 	.type	_insTrip1UserEnPrm..D.3A.5CRenesas_Electronics.5CD1x_RGL.5Crgl_ghs_D1Lx_obj_V1.2E2.2E0.5Cvlib.5Capp.5Cgfx_apps.5Csimple_draw_d1l2.5Ctarget.5Cd1lx_mango_ghs.5Cobj.5Cdm.,@object
                         807 	.size	_insTrip1UserEnPrm..D.3A.5CRenesas_Electronics.5CD1x_RGL.5Crgl_ghs_D1Lx_obj_V1.2E2.2E0.5Cvlib.5Capp.5Cgfx_apps.5Csimple_draw_d1l2.5Ctarget.5Cd1lx_mango_ghs.5Cobj.5Cdm.,1
00000018 00              808 _insTrip1UserEnPrm:	.space	1
                         809 	.type	_insTrip1UserEnPrm,@object
                         810 	.size	_insTrip1UserEnPrm,1
                         811 	.global	_insTrip2UserEnPrm..D.3A.5CRenesas_Electronics.5CD1x_RGL.5Crgl_ghs_D1Lx_obj_V1.2E2.2E0.5Cvlib.5Capp.5Cgfx_apps.5Csimple_draw_d1l2.5Ctarget.5Cd1lx_mango_ghs.5Cobj.5Cdm.
                         812 _insTrip2UserEnPrm..D.3A.5CRenesas_Electronics.5CD1x_RGL.5Crgl_ghs_D1Lx_obj_V1.2E2.2E0.5Cvlib.5Capp.5Cgfx_apps.5Csimple_draw_d1l2.5Ctarget.5Cd1lx_mango_ghs.5Cobj.5Cdm.:
                         813 	.type	_insTrip2UserEnPrm..D.3A.5CRenesas_Electronics.5CD1x_RGL.5Crgl_ghs_D1Lx_obj_V1.2E2.2E0.5Cvlib.5Capp.5Cgfx_apps.5Csimple_draw_d1l2.5Ctarget.5Cd1lx_mango_ghs.5Cobj.5Cdm.,@object
                         814 	.size	_insTrip2UserEnPrm..D.3A.5CRenesas_Electronics.5CD1x_RGL.5Crgl_ghs_D1Lx_obj_V1.2E2.2E0.5Cvlib.5Capp.5Cgfx_apps.5Csimple_draw_d1l2.5Ctarget.5Cd1lx_mango_ghs.5Cobj.5Cdm.,1
00000019 00              815 _insTrip2UserEnPrm:	.space	1
                         816 	.type	_insTrip2UserEnPrm,@object
                         817 	.size	_insTrip2UserEnPrm,1
                         818 	.global	_insTCConUnitsPrm..D.3A.5CRenesas_Electronics.5CD1x_RGL.5Crgl_ghs_D1Lx_obj_V1.2E2.2E0.5Cvlib.5Capp.5Cgfx_apps.5Csimple_draw_d1l2.5Ctarget.5Cd1lx_mango_ghs.5Cobj.5Cdm.
                         819 _insTCConUnitsPrm..D.3A.5CRenesas_Electronics.5CD1x_RGL.5Crgl_ghs_D1Lx_obj_V1.2E2.2E0.5Cvlib.5Capp.5Cgfx_apps.5Csimple_draw_d1l2.5Ctarget.5Cd1lx_mango_ghs.5Cobj.5Cdm.:
                         820 	.type	_insTCConUnitsPrm..D.3A.5CRenesas_Electronics.5CD1x_RGL.5Crgl_ghs_D1Lx_obj_V1.2E2.2E0.5Cvlib.5Capp.5Cgfx_apps.5Csimple_draw_d1l2.5Ctarget.5Cd1lx_mango_ghs.5Cobj.5Cdm.,@object
                         821 	.size	_insTCConUnitsPrm..D.3A.5CRenesas_Electronics.5CD1x_RGL.5Crgl_ghs_D1Lx_obj_V1.2E2.2E0.5Cvlib.5Capp.5Cgfx_apps.5Csimple_draw_d1l2.5Ctarget.5Cd1lx_mango_ghs.5Cobj.5Cdm.,1
0000001a 00              822 _insTCConUnitsPrm:	.space	1
                         823 	.type	_insTCConUnitsPrm,@object
                         824 	.size	_insTCConUnitsPrm,1
                         825 	.global	_insTripRollOverPrm..D.3A.5CRenesas_Electronics.5CD1x_RGL.5Crgl_ghs_D1Lx_obj_V1.2E2.2E0.5Cvlib.5Capp.5Cgfx_apps.5Csimple_draw_d1l2.5Ctarget.5Cd1lx_mango_ghs.5Cobj.5Cdm.
                         826 _insTripRollOverPrm..D.3A.5CRenesas_Electronics.5CD1x_RGL.5Crgl_ghs_D1Lx_obj_V1.2E2.2E0.5Cvlib.5Capp.5Cgfx_apps.5Csimple_draw_d1l2.5Ctarget.5Cd1lx_mango_ghs.5Cobj.5Cdm.:
                         827 	.type	_insTripRollOverPrm..D.3A.5CRenesas_Electronics.5CD1x_RGL.5Crgl_ghs_D1Lx_obj_V1.2E2.2E0.5Cvlib.5Capp.5Cgfx_apps.5Csimple_draw_d1l2.5Ctarget.5Cd1lx_mango_ghs.5Cobj.5Cdm.,@object
                         828 	.size	_insTripRollOverPrm..D.3A.5CRenesas_Electronics.5CD1x_RGL.5Crgl_ghs_D1Lx_obj_V1.2E2.2E0.5Cvlib.5Capp.5Cgfx_apps.5Csimple_draw_d1l2.5Ctarget.5Cd1lx_mango_ghs.5Cobj.5Cdm.,1
0000001b 00              829 _insTripRollOverPrm:	.space	1
                         830 	.type	_insTripRollOverPrm,@object
                         831 	.size	_insTripRollOverPrm,1
                         832 	.global	_insUnitsPrm..D.3A.5CRenesas_Electronics.5CD1x_RGL.5Crgl_ghs_D1Lx_obj_V1.2E2.2E0.5Cvlib.5Capp.5Cgfx_apps.5Csimple_draw_d1l2.5Ctarget.5Cd1lx_mango_ghs.5Cobj.5Cdm.
                         833 _insUnitsPrm..D.3A.5CRenesas_Electronics.5CD1x_RGL.5Crgl_ghs_D1Lx_obj_V1.2E2.2E0.5Cvlib.5Capp.5Cgfx_apps.5Csimple_draw_d1l2.5Ctarget.5Cd1lx_mango_ghs.5Cobj.5Cdm.:
                         834 	.type	_insUnitsPrm..D.3A.5CRenesas_Electronics.5CD1x_RGL.5Crgl_ghs_D1Lx_obj_V1.2E2.2E0.5Cvlib.5Capp.5Cgfx_apps.5Csimple_draw_d1l2.5Ctarget.5Cd1lx_mango_ghs.5Cobj.5Cdm.,@object
                         835 	.size	_insUnitsPrm..D.3A.5CRenesas_Electronics.5CD1x_RGL.5Crgl_ghs_D1Lx_obj_V1.2E2.2E0.5Cvlib.5Capp.5Cgfx_apps.5Csimple_draw_d1l2.5Ctarget.5Cd1lx_mango_ghs.5Cobj.5Cdm.,1
0000001c 00              836 _insUnitsPrm:	.space	1
                         837 	.type	_insUnitsPrm,@object
                         838 	.size	_insUnitsPrm,1
                         839 	.global	_insMenuSpeedTresholdPrm..D.3A.5CRenesas_Electronics.5CD1x_RGL.5Crgl_ghs_D1Lx_obj_V1.2E2.2E0.5Cvlib.5Capp.5Cgfx_apps.5Csimple_draw_d1l2.5Ctarget.5Cd1lx_mango_ghs.5Cobj.5Cdm.
                         840 _insMenuSpeedTresholdPrm..D.3A.5CRenesas_Electronics.5CD1x_RGL.5Crgl_ghs_D1Lx_obj_V1.2E2.2E0.5Cvlib.5Capp.5Cgfx_apps.5Csimple_draw_d1l2.5Ctarget.5Cd1lx_mango_ghs.5Cobj.5Cdm.:
                         841 	.type	_insMenuSpeedTresholdPrm..D.3A.5CRenesas_Electronics.5CD1x_RGL.5Crgl_ghs_D1Lx_obj_V1.2E2.2E0.5Cvlib.5Capp.5Cgfx_apps.5Csimple_draw_d1l2.5Ctarget.5Cd1lx_mango_ghs.5Cobj.5Cdm.,@object
                         842 	.size	_insMenuSpeedTresholdPrm..D.3A.5CRenesas_Electronics.5CD1x_RGL.5Crgl_ghs_D1Lx_obj_V1.2E2.2E0.5Cvlib.5Capp.5Cgfx_apps.5Csimple_draw_d1l2.5Ctarget.5Cd1lx_mango_ghs.5Cobj.5Cdm.,1
0000001d 00              843 _insMenuSpeedTresholdPrm:	.space	1
                         844 	.type	_insMenuSpeedTresholdPrm,@object
                         845 	.size	_insMenuSpeedTresholdPrm,1
                         846 	.global	_insIFCEnPrm..D.3A.5CRenesas_Electronics.5CD1x_RGL.5Crgl_ghs_D1Lx_obj_V1.2E2.2E0.5Cvlib.5Capp.5Cgfx_apps.5Csimple_draw_d1l2.5Ctarget.5Cd1lx_mango_ghs.5Cobj.5Cdm.
                         847 _insIFCEnPrm..D.3A.5CRenesas_Electronics.5CD1x_RGL.5Crgl_ghs_D1Lx_obj_V1.2E2.2E0.5Cvlib.5Capp.5Cgfx_apps.5Csimple_draw_d1l2.5Ctarget.5Cd1lx_mango_ghs.5Cobj.5Cdm.:
                         848 	.type	_insIFCEnPrm..D.3A.5CRenesas_Electronics.5CD1x_RGL.5Crgl_ghs_D1Lx_obj_V1.2E2.2E0.5Cvlib.5Capp.5Cgfx_apps.5Csimple_draw_d1l2.5Ctarget.5Cd1lx_mango_ghs.5Cobj.5Cdm.,@object
                         849 	.size	_insIFCEnPrm..D.3A.5CRenesas_Electronics.5CD1x_RGL.5Crgl_ghs_D1Lx_obj_V1.2E2.2E0.5Cvlib.5Capp.5Cgfx_apps.5Csimple_draw_d1l2.5Ctarget.5Cd1lx_mango_ghs.5Cobj.5Cdm.,1
0000001e 00              850 _insIFCEnPrm:	.space	1
                         851 	.type	_insIFCEnPrm,@object
                         852 	.size	_insIFCEnPrm,1
                         853 	.global	_insRTEEnPrm..D.3A.5CRenesas_Electronics.5CD1x_RGL.5Crgl_ghs_D1Lx_obj_V1.2E2.2E0.5Cvlib.5Capp.5Cgfx_apps.5Csimple_draw_d1l2.5Ctarget.5Cd1lx_mango_ghs.5Cobj.5Cdm.
                         854 _insRTEEnPrm..D.3A.5CRenesas_Electronics.5CD1x_RGL.5Crgl_ghs_D1Lx_obj_V1.2E2.2E0.5Cvlib.5Capp.5Cgfx_apps.5Csimple_draw_d1l2.5Ctarget.5Cd1lx_mango_ghs.5Cobj.5Cdm.:
                         855 	.type	_insRTEEnPrm..D.3A.5CRenesas_Electronics.5CD1x_RGL.5Crgl_ghs_D1Lx_obj_V1.2E2.2E0.5Cvlib.5Capp.5Cgfx_apps.5Csimple_draw_d1l2.5Ctarget.5Cd1lx_mango_ghs.5Cobj.5Cdm.,@object
                         856 	.size	_insRTEEnPrm..D.3A.5CRenesas_Electronics.5CD1x_RGL.5Crgl_ghs_D1Lx_obj_V1.2E2.2E0.5Cvlib.5Capp.5Cgfx_apps.5Csimple_draw_d1l2.5Ctarget.5Cd1lx_mango_ghs.5Cobj.5Cdm.,1
0000001f 00              857 _insRTEEnPrm:	.space	1
                         858 	.type	_insRTEEnPrm,@object
                         859 	.size	_insRTEEnPrm,1
                         860 	.global	_insTCDispTimeoutPrm..D.3A.5CRenesas_Electronics.5CD1x_RGL.5Crgl_ghs_D1Lx_obj_V1.2E2.2E0.5Cvlib.5Capp.5Cgfx_apps.5Csimple_draw_d1l2.5Ctarget.5Cd1lx_mango_ghs.5Cobj.5Cdm.
                         861 _insTCDispTimeoutPrm..D.3A.5CRenesas_Electronics.5CD1x_RGL.5Crgl_ghs_D1Lx_obj_V1.2E2.2E0.5Cvlib.5Capp.5Cgfx_apps.5Csimple_draw_d1l2.5Ctarget.5Cd1lx_mango_ghs.5Cobj.5Cdm.:
                         862 	.type	_insTCDispTimeoutPrm..D.3A.5CRenesas_Electronics.5CD1x_RGL.5Crgl_ghs_D1Lx_obj_V1.2E2.2E0.5Cvlib.5Capp.5Cgfx_apps.5Csimple_draw_d1l2.5Ctarget.5Cd1lx_mango_ghs.5Cobj.5Cdm.,@object
                         863 	.size	_insTCDispTimeoutPrm..D.3A.5CRenesas_Electronics.5CD1x_RGL.5Crgl_ghs_D1Lx_obj_V1.2E2.2E0.5Cvlib.5Capp.5Cgfx_apps.5Csimple_draw_d1l2.5Ctarget.5Cd1lx_mango_ghs.5Cobj.5Cdm.,1

                                                                      Page 17
                                                              C:\Users\YINGAO~1\AppData\Local\Temp\gh_000004s1.si
00000020 00              864 _insTCDispTimeoutPrm:	.space	1
                         865 	.type	_insTCDispTimeoutPrm,@object
                         866 	.size	_insTCDispTimeoutPrm,1
                         867 	.global	_insMenuIllumAdEnPrm..D.3A.5CRenesas_Electronics.5CD1x_RGL.5Crgl_ghs_D1Lx_obj_V1.2E2.2E0.5Cvlib.5Capp.5Cgfx_apps.5Csimple_draw_d1l2.5Ctarget.5Cd1lx_mango_ghs.5Cobj.5Cdm.
                         868 _insMenuIllumAdEnPrm..D.3A.5CRenesas_Electronics.5CD1x_RGL.5Crgl_ghs_D1Lx_obj_V1.2E2.2E0.5Cvlib.5Capp.5Cgfx_apps.5Csimple_draw_d1l2.5Ctarget.5Cd1lx_mango_ghs.5Cobj.5Cdm.:
                         869 	.type	_insMenuIllumAdEnPrm..D.3A.5CRenesas_Electronics.5CD1x_RGL.5Crgl_ghs_D1Lx_obj_V1.2E2.2E0.5Cvlib.5Capp.5Cgfx_apps.5Csimple_draw_d1l2.5Ctarget.5Cd1lx_mango_ghs.5Cobj.5Cdm.,@object
                         870 	.size	_insMenuIllumAdEnPrm..D.3A.5CRenesas_Electronics.5CD1x_RGL.5Crgl_ghs_D1Lx_obj_V1.2E2.2E0.5Cvlib.5Capp.5Cgfx_apps.5Csimple_draw_d1l2.5Ctarget.5Cd1lx_mango_ghs.5Cobj.5Cdm.,1
00000021 00              871 _insMenuIllumAdEnPrm:	.space	1
                         872 	.type	_insMenuIllumAdEnPrm,@object
                         873 	.size	_insMenuIllumAdEnPrm,1
                         874 	.global	_insMenuDigCEnPrm..D.3A.5CRenesas_Electronics.5CD1x_RGL.5Crgl_ghs_D1Lx_obj_V1.2E2.2E0.5Cvlib.5Capp.5Cgfx_apps.5Csimple_draw_d1l2.5Ctarget.5Cd1lx_mango_ghs.5Cobj.5Cdm.
                         875 _insMenuDigCEnPrm..D.3A.5CRenesas_Electronics.5CD1x_RGL.5Crgl_ghs_D1Lx_obj_V1.2E2.2E0.5Cvlib.5Capp.5Cgfx_apps.5Csimple_draw_d1l2.5Ctarget.5Cd1lx_mango_ghs.5Cobj.5Cdm.:
                         876 	.type	_insMenuDigCEnPrm..D.3A.5CRenesas_Electronics.5CD1x_RGL.5Crgl_ghs_D1Lx_obj_V1.2E2.2E0.5Cvlib.5Capp.5Cgfx_apps.5Csimple_draw_d1l2.5Ctarget.5Cd1lx_mango_ghs.5Cobj.5Cdm.,@object
                         877 	.size	_insMenuDigCEnPrm..D.3A.5CRenesas_Electronics.5CD1x_RGL.5Crgl_ghs_D1Lx_obj_V1.2E2.2E0.5Cvlib.5Capp.5Cgfx_apps.5Csimple_draw_d1l2.5Ctarget.5Cd1lx_mango_ghs.5Cobj.5Cdm.,1
00000022 00              878 _insMenuDigCEnPrm:	.space	1
                         879 	.type	_insMenuDigCEnPrm,@object
                         880 	.size	_insMenuDigCEnPrm,1
                         881 	.global	_insSCSOffSwitchEnPrm..D.3A.5CRenesas_Electronics.5CD1x_RGL.5Crgl_ghs_D1Lx_obj_V1.2E2.2E0.5Cvlib.5Capp.5Cgfx_apps.5Csimple_draw_d1l2.5Ctarget.5Cd1lx_mango_ghs.5Cobj.5Cdm.
                         882 _insSCSOffSwitchEnPrm..D.3A.5CRenesas_Electronics.5CD1x_RGL.5Crgl_ghs_D1Lx_obj_V1.2E2.2E0.5Cvlib.5Capp.5Cgfx_apps.5Csimple_draw_d1l2.5Ctarget.5Cd1lx_mango_ghs.5Cobj.5Cdm.:
                         883 	.type	_insSCSOffSwitchEnPrm..D.3A.5CRenesas_Electronics.5CD1x_RGL.5Crgl_ghs_D1Lx_obj_V1.2E2.2E0.5Cvlib.5Capp.5Cgfx_apps.5Csimple_draw_d1l2.5Ctarget.5Cd1lx_mango_ghs.5Cobj.5Cdm.,@object
                         884 	.size	_insSCSOffSwitchEnPrm..D.3A.5CRenesas_Electronics.5CD1x_RGL.5Crgl_ghs_D1Lx_obj_V1.2E2.2E0.5Cvlib.5Capp.5Cgfx_apps.5Csimple_draw_d1l2.5Ctarget.5Cd1lx_mango_ghs.5Cobj.5Cdm.,1
00000023 00              885 _insSCSOffSwitchEnPrm:	.space	1
                         886 	.type	_insSCSOffSwitchEnPrm,@object
                         887 	.size	_insSCSOffSwitchEnPrm,1
                         888 	.global	_insPresstime1Prm..D.3A.5CRenesas_Electronics.5CD1x_RGL.5Crgl_ghs_D1Lx_obj_V1.2E2.2E0.5Cvlib.5Capp.5Cgfx_apps.5Csimple_draw_d1l2.5Ctarget.5Cd1lx_mango_ghs.5Cobj.5Cdm.
                         889 _insPresstime1Prm..D.3A.5CRenesas_Electronics.5CD1x_RGL.5Crgl_ghs_D1Lx_obj_V1.2E2.2E0.5Cvlib.5Capp.5Cgfx_apps.5Csimple_draw_d1l2.5Ctarget.5Cd1lx_mango_ghs.5Cobj.5Cdm.:
                         890 	.type	_insPresstime1Prm..D.3A.5CRenesas_Electronics.5CD1x_RGL.5Crgl_ghs_D1Lx_obj_V1.2E2.2E0.5Cvlib.5Capp.5Cgfx_apps.5Csimple_draw_d1l2.5Ctarget.5Cd1lx_mango_ghs.5Cobj.5Cdm.,@object
                         891 	.size	_insPresstime1Prm..D.3A.5CRenesas_Electronics.5CD1x_RGL.5Crgl_ghs_D1Lx_obj_V1.2E2.2E0.5Cvlib.5Capp.5Cgfx_apps.5Csimple_draw_d1l2.5Ctarget.5Cd1lx_mango_ghs.5Cobj.5Cdm.,1
00000024 00              892 _insPresstime1Prm:	.space	1
                         893 	.type	_insPresstime1Prm,@object
                         894 	.size	_insPresstime1Prm,1
                         895 	.global	_insTCFuelDispUpdatePrm..D.3A.5CRenesas_Electronics.5CD1x_RGL.5Crgl_ghs_D1Lx_obj_V1.2E2.2E0.5Cvlib.5Capp.5Cgfx_apps.5Csimple_draw_d1l2.5Ctarget.5Cd1lx_mango_ghs.5Cobj.5Cdm.
                         896 _insTCFuelDispUpdatePrm..D.3A.5CRenesas_Electronics.5CD1x_RGL.5Crgl_ghs_D1Lx_obj_V1.2E2.2E0.5Cvlib.5Capp.5Cgfx_apps.5Csimple_draw_d1l2.5Ctarget.5Cd1lx_mango_ghs.5Cobj.5Cdm.:
                         897 	.type	_insTCFuelDispUpdatePrm..D.3A.5CRenesas_Electronics.5CD1x_RGL.5Crgl_ghs_D1Lx_obj_V1.2E2.2E0.5Cvlib.5Capp.5Cgfx_apps.5Csimple_draw_d1l2.5Ctarget.5Cd1lx_mango_ghs.5Cobj.5Cdm.,@object
                         898 	.size	_insTCFuelDispUpdatePrm..D.3A.5CRenesas_Electronics.5CD1x_RGL.5Crgl_ghs_D1Lx_obj_V1.2E2.2E0.5Cvlib.5Capp.5Cgfx_apps.5Csimple_draw_d1l2.5Ctarget.5Cd1lx_mango_ghs.5Cobj.5Cdm.,1
00000025 00              899 _insTCFuelDispUpdatePrm:	.space	1
                         900 	.type	_insTCFuelDispUpdatePrm,@object
                         901 	.size	_insTCFuelDispUpdatePrm,1
                         902 	.global	_insPrndEnPrm..D.3A.5CRenesas_Electronics.5CD1x_RGL.5Crgl_ghs_D1Lx_obj_V1.2E2.2E0.5Cvlib.5Capp.5Cgfx_apps.5Csimple_draw_d1l2.5Ctarget.5Cd1lx_mango_ghs.5Cobj.5Cdm.
                         903 _insPrndEnPrm..D.3A.5CRenesas_Electronics.5CD1x_RGL.5Crgl_ghs_D1Lx_obj_V1.2E2.2E0.5Cvlib.5Capp.5Cgfx_apps.5Csimple_draw_d1l2.5Ctarget.5Cd1lx_mango_ghs.5Cobj.5Cdm.:
                         904 	.type	_insPrndEnPrm..D.3A.5CRenesas_Electronics.5CD1x_RGL.5Crgl_ghs_D1Lx_obj_V1.2E2.2E0.5Cvlib.5Capp.5Cgfx_apps.5Csimple_draw_d1l2.5Ctarget.5Cd1lx_mango_ghs.5Cobj.5Cdm.,@object
                         905 	.size	_insPrndEnPrm..D.3A.5CRenesas_Electronics.5CD1x_RGL.5Crgl_ghs_D1Lx_obj_V1.2E2.2E0.5Cvlib.5Capp.5Cgfx_apps.5Csimple_draw_d1l2.5Ctarget.5Cd1lx_mango_ghs.5Cobj.5Cdm.,1
00000026 00              906 _insPrndEnPrm:	.space	1
                         907 	.type	_insPrndEnPrm,@object
                         908 	.size	_insPrndEnPrm,1
                         909 	.global	_insGearShiftUpDwnWarnPrm..D.3A.5CRenesas_Electronics.5CD1x_RGL.5Crgl_ghs_D1Lx_obj_V1.2E2.2E0.5Cvlib.5Capp.5Cgfx_apps.5Csimple_draw_d1l2.5Ctarget.5Cd1lx_mango_ghs.5Cobj.5Cdm.
                         910 _insGearShiftUpDwnWarnPrm..D.3A.5CRenesas_Electronics.5CD1x_RGL.5Crgl_ghs_D1Lx_obj_V1.2E2.2E0.5Cvlib.5Capp.5Cgfx_apps.5Csimple_draw_d1l2.5Ctarget.5Cd1lx_mango_ghs.5Cobj.5Cdm.:
                         911 	.type	_insGearShiftUpDwnWarnPrm..D.3A.5CRenesas_Electronics.5CD1x_RGL.5Crgl_ghs_D1Lx_obj_V1.2E2.2E0.5Cvlib.5Capp.5Cgfx_apps.5Csimple_draw_d1l2.5Ctarget.5Cd1lx_mango_ghs.5Cobj.5Cdm.,@object
                         912 	.size	_insGearShiftUpDwnWarnPrm..D.3A.5CRenesas_Electronics.5CD1x_RGL.5Crgl_ghs_D1Lx_obj_V1.2E2.2E0.5Cvlib.5Capp.5Cgfx_apps.5Csimple_draw_d1l2.5Ctarget.5Cd1lx_mango_ghs.5Cobj.5Cdm.,1
00000027 00              913 _insGearShiftUpDwnWarnPrm:	.space	1
                         914 	.type	_insGearShiftUpDwnWarnPrm,@object
                         915 	.size	_insGearShiftUpDwnWarnPrm,1
                         916 	.global	_insTyrePresUnitsPrm..D.3A.5CRenesas_Electronics.5CD1x_RGL.5Crgl_ghs_D1Lx_obj_V1.2E2.2E0.5Cvlib.5Capp.5Cgfx_apps.5Csimple_draw_d1l2.5Ctarget.5Cd1lx_mango_ghs.5Cobj.5Cdm.
                         917 _insTyrePresUnitsPrm..D.3A.5CRenesas_Electronics.5CD1x_RGL.5Crgl_ghs_D1Lx_obj_V1.2E2.2E0.5Cvlib.5Capp.5Cgfx_apps.5Csimple_draw_d1l2.5Ctarget.5Cd1lx_mango_ghs.5Cobj.5Cdm.:
                         918 	.type	_insTyrePresUnitsPrm..D.3A.5CRenesas_Electronics.5CD1x_RGL.5Crgl_ghs_D1Lx_obj_V1.2E2.2E0.5Cvlib.5Capp.5Cgfx_apps.5Csimple_draw_d1l2.5Ctarget.5Cd1lx_mango_ghs.5Cobj.5Cdm.,@object
                         919 	.size	_insTyrePresUnitsPrm..D.3A.5CRenesas_Electronics.5CD1x_RGL.5Crgl_ghs_D1Lx_obj_V1.2E2.2E0.5Cvlib.5Capp.5Cgfx_apps.5Csimple_draw_d1l2.5Ctarget.5Cd1lx_mango_ghs.5Cobj.5Cdm.,1
00000028 00              920 _insTyrePresUnitsPrm:	.space	1
                         921 	.type	_insTyrePresUnitsPrm,@object
                         922 	.size	_insTyrePresUnitsPrm,1
                         923 	.global	_insTyrTemDisUntPrm..D.3A.5CRenesas_Electronics.5CD1x_RGL.5Crgl_ghs_D1Lx_obj_V1.2E2.2E0.5Cvlib.5Capp.5Cgfx_apps.5Csimple_draw_d1l2.5Ctarget.5Cd1lx_mango_ghs.5Cobj.5Cdm.
                         924 _insTyrTemDisUntPrm..D.3A.5CRenesas_Electronics.5CD1x_RGL.5Crgl_ghs_D1Lx_obj_V1.2E2.2E0.5Cvlib.5Capp.5Cgfx_apps.5Csimple_draw_d1l2.5Ctarget.5Cd1lx_mango_ghs.5Cobj.5Cdm.:

                                                                      Page 18
                                                              C:\Users\YINGAO~1\AppData\Local\Temp\gh_000004s1.si
                         925 	.type	_insTyrTemDisUntPrm..D.3A.5CRenesas_Electronics.5CD1x_RGL.5Crgl_ghs_D1Lx_obj_V1.2E2.2E0.5Cvlib.5Capp.5Cgfx_apps.5Csimple_draw_d1l2.5Ctarget.5Cd1lx_mango_ghs.5Cobj.5Cdm.,@object
                         926 	.size	_insTyrTemDisUntPrm..D.3A.5CRenesas_Electronics.5CD1x_RGL.5Crgl_ghs_D1Lx_obj_V1.2E2.2E0.5Cvlib.5Capp.5Cgfx_apps.5Csimple_draw_d1l2.5Ctarget.5Cd1lx_mango_ghs.5Cobj.5Cdm.,1
00000029 00              927 _insTyrTemDisUntPrm:	.space	1
                         928 	.type	_insTyrTemDisUntPrm,@object
                         929 	.size	_insTyrTemDisUntPrm,1
                         930 	.global	_SetSel..D.3A.5CRenesas_Electronics.5CD1x_RGL.5Crgl_ghs_D1Lx_obj_V1.2E2.2E0.5Cvlib.5Capp.5Cgfx_apps.5Csimple_draw_d1l2.5Ctarget.5Cd1lx_mango_ghs.5Cobj.5Cdm.
                         931 _SetSel..D.3A.5CRenesas_Electronics.5CD1x_RGL.5Crgl_ghs_D1Lx_obj_V1.2E2.2E0.5Cvlib.5Capp.5Cgfx_apps.5Csimple_draw_d1l2.5Ctarget.5Cd1lx_mango_ghs.5Cobj.5Cdm.:
                         932 	.type	_SetSel..D.3A.5CRenesas_Electronics.5CD1x_RGL.5Crgl_ghs_D1Lx_obj_V1.2E2.2E0.5Cvlib.5Capp.5Cgfx_apps.5Csimple_draw_d1l2.5Ctarget.5Cd1lx_mango_ghs.5Cobj.5Cdm.,@object
                         933 	.size	_SetSel..D.3A.5CRenesas_Electronics.5CD1x_RGL.5Crgl_ghs_D1Lx_obj_V1.2E2.2E0.5Cvlib.5Capp.5Cgfx_apps.5Csimple_draw_d1l2.5Ctarget.5Cd1lx_mango_ghs.5Cobj.5Cdm.,1
0000002a 00              934 _SetSel:	.space	1
                         935 	.type	_SetSel,@object
                         936 	.size	_SetSel,1
                         937 	.global	_SCS_Sts..D.3A.5CRenesas_Electronics.5CD1x_RGL.5Crgl_ghs_D1Lx_obj_V1.2E2.2E0.5Cvlib.5Capp.5Cgfx_apps.5Csimple_draw_d1l2.5Ctarget.5Cd1lx_mango_ghs.5Cobj.5Cdm.
                         938 _SCS_Sts..D.3A.5CRenesas_Electronics.5CD1x_RGL.5Crgl_ghs_D1Lx_obj_V1.2E2.2E0.5Cvlib.5Capp.5Cgfx_apps.5Csimple_draw_d1l2.5Ctarget.5Cd1lx_mango_ghs.5Cobj.5Cdm.:
                         939 	.type	_SCS_Sts..D.3A.5CRenesas_Electronics.5CD1x_RGL.5Crgl_ghs_D1Lx_obj_V1.2E2.2E0.5Cvlib.5Capp.5Cgfx_apps.5Csimple_draw_d1l2.5Ctarget.5Cd1lx_mango_ghs.5Cobj.5Cdm.,@object
                         940 	.size	_SCS_Sts..D.3A.5CRenesas_Electronics.5CD1x_RGL.5Crgl_ghs_D1Lx_obj_V1.2E2.2E0.5Cvlib.5Capp.5Cgfx_apps.5Csimple_draw_d1l2.5Ctarget.5Cd1lx_mango_ghs.5Cobj.5Cdm.,1
0000002b 00              941 _SCS_Sts:	.space	1
                         942 	.type	_SCS_Sts,@object
                         943 	.size	_SCS_Sts,1
                         944 	.global	_scs_cmd..D.3A.5CRenesas_Electronics.5CD1x_RGL.5Crgl_ghs_D1Lx_obj_V1.2E2.2E0.5Cvlib.5Capp.5Cgfx_apps.5Csimple_draw_d1l2.5Ctarget.5Cd1lx_mango_ghs.5Cobj.5Cdm.
                         945 _scs_cmd..D.3A.5CRenesas_Electronics.5CD1x_RGL.5Crgl_ghs_D1Lx_obj_V1.2E2.2E0.5Cvlib.5Capp.5Cgfx_apps.5Csimple_draw_d1l2.5Ctarget.5Cd1lx_mango_ghs.5Cobj.5Cdm.:
                         946 	.type	_scs_cmd..D.3A.5CRenesas_Electronics.5CD1x_RGL.5Crgl_ghs_D1Lx_obj_V1.2E2.2E0.5Cvlib.5Capp.5Cgfx_apps.5Csimple_draw_d1l2.5Ctarget.5Cd1lx_mango_ghs.5Cobj.5Cdm.,@object
                         947 	.size	_scs_cmd..D.3A.5CRenesas_Electronics.5CD1x_RGL.5Crgl_ghs_D1Lx_obj_V1.2E2.2E0.5Cvlib.5Capp.5Cgfx_apps.5Csimple_draw_d1l2.5Ctarget.5Cd1lx_mango_ghs.5Cobj.5Cdm.,1
0000002c 00              948 _scs_cmd:	.space	1
                         949 	.type	_scs_cmd,@object
                         950 	.size	_scs_cmd,1
                         951 	.global	_CurTotolFaultList..D.3A.5CRenesas_Electronics.5CD1x_RGL.5Crgl_ghs_D1Lx_obj_V1.2E2.2E0.5Cvlib.5Capp.5Cgfx_apps.5Csimple_draw_d1l2.5Ctarget.5Cd1lx_mango_ghs.5Cobj.5Cdm.
                         952 _CurTotolFaultList..D.3A.5CRenesas_Electronics.5CD1x_RGL.5Crgl_ghs_D1Lx_obj_V1.2E2.2E0.5Cvlib.5Capp.5Cgfx_apps.5Csimple_draw_d1l2.5Ctarget.5Cd1lx_mango_ghs.5Cobj.5Cdm.:
                         953 	.type	_CurTotolFaultList..D.3A.5CRenesas_Electronics.5CD1x_RGL.5Crgl_ghs_D1Lx_obj_V1.2E2.2E0.5Cvlib.5Capp.5Cgfx_apps.5Csimple_draw_d1l2.5Ctarget.5Cd1lx_mango_ghs.5Cobj.5Cdm.,@object
                         954 	.size	_CurTotolFaultList..D.3A.5CRenesas_Electronics.5CD1x_RGL.5Crgl_ghs_D1Lx_obj_V1.2E2.2E0.5Cvlib.5Capp.5Cgfx_apps.5Csimple_draw_d1l2.5Ctarget.5Cd1lx_mango_ghs.5Cobj.5Cdm.,1
0000002d 00              955 _CurTotolFaultList:	.space	1
                         956 	.type	_CurTotolFaultList,@object
                         957 	.size	_CurTotolFaultList,1
                         958 	.data
                         959 	.global	_CurFaultList..D.3A.5CRenesas_Electronics.5CD1x_RGL.5Crgl_ghs_D1Lx_obj_V1.2E2.2E0.5Cvlib.5Capp.5Cgfx_apps.5Csimple_draw_d1l2.5Ctarget.5Cd1lx_mango_ghs.5Cobj.5Cdm.
                         960 _CurFaultList..D.3A.5CRenesas_Electronics.5CD1x_RGL.5Crgl_ghs_D1Lx_obj_V1.2E2.2E0.5Cvlib.5Capp.5Cgfx_apps.5Csimple_draw_d1l2.5Ctarget.5Cd1lx_mango_ghs.5Cobj.5Cdm.:
                         961 	.type	_CurFaultList..D.3A.5CRenesas_Electronics.5CD1x_RGL.5Crgl_ghs_D1Lx_obj_V1.2E2.2E0.5Cvlib.5Capp.5Cgfx_apps.5Csimple_draw_d1l2.5Ctarget.5Cd1lx_mango_ghs.5Cobj.5Cdm.,@object
                         962 	.size	_CurFaultList..D.3A.5CRenesas_Electronics.5CD1x_RGL.5Crgl_ghs_D1Lx_obj_V1.2E2.2E0.5Cvlib.5Capp.5Cgfx_apps.5Csimple_draw_d1l2.5Ctarget.5Cd1lx_mango_ghs.5Cobj.5Cdm.,1
0000000d 00              963 _CurFaultList:	.byte	0
                         964 	.type	_CurFaultList,@object
                         965 	.size	_CurFaultList,1
                         966 	.global	_dm_RadioSubPage..D.3A.5CRenesas_Electronics.5CD1x_RGL.5Crgl_ghs_D1Lx_obj_V1.2E2.2E0.5Cvlib.5Capp.5Cgfx_apps.5Csimple_draw_d1l2.5Ctarget.5Cd1lx_mango_ghs.5Cobj.5Cdm.
                         967 _dm_RadioSubPage..D.3A.5CRenesas_Electronics.5CD1x_RGL.5Crgl_ghs_D1Lx_obj_V1.2E2.2E0.5Cvlib.5Capp.5Cgfx_apps.5Csimple_draw_d1l2.5Ctarget.5Cd1lx_mango_ghs.5Cobj.5Cdm.:
                         968 	.type	_dm_RadioSubPage..D.3A.5CRenesas_Electronics.5CD1x_RGL.5Crgl_ghs_D1Lx_obj_V1.2E2.2E0.5Cvlib.5Capp.5Cgfx_apps.5Csimple_draw_d1l2.5Ctarget.5Cd1lx_mango_ghs.5Cobj.5Cdm.,@object
                         969 	.size	_dm_RadioSubPage..D.3A.5CRenesas_Electronics.5CD1x_RGL.5Crgl_ghs_D1Lx_obj_V1.2E2.2E0.5Cvlib.5Capp.5Cgfx_apps.5Csimple_draw_d1l2.5Ctarget.5Cd1lx_mango_ghs.5Cobj.5Cdm.,1
0000000e 00              970 _dm_RadioSubPage:	.byte	0
                         971 	.type	_dm_RadioSubPage,@object
                         972 	.size	_dm_RadioSubPage,1
                         973 	.global	_StartLogoEn..D.3A.5CRenesas_Electronics.5CD1x_RGL.5Crgl_ghs_D1Lx_obj_V1.2E2.2E0.5Cvlib.5Capp.5Cgfx_apps.5Csimple_draw_d1l2.5Ctarget.5Cd1lx_mango_ghs.5Cobj.5Cdm.
                         974 _StartLogoEn..D.3A.5CRenesas_Electronics.5CD1x_RGL.5Crgl_ghs_D1Lx_obj_V1.2E2.2E0.5Cvlib.5Capp.5Cgfx_apps.5Csimple_draw_d1l2.5Ctarget.5Cd1lx_mango_ghs.5Cobj.5Cdm.:
                         975 	.type	_StartLogoEn..D.3A.5CRenesas_Electronics.5CD1x_RGL.5Crgl_ghs_D1Lx_obj_V1.2E2.2E0.5Cvlib.5Capp.5Cgfx_apps.5Csimple_draw_d1l2.5Ctarget.5Cd1lx_mango_ghs.5Cobj.5Cdm.,@object
                         976 	.size	_StartLogoEn..D.3A.5CRenesas_Electronics.5CD1x_RGL.5Crgl_ghs_D1Lx_obj_V1.2E2.2E0.5Cvlib.5Capp.5Cgfx_apps.5Csimple_draw_d1l2.5Ctarget.5Cd1lx_mango_ghs.5Cobj.5Cdm.,1
0000000f 00              977 _StartLogoEn:	.byte	0
                         978 	.type	_StartLogoEn,@object
                         979 	.size	_StartLogoEn,1
                         980 	.global	_EnableFun..D.3A.5CRenesas_Electronics.5CD1x_RGL.5Crgl_ghs_D1Lx_obj_V1.2E2.2E0.5Cvlib.5Capp.5Cgfx_apps.5Csimple_draw_d1l2.5Ctarget.5Cd1lx_mango_ghs.5Cobj.5Cdm.
                         981 _EnableFun..D.3A.5CRenesas_Electronics.5CD1x_RGL.5Crgl_ghs_D1Lx_obj_V1.2E2.2E0.5Cvlib.5Capp.5Cgfx_apps.5Csimple_draw_d1l2.5Ctarget.5Cd1lx_mango_ghs.5Cobj.5Cdm.:
                         982 	.type	_EnableFun..D.3A.5CRenesas_Electronics.5CD1x_RGL.5Crgl_ghs_D1Lx_obj_V1.2E2.2E0.5Cvlib.5Capp.5Cgfx_apps.5Csimple_draw_d1l2.5Ctarget.5Cd1lx_mango_ghs.5Cobj.5Cdm.,@object
                         983 	.size	_EnableFun..D.3A.5CRenesas_Electronics.5CD1x_RGL.5Crgl_ghs_D1Lx_obj_V1.2E2.2E0.5Cvlib.5Capp.5Cgfx_apps.5Csimple_draw_d1l2.5Ctarget.5Cd1lx_mango_ghs.5Cobj.5Cdm.,1
00000010 00              984 _EnableFun:	.byte	0
                         985 	.type	_EnableFun,@object

                                                                      Page 19
                                                              C:\Users\YINGAO~1\AppData\Local\Temp\gh_000004s1.si
                         986 	.size	_EnableFun,1
                         987 	.section ".bss","awb"
                         988 	.global	_dm_FunPage..D.3A.5CRenesas_Electronics.5CD1x_RGL.5Crgl_ghs_D1Lx_obj_V1.2E2.2E0.5Cvlib.5Capp.5Cgfx_apps.5Csimple_draw_d1l2.5Ctarget.5Cd1lx_mango_ghs.5Cobj.5Cdm.
                         989 _dm_FunPage..D.3A.5CRenesas_Electronics.5CD1x_RGL.5Crgl_ghs_D1Lx_obj_V1.2E2.2E0.5Cvlib.5Capp.5Cgfx_apps.5Csimple_draw_d1l2.5Ctarget.5Cd1lx_mango_ghs.5Cobj.5Cdm.:
                         990 	.type	_dm_FunPage..D.3A.5CRenesas_Electronics.5CD1x_RGL.5Crgl_ghs_D1Lx_obj_V1.2E2.2E0.5Cvlib.5Capp.5Cgfx_apps.5Csimple_draw_d1l2.5Ctarget.5Cd1lx_mango_ghs.5Cobj.5Cdm.,@object
                         991 	.size	_dm_FunPage..D.3A.5CRenesas_Electronics.5CD1x_RGL.5Crgl_ghs_D1Lx_obj_V1.2E2.2E0.5Cvlib.5Capp.5Cgfx_apps.5Csimple_draw_d1l2.5Ctarget.5Cd1lx_mango_ghs.5Cobj.5Cdm.,3
0000002e 000000          992 _dm_FunPage:	.space	3
                         993 	.type	_dm_FunPage,@object
                         994 	.size	_dm_FunPage,3
                         995 	.global	_dm_stSet..D.3A.5CRenesas_Electronics.5CD1x_RGL.5Crgl_ghs_D1Lx_obj_V1.2E2.2E0.5Cvlib.5Capp.5Cgfx_apps.5Csimple_draw_d1l2.5Ctarget.5Cd1lx_mango_ghs.5Cobj.5Cdm.
                         996 _dm_stSet..D.3A.5CRenesas_Electronics.5CD1x_RGL.5Crgl_ghs_D1Lx_obj_V1.2E2.2E0.5Cvlib.5Capp.5Cgfx_apps.5Csimple_draw_d1l2.5Ctarget.5Cd1lx_mango_ghs.5Cobj.5Cdm.:
                         997 	.type	_dm_stSet..D.3A.5CRenesas_Electronics.5CD1x_RGL.5Crgl_ghs_D1Lx_obj_V1.2E2.2E0.5Cvlib.5Capp.5Cgfx_apps.5Csimple_draw_d1l2.5Ctarget.5Cd1lx_mango_ghs.5Cobj.5Cdm.,@object
                         998 	.size	_dm_stSet..D.3A.5CRenesas_Electronics.5CD1x_RGL.5Crgl_ghs_D1Lx_obj_V1.2E2.2E0.5Cvlib.5Capp.5Cgfx_apps.5Csimple_draw_d1l2.5Ctarget.5Cd1lx_mango_ghs.5Cobj.5Cdm.,7
00000031 000000000000    999 _dm_stSet:	.space	7
00000037 00 
                        1000 	.type	_dm_stSet,@object
                        1001 	.size	_dm_stSet,7
                        1002 	.section ".rodata","a"
                        1003 	.global	_dm_SetTab..D.3A.5CRenesas_Electronics.5CD1x_RGL.5Crgl_ghs_D1Lx_obj_V1.2E2.2E0.5Cvlib.5Capp.5Cgfx_apps.5Csimple_draw_d1l2.5Ctarget.5Cd1lx_mango_ghs.5Cobj.5Cdm.
                        1004 _dm_SetTab..D.3A.5CRenesas_Electronics.5CD1x_RGL.5Crgl_ghs_D1Lx_obj_V1.2E2.2E0.5Cvlib.5Capp.5Cgfx_apps.5Csimple_draw_d1l2.5Ctarget.5Cd1lx_mango_ghs.5Cobj.5Cdm.:
                        1005 	.type	_dm_SetTab..D.3A.5CRenesas_Electronics.5CD1x_RGL.5Crgl_ghs_D1Lx_obj_V1.2E2.2E0.5Cvlib.5Capp.5Cgfx_apps.5Csimple_draw_d1l2.5Ctarget.5Cd1lx_mango_ghs.5Cobj.5Cdm.,@object
                        1006 	.size	_dm_SetTab..D.3A.5CRenesas_Electronics.5CD1x_RGL.5Crgl_ghs_D1Lx_obj_V1.2E2.2E0.5Cvlib.5Capp.5Cgfx_apps.5Csimple_draw_d1l2.5Ctarget.5Cd1lx_mango_ghs.5Cobj.5Cdm.,56
00000000 00             1007 _dm_SetTab:	.space	1
00000001 00             1008 	.space	1
00000002 00             1009 	.space	1
00000003 00             1010 	.space	1
00000004 00             1011 	.space	1
00000005 00             1012 	.space	1
00000006 00             1013 	.space	1
00000007 00             1014 	.space	1
00000008 00             1015 	.space	1
00000009 01             1016 	.byte	1
0000000a 01             1017 	.byte	1
0000000b 00             1018 	.space	1
0000000c 00             1019 	.space	1
0000000d 01             1020 	.byte	1
0000000e 00             1021 	.space	1
0000000f 01             1022 	.byte	1
00000010 00             1023 	.space	1
00000011 02             1024 	.byte	2
00000012 00             1025 	.space	1
00000013 00             1026 	.space	1
00000014 01             1027 	.byte	1
00000015 00             1028 	.space	1
00000016 0101           1029 	.byte	1,1
00000018 0102           1030 	.byte	1,2
0000001a 00             1031 	.space	1
0000001b 02             1032 	.byte	2
0000001c 01             1033 	.byte	1
0000001d 00             1034 	.space	1
0000001e 00             1035 	.space	1
0000001f 03             1036 	.byte	3
00000020 00             1037 	.space	1
00000021 00             1038 	.space	1
00000022 01             1039 	.byte	1
00000023 01             1040 	.byte	1
00000024 00             1041 	.space	1
00000025 01             1042 	.byte	1
00000026 0103           1043 	.byte	1,3
00000028 00             1044 	.space	1
00000029 02             1045 	.byte	2

                                                                      Page 20
                                                              C:\Users\YINGAO~1\AppData\Local\Temp\gh_000004s1.si
0000002a 0101           1046 	.byte	1,1
0000002c 00             1047 	.space	1
0000002d 0203           1048 	.byte	2,3
0000002f 00             1049 	.space	1
00000030 02             1050 	.byte	2
00000031 0101           1051 	.byte	1,1
00000033 01             1052 	.byte	1
00000034 01020303       1053 	.byte	1,2,3,3
                        1054 	.type	_dm_SetTab,@object
                        1055 	.size	_dm_SetTab,56
                        1056 	.section ".bss","awb"
                        1057 	.global	_Dm_Send_Data..D.3A.5CRenesas_Electronics.5CD1x_RGL.5Crgl_ghs_D1Lx_obj_V1.2E2.2E0.5Cvlib.5Capp.5Cgfx_apps.5Csimple_draw_d1l2.5Ctarget.5Cd1lx_mango_ghs.5Cobj.5Cdm.
                        1058 _Dm_Send_Data..D.3A.5CRenesas_Electronics.5CD1x_RGL.5Crgl_ghs_D1Lx_obj_V1.2E2.2E0.5Cvlib.5Capp.5Cgfx_apps.5Csimple_draw_d1l2.5Ctarget.5Cd1lx_mango_ghs.5Cobj.5Cdm.:
                        1059 	.type	_Dm_Send_Data..D.3A.5CRenesas_Electronics.5CD1x_RGL.5Crgl_ghs_D1Lx_obj_V1.2E2.2E0.5Cvlib.5Capp.5Cgfx_apps.5Csimple_draw_d1l2.5Ctarget.5Cd1lx_mango_ghs.5Cobj.5Cdm.,@object
                        1060 	.size	_Dm_Send_Data..D.3A.5CRenesas_Electronics.5CD1x_RGL.5Crgl_ghs_D1Lx_obj_V1.2E2.2E0.5Cvlib.5Capp.5Cgfx_apps.5Csimple_draw_d1l2.5Ctarget.5Cd1lx_mango_ghs.5Cobj.5Cdm.,64
00000038 000000000000   1061 _Dm_Send_Data:	.space	64
0000003e 000000000000 
00000044 000000000000 
0000004a 000000000000 
00000050 000000000000 
00000056 000000000000 
0000005c 000000000000 
00000062 000000000000 
00000068 000000000000 
0000006e 000000000000 
00000074 00000000 
                        1062 	.type	_Dm_Send_Data,@object
                        1063 	.size	_Dm_Send_Data,64
                        1064 	.section ".rodata","a"
                        1065 	.global	_logoTab..D.3A.5CRenesas_Electronics.5CD1x_RGL.5Crgl_ghs_D1Lx_obj_V1.2E2.2E0.5Cvlib.5Capp.5Cgfx_apps.5Csimple_draw_d1l2.5Ctarget.5Cd1lx_mango_ghs.5Cobj.5Cdm.
                        1066 _logoTab..D.3A.5CRenesas_Electronics.5CD1x_RGL.5Crgl_ghs_D1Lx_obj_V1.2E2.2E0.5Cvlib.5Capp.5Cgfx_apps.5Csimple_draw_d1l2.5Ctarget.5Cd1lx_mango_ghs.5Cobj.5Cdm.:
                        1067 	.type	_logoTab..D.3A.5CRenesas_Electronics.5CD1x_RGL.5Crgl_ghs_D1Lx_obj_V1.2E2.2E0.5Cvlib.5Capp.5Cgfx_apps.5Csimple_draw_d1l2.5Ctarget.5Cd1lx_mango_ghs.5Cobj.5Cdm.,@object
                        1068 	.size	_logoTab..D.3A.5CRenesas_Electronics.5CD1x_RGL.5Crgl_ghs_D1Lx_obj_V1.2E2.2E0.5Cvlib.5Capp.5Cgfx_apps.5Csimple_draw_d1l2.5Ctarget.5Cd1lx_mango_ghs.5Cobj.5Cdm.,101
00000038 00             1069 _logoTab:	.space	1
00000039 00             1070 	.space	1
0000003a 01010202       1071 	.byte	1,1,2,2
0000003e 03030404       1072 	.byte	3,3,4,4
00000042 05050606       1073 	.byte	5,5,6,6
00000046 07070808       1074 	.byte	7,7,8,8
0000004a 09090a0a       1075 	.byte	9,9,10,10
0000004e 0b0b0c0c       1076 	.byte	11,11,12,12
00000052 0d0d0e0e       1077 	.byte	13,13,14,14
00000056 0f0f1010       1078 	.byte	15,15,16,16
0000005a 11111212       1079 	.byte	17,17,18,18
0000005e 13131414       1080 	.byte	19,19,20,20
00000062 15151616       1081 	.byte	21,21,22,22
00000066 17171818       1082 	.byte	23,23,24,24
0000006a 19191a1b       1083 	.byte	25,25,26,27
0000006e 1c1d1d1e       1084 	.byte	28,29,29,30
00000072 1f202121       1085 	.byte	31,32,33,33
00000076 22232425       1086 	.byte	34,35,36,37
0000007a 25262728       1087 	.byte	37,38,39,40
0000007e 29292a2b       1088 	.byte	41,41,42,43
00000082 2c2d2d2e       1089 	.byte	44,45,45,46
00000086 2f303131       1090 	.byte	47,48,49,49
0000008a 32333435       1091 	.byte	50,51,52,53
0000008e 35363738       1092 	.byte	53,54,55,56
00000092 39393a3b       1093 	.byte	57,57,58,59
00000096 3c3d3d3e       1094 	.byte	60,61,61,62
0000009a 3f3f           1095 	.byte	63,63
0000009c 00             1096 	.space	1

                                                                      Page 21
                                                              C:\Users\YINGAO~1\AppData\Local\Temp\gh_000004s1.si
                        1097 	.type	_logoTab,@object
                        1098 	.size	_logoTab,101
                        1099 	.data
                        1100 	.ghsnote jtable,2097156,.L240,.L240,.L240,7
                        1101 	.text
                        1102 
                        1103 
                        1104 --212: /**************************************************
                        1105 --213: *Function :DM_Process_50ms
                        1106 --214: *Description: DM Module Process
                        1107 --215: *Parameters:none
                        1108 --216: *Returns: none
                        1109 --217: **create&Verlog:
                        1110 --218: *Author Name xs  Date:2017-09-22   Ver:02
                        1111 --219: ***************************************************/
                        1112 --220: void DM_Process_50ms(void)
                        1113 	.align	2
                        1114 	.align	2
                        1115 	.global	_DM_Process_50ms
                        1116 _DM_Process_50ms:
00000304 8807e170       1117 	prepare	{r25,r26,r27,r28,r29,r31},4
00000308 3d0600000000*  1118 	mov	_StartLogoEn-3,r29
0000030e 3b0600000000*  1119 	mov	_logoCnt,r27
00000314 3a0600000000*  1120 	mov	.L710,r26
0000031a 390600000000*  1121 	mov	_Dm_Send_Data,r25
                        1122 --	    .bf
                        1123 .LDW31:
                        1124 --221: {
                        1125 --222: 	U8 res;
                        1126 --223: 	U8 chkstatus;
                        1127 --224: 	static Dm_CMD_ST cmd;
                        1128 --225: 	U8 update = 0;
00000320 00e2           1129 	mov	0,r28
                        1130 --227: 	dm_AdjustSpeedThsHold_100ms();
                        1131 	jarl	_dm_AdjustSpeedThsHold_100ms,lp
                        1131 <EXPANSION BEGIN>
                        1131 jarl22 _dm_AdjustSpeedThsHold_100ms , lp 
00000322 80ffc200*      1131 <EXPANSION END>
                        1132 --228: 	dm_Get_Eninfotainment_SubPage();
                        1133 --line228
                        1134 ..lin.D.3A.5CRenesas_Electronics.5CD1x_RGL.5Crgl_ghs_D1Lx_obj_V1.2E2.2E0.5Cvlib.5Capp.5Cgfx_apps.5Csimple_draw_d1l2.5Ctarget.5Cd1lx_mango_ghs.5Cobj.5Cdm.49::
                        1135 .LDWlin49:
                        1136 	jarl	_dm_Get_Eninfotainment_SubPage,lp
                        1136 <EXPANSION BEGIN>
                        1136 jarl22 _dm_Get_Eninfotainment_SubPage , lp 
00000326 80fff401*      1136 <EXPANSION END>
                        1137 --229: 	if( TRUE == DIAG_GetMenuIllumAdEn())
                        1138 --line229
                        1139 ..lin.D.3A.5CRenesas_Electronics.5CD1x_RGL.5Crgl_ghs_D1Lx_obj_V1.2E2.2E0.5Cvlib.5Capp.5Cgfx_apps.5Csimple_draw_d1l2.5Ctarget.5Cd1lx_mango_ghs.5Cobj.5Cdm.50::
                        1140 .LDWlin50:
                        1141 	jarl	_DIAG_GetMenuIllumAdEn,lp
                        1141 <EXPANSION BEGIN>
                        1141 jarl22 _DIAG_GetMenuIllumAdEn , lp 
0000032a 80ff0000*      1141 <EXPANSION END>
0000032e 6152           1142 	cmp	1,r10
00000330 9a0d*          1143 	bne	.L556
                        1144 --230: 	{
                        1145 --231: 		dm_stSet.illuEn = ILLU_GetMenuEnable();
                        1146 --line231
                        1147 ..lin.D.3A.5CRenesas_Electronics.5CD1x_RGL.5Crgl_ghs_D1Lx_obj_V1.2E2.2E0.5Cvlib.5Capp.5Cgfx_apps.5Csimple_draw_d1l2.5Ctarget.5Cd1lx_mango_ghs.5Cobj.5Cdm.51::
                        1148 .LDWlin51:

                                                                      Page 22
                                                              C:\Users\YINGAO~1\AppData\Local\Temp\gh_000004s1.si
                        1149 	jarl	_ILLU_GetMenuEnable,lp
                        1149 <EXPANSION BEGIN>
                        1149 jarl22 _ILLU_GetMenuEnable , lp 
00000332 80ff0000*      1149 <EXPANSION END>
00000336 2b0600000000*  1150 	mov	_dm_stSet+2,r11
0000033c 4b570000       1151 	st.b	r10,0[r11]
00000340 e505*          1152 	br	.L558
                        1153 .L556:
                        1154 --232: 	}
                        1155 --233: 	else
                        1156 --234: 	{
                        1157 --235: 		dm_stSet.illuEn = FALSE;
                        1158 --line235
                        1159 ..lin.D.3A.5CRenesas_Electronics.5CD1x_RGL.5Crgl_ghs_D1Lx_obj_V1.2E2.2E0.5Cvlib.5Capp.5Cgfx_apps.5Csimple_draw_d1l2.5Ctarget.5Cd1lx_mango_ghs.5Cobj.5Cdm.52::
                        1160 .LDWlin52:
00000342 2b0600000000*  1161 	mov	_dm_stSet+2,r11
00000348 4b070000       1162 	st.b	zero,0[r11]
                        1163 .L558:
                        1164 --236: 	}
                        1165 --237: 	res =PWR_GetChkStatus(&chkstatus);
0000034c 23360200       1166 	movea	2,sp,r6
                        1167 	jarl	_PWR_GetChkStatus,lp
                        1167 <EXPANSION BEGIN>
                        1167 jarl22 _PWR_GetChkStatus , lp 
00000350 80ff0000*      1167 <EXPANSION END>
00000354 43570300       1168 	st.b	r10,3[sp]
                        1169 --238:         switch(chkstatus)
                        1170 --line238
                        1171 ..lin.D.3A.5CRenesas_Electronics.5CD1x_RGL.5Crgl_ghs_D1Lx_obj_V1.2E2.2E0.5Cvlib.5Capp.5Cgfx_apps.5Csimple_draw_d1l2.5Ctarget.5Cd1lx_mango_ghs.5Cobj.5Cdm.53::
                        1172 .LDWlin53:
00000358 830f0300       1173 	ld.bu	2[sp],r1
0000035c 610a           1174 	cmp	1,r1
0000035e d105*          1175 	bl	.L561
00000360 b20d*          1176 	be	.L562
00000362 620a           1177 	cmp	2,r1
00000364 9a25*          1178 	bne	.L559
00000366 851d*          1179 	br	.L565
                        1180 .L561:
                        1181 --239:             {
                        1182 --240:                 case STATUS_SLFCHK_NOT_READY:
                        1183 --241:                     StartLogoEn = FALSE;		
                        1184 --line241
                        1185 ..lin.D.3A.5CRenesas_Electronics.5CD1x_RGL.5Crgl_ghs_D1Lx_obj_V1.2E2.2E0.5Cvlib.5Capp.5Cgfx_apps.5Csimple_draw_d1l2.5Ctarget.5Cd1lx_mango_ghs.5Cobj.5Cdm.54::
                        1186 .LDWlin54:
00000368 5d070300       1187 	st.b	zero,3[r29]
                        1188 --242:                     EnableFun = FALSE;
0000036c 5d070400       1189 	st.b	zero,4[r29]
                        1190 --243:                     logoCnt = 0;
00000370 7b070100       1191 	st.w	zero,0[r27]
00000374 951d*          1192 	br	.L559
                        1193 .L562:
                        1194 --244:                     break;
                        1195 --245:                 case STATUS_SLFCHK_ING:
                        1196 --246:                     StartLogoEn = TRUE;	                     	
                        1197 --line246
                        1198 ..lin.D.3A.5CRenesas_Electronics.5CD1x_RGL.5Crgl_ghs_D1Lx_obj_V1.2E2.2E0.5Cvlib.5Capp.5Cgfx_apps.5Csimple_draw_d1l2.5Ctarget.5Cd1lx_mango_ghs.5Cobj.5Cdm.55::
                        1199 .LDWlin55:
00000376 010a           1200 	mov	1,r1
00000378 5d0f0300       1201 	st.b	r1,3[r29]
                        1202 --247:                     EnableFun   = FALSE;
0000037c 5d070400       1203 	st.b	zero,4[r29]

                                                                      Page 23
                                                              C:\Users\YINGAO~1\AppData\Local\Temp\gh_000004s1.si
                        1204 --248:                     if(LOGO_TABLE_CNT > logoCnt)
00000380 3b0f0100       1205 	ld.w	0[r27],r1
00000384 01069cff       1206 	addi	-100,r1,zero
00000388 ee05*          1207 	bge	.L563
                        1208 --249:                     {
                        1209 --250:                         logoCnt++;
                        1210 --line250
                        1211 ..lin.D.3A.5CRenesas_Electronics.5CD1x_RGL.5Crgl_ghs_D1Lx_obj_V1.2E2.2E0.5Cvlib.5Capp.5Cgfx_apps.5Csimple_draw_d1l2.5Ctarget.5Cd1lx_mango_ghs.5Cobj.5Cdm.56::
                        1212 .LDWlin56:
0000038a 3b0f0100       1213 	ld.w	0[r27],r1
0000038e 410a           1214 	add	1,r1
00000390 7b0f0100       1215 	st.w	r1,0[r27]
                        1216 .L563:
00000394 950d*          1217 	br	.L559
                        1218 .L565:
                        1219 --251:                     }
                        1220 --252:                     break;
                        1221 --253:                 case STATUS_SLFCHK_FINISH:
                        1222 --254:                     StartLogoEn = FALSE;
                        1223 --line254
                        1224 ..lin.D.3A.5CRenesas_Electronics.5CD1x_RGL.5Crgl_ghs_D1Lx_obj_V1.2E2.2E0.5Cvlib.5Capp.5Cgfx_apps.5Csimple_draw_d1l2.5Ctarget.5Cd1lx_mango_ghs.5Cobj.5Cdm.57::
                        1225 .LDWlin57:
00000396 5d070300       1226 	st.b	zero,3[r29]
                        1227 --255:                     EnableFun = TRUE;                    
0000039a 010a           1228 	mov	1,r1
0000039c 5d0f0400       1229 	st.b	r1,4[r29]
                        1230 --256:                     logoCnt = 0;
000003a0 7b070100       1231 	st.w	zero,0[r27]
000003a4 0000           1232 	nop
                        1233 .L559:
                        1234 --257:                     break;
                        1235 --258:             }
                        1236 --259: 		
                        1237 --260: 			dm_Get_DestPage_Process();
                        1238 	jarl	_dm_Get_DestPage_Process,lp
                        1238 <EXPANSION BEGIN>
                        1238 jarl22 _dm_Get_DestPage_Process , lp 
000003a6 80ff9002*      1238 <EXPANSION END>
                        1239 --261: 			if(0 != memcpy(&cmd,&Dm_Send_Data.CMD,sizeof(Dm_CMD_ST)))
                        1240 --line261
                        1241 ..lin.D.3A.5CRenesas_Electronics.5CD1x_RGL.5Crgl_ghs_D1Lx_obj_V1.2E2.2E0.5Cvlib.5Capp.5Cgfx_apps.5Csimple_draw_d1l2.5Ctarget.5Cd1lx_mango_ghs.5Cobj.5Cdm.58::
                        1242 .LDWlin58:
000003aa 1a30           1243 	mov	r26,r6
000003ac 1938           1244 	mov	r25,r7
000003ae 0342           1245 	mov	3,r8
                        1246 	jarl	_memcpy,lp
                        1246 <EXPANSION BEGIN>
                        1246 jarl22 _memcpy , lp 
000003b0 80ff0000*      1246 <EXPANSION END>
000003b4 e051           1247 	cmp	zero,r10
000003b6 b205*          1248 	be	.L566
                        1249 --262: 				{
                        1250 --263: 					update = TRUE;
                        1251 --line263
                        1252 ..lin.D.3A.5CRenesas_Electronics.5CD1x_RGL.5Crgl_ghs_D1Lx_obj_V1.2E2.2E0.5Cvlib.5Capp.5Cgfx_apps.5Csimple_draw_d1l2.5Ctarget.5Cd1lx_mango_ghs.5Cobj.5Cdm.59::
                        1253 .LDWlin59:
000003b8 01e2           1254 	mov	1,r28
000003ba a505*          1255 	br	.L568
                        1256 .L566:
                        1257 --264: 				}
                        1258 --265: 			else

                                                                      Page 24
                                                              C:\Users\YINGAO~1\AppData\Local\Temp\gh_000004s1.si
                        1259 --266: 				{
                        1260 --267: 					update = FALSE;
                        1261 --line267
                        1262 ..lin.D.3A.5CRenesas_Electronics.5CD1x_RGL.5Crgl_ghs_D1Lx_obj_V1.2E2.2E0.5Cvlib.5Capp.5Cgfx_apps.5Csimple_draw_d1l2.5Ctarget.5Cd1lx_mango_ghs.5Cobj.5Cdm.60::
                        1263 .LDWlin60:
000003bc 00e2           1264 	mov	0,r28
                        1265 .L568:
                        1266 --268: 				}
                        1267 --269: 			dm_Get_DestData_Process(update);
000003be 1c30           1268 	mov	r28,r6
                        1269 	jarl	_dm_Get_DestData_Process,lp
                        1269 <EXPANSION BEGIN>
                        1269 jarl22 _dm_Get_DestData_Process , lp 
000003c0 80ffea0c*      1269 <EXPANSION END>
                        1270 --271: 			update = FALSE;
                        1271 --line271
                        1272 ..lin.D.3A.5CRenesas_Electronics.5CD1x_RGL.5Crgl_ghs_D1Lx_obj_V1.2E2.2E0.5Cvlib.5Capp.5Cgfx_apps.5Csimple_draw_d1l2.5Ctarget.5Cd1lx_mango_ghs.5Cobj.5Cdm.61::
                        1273 .LDWlin61:
000003c4 00e2           1274 	mov	0,r28
                        1275 --272: 			cmd = Dm_Send_Data.CMD;
000003c6 990f0100       1276 	ld.bu	0[r25],r1
000003ca b9770100       1277 	ld.bu	1[r25],r14
000003ce 996f0300       1278 	ld.bu	2[r25],r13
000003d2 5a0f0000       1279 	st.b	r1,0[r26]
000003d6 5a770100       1280 	st.b	r14,1[r26]
000003da 5a6f0200       1281 	st.b	r13,2[r26]
                        1282 --273: 	
                        1283 --274: }
000003de 0000           1284 	nop
                        1285 --	    .ef
                        1286 .LDW41:
000003e0 4806ff70       1287 	dispose	4,{r25,r26,r27,r28,r29,r31},[lp]
                        1288 	.type	_DM_Process_50ms,@function
                        1289 	.size	_DM_Process_50ms,.-_DM_Process_50ms
                        1290 	.align	2
                        1291 .LDW51:
                        1292 --_cmd	.L710	static
                        1293 --_res	3[sp]	local
                        1294 --_chkstatus	2[sp]	local
                        1295 --_update	r28	local
                        1296 
                        1297 	.section ".bss","awb"
                        1298 	.global	_cmd.DM_Process_50ms.D.3A.5CRenesas_Electronics.5CD1x_RGL.5Crgl_ghs_D1Lx_obj_V1.2E2.2E0.5Cvlib.5Capp.5Cgfx_apps.5Csimple_draw_d1l2.5Ctarget.5Cd1lx_mango_ghs.5Cobj.5Cdm..41
                        1299 _cmd.DM_Process_50ms.D.3A.5CRenesas_Electronics.5CD1x_RGL.5Crgl_ghs_D1Lx_obj_V1.2E2.2E0.5Cvlib.5Capp.5Cgfx_apps.5Csimple_draw_d1l2.5Ctarget.5Cd1lx_mango_ghs.5Cobj.5Cdm..41:
                        1300 	.type	_cmd.DM_Process_50ms.D.3A.5CRenesas_Electronics.5CD1x_RGL.5Crgl_ghs_D1Lx_obj_V1.2E2.2E0.5Cvlib.5Capp.5Cgfx_apps.5Csimple_draw_d1l2.5Ctarget.5Cd1lx_mango_ghs.5Cobj.5Cdm..41,@object
                        1301 	.size	_cmd.DM_Process_50ms.D.3A.5CRenesas_Electronics.5CD1x_RGL.5Crgl_ghs_D1Lx_obj_V1.2E2.2E0.5Cvlib.5Capp.5Cgfx_apps.5Csimple_draw_d1l2.5Ctarget.5Cd1lx_mango_ghs.5Cobj.5Cdm..41,3
00000078 000000         1302 .L710:	.space	3
                        1303 	.type	.L710,@object
                        1304 	.size	.L710,3
                        1305 	.data
                        1306 	.text
                        1307 
                        1308 
                        1309 --276: /**************************************************
                        1310 --277: *Function :dm_AdjustSpeedThsHold_100ms
                        1311 --278: *Description: DM Module Process
                        1312 --279: *Parameters:none
                        1313 --280: *Returns: none
                        1314 --281: **create&Verlog:
                        1315 --282: *Author Name xs  Date:2017-09-22   Ver:02
                        1316 --283: ***************************************************/

                                                                      Page 25
                                                              C:\Users\YINGAO~1\AppData\Local\Temp\gh_000004s1.si
                        1317 --284: static void dm_AdjustSpeedThsHold_100ms(void)
                        1318 	.align	2
                        1319 	.align	2
                        1320 	.global	_dm_AdjustSpeedThsHold_100ms..D.3A.5CRenesas_Electronics.5CD1x_RGL.5Crgl_ghs_D1Lx_obj_V1.2E2.2E0.5Cvlib.5Capp.5Cgfx_apps.5Csimple_draw_d1l2.5Ctarget.5Cd1lx_mango_ghs.5Cobj.5Cdm.
                        1321 _dm_AdjustSpeedThsHold_100ms..D.3A.5CRenesas_Electronics.5CD1x_RGL.5Crgl_ghs_D1Lx_obj_V1.2E2.2E0.5Cvlib.5Capp.5Cgfx_apps.5Csimple_draw_d1l2.5Ctarget.5Cd1lx_mango_ghs.5Cobj.5Cdm.:
                        1322 _dm_AdjustSpeedThsHold_100ms:
000003e4 82072100       1323 	prepare	{r31},1
                        1324 --	    .bf
                        1325 .LDW61:
                        1326 --285: {
                        1327 --286: 	U16 Value;
                        1328 --287: 	BOOL Enable;
                        1329 --288: 			
                        1330 --289: 	COM_GetSignalValue_BOOL(INDEX_COM_RS_FICMOVERSPDTHRSHLDADJTRA,&Enable);
000003e8 20360901       1331 	movea	265,zero,r6
000003ec 233e0100       1332 	movea	1,sp,r7
                        1333 	jarl	_COM_GetSignalValue_BOOL,lp
                        1333 <EXPANSION BEGIN>
                        1333 jarl22 _COM_GetSignalValue_BOOL , lp 
000003f0 80ff0000*      1333 <EXPANSION END>
                        1334 --290: 	COM_GetSignalValue_16(INDEX_COM_RS_FICMOVERSPDTHRSHLDADJ,&Value);
                        1335 --line290
                        1336 ..lin.D.3A.5CRenesas_Electronics.5CD1x_RGL.5Crgl_ghs_D1Lx_obj_V1.2E2.2E0.5Cvlib.5Capp.5Cgfx_apps.5Csimple_draw_d1l2.5Ctarget.5Cd1lx_mango_ghs.5Cobj.5Cdm.62::
                        1337 .LDWlin62:
000003f4 20368f00       1338 	movea	143,zero,r6
000003f8 233e0200       1339 	movea	2,sp,r7
                        1340 	jarl	_COM_GetSignalValue_16,lp
                        1340 <EXPANSION BEGIN>
                        1340 jarl22 _COM_GetSignalValue_16 , lp 
000003fc 80ff0000*      1340 <EXPANSION END>
                        1341 --291: 	if(FALSE != Enable)
                        1342 --line291
                        1343 ..lin.D.3A.5CRenesas_Electronics.5CD1x_RGL.5Crgl_ghs_D1Lx_obj_V1.2E2.2E0.5Cvlib.5Capp.5Cgfx_apps.5Csimple_draw_d1l2.5Ctarget.5Cd1lx_mango_ghs.5Cobj.5Cdm.63::
                        1344 .LDWlin63:
00000400 a30f0100       1345 	ld.bu	1[sp],r1
00000404 e009           1346 	cmp	zero,r1
00000406 f21d*          1347 	be	.L753
                        1348 --292: 		{
                        1349 --293: 			if(Value > SPEED_THRESHHOLD_MAX)
                        1350 --line293
                        1351 ..lin.D.3A.5CRenesas_Electronics.5CD1x_RGL.5Crgl_ghs_D1Lx_obj_V1.2E2.2E0.5Cvlib.5Capp.5Cgfx_apps.5Csimple_draw_d1l2.5Ctarget.5Cd1lx_mango_ghs.5Cobj.5Cdm.64::
                        1352 .LDWlin64:
00000408 e30f0300       1353 	ld.hu	2[sp],r1
0000040c 010623ff       1354 	addi	-221,r1,zero
00000410 d905*          1355 	bnl	.L749
                        1356 --294: 			{
                        1357 --295: 				Value = SPEED_THRESHHOLD_MAX;
                        1358 --line295
                        1359 ..lin.D.3A.5CRenesas_Electronics.5CD1x_RGL.5Crgl_ghs_D1Lx_obj_V1.2E2.2E0.5Cvlib.5Capp.5Cgfx_apps.5Csimple_draw_d1l2.5Ctarget.5Cd1lx_mango_ghs.5Cobj.5Cdm.65::
                        1360 .LDWlin65:
00000412 200edc00       1361 	movea	220,zero,r1
00000416 630f0200       1362 	st.h	r1,2[sp]
                        1363 .L749:
                        1364 --296: 			}
                        1365 --297: 			else
                        1366 --298: 			{
                        1367 --299: 			}
                        1368 --300: 			DIAG_SetOSThresh((U8)Value);
0000041a 83370300       1369 	ld.bu	2[sp],r6
                        1370 	jarl	_DIAG_SetOSThresh,lp
                        1370 <EXPANSION BEGIN>

                                                                      Page 26
                                                              C:\Users\YINGAO~1\AppData\Local\Temp\gh_000004s1.si
                        1370 jarl22 _DIAG_SetOSThresh , lp 
0000041e 80ff0000*      1370 <EXPANSION END>
                        1371 --301: 			if(Value < 30) 
                        1372 --line301
                        1373 ..lin.D.3A.5CRenesas_Electronics.5CD1x_RGL.5Crgl_ghs_D1Lx_obj_V1.2E2.2E0.5Cvlib.5Capp.5Cgfx_apps.5Csimple_draw_d1l2.5Ctarget.5Cd1lx_mango_ghs.5Cobj.5Cdm.66::
                        1374 .LDWlin66:
00000422 e30f0300       1375 	ld.hu	2[sp],r1
00000426 0106e2ff       1376 	addi	-30,r1,zero
0000042a b105*          1377 	bl	.L752
                        1378 --302: 			{
                        1379 --303: 				Value = 0;
                        1380 --line303
                        1381 ..lin.D.3A.5CRenesas_Electronics.5CD1x_RGL.5Crgl_ghs_D1Lx_obj_V1.2E2.2E0.5Cvlib.5Capp.5Cgfx_apps.5Csimple_draw_d1l2.5Ctarget.5Cd1lx_mango_ghs.5Cobj.5Cdm.67::
                        1382 .LDWlin67:
0000042c 63070200       1383 	st.h	zero,2[sp]
                        1384 .L752:
                        1385 --304: 			}
                        1386 --305: 			else
                        1387 --306: 			{
                        1388 --307: 			}
                        1389 --308: 			speed_Limit = Value/5;
00000430 e30f0300       1390 	ld.hu	2[sp],r1
00000434 0572           1391 	mov	5,r14
00000436 2b0600000000*  1392 	mov	_speed_Limit,r11
0000043c ee0ffc02       1393 	divq	r14,r1,zero
00000440 6b0f0100       1394 	st.w	r1,0[r11]
                        1395 .L753:
                        1396 --309: 		}
                        1397 --310: 	else
                        1398 --311: 	{
                        1399 --312: 	}
                        1400 --313: }
00000444 0000           1401 	nop
                        1402 --	    .ef
                        1403 .LDW71:
00000446 42063f00       1404 	dispose	1,{r31},[lp]
                        1405 	.type	_dm_AdjustSpeedThsHold_100ms,@function
                        1406 	.size	_dm_AdjustSpeedThsHold_100ms,.-_dm_AdjustSpeedThsHold_100ms
                        1407 	.type	_dm_AdjustSpeedThsHold_100ms..D.3A.5CRenesas_Electronics.5CD1x_RGL.5Crgl_ghs_D1Lx_obj_V1.2E2.2E0.5Cvlib.5Capp.5Cgfx_apps.5Csimple_draw_d1l2.5Ctarget.5Cd1lx_mango_ghs.5Cobj.5Cdm.,@function
                        1408 	.size	_dm_AdjustSpeedThsHold_100ms..D.3A.5CRenesas_Electronics.5CD1x_RGL.5Crgl_ghs_D1Lx_obj_V1.2E2.2E0.5Cvlib.5Capp.5Cgfx_apps.5Csimple_draw_d1l2.5Ctarget.5Cd1lx_mango_ghs.5Cobj.5Cdm.,.-_dm_AdjustSpeedThsHold_100ms..D.3A.5CRenesas_Electronics.5CD1x_RGL.5Crgl_ghs_D1Lx_obj_V1.2E2.2E0.5Cvlib.5Capp.5Cgfx_apps.5Csimple_draw_d1l2.5Ctarget.5Cd1lx_mango_ghs.5Cobj.5Cdm.
                        1409 	.align	2
                        1410 .LDW81:
                        1411 --_Value	2[sp]	local
                        1412 --_Enable	1[sp]	local
                        1413 
                        1414 	.data
                        1415 	.text
                        1416 
                        1417 
                        1418 --315: /**************************************************
                        1419 --316: *Function :dm_SetMenu_AutoExist
                        1420 --317: *Description: DM Module Process
                        1421 --318: *Parameters:none
                        1422 --319: *Returns: none
                        1423 --320: **create&Verlog:
                        1424 --321: *Author Name xs  Date:2017-09-22   Ver:02
                        1425 --322: ***************************************************/
                        1426 --323: void dm_SetMenu_AutoExist(void)
                        1427 	.align	2
                        1428 	.align	2
                        1429 	.global	_dm_SetMenu_AutoExist..D.3A.5CRenesas_Electronics.5CD1x_RGL.5Crgl_ghs_D1Lx_obj_V1.2E2.2E0.5Cvlib.5Capp.5Cgfx_apps.5Csimple_draw_d1l2.5Ctarget.5Cd1lx_mango_ghs.5Cobj.5Cdm.

                                                                      Page 27
                                                              C:\Users\YINGAO~1\AppData\Local\Temp\gh_000004s1.si
                        1430 _dm_SetMenu_AutoExist..D.3A.5CRenesas_Electronics.5CD1x_RGL.5Crgl_ghs_D1Lx_obj_V1.2E2.2E0.5Cvlib.5Capp.5Cgfx_apps.5Csimple_draw_d1l2.5Ctarget.5Cd1lx_mango_ghs.5Cobj.5Cdm.:
                        1431 _dm_SetMenu_AutoExist:
0000044a 210600000000*  1432 	mov	_CurPage_Point,r1
00000450 21762800       1433 	movea	40,r1,r14
00000454 21560400       1434 	movea	4,r1,r10
00000458 3e0600000000*  1435 	mov	_dm_EscCnt,ep
0000045e 0148           1436 	mov	r1,r9
00000460 2d0600000000*  1437 	mov	_dm_EscMaxCnt,r13
                        1438 --	    .bf
                        1439 .LDW91:
                        1440 --324: {    
                        1441 --325: 	U8 Value =0 ;
00000466 005a           1442 	mov	0,r11
                        1443 --327:     if((INDEX_FUNCTION== Dm_Send_Data.CMD.PageType) && (MAINFUCTION_SET == Dm_Send_Data.CMD.MainPage) )
00000468 8e670100       1444 	ld.bu	0[r14],r12
0000046c 6262           1445 	cmp	2,r12
0000046e ca55*          1446 	bne	.L834
00000470 ae670100       1447 	ld.bu	1[r14],r12
00000474 6162           1448 	cmp	1,r12
00000476 8a55*          1449 	bne	.L834
                        1450 --328:     {
                        1451 --329:         switch(Dm_Send_Data.CMD.SubPage)
                        1452 --line329
                        1453 ..lin.D.3A.5CRenesas_Electronics.5CD1x_RGL.5Crgl_ghs_D1Lx_obj_V1.2E2.2E0.5Cvlib.5Capp.5Cgfx_apps.5Csimple_draw_d1l2.5Ctarget.5Cd1lx_mango_ghs.5Cobj.5Cdm.68::
                        1454 .LDWlin68:
00000478 8e670300       1455 	ld.bu	2[r14],r12
0000047c 6162           1456 	cmp	1,r12
0000047e c14d*          1457 	bl	.L834
00000480 d205*          1458 	be	.L839
00000482 6362           1459 	cmp	3,r12
00000484 d11d*          1460 	bl	.L844
00000486 8b4d*          1461 	bh	.L834
00000488 9535*          1462 	br	.L848
                        1463 .L839:
                        1464 --330:             {
                        1465 --331:                 case SUBFUCTION_SET_ILLU:
                        1466 --332: 					dm_EscCnt ++;
                        1467 --line332
                        1468 ..lin.D.3A.5CRenesas_Electronics.5CD1x_RGL.5Crgl_ghs_D1Lx_obj_V1.2E2.2E0.5Cvlib.5Capp.5Cgfx_apps.5Csimple_draw_d1l2.5Ctarget.5Cd1lx_mango_ghs.5Cobj.5Cdm.69::
                        1469 .LDWlin69:
0000048a 0065           1470 	sld.w	0[ep],r12
0000048c 4162           1471 	add	1,r12
0000048e 0165           1472 	sst.w	r12,0[ep]
                        1473 --333:                     if((dm_EscMaxCnt <= dm_EscCnt) || (FALSE == dm_stSet.illuEn))
00000490 0065           1474 	sld.w	0[ep],r12
00000492 2d470100       1475 	ld.w	0[r13],r8
00000496 ec41           1476 	cmp	r12,r8
00000498 d305*          1477 	bnh	.L841
0000049a a1672300       1478 	ld.bu	35[r1],r12
0000049e e061           1479 	cmp	zero,r12
000004a0 ea0d*          1480 	bne	.L843
                        1481 .L841:
                        1482 --334:                     {
                        1483 --335:                         dm_EscCnt = 0; 
                        1484 --line335
                        1485 ..lin.D.3A.5CRenesas_Electronics.5CD1x_RGL.5Crgl_ghs_D1Lx_obj_V1.2E2.2E0.5Cvlib.5Capp.5Cgfx_apps.5Csimple_draw_d1l2.5Ctarget.5Cd1lx_mango_ghs.5Cobj.5Cdm.70::
                        1486 .LDWlin70:
000004a2 0105           1487 	sst.w	zero,0[ep]
                        1488 --336:                         DestPage_Point = INDEX_SET_SETTING;                    
000004a4 0762           1489 	mov	7,r12
000004a6 61670500       1490 	st.w	r12,4[r1]

                                                                      Page 28
                                                              C:\Users\YINGAO~1\AppData\Local\Temp\gh_000004s1.si
                        1491 --337:                         Dm_Send_Data.CMD.SubPage  = SUBFUCTION_SETTING;
000004aa 4e070200       1492 	st.b	zero,2[r14]
                        1493 --338:                         Dm_Send_Data.CMD.MainPage = MAINFUCTION_SET;	
000004ae 0162           1494 	mov	1,r12
000004b0 4e670100       1495 	st.b	r12,1[r14]
                        1496 --339:                         CurPage_Point = DestPage_Point;			
000004b4 21670500       1497 	ld.w	4[r1],r12
000004b8 61670100       1498 	st.w	r12,0[r1]
                        1499 .L843:
                        1500 --340:                     }
                        1501 --341: 					else
                        1502 --342: 					{
000004bc d52d*          1503 	br	.L834
                        1504 .L844:
                        1505 --343: 					}
                        1506 --345: 					
                        1507 --346:                     break;
                        1508 --347:                 case SUBFUCTION_SET_SPEEDLIMIT:
                        1509 --348: 					dm_EscCnt ++;
                        1510 --line348
                        1511 ..lin.D.3A.5CRenesas_Electronics.5CD1x_RGL.5Crgl_ghs_D1Lx_obj_V1.2E2.2E0.5Cvlib.5Capp.5Cgfx_apps.5Csimple_draw_d1l2.5Ctarget.5Cd1lx_mango_ghs.5Cobj.5Cdm.71::
                        1512 .LDWlin71:
000004be 0065           1513 	sld.w	0[ep],r12
000004c0 4162           1514 	add	1,r12
000004c2 0165           1515 	sst.w	r12,0[ep]
                        1516 --349:                     if(dm_EscMaxCnt <= dm_EscCnt)
000004c4 0065           1517 	sld.w	0[ep],r12
000004c6 2d470100       1518 	ld.w	0[r13],r8
000004ca ec41           1519 	cmp	r12,r8
000004cc eb0d*          1520 	bh	.L847
                        1521 --350:                     {
                        1522 --351:                         dm_EscCnt = 0; 
                        1523 --line351
                        1524 ..lin.D.3A.5CRenesas_Electronics.5CD1x_RGL.5Crgl_ghs_D1Lx_obj_V1.2E2.2E0.5Cvlib.5Capp.5Cgfx_apps.5Csimple_draw_d1l2.5Ctarget.5Cd1lx_mango_ghs.5Cobj.5Cdm.72::
                        1525 .LDWlin72:
000004ce 0105           1526 	sst.w	zero,0[ep]
                        1527 --352: 						
                        1528 --353: 						DestPage_Point = INDEX_SET_SETTING;                    
000004d0 0762           1529 	mov	7,r12
000004d2 61670500       1530 	st.w	r12,4[r1]
                        1531 --354:                         Dm_Send_Data.CMD.SubPage  = SUBFUCTION_SETTING;
000004d6 4e070200       1532 	st.b	zero,2[r14]
                        1533 --355:                         Dm_Send_Data.CMD.MainPage = MAINFUCTION_SET;	
000004da 0162           1534 	mov	1,r12
000004dc 4e670100       1535 	st.b	r12,1[r14]
                        1536 --356:                         CurPage_Point = DestPage_Point;			
000004e0 21670500       1537 	ld.w	4[r1],r12
000004e4 61670100       1538 	st.w	r12,0[r1]
                        1539 .L847:
                        1540 --357:                     }
                        1541 --358: 					else
                        1542 --359: 					{
000004e8 f515*          1543 	br	.L834
                        1544 .L848:
                        1545 --360: 					}
                        1546 --361: 					 break;
                        1547 --362:                 case SUBFUCTION_SET_SCS:
                        1548 --363:                     dm_EscCnt ++;
                        1549 --line363
                        1550 ..lin.D.3A.5CRenesas_Electronics.5CD1x_RGL.5Crgl_ghs_D1Lx_obj_V1.2E2.2E0.5Cvlib.5Capp.5Cgfx_apps.5Csimple_draw_d1l2.5Ctarget.5Cd1lx_mango_ghs.5Cobj.5Cdm.73::
                        1551 .LDWlin73:

                                                                      Page 29
                                                              C:\Users\YINGAO~1\AppData\Local\Temp\gh_000004s1.si
000004ea 0065           1552 	sld.w	0[ep],r12
000004ec 4162           1553 	add	1,r12
000004ee 0165           1554 	sst.w	r12,0[ep]
                        1555 --364:                     if(dm_EscMaxCnt <= dm_EscCnt)
000004f0 0065           1556 	sld.w	0[ep],r12
000004f2 2d470100       1557 	ld.w	0[r13],r8
000004f6 ec41           1558 	cmp	r12,r8
000004f8 eb0d*          1559 	bh	.L851
                        1560 --365:                     {
                        1561 --366:                         dm_EscCnt = 0; 
                        1562 --line366
                        1563 ..lin.D.3A.5CRenesas_Electronics.5CD1x_RGL.5Crgl_ghs_D1Lx_obj_V1.2E2.2E0.5Cvlib.5Capp.5Cgfx_apps.5Csimple_draw_d1l2.5Ctarget.5Cd1lx_mango_ghs.5Cobj.5Cdm.74::
                        1564 .LDWlin74:
000004fa 0105           1565 	sst.w	zero,0[ep]
                        1566 --367: 						
                        1567 --368:                         DestPage_Point = INDEX_SET_SETTING;                    
000004fc 0762           1568 	mov	7,r12
000004fe 61670500       1569 	st.w	r12,4[r1]
                        1570 --369:                         Dm_Send_Data.CMD.SubPage = SUBFUCTION_SETTING;
00000502 4e070200       1571 	st.b	zero,2[r14]
                        1572 --370:                         Dm_Send_Data.CMD.MainPage = MAINFUCTION_SET;	
00000506 0162           1573 	mov	1,r12
00000508 4e670100       1574 	st.b	r12,1[r14]
                        1575 --371:                         CurPage_Point = DestPage_Point;			
0000050c 21670500       1576 	ld.w	4[r1],r12
00000510 61670100       1577 	st.w	r12,0[r1]
                        1578 .L851:
                        1579 --372:                     }
                        1580 --373: 					else
                        1581 --374: 					{
00000514 0000           1582 	nop
                        1583 .L834:
                        1584 --375: 					}
                        1585 --376:                     break;
                        1586 --377:             }
                        1587 --378:     }
                        1588 --379: }
00000516 0000           1589 	nop
                        1590 --	    .ef
                        1591 .LDW02:
00000518 7f00           1592 	jmp	[lp]
                        1593 	.type	_dm_SetMenu_AutoExist,@function
                        1594 	.size	_dm_SetMenu_AutoExist,.-_dm_SetMenu_AutoExist
                        1595 	.type	_dm_SetMenu_AutoExist..D.3A.5CRenesas_Electronics.5CD1x_RGL.5Crgl_ghs_D1Lx_obj_V1.2E2.2E0.5Cvlib.5Capp.5Cgfx_apps.5Csimple_draw_d1l2.5Ctarget.5Cd1lx_mango_ghs.5Cobj.5Cdm.,@function
                        1596 	.size	_dm_SetMenu_AutoExist..D.3A.5CRenesas_Electronics.5CD1x_RGL.5Crgl_ghs_D1Lx_obj_V1.2E2.2E0.5Cvlib.5Capp.5Cgfx_apps.5Csimple_draw_d1l2.5Ctarget.5Cd1lx_mango_ghs.5Cobj.5Cdm.,.-_dm_SetMenu_AutoExist..D.3A.5CRenesas_Electronics.5CD1x_RGL.5Crgl_ghs_D1Lx_obj_V1.2E2.2E0.5Cvlib.5Capp.5Cgfx_apps.5Csimple_draw_d1l2.5Ctarget.5Cd1lx_mango_ghs.5Cobj.5Cdm.
                        1597 	.align	2
                        1598 .LDW12:
                        1599 --_Value	r11	local
                        1600 
                        1601 	.data
                        1602 	.text
                        1603 
                        1604 
                        1605 --381: /**************************************************
                        1606 --382: *Function :dm_Get_Eninfotainment_SubPage
                        1607 --383: *Description: Get Infotainment page information
                        1608 --384: *Parameters:none
                        1609 --385: *Returns: none
                        1610 --386: **create&Verlog:
                        1611 --387: *Author Name xs  Date:2017-09-22   Ver:02
                        1612 --388: ***************************************************/

                                                                      Page 30
                                                              C:\Users\YINGAO~1\AppData\Local\Temp\gh_000004s1.si
                        1613 --389: static void dm_Get_Eninfotainment_SubPage(void)
                        1614 	.align	2
                        1615 	.align	2
                        1616 	.global	_dm_Get_Eninfotainment_SubPage..D.3A.5CRenesas_Electronics.5CD1x_RGL.5Crgl_ghs_D1Lx_obj_V1.2E2.2E0.5Cvlib.5Capp.5Cgfx_apps.5Csimple_draw_d1l2.5Ctarget.5Cd1lx_mango_ghs.5Cobj.5Cdm.
                        1617 _dm_Get_Eninfotainment_SubPage..D.3A.5CRenesas_Electronics.5CD1x_RGL.5Crgl_ghs_D1Lx_obj_V1.2E2.2E0.5Cvlib.5Capp.5Cgfx_apps.5Csimple_draw_d1l2.5Ctarget.5Cd1lx_mango_ghs.5Cobj.5Cdm.:
                        1618 _dm_Get_Eninfotainment_SubPage:
0000051a 8207e100       1619 	prepare	{r28,r29,r31},1
0000051e 3d0600000000*  1620 	mov	_dm_RadioSubPage-2,r29
                        1621 --	    .bf
                        1622 .LDW22:
                        1623 --390: {
                        1624 --391: 	U8 MusSrcMd = 0;
00000524 43070300       1625 	st.b	zero,3[sp]
                        1626 --392: 	U16 RdoFrqcVal = 0;	
00000528 00e2           1627 	mov	0,r28
                        1628 --393: 	COM_GetSignalValue_8(INDEX_COM_RS_MUSSRCMD, &MusSrcMd);
0000052a 20369c00       1629 	movea	156,zero,r6
0000052e 233e0300       1630 	movea	3,sp,r7
                        1631 	jarl	_COM_GetSignalValue_8,lp
                        1631 <EXPANSION BEGIN>
                        1631 jarl22 _COM_GetSignalValue_8 , lp 
00000532 80ff0000*      1631 <EXPANSION END>
                        1632 --394: 	dm_RadioSubPage = 0;
                        1633 --line394
                        1634 ..lin.D.3A.5CRenesas_Electronics.5CD1x_RGL.5Crgl_ghs_D1Lx_obj_V1.2E2.2E0.5Cvlib.5Capp.5Cgfx_apps.5Csimple_draw_d1l2.5Ctarget.5Cd1lx_mango_ghs.5Cobj.5Cdm.75::
                        1635 .LDWlin75:
00000536 2b0600000000*  1636 	mov	_dm_RadioSubPage,r11
0000053c 4b070000       1637 	st.b	zero,0[r11]
                        1638 --395: 	return;
00000540 0000           1639 	nop
                        1640 --	    .ef
                        1641 .LDW32:
00000542 4206ff00       1642 	dispose	1,{r28,r29,r31},[lp]
                        1643 	.type	_dm_Get_Eninfotainment_SubPage,@function
                        1644 	.size	_dm_Get_Eninfotainment_SubPage,.-_dm_Get_Eninfotainment_SubPage
                        1645 	.type	_dm_Get_Eninfotainment_SubPage..D.3A.5CRenesas_Electronics.5CD1x_RGL.5Crgl_ghs_D1Lx_obj_V1.2E2.2E0.5Cvlib.5Capp.5Cgfx_apps.5Csimple_draw_d1l2.5Ctarget.5Cd1lx_mango_ghs.5Cobj.5Cdm.,@function
                        1646 	.size	_dm_Get_Eninfotainment_SubPage..D.3A.5CRenesas_Electronics.5CD1x_RGL.5Crgl_ghs_D1Lx_obj_V1.2E2.2E0.5Cvlib.5Capp.5Cgfx_apps.5Csimple_draw_d1l2.5Ctarget.5Cd1lx_mango_ghs.5Cobj.5Cdm.,.-_dm_Get_Eninfotainment_SubPage..D.3A.5CRenesas_Electronics.5CD1x_RGL.5Crgl_ghs_D1Lx_obj_V1.2E2.2E0.5Cvlib.5Capp.5Cgfx_apps.5Csimple_draw_d1l2.5Ctarget.5Cd1lx_mango_ghs.5Cobj.5Cdm.
                        1647 	.align	2
                        1648 .LDW42:
                        1649 --_MusSrcMd	3[sp]	local
                        1650 --_RdoFrqcVal	r28	local
                        1651 
                        1652 	.data
                        1653 	.text
                        1654 
                        1655 --396: }
                        1656 
                        1657 --399: /**************************************************
                        1658 --400: *Function :dm_Get_POPUP_MainPage_MSG_Data
                        1659 --401: *Description: Get Warn Page Infomation 
                        1660 --402: *Parameters:none
                        1661 --403: *Returns: none
                        1662 --404: **create&Verlog:
                        1663 --405: *Author Name xs  Date:2017-09-22   Ver:02
                        1664 --406: ***************************************************/
                        1665 --407: static void dm_Get_POPUP_MainPage_MSG_Data(void)
                        1666 	.align	2
                        1667 	.align	2
                        1668 	.global	_dm_Get_POPUP_MainPage_MSG_Data..D.3A.5CRenesas_Electronics.5CD1x_RGL.5Crgl_ghs_D1Lx_obj_V1.2E2.2E0.5Cvlib.5Capp.5Cgfx_apps.5Csimple_draw_d1l2.5Ctarget.5Cd1lx_mango_ghs.5Cobj.5Cdm.
                        1669 _dm_Get_POPUP_MainPage_MSG_Data..D.3A.5CRenesas_Electronics.5CD1x_RGL.5Crgl_ghs_D1Lx_obj_V1.2E2.2E0.5Cvlib.5Capp.5Cgfx_apps.5Csimple_draw_d1l2.5Ctarget.5Cd1lx_mango_ghs.5Cobj.5Cdm.:
                        1670 _dm_Get_POPUP_MainPage_MSG_Data:

                                                                      Page 31
                                                              C:\Users\YINGAO~1\AppData\Local\Temp\gh_000004s1.si
00000546 8207e130       1671 	prepare	{r26,r27,r28,r29,r31},1
0000054a 3d0600000000*  1672 	mov	_dm_MsgIndex,r29
00000550 3c0600000000*  1673 	mov	_Dm_Send_Data+32,r28
00000556 1dd0           1674 	mov	r29,r26
                        1675 --	    .bf
                        1676 .LDW52:
                        1677 --408: {
                        1678 --410: 	U8 NavDircn;
                        1679 --411: 	U16 NavDist;
                        1680 --412: 	U8 unit = 0;
00000558 00da           1681 	mov	0,r27
                        1682 --413:     U8 FrtDoorSts = 0;
0000055a 43070200       1683 	st.b	zero,2[sp]
                        1684 --414:     U8 PnsgDoorSts = 0;
0000055e 43070300       1685 	st.b	zero,3[sp]
                        1686 --416: 	Dm_Send_Data.DATA.Buffer.msg.MsgType = dm_MsgIndex; // dm_MsgIndex;
00000562 3d0f0100       1687 	ld.w	0[r29],r1
00000566 7c0f0100       1688 	st.w	r1,0[r28]
                        1689 --417: 	
                        1690 --418: 	switch(dm_MsgIndex)
0000056a 3d0f0100       1691 	ld.w	0[r29],r1
0000056e 0106deff       1692 	addi	-34,r1,zero
00000572 810d*          1693 	bl	.L1147
00000574 520a           1694 	add	-14,r1
00000576 610a           1695 	cmp	1,r1
00000578 931d*          1696 	bnh	.L1085
0000057a 0106eeff       1697 	addi	-18,r1,zero
0000057e ba35*          1698 	bne	.L1089
00000580 8515*          1699 	br	.L1084
                        1700 .L1147:
00000582 0106deff       1701 	addi	-34,r1,zero
00000586 d20d*          1702 	be	.L1084
00000588 0106d8ff       1703 	addi	-40,r1,zero
0000058c f20d*          1704 	be	.L1085
0000058e 010ec2ff       1705 	addi	-62,r1,r1
00000592 650a           1706 	cmp	5,r1
00000594 8b2d*          1707 	bh	.L1089
                        1708 --419: 	{
                        1709 --420: 		 case INDEX_MSG_TPMS_PRESURELOW:
                        1710 --421:          case INDEX_MSG_TPMS_TEMPHIGH:
                        1711 --422: 		 case INDEX_MSG_TPMS_LEAKAGE:
                        1712 --423: 		 case INDEX_MSG_TPMS_PRESUREHIGH:
                        1713 --424: 		 case INDEX_MSG_TPMS_BALANCEFAIL:
                        1714 --425: 		 case INDEX_MSG_TPMS_BATLOW:
                        1715 --426: 			TPMS_GetTPMSDATA(&(Dm_Send_Data.DATA.Buffer.msg.MsgData.TirePress));
                        1716 --line426
                        1717 ..lin.D.3A.5CRenesas_Electronics.5CD1x_RGL.5Crgl_ghs_D1Lx_obj_V1.2E2.2E0.5Cvlib.5Capp.5Cgfx_apps.5Csimple_draw_d1l2.5Ctarget.5Cd1lx_mango_ghs.5Cobj.5Cdm.76::
                        1718 .LDWlin76:
00000596 1c360400       1719 	addi	4,r28,r6
                        1720 	jarl	_TPMS_GetTPMSDATA,lp
                        1720 <EXPANSION BEGIN>
                        1720 jarl22 _TPMS_GetTPMSDATA , lp 
0000059a 80ff0000*      1720 <EXPANSION END>
                        1721 --line427
                        1722 ..lin.D.3A.5CRenesas_Electronics.5CD1x_RGL.5Crgl_ghs_D1Lx_obj_V1.2E2.2E0.5Cvlib.5Capp.5Cgfx_apps.5Csimple_draw_d1l2.5Ctarget.5Cd1lx_mango_ghs.5Cobj.5Cdm.77::
                        1723 .LDWlin77:
0000059e c525*          1724 	br	.L1081
                        1725 .L1084:
                        1726 --427: 			 break;
                        1727 --428: 		 case INDEX_MSG_FUEL_LOW_U50:
                        1728 --429: 		 case INDEX_MSG_FUEL_CRITICAL_U50:

                                                                      Page 32
                                                              C:\Users\YINGAO~1\AppData\Local\Temp\gh_000004s1.si
                        1729 --430: 		 	Dm_Send_Data.DATA.Buffer.msg.MsgData.Range.RangeToEmpty= RANG_GetDisplayRangeToEmpty();
                        1730 --line430
                        1731 ..lin.D.3A.5CRenesas_Electronics.5CD1x_RGL.5Crgl_ghs_D1Lx_obj_V1.2E2.2E0.5Cvlib.5Capp.5Cgfx_apps.5Csimple_draw_d1l2.5Ctarget.5Cd1lx_mango_ghs.5Cobj.5Cdm.78::
                        1732 .LDWlin78:
                        1733 	jarl	_RANG_GetDisplayRangeToEmpty,lp
                        1733 <EXPANSION BEGIN>
                        1733 jarl22 _RANG_GetDisplayRangeToEmpty , lp 
000005a0 80ff0000*      1733 <EXPANSION END>
000005a4 7c570400       1734 	st.h	r10,4[r28]
                        1735 --line431
                        1736 ..lin.D.3A.5CRenesas_Electronics.5CD1x_RGL.5Crgl_ghs_D1Lx_obj_V1.2E2.2E0.5Cvlib.5Capp.5Cgfx_apps.5Csimple_draw_d1l2.5Ctarget.5Cd1lx_mango_ghs.5Cobj.5Cdm.79::
                        1737 .LDWlin79:
000005a8 f51d*          1738 	br	.L1081
                        1739 .L1085:
                        1740 --431: 		 	break;
                        1741 --432:         case INDEX_MSG_DOORANDLID_DOOR_L5:
                        1742 --433:         case INDEX_MSG_DOORANDLID_DOOR_U5:
                        1743 --434:         case INDEX_MSG_WELCOME:
                        1744 --435:             {
                        1745 --436:                 COM_GetSignalValue_8(INDEX_COM_RS_DRVRDOOROPENSTS, &FrtDoorSts);
                        1746 --line436
                        1747 ..lin.D.3A.5CRenesas_Electronics.5CD1x_RGL.5Crgl_ghs_D1Lx_obj_V1.2E2.2E0.5Cvlib.5Capp.5Cgfx_apps.5Csimple_draw_d1l2.5Ctarget.5Cd1lx_mango_ghs.5Cobj.5Cdm.80::
                        1748 .LDWlin80:
000005aa 20361700       1749 	movea	23,zero,r6
000005ae 233e0200       1750 	movea	2,sp,r7
                        1751 	jarl	_COM_GetSignalValue_8,lp
                        1751 <EXPANSION BEGIN>
                        1751 jarl22 _COM_GetSignalValue_8 , lp 
000005b2 80ff0000*      1751 <EXPANSION END>
                        1752 --437:                 COM_GetSignalValue_8(INDEX_COM_RS_FRTPSNGDOOROPENSTS, &PnsgDoorSts);
                        1753 --line437
                        1754 ..lin.D.3A.5CRenesas_Electronics.5CD1x_RGL.5Crgl_ghs_D1Lx_obj_V1.2E2.2E0.5Cvlib.5Capp.5Cgfx_apps.5Csimple_draw_d1l2.5Ctarget.5Cd1lx_mango_ghs.5Cobj.5Cdm.81::
                        1755 .LDWlin81:
000005b6 20365600       1756 	movea	86,zero,r6
000005ba 233e0300       1757 	movea	3,sp,r7
                        1758 	jarl	_COM_GetSignalValue_8,lp
                        1758 <EXPANSION BEGIN>
                        1758 jarl22 _COM_GetSignalValue_8 , lp 
000005be 80ff0000*      1758 <EXPANSION END>
                        1759 --438: 				if( (0 != FrtDoorSts) || (0 != PnsgDoorSts) )
                        1760 --line438
                        1761 ..lin.D.3A.5CRenesas_Electronics.5CD1x_RGL.5Crgl_ghs_D1Lx_obj_V1.2E2.2E0.5Cvlib.5Capp.5Cgfx_apps.5Csimple_draw_d1l2.5Ctarget.5Cd1lx_mango_ghs.5Cobj.5Cdm.82::
                        1762 .LDWlin82:
000005c2 830f0300       1763 	ld.bu	2[sp],r1
000005c6 e009           1764 	cmp	zero,r1
000005c8 da05*          1765 	bne	.L1087
000005ca a30f0300       1766 	ld.bu	3[sp],r1
000005ce e009           1767 	cmp	zero,r1
000005d0 920d*          1768 	be	.L1086
                        1769 .L1087:
                        1770 --439: 				{
                        1771 --440: 					Dm_Send_Data.DATA.Buffer.msg.MsgData.door.DrvDoorSts = FrtDoorSts;
                        1772 --line440
                        1773 ..lin.D.3A.5CRenesas_Electronics.5CD1x_RGL.5Crgl_ghs_D1Lx_obj_V1.2E2.2E0.5Cvlib.5Capp.5Cgfx_apps.5Csimple_draw_d1l2.5Ctarget.5Cd1lx_mango_ghs.5Cobj.5Cdm.83::
                        1774 .LDWlin83:
000005d2 830f0300       1775 	ld.bu	2[sp],r1
000005d6 5c0f0400       1776 	st.b	r1,4[r28]
                        1777 --441: 	                Dm_Send_Data.DATA.Buffer.msg.MsgData.door.PnsgDoorSts= PnsgDoorSts;                    
000005da a30f0300       1778 	ld.bu	3[sp],r1
000005de 5c0f0500       1779 	st.b	r1,5[r28]
                        1780 .L1086:

                                                                      Page 33
                                                              C:\Users\YINGAO~1\AppData\Local\Temp\gh_000004s1.si
000005e2 a505*          1781 	br	.L1081
                        1782 .L1089:
                        1783 --line446
                        1784 ..lin.D.3A.5CRenesas_Electronics.5CD1x_RGL.5Crgl_ghs_D1Lx_obj_V1.2E2.2E0.5Cvlib.5Capp.5Cgfx_apps.5Csimple_draw_d1l2.5Ctarget.5Cd1lx_mango_ghs.5Cobj.5Cdm.84::
                        1785 .LDWlin84:
000005e4 0000           1786 	nop
                        1787 .L1081:
                        1788 --442: 				}
                        1789 --443: 			}
                        1790 --444:             break;
                        1791 --445:             default:
                        1792 --446:                 break;
                        1793 --447: 	}
                        1794 --449: 	return;	
000005e6 0000           1795 	nop
                        1796 --	    .ef
                        1797 .LDW62:
000005e8 4206ff30       1798 	dispose	1,{r26,r27,r28,r29,r31},[lp]
                        1799 	.type	_dm_Get_POPUP_MainPage_MSG_Data,@function
                        1800 	.size	_dm_Get_POPUP_MainPage_MSG_Data,.-_dm_Get_POPUP_MainPage_MSG_Data
                        1801 	.type	_dm_Get_POPUP_MainPage_MSG_Data..D.3A.5CRenesas_Electronics.5CD1x_RGL.5Crgl_ghs_D1Lx_obj_V1.2E2.2E0.5Cvlib.5Capp.5Cgfx_apps.5Csimple_draw_d1l2.5Ctarget.5Cd1lx_mango_ghs.5Cobj.5Cdm.,@function
                        1802 	.size	_dm_Get_POPUP_MainPage_MSG_Data..D.3A.5CRenesas_Electronics.5CD1x_RGL.5Crgl_ghs_D1Lx_obj_V1.2E2.2E0.5Cvlib.5Capp.5Cgfx_apps.5Csimple_draw_d1l2.5Ctarget.5Cd1lx_mango_ghs.5Cobj.5Cdm.,.-_dm_Get_POPUP_MainPage_MSG_Data..D.3A.5CRenesas_Electronics.5CD1x_RGL.5Crgl_ghs_D1Lx_obj_V1.2E2.2E0.5Cvlib.5Capp.5Cgfx_apps.5Csimple_draw_d1l2.5Ctarget.5Cd1lx_mango_ghs.5Cobj.5Cdm.
                        1803 	.align	2
                        1804 .LDW72:
                        1805 --_unit	r27	local
                        1806 --_FrtDoorSts	2[sp]	local
                        1807 --_PnsgDoorSts	3[sp]	local
                        1808 
                        1809 	.data
                        1810 	.text
                        1811 
                        1812 --450: }
                        1813 
                        1814 --452: /**************************************************
                        1815 --453: *Function :dm_Get_POPUP_MainPage_MSG_Data
                        1816 --454: *Description: Get Warn Page Infomation 
                        1817 --455: *Parameters:none
                        1818 --456: *Returns: none
                        1819 --457: **create&Verlog:
                        1820 --458: *Author Name xs  Date:2017-09-22   Ver:02
                        1821 --459: ***************************************************/
                        1822 --460: void dm_Get_POPUP_MainPage_Navi_Data(MSG_EVENT_ENUM NaviMsg )
                        1823 	.align	2
                        1824 	.align	2
                        1825 	.global	_dm_Get_POPUP_MainPage_Navi_Data
                        1826 _dm_Get_POPUP_MainPage_Navi_Data:
000005ec 8207e110       1827 	prepare	{r27,r28,r29,r31},1
000005f0 3d0600000000*  1828 	mov	.L1268-3,r29
000005f6 06d8           1829 	mov	r6,r27
000005f8 3de6e0ff       1830 	movea	-32,r29,r28
                        1831 --	    .bf
                        1832 .LDW82:
                        1833 --461: {
                        1834 --463: 	U8 NavDircn;
                        1835 --464: 	U16 NavDist;
                        1836 --465: 	U8 unit = 0;
000005fc 43070100       1837 	st.b	zero,1[sp]
                        1838 --466: 	COM_GetSignalValue_16(INDEX_COM_RS_NAVDIST, &NavDist);
00000600 2036ed00       1839 	movea	237,zero,r6
00000604 233e0200       1840 	movea	2,sp,r7
                        1841 	jarl	_COM_GetSignalValue_16,lp

                                                                      Page 34
                                                              C:\Users\YINGAO~1\AppData\Local\Temp\gh_000004s1.si
                        1841 <EXPANSION BEGIN>
                        1841 jarl22 _COM_GetSignalValue_16 , lp 
00000608 80ff0000*      1841 <EXPANSION END>
                        1842 --467: 	COM_GetSignalValue_8(INDEX_COM_RS_NAVDISTUNIT, &unit);
                        1843 --line467
                        1844 ..lin.D.3A.5CRenesas_Electronics.5CD1x_RGL.5Crgl_ghs_D1Lx_obj_V1.2E2.2E0.5Cvlib.5Capp.5Cgfx_apps.5Csimple_draw_d1l2.5Ctarget.5Cd1lx_mango_ghs.5Cobj.5Cdm.85::
                        1845 .LDWlin85:
0000060c 20369e00       1846 	movea	158,zero,r6
00000610 233e0100       1847 	movea	1,sp,r7
                        1848 	jarl	_COM_GetSignalValue_8,lp
                        1848 <EXPANSION BEGIN>
                        1848 jarl22 _COM_GetSignalValue_8 , lp 
00000614 80ff0000*      1848 <EXPANSION END>
                        1849 --468: 	
                        1850 --469: 	Dm_Send_Data.DATA.Buffer.Navi.NavDircn = NaviMsg - INDEX_MSG_NAVI_CARLOGO;
                        1851 --line469
                        1852 ..lin.D.3A.5CRenesas_Electronics.5CD1x_RGL.5Crgl_ghs_D1Lx_obj_V1.2E2.2E0.5Cvlib.5Capp.5Cgfx_apps.5Csimple_draw_d1l2.5Ctarget.5Cd1lx_mango_ghs.5Cobj.5Cdm.86::
                        1853 .LDWlin86:
00000618 1b0e85ff       1854 	addi	-123,r27,r1
0000061c 5c0f0000       1855 	st.b	r1,0[r28]
                        1856 --470: 	Dm_Send_Data.DATA.Buffer.Navi.NaviUnit = unit;
00000620 a30f0100       1857 	ld.bu	1[sp],r1
00000624 5c0f0100       1858 	st.b	r1,1[r28]
                        1859 --471: 	Dm_Send_Data.DATA.Buffer.Navi.NavDist  = NavDist;
00000628 e30f0300       1860 	ld.hu	2[sp],r1
0000062c 7c0f0200       1861 	st.h	r1,2[r28]
                        1862 --472: }
00000630 0000           1863 	nop
                        1864 --	    .ef
                        1865 .LDW92:
00000632 4206ff10       1866 	dispose	1,{r27,r28,r29,r31},[lp]
                        1867 	.type	_dm_Get_POPUP_MainPage_Navi_Data,@function
                        1868 	.size	_dm_Get_POPUP_MainPage_Navi_Data,.-_dm_Get_POPUP_MainPage_Navi_Data
                        1869 	.align	2
                        1870 .LDW03:
                        1871 --_NavDist	2[sp]	local
                        1872 --_unit	1[sp]	local
                        1873 
                        1874 --_NaviMsg	r27	param
                        1875 
                        1876 	.section ".bss","awb"
                        1877 .L1268:
                        1878 	.type	.L1268,@object
                        1879 	.size	.L1268,0
                        1880 	.data
                        1881 	.text
                        1882 
                        1883 
                        1884 --475: /**************************************************
                        1885 --476: *Function :dm_Get_DestPage_Process
                        1886 --477: *Description: Get DestPage Include Key opertion,and time
                        1887 --478: *Parameters:none
                        1888 --479: *Returns: none
                        1889 --480: **create&Verlog:
                        1890 --481: *Author Name xs  Date:2017-09-22   Ver:02
                        1891 --482: ***************************************************/
                        1892 --483: static void dm_Get_DestPage_Process(void)
                        1893 	.align	2
                        1894 	.align	2
                        1895 	.global	_dm_Get_DestPage_Process..D.3A.5CRenesas_Electronics.5CD1x_RGL.5Crgl_ghs_D1Lx_obj_V1.2E2.2E0.5Cvlib.5Capp.5Cgfx_apps.5Csimple_draw_d1l2.5Ctarget.5Cd1lx_mango_ghs.5Cobj.5Cdm.
                        1896 _dm_Get_DestPage_Process..D.3A.5CRenesas_Electronics.5CD1x_RGL.5Crgl_ghs_D1Lx_obj_V1.2E2.2E0.5Cvlib.5Capp.5Cgfx_apps.5Csimple_draw_d1l2.5Ctarget.5Cd1lx_mango_ghs.5Cobj.5Cdm.:

                                                                      Page 35
                                                              C:\Users\YINGAO~1\AppData\Local\Temp\gh_000004s1.si
                        1897 _dm_Get_DestPage_Process:
00000636 8c07e170       1898 	prepare	{r25,r26,r27,r28,r29,r31},6
0000063a 3d0600000000*  1899 	mov	_dm_MsgIndex,r29
00000640 3c0600000000*  1900 	mov	_Dm_Send_Data,r28
00000646 1dc8           1901 	mov	r29,r25
00000648 3b0600000000*  1902 	mov	_dm_FunPage,r27
                        1903 --	    .bf
                        1904 .LDW13:
                        1905 --484: {
                        1906 --485: 	U8 res;
                        1907 --486: 	BOOL msg_Status;
                        1908 --487: 	TRIPKeySts_ST Key_value;
                        1909 --488: 	MSG_EVENT_ENUM index = INDEX_MSG_NULL;
0000064e 00d2           1910 	mov	0,r26
                        1911 --489: 	U8 group = 0;
00000650 43070100       1912 	st.b	zero,1[sp]
00000654 005a           1913 	mov	0,r11
                        1914 --490:     U8 pos   = 0;
00000656 43070200       1915 	st.b	zero,2[sp]
0000065a 005a           1916 	mov	0,r11
                        1917 --491: 	U8 CurMsgEventCnt;
                        1918 --492: 	BOOL bnaviActive = FALSE;
0000065c 43070300       1919 	st.b	zero,3[sp]
00000660 005a           1920 	mov	0,r11
                        1921 --493: 	static U8 KeyCnt = 0;
                        1922 --495: 	KeyCnt ++;
00000662 bd0f1100       1923 	ld.bu	17[r29],r1
00000666 410a           1924 	add	1,r1
00000668 5d0f1100       1925 	st.b	r1,17[r29]
                        1926 --496: 	if( 5 < KeyCnt)
0000066c bd0f1100       1927 	ld.bu	17[r29],r1
00000670 650a           1928 	cmp	5,r1
00000672 930d*          1929 	bnh	.L1300
                        1930 --497: 	{
                        1931 --498: 		KeyCnt = 0;
                        1932 --line498
                        1933 ..lin.D.3A.5CRenesas_Electronics.5CD1x_RGL.5Crgl_ghs_D1Lx_obj_V1.2E2.2E0.5Cvlib.5Capp.5Cgfx_apps.5Csimple_draw_d1l2.5Ctarget.5Cd1lx_mango_ghs.5Cobj.5Cdm.87::
                        1934 .LDWlin87:
00000674 5d071100       1935 	st.b	zero,17[r29]
                        1936 --499: 		res = TRIP_GetGetKeyEvent(&Key_value);
00000678 23361000       1937 	movea	16,sp,r6
                        1938 	jarl	_TRIP_GetGetKeyEvent,lp
                        1938 <EXPANSION BEGIN>
                        1938 jarl22 _TRIP_GetGetKeyEvent , lp 
0000067c 80ff0000*      1938 <EXPANSION END>
00000680 43570000       1939 	st.b	r10,0[sp]
                        1940 .L1300:
                        1941 --500: 	}	
                        1942 --502: 	if (ILLU_GetWelComeSts()) 
                        1943 --line502
                        1944 ..lin.D.3A.5CRenesas_Electronics.5CD1x_RGL.5Crgl_ghs_D1Lx_obj_V1.2E2.2E0.5Cvlib.5Capp.5Cgfx_apps.5Csimple_draw_d1l2.5Ctarget.5Cd1lx_mango_ghs.5Cobj.5Cdm.88::
                        1945 .LDWlin88:
                        1946 	jarl	_ILLU_GetWelComeSts,lp
                        1946 <EXPANSION BEGIN>
                        1946 jarl22 _ILLU_GetWelComeSts , lp 
00000684 80ff0000*      1946 <EXPANSION END>
00000688 e051           1947 	cmp	zero,r10
0000068a e205*          1948 	be	.L1302
                        1949 --503: 	{
                        1950 --504: 		dm_MsgIndex = INDEX_MSG_WELCOME;  
                        1951 --line504

                                                                      Page 36
                                                              C:\Users\YINGAO~1\AppData\Local\Temp\gh_000004s1.si
                        1952 ..lin.D.3A.5CRenesas_Electronics.5CD1x_RGL.5Crgl_ghs_D1Lx_obj_V1.2E2.2E0.5Cvlib.5Capp.5Cgfx_apps.5Csimple_draw_d1l2.5Ctarget.5Cd1lx_mango_ghs.5Cobj.5Cdm.89::
                        1953 .LDWlin89:
0000068c 200e2800       1954 	movea	40,zero,r1
00000690 7d0f0100       1955 	st.w	r1,0[r29]
00000694 c505*          1956 	br	.L1304
                        1957 .L1302:
                        1958 --505: 	}
                        1959 --506: 	else
                        1960 --507: 	{
                        1961 --508: 		MSG_GetPopIndex(&dm_MsgIndex);
                        1962 --line508
                        1963 ..lin.D.3A.5CRenesas_Electronics.5CD1x_RGL.5Crgl_ghs_D1Lx_obj_V1.2E2.2E0.5Cvlib.5Capp.5Cgfx_apps.5Csimple_draw_d1l2.5Ctarget.5Cd1lx_mango_ghs.5Cobj.5Cdm.90::
                        1964 .LDWlin90:
00000696 1930           1965 	mov	r25,r6
                        1966 	jarl	_MSG_GetPopIndex,lp
                        1966 <EXPANSION BEGIN>
                        1966 jarl22 _MSG_GetPopIndex , lp 
00000698 80ff0000*      1966 <EXPANSION END>
                        1967 .L1304:
                        1968 --509: 	}
                        1969 --510: 	#if RANGE_ALERT_TEST
                        1970 --511: 		dm_MsgIndex = INDEX_MSG_FUEL_CRITICAL_U50;//INDEX_MSG_FUEL_LOW_U50
                        1971 --512: 	#endif
                        1972 --514: 	#if TRIP_THRESHHOLD_TEST
                        1973 --515: 	dm_MsgIndex = INDEX_MSG_NULL;
                        1974 --516: 	#endif
                        1975 --517: 	if((TRUE == EnableFun) || ((INDEX_MSG_NULL != dm_MsgIndex)&&(FALSE == StartLogoEn)))
                        1976 --line517
                        1977 ..lin.D.3A.5CRenesas_Electronics.5CD1x_RGL.5Crgl_ghs_D1Lx_obj_V1.2E2.2E0.5Cvlib.5Capp.5Cgfx_apps.5Csimple_draw_d1l2.5Ctarget.5Cd1lx_mango_ghs.5Cobj.5Cdm.91::
                        1978 .LDWlin91:
0000069c 9d0f1100       1979 	ld.bu	16[r29],r1
000006a0 610a           1980 	cmp	1,r1
000006a2 b20d*          1981 	be	.L1306
000006a4 3d0f0100       1982 	ld.w	0[r29],r1
000006a8 e009           1983 	cmp	zero,r1
000006aa e2071701*      1984 	be	.L1305
000006ae bd0f0f00       1985 	ld.bu	15[r29],r1
000006b2 e009           1986 	cmp	zero,r1
000006b4 ea070d01*      1987 	bne	.L1305
                        1988 .L1306:
                        1989 --518: 	{
                        1990 --519: 		index = dm_MsgIndex;
                        1991 --line519
                        1992 ..lin.D.3A.5CRenesas_Electronics.5CD1x_RGL.5Crgl_ghs_D1Lx_obj_V1.2E2.2E0.5Cvlib.5Capp.5Cgfx_apps.5Csimple_draw_d1l2.5Ctarget.5Cd1lx_mango_ghs.5Cobj.5Cdm.92::
                        1993 .LDWlin92:
000006b8 3dd70100       1994 	ld.w	0[r29],r26
                        1995 --521: 		switch(index)
000006bc 1a08           1996 	mov	r26,r1
000006be e009           1997 	cmp	zero,r1
000006c0 f20d*          1998 	be	.L1312
000006c2 010e85ff       1999 	addi	-123,r1,r1
000006c6 0106c2ff       2000 	addi	-62,r1,zero
000006ca f16d*          2001 	bl	.L1335
                        2002 --522: 			{
                        2003 --523: 				case INDEX_MSG_NAVI_CARLOGO:	/*0*/  //?o?MSG
                        2004 --524: 				case INDEX_MSG_NAVI_GOSTRAIGHT:
                        2005 --525: 				case INDEX_MSG_NAVI_TURNLEFT:
                        2006 --526: 				case INDEX_MSG_NAVI_TURNRIGHT:
                        2007 --527: 				case INDEX_MSG_NAVI_KEEPLEFT:
                        2008 --528: 				case INDEX_MSG_NAVI_KEEPRIGHT:/*5*/
                        2009 --529: 				case INDEX_MSG_NAVI_TURNINCLINEDLEFT:

                                                                      Page 37
                                                              C:\Users\YINGAO~1\AppData\Local\Temp\gh_000004s1.si
                        2010 --530: 				case INDEX_MSG_NAVI_TURNINCLINEDRIGHT:
                        2011 --531: 				case INDEX_MSG_NAVI_TURNLEFTAFTER:
                        2012 --532: 				case INDEX_MSG_NAVI_TURNRIGHTAFTER:
                        2013 --533: 				case INDEX_MSG_NAVI_LEFTBACK:/*10*/
                        2014 --534: 				case INDEX_MSG_NAVI_RIGHTBACK:
                        2015 --535: 				case INDEX_MSG_NAVI_THREEFORKSONLEFT:
                        2016 --536: 				case INDEX_MSG_NAVI_THREEFORKSONMIDDLE:
                        2017 --537: 				case INDEX_MSG_NAVI_THREEFORKSONRIGHT:
                        2018 --538: 				case INDEX_MSG_NAVI_CLOSEROADONLEFT:/*15*/
                        2019 --539: 				case INDEX_MSG_NAVI_CLOSEROADONRIGHT:
                        2020 --540: 				case INDEX_MSG_NAVI_CLOSEROADONLEFTRAMP:
                        2021 --541: 				case INDEX_MSG_NAVI_CLOSEROADONRIGHTRAMP:
                        2022 --542: 				case INDEX_MSG_NAVI_LEFTSTRAIGHT:
                        2023 --543: 				case INDEX_MSG_NAVI_RIGHTSTRAIGHT:/*20*/
                        2024 --544: 				case INDEX_MSG_NAVI_ITTOCIRCLEZONE:
                        2025 --545: 				case INDEX_MSG_NAVI_OUTCIRCLEZONE:
                        2026 --546: 				case INDEX_MSG_NAVI_OUTCIRCLEANTICLOCKWISE45:
                        2027 --547: 				case INDEX_MSG_NAVI_OUTCIRCLEANTICLOCKWISE90:
                        2028 --548: 				case INDEX_MSG_NAVI_OUTCIRCLEANTICLOCKWISE135:/*25*/
                        2029 --549: 				case INDEX_MSG_NAVI_OUTCIRCLEANTICLOCKWISE180:
                        2030 --550: 				case INDEX_MSG_NAVI_OUTCIRCLEANTICLOCKWISE225:
                        2031 --551: 				case INDEX_MSG_NAVI_OUTCIRCLEANTICLOCKWISE270:
                        2032 --552: 				case INDEX_MSG_NAVI_OUTCIRCLEANTICLOCKWISE315:
                        2033 --553: 				case INDEX_MSG_NAVI_OUTCIRCLEANTICLOCKWISE360:/*30*/
                        2034 --554: 				case INDEX_MSG_NAVI_OUTCIRCLECLOCKWISE45:
                        2035 --555: 				case INDEX_MSG_NAVI_OUTCIRCLECLOCKWISE90:
                        2036 --556: 				case INDEX_MSG_NAVI_OUTCIRCLECLOCKWISE135:
                        2037 --557: 				case INDEX_MSG_NAVI_OUTCIRCLECLOCKWISE180:
                        2038 --558: 				case INDEX_MSG_NAVI_OUTCIRCLECLOCKWISE225:/*35*/
                        2039 --559: 				case INDEX_MSG_NAVI_OUTCIRCLECLOCKWISE270:
                        2040 --560: 				case INDEX_MSG_NAVI_OUTCIRCLECLOCKWISE315:
                        2041 --561: 				case INDEX_MSG_NAVI_OUTCIRCLECLOCKWISE360:
                        2042 --562: 				case INDEX_MSG_NAVI_DIRECTROAD:
                        2043 --563: 				case INDEX_MSG_NAVI_TOLLSTATION:/*40*/
                        2044 --564: 				case INDEX_MSG_NAVI_FERRY:
                        2045 --565: 				case INDEX_MSG_NAVI_TUNNELENTRANCE:
                        2046 --566: 				case INDEX_MSG_NAVI_BRIDGEENTRANCE:
                        2047 --567: 				case INDEX_MSG_NAVI_ORIGIN:
                        2048 --568: 				case INDEX_MSG_NAVI_PATHWAY1:/*45*/
                        2049 --569: 				case INDEX_MSG_NAVI_PATHWAY2:
                        2050 --570: 				case INDEX_MSG_NAVI_PATHWAY3:
                        2051 --571: 				case INDEX_MSG_NAVI_PATHWAY4:
                        2052 --572: 				case INDEX_MSG_NAVI_PATHWAY5:
                        2053 --573: 				case INDEX_MSG_NAVI_DESTINATION:/*50*/
                        2054 --574: 				case INDEX_MSG_NAVI_VILLAGE:
                        2055 --575: 				case INDEX_MSG_NAVI_SUPERVISEDRAILWAY:
                        2056 --576: 				case INDEX_MSG_NAVI_UNSUPERVISEDRAILWAY:
                        2057 --577: 				case INDEX_MSG_NAVI_SHARPLEFTTURN:
                        2058 --578: 				case INDEX_MSG_NAVI_SHARPRIGHTTURN:/*55*/
                        2059 --579: 				case INDEX_MSG_NAVI_LEFTMERGING:
                        2060 --580: 				case INDEX_MSG_NAVI_RIGHTMERGING:
                        2061 --581: 				case INDEX_MSG_NAVI_UPSLOPE:
                        2062 --582: 				case INDEX_MSG_NAVI_DOWNSLOPE:
                        2063 --583: 				case INDEX_MSG_NAVI_HUMPBRIDGE:/*60*/
                        2064 --584: 				case  INDEX_MSG_NAVI_TUNNEL: 
                        2065 --585: 						Dm_Send_Data.CMD.PageType = INDEX_POPUP;
                        2066 --line585
                        2067 ..lin.D.3A.5CRenesas_Electronics.5CD1x_RGL.5Crgl_ghs_D1Lx_obj_V1.2E2.2E0.5Cvlib.5Capp.5Cgfx_apps.5Csimple_draw_d1l2.5Ctarget.5Cd1lx_mango_ghs.5Cobj.5Cdm.93::
                        2068 .LDWlin93:
000006cc 030a           2069 	mov	3,r1
000006ce 5c0f0000       2070 	st.b	r1,0[r28]

                                                                      Page 38
                                                              C:\Users\YINGAO~1\AppData\Local\Temp\gh_000004s1.si
                        2071 --586: 						Dm_Send_Data.CMD.MainPage =POPUP_MAINFUNCTION_NAVI;
000006d2 010a           2072 	mov	1,r1
000006d4 5c0f0100       2073 	st.b	r1,1[r28]
                        2074 --587: 						Dm_Send_Data.CMD.SubPage = 0;
000006d8 5c070200       2075 	st.b	zero,2[r28]
000006dc d57d*          2076 	br	.L1336
                        2077 .L1312:
                        2078 --588: 				break;
                        2079 --590: 				case INDEX_MSG_NULL:
                        2080 --591: 					{
                        2081 --592: 						if(INDEX_FUNCTION != Dm_Send_Data.CMD.PageType)
                        2082 --line592
                        2083 ..lin.D.3A.5CRenesas_Electronics.5CD1x_RGL.5Crgl_ghs_D1Lx_obj_V1.2E2.2E0.5Cvlib.5Capp.5Cgfx_apps.5Csimple_draw_d1l2.5Ctarget.5Cd1lx_mango_ghs.5Cobj.5Cdm.94::
                        2084 .LDWlin94:
000006de 9c0f0100       2085 	ld.bu	0[r28],r1
000006e2 620a           2086 	cmp	2,r1
000006e4 d20d*          2087 	be	.L1315
                        2088 --593: 						{					
                        2089 --594: 							Dm_Send_Data.CMD = dm_FunPage;
                        2090 --line594
                        2091 ..lin.D.3A.5CRenesas_Electronics.5CD1x_RGL.5Crgl_ghs_D1Lx_obj_V1.2E2.2E0.5Cvlib.5Capp.5Cgfx_apps.5Csimple_draw_d1l2.5Ctarget.5Cd1lx_mango_ghs.5Cobj.5Cdm.95::
                        2092 .LDWlin95:
000006e6 9b0f0100       2093 	ld.bu	0[r27],r1
000006ea bb770100       2094 	ld.bu	1[r27],r14
000006ee 9b6f0300       2095 	ld.bu	2[r27],r13
000006f2 5c0f0000       2096 	st.b	r1,0[r28]
000006f6 5c770100       2097 	st.b	r14,1[r28]
000006fa 5c6f0200       2098 	st.b	r13,2[r28]
                        2099 .L1315:
                        2100 --595: 						}
                        2101 --596: 						else
                        2102 --597: 						{
                        2103 --598: 						}
                        2104 --599: 						
                        2105 --600:                         #if TRIP_THRESHHOLD_TEST
                        2106 --601:                         Dm_Send_Data.CMD.MainPage = MAINFUCTION_TC;
                        2107 --602:                         Dm_Send_Data.CMD.SubPage= SUBFUCTION_TC_INSFUELCOMP;
                        2108 --603:                         #endif
                        2109 --604: 	
                        2110 --605: 						Dm_Send_Data.CMD.PageType = INDEX_FUNCTION;
000006fe 020a           2111 	mov	2,r1
00000700 5c0f0000       2112 	st.b	r1,0[r28]
                        2113 --606: 						if(((Key_value.status == STATUS_TRIP_PRESS_SHORT)
00000704 230f1500       2114 	ld.w	20[sp],r1
00000708 620a           2115 	cmp	2,r1
0000070a d205*          2116 	be	.L1318
0000070c 230f1500       2117 	ld.w	20[sp],r1
00000710 610a           2118 	cmp	1,r1
00000712 ea2d*          2119 	bne	.L1316
                        2120 .L1318:
00000714 bd0f1100       2121 	ld.bu	17[r29],r1
00000718 e009           2122 	cmp	zero,r1
0000071a aa2d*          2123 	bne	.L1316
                        2124 --607: 						||(Key_value.status == STATUS_TRIP_PRESS_LONG))
                        2125 --608: 						&& (0 == KeyCnt))
                        2126 --610: 						{
                        2127 --611: 							switch(Key_value.type)
                        2128 --line611
                        2129 ..lin.D.3A.5CRenesas_Electronics.5CD1x_RGL.5Crgl_ghs_D1Lx_obj_V1.2E2.2E0.5Cvlib.5Capp.5Cgfx_apps.5Csimple_draw_d1l2.5Ctarget.5Cd1lx_mango_ghs.5Cobj.5Cdm.96::
                        2130 .LDWlin96:
0000071c 230f1100       2131 	ld.w	16[sp],r1

                                                                      Page 39
                                                              C:\Users\YINGAO~1\AppData\Local\Temp\gh_000004s1.si
00000720 630a           2132 	cmp	3,r1
00000722 e905*          2133 	bnl	.L1471
00000724 610a           2134 	cmp	1,r1
00000726 a20d*          2135 	be	.L1322
00000728 620a           2136 	cmp	2,r1
0000072a 9a25*          2137 	bne	.L1327
0000072c c50d*          2138 	br	.L1323
                        2139 .L1471:
0000072e 640a           2140 	cmp	4,r1
00000730 f10d*          2141 	bl	.L1324
00000732 b215*          2142 	be	.L1325
00000734 650a           2143 	cmp	5,r1
00000736 ba1d*          2144 	bne	.L1327
00000738 d515*          2145 	br	.L1326
                        2146 .L1322:
                        2147 --612: 							{
                        2148 --613: 								case TYPE_TRIP_OK:
                        2149 --614: 								dm_EscCnt = 0;
                        2150 --line614
                        2151 ..lin.D.3A.5CRenesas_Electronics.5CD1x_RGL.5Crgl_ghs_D1Lx_obj_V1.2E2.2E0.5Cvlib.5Capp.5Cgfx_apps.5Csimple_draw_d1l2.5Ctarget.5Cd1lx_mango_ghs.5Cobj.5Cdm.97::
                        2152 .LDWlin97:
0000073a 7d070500       2153 	st.w	zero,4[r29]
                        2154 --615: 								dm_KeyRespond_OK();
                        2155 	jarl	_dm_KeyRespond_OK,lp
                        2155 <EXPANSION BEGIN>
                        2155 jarl22 _dm_KeyRespond_OK , lp 
0000073e 80ff9e00*      2155 <EXPANSION END>
                        2156 --line616
                        2157 ..lin.D.3A.5CRenesas_Electronics.5CD1x_RGL.5Crgl_ghs_D1Lx_obj_V1.2E2.2E0.5Cvlib.5Capp.5Cgfx_apps.5Csimple_draw_d1l2.5Ctarget.5Cd1lx_mango_ghs.5Cobj.5Cdm.98::
                        2158 .LDWlin98:
00000742 8525*          2159 	br	.L1328
                        2160 .L1323:
                        2161 --616: 								break;
                        2162 --617: 								case TYPE_TRIP_UP:                     
                        2163 --618: 								dm_EscCnt = 0;
                        2164 --line618
                        2165 ..lin.D.3A.5CRenesas_Electronics.5CD1x_RGL.5Crgl_ghs_D1Lx_obj_V1.2E2.2E0.5Cvlib.5Capp.5Cgfx_apps.5Csimple_draw_d1l2.5Ctarget.5Cd1lx_mango_ghs.5Cobj.5Cdm.99::
                        2166 .LDWlin99:
00000744 7d070500       2167 	st.w	zero,4[r29]
                        2168 --619: 								dm_KeyRespond_UP();
                        2169 	jarl	_dm_KeyRespond_UP,lp
                        2169 <EXPANSION BEGIN>
                        2169 jarl22 _dm_KeyRespond_UP , lp 
00000748 80ffca02*      2169 <EXPANSION END>
                        2170 --line620
                        2171 ..lin.D.3A.5CRenesas_Electronics.5CD1x_RGL.5Crgl_ghs_D1Lx_obj_V1.2E2.2E0.5Cvlib.5Capp.5Cgfx_apps.5Csimple_draw_d1l2.5Ctarget.5Cd1lx_mango_ghs.5Cobj.5Cdm.100::
                        2172 .LDWlin100:
0000074c b51d*          2173 	br	.L1328
                        2174 .L1324:
                        2175 --620: 								break;
                        2176 --621: 								case TYPE_TRIP_DOWN:                     
                        2177 --622: 								dm_EscCnt = 0;
                        2178 --line622
                        2179 ..lin.D.3A.5CRenesas_Electronics.5CD1x_RGL.5Crgl_ghs_D1Lx_obj_V1.2E2.2E0.5Cvlib.5Capp.5Cgfx_apps.5Csimple_draw_d1l2.5Ctarget.5Cd1lx_mango_ghs.5Cobj.5Cdm.101::
                        2180 .LDWlin101:
0000074e 7d070500       2181 	st.w	zero,4[r29]
                        2182 --623: 								dm_KeyRespond_DOWN();
                        2183 	jarl	_dm_KeyRespond_DOWN,lp
                        2183 <EXPANSION BEGIN>
                        2183 jarl22 _dm_KeyRespond_DOWN , lp 
00000752 80ffa004*      2183 <EXPANSION END>

                                                                      Page 40
                                                              C:\Users\YINGAO~1\AppData\Local\Temp\gh_000004s1.si
                        2184 --line624
                        2185 ..lin.D.3A.5CRenesas_Electronics.5CD1x_RGL.5Crgl_ghs_D1Lx_obj_V1.2E2.2E0.5Cvlib.5Capp.5Cgfx_apps.5Csimple_draw_d1l2.5Ctarget.5Cd1lx_mango_ghs.5Cobj.5Cdm.102::
                        2186 .LDWlin102:
00000756 e515*          2187 	br	.L1328
                        2188 .L1325:
                        2189 --624: 								break;
                        2190 --625: 								case TYPE_TRIP_RIGHT:                     
                        2191 --626: 								dm_EscCnt = 0;
                        2192 --line626
                        2193 ..lin.D.3A.5CRenesas_Electronics.5CD1x_RGL.5Crgl_ghs_D1Lx_obj_V1.2E2.2E0.5Cvlib.5Capp.5Cgfx_apps.5Csimple_draw_d1l2.5Ctarget.5Cd1lx_mango_ghs.5Cobj.5Cdm.103::
                        2194 .LDWlin103:
00000758 7d070500       2195 	st.w	zero,4[r29]
                        2196 --627: 								dm_KeyRespond_RIGHT();
                        2197 	jarl	_dm_KeyRespond_RIGHT,lp
                        2197 <EXPANSION BEGIN>
                        2197 jarl22 _dm_KeyRespond_RIGHT , lp 
0000075c 80ffe606*      2197 <EXPANSION END>
                        2198 --line628
                        2199 ..lin.D.3A.5CRenesas_Electronics.5CD1x_RGL.5Crgl_ghs_D1Lx_obj_V1.2E2.2E0.5Cvlib.5Capp.5Cgfx_apps.5Csimple_draw_d1l2.5Ctarget.5Cd1lx_mango_ghs.5Cobj.5Cdm.104::
                        2200 .LDWlin104:
00000760 9515*          2201 	br	.L1328
                        2202 .L1326:
                        2203 --628: 								break;
                        2204 --629: 								case TYPE_TRIP_LEFT:                     
                        2205 --630: 								dm_EscCnt = 0;
                        2206 --line630
                        2207 ..lin.D.3A.5CRenesas_Electronics.5CD1x_RGL.5Crgl_ghs_D1Lx_obj_V1.2E2.2E0.5Cvlib.5Capp.5Cgfx_apps.5Csimple_draw_d1l2.5Ctarget.5Cd1lx_mango_ghs.5Cobj.5Cdm.105::
                        2208 .LDWlin105:
00000762 7d070500       2209 	st.w	zero,4[r29]
                        2210 --631: 								dm_KeyRespond_LEFT();
                        2211 	jarl	_dm_KeyRespond_LEFT,lp
                        2211 <EXPANSION BEGIN>
                        2211 jarl22 _dm_KeyRespond_LEFT , lp 
00000766 80ffee05*      2211 <EXPANSION END>
                        2212 --line632
                        2213 ..lin.D.3A.5CRenesas_Electronics.5CD1x_RGL.5Crgl_ghs_D1Lx_obj_V1.2E2.2E0.5Cvlib.5Capp.5Cgfx_apps.5Csimple_draw_d1l2.5Ctarget.5Cd1lx_mango_ghs.5Cobj.5Cdm.106::
                        2214 .LDWlin106:
0000076a c50d*          2215 	br	.L1328
                        2216 .L1327:
                        2217 --line634
                        2218 ..lin.D.3A.5CRenesas_Electronics.5CD1x_RGL.5Crgl_ghs_D1Lx_obj_V1.2E2.2E0.5Cvlib.5Capp.5Cgfx_apps.5Csimple_draw_d1l2.5Ctarget.5Cd1lx_mango_ghs.5Cobj.5Cdm.107::
                        2219 .LDWlin107:
0000076c b50d*          2220 	br	.L1328
                        2221 .L1316:
                        2222 --632: 								break;
                        2223 --633: 								default:
                        2224 --634: 								break;
                        2225 --635: 							}
                        2226 --636: 						}
                        2227 --637: 					else
                        2228 --638: 					{
                        2229 --639: 					/*do nothing*/
                        2230 --640: 						if(MAINFUCTION_ENTERTAINMENT == Dm_Send_Data.CMD.MainPage)
                        2231 --line640
                        2232 ..lin.D.3A.5CRenesas_Electronics.5CD1x_RGL.5Crgl_ghs_D1Lx_obj_V1.2E2.2E0.5Cvlib.5Capp.5Cgfx_apps.5Csimple_draw_d1l2.5Ctarget.5Cd1lx_mango_ghs.5Cobj.5Cdm.108::
                        2233 .LDWlin108:
0000076e bc0f0100       2234 	ld.bu	1[r28],r1
00000772 620a           2235 	cmp	2,r1
00000774 da05*          2236 	bne	.L1331
                        2237 --641: 						{				
                        2238 --642: 						Dm_Send_Data.CMD.SubPage = dm_RadioSubPage;

                                                                      Page 41
                                                              C:\Users\YINGAO~1\AppData\Local\Temp\gh_000004s1.si
                        2239 --line642
                        2240 ..lin.D.3A.5CRenesas_Electronics.5CD1x_RGL.5Crgl_ghs_D1Lx_obj_V1.2E2.2E0.5Cvlib.5Capp.5Cgfx_apps.5Csimple_draw_d1l2.5Ctarget.5Cd1lx_mango_ghs.5Cobj.5Cdm.109::
                        2241 .LDWlin109:
00000776 9d0f0f00       2242 	ld.bu	14[r29],r1
0000077a 5c0f0200       2243 	st.b	r1,2[r28]
                        2244 .L1331:
                        2245 --643: 						}
                        2246 --644: 						else
                        2247 --645: 						{
                        2248 --646: 						}
                        2249 --647: 						dm_SetMenu_AutoExist();
                        2250 	jarl	_dm_SetMenu_AutoExist,lp
                        2250 <EXPANSION BEGIN>
                        2250 jarl22 _dm_SetMenu_AutoExist , lp 
0000077e bfffccfc*      2250 <EXPANSION END>
                        2251 .L1328:
                        2252 --648: 					}
                        2253 --650: 					if(SUBFUCTION_TC_TIREPRESS == Dm_Send_Data.CMD.SubPage)
                        2254 --line650
                        2255 ..lin.D.3A.5CRenesas_Electronics.5CD1x_RGL.5Crgl_ghs_D1Lx_obj_V1.2E2.2E0.5Cvlib.5Capp.5Cgfx_apps.5Csimple_draw_d1l2.5Ctarget.5Cd1lx_mango_ghs.5Cobj.5Cdm.110::
                        2256 .LDWlin110:
00000782 9c0f0300       2257 	ld.bu	2[r28],r1
00000786 660a           2258 	cmp	6,r1
00000788 ba05*          2259 	bne	.L1334
                        2260 --651: 					{
                        2261 --652: 						Dm_Send_Data.DATA.Buffer.Tire.TitleIndex = INDEX_MSG_NULL;
                        2262 --line652
                        2263 ..lin.D.3A.5CRenesas_Electronics.5CD1x_RGL.5Crgl_ghs_D1Lx_obj_V1.2E2.2E0.5Cvlib.5Capp.5Cgfx_apps.5Csimple_draw_d1l2.5Ctarget.5Cd1lx_mango_ghs.5Cobj.5Cdm.111::
                        2264 .LDWlin111:
0000078a 7c073c00       2265 	st.h	zero,60[r28]
                        2266 .L1334:
                        2267 --653: 					}
                        2268 --654: 					else
                        2269 --655: 					{
                        2270 --656: 					}
                        2271 --658: 						dm_FunPage = Dm_Send_Data.CMD;
0000078e 9c0f0100       2272 	ld.bu	0[r28],r1
00000792 bc770100       2273 	ld.bu	1[r28],r14
00000796 9c6f0300       2274 	ld.bu	2[r28],r13
0000079a 5b0f0000       2275 	st.b	r1,0[r27]
0000079e 5b770100       2276 	st.b	r14,1[r27]
000007a2 5b6f0200       2277 	st.b	r13,2[r27]
000007a6 851d*          2278 	br	.L1336
                        2279 .L1335:
                        2280 --659: 					}
                        2281 --660: 					break;
                        2282 --661: 					default:
                        2283 --662: 					Dm_Send_Data.CMD.PageType = INDEX_POPUP;
                        2284 --line662
                        2285 ..lin.D.3A.5CRenesas_Electronics.5CD1x_RGL.5Crgl_ghs_D1Lx_obj_V1.2E2.2E0.5Cvlib.5Capp.5Cgfx_apps.5Csimple_draw_d1l2.5Ctarget.5Cd1lx_mango_ghs.5Cobj.5Cdm.112::
                        2286 .LDWlin112:
000007a8 030a           2287 	mov	3,r1
000007aa 5c0f0000       2288 	st.b	r1,0[r28]
                        2289 --663: 					Dm_Send_Data.CMD.MainPage = POPUP_MAINFUNCTION_MSG;
000007ae 5c070100       2290 	st.b	zero,1[r28]
                        2291 --664: 					Dm_Send_Data.CMD.SubPage = dm_FunPage.MainPage;            
000007b2 bb0f0100       2292 	ld.bu	1[r27],r1
000007b6 5c0f0200       2293 	st.b	r1,2[r28]
                        2294 --665: 					dm_EscCnt = 0;
000007ba 7d070500       2295 	st.w	zero,4[r29]
000007be c50d*          2296 	br	.L1336

                                                                      Page 42
                                                              C:\Users\YINGAO~1\AppData\Local\Temp\gh_000004s1.si
                        2297 .L1305:
                        2298 --666: 						break;
                        2299 --667:     
                        2300 --668: 			}	
                        2301 --669: 		
                        2302 --670: 	}
                        2303 --671: 	else
                        2304 --672: 	{
                        2305 --673: 		if(TRUE == StartLogoEn)
                        2306 --line673
                        2307 ..lin.D.3A.5CRenesas_Electronics.5CD1x_RGL.5Crgl_ghs_D1Lx_obj_V1.2E2.2E0.5Cvlib.5Capp.5Cgfx_apps.5Csimple_draw_d1l2.5Ctarget.5Cd1lx_mango_ghs.5Cobj.5Cdm.113::
                        2308 .LDWlin113:
000007c0 bd0f0f00       2309 	ld.bu	15[r29],r1
000007c4 610a           2310 	cmp	1,r1
000007c6 da05*          2311 	bne	.L1337
                        2312 --674: 		{
                        2313 --675: 		    Dm_Send_Data.CMD.PageType = INDEX_LOGO;
                        2314 --line675
                        2315 ..lin.D.3A.5CRenesas_Electronics.5CD1x_RGL.5Crgl_ghs_D1Lx_obj_V1.2E2.2E0.5Cvlib.5Capp.5Cgfx_apps.5Csimple_draw_d1l2.5Ctarget.5Cd1lx_mango_ghs.5Cobj.5Cdm.114::
                        2316 .LDWlin114:
000007c8 010a           2317 	mov	1,r1
000007ca 5c0f0000       2318 	st.b	r1,0[r28]
000007ce c505*          2319 	br	.L1336
                        2320 .L1337:
                        2321 --676: 			
                        2322 --677: 		}
                        2323 --678: 		else
                        2324 --679: 		{
                        2325 --680: 			Dm_Send_Data.CMD.PageType = INDEX_LOGO;			
                        2326 --line680
                        2327 ..lin.D.3A.5CRenesas_Electronics.5CD1x_RGL.5Crgl_ghs_D1Lx_obj_V1.2E2.2E0.5Cvlib.5Capp.5Cgfx_apps.5Csimple_draw_d1l2.5Ctarget.5Cd1lx_mango_ghs.5Cobj.5Cdm.115::
                        2328 .LDWlin115:
000007d0 010a           2329 	mov	1,r1
000007d2 5c0f0000       2330 	st.b	r1,0[r28]
                        2331 .L1336:
                        2332 --681: 		}
                        2333 --682: 	}
                        2334 --683: }
000007d6 0000           2335 	nop
                        2336 --	    .ef
                        2337 .LDW23:
000007d8 4c06ff70       2338 	dispose	6,{r25,r26,r27,r28,r29,r31},[lp]
                        2339 	.type	_dm_Get_DestPage_Process,@function
                        2340 	.size	_dm_Get_DestPage_Process,.-_dm_Get_DestPage_Process
                        2341 	.type	_dm_Get_DestPage_Process..D.3A.5CRenesas_Electronics.5CD1x_RGL.5Crgl_ghs_D1Lx_obj_V1.2E2.2E0.5Cvlib.5Capp.5Cgfx_apps.5Csimple_draw_d1l2.5Ctarget.5Cd1lx_mango_ghs.5Cobj.5Cdm.,@function
                        2342 	.size	_dm_Get_DestPage_Process..D.3A.5CRenesas_Electronics.5CD1x_RGL.5Crgl_ghs_D1Lx_obj_V1.2E2.2E0.5Cvlib.5Capp.5Cgfx_apps.5Csimple_draw_d1l2.5Ctarget.5Cd1lx_mango_ghs.5Cobj.5Cdm.,.-_dm_Get_DestPage_Process..D.3A.5CRenesas_Electronics.5CD1x_RGL.5Crgl_ghs_D1Lx_obj_V1.2E2.2E0.5Cvlib.5Capp.5Cgfx_apps.5Csimple_draw_d1l2.5Ctarget.5Cd1lx_mango_ghs.5Cobj.5Cdm.
                        2343 	.align	2
                        2344 .LDW33:
                        2345 --_KeyCnt	.L1617	static
                        2346 --_res	0[sp]	local
                        2347 --_Key_value	16[sp]	local
                        2348 --_index	r26	local
                        2349 --_group	1[sp]	local
                        2350 --_pos	2[sp]	local
                        2351 --_bnaviActive	3[sp]	local
                        2352 
                        2353 	.data
                        2354 .L1617:
                        2355 	.global	_KeyCnt.dm_Get_DestPage_Process.D.3A.5CRenesas_Electronics.5CD1x_RGL.5Crgl_ghs_D1Lx_obj_V1.2E2.2E0.5Cvlib.5Capp.5Cgfx_apps.5Csimple_draw_d1l2.5Ctarget.5Cd1lx_mango_ghs.5Cobj.5Cdm..42
                        2356 _KeyCnt.dm_Get_DestPage_Process.D.3A.5CRenesas_Electronics.5CD1x_RGL.5Crgl_ghs_D1Lx_obj_V1.2E2.2E0.5Cvlib.5Capp.5Cgfx_apps.5Csimple_draw_d1l2.5Ctarget.5Cd1lx_mango_ghs.5Cobj.5Cdm..42:
                        2357 	.type	_KeyCnt.dm_Get_DestPage_Process.D.3A.5CRenesas_Electronics.5CD1x_RGL.5Crgl_ghs_D1Lx_obj_V1.2E2.2E0.5Cvlib.5Capp.5Cgfx_apps.5Csimple_draw_d1l2.5Ctarget.5Cd1lx_mango_ghs.5Cobj.5Cdm..42,@object

                                                                      Page 43
                                                              C:\Users\YINGAO~1\AppData\Local\Temp\gh_000004s1.si
                        2358 	.size	_KeyCnt.dm_Get_DestPage_Process.D.3A.5CRenesas_Electronics.5CD1x_RGL.5Crgl_ghs_D1Lx_obj_V1.2E2.2E0.5Cvlib.5Capp.5Cgfx_apps.5Csimple_draw_d1l2.5Ctarget.5Cd1lx_mango_ghs.5Cobj.5Cdm..42,1
00000011 00             2359 	.byte	0
                        2360 	.type	.L1617,@object
                        2361 	.size	.L1617,1
                        2362 	.text
                        2363 
                        2364 
                        2365 --686: /**************************************************
                        2366 --687: *Function :dm_KeyRespond_OK
                        2367 --688: *Description: KEY-OK RESPONSE
                        2368 --689: *Parameters:none
                        2369 --690: *Returns: none
                        2370 --691: **create&Verlog:
                        2371 --692: *Author Name xs  Date:2017-09-22   Ver:02
                        2372 --693: ***************************************************/
                        2373 --694: static void dm_KeyRespond_OK(void)
                        2374 	.align	2
                        2375 	.align	2
                        2376 	.global	_dm_KeyRespond_OK..D.3A.5CRenesas_Electronics.5CD1x_RGL.5Crgl_ghs_D1Lx_obj_V1.2E2.2E0.5Cvlib.5Capp.5Cgfx_apps.5Csimple_draw_d1l2.5Ctarget.5Cd1lx_mango_ghs.5Cobj.5Cdm.
                        2377 _dm_KeyRespond_OK..D.3A.5CRenesas_Electronics.5CD1x_RGL.5Crgl_ghs_D1Lx_obj_V1.2E2.2E0.5Cvlib.5Capp.5Cgfx_apps.5Csimple_draw_d1l2.5Ctarget.5Cd1lx_mango_ghs.5Cobj.5Cdm.:
                        2378 _dm_KeyRespond_OK:
000007dc 8607e170       2379 	prepare	{r25,r26,r27,r28,r29,r31},3
000007e0 3d0600000000*  2380 	mov	_illu_Level,r29
000007e6 3dce0c00       2381 	movea	12,r29,r25
000007ea 3de63000       2382 	movea	48,r29,r28
000007ee 3a0600000000*  2383 	mov	_DestPage_Matrix,r26
                        2384 --	    .bf
                        2385 .LDW43:
                        2386 --695: {
                        2387 --696: 	U8 Value =0 ;
000007f4 00da           2388 	mov	0,r27
                        2389 --698: 	switch(CurPage_Point)
000007f6 3d0f0900       2390 	ld.w	8[r29],r1
000007fa 6c0a           2391 	cmp	12,r1
000007fc eb078701*      2392 	bh	.L1714
00000800 c20a           2393 	shl	2,r1
00000802 e10600000000*  2394 	jmp	.L1837[r1]
                        2395 .L1837:
00000808 80073400*      2396 	jr	.L1688
0000080c 80073000*      2397 	jr	.L1688
00000810 80072c00*      2398 	jr	.L1688
00000814 80072800*      2399 	jr	.L1688
00000818 8007c600*      2400 	jr	.L1697
0000081c 8007c400*      2401 	jr	.L1698
00000820 80071c00*      2402 	jr	.L1688
00000824 8007be00*      2403 	jr	.L1699
00000828 80071800*      2404 	jr	.L1689
0000082c 80074a00*      2405 	jr	.L1690
00000830 80077200*      2406 	jr	.L1691
00000834 8007a800*      2407 	jr	.L1696
00000838 8007a400*      2408 	jr	.L1696
                        2409 .L1688:
                        2410 --line705
                        2411 ..lin.D.3A.5CRenesas_Electronics.5CD1x_RGL.5Crgl_ghs_D1Lx_obj_V1.2E2.2E0.5Cvlib.5Capp.5Cgfx_apps.5Csimple_draw_d1l2.5Ctarget.5Cd1lx_mango_ghs.5Cobj.5Cdm.116::
                        2412 .LDWlin116:
0000083c 80074801*      2413 	br	.L1686
                        2414 .L1689:
                        2415 --699: 	{
                        2416 --700: 		case INDEX_TC_SPEED:
                        2417 --701: 		case INDEX_TC_INSFUELCOMPN:
                        2418 --702: 		case INDEX_TC_RANG:

                                                                      Page 44
                                                              C:\Users\YINGAO~1\AppData\Local\Temp\gh_000004s1.si
                        2419 --703: 		case INDEX_TC_BAT:
                        2420 --704: 		case INDEX_TC_TIREPRESS:
                        2421 --705: 			break;
                        2422 --706: 		case INDEX_SET_ILLU:
                        2423 --707:             DestPage_Point = INDEX_SET_SETTING;  
                        2424 --line707
                        2425 ..lin.D.3A.5CRenesas_Electronics.5CD1x_RGL.5Crgl_ghs_D1Lx_obj_V1.2E2.2E0.5Cvlib.5Capp.5Cgfx_apps.5Csimple_draw_d1l2.5Ctarget.5Cd1lx_mango_ghs.5Cobj.5Cdm.117::
                        2426 .LDWlin117:
00000840 070a           2427 	mov	7,r1
00000842 7d0f0d00       2428 	st.w	r1,12[r29]
                        2429 --708: 			ILLU_SetILLULevel(CHANNEL_ILLU_TFT,illu_Level);
00000846 270600000000*  2430 	mov	_illu_Level,r7
0000084c 273f0100       2431 	ld.w	0[r7],r7
00000850 0032           2432 	mov	0,r6
                        2433 	jarl	_ILLU_SetILLULevel,lp
                        2433 <EXPANSION BEGIN>
                        2433 jarl22 _ILLU_SetILLULevel , lp 
00000852 80ff0000*      2433 <EXPANSION END>
                        2434 --709: 			
                        2435 --710: 			Dm_Send_Data.CMD.SubPage = SUBFUCTION_SETTING;
                        2436 --line710
                        2437 ..lin.D.3A.5CRenesas_Electronics.5CD1x_RGL.5Crgl_ghs_D1Lx_obj_V1.2E2.2E0.5Cvlib.5Capp.5Cgfx_apps.5Csimple_draw_d1l2.5Ctarget.5Cd1lx_mango_ghs.5Cobj.5Cdm.118::
                        2438 .LDWlin118:
00000856 5c070200       2439 	st.b	zero,2[r28]
                        2440 --711: 			Dm_Send_Data.CMD.MainPage = DestPage_Matrix[CurPage_Point].CMD_OK.MainPage;	
0000085a 3d0f0800       2441 	ld.h	8[r29],r1
0000085e e1f60f00       2442 	mulhi	15,r1,ep
00000862 daf1           2443 	add	r26,ep
00000864 6c08           2444 	sld.bu	12[ep],r1
00000866 5c0f0100       2445 	st.b	r1,1[r28]
                        2446 --712: 			CurPage_Point = DestPage_Point;
0000086a 3d0f0d00       2447 	ld.w	12[r29],r1
0000086e 7d0f0900       2448 	st.w	r1,8[r29]
00000872 80071201*      2449 	br	.L1686
                        2450 .L1690:
                        2451 --713: 			break;
                        2452 --714: 		case INDEX_SET_SPEEDLIMIT:
                        2453 --715: 			DIAG_SetOSThresh(speed_Limit);	            
                        2454 --line715
                        2455 ..lin.D.3A.5CRenesas_Electronics.5CD1x_RGL.5Crgl_ghs_D1Lx_obj_V1.2E2.2E0.5Cvlib.5Capp.5Cgfx_apps.5Csimple_draw_d1l2.5Ctarget.5Cd1lx_mango_ghs.5Cobj.5Cdm.119::
                        2456 .LDWlin119:
00000876 9d370500       2457 	ld.bu	4[r29],r6
                        2458 	jarl	_DIAG_SetOSThresh,lp
                        2458 <EXPANSION BEGIN>
                        2458 jarl22 _DIAG_SetOSThresh , lp 
0000087a 80ff0000*      2458 <EXPANSION END>
                        2459 --716: 			DestPage_Point = INDEX_SET_SETTING;                    
                        2460 --line716
                        2461 ..lin.D.3A.5CRenesas_Electronics.5CD1x_RGL.5Crgl_ghs_D1Lx_obj_V1.2E2.2E0.5Cvlib.5Capp.5Cgfx_apps.5Csimple_draw_d1l2.5Ctarget.5Cd1lx_mango_ghs.5Cobj.5Cdm.120::
                        2462 .LDWlin120:
0000087e 070a           2463 	mov	7,r1
00000880 7d0f0d00       2464 	st.w	r1,12[r29]
                        2465 --717: 			Dm_Send_Data.CMD.SubPage = SUBFUCTION_SETTING;
00000884 5c070200       2466 	st.b	zero,2[r28]
                        2467 --718: 			Dm_Send_Data.CMD.MainPage = DestPage_Matrix[CurPage_Point].CMD_OK.MainPage;	
00000888 3d0f0800       2468 	ld.h	8[r29],r1
0000088c e1f60f00       2469 	mulhi	15,r1,ep
00000890 daf1           2470 	add	r26,ep
00000892 6c08           2471 	sld.bu	12[ep],r1
00000894 5c0f0100       2472 	st.b	r1,1[r28]
                        2473 --719: 			CurPage_Point = DestPage_Point;

                                                                      Page 45
                                                              C:\Users\YINGAO~1\AppData\Local\Temp\gh_000004s1.si
00000898 3d0f0d00       2474 	ld.w	12[r29],r1
0000089c 7d0f0900       2475 	st.w	r1,8[r29]
000008a0 a575*          2476 	br	.L1686
                        2477 .L1691:
                        2478 --720: 			break;
                        2479 --721: 		case INDEX_SET_SCS:
                        2480 --722: 			if((0 == SCS_Sts) && (FALSE == SCS_Get_StabCtrlDsblSwAReq()))
                        2481 --line722
                        2482 ..lin.D.3A.5CRenesas_Electronics.5CD1x_RGL.5Crgl_ghs_D1Lx_obj_V1.2E2.2E0.5Cvlib.5Capp.5Cgfx_apps.5Csimple_draw_d1l2.5Ctarget.5Cd1lx_mango_ghs.5Cobj.5Cdm.121::
                        2483 .LDWlin121:
000008a2 bd0f2300       2484 	ld.bu	35[r29],r1
000008a6 e009           2485 	cmp	zero,r1
000008a8 8a0d*          2486 	bne	.L1695
                        2487 	jarl	_SCS_Get_StabCtrlDsblSwAReq,lp
                        2487 <EXPANSION BEGIN>
                        2487 jarl22 _SCS_Get_StabCtrlDsblSwAReq , lp 
000008aa 80ff0000*      2487 <EXPANSION END>
000008ae e051           2488 	cmp	zero,r10
000008b0 ca05*          2489 	bne	.L1695
                        2490 --723: 		    {
                        2491 --724: 		        scs_cmd = TRUE;
                        2492 --line724
                        2493 ..lin.D.3A.5CRenesas_Electronics.5CD1x_RGL.5Crgl_ghs_D1Lx_obj_V1.2E2.2E0.5Cvlib.5Capp.5Cgfx_apps.5Csimple_draw_d1l2.5Ctarget.5Cd1lx_mango_ghs.5Cobj.5Cdm.122::
                        2494 .LDWlin122:
000008b2 010a           2495 	mov	1,r1
000008b4 5d0f2400       2496 	st.b	r1,36[r29]
                        2497 .L1695:
                        2498 --725: 		    }
                        2499 --726: 			else
                        2500 --727: 			{
                        2501 --728: 			}
                        2502 --729:             
                        2503 --730:             DestPage_Point = INDEX_SET_SETTING;                    
000008b8 070a           2504 	mov	7,r1
000008ba 7d0f0d00       2505 	st.w	r1,12[r29]
                        2506 --731: 			Dm_Send_Data.CMD.SubPage = SUBFUCTION_SETTING;
000008be 5c070200       2507 	st.b	zero,2[r28]
                        2508 --732: 			Dm_Send_Data.CMD.MainPage = DestPage_Matrix[CurPage_Point].CMD_OK.MainPage;	
000008c2 3d0f0800       2509 	ld.h	8[r29],r1
000008c6 e1f60f00       2510 	mulhi	15,r1,ep
000008ca daf1           2511 	add	r26,ep
000008cc 6c08           2512 	sld.bu	12[ep],r1
000008ce 5c0f0100       2513 	st.b	r1,1[r28]
                        2514 --733: 			CurPage_Point = DestPage_Point;
000008d2 3d0f0d00       2515 	ld.w	12[r29],r1
000008d6 7d0f0900       2516 	st.w	r1,8[r29]
000008da d555*          2517 	br	.L1686
                        2518 .L1696:
                        2519 --line737
                        2520 ..lin.D.3A.5CRenesas_Electronics.5CD1x_RGL.5Crgl_ghs_D1Lx_obj_V1.2E2.2E0.5Cvlib.5Capp.5Cgfx_apps.5Csimple_draw_d1l2.5Ctarget.5Cd1lx_mango_ghs.5Cobj.5Cdm.123::
                        2521 .LDWlin123:
000008dc c555*          2522 	br	.L1686
                        2523 .L1697:
                        2524 --line739
                        2525 ..lin.D.3A.5CRenesas_Electronics.5CD1x_RGL.5Crgl_ghs_D1Lx_obj_V1.2E2.2E0.5Cvlib.5Capp.5Cgfx_apps.5Csimple_draw_d1l2.5Ctarget.5Cd1lx_mango_ghs.5Cobj.5Cdm.124::
                        2526 .LDWlin124:
000008de b555*          2527 	br	.L1686
                        2528 .L1698:
                        2529 --line741
                        2530 ..lin.D.3A.5CRenesas_Electronics.5CD1x_RGL.5Crgl_ghs_D1Lx_obj_V1.2E2.2E0.5Cvlib.5Capp.5Cgfx_apps.5Csimple_draw_d1l2.5Ctarget.5Cd1lx_mango_ghs.5Cobj.5Cdm.125::
                        2531 .LDWlin125:

                                                                      Page 46
                                                              C:\Users\YINGAO~1\AppData\Local\Temp\gh_000004s1.si
000008e0 a555*          2532 	br	.L1686
                        2533 .L1699:
                        2534 --734: 			break;
                        2535 --735: 		case INDEX_ENT_MEDIA_MUSIC:
                        2536 --736: 		case INDEX_FAULT_FAULTLIST:
                        2537 --737: 			break;
                        2538 --738: 		case INDEX_TC_AUTOSTART:
                        2539 --739: 			break;
                        2540 --740: 		case INDEX_TC_AUTORST:
                        2541 --741: 			break;
                        2542 --742: 		case INDEX_SET_SETTING:
                        2543 --743: 			if(dm_stSet.maxCnt >0)
                        2544 --line743
                        2545 ..lin.D.3A.5CRenesas_Electronics.5CD1x_RGL.5Crgl_ghs_D1Lx_obj_V1.2E2.2E0.5Cvlib.5Capp.5Cgfx_apps.5Csimple_draw_d1l2.5Ctarget.5Cd1lx_mango_ghs.5Cobj.5Cdm.126::
                        2546 .LDWlin126:
000008e2 bd0f2f00       2547 	ld.bu	47[r29],r1
000008e6 e009           2548 	cmp	zero,r1
000008e8 8245*          2549 	be	.L1700
                        2550 --744: 			{
                        2551 --745: 				switch(dm_stSet.Item[SetSel])
                        2552 --line745
                        2553 ..lin.D.3A.5CRenesas_Electronics.5CD1x_RGL.5Crgl_ghs_D1Lx_obj_V1.2E2.2E0.5Cvlib.5Capp.5Cgfx_apps.5Csimple_draw_d1l2.5Ctarget.5Cd1lx_mango_ghs.5Cobj.5Cdm.127::
                        2554 .LDWlin127:
000008ea 9df72300       2555 	ld.bu	34[r29],ep
000008ee 3d0e2c00       2556 	movea	44,r29,r1
000008f2 c1f1           2557 	add	r1,ep
000008f4 6008           2558 	sld.bu	0[ep],r1
000008f6 610a           2559 	cmp	1,r1
000008f8 e105*          2560 	bl	.L1704
000008fa e205*          2561 	be	.L1705
000008fc 630a           2562 	cmp	3,r1
000008fe 8115*          2563 	bl	.L1706
00000900 cb35*          2564 	bh	.L1700
00000902 a525*          2565 	br	.L1710
                        2566 .L1704:
                        2567 --line749
                        2568 ..lin.D.3A.5CRenesas_Electronics.5CD1x_RGL.5Crgl_ghs_D1Lx_obj_V1.2E2.2E0.5Cvlib.5Capp.5Cgfx_apps.5Csimple_draw_d1l2.5Ctarget.5Cd1lx_mango_ghs.5Cobj.5Cdm.128::
                        2569 .LDWlin128:
00000904 a535*          2570 	br	.L1700
                        2571 .L1705:
                        2572 --746: 				{
                        2573 --747: 					case ITEM_SETMAIN_NULL:
                        2574 --748: 						
                        2575 --749: 						break;
                        2576 --750: 					case ITEM_SETMAIN_ILLU:	
                        2577 --751: 						DestPage_Point = INDEX_SET_ILLU;
                        2578 --line751
                        2579 ..lin.D.3A.5CRenesas_Electronics.5CD1x_RGL.5Crgl_ghs_D1Lx_obj_V1.2E2.2E0.5Cvlib.5Capp.5Cgfx_apps.5Csimple_draw_d1l2.5Ctarget.5Cd1lx_mango_ghs.5Cobj.5Cdm.129::
                        2580 .LDWlin129:
00000906 080a           2581 	mov	8,r1
00000908 7d0f0d00       2582 	st.w	r1,12[r29]
                        2583 --752: 						
                        2584 --753: 						ILLU_GetILLULevel(&illu_Level);
0000090c 260600000000*  2585 	mov	_illu_Level,r6
                        2586 	jarl	_ILLU_GetILLULevel,lp
                        2586 <EXPANSION BEGIN>
                        2586 jarl22 _ILLU_GetILLULevel , lp 
00000912 80ff0000*      2586 <EXPANSION END>
                        2587 --754: 						Dm_Send_Data.CMD.SubPage = SUBFUCTION_SET_ILLU;
                        2588 --line754
                        2589 ..lin.D.3A.5CRenesas_Electronics.5CD1x_RGL.5Crgl_ghs_D1Lx_obj_V1.2E2.2E0.5Cvlib.5Capp.5Cgfx_apps.5Csimple_draw_d1l2.5Ctarget.5Cd1lx_mango_ghs.5Cobj.5Cdm.130::

                                                                      Page 47
                                                              C:\Users\YINGAO~1\AppData\Local\Temp\gh_000004s1.si
                        2590 .LDWlin130:
00000916 010a           2591 	mov	1,r1
00000918 5c0f0200       2592 	st.b	r1,2[r28]
0000091c e525*          2593 	br	.L1700
                        2594 .L1706:
                        2595 --755: 						break;
                        2596 --756: 					case ITEM_SETMAIN_LIMIT:							
                        2597 --757: 						DestPage_Point = INDEX_SET_SPEEDLIMIT;
                        2598 --line757
                        2599 ..lin.D.3A.5CRenesas_Electronics.5CD1x_RGL.5Crgl_ghs_D1Lx_obj_V1.2E2.2E0.5Cvlib.5Capp.5Cgfx_apps.5Csimple_draw_d1l2.5Ctarget.5Cd1lx_mango_ghs.5Cobj.5Cdm.131::
                        2600 .LDWlin131:
0000091e 090a           2601 	mov	9,r1
00000920 7d0f0d00       2602 	st.w	r1,12[r29]
                        2603 --758: 						
                        2604 --759: 						Value = DIAG_GetOSThresh();
                        2605 	jarl	_DIAG_GetOSThresh,lp
                        2605 <EXPANSION BEGIN>
                        2605 jarl22 _DIAG_GetOSThresh , lp 
00000924 80ff0000*      2605 <EXPANSION END>
00000928 0ad8           2606 	mov	r10,r27
                        2607 --760: 						if(Value < 30) 
                        2608 --line760
                        2609 ..lin.D.3A.5CRenesas_Electronics.5CD1x_RGL.5Crgl_ghs_D1Lx_obj_V1.2E2.2E0.5Cvlib.5Capp.5Cgfx_apps.5Csimple_draw_d1l2.5Ctarget.5Cd1lx_mango_ghs.5Cobj.5Cdm.132::
                        2610 .LDWlin132:
0000092a 1b06e2ff       2611 	addi	-30,r27,zero
0000092e a105*          2612 	bl	.L1709
                        2613 --761: 						{
                        2614 --762: 							Value = 0;
                        2615 --line762
                        2616 ..lin.D.3A.5CRenesas_Electronics.5CD1x_RGL.5Crgl_ghs_D1Lx_obj_V1.2E2.2E0.5Cvlib.5Capp.5Cgfx_apps.5Csimple_draw_d1l2.5Ctarget.5Cd1lx_mango_ghs.5Cobj.5Cdm.133::
                        2617 .LDWlin133:
00000930 00da           2618 	mov	0,r27
                        2619 .L1709:
                        2620 --763: 						}
                        2621 --764: 						else
                        2622 --765: 						{
                        2623 --766: 						}
                        2624 --767: 						speed_Limit = Value/5;
00000932 1b08           2625 	mov	r27,r1
00000934 0572           2626 	mov	5,r14
00000936 ee0ffc02       2627 	divq	r14,r1,zero
0000093a 7d0f0500       2628 	st.w	r1,4[r29]
                        2629 --768: 						
                        2630 --769: 						Dm_Send_Data.CMD.SubPage = SUBFUCTION_SET_SPEEDLIMIT;
0000093e 020a           2631 	mov	2,r1
00000940 5c0f0200       2632 	st.b	r1,2[r28]
00000944 a515*          2633 	br	.L1700
                        2634 .L1710:
                        2635 --770: 						break;
                        2636 --771: 					case ITEM_SETMAIN_SCSOFF:							
                        2637 --772: 						DestPage_Point = INDEX_SET_SCS;
                        2638 --line772
                        2639 ..lin.D.3A.5CRenesas_Electronics.5CD1x_RGL.5Crgl_ghs_D1Lx_obj_V1.2E2.2E0.5Cvlib.5Capp.5Cgfx_apps.5Csimple_draw_d1l2.5Ctarget.5Cd1lx_mango_ghs.5Cobj.5Cdm.134::
                        2640 .LDWlin134:
00000946 0a0a           2641 	mov	10,r1
00000948 7d0f0d00       2642 	st.w	r1,12[r29]
                        2643 --773: 						
                        2644 --774: 						if( TRUE == SCS_Get_StabCtrlDsblSwAReq())
                        2645 	jarl	_SCS_Get_StabCtrlDsblSwAReq,lp
                        2645 <EXPANSION BEGIN>
                        2645 jarl22 _SCS_Get_StabCtrlDsblSwAReq , lp 

                                                                      Page 48
                                                              C:\Users\YINGAO~1\AppData\Local\Temp\gh_000004s1.si
0000094c 80ff0000*      2645 <EXPANSION END>
00000950 6152           2646 	cmp	1,r10
00000952 ca05*          2647 	bne	.L1711
                        2648 --775: 						{
                        2649 --776: 							SCS_Sts = 0;
                        2650 --line776
                        2651 ..lin.D.3A.5CRenesas_Electronics.5CD1x_RGL.5Crgl_ghs_D1Lx_obj_V1.2E2.2E0.5Cvlib.5Capp.5Cgfx_apps.5Csimple_draw_d1l2.5Ctarget.5Cd1lx_mango_ghs.5Cobj.5Cdm.135::
                        2652 .LDWlin135:
00000954 5d072300       2653 	st.b	zero,35[r29]
00000958 c505*          2654 	br	.L1713
                        2655 .L1711:
                        2656 --777: 						}
                        2657 --778: 						else
                        2658 --779: 						{
                        2659 --780: 							SCS_Sts = 1;
                        2660 --line780
                        2661 ..lin.D.3A.5CRenesas_Electronics.5CD1x_RGL.5Crgl_ghs_D1Lx_obj_V1.2E2.2E0.5Cvlib.5Capp.5Cgfx_apps.5Csimple_draw_d1l2.5Ctarget.5Cd1lx_mango_ghs.5Cobj.5Cdm.136::
                        2662 .LDWlin136:
0000095a 010a           2663 	mov	1,r1
0000095c 5d0f2300       2664 	st.b	r1,35[r29]
                        2665 .L1713:
                        2666 --781: 						}
                        2667 --782: 						Dm_Send_Data.CMD.SubPage = SUBFUCTION_SET_SCS;
00000960 030a           2668 	mov	3,r1
00000962 5c0f0200       2669 	st.b	r1,2[r28]
00000966 0000           2670 	nop
                        2671 .L1700:
                        2672 --783: 						break;
                        2673 --784: 				}
                        2674 --785: 			}
                        2675 --786: 			Dm_Send_Data.CMD.MainPage = DestPage_Matrix[CurPage_Point].CMD_OK.MainPage;	
00000968 3d0f0800       2676 	ld.h	8[r29],r1
0000096c e1f60f00       2677 	mulhi	15,r1,ep
00000970 daf1           2678 	add	r26,ep
00000972 6c08           2679 	sld.bu	12[ep],r1
00000974 5c0f0100       2680 	st.b	r1,1[r28]
                        2681 --787: 			CurPage_Point = DestPage_Point;
00000978 3d0f0d00       2682 	ld.w	12[r29],r1
0000097c 7d0f0900       2683 	st.w	r1,8[r29]
00000980 a505*          2684 	br	.L1686
                        2685 .L1714:
                        2686 --line790
                        2687 ..lin.D.3A.5CRenesas_Electronics.5CD1x_RGL.5Crgl_ghs_D1Lx_obj_V1.2E2.2E0.5Cvlib.5Capp.5Cgfx_apps.5Csimple_draw_d1l2.5Ctarget.5Cd1lx_mango_ghs.5Cobj.5Cdm.137::
                        2688 .LDWlin137:
00000982 0000           2689 	nop
                        2690 .L1686:
                        2691 --788: 			break;
                        2692 --789: 		default:
                        2693 --790: 			break;
                        2694 --791: 	}
                        2695 --792: }
00000984 0000           2696 	nop
                        2697 --	    .ef
                        2698 .LDW53:
00000986 4606ff70       2699 	dispose	3,{r25,r26,r27,r28,r29,r31},[lp]
                        2700 	.type	_dm_KeyRespond_OK,@function
                        2701 	.size	_dm_KeyRespond_OK,.-_dm_KeyRespond_OK
                        2702 	.type	_dm_KeyRespond_OK..D.3A.5CRenesas_Electronics.5CD1x_RGL.5Crgl_ghs_D1Lx_obj_V1.2E2.2E0.5Cvlib.5Capp.5Cgfx_apps.5Csimple_draw_d1l2.5Ctarget.5Cd1lx_mango_ghs.5Cobj.5Cdm.,@function
                        2703 	.size	_dm_KeyRespond_OK..D.3A.5CRenesas_Electronics.5CD1x_RGL.5Crgl_ghs_D1Lx_obj_V1.2E2.2E0.5Cvlib.5Capp.5Cgfx_apps.5Csimple_draw_d1l2.5Ctarget.5Cd1lx_mango_ghs.5Cobj.5Cdm.,.-_dm_KeyRespond_OK..D.3A.5CRenesas_Electronics.5CD1x_RGL.5Crgl_ghs_D1Lx_obj_V1.2E2.2E0.5Cvlib.5Capp.5Cgfx_apps.5Csimple_draw_d1l2.5Ctarget.5Cd1lx_mango_ghs.5Cobj.5Cdm.
                        2704 	.align	2
                        2705 .LDW63:

                                                                      Page 49
                                                              C:\Users\YINGAO~1\AppData\Local\Temp\gh_000004s1.si
                        2706 --_Value	r27	local
                        2707 
                        2708 	.data
                        2709 	.ghsnote jtable,2097156,.L1837,.L1837,.L1837,13
                        2710 	.text
                        2711 
                        2712 
                        2713 --794: /**************************************************
                        2714 --795: *Function :dm_KeyTripCmpt_UP
                        2715 --796: *Description: TC Function KEY-UP RESPONSE
                        2716 --797: *Parameters:none
                        2717 --798: *Returns: none
                        2718 --799: **create&Verlog:
                        2719 --800: *Author Name xs  Date:2017-09-22   Ver:02
                        2720 --801: ***************************************************/
                        2721 --802: void dm_KeyTripCmpt_UP(void)
                        2722 	.align	2
                        2723 	.align	2
                        2724 	.global	_dm_KeyTripCmpt_UP
                        2725 _dm_KeyTripCmpt_UP:
0000098a 8007e100       2726 	prepare	{r28,r29,r31},0
0000098e 3d0600000000*  2727 	mov	_TCSel,r29
00000994 1de0           2728 	mov	r29,r28
                        2729 --	    .bf
                        2730 .LDW73:
                        2731 --803: {
                        2732 --804:     if(SUBFUCTION_TC_SPEED == TCSel)
00000996 3d0f0100       2733 	ld.w	0[r29],r1
0000099a e009           2734 	cmp	zero,r1
0000099c da05*          2735 	bne	.L2011
                        2736 --805: 	{
                        2737 --806: 		TCSel = SUBFUCTION_TC_TIREPRESS;
                        2738 --line806
                        2739 ..lin.D.3A.5CRenesas_Electronics.5CD1x_RGL.5Crgl_ghs_D1Lx_obj_V1.2E2.2E0.5Cvlib.5Capp.5Cgfx_apps.5Csimple_draw_d1l2.5Ctarget.5Cd1lx_mango_ghs.5Cobj.5Cdm.138::
                        2740 .LDWlin138:
0000099e 060a           2741 	mov	6,r1
000009a0 7d0f0100       2742 	st.w	r1,0[r29]
000009a4 c535*          2743 	br	.L2013
                        2744 .L2011:
                        2745 --807: 	}
                        2746 --808: 	else
                        2747 --809: 	{
                        2748 --810: 		switch(TCSel)
                        2749 --line810
                        2750 ..lin.D.3A.5CRenesas_Electronics.5CD1x_RGL.5Crgl_ghs_D1Lx_obj_V1.2E2.2E0.5Cvlib.5Capp.5Cgfx_apps.5Csimple_draw_d1l2.5Ctarget.5Cd1lx_mango_ghs.5Cobj.5Cdm.139::
                        2751 .LDWlin139:
000009a6 3d0f0100       2752 	ld.w	0[r29],r1
000009aa 650a           2753 	cmp	5,r1
000009ac b21d*          2754 	be	.L2023
000009ae 660a           2755 	cmp	6,r1
000009b0 8a2d*          2756 	bne	.L2027
                        2757 --811: 			{
                        2758 --812: 			case SUBFUCTION_TC_TIREPRESS:														
                        2759 --813: 				TCSel--;
                        2760 --line813
                        2761 ..lin.D.3A.5CRenesas_Electronics.5CD1x_RGL.5Crgl_ghs_D1Lx_obj_V1.2E2.2E0.5Cvlib.5Capp.5Cgfx_apps.5Csimple_draw_d1l2.5Ctarget.5Cd1lx_mango_ghs.5Cobj.5Cdm.140::
                        2762 .LDWlin140:
000009b2 3d0f0100       2763 	ld.w	0[r29],r1
000009b6 5f0a           2764 	add	-1,r1
000009b8 7d0f0100       2765 	st.w	r1,0[r29]
                        2766 --814: 				if(FALSE == DIAG_GetTrip2UserEn())

                                                                      Page 50
                                                              C:\Users\YINGAO~1\AppData\Local\Temp\gh_000004s1.si
                        2767 	jarl	_DIAG_GetTrip2UserEn,lp
                        2767 <EXPANSION BEGIN>
                        2767 jarl22 _DIAG_GetTrip2UserEn , lp 
000009bc 80ff0000*      2767 <EXPANSION END>
000009c0 e051           2768 	cmp	zero,r10
000009c2 fa0d*          2769 	bne	.L2022
                        2770 --815: 				{										
                        2771 --816: 			        TCSel--;	
                        2772 --line816
                        2773 ..lin.D.3A.5CRenesas_Electronics.5CD1x_RGL.5Crgl_ghs_D1Lx_obj_V1.2E2.2E0.5Cvlib.5Capp.5Cgfx_apps.5Csimple_draw_d1l2.5Ctarget.5Cd1lx_mango_ghs.5Cobj.5Cdm.141::
                        2774 .LDWlin141:
000009c4 3d0f0100       2775 	ld.w	0[r29],r1
000009c8 5f0a           2776 	add	-1,r1
000009ca 7d0f0100       2777 	st.w	r1,0[r29]
                        2778 --817: 					if(FALSE == DIAG_GetTrip1UserEn())
                        2779 	jarl	_DIAG_GetTrip1UserEn,lp
                        2779 <EXPANSION BEGIN>
                        2779 jarl22 _DIAG_GetTrip1UserEn , lp 
000009ce 80ff0000*      2779 <EXPANSION END>
000009d2 e051           2780 	cmp	zero,r10
000009d4 ea05*          2781 	bne	.L2022
                        2782 --818: 					{
                        2783 --819: 					  TCSel--;	
                        2784 --line819
                        2785 ..lin.D.3A.5CRenesas_Electronics.5CD1x_RGL.5Crgl_ghs_D1Lx_obj_V1.2E2.2E0.5Cvlib.5Capp.5Cgfx_apps.5Csimple_draw_d1l2.5Ctarget.5Cd1lx_mango_ghs.5Cobj.5Cdm.142::
                        2786 .LDWlin142:
000009d6 3d0f0100       2787 	ld.w	0[r29],r1
000009da 5f0a           2788 	add	-1,r1
000009dc 7d0f0100       2789 	st.w	r1,0[r29]
                        2790 .L2022:
                        2791 --820: 					}
                        2792 --821: 					else
                        2793 --822: 					{
                        2794 --823: 					}
                        2795 --824: 				}
                        2796 --825: 				else
                        2797 --826: 				{
000009e0 e515*          2798 	br	.L2013
                        2799 .L2023:
                        2800 --827: 				}
                        2801 --828: 			break;
                        2802 --829: 			case SUBFUCTION_TC_AUTORST:
                        2803 --830: 				TCSel--;					
                        2804 --line830
                        2805 ..lin.D.3A.5CRenesas_Electronics.5CD1x_RGL.5Crgl_ghs_D1Lx_obj_V1.2E2.2E0.5Cvlib.5Capp.5Cgfx_apps.5Csimple_draw_d1l2.5Ctarget.5Cd1lx_mango_ghs.5Cobj.5Cdm.143::
                        2806 .LDWlin143:
000009e2 3d0f0100       2807 	ld.w	0[r29],r1
000009e6 5f0a           2808 	add	-1,r1
000009e8 7d0f0100       2809 	st.w	r1,0[r29]
                        2810 --831: 				if(FALSE == DIAG_GetTrip1UserEn())
                        2811 	jarl	_DIAG_GetTrip1UserEn,lp
                        2811 <EXPANSION BEGIN>
                        2811 jarl22 _DIAG_GetTrip1UserEn , lp 
000009ec 80ff0000*      2811 <EXPANSION END>
000009f0 e051           2812 	cmp	zero,r10
000009f2 ea05*          2813 	bne	.L2026
                        2814 --832: 				{
                        2815 --833: 				  TCSel--;				  				
                        2816 --line833
                        2817 ..lin.D.3A.5CRenesas_Electronics.5CD1x_RGL.5Crgl_ghs_D1Lx_obj_V1.2E2.2E0.5Cvlib.5Capp.5Cgfx_apps.5Csimple_draw_d1l2.5Ctarget.5Cd1lx_mango_ghs.5Cobj.5Cdm.144::
                        2818 .LDWlin144:

                                                                      Page 51
                                                              C:\Users\YINGAO~1\AppData\Local\Temp\gh_000004s1.si
000009f4 3d0f0100       2819 	ld.w	0[r29],r1
000009f8 5f0a           2820 	add	-1,r1
000009fa 7d0f0100       2821 	st.w	r1,0[r29]
                        2822 .L2026:
                        2823 --834: 				}
                        2824 --835: 				else
                        2825 --836: 				{
000009fe f505*          2826 	br	.L2013
                        2827 .L2027:
                        2828 --837: 				}
                        2829 --838: 			break;
                        2830 --839: 			default:				
                        2831 --840: 				TCSel--;							  				
                        2832 --line840
                        2833 ..lin.D.3A.5CRenesas_Electronics.5CD1x_RGL.5Crgl_ghs_D1Lx_obj_V1.2E2.2E0.5Cvlib.5Capp.5Cgfx_apps.5Csimple_draw_d1l2.5Ctarget.5Cd1lx_mango_ghs.5Cobj.5Cdm.145::
                        2834 .LDWlin145:
00000a00 3d0f0100       2835 	ld.w	0[r29],r1
00000a04 5f0a           2836 	add	-1,r1
00000a06 7d0f0100       2837 	st.w	r1,0[r29]
00000a0a 0000           2838 	nop
                        2839 .L2013:
                        2840 --841: 				break;
                        2841 --842: 			}
                        2842 --843: 		
                        2843 --844: 	}	
                        2844 --845: }
00000a0c 0000           2845 	nop
                        2846 --	    .ef
                        2847 .LDW83:
00000a0e 4006ff00       2848 	dispose	0,{r28,r29,r31},[lp]
                        2849 	.type	_dm_KeyTripCmpt_UP,@function
                        2850 	.size	_dm_KeyTripCmpt_UP,.-_dm_KeyTripCmpt_UP
                        2851 	.align	2
                        2852 .LDW93:
                        2853 
                        2854 	.data
                        2855 	.text
                        2856 
                        2857 
                        2858 --847: /**************************************************
                        2859 --848: *Function :dm_KeyRespond_UP
                        2860 --849: *Description: KEY-UP RESPONSE
                        2861 --850: *Parameters:none
                        2862 --851: *Returns: none
                        2863 --852: **create&Verlog:
                        2864 --853: *Author Name xs  Date:2017-09-22   Ver:02
                        2865 --854: ***************************************************/
                        2866 --855: static void dm_KeyRespond_UP(void)
                        2867 	.align	2
                        2868 	.align	2
                        2869 	.global	_dm_KeyRespond_UP..D.3A.5CRenesas_Electronics.5CD1x_RGL.5Crgl_ghs_D1Lx_obj_V1.2E2.2E0.5Cvlib.5Capp.5Cgfx_apps.5Csimple_draw_d1l2.5Ctarget.5Cd1lx_mango_ghs.5Cobj.5Cdm.
                        2870 _dm_KeyRespond_UP..D.3A.5CRenesas_Electronics.5CD1x_RGL.5Crgl_ghs_D1Lx_obj_V1.2E2.2E0.5Cvlib.5Capp.5Cgfx_apps.5Csimple_draw_d1l2.5Ctarget.5Cd1lx_mango_ghs.5Cobj.5Cdm.:
                        2871 _dm_KeyRespond_UP:
00000a12 8407e170       2872 	prepare	{r25,r26,r27,r28,r29,r31},2
00000a16 3d0600000000*  2873 	mov	_TCSel,r29
00000a1c 3dce0c00       2874 	movea	12,r29,r25
00000a20 3dde3400       2875 	movea	52,r29,r27
00000a24 3c0600000000*  2876 	mov	_DestPage_Matrix,r28
00000a2a 3a0600000000*  2877 	mov	_CurFaultList,r26
                        2878 --	    .bf
                        2879 .LDW04:

                                                                      Page 52
                                                              C:\Users\YINGAO~1\AppData\Local\Temp\gh_000004s1.si
                        2880 --856: {	
                        2881 --857: 	switch(CurPage_Point)
00000a30 3d0f0d00       2882 	ld.w	12[r29],r1
00000a34 660a           2883 	cmp	6,r1
00000a36 c305*          2884 	bnh	.L2137
00000a38 6b0a           2885 	cmp	11,r1
00000a3a da15*          2886 	bne	.L2139
00000a3c b515*          2887 	br	.L2138
                        2888 .L2137:
                        2889 --858: 	{
                        2890 --859: 		case INDEX_TC_SPEED:
                        2891 --860: 		case INDEX_TC_INSFUELCOMPN:
                        2892 --861: 		case INDEX_TC_RANG:
                        2893 --862: 		case INDEX_TC_BAT:
                        2894 --863: 		case INDEX_TC_AUTOSTART:
                        2895 --864: 		case INDEX_TC_AUTORST:
                        2896 --865: 		case INDEX_TC_TIREPRESS:	
                        2897 --866:             dm_KeyTripCmpt_UP();            
                        2898 --line866
                        2899 ..lin.D.3A.5CRenesas_Electronics.5CD1x_RGL.5Crgl_ghs_D1Lx_obj_V1.2E2.2E0.5Cvlib.5Capp.5Cgfx_apps.5Csimple_draw_d1l2.5Ctarget.5Cd1lx_mango_ghs.5Cobj.5Cdm.146::
                        2900 .LDWlin146:
                        2901 	jarl	_dm_KeyTripCmpt_UP,lp
                        2901 <EXPANSION BEGIN>
                        2901 jarl22 _dm_KeyTripCmpt_UP , lp 
00000a3e bfff4cff*      2901 <EXPANSION END>
                        2902 --867: 			DestPage_Point = DestPage_Matrix[CurPage_Point].CMD_UP.DestPage_Point;
                        2903 --line867
                        2904 ..lin.D.3A.5CRenesas_Electronics.5CD1x_RGL.5Crgl_ghs_D1Lx_obj_V1.2E2.2E0.5Cvlib.5Capp.5Cgfx_apps.5Csimple_draw_d1l2.5Ctarget.5Cd1lx_mango_ghs.5Cobj.5Cdm.147::
                        2905 .LDWlin147:
00000a42 3d0f0c00       2906 	ld.h	12[r29],r1
00000a46 e1f60f00       2907 	mulhi	15,r1,ep
00000a4a dcf1           2908 	add	r28,ep
00000a4c 6808           2909 	sld.bu	8[ep],r1
00000a4e 7d0f1100       2910 	st.w	r1,16[r29]
                        2911 --868: 			Dm_Send_Data.CMD.SubPage = TCSel;
00000a52 210600000000*  2912 	mov	_TCSel,r1
00000a58 210f0100       2913 	ld.w	0[r1],r1
00000a5c 5b0f0200       2914 	st.b	r1,2[r27]
00000a60 b515*          2915 	br	.L2135
                        2916 .L2138:
                        2917 --line871
                        2918 ..lin.D.3A.5CRenesas_Electronics.5CD1x_RGL.5Crgl_ghs_D1Lx_obj_V1.2E2.2E0.5Cvlib.5Capp.5Cgfx_apps.5Csimple_draw_d1l2.5Ctarget.5Cd1lx_mango_ghs.5Cobj.5Cdm.148::
                        2919 .LDWlin148:
00000a62 a515*          2920 	br	.L2135
                        2921 .L2139:
                        2922 --869: 		break;
                        2923 --870: 		case INDEX_ENT_MEDIA_MUSIC:
                        2924 --871:                 break;
                        2925 --872: 		case INDEX_SET_SETTING:
                        2926 --873: 		case INDEX_SET_ILLU:
                        2927 --874: 		case INDEX_SET_SPEEDLIMIT:
                        2928 --875: 		case INDEX_SET_SCS:
                        2929 --876: 		case INDEX_FAULT_FAULTLIST:
                        2930 --877: 			
                        2931 --878: 		default:
                        2932 --879: 			DestPage_Point = DestPage_Matrix[CurPage_Point].CMD_UP.DestPage_Point;
                        2933 --line879
                        2934 ..lin.D.3A.5CRenesas_Electronics.5CD1x_RGL.5Crgl_ghs_D1Lx_obj_V1.2E2.2E0.5Cvlib.5Capp.5Cgfx_apps.5Csimple_draw_d1l2.5Ctarget.5Cd1lx_mango_ghs.5Cobj.5Cdm.149::
                        2935 .LDWlin149:
00000a64 3d0f0c00       2936 	ld.h	12[r29],r1
00000a68 e1f60f00       2937 	mulhi	15,r1,ep

                                                                      Page 53
                                                              C:\Users\YINGAO~1\AppData\Local\Temp\gh_000004s1.si
00000a6c dcf1           2938 	add	r28,ep
00000a6e 6808           2939 	sld.bu	8[ep],r1
00000a70 7d0f1100       2940 	st.w	r1,16[r29]
                        2941 --880: 			Dm_Send_Data.CMD.SubPage = DestPage_Matrix[CurPage_Point].CMD_UP.SubPage;
00000a74 3d0f0c00       2942 	ld.h	12[r29],r1
00000a78 e1f60f00       2943 	mulhi	15,r1,ep
00000a7c dcf1           2944 	add	r28,ep
00000a7e 6708           2945 	sld.bu	7[ep],r1
00000a80 5b0f0200       2946 	st.b	r1,2[r27]
00000a84 0000           2947 	nop
                        2948 .L2135:
                        2949 --881: 			break;
                        2950 --882: 	}
                        2951 --883: 	
                        2952 --884: 	switch(CurPage_Point)
00000a86 3d0f0d00       2953 	ld.w	12[r29],r1
00000a8a 6c0a           2954 	cmp	12,r1
00000a8c fb5d*          2955 	bh	.L2167
00000a8e c20a           2956 	shl	2,r1
00000a90 e10600000000*  2957 	jmp	.L2253[r1]
                        2958 .L2253:
00000a96 80073400*      2959 	jr	.L2142
00000a9a 80073000*      2960 	jr	.L2142
00000a9e 80072c00*      2961 	jr	.L2142
00000aa2 80072800*      2962 	jr	.L2142
00000aa6 80072400*      2963 	jr	.L2142
00000aaa 80072000*      2964 	jr	.L2142
00000aae 80071c00*      2965 	jr	.L2142
00000ab2 80071c00*      2966 	jr	.L2144
00000ab6 80072c00*      2967 	jr	.L2148
00000aba 80073c00*      2968 	jr	.L2152
00000abe 80076400*      2969 	jr	.L2159
00000ac2 80070a00*      2970 	jr	.L2143
00000ac6 80077000*      2971 	jr	.L2163
                        2972 .L2142:
                        2973 --line893
                        2974 ..lin.D.3A.5CRenesas_Electronics.5CD1x_RGL.5Crgl_ghs_D1Lx_obj_V1.2E2.2E0.5Cvlib.5Capp.5Cgfx_apps.5Csimple_draw_d1l2.5Ctarget.5Cd1lx_mango_ghs.5Cobj.5Cdm.150::
                        2975 .LDWlin150:
00000aca 9545*          2976 	br	.L2140
                        2977 .L2143:
                        2978 --line895
                        2979 ..lin.D.3A.5CRenesas_Electronics.5CD1x_RGL.5Crgl_ghs_D1Lx_obj_V1.2E2.2E0.5Cvlib.5Capp.5Cgfx_apps.5Csimple_draw_d1l2.5Ctarget.5Cd1lx_mango_ghs.5Cobj.5Cdm.151::
                        2980 .LDWlin151:
00000acc 8545*          2981 	br	.L2140
                        2982 .L2144:
                        2983 --885: 	{
                        2984 --886: 		case INDEX_TC_SPEED:
                        2985 --887: 		case INDEX_TC_INSFUELCOMPN:
                        2986 --888: 		case INDEX_TC_RANG:
                        2987 --889: 		case INDEX_TC_BAT:
                        2988 --890: 		case INDEX_TC_AUTOSTART:
                        2989 --891: 		case INDEX_TC_AUTORST:
                        2990 --892: 		case INDEX_TC_TIREPRESS:
                        2991 --893: 		break;
                        2992 --894: 		case INDEX_ENT_MEDIA_MUSIC:
                        2993 --895: 			break;
                        2994 --896: 		case INDEX_SET_SETTING:
                        2995 --897: 			if(SetSel > 0)
                        2996 --line897
                        2997 ..lin.D.3A.5CRenesas_Electronics.5CD1x_RGL.5Crgl_ghs_D1Lx_obj_V1.2E2.2E0.5Cvlib.5Capp.5Cgfx_apps.5Csimple_draw_d1l2.5Ctarget.5Cd1lx_mango_ghs.5Cobj.5Cdm.152::
                        2998 .LDWlin152:

                                                                      Page 54
                                                              C:\Users\YINGAO~1\AppData\Local\Temp\gh_000004s1.si
00000ace 9d0f2700       2999 	ld.bu	38[r29],r1
00000ad2 e009           3000 	cmp	zero,r1
00000ad4 e205*          3001 	be	.L2147
                        3002 --898: 			{
                        3003 --899: 				SetSel--;
                        3004 --line899
                        3005 ..lin.D.3A.5CRenesas_Electronics.5CD1x_RGL.5Crgl_ghs_D1Lx_obj_V1.2E2.2E0.5Cvlib.5Capp.5Cgfx_apps.5Csimple_draw_d1l2.5Ctarget.5Cd1lx_mango_ghs.5Cobj.5Cdm.153::
                        3006 .LDWlin153:
00000ad6 3df62600       3007 	movea	38,r29,ep
00000ada 6008           3008 	sld.bu	0[ep],r1
00000adc 5f0a           3009 	add	-1,r1
00000ade 800b           3010 	sst.b	r1,0[ep]
                        3011 .L2147:
                        3012 --900: 			}
                        3013 --901: 			else
                        3014 --902: 			{
00000ae0 e535*          3015 	br	.L2140
                        3016 .L2148:
                        3017 --903: 			}
                        3018 --904: 			break;
                        3019 --905: 		case INDEX_SET_ILLU:
                        3020 --906: 			if(INDEX_ILLU_lEVEL3 > illu_Level)			
                        3021 --line906
                        3022 ..lin.D.3A.5CRenesas_Electronics.5CD1x_RGL.5Crgl_ghs_D1Lx_obj_V1.2E2.2E0.5Cvlib.5Capp.5Cgfx_apps.5Csimple_draw_d1l2.5Ctarget.5Cd1lx_mango_ghs.5Cobj.5Cdm.154::
                        3023 .LDWlin154:
00000ae2 3d0f0500       3024 	ld.w	4[r29],r1
00000ae6 630a           3025 	cmp	3,r1
00000ae8 ee05*          3026 	bge	.L2151
                        3027 --907: 			{
                        3028 --908: 				illu_Level++;
                        3029 --line908
                        3030 ..lin.D.3A.5CRenesas_Electronics.5CD1x_RGL.5Crgl_ghs_D1Lx_obj_V1.2E2.2E0.5Cvlib.5Capp.5Cgfx_apps.5Csimple_draw_d1l2.5Ctarget.5Cd1lx_mango_ghs.5Cobj.5Cdm.155::
                        3031 .LDWlin155:
00000aea 3df60400       3032 	movea	4,r29,ep
00000aee 000d           3033 	sld.w	0[ep],r1
00000af0 410a           3034 	add	1,r1
00000af2 010d           3035 	sst.w	r1,0[ep]
                        3036 .L2151:
                        3037 --909: 			}
                        3038 --910: 			else
                        3039 --911: 			{
00000af4 c52d*          3040 	br	.L2140
                        3041 .L2152:
                        3042 --912: 			}
                        3043 --913: 			break;
                        3044 --914: 		case INDEX_SET_SPEEDLIMIT:
                        3045 --915: 			if(INDEX_SPEEDLIMIT_OFF == speed_Limit)
                        3046 --line915
                        3047 ..lin.D.3A.5CRenesas_Electronics.5CD1x_RGL.5Crgl_ghs_D1Lx_obj_V1.2E2.2E0.5Cvlib.5Capp.5Cgfx_apps.5Csimple_draw_d1l2.5Ctarget.5Cd1lx_mango_ghs.5Cobj.5Cdm.156::
                        3048 .LDWlin156:
00000af6 3d0f0900       3049 	ld.w	8[r29],r1
00000afa e009           3050 	cmp	zero,r1
00000afc ea05*          3051 	bne	.L2153
                        3052 --916: 			{
                        3053 --917: 				speed_Limit = INDEX_SPEEDLIMIT_220;
                        3054 --line917
                        3055 ..lin.D.3A.5CRenesas_Electronics.5CD1x_RGL.5Crgl_ghs_D1Lx_obj_V1.2E2.2E0.5Cvlib.5Capp.5Cgfx_apps.5Csimple_draw_d1l2.5Ctarget.5Cd1lx_mango_ghs.5Cobj.5Cdm.157::
                        3056 .LDWlin157:
00000afe 200e2c00       3057 	movea	44,zero,r1
00000b02 7d0f0900       3058 	st.w	r1,8[r29]
00000b06 d50d*          3059 	br	.L2155

                                                                      Page 55
                                                              C:\Users\YINGAO~1\AppData\Local\Temp\gh_000004s1.si
                        3060 .L2153:
                        3061 --918: 			}
                        3062 --919: 			else if(INDEX_SPEEDLIMIT_30 == speed_Limit)
                        3063 --line919
                        3064 ..lin.D.3A.5CRenesas_Electronics.5CD1x_RGL.5Crgl_ghs_D1Lx_obj_V1.2E2.2E0.5Cvlib.5Capp.5Cgfx_apps.5Csimple_draw_d1l2.5Ctarget.5Cd1lx_mango_ghs.5Cobj.5Cdm.158::
                        3065 .LDWlin158:
00000b08 3d0f0900       3066 	ld.w	8[r29],r1
00000b0c 660a           3067 	cmp	6,r1
00000b0e ca05*          3068 	bne	.L2156
                        3069 --920: 			{
                        3070 --921: 				speed_Limit = INDEX_SPEEDLIMIT_OFF;
                        3071 --line921
                        3072 ..lin.D.3A.5CRenesas_Electronics.5CD1x_RGL.5Crgl_ghs_D1Lx_obj_V1.2E2.2E0.5Cvlib.5Capp.5Cgfx_apps.5Csimple_draw_d1l2.5Ctarget.5Cd1lx_mango_ghs.5Cobj.5Cdm.159::
                        3073 .LDWlin159:
00000b10 7d070900       3074 	st.w	zero,8[r29]
00000b14 e505*          3075 	br	.L2155
                        3076 .L2156:
                        3077 --922: 			}
                        3078 --923: 			else
                        3079 --924: 			{
                        3080 --925: 				speed_Limit--;
                        3081 --line925
                        3082 ..lin.D.3A.5CRenesas_Electronics.5CD1x_RGL.5Crgl_ghs_D1Lx_obj_V1.2E2.2E0.5Cvlib.5Capp.5Cgfx_apps.5Csimple_draw_d1l2.5Ctarget.5Cd1lx_mango_ghs.5Cobj.5Cdm.160::
                        3083 .LDWlin160:
00000b16 3d0f0900       3084 	ld.w	8[r29],r1
00000b1a 5f0a           3085 	add	-1,r1
00000b1c 7d0f0900       3086 	st.w	r1,8[r29]
                        3087 .L2155:
00000b20 e515*          3088 	br	.L2140
                        3089 .L2159:
                        3090 --926: 			}
                        3091 --927: 			break;
                        3092 --928: 		case INDEX_SET_SCS:
                        3093 --929: 			if(1 == SCS_Sts)
                        3094 --line929
                        3095 ..lin.D.3A.5CRenesas_Electronics.5CD1x_RGL.5Crgl_ghs_D1Lx_obj_V1.2E2.2E0.5Cvlib.5Capp.5Cgfx_apps.5Csimple_draw_d1l2.5Ctarget.5Cd1lx_mango_ghs.5Cobj.5Cdm.161::
                        3096 .LDWlin161:
00000b22 bd0f2700       3097 	ld.bu	39[r29],r1
00000b26 610a           3098 	cmp	1,r1
00000b28 ea05*          3099 	bne	.L2162
                        3100 --930: 			{
                        3101 --931: 				SCS_Sts --;
                        3102 --line931
                        3103 ..lin.D.3A.5CRenesas_Electronics.5CD1x_RGL.5Crgl_ghs_D1Lx_obj_V1.2E2.2E0.5Cvlib.5Capp.5Cgfx_apps.5Csimple_draw_d1l2.5Ctarget.5Cd1lx_mango_ghs.5Cobj.5Cdm.162::
                        3104 .LDWlin162:
00000b2a 3df62700       3105 	movea	39,r29,ep
00000b2e 6008           3106 	sld.bu	0[ep],r1
00000b30 5f0a           3107 	add	-1,r1
00000b32 800b           3108 	sst.b	r1,0[ep]
                        3109 .L2162:
                        3110 --932: 			}
                        3111 --933: 			else
                        3112 --934: 			{
00000b34 c50d*          3113 	br	.L2140
                        3114 .L2163:
                        3115 --935: 			}
                        3116 --936: 			break;
                        3117 --937: 		case INDEX_FAULT_FAULTLIST:
                        3118 --938: 			if(CurFaultList >= DM_FLTLIST_ITEM_MAX)
                        3119 --line938
                        3120 ..lin.D.3A.5CRenesas_Electronics.5CD1x_RGL.5Crgl_ghs_D1Lx_obj_V1.2E2.2E0.5Cvlib.5Capp.5Cgfx_apps.5Csimple_draw_d1l2.5Ctarget.5Cd1lx_mango_ghs.5Cobj.5Cdm.163::

                                                                      Page 56
                                                              C:\Users\YINGAO~1\AppData\Local\Temp\gh_000004s1.si
                        3121 .LDWlin163:
00000b36 9a0f0100       3122 	ld.bu	0[r26],r1
00000b3a 640a           3123 	cmp	4,r1
00000b3c e105*          3124 	bl	.L2166
                        3125 --939: 			{
                        3126 --940: 				CurFaultList -=4;
                        3127 --line940
                        3128 ..lin.D.3A.5CRenesas_Electronics.5CD1x_RGL.5Crgl_ghs_D1Lx_obj_V1.2E2.2E0.5Cvlib.5Capp.5Cgfx_apps.5Csimple_draw_d1l2.5Ctarget.5Cd1lx_mango_ghs.5Cobj.5Cdm.164::
                        3129 .LDWlin164:
00000b3e 9a0f0100       3130 	ld.bu	0[r26],r1
00000b42 5c0a           3131 	add	-4,r1
00000b44 5a0f0000       3132 	st.b	r1,0[r26]
                        3133 .L2166:
                        3134 --941: 			}
                        3135 --942: 			else
                        3136 --943: 			{
00000b48 a505*          3137 	br	.L2140
                        3138 .L2167:
                        3139 --line947
                        3140 ..lin.D.3A.5CRenesas_Electronics.5CD1x_RGL.5Crgl_ghs_D1Lx_obj_V1.2E2.2E0.5Cvlib.5Capp.5Cgfx_apps.5Csimple_draw_d1l2.5Ctarget.5Cd1lx_mango_ghs.5Cobj.5Cdm.165::
                        3141 .LDWlin165:
00000b4a 0000           3142 	nop
                        3143 .L2140:
                        3144 --944: 			}
                        3145 --945: 			break;
                        3146 --946: 		default:
                        3147 --947: 			break;
                        3148 --948: 	}
                        3149 --949: 	Dm_Send_Data.CMD.MainPage = DestPage_Matrix[CurPage_Point].CMD_UP.MainPage;
00000b4c 3d0f0c00       3150 	ld.h	12[r29],r1
00000b50 e1f60f00       3151 	mulhi	15,r1,ep
00000b54 dcf1           3152 	add	r28,ep
00000b56 6608           3153 	sld.bu	6[ep],r1
00000b58 5b0f0100       3154 	st.b	r1,1[r27]
                        3155 --950: 	CurPage_Point = DestPage_Point;
00000b5c 3d0f1100       3156 	ld.w	16[r29],r1
00000b60 7d0f0d00       3157 	st.w	r1,12[r29]
                        3158 --951: }
00000b64 0000           3159 	nop
                        3160 --	    .ef
                        3161 .LDW14:
00000b66 4406ff70       3162 	dispose	2,{r25,r26,r27,r28,r29,r31},[lp]
                        3163 	.type	_dm_KeyRespond_UP,@function
                        3164 	.size	_dm_KeyRespond_UP,.-_dm_KeyRespond_UP
                        3165 	.type	_dm_KeyRespond_UP..D.3A.5CRenesas_Electronics.5CD1x_RGL.5Crgl_ghs_D1Lx_obj_V1.2E2.2E0.5Cvlib.5Capp.5Cgfx_apps.5Csimple_draw_d1l2.5Ctarget.5Cd1lx_mango_ghs.5Cobj.5Cdm.,@function
                        3166 	.size	_dm_KeyRespond_UP..D.3A.5CRenesas_Electronics.5CD1x_RGL.5Crgl_ghs_D1Lx_obj_V1.2E2.2E0.5Cvlib.5Capp.5Cgfx_apps.5Csimple_draw_d1l2.5Ctarget.5Cd1lx_mango_ghs.5Cobj.5Cdm.,.-_dm_KeyRespond_UP..D.3A.5CRenesas_Electronics.5CD1x_RGL.5Crgl_ghs_D1Lx_obj_V1.2E2.2E0.5Cvlib.5Capp.5Cgfx_apps.5Csimple_draw_d1l2.5Ctarget.5Cd1lx_mango_ghs.5Cobj.5Cdm.
                        3167 	.align	2
                        3168 .LDW24:
                        3169 
                        3170 	.data
                        3171 	.ghsnote jtable,2097156,.L2253,.L2253,.L2253,13
                        3172 	.text
                        3173 
                        3174 
                        3175 --954: /**************************************************
                        3176 --955: *Function :dm_KeyTripCmpt_DOWN
                        3177 --956: *Description: TC FUNCTION KEY-down RESPONSE
                        3178 --957: *Parameters:none
                        3179 --958: *Returns: none
                        3180 --959: **create&Verlog:
                        3181 --960: *Author Name xs  Date:2017-09-22   Ver:02

                                                                      Page 57
                                                              C:\Users\YINGAO~1\AppData\Local\Temp\gh_000004s1.si
                        3182 --961: ***************************************************/
                        3183 --962: static void dm_KeyTripCmpt_DOWN(void)
                        3184 	.align	2
                        3185 	.align	2
                        3186 	.global	_dm_KeyTripCmpt_DOWN..D.3A.5CRenesas_Electronics.5CD1x_RGL.5Crgl_ghs_D1Lx_obj_V1.2E2.2E0.5Cvlib.5Capp.5Cgfx_apps.5Csimple_draw_d1l2.5Ctarget.5Cd1lx_mango_ghs.5Cobj.5Cdm.
                        3187 _dm_KeyTripCmpt_DOWN..D.3A.5CRenesas_Electronics.5CD1x_RGL.5Crgl_ghs_D1Lx_obj_V1.2E2.2E0.5Cvlib.5Capp.5Cgfx_apps.5Csimple_draw_d1l2.5Ctarget.5Cd1lx_mango_ghs.5Cobj.5Cdm.:
                        3188 _dm_KeyTripCmpt_DOWN:
00000b6a 8007e100       3189 	prepare	{r28,r29,r31},0
00000b6e 3d0600000000*  3190 	mov	_TCSel,r29
00000b74 1de0           3191 	mov	r29,r28
                        3192 --	    .bf
                        3193 .LDW34:
                        3194 --963: {
                        3195 --964:     if(SUBFUCTION_TC_TIREPRESS == TCSel)
00000b76 3d0f0100       3196 	ld.w	0[r29],r1
00000b7a 660a           3197 	cmp	6,r1
00000b7c ca05*          3198 	bne	.L2374
                        3199 --965: 	{
                        3200 --966: 		TCSel = SUBFUCTION_TC_SPEED;
                        3201 --line966
                        3202 ..lin.D.3A.5CRenesas_Electronics.5CD1x_RGL.5Crgl_ghs_D1Lx_obj_V1.2E2.2E0.5Cvlib.5Capp.5Cgfx_apps.5Csimple_draw_d1l2.5Ctarget.5Cd1lx_mango_ghs.5Cobj.5Cdm.166::
                        3203 .LDWlin166:
00000b7e 7d070100       3204 	st.w	zero,0[r29]
00000b82 d535*          3205 	br	.L2376
                        3206 .L2374:
                        3207 --967: 	}
                        3208 --968: 	else
                        3209 --969: 	{
                        3210 --970: 		switch(TCSel)
                        3211 --line970
                        3212 ..lin.D.3A.5CRenesas_Electronics.5CD1x_RGL.5Crgl_ghs_D1Lx_obj_V1.2E2.2E0.5Cvlib.5Capp.5Cgfx_apps.5Csimple_draw_d1l2.5Ctarget.5Cd1lx_mango_ghs.5Cobj.5Cdm.167::
                        3213 .LDWlin167:
00000b84 3d0f0100       3214 	ld.w	0[r29],r1
00000b88 630a           3215 	cmp	3,r1
00000b8a c205*          3216 	be	.L2379
00000b8c 640a           3217 	cmp	4,r1
00000b8e 9a2d*          3218 	bne	.L2390
00000b90 951d*          3219 	br	.L2386
                        3220 .L2379:
                        3221 --971: 			{
                        3222 --972: 			case SUBFUCTION_TC_BAT:														
                        3223 --973: 				TCSel++;
                        3224 --line973
                        3225 ..lin.D.3A.5CRenesas_Electronics.5CD1x_RGL.5Crgl_ghs_D1Lx_obj_V1.2E2.2E0.5Cvlib.5Capp.5Cgfx_apps.5Csimple_draw_d1l2.5Ctarget.5Cd1lx_mango_ghs.5Cobj.5Cdm.168::
                        3226 .LDWlin168:
00000b92 3d0f0100       3227 	ld.w	0[r29],r1
00000b96 410a           3228 	add	1,r1
00000b98 7d0f0100       3229 	st.w	r1,0[r29]
                        3230 --974: 				if(FALSE == DIAG_GetTrip1UserEn())
                        3231 	jarl	_DIAG_GetTrip1UserEn,lp
                        3231 <EXPANSION BEGIN>
                        3231 jarl22 _DIAG_GetTrip1UserEn , lp 
00000b9c 80ff0000*      3231 <EXPANSION END>
00000ba0 e051           3232 	cmp	zero,r10
00000ba2 fa0d*          3233 	bne	.L2385
                        3234 --975: 				{										
                        3235 --976: 			        TCSel++;	
                        3236 --line976
                        3237 ..lin.D.3A.5CRenesas_Electronics.5CD1x_RGL.5Crgl_ghs_D1Lx_obj_V1.2E2.2E0.5Cvlib.5Capp.5Cgfx_apps.5Csimple_draw_d1l2.5Ctarget.5Cd1lx_mango_ghs.5Cobj.5Cdm.169::
                        3238 .LDWlin169:
00000ba4 3d0f0100       3239 	ld.w	0[r29],r1

                                                                      Page 58
                                                              C:\Users\YINGAO~1\AppData\Local\Temp\gh_000004s1.si
00000ba8 410a           3240 	add	1,r1
00000baa 7d0f0100       3241 	st.w	r1,0[r29]
                        3242 --977: 	 				if(FALSE == DIAG_GetTrip2UserEn())
                        3243 	jarl	_DIAG_GetTrip2UserEn,lp
                        3243 <EXPANSION BEGIN>
                        3243 jarl22 _DIAG_GetTrip2UserEn , lp 
00000bae 80ff0000*      3243 <EXPANSION END>
00000bb2 e051           3244 	cmp	zero,r10
00000bb4 ea05*          3245 	bne	.L2385
                        3246 --978: 	 				{
                        3247 --979: 	 					TCSel++;	
                        3248 --line979
                        3249 ..lin.D.3A.5CRenesas_Electronics.5CD1x_RGL.5Crgl_ghs_D1Lx_obj_V1.2E2.2E0.5Cvlib.5Capp.5Cgfx_apps.5Csimple_draw_d1l2.5Ctarget.5Cd1lx_mango_ghs.5Cobj.5Cdm.170::
                        3250 .LDWlin170:
00000bb6 3d0f0100       3251 	ld.w	0[r29],r1
00000bba 410a           3252 	add	1,r1
00000bbc 7d0f0100       3253 	st.w	r1,0[r29]
                        3254 .L2385:
                        3255 --980: 	 				}
                        3256 --981: 					else
                        3257 --982: 					{
                        3258 --983: 					}
                        3259 --984: 				}
                        3260 --985: 				else
                        3261 --986: 				{
00000bc0 e515*          3262 	br	.L2376
                        3263 .L2386:
                        3264 --987: 				}
                        3265 --988: 			break;
                        3266 --989: 			case SUBFUCTION_TC_AUTOSTART:
                        3267 --990: 				TCSel++;	
                        3268 --line990
                        3269 ..lin.D.3A.5CRenesas_Electronics.5CD1x_RGL.5Crgl_ghs_D1Lx_obj_V1.2E2.2E0.5Cvlib.5Capp.5Cgfx_apps.5Csimple_draw_d1l2.5Ctarget.5Cd1lx_mango_ghs.5Cobj.5Cdm.171::
                        3270 .LDWlin171:
00000bc2 3d0f0100       3271 	ld.w	0[r29],r1
00000bc6 410a           3272 	add	1,r1
00000bc8 7d0f0100       3273 	st.w	r1,0[r29]
                        3274 --991: 				if(FALSE == DIAG_GetTrip2UserEn())
                        3275 	jarl	_DIAG_GetTrip2UserEn,lp
                        3275 <EXPANSION BEGIN>
                        3275 jarl22 _DIAG_GetTrip2UserEn , lp 
00000bcc 80ff0000*      3275 <EXPANSION END>
00000bd0 e051           3276 	cmp	zero,r10
00000bd2 ea05*          3277 	bne	.L2389
                        3278 --992: 				{
                        3279 --993: 				  TCSel++;		
                        3280 --line993
                        3281 ..lin.D.3A.5CRenesas_Electronics.5CD1x_RGL.5Crgl_ghs_D1Lx_obj_V1.2E2.2E0.5Cvlib.5Capp.5Cgfx_apps.5Csimple_draw_d1l2.5Ctarget.5Cd1lx_mango_ghs.5Cobj.5Cdm.172::
                        3282 .LDWlin172:
00000bd4 3d0f0100       3283 	ld.w	0[r29],r1
00000bd8 410a           3284 	add	1,r1
00000bda 7d0f0100       3285 	st.w	r1,0[r29]
                        3286 .L2389:
                        3287 --994: 				}
                        3288 --995: 				else
                        3289 --996: 				{
00000bde f505*          3290 	br	.L2376
                        3291 .L2390:
                        3292 --997: 				}
                        3293 --998: 			break;
                        3294 --999: 			default:				

                                                                      Page 59
                                                              C:\Users\YINGAO~1\AppData\Local\Temp\gh_000004s1.si
                        3295 --1000: 				TCSel++;
                        3296 --line1000
                        3297 ..lin.D.3A.5CRenesas_Electronics.5CD1x_RGL.5Crgl_ghs_D1Lx_obj_V1.2E2.2E0.5Cvlib.5Capp.5Cgfx_apps.5Csimple_draw_d1l2.5Ctarget.5Cd1lx_mango_ghs.5Cobj.5Cdm.173::
                        3298 .LDWlin173:
00000be0 3d0f0100       3299 	ld.w	0[r29],r1
00000be4 410a           3300 	add	1,r1
00000be6 7d0f0100       3301 	st.w	r1,0[r29]
00000bea 0000           3302 	nop
                        3303 .L2376:
                        3304 --1001: 				break;
                        3305 --1002: 			}
                        3306 --1003: 	}	
                        3307 --1004: }
00000bec 0000           3308 	nop
                        3309 --	    .ef
                        3310 .LDW44:
00000bee 4006ff00       3311 	dispose	0,{r28,r29,r31},[lp]
                        3312 	.type	_dm_KeyTripCmpt_DOWN,@function
                        3313 	.size	_dm_KeyTripCmpt_DOWN,.-_dm_KeyTripCmpt_DOWN
                        3314 	.type	_dm_KeyTripCmpt_DOWN..D.3A.5CRenesas_Electronics.5CD1x_RGL.5Crgl_ghs_D1Lx_obj_V1.2E2.2E0.5Cvlib.5Capp.5Cgfx_apps.5Csimple_draw_d1l2.5Ctarget.5Cd1lx_mango_ghs.5Cobj.5Cdm.,@function
                        3315 	.size	_dm_KeyTripCmpt_DOWN..D.3A.5CRenesas_Electronics.5CD1x_RGL.5Crgl_ghs_D1Lx_obj_V1.2E2.2E0.5Cvlib.5Capp.5Cgfx_apps.5Csimple_draw_d1l2.5Ctarget.5Cd1lx_mango_ghs.5Cobj.5Cdm.,.-_dm_KeyTripCmpt_DOWN..D.3A.5CRenesas_Electronics.5CD1x_RGL.5Crgl_ghs_D1Lx_obj_V1.2E2.2E0.5Cvlib.5Capp.5Cgfx_apps.5Csimple_draw_d1l2.5Ctarget.5Cd1lx_mango_ghs.5Cobj.5Cdm.
                        3316 	.align	2
                        3317 .LDW54:
                        3318 
                        3319 	.data
                        3320 	.text
                        3321 
                        3322 
                        3323 --1007: /**************************************************
                        3324 --1008: *Function :dm_KeyRespond_DOWN
                        3325 --1009: *Description:  KEY-down RESPONSE
                        3326 --1010: *Parameters:none
                        3327 --1011: *Returns: none
                        3328 --1012: **create&Verlog:
                        3329 --1013: *Author Name xs  Date:2017-09-22   Ver:02
                        3330 --1014: ***************************************************/
                        3331 --1015: static void dm_KeyRespond_DOWN(void)
                        3332 	.align	2
                        3333 	.align	2
                        3334 	.global	_dm_KeyRespond_DOWN..D.3A.5CRenesas_Electronics.5CD1x_RGL.5Crgl_ghs_D1Lx_obj_V1.2E2.2E0.5Cvlib.5Capp.5Cgfx_apps.5Csimple_draw_d1l2.5Ctarget.5Cd1lx_mango_ghs.5Cobj.5Cdm.
                        3335 _dm_KeyRespond_DOWN..D.3A.5CRenesas_Electronics.5CD1x_RGL.5Crgl_ghs_D1Lx_obj_V1.2E2.2E0.5Cvlib.5Capp.5Cgfx_apps.5Csimple_draw_d1l2.5Ctarget.5Cd1lx_mango_ghs.5Cobj.5Cdm.:
                        3336 _dm_KeyRespond_DOWN:
00000bf2 8407e170       3337 	prepare	{r25,r26,r27,r28,r29,r31},2
00000bf6 3d0600000000*  3338 	mov	_TCSel,r29
00000bfc 3dce0c00       3339 	movea	12,r29,r25
00000c00 3dde3400       3340 	movea	52,r29,r27
00000c04 3c0600000000*  3341 	mov	_DestPage_Matrix,r28
00000c0a 3a0600000000*  3342 	mov	_CurFaultList,r26
                        3343 --	    .bf
                        3344 .LDW64:
                        3345 --1016: {
                        3346 --1017: 	switch(CurPage_Point)
00000c10 3d0f0d00       3347 	ld.w	12[r29],r1
00000c14 660a           3348 	cmp	6,r1
00000c16 c305*          3349 	bnh	.L2505
00000c18 6b0a           3350 	cmp	11,r1
00000c1a da15*          3351 	bne	.L2507
00000c1c b515*          3352 	br	.L2506
                        3353 .L2505:
                        3354 --1018: 	{
                        3355 --1019: 		case INDEX_TC_SPEED:

                                                                      Page 60
                                                              C:\Users\YINGAO~1\AppData\Local\Temp\gh_000004s1.si
                        3356 --1020: 		case INDEX_TC_INSFUELCOMPN:
                        3357 --1021: 		case INDEX_TC_RANG:
                        3358 --1022: 		case INDEX_TC_BAT:
                        3359 --1023: 		case INDEX_TC_AUTOSTART:
                        3360 --1024: 		case INDEX_TC_AUTORST:
                        3361 --1025: 		case INDEX_TC_TIREPRESS:	
                        3362 --1026:             dm_KeyTripCmpt_DOWN();
                        3363 --line1026
                        3364 ..lin.D.3A.5CRenesas_Electronics.5CD1x_RGL.5Crgl_ghs_D1Lx_obj_V1.2E2.2E0.5Cvlib.5Capp.5Cgfx_apps.5Csimple_draw_d1l2.5Ctarget.5Cd1lx_mango_ghs.5Cobj.5Cdm.174::
                        3365 .LDWlin174:
                        3366 	jarl	_dm_KeyTripCmpt_DOWN,lp
                        3366 <EXPANSION BEGIN>
                        3366 jarl22 _dm_KeyTripCmpt_DOWN , lp 
00000c1e bfff4cff*      3366 <EXPANSION END>
                        3367 --1027:             DestPage_Point = DestPage_Matrix[CurPage_Point].CMD_DOWN.DestPage_Point;
                        3368 --line1027
                        3369 ..lin.D.3A.5CRenesas_Electronics.5CD1x_RGL.5Crgl_ghs_D1Lx_obj_V1.2E2.2E0.5Cvlib.5Capp.5Cgfx_apps.5Csimple_draw_d1l2.5Ctarget.5Cd1lx_mango_ghs.5Cobj.5Cdm.175::
                        3370 .LDWlin175:
00000c22 3d0f0c00       3371 	ld.h	12[r29],r1
00000c26 e1f60f00       3372 	mulhi	15,r1,ep
00000c2a dcf1           3373 	add	r28,ep
00000c2c 6b08           3374 	sld.bu	11[ep],r1
00000c2e 7d0f1100       3375 	st.w	r1,16[r29]
                        3376 --1028:             Dm_Send_Data.CMD.SubPage = TCSel;
00000c32 210600000000*  3377 	mov	_TCSel,r1
00000c38 210f0100       3378 	ld.w	0[r1],r1
00000c3c 5b0f0200       3379 	st.b	r1,2[r27]
00000c40 b515*          3380 	br	.L2503
                        3381 .L2506:
                        3382 --line1031
                        3383 ..lin.D.3A.5CRenesas_Electronics.5CD1x_RGL.5Crgl_ghs_D1Lx_obj_V1.2E2.2E0.5Cvlib.5Capp.5Cgfx_apps.5Csimple_draw_d1l2.5Ctarget.5Cd1lx_mango_ghs.5Cobj.5Cdm.176::
                        3384 .LDWlin176:
00000c42 a515*          3385 	br	.L2503
                        3386 .L2507:
                        3387 --1029: 		break;
                        3388 --1030: 		case INDEX_ENT_MEDIA_MUSIC:
                        3389 --1031:                 break;
                        3390 --1032: 		case INDEX_SET_SETTING:
                        3391 --1033: 		case INDEX_SET_ILLU:
                        3392 --1034: 		case INDEX_SET_SPEEDLIMIT:
                        3393 --1035: 		case INDEX_SET_SCS:
                        3394 --1036: 		case INDEX_FAULT_FAULTLIST:			
                        3395 --1037: 		default:
                        3396 --1038: 		DestPage_Point = DestPage_Matrix[CurPage_Point].CMD_DOWN.DestPage_Point;
                        3397 --line1038
                        3398 ..lin.D.3A.5CRenesas_Electronics.5CD1x_RGL.5Crgl_ghs_D1Lx_obj_V1.2E2.2E0.5Cvlib.5Capp.5Cgfx_apps.5Csimple_draw_d1l2.5Ctarget.5Cd1lx_mango_ghs.5Cobj.5Cdm.177::
                        3399 .LDWlin177:
00000c44 3d0f0c00       3400 	ld.h	12[r29],r1
00000c48 e1f60f00       3401 	mulhi	15,r1,ep
00000c4c dcf1           3402 	add	r28,ep
00000c4e 6b08           3403 	sld.bu	11[ep],r1
00000c50 7d0f1100       3404 	st.w	r1,16[r29]
                        3405 --1039: 		Dm_Send_Data.CMD.SubPage = DestPage_Matrix[CurPage_Point].CMD_DOWN.SubPage;
00000c54 3d0f0c00       3406 	ld.h	12[r29],r1
00000c58 e1f60f00       3407 	mulhi	15,r1,ep
00000c5c dcf1           3408 	add	r28,ep
00000c5e 6a08           3409 	sld.bu	10[ep],r1
00000c60 5b0f0200       3410 	st.b	r1,2[r27]
00000c64 0000           3411 	nop
                        3412 .L2503:
                        3413 --1040: 		break;

                                                                      Page 61
                                                              C:\Users\YINGAO~1\AppData\Local\Temp\gh_000004s1.si
                        3414 --1041: 	}
                        3415 --1042: 	
                        3416 --1043: 	switch(CurPage_Point)
00000c66 3d0f0d00       3417 	ld.w	12[r29],r1
00000c6a 6c0a           3418 	cmp	12,r1
00000c6c cb65*          3419 	bh	.L2534
00000c6e c20a           3420 	shl	2,r1
00000c70 e10600000000*  3421 	jmp	.L2619[r1]
                        3422 .L2619:
00000c76 80073400*      3423 	jr	.L2510
00000c7a 80073000*      3424 	jr	.L2510
00000c7e 80072c00*      3425 	jr	.L2510
00000c82 80072800*      3426 	jr	.L2510
00000c86 80072400*      3427 	jr	.L2510
00000c8a 80072000*      3428 	jr	.L2510
00000c8e 80071c00*      3429 	jr	.L2510
00000c92 80071a00*      3430 	jr	.L2511
00000c96 80073000*      3431 	jr	.L2515
00000c9a 80074000*      3432 	jr	.L2519
00000c9e 80076800*      3433 	jr	.L2526
00000ca2 80070800*      3434 	jr	.L2510
00000ca6 80077400*      3435 	jr	.L2530
                        3436 .L2510:
                        3437 --line1053
                        3438 ..lin.D.3A.5CRenesas_Electronics.5CD1x_RGL.5Crgl_ghs_D1Lx_obj_V1.2E2.2E0.5Cvlib.5Capp.5Cgfx_apps.5Csimple_draw_d1l2.5Ctarget.5Cd1lx_mango_ghs.5Cobj.5Cdm.178::
                        3439 .LDWlin178:
00000caa e545*          3440 	br	.L2508
                        3441 .L2511:
                        3442 --1044: 	{
                        3443 --1045: 		case INDEX_TC_SPEED:
                        3444 --1046: 		case INDEX_TC_INSFUELCOMPN:
                        3445 --1047: 		case INDEX_TC_RANG:
                        3446 --1048: 		case INDEX_TC_BAT:
                        3447 --1049: 		case INDEX_TC_AUTOSTART:
                        3448 --1050: 		case INDEX_TC_AUTORST:
                        3449 --1051: 		case INDEX_ENT_MEDIA_MUSIC:
                        3450 --1052: 		case INDEX_TC_TIREPRESS:
                        3451 --1053: 			break;
                        3452 --1054: 		case INDEX_SET_SETTING:
                        3453 --1055: 			if(SetSel < dm_stSet.maxCnt-1)
                        3454 --line1055
                        3455 ..lin.D.3A.5CRenesas_Electronics.5CD1x_RGL.5Crgl_ghs_D1Lx_obj_V1.2E2.2E0.5Cvlib.5Capp.5Cgfx_apps.5Csimple_draw_d1l2.5Ctarget.5Cd1lx_mango_ghs.5Cobj.5Cdm.179::
                        3456 .LDWlin179:
00000cac bd0f3300       3457 	ld.bu	51[r29],r1
00000cb0 9d772700       3458 	ld.bu	38[r29],r14
00000cb4 5f0a           3459 	add	-1,r1
00000cb6 e171           3460 	cmp	r1,r14
00000cb8 ee05*          3461 	bge	.L2514
                        3462 --1056: 			{
                        3463 --1057: 				SetSel++;
                        3464 --line1057
                        3465 ..lin.D.3A.5CRenesas_Electronics.5CD1x_RGL.5Crgl_ghs_D1Lx_obj_V1.2E2.2E0.5Cvlib.5Capp.5Cgfx_apps.5Csimple_draw_d1l2.5Ctarget.5Cd1lx_mango_ghs.5Cobj.5Cdm.180::
                        3466 .LDWlin180:
00000cba 3df62600       3467 	movea	38,r29,ep
00000cbe 6008           3468 	sld.bu	0[ep],r1
00000cc0 410a           3469 	add	1,r1
00000cc2 800b           3470 	sst.b	r1,0[ep]
                        3471 .L2514:
                        3472 --1058: 			}
                        3473 --1059: 			else
                        3474 --1060: 			{

                                                                      Page 62
                                                              C:\Users\YINGAO~1\AppData\Local\Temp\gh_000004s1.si
00000cc4 953d*          3475 	br	.L2508
                        3476 .L2515:
                        3477 --1061: 			}
                        3478 --1062: 			break;
                        3479 --1063: 		case INDEX_SET_ILLU:
                        3480 --1064: 			if(INDEX_ILLU_lEVEL1 < illu_Level)			
                        3481 --line1064
                        3482 ..lin.D.3A.5CRenesas_Electronics.5CD1x_RGL.5Crgl_ghs_D1Lx_obj_V1.2E2.2E0.5Cvlib.5Capp.5Cgfx_apps.5Csimple_draw_d1l2.5Ctarget.5Cd1lx_mango_ghs.5Cobj.5Cdm.181::
                        3483 .LDWlin181:
00000cc6 3d0f0500       3484 	ld.w	4[r29],r1
00000cca 610a           3485 	cmp	1,r1
00000ccc e705*          3486 	ble	.L2518
                        3487 --1065: 			{
                        3488 --1066: 				illu_Level--;
                        3489 --line1066
                        3490 ..lin.D.3A.5CRenesas_Electronics.5CD1x_RGL.5Crgl_ghs_D1Lx_obj_V1.2E2.2E0.5Cvlib.5Capp.5Cgfx_apps.5Csimple_draw_d1l2.5Ctarget.5Cd1lx_mango_ghs.5Cobj.5Cdm.182::
                        3491 .LDWlin182:
00000cce 3df60400       3492 	movea	4,r29,ep
00000cd2 000d           3493 	sld.w	0[ep],r1
00000cd4 5f0a           3494 	add	-1,r1
00000cd6 010d           3495 	sst.w	r1,0[ep]
                        3496 .L2518:
                        3497 --1067: 			}
                        3498 --1068: 			else
                        3499 --1069: 			{
00000cd8 f52d*          3500 	br	.L2508
                        3501 .L2519:
                        3502 --1070: 			}
                        3503 --1071: 			break;
                        3504 --1072: 		case INDEX_SET_SPEEDLIMIT:
                        3505 --1073: 			if(INDEX_SPEEDLIMIT_220 == speed_Limit)
                        3506 --line1073
                        3507 ..lin.D.3A.5CRenesas_Electronics.5CD1x_RGL.5Crgl_ghs_D1Lx_obj_V1.2E2.2E0.5Cvlib.5Capp.5Cgfx_apps.5Csimple_draw_d1l2.5Ctarget.5Cd1lx_mango_ghs.5Cobj.5Cdm.183::
                        3508 .LDWlin183:
00000cda 3d0f0900       3509 	ld.w	8[r29],r1
00000cde 0106d4ff       3510 	addi	-44,r1,zero
00000ce2 ca05*          3511 	bne	.L2520
                        3512 --1074: 			{
                        3513 --1075: 				speed_Limit = INDEX_SPEEDLIMIT_OFF;
                        3514 --line1075
                        3515 ..lin.D.3A.5CRenesas_Electronics.5CD1x_RGL.5Crgl_ghs_D1Lx_obj_V1.2E2.2E0.5Cvlib.5Capp.5Cgfx_apps.5Csimple_draw_d1l2.5Ctarget.5Cd1lx_mango_ghs.5Cobj.5Cdm.184::
                        3516 .LDWlin184:
00000ce4 7d070900       3517 	st.w	zero,8[r29]
00000ce8 e50d*          3518 	br	.L2522
                        3519 .L2520:
                        3520 --1076: 			}
                        3521 --1077: 			else if(INDEX_SPEEDLIMIT_OFF == speed_Limit)
                        3522 --line1077
                        3523 ..lin.D.3A.5CRenesas_Electronics.5CD1x_RGL.5Crgl_ghs_D1Lx_obj_V1.2E2.2E0.5Cvlib.5Capp.5Cgfx_apps.5Csimple_draw_d1l2.5Ctarget.5Cd1lx_mango_ghs.5Cobj.5Cdm.185::
                        3524 .LDWlin185:
00000cea 3d0f0900       3525 	ld.w	8[r29],r1
00000cee e009           3526 	cmp	zero,r1
00000cf0 da05*          3527 	bne	.L2523
                        3528 --1078: 			{
                        3529 --1079: 				speed_Limit = INDEX_SPEEDLIMIT_30;
                        3530 --line1079
                        3531 ..lin.D.3A.5CRenesas_Electronics.5CD1x_RGL.5Crgl_ghs_D1Lx_obj_V1.2E2.2E0.5Cvlib.5Capp.5Cgfx_apps.5Csimple_draw_d1l2.5Ctarget.5Cd1lx_mango_ghs.5Cobj.5Cdm.186::
                        3532 .LDWlin186:
00000cf2 060a           3533 	mov	6,r1
00000cf4 7d0f0900       3534 	st.w	r1,8[r29]
00000cf8 e505*          3535 	br	.L2522

                                                                      Page 63
                                                              C:\Users\YINGAO~1\AppData\Local\Temp\gh_000004s1.si
                        3536 .L2523:
                        3537 --1080: 			}
                        3538 --1081: 			else 
                        3539 --1082: 			{
                        3540 --1083: 				speed_Limit++;
                        3541 --line1083
                        3542 ..lin.D.3A.5CRenesas_Electronics.5CD1x_RGL.5Crgl_ghs_D1Lx_obj_V1.2E2.2E0.5Cvlib.5Capp.5Cgfx_apps.5Csimple_draw_d1l2.5Ctarget.5Cd1lx_mango_ghs.5Cobj.5Cdm.187::
                        3543 .LDWlin187:
00000cfa 3d0f0900       3544 	ld.w	8[r29],r1
00000cfe 410a           3545 	add	1,r1
00000d00 7d0f0900       3546 	st.w	r1,8[r29]
                        3547 .L2522:
00000d04 951d*          3548 	br	.L2508
                        3549 .L2526:
                        3550 --1084: 			}
                        3551 --1085: 			break;
                        3552 --1086: 		case INDEX_SET_SCS:
                        3553 --1087: 			if(0 == SCS_Sts)
                        3554 --line1087
                        3555 ..lin.D.3A.5CRenesas_Electronics.5CD1x_RGL.5Crgl_ghs_D1Lx_obj_V1.2E2.2E0.5Cvlib.5Capp.5Cgfx_apps.5Csimple_draw_d1l2.5Ctarget.5Cd1lx_mango_ghs.5Cobj.5Cdm.188::
                        3556 .LDWlin188:
00000d06 bd0f2700       3557 	ld.bu	39[r29],r1
00000d0a e009           3558 	cmp	zero,r1
00000d0c ea05*          3559 	bne	.L2529
                        3560 --1088: 			{
                        3561 --1089: 				SCS_Sts ++;
                        3562 --line1089
                        3563 ..lin.D.3A.5CRenesas_Electronics.5CD1x_RGL.5Crgl_ghs_D1Lx_obj_V1.2E2.2E0.5Cvlib.5Capp.5Cgfx_apps.5Csimple_draw_d1l2.5Ctarget.5Cd1lx_mango_ghs.5Cobj.5Cdm.189::
                        3564 .LDWlin189:
00000d0e 3df62700       3565 	movea	39,r29,ep
00000d12 6008           3566 	sld.bu	0[ep],r1
00000d14 410a           3567 	add	1,r1
00000d16 800b           3568 	sst.b	r1,0[ep]
                        3569 .L2529:
                        3570 --1090: 			}
                        3571 --1091: 			else
                        3572 --1092: 			{
00000d18 f50d*          3573 	br	.L2508
                        3574 .L2530:
                        3575 --1093: 			}
                        3576 --1094: 			break;
                        3577 --1095: 		case INDEX_FAULT_FAULTLIST:
                        3578 --1096: 			if(CurFaultList+DM_FLTLIST_ITEM_MAX < CurTotolFaultList)
                        3579 --line1096
                        3580 ..lin.D.3A.5CRenesas_Electronics.5CD1x_RGL.5Crgl_ghs_D1Lx_obj_V1.2E2.2E0.5Cvlib.5Capp.5Cgfx_apps.5Csimple_draw_d1l2.5Ctarget.5Cd1lx_mango_ghs.5Cobj.5Cdm.190::
                        3581 .LDWlin190:
00000d1a 9a0f0100       3582 	ld.bu	0[r26],r1
00000d1e bd772900       3583 	ld.bu	41[r29],r14
00000d22 440a           3584 	add	4,r1
00000d24 ee09           3585 	cmp	r14,r1
00000d26 ee05*          3586 	bge	.L2533
                        3587 --1097: 			{
                        3588 --1098: 				CurFaultList +=DM_FLTLIST_ITEM_MAX;
                        3589 --line1098
                        3590 ..lin.D.3A.5CRenesas_Electronics.5CD1x_RGL.5Crgl_ghs_D1Lx_obj_V1.2E2.2E0.5Cvlib.5Capp.5Cgfx_apps.5Csimple_draw_d1l2.5Ctarget.5Cd1lx_mango_ghs.5Cobj.5Cdm.191::
                        3591 .LDWlin191:
00000d28 9a0f0100       3592 	ld.bu	0[r26],r1
00000d2c 440a           3593 	add	4,r1
00000d2e 5a0f0000       3594 	st.b	r1,0[r26]
                        3595 .L2533:
                        3596 --1099: 			}

                                                                      Page 64
                                                              C:\Users\YINGAO~1\AppData\Local\Temp\gh_000004s1.si
                        3597 --1100: 			else
                        3598 --1101: 			{
00000d32 a505*          3599 	br	.L2508
                        3600 .L2534:
                        3601 --line1105
                        3602 ..lin.D.3A.5CRenesas_Electronics.5CD1x_RGL.5Crgl_ghs_D1Lx_obj_V1.2E2.2E0.5Cvlib.5Capp.5Cgfx_apps.5Csimple_draw_d1l2.5Ctarget.5Cd1lx_mango_ghs.5Cobj.5Cdm.192::
                        3603 .LDWlin192:
00000d34 0000           3604 	nop
                        3605 .L2508:
                        3606 --1102: 			}
                        3607 --1103: 			break;
                        3608 --1104: 		default:
                        3609 --1105: 			break;
                        3610 --1106: 	}
                        3611 --1107: 	Dm_Send_Data.CMD.MainPage = DestPage_Matrix[CurPage_Point].CMD_DOWN.MainPage;
00000d36 3d0f0c00       3612 	ld.h	12[r29],r1
00000d3a e1f60f00       3613 	mulhi	15,r1,ep
00000d3e dcf1           3614 	add	r28,ep
00000d40 6908           3615 	sld.bu	9[ep],r1
00000d42 5b0f0100       3616 	st.b	r1,1[r27]
                        3617 --1108: 	CurPage_Point = DestPage_Point;
00000d46 3d0f1100       3618 	ld.w	16[r29],r1
00000d4a 7d0f0d00       3619 	st.w	r1,12[r29]
                        3620 --1109: }
00000d4e 0000           3621 	nop
                        3622 --	    .ef
                        3623 .LDW74:
00000d50 4406ff70       3624 	dispose	2,{r25,r26,r27,r28,r29,r31},[lp]
                        3625 	.type	_dm_KeyRespond_DOWN,@function
                        3626 	.size	_dm_KeyRespond_DOWN,.-_dm_KeyRespond_DOWN
                        3627 	.type	_dm_KeyRespond_DOWN..D.3A.5CRenesas_Electronics.5CD1x_RGL.5Crgl_ghs_D1Lx_obj_V1.2E2.2E0.5Cvlib.5Capp.5Cgfx_apps.5Csimple_draw_d1l2.5Ctarget.5Cd1lx_mango_ghs.5Cobj.5Cdm.,@function
                        3628 	.size	_dm_KeyRespond_DOWN..D.3A.5CRenesas_Electronics.5CD1x_RGL.5Crgl_ghs_D1Lx_obj_V1.2E2.2E0.5Cvlib.5Capp.5Cgfx_apps.5Csimple_draw_d1l2.5Ctarget.5Cd1lx_mango_ghs.5Cobj.5Cdm.,.-_dm_KeyRespond_DOWN..D.3A.5CRenesas_Electronics.5CD1x_RGL.5Crgl_ghs_D1Lx_obj_V1.2E2.2E0.5Cvlib.5Capp.5Cgfx_apps.5Csimple_draw_d1l2.5Ctarget.5Cd1lx_mango_ghs.5Cobj.5Cdm.
                        3629 	.align	2
                        3630 .LDW84:
                        3631 
                        3632 	.data
                        3633 	.ghsnote jtable,2097156,.L2619,.L2619,.L2619,13
                        3634 	.text
                        3635 
                        3636 
                        3637 --1112: /**************************************************
                        3638 --1113: *Function :dm_KeyRespond_LEFT
                        3639 --1114: *Description:  KEY-left RESPONSE
                        3640 --1115: *Parameters:none
                        3641 --1116: *Returns: none
                        3642 --1117: **create&Verlog:
                        3643 --1118: *Author Name xs  Date:2017-09-22   Ver:02
                        3644 --1119: ***************************************************/
                        3645 --1120: static void dm_KeyRespond_LEFT(void)
                        3646 	.align	2
                        3647 	.align	2
                        3648 	.global	_dm_KeyRespond_LEFT..D.3A.5CRenesas_Electronics.5CD1x_RGL.5Crgl_ghs_D1Lx_obj_V1.2E2.2E0.5Cvlib.5Capp.5Cgfx_apps.5Csimple_draw_d1l2.5Ctarget.5Cd1lx_mango_ghs.5Cobj.5Cdm.
                        3649 _dm_KeyRespond_LEFT..D.3A.5CRenesas_Electronics.5CD1x_RGL.5Crgl_ghs_D1Lx_obj_V1.2E2.2E0.5Cvlib.5Capp.5Cgfx_apps.5Csimple_draw_d1l2.5Ctarget.5Cd1lx_mango_ghs.5Cobj.5Cdm.:
                        3650 _dm_KeyRespond_LEFT:
00000d54 8407e170       3651 	prepare	{r25,r26,r27,r28,r29,r31},2
00000d58 3d0600000000*  3652 	mov	_TCSel,r29
00000d5e 3dce0c00       3653 	movea	12,r29,r25
00000d62 3dde3400       3654 	movea	52,r29,r27
00000d66 3c0600000000*  3655 	mov	_DestPage_Matrix,r28
00000d6c 3a0600000000*  3656 	mov	_dm_RadioSubPage,r26
                        3657 --	    .bf

                                                                      Page 65
                                                              C:\Users\YINGAO~1\AppData\Local\Temp\gh_000004s1.si
                        3658 .LDW94:
                        3659 --1121: {
                        3660 --1122: 	U8 NavDircn;
                        3661 --1123: 	U16 NavDist;
                        3662 --1124: 	U8 MusSrcMd;
                        3663 --1125: 	
                        3664 --1126: 	COM_GetSignalValue_8(INDEX_COM_RS_MUSSRCMD, &MusSrcMd);
00000d72 20369c00       3665 	movea	156,zero,r6
00000d76 233e0100       3666 	movea	1,sp,r7
                        3667 	jarl	_COM_GetSignalValue_8,lp
                        3667 <EXPANSION BEGIN>
                        3667 jarl22 _COM_GetSignalValue_8 , lp 
00000d7a 80ff0000*      3667 <EXPANSION END>
                        3668 --1127: 	COM_GetSignalValue_8(INDEX_COM_RS_NAVDIRCN, &NavDircn);
                        3669 --line1127
                        3670 ..lin.D.3A.5CRenesas_Electronics.5CD1x_RGL.5Crgl_ghs_D1Lx_obj_V1.2E2.2E0.5Cvlib.5Capp.5Cgfx_apps.5Csimple_draw_d1l2.5Ctarget.5Cd1lx_mango_ghs.5Cobj.5Cdm.193::
                        3671 .LDWlin193:
00000d7e 20369d00       3672 	movea	157,zero,r6
00000d82 233e0000       3673 	movea	0,sp,r7
                        3674 	jarl	_COM_GetSignalValue_8,lp
                        3674 <EXPANSION BEGIN>
                        3674 jarl22 _COM_GetSignalValue_8 , lp 
00000d86 80ff0000*      3674 <EXPANSION END>
                        3675 --1128: 	COM_GetSignalValue_16(INDEX_COM_RS_NAVDISTUNIT, &NavDist);
                        3676 --line1128
                        3677 ..lin.D.3A.5CRenesas_Electronics.5CD1x_RGL.5Crgl_ghs_D1Lx_obj_V1.2E2.2E0.5Cvlib.5Capp.5Cgfx_apps.5Csimple_draw_d1l2.5Ctarget.5Cd1lx_mango_ghs.5Cobj.5Cdm.194::
                        3678 .LDWlin194:
00000d8a 20369e00       3679 	movea	158,zero,r6
00000d8e 233e0200       3680 	movea	2,sp,r7
                        3681 	jarl	_COM_GetSignalValue_16,lp
                        3681 <EXPANSION BEGIN>
                        3681 jarl22 _COM_GetSignalValue_16 , lp 
00000d92 80ff0000*      3681 <EXPANSION END>
                        3682 --1130: 	switch(CurPage_Point)
                        3683 --line1130
                        3684 ..lin.D.3A.5CRenesas_Electronics.5CD1x_RGL.5Crgl_ghs_D1Lx_obj_V1.2E2.2E0.5Cvlib.5Capp.5Cgfx_apps.5Csimple_draw_d1l2.5Ctarget.5Cd1lx_mango_ghs.5Cobj.5Cdm.195::
                        3685 .LDWlin195:
00000d96 3d0f0d00       3686 	ld.w	12[r29],r1
00000d9a 660a           3687 	cmp	6,r1
00000d9c f305*          3688 	bnh	.L2739
00000d9e 6b0a           3689 	cmp	11,r1
00000da0 e115*          3690 	bl	.L2740
00000da2 d225*          3691 	be	.L2741
00000da4 6c0a           3692 	cmp	12,r1
00000da6 ea3d*          3693 	bne	.L2743
00000da8 b535*          3694 	br	.L2742
                        3695 .L2739:
                        3696 --1131: 	{
                        3697 --1134: 		case INDEX_TC_SPEED:
                        3698 --1135: 		case INDEX_TC_INSFUELCOMPN:
                        3699 --1136: 		case INDEX_TC_RANG:
                        3700 --1137: 		case INDEX_TC_BAT:
                        3701 --1138: 		case INDEX_TC_AUTOSTART:
                        3702 --1139: 		case INDEX_TC_AUTORST:	
                        3703 --1140: 		case INDEX_TC_TIREPRESS:
                        3704 --1141:             DestPage_Point = DestPage_Matrix[CurPage_Point].CMD_LEFT.DestPage_Point;
                        3705 --line1141
                        3706 ..lin.D.3A.5CRenesas_Electronics.5CD1x_RGL.5Crgl_ghs_D1Lx_obj_V1.2E2.2E0.5Cvlib.5Capp.5Cgfx_apps.5Csimple_draw_d1l2.5Ctarget.5Cd1lx_mango_ghs.5Cobj.5Cdm.196::
                        3707 .LDWlin196:
00000daa 3d0f0c00       3708 	ld.h	12[r29],r1
00000dae e1f60f00       3709 	mulhi	15,r1,ep

                                                                      Page 66
                                                              C:\Users\YINGAO~1\AppData\Local\Temp\gh_000004s1.si
00000db2 dcf1           3710 	add	r28,ep
00000db4 6208           3711 	sld.bu	2[ep],r1
00000db6 7d0f1100       3712 	st.w	r1,16[r29]
                        3713 --1142: 			Dm_Send_Data.CMD.SubPage = DestPage_Matrix[CurPage_Point].CMD_LEFT.SubPage;
00000dba 3d0f0c00       3714 	ld.h	12[r29],r1
00000dbe e1f60f00       3715 	mulhi	15,r1,ep
00000dc2 dcf1           3716 	add	r28,ep
00000dc4 6108           3717 	sld.bu	1[ep],r1
00000dc6 5b0f0200       3718 	st.b	r1,2[r27]
00000dca d52d*          3719 	br	.L2737
                        3720 .L2740:
                        3721 --1143: 			 break;
                        3722 --1144:         case INDEX_SET_ILLU:
                        3723 --1145: 		case INDEX_SET_SPEEDLIMIT:
                        3724 --1146: 		case INDEX_SET_SCS:
                        3725 --1147: 		case INDEX_SET_SETTING:
                        3726 --1148: 			DestPage_Point = DestPage_Matrix[CurPage_Point].CMD_LEFT.DestPage_Point;
                        3727 --line1148
                        3728 ..lin.D.3A.5CRenesas_Electronics.5CD1x_RGL.5Crgl_ghs_D1Lx_obj_V1.2E2.2E0.5Cvlib.5Capp.5Cgfx_apps.5Csimple_draw_d1l2.5Ctarget.5Cd1lx_mango_ghs.5Cobj.5Cdm.197::
                        3729 .LDWlin197:
00000dcc 3d0f0c00       3730 	ld.h	12[r29],r1
00000dd0 e1f60f00       3731 	mulhi	15,r1,ep
00000dd4 dcf1           3732 	add	r28,ep
00000dd6 6208           3733 	sld.bu	2[ep],r1
00000dd8 7d0f1100       3734 	st.w	r1,16[r29]
                        3735 --1149: 			Dm_Send_Data.CMD.SubPage = TCSel;
00000ddc 210600000000*  3736 	mov	_TCSel,r1
00000de2 210f0100       3737 	ld.w	0[r1],r1
00000de6 5b0f0200       3738 	st.b	r1,2[r27]
00000dea d51d*          3739 	br	.L2737
                        3740 .L2741:
                        3741 --1150:              break;
                        3742 --1151: 		case INDEX_ENT_MEDIA_MUSIC:
                        3743 --1152: 			DestPage_Point = DestPage_Matrix[CurPage_Point].CMD_LEFT.DestPage_Point;
                        3744 --line1152
                        3745 ..lin.D.3A.5CRenesas_Electronics.5CD1x_RGL.5Crgl_ghs_D1Lx_obj_V1.2E2.2E0.5Cvlib.5Capp.5Cgfx_apps.5Csimple_draw_d1l2.5Ctarget.5Cd1lx_mango_ghs.5Cobj.5Cdm.198::
                        3746 .LDWlin198:
00000dec 3d0f0c00       3747 	ld.h	12[r29],r1
00000df0 e1f60f00       3748 	mulhi	15,r1,ep
00000df4 dcf1           3749 	add	r28,ep
00000df6 6208           3750 	sld.bu	2[ep],r1
00000df8 7d0f1100       3751 	st.w	r1,16[r29]
                        3752 --1153: 			Dm_Send_Data.CMD.SubPage = DestPage_Matrix[CurPage_Point].CMD_LEFT.SubPage;
00000dfc 3d0f0c00       3753 	ld.h	12[r29],r1
00000e00 e1f60f00       3754 	mulhi	15,r1,ep
00000e04 dcf1           3755 	add	r28,ep
00000e06 6108           3756 	sld.bu	1[ep],r1
00000e08 5b0f0200       3757 	st.b	r1,2[r27]
00000e0c c50d*          3758 	br	.L2737
                        3759 .L2742:
                        3760 --1154: 			break;
                        3761 --1155: 		case INDEX_FAULT_FAULTLIST:	
                        3762 --1156: 			DestPage_Point = dm_RadioSubPage + INDEX_ENT_MEDIA_MUSIC;					
                        3763 --line1156
                        3764 ..lin.D.3A.5CRenesas_Electronics.5CD1x_RGL.5Crgl_ghs_D1Lx_obj_V1.2E2.2E0.5Cvlib.5Capp.5Cgfx_apps.5Csimple_draw_d1l2.5Ctarget.5Cd1lx_mango_ghs.5Cobj.5Cdm.199::
                        3765 .LDWlin199:
00000e0e 9a0f0100       3766 	ld.bu	0[r26],r1
00000e12 4b0a           3767 	add	11,r1
00000e14 7d0f1100       3768 	st.w	r1,16[r29]
                        3769 --1157: 			Dm_Send_Data.CMD.SubPage = dm_RadioSubPage;
00000e18 9a0f0100       3770 	ld.bu	0[r26],r1

                                                                      Page 67
                                                              C:\Users\YINGAO~1\AppData\Local\Temp\gh_000004s1.si
00000e1c 5b0f0200       3771 	st.b	r1,2[r27]
00000e20 a505*          3772 	br	.L2737
                        3773 .L2743:
                        3774 --line1160
                        3775 ..lin.D.3A.5CRenesas_Electronics.5CD1x_RGL.5Crgl_ghs_D1Lx_obj_V1.2E2.2E0.5Cvlib.5Capp.5Cgfx_apps.5Csimple_draw_d1l2.5Ctarget.5Cd1lx_mango_ghs.5Cobj.5Cdm.200::
                        3776 .LDWlin200:
00000e22 0000           3777 	nop
                        3778 .L2737:
                        3779 --1158: 			break;
                        3780 --1159: 		default:
                        3781 --1160: 			break;
                        3782 --1161: 	}
                        3783 --1162: 	Dm_Send_Data.CMD.MainPage = DestPage_Matrix[CurPage_Point].CMD_LEFT.MainPage;
00000e24 3d0f0c00       3784 	ld.h	12[r29],r1
00000e28 e1f60f00       3785 	mulhi	15,r1,ep
00000e2c dcf1           3786 	add	r28,ep
00000e2e 6008           3787 	sld.bu	0[ep],r1
00000e30 5b0f0100       3788 	st.b	r1,1[r27]
                        3789 --1163: 	CurPage_Point = DestPage_Point;
00000e34 3d0f1100       3790 	ld.w	16[r29],r1
00000e38 7d0f0d00       3791 	st.w	r1,12[r29]
                        3792 --1164: }
00000e3c 0000           3793 	nop
                        3794 --	    .ef
                        3795 .LDW05:
00000e3e 4406ff70       3796 	dispose	2,{r25,r26,r27,r28,r29,r31},[lp]
                        3797 	.type	_dm_KeyRespond_LEFT,@function
                        3798 	.size	_dm_KeyRespond_LEFT,.-_dm_KeyRespond_LEFT
                        3799 	.type	_dm_KeyRespond_LEFT..D.3A.5CRenesas_Electronics.5CD1x_RGL.5Crgl_ghs_D1Lx_obj_V1.2E2.2E0.5Cvlib.5Capp.5Cgfx_apps.5Csimple_draw_d1l2.5Ctarget.5Cd1lx_mango_ghs.5Cobj.5Cdm.,@function
                        3800 	.size	_dm_KeyRespond_LEFT..D.3A.5CRenesas_Electronics.5CD1x_RGL.5Crgl_ghs_D1Lx_obj_V1.2E2.2E0.5Cvlib.5Capp.5Cgfx_apps.5Csimple_draw_d1l2.5Ctarget.5Cd1lx_mango_ghs.5Cobj.5Cdm.,.-_dm_KeyRespond_LEFT..D.3A.5CRenesas_Electronics.5CD1x_RGL.5Crgl_ghs_D1Lx_obj_V1.2E2.2E0.5Cvlib.5Capp.5Cgfx_apps.5Csimple_draw_d1l2.5Ctarget.5Cd1lx_mango_ghs.5Cobj.5Cdm.
                        3801 	.align	2
                        3802 .LDW15:
                        3803 --_NavDircn	0[sp]	local
                        3804 --_NavDist	2[sp]	local
                        3805 --_MusSrcMd	1[sp]	local
                        3806 
                        3807 	.data
                        3808 	.text
                        3809 
                        3810 
                        3811 --1167: /**************************************************
                        3812 --1168: *Function :dm_KeyRespond_RIGHT
                        3813 --1169: *Description:  KEY-right RESPONSE
                        3814 --1170: *Parameters:none
                        3815 --1171: *Returns: none
                        3816 --1172: **create&Verlog:
                        3817 --1173: *Author Name xs  Date:2017-09-22   Ver:02
                        3818 --1174: ***************************************************/
                        3819 --1175: static void dm_KeyRespond_RIGHT(void)
                        3820 	.align	2
                        3821 	.align	2
                        3822 	.global	_dm_KeyRespond_RIGHT..D.3A.5CRenesas_Electronics.5CD1x_RGL.5Crgl_ghs_D1Lx_obj_V1.2E2.2E0.5Cvlib.5Capp.5Cgfx_apps.5Csimple_draw_d1l2.5Ctarget.5Cd1lx_mango_ghs.5Cobj.5Cdm.
                        3823 _dm_KeyRespond_RIGHT..D.3A.5CRenesas_Electronics.5CD1x_RGL.5Crgl_ghs_D1Lx_obj_V1.2E2.2E0.5Cvlib.5Capp.5Cgfx_apps.5Csimple_draw_d1l2.5Ctarget.5Cd1lx_mango_ghs.5Cobj.5Cdm.:
                        3824 _dm_KeyRespond_RIGHT:
00000e42 8407e170       3825 	prepare	{r25,r26,r27,r28,r29,r31},2
00000e46 3d0600000000*  3826 	mov	_TCSel,r29
00000e4c 3dce0c00       3827 	movea	12,r29,r25
00000e50 3de63400       3828 	movea	52,r29,r28
00000e54 3b0600000000*  3829 	mov	_DestPage_Matrix,r27
00000e5a 3a0600000000*  3830 	mov	_dm_RadioSubPage,r26
                        3831 --	    .bf

                                                                      Page 68
                                                              C:\Users\YINGAO~1\AppData\Local\Temp\gh_000004s1.si
                        3832 .LDW25:
                        3833 --1176: {
                        3834 --1177: 	U8 NavDircn;
                        3835 --1178: 	U16 NavDist;
                        3836 --1179: 	U8 MusSrcMd;
                        3837 --1180: 	
                        3838 --1181: 	COM_GetSignalValue_8(INDEX_COM_RS_MUSSRCMD, &MusSrcMd);
00000e60 20369c00       3839 	movea	156,zero,r6
00000e64 233e0100       3840 	movea	1,sp,r7
                        3841 	jarl	_COM_GetSignalValue_8,lp
                        3841 <EXPANSION BEGIN>
                        3841 jarl22 _COM_GetSignalValue_8 , lp 
00000e68 80ff0000*      3841 <EXPANSION END>
                        3842 --1182: 	COM_GetSignalValue_8(INDEX_COM_RS_NAVDIRCN, &NavDircn);
                        3843 --line1182
                        3844 ..lin.D.3A.5CRenesas_Electronics.5CD1x_RGL.5Crgl_ghs_D1Lx_obj_V1.2E2.2E0.5Cvlib.5Capp.5Cgfx_apps.5Csimple_draw_d1l2.5Ctarget.5Cd1lx_mango_ghs.5Cobj.5Cdm.201::
                        3845 .LDWlin201:
00000e6c 20369d00       3846 	movea	157,zero,r6
00000e70 233e0000       3847 	movea	0,sp,r7
                        3848 	jarl	_COM_GetSignalValue_8,lp
                        3848 <EXPANSION BEGIN>
                        3848 jarl22 _COM_GetSignalValue_8 , lp 
00000e74 80ff0000*      3848 <EXPANSION END>
                        3849 --1183: 	COM_GetSignalValue_16(INDEX_COM_RS_NAVDIST, &NavDist);
                        3850 --line1183
                        3851 ..lin.D.3A.5CRenesas_Electronics.5CD1x_RGL.5Crgl_ghs_D1Lx_obj_V1.2E2.2E0.5Cvlib.5Capp.5Cgfx_apps.5Csimple_draw_d1l2.5Ctarget.5Cd1lx_mango_ghs.5Cobj.5Cdm.202::
                        3852 .LDWlin202:
00000e78 2036ed00       3853 	movea	237,zero,r6
00000e7c 233e0200       3854 	movea	2,sp,r7
                        3855 	jarl	_COM_GetSignalValue_16,lp
                        3855 <EXPANSION BEGIN>
                        3855 jarl22 _COM_GetSignalValue_16 , lp 
00000e80 80ff0000*      3855 <EXPANSION END>
                        3856 --1185: 	switch(CurPage_Point)
                        3857 --line1185
                        3858 ..lin.D.3A.5CRenesas_Electronics.5CD1x_RGL.5Crgl_ghs_D1Lx_obj_V1.2E2.2E0.5Cvlib.5Capp.5Cgfx_apps.5Csimple_draw_d1l2.5Ctarget.5Cd1lx_mango_ghs.5Cobj.5Cdm.203::
                        3859 .LDWlin203:
00000e84 3d0f0d00       3860 	ld.w	12[r29],r1
00000e88 660a           3861 	cmp	6,r1
00000e8a f305*          3862 	bnh	.L2881
00000e8c 6b0a           3863 	cmp	11,r1
00000e8e e115*          3864 	bl	.L2882
00000e90 c205*          3865 	be	.L2881
00000e92 6c0a           3866 	cmp	12,r1
00000e94 da2d*          3867 	bne	.L2884
00000e96 c51d*          3868 	br	.L2883
                        3869 .L2881:
                        3870 --1186: 	{
                        3871 --1187: 		case INDEX_TC_SPEED:
                        3872 --1188: 		case INDEX_TC_INSFUELCOMPN:
                        3873 --1189: 		case INDEX_TC_RANG:
                        3874 --1190: 		case INDEX_TC_BAT:
                        3875 --1191: 		case INDEX_TC_AUTOSTART:
                        3876 --1192: 		case INDEX_TC_AUTORST:
                        3877 --1193: 		case INDEX_TC_TIREPRESS:
                        3878 --1194: 		case INDEX_ENT_MEDIA_MUSIC:
                        3879 --1195: 			DestPage_Point = DestPage_Matrix[CurPage_Point].CMD_RIGHT.DestPage_Point;
                        3880 --line1195
                        3881 ..lin.D.3A.5CRenesas_Electronics.5CD1x_RGL.5Crgl_ghs_D1Lx_obj_V1.2E2.2E0.5Cvlib.5Capp.5Cgfx_apps.5Csimple_draw_d1l2.5Ctarget.5Cd1lx_mango_ghs.5Cobj.5Cdm.204::
                        3882 .LDWlin204:
00000e98 3d0f0c00       3883 	ld.h	12[r29],r1

                                                                      Page 69
                                                              C:\Users\YINGAO~1\AppData\Local\Temp\gh_000004s1.si
00000e9c e1f60f00       3884 	mulhi	15,r1,ep
00000ea0 dbf1           3885 	add	r27,ep
00000ea2 6508           3886 	sld.bu	5[ep],r1
00000ea4 7d0f1100       3887 	st.w	r1,16[r29]
                        3888 --1196: 			Dm_Send_Data.CMD.SubPage = DestPage_Matrix[CurPage_Point].CMD_RIGHT.SubPage;
00000ea8 3d0f0c00       3889 	ld.h	12[r29],r1
00000eac e1f60f00       3890 	mulhi	15,r1,ep
00000eb0 dbf1           3891 	add	r27,ep
00000eb2 6408           3892 	sld.bu	4[ep],r1
00000eb4 5c0f0200       3893 	st.b	r1,2[r28]
00000eb8 c51d*          3894 	br	.L2879
                        3895 .L2882:
                        3896 --1197: 			break;
                        3897 --1198: 		case INDEX_SET_SETTING:
                        3898 --1199:         case INDEX_SET_ILLU:
                        3899 --1200: 		case INDEX_SET_SPEEDLIMIT:
                        3900 --1201: 		case INDEX_SET_SCS:
                        3901 --1202: 			DestPage_Point = dm_RadioSubPage + INDEX_ENT_MEDIA_MUSIC;
                        3902 --line1202
                        3903 ..lin.D.3A.5CRenesas_Electronics.5CD1x_RGL.5Crgl_ghs_D1Lx_obj_V1.2E2.2E0.5Cvlib.5Capp.5Cgfx_apps.5Csimple_draw_d1l2.5Ctarget.5Cd1lx_mango_ghs.5Cobj.5Cdm.205::
                        3904 .LDWlin205:
00000eba 9a0f0100       3905 	ld.bu	0[r26],r1
00000ebe 4b0a           3906 	add	11,r1
00000ec0 7d0f1100       3907 	st.w	r1,16[r29]
                        3908 --1203: 			Dm_Send_Data.CMD.SubPage = dm_RadioSubPage;
00000ec4 9a0f0100       3909 	ld.bu	0[r26],r1
00000ec8 5c0f0200       3910 	st.b	r1,2[r28]
00000ecc a515*          3911 	br	.L2879
                        3912 .L2883:
                        3913 --1204: 			break;
                        3914 --1205: 		case INDEX_FAULT_FAULTLIST:
                        3915 --1206: 			DestPage_Point = DestPage_Matrix[CurPage_Point].CMD_RIGHT.DestPage_Point;
                        3916 --line1206
                        3917 ..lin.D.3A.5CRenesas_Electronics.5CD1x_RGL.5Crgl_ghs_D1Lx_obj_V1.2E2.2E0.5Cvlib.5Capp.5Cgfx_apps.5Csimple_draw_d1l2.5Ctarget.5Cd1lx_mango_ghs.5Cobj.5Cdm.206::
                        3918 .LDWlin206:
00000ece 3d0f0c00       3919 	ld.h	12[r29],r1
00000ed2 e1f60f00       3920 	mulhi	15,r1,ep
00000ed6 dbf1           3921 	add	r27,ep
00000ed8 6508           3922 	sld.bu	5[ep],r1
00000eda 7d0f1100       3923 	st.w	r1,16[r29]
                        3924 --1207: 			Dm_Send_Data.CMD.SubPage = TCSel;
00000ede 210600000000*  3925 	mov	_TCSel,r1
00000ee4 210f0100       3926 	ld.w	0[r1],r1
00000ee8 5c0f0200       3927 	st.b	r1,2[r28]
00000eec a505*          3928 	br	.L2879
                        3929 .L2884:
                        3930 --line1211
                        3931 ..lin.D.3A.5CRenesas_Electronics.5CD1x_RGL.5Crgl_ghs_D1Lx_obj_V1.2E2.2E0.5Cvlib.5Capp.5Cgfx_apps.5Csimple_draw_d1l2.5Ctarget.5Cd1lx_mango_ghs.5Cobj.5Cdm.207::
                        3932 .LDWlin207:
00000eee 0000           3933 	nop
                        3934 .L2879:
                        3935 --1208: 			
                        3936 --1209: 			break;
                        3937 --1210: 		default:
                        3938 --1211: 			break;
                        3939 --1212: 	}
                        3940 --1213: 	Dm_Send_Data.CMD.MainPage = DestPage_Matrix[CurPage_Point].CMD_RIGHT.MainPage;
00000ef0 3d0f0c00       3941 	ld.h	12[r29],r1
00000ef4 e1f60f00       3942 	mulhi	15,r1,ep
00000ef8 dbf1           3943 	add	r27,ep
00000efa 6308           3944 	sld.bu	3[ep],r1

                                                                      Page 70
                                                              C:\Users\YINGAO~1\AppData\Local\Temp\gh_000004s1.si
00000efc 5c0f0100       3945 	st.b	r1,1[r28]
                        3946 --1214: 	CurPage_Point = DestPage_Point;
00000f00 3d0f1100       3947 	ld.w	16[r29],r1
00000f04 7d0f0d00       3948 	st.w	r1,12[r29]
                        3949 --1215: }
00000f08 0000           3950 	nop
                        3951 --	    .ef
                        3952 .LDW35:
00000f0a 4406ff70       3953 	dispose	2,{r25,r26,r27,r28,r29,r31},[lp]
                        3954 	.type	_dm_KeyRespond_RIGHT,@function
                        3955 	.size	_dm_KeyRespond_RIGHT,.-_dm_KeyRespond_RIGHT
                        3956 	.type	_dm_KeyRespond_RIGHT..D.3A.5CRenesas_Electronics.5CD1x_RGL.5Crgl_ghs_D1Lx_obj_V1.2E2.2E0.5Cvlib.5Capp.5Cgfx_apps.5Csimple_draw_d1l2.5Ctarget.5Cd1lx_mango_ghs.5Cobj.5Cdm.,@function
                        3957 	.size	_dm_KeyRespond_RIGHT..D.3A.5CRenesas_Electronics.5CD1x_RGL.5Crgl_ghs_D1Lx_obj_V1.2E2.2E0.5Cvlib.5Capp.5Cgfx_apps.5Csimple_draw_d1l2.5Ctarget.5Cd1lx_mango_ghs.5Cobj.5Cdm.,.-_dm_KeyRespond_RIGHT..D.3A.5CRenesas_Electronics.5CD1x_RGL.5Crgl_ghs_D1Lx_obj_V1.2E2.2E0.5Cvlib.5Capp.5Cgfx_apps.5Csimple_draw_d1l2.5Ctarget.5Cd1lx_mango_ghs.5Cobj.5Cdm.
                        3958 	.align	2
                        3959 .LDW45:
                        3960 --_NavDircn	0[sp]	local
                        3961 --_NavDist	2[sp]	local
                        3962 --_MusSrcMd	1[sp]	local
                        3963 
                        3964 	.data
                        3965 	.text
                        3966 
                        3967 
                        3968 --1218: /**************************************************
                        3969 --1219: *Function :dm_Get_Trip_Tirepress_Data
                        3970 --1220: *Description:  KEY-right RESPONSE
                        3971 --1221: *Parameters:none
                        3972 --1222: *Returns: none
                        3973 --1223: **create&Verlog:
                        3974 --1224: *Author Name xs  Date:2017-09-22   Ver:02
                        3975 --1225: ***************************************************/
                        3976 --1226: void dm_Get_Trip_Tirepress_Data(Dm_TC_TirePress_ST *TirePress)
                        3977 	.align	2
                        3978 	.align	2
                        3979 	.global	_dm_Get_Trip_Tirepress_Data
                        3980 _dm_Get_Trip_Tirepress_Data:
00000f0e 8a076100       3981 	prepare	{r29,r31},5
00000f12 06e8           3982 	mov	r6,r29
                        3983 --	    .bf
                        3984 .LDW55:
                        3985 --1227: {
                        3986 --1228: 	BOOL FLTirePressV;
                        3987 --1229: 	BOOL FLTireTempV;
                        3988 --1230: 	BOOL FRTirePressV;
                        3989 --1231: 	BOOL FRTireTempV;
                        3990 --1232: 	BOOL RLTirePressV;
                        3991 --1233: 	BOOL RLTireTempV;
                        3992 --1234: 	BOOL RRTirePressV;
                        3993 --1235: 	BOOL RRTireTempV;
                        3994 --1236: 	U8 FLTirePress;
                        3995 --1237: 	U8 FLTireTemp;
                        3996 --1238: 	U8 FRTirePress;
                        3997 --1239: 	U8 FRTireTemp;
                        3998 --1240: 	U8 RLTirePress;
                        3999 --1241: 	U8 RLTireTemp;
                        4000 --1242: 	U8 RRTirePress;
                        4001 --1243: 	U8 RRTireTemp;
                        4002 --1244: 	U8 FLTireSts;
                        4003 --1245: 	U8 FRTireSts;
                        4004 --1246: 	U8 RLTireSts;
                        4005 --1247: 	U8 RRTireSts;

                                                                      Page 71
                                                              C:\Users\YINGAO~1\AppData\Local\Temp\gh_000004s1.si
                        4006 --1249: 	COM_GetSignalValue_8(INDEX_COM_RS_FLTIREPRSV, &FLTirePressV);
00000f14 20363500       4007 	movea	53,zero,r6
00000f18 233e0000       4008 	movea	0,sp,r7
                        4009 	jarl	_COM_GetSignalValue_8,lp
                        4009 <EXPANSION BEGIN>
                        4009 jarl22 _COM_GetSignalValue_8 , lp 
00000f1c 80ff0000*      4009 <EXPANSION END>
                        4010 --1250: 	COM_GetSignalValue_8(INDEX_COM_RS_FLTIRETEMV, &FLTireTempV);
                        4011 --line1250
                        4012 ..lin.D.3A.5CRenesas_Electronics.5CD1x_RGL.5Crgl_ghs_D1Lx_obj_V1.2E2.2E0.5Cvlib.5Capp.5Cgfx_apps.5Csimple_draw_d1l2.5Ctarget.5Cd1lx_mango_ghs.5Cobj.5Cdm.208::
                        4013 .LDWlin208:
00000f20 20369600       4014 	movea	150,zero,r6
00000f24 233e0100       4015 	movea	1,sp,r7
                        4016 	jarl	_COM_GetSignalValue_8,lp
                        4016 <EXPANSION BEGIN>
                        4016 jarl22 _COM_GetSignalValue_8 , lp 
00000f28 80ff0000*      4016 <EXPANSION END>
                        4017 --1251: 	COM_GetSignalValue_8(INDEX_COM_RS_FRTIREPRSV, &FRTirePressV);
                        4018 --line1251
                        4019 ..lin.D.3A.5CRenesas_Electronics.5CD1x_RGL.5Crgl_ghs_D1Lx_obj_V1.2E2.2E0.5Cvlib.5Capp.5Cgfx_apps.5Csimple_draw_d1l2.5Ctarget.5Cd1lx_mango_ghs.5Cobj.5Cdm.209::
                        4020 .LDWlin209:
00000f2c 20363800       4021 	movea	56,zero,r6
00000f30 233e0200       4022 	movea	2,sp,r7
                        4023 	jarl	_COM_GetSignalValue_8,lp
                        4023 <EXPANSION BEGIN>
                        4023 jarl22 _COM_GetSignalValue_8 , lp 
00000f34 80ff0000*      4023 <EXPANSION END>
                        4024 --1252: 	COM_GetSignalValue_8(INDEX_COM_RS_FRTIRETEMV, &FRTireTempV);
                        4025 --line1252
                        4026 ..lin.D.3A.5CRenesas_Electronics.5CD1x_RGL.5Crgl_ghs_D1Lx_obj_V1.2E2.2E0.5Cvlib.5Capp.5Cgfx_apps.5Csimple_draw_d1l2.5Ctarget.5Cd1lx_mango_ghs.5Cobj.5Cdm.210::
                        4027 .LDWlin210:
00000f38 20369800       4028 	movea	152,zero,r6
00000f3c 233e0300       4029 	movea	3,sp,r7
                        4030 	jarl	_COM_GetSignalValue_8,lp
                        4030 <EXPANSION BEGIN>
                        4030 jarl22 _COM_GetSignalValue_8 , lp 
00000f40 80ff0000*      4030 <EXPANSION END>
                        4031 --1253: 	COM_GetSignalValue_8(INDEX_COM_RS_RLTIREPRSV, &RLTirePressV);
                        4032 --line1253
                        4033 ..lin.D.3A.5CRenesas_Electronics.5CD1x_RGL.5Crgl_ghs_D1Lx_obj_V1.2E2.2E0.5Cvlib.5Capp.5Cgfx_apps.5Csimple_draw_d1l2.5Ctarget.5Cd1lx_mango_ghs.5Cobj.5Cdm.211::
                        4034 .LDWlin211:
00000f44 20363b00       4035 	movea	59,zero,r6
00000f48 233e0400       4036 	movea	4,sp,r7
                        4037 	jarl	_COM_GetSignalValue_8,lp
                        4037 <EXPANSION BEGIN>
                        4037 jarl22 _COM_GetSignalValue_8 , lp 
00000f4c 80ff0000*      4037 <EXPANSION END>
                        4038 --1254: 	COM_GetSignalValue_8(INDEX_COM_RS_RLTIRETEMV, &RLTireTempV);
                        4039 --line1254
                        4040 ..lin.D.3A.5CRenesas_Electronics.5CD1x_RGL.5Crgl_ghs_D1Lx_obj_V1.2E2.2E0.5Cvlib.5Capp.5Cgfx_apps.5Csimple_draw_d1l2.5Ctarget.5Cd1lx_mango_ghs.5Cobj.5Cdm.212::
                        4041 .LDWlin212:
00000f50 2036a100       4042 	movea	161,zero,r6
00000f54 233e0500       4043 	movea	5,sp,r7
                        4044 	jarl	_COM_GetSignalValue_8,lp
                        4044 <EXPANSION BEGIN>
                        4044 jarl22 _COM_GetSignalValue_8 , lp 
00000f58 80ff0000*      4044 <EXPANSION END>
                        4045 --1255: 	COM_GetSignalValue_8(INDEX_COM_RS_RRTIREPRSV, &RRTirePressV);
                        4046 --line1255
                        4047 ..lin.D.3A.5CRenesas_Electronics.5CD1x_RGL.5Crgl_ghs_D1Lx_obj_V1.2E2.2E0.5Cvlib.5Capp.5Cgfx_apps.5Csimple_draw_d1l2.5Ctarget.5Cd1lx_mango_ghs.5Cobj.5Cdm.213::
                        4048 .LDWlin213:

                                                                      Page 72
                                                              C:\Users\YINGAO~1\AppData\Local\Temp\gh_000004s1.si
00000f5c 20363e00       4049 	movea	62,zero,r6
00000f60 233e0600       4050 	movea	6,sp,r7
                        4051 	jarl	_COM_GetSignalValue_8,lp
                        4051 <EXPANSION BEGIN>
                        4051 jarl22 _COM_GetSignalValue_8 , lp 
00000f64 80ff0000*      4051 <EXPANSION END>
                        4052 --1256: 	COM_GetSignalValue_8(INDEX_COM_RS_RRTIRETEMV, &RRTireTempV);
                        4053 --line1256
                        4054 ..lin.D.3A.5CRenesas_Electronics.5CD1x_RGL.5Crgl_ghs_D1Lx_obj_V1.2E2.2E0.5Cvlib.5Capp.5Cgfx_apps.5Csimple_draw_d1l2.5Ctarget.5Cd1lx_mango_ghs.5Cobj.5Cdm.214::
                        4055 .LDWlin214:
00000f68 2036a400       4056 	movea	164,zero,r6
00000f6c 233e0700       4057 	movea	7,sp,r7
                        4058 	jarl	_COM_GetSignalValue_8,lp
                        4058 <EXPANSION BEGIN>
                        4058 jarl22 _COM_GetSignalValue_8 , lp 
00000f70 80ff0000*      4058 <EXPANSION END>
                        4059 --1257: 	COM_GetSignalValue_8(INDEX_COM_RS_FLTIREPRS, &FLTirePress);
                        4060 --line1257
                        4061 ..lin.D.3A.5CRenesas_Electronics.5CD1x_RGL.5Crgl_ghs_D1Lx_obj_V1.2E2.2E0.5Cvlib.5Capp.5Cgfx_apps.5Csimple_draw_d1l2.5Ctarget.5Cd1lx_mango_ghs.5Cobj.5Cdm.215::
                        4062 .LDWlin215:
00000f74 20363400       4063 	movea	52,zero,r6
00000f78 233e0800       4064 	movea	8,sp,r7
                        4065 	jarl	_COM_GetSignalValue_8,lp
                        4065 <EXPANSION BEGIN>
                        4065 jarl22 _COM_GetSignalValue_8 , lp 
00000f7c 80ff0000*      4065 <EXPANSION END>
                        4066 --1258: 	COM_GetSignalValue_8(INDEX_COM_RS_FLTIRETEM, &FLTireTemp);
                        4067 --line1258
                        4068 ..lin.D.3A.5CRenesas_Electronics.5CD1x_RGL.5Crgl_ghs_D1Lx_obj_V1.2E2.2E0.5Cvlib.5Capp.5Cgfx_apps.5Csimple_draw_d1l2.5Ctarget.5Cd1lx_mango_ghs.5Cobj.5Cdm.216::
                        4069 .LDWlin216:
00000f80 20369500       4070 	movea	149,zero,r6
00000f84 233e0900       4071 	movea	9,sp,r7
                        4072 	jarl	_COM_GetSignalValue_8,lp
                        4072 <EXPANSION BEGIN>
                        4072 jarl22 _COM_GetSignalValue_8 , lp 
00000f88 80ff0000*      4072 <EXPANSION END>
                        4073 --1259: 	COM_GetSignalValue_8(INDEX_COM_RS_FRTIREPRS, &FRTirePress);
                        4074 --line1259
                        4075 ..lin.D.3A.5CRenesas_Electronics.5CD1x_RGL.5Crgl_ghs_D1Lx_obj_V1.2E2.2E0.5Cvlib.5Capp.5Cgfx_apps.5Csimple_draw_d1l2.5Ctarget.5Cd1lx_mango_ghs.5Cobj.5Cdm.217::
                        4076 .LDWlin217:
00000f8c 20363700       4077 	movea	55,zero,r6
00000f90 233e0a00       4078 	movea	10,sp,r7
                        4079 	jarl	_COM_GetSignalValue_8,lp
                        4079 <EXPANSION BEGIN>
                        4079 jarl22 _COM_GetSignalValue_8 , lp 
00000f94 80ff0000*      4079 <EXPANSION END>
                        4080 --1260: 	COM_GetSignalValue_8(INDEX_COM_RS_FRTIRETEM, &FRTireTemp);
                        4081 --line1260
                        4082 ..lin.D.3A.5CRenesas_Electronics.5CD1x_RGL.5Crgl_ghs_D1Lx_obj_V1.2E2.2E0.5Cvlib.5Capp.5Cgfx_apps.5Csimple_draw_d1l2.5Ctarget.5Cd1lx_mango_ghs.5Cobj.5Cdm.218::
                        4083 .LDWlin218:
00000f98 20369700       4084 	movea	151,zero,r6
00000f9c 233e0b00       4085 	movea	11,sp,r7
                        4086 	jarl	_COM_GetSignalValue_8,lp
                        4086 <EXPANSION BEGIN>
                        4086 jarl22 _COM_GetSignalValue_8 , lp 
00000fa0 80ff0000*      4086 <EXPANSION END>
                        4087 --1261: 	COM_GetSignalValue_8(INDEX_COM_RS_RLTIREPRS, &RLTirePress);
                        4088 --line1261
                        4089 ..lin.D.3A.5CRenesas_Electronics.5CD1x_RGL.5Crgl_ghs_D1Lx_obj_V1.2E2.2E0.5Cvlib.5Capp.5Cgfx_apps.5Csimple_draw_d1l2.5Ctarget.5Cd1lx_mango_ghs.5Cobj.5Cdm.219::
                        4090 .LDWlin219:
00000fa4 20363a00       4091 	movea	58,zero,r6

                                                                      Page 73
                                                              C:\Users\YINGAO~1\AppData\Local\Temp\gh_000004s1.si
00000fa8 233e0c00       4092 	movea	12,sp,r7
                        4093 	jarl	_COM_GetSignalValue_8,lp
                        4093 <EXPANSION BEGIN>
                        4093 jarl22 _COM_GetSignalValue_8 , lp 
00000fac 80ff0000*      4093 <EXPANSION END>
                        4094 --1262: 	COM_GetSignalValue_8(INDEX_COM_RS_RLTIRETEM, &RLTireTemp);
                        4095 --line1262
                        4096 ..lin.D.3A.5CRenesas_Electronics.5CD1x_RGL.5Crgl_ghs_D1Lx_obj_V1.2E2.2E0.5Cvlib.5Capp.5Cgfx_apps.5Csimple_draw_d1l2.5Ctarget.5Cd1lx_mango_ghs.5Cobj.5Cdm.220::
                        4097 .LDWlin220:
00000fb0 2036a000       4098 	movea	160,zero,r6
00000fb4 233e0d00       4099 	movea	13,sp,r7
                        4100 	jarl	_COM_GetSignalValue_8,lp
                        4100 <EXPANSION BEGIN>
                        4100 jarl22 _COM_GetSignalValue_8 , lp 
00000fb8 80ff0000*      4100 <EXPANSION END>
                        4101 --1263: 	COM_GetSignalValue_8(INDEX_COM_RS_RRTIREPRS, &RRTirePress);
                        4102 --line1263
                        4103 ..lin.D.3A.5CRenesas_Electronics.5CD1x_RGL.5Crgl_ghs_D1Lx_obj_V1.2E2.2E0.5Cvlib.5Capp.5Cgfx_apps.5Csimple_draw_d1l2.5Ctarget.5Cd1lx_mango_ghs.5Cobj.5Cdm.221::
                        4104 .LDWlin221:
00000fbc 20363d00       4105 	movea	61,zero,r6
00000fc0 233e0e00       4106 	movea	14,sp,r7
                        4107 	jarl	_COM_GetSignalValue_8,lp
                        4107 <EXPANSION BEGIN>
                        4107 jarl22 _COM_GetSignalValue_8 , lp 
00000fc4 80ff0000*      4107 <EXPANSION END>
                        4108 --1264: 	COM_GetSignalValue_8(INDEX_COM_RS_RRTIRETEM, &RRTireTemp);
                        4109 --line1264
                        4110 ..lin.D.3A.5CRenesas_Electronics.5CD1x_RGL.5Crgl_ghs_D1Lx_obj_V1.2E2.2E0.5Cvlib.5Capp.5Cgfx_apps.5Csimple_draw_d1l2.5Ctarget.5Cd1lx_mango_ghs.5Cobj.5Cdm.222::
                        4111 .LDWlin222:
00000fc8 2036a300       4112 	movea	163,zero,r6
00000fcc 233e0f00       4113 	movea	15,sp,r7
                        4114 	jarl	_COM_GetSignalValue_8,lp
                        4114 <EXPANSION BEGIN>
                        4114 jarl22 _COM_GetSignalValue_8 , lp 
00000fd0 80ff0000*      4114 <EXPANSION END>
                        4115 --1265: 	COM_GetSignalValue_8(INDEX_COM_RS_FLTIRESTS, &FLTireSts);
                        4116 --line1265
                        4117 ..lin.D.3A.5CRenesas_Electronics.5CD1x_RGL.5Crgl_ghs_D1Lx_obj_V1.2E2.2E0.5Cvlib.5Capp.5Cgfx_apps.5Csimple_draw_d1l2.5Ctarget.5Cd1lx_mango_ghs.5Cobj.5Cdm.223::
                        4118 .LDWlin223:
00000fd4 20363600       4119 	movea	54,zero,r6
00000fd8 233e1000       4120 	movea	16,sp,r7
                        4121 	jarl	_COM_GetSignalValue_8,lp
                        4121 <EXPANSION BEGIN>
                        4121 jarl22 _COM_GetSignalValue_8 , lp 
00000fdc 80ff0000*      4121 <EXPANSION END>
                        4122 --1266: 	COM_GetSignalValue_8(INDEX_COM_RS_FRTIRESTS, &FRTireSts);
                        4123 --line1266
                        4124 ..lin.D.3A.5CRenesas_Electronics.5CD1x_RGL.5Crgl_ghs_D1Lx_obj_V1.2E2.2E0.5Cvlib.5Capp.5Cgfx_apps.5Csimple_draw_d1l2.5Ctarget.5Cd1lx_mango_ghs.5Cobj.5Cdm.224::
                        4125 .LDWlin224:
00000fe0 20363900       4126 	movea	57,zero,r6
00000fe4 233e1100       4127 	movea	17,sp,r7
                        4128 	jarl	_COM_GetSignalValue_8,lp
                        4128 <EXPANSION BEGIN>
                        4128 jarl22 _COM_GetSignalValue_8 , lp 
00000fe8 80ff0000*      4128 <EXPANSION END>
                        4129 --1267: 	COM_GetSignalValue_8(INDEX_COM_RS_RLTIRESTS, &RLTireSts);
                        4130 --line1267
                        4131 ..lin.D.3A.5CRenesas_Electronics.5CD1x_RGL.5Crgl_ghs_D1Lx_obj_V1.2E2.2E0.5Cvlib.5Capp.5Cgfx_apps.5Csimple_draw_d1l2.5Ctarget.5Cd1lx_mango_ghs.5Cobj.5Cdm.225::
                        4132 .LDWlin225:
00000fec 20363c00       4133 	movea	60,zero,r6
00000ff0 233e1200       4134 	movea	18,sp,r7

                                                                      Page 74
                                                              C:\Users\YINGAO~1\AppData\Local\Temp\gh_000004s1.si
                        4135 	jarl	_COM_GetSignalValue_8,lp
                        4135 <EXPANSION BEGIN>
                        4135 jarl22 _COM_GetSignalValue_8 , lp 
00000ff4 80ff0000*      4135 <EXPANSION END>
                        4136 --1268: 	COM_GetSignalValue_8(INDEX_COM_RS_RRTIRESTS, &RRTireSts);
                        4137 --line1268
                        4138 ..lin.D.3A.5CRenesas_Electronics.5CD1x_RGL.5Crgl_ghs_D1Lx_obj_V1.2E2.2E0.5Cvlib.5Capp.5Cgfx_apps.5Csimple_draw_d1l2.5Ctarget.5Cd1lx_mango_ghs.5Cobj.5Cdm.226::
                        4139 .LDWlin226:
00000ff8 20363f00       4140 	movea	63,zero,r6
00000ffc 233e1300       4141 	movea	19,sp,r7
                        4142 	jarl	_COM_GetSignalValue_8,lp
                        4142 <EXPANSION BEGIN>
                        4142 jarl22 _COM_GetSignalValue_8 , lp 
00001000 80ff0000*      4142 <EXPANSION END>
                        4143 --1270: 	TirePress->FLTirePressV = FLTirePressV;
                        4144 --line1270
                        4145 ..lin.D.3A.5CRenesas_Electronics.5CD1x_RGL.5Crgl_ghs_D1Lx_obj_V1.2E2.2E0.5Cvlib.5Capp.5Cgfx_apps.5Csimple_draw_d1l2.5Ctarget.5Cd1lx_mango_ghs.5Cobj.5Cdm.227::
                        4146 .LDWlin227:
00001004 830f0100       4147 	ld.bu	0[sp],r1
00001008 5d0f0000       4148 	st.b	r1,0[r29]
                        4149 --1271: 	TirePress->FLTireTempV = FLTireTempV;
0000100c a30f0100       4150 	ld.bu	1[sp],r1
00001010 5d0f0100       4151 	st.b	r1,1[r29]
                        4152 --1272: 	TirePress->FRTirePressV = FRTirePressV;
00001014 830f0300       4153 	ld.bu	2[sp],r1
00001018 5d0f0200       4154 	st.b	r1,2[r29]
                        4155 --1273: 	TirePress->FRTireTempV = FRTireTempV;
0000101c a30f0300       4156 	ld.bu	3[sp],r1
00001020 5d0f0300       4157 	st.b	r1,3[r29]
                        4158 --1274: 	TirePress->RLTirePressV = RLTirePressV;
00001024 830f0500       4159 	ld.bu	4[sp],r1
00001028 5d0f0400       4160 	st.b	r1,4[r29]
                        4161 --1275: 	TirePress->RLTireTempV = RLTireTempV;
0000102c a30f0500       4162 	ld.bu	5[sp],r1
00001030 5d0f0500       4163 	st.b	r1,5[r29]
                        4164 --1276: 	TirePress->RRTirePressV = RRTirePressV;
00001034 830f0700       4165 	ld.bu	6[sp],r1
00001038 5d0f0600       4166 	st.b	r1,6[r29]
                        4167 --1277: 	TirePress->RRTireTempV = RRTireTempV;
0000103c a30f0700       4168 	ld.bu	7[sp],r1
00001040 5d0f0700       4169 	st.b	r1,7[r29]
                        4170 --1278: 	TirePress->FLTirePress = FLTirePress;
00001044 830f0900       4171 	ld.bu	8[sp],r1
00001048 7d0f0800       4172 	st.h	r1,8[r29]
                        4173 --1279: 	TirePress->FLTireTemp = FLTireTemp;
0000104c a30f0900       4174 	ld.bu	9[sp],r1
00001050 7d0f0a00       4175 	st.h	r1,10[r29]
                        4176 --1280: 	TirePress->FRTirePress = FRTirePress;
00001054 830f0b00       4177 	ld.bu	10[sp],r1
00001058 7d0f0c00       4178 	st.h	r1,12[r29]
                        4179 --1281: 	TirePress->FRTireTemp = FRTireTemp ;
0000105c a30f0b00       4180 	ld.bu	11[sp],r1
00001060 7d0f0e00       4181 	st.h	r1,14[r29]
                        4182 --1282: 	TirePress->RLTirePress = RLTirePress;
00001064 830f0d00       4183 	ld.bu	12[sp],r1
00001068 7d0f1000       4184 	st.h	r1,16[r29]
                        4185 --1283: 	TirePress->RLTireTemp = RLTireTemp;
0000106c a30f0d00       4186 	ld.bu	13[sp],r1
00001070 7d0f1200       4187 	st.h	r1,18[r29]
                        4188 --1284: 	TirePress->RRTirePress = RRTirePress;
00001074 830f0f00       4189 	ld.bu	14[sp],r1

                                                                      Page 75
                                                              C:\Users\YINGAO~1\AppData\Local\Temp\gh_000004s1.si
00001078 7d0f1400       4190 	st.h	r1,20[r29]
                        4191 --1285: 	TirePress->RRTireTemp = RRTireTemp;
0000107c a30f0f00       4192 	ld.bu	15[sp],r1
00001080 7d0f1600       4193 	st.h	r1,22[r29]
                        4194 --1286: 	TirePress->FLTireSts = FLTireSts;
00001084 830f1100       4195 	ld.bu	16[sp],r1
00001088 5d0f1800       4196 	st.b	r1,24[r29]
                        4197 --1287: 	TirePress->FRTireSts = FRTireSts;
0000108c a30f1100       4198 	ld.bu	17[sp],r1
00001090 5d0f1900       4199 	st.b	r1,25[r29]
                        4200 --1288: 	TirePress->RLTireSts = RLTireSts;
00001094 830f1300       4201 	ld.bu	18[sp],r1
00001098 5d0f1a00       4202 	st.b	r1,26[r29]
                        4203 --1289: 	TirePress->RRTireSts = RRTireSts;
0000109c a30f1300       4204 	ld.bu	19[sp],r1
000010a0 5d0f1b00       4205 	st.b	r1,27[r29]
                        4206 --1290: }
000010a4 0000           4207 	nop
                        4208 --	    .ef
                        4209 .LDW65:
000010a6 4a067f00       4210 	dispose	5,{r29,r31},[lp]
                        4211 	.type	_dm_Get_Trip_Tirepress_Data,@function
                        4212 	.size	_dm_Get_Trip_Tirepress_Data,.-_dm_Get_Trip_Tirepress_Data
                        4213 	.align	2
                        4214 .LDW75:
                        4215 --_FLTirePressV	0[sp]	local
                        4216 --_FLTireTempV	1[sp]	local
                        4217 --_FRTirePressV	2[sp]	local
                        4218 --_FRTireTempV	3[sp]	local
                        4219 --_RLTirePressV	4[sp]	local
                        4220 --_RLTireTempV	5[sp]	local
                        4221 --_RRTirePressV	6[sp]	local
                        4222 --_RRTireTempV	7[sp]	local
                        4223 --_FLTirePress	8[sp]	local
                        4224 --_FLTireTemp	9[sp]	local
                        4225 --_FRTirePress	10[sp]	local
                        4226 --_FRTireTemp	11[sp]	local
                        4227 --_RLTirePress	12[sp]	local
                        4228 --_RLTireTemp	13[sp]	local
                        4229 --_RRTirePress	14[sp]	local
                        4230 --_RRTireTemp	15[sp]	local
                        4231 --_FLTireSts	16[sp]	local
                        4232 --_FRTireSts	17[sp]	local
                        4233 --_RLTireSts	18[sp]	local
                        4234 --_RRTireSts	19[sp]	local
                        4235 
                        4236 --_TirePress	r29	param
                        4237 
                        4238 	.section ".bss","awb"
                        4239 .L3096:
                        4240 	.type	.L3096,@object
                        4241 	.size	.L3096,0
                        4242 	.data
                        4243 	.text
                        4244 
                        4245 
                        4246 --1293: /**************************************************
                        4247 --1294: *Function :dm_Get_DestData_Process
                        4248 --1295: *Description:  Dest Data Update
                        4249 --1296: *Parameters:none
                        4250 --1297: *Returns: none

                                                                      Page 76
                                                              C:\Users\YINGAO~1\AppData\Local\Temp\gh_000004s1.si
                        4251 --1298: **create&Verlog:
                        4252 --1299: *Author Name xs  Date:2017-09-22   Ver:02
                        4253 --1300: ***************************************************/
                        4254 --1301: static void dm_Get_DestData_Process(U8 isUpdate)
                        4255 	.align	2
                        4256 	.align	2
                        4257 	.global	_dm_Get_DestData_Process..D.3A.5CRenesas_Electronics.5CD1x_RGL.5Crgl_ghs_D1Lx_obj_V1.2E2.2E0.5Cvlib.5Capp.5Cgfx_apps.5Csimple_draw_d1l2.5Ctarget.5Cd1lx_mango_ghs.5Cobj.5Cdm.
                        4258 _dm_Get_DestData_Process..D.3A.5CRenesas_Electronics.5CD1x_RGL.5Crgl_ghs_D1Lx_obj_V1.2E2.2E0.5Cvlib.5Capp.5Cgfx_apps.5Csimple_draw_d1l2.5Ctarget.5Cd1lx_mango_ghs.5Cobj.5Cdm.:
                        4259 _dm_Get_DestData_Process:
000010aa 8e07e130       4260 	prepare	{r26,r27,r28,r29,r31},7
000010ae 3d0600000000*  4261 	mov	_logoCnt,r29
000010b4 c6d6ff00       4262 	andi	255,r6,r26
000010b8 3de63800       4263 	movea	56,r29,r28
                        4264 --	    .bf
                        4265 .LDW85:
                        4266 --1302: {
                        4267 --1303: 	U8 res;
                        4268 --1304: 	U8 sts;
                        4269 --1305: 	PTime_ST Time;
                        4270 --1306: 	U32 OdoValue;
                        4271 --1307: 	MSG_EVENT_ENUM Cur_EventOccur;
                        4272 --1308: 	AccGearInfo_ST GearType;
                        4273 --1310: 	res = RTC_GetCurTime(&Time);
000010bc 23361200       4274 	movea	18,sp,r6
                        4275 	jarl	_RTC_GetCurTime,lp
                        4275 <EXPANSION BEGIN>
                        4275 jarl22 _RTC_GetCurTime , lp 
000010c0 80ff0000*      4275 <EXPANSION END>
000010c4 0ad8           4276 	mov	r10,r27
                        4277 --1311: 	memcpy(&Dm_Send_Data.DATA.time, &Time, sizeof(PTime_ST));
                        4278 --line1311
                        4279 ..lin.D.3A.5CRenesas_Electronics.5CD1x_RGL.5Crgl_ghs_D1Lx_obj_V1.2E2.2E0.5Cvlib.5Capp.5Cgfx_apps.5Csimple_draw_d1l2.5Ctarget.5Cd1lx_mango_ghs.5Cobj.5Cdm.228::
                        4280 .LDWlin228:
000010c6 1c360400       4281 	addi	4,r28,r6
000010ca 233e1200       4282 	movea	18,sp,r7
000010ce 0a42           4283 	mov	10,r8
                        4284 	jarl	_memcpy,lp
                        4284 <EXPANSION BEGIN>
                        4284 jarl22 _memcpy , lp 
000010d0 80ff0000*      4284 <EXPANSION END>
                        4285 --1312: 	Dm_Send_Data.DATA.odoTgt.show = TRUE;
                        4286 --line1312
                        4287 ..lin.D.3A.5CRenesas_Electronics.5CD1x_RGL.5Crgl_ghs_D1Lx_obj_V1.2E2.2E0.5Cvlib.5Capp.5Cgfx_apps.5Csimple_draw_d1l2.5Ctarget.5Cd1lx_mango_ghs.5Cobj.5Cdm.229::
                        4288 .LDWlin229:
000010d4 010a           4289 	mov	1,r1
000010d6 5d0f4900       4290 	st.b	r1,73[r29]
                        4291 --1313:        EVT_GetCrusTgtSpd(&Dm_Send_Data.DATA.odoTgt.isCrusTgt,&OdoValue);
000010da 1c361000       4292 	addi	16,r28,r6
000010de 233e0400       4293 	movea	4,sp,r7
                        4294 	jarl	_EVT_GetCrusTgtSpd,lp
                        4294 <EXPANSION BEGIN>
                        4294 jarl22 _EVT_GetCrusTgtSpd , lp 
000010e2 80ff0000*      4294 <EXPANSION END>
                        4295 --1314: 	if(FALSE == Dm_Send_Data.DATA.odoTgt.isCrusTgt)
                        4296 --line1314
                        4297 ..lin.D.3A.5CRenesas_Electronics.5CD1x_RGL.5Crgl_ghs_D1Lx_obj_V1.2E2.2E0.5Cvlib.5Capp.5Cgfx_apps.5Csimple_draw_d1l2.5Ctarget.5Cd1lx_mango_ghs.5Cobj.5Cdm.230::
                        4298 .LDWlin230:
000010e6 9d0f4900       4299 	ld.bu	72[r29],r1
000010ea e009           4300 	cmp	zero,r1
000010ec 8a1d*          4301 	bne	.L3237
                        4302 --1315:     {

                                                                      Page 77
                                                              C:\Users\YINGAO~1\AppData\Local\Temp\gh_000004s1.si
                        4303 --1316:         res = ODO_GetODOValue(INDEX_ODO_ODOVALUE, &OdoValue);
                        4304 --line1316
                        4305 ..lin.D.3A.5CRenesas_Electronics.5CD1x_RGL.5Crgl_ghs_D1Lx_obj_V1.2E2.2E0.5Cvlib.5Capp.5Cgfx_apps.5Csimple_draw_d1l2.5Ctarget.5Cd1lx_mango_ghs.5Cobj.5Cdm.231::
                        4306 .LDWlin231:
000010ee 0032           4307 	mov	0,r6
000010f0 233e0400       4308 	movea	4,sp,r7
                        4309 	jarl	_ODO_GetODOValue,lp
                        4309 <EXPANSION BEGIN>
                        4309 jarl22 _ODO_GetODOValue , lp 
000010f4 80ff0000*      4309 <EXPANSION END>
000010f8 0ad8           4310 	mov	r10,r27
                        4311 --1317: 		EED_GetEEPROMStatus(&sts);	
                        4312 --line1317
                        4313 ..lin.D.3A.5CRenesas_Electronics.5CD1x_RGL.5Crgl_ghs_D1Lx_obj_V1.2E2.2E0.5Cvlib.5Capp.5Cgfx_apps.5Csimple_draw_d1l2.5Ctarget.5Cd1lx_mango_ghs.5Cobj.5Cdm.232::
                        4314 .LDWlin232:
000010fa 23360300       4315 	movea	3,sp,r6
                        4316 	jarl	_EED_GetEEPROMStatus,lp
                        4316 <EXPANSION BEGIN>
                        4316 jarl22 _EED_GetEEPROMStatus , lp 
000010fe 80ff0000*      4316 <EXPANSION END>
                        4317 --1318: 			switch(sts)
                        4318 --line1318
                        4319 ..lin.D.3A.5CRenesas_Electronics.5CD1x_RGL.5Crgl_ghs_D1Lx_obj_V1.2E2.2E0.5Cvlib.5Capp.5Cgfx_apps.5Csimple_draw_d1l2.5Ctarget.5Cd1lx_mango_ghs.5Cobj.5Cdm.233::
                        4320 .LDWlin233:
00001102 a30f0300       4321 	ld.bu	3[sp],r1
00001106 e009           4322 	cmp	zero,r1
00001108 e205*          4323 	be	.L3235
0000110a 5e0a           4324 	add	-2,r1
0000110c 630a           4325 	cmp	3,r1
0000110e eb05*          4326 	bh	.L3236
00001110 a905*          4327 	bnl	.L3235
                        4328 --line1323
                        4329 ..lin.D.3A.5CRenesas_Electronics.5CD1x_RGL.5Crgl_ghs_D1Lx_obj_V1.2E2.2E0.5Cvlib.5Capp.5Cgfx_apps.5Csimple_draw_d1l2.5Ctarget.5Cd1lx_mango_ghs.5Cobj.5Cdm.234::
                        4330 .LDWlin234:
00001112 d505*          4331 	br	.L3237
                        4332 .L3235:
                        4333 --1319: 			{
                        4334 --1320: 			    case STATUS_EED_READING:
                        4335 --1321: 			    case STATUS_EED_WRITEING:
                        4336 --1322: 			    case STATUS_EED_PROTECTING:
                        4337 --1323: 				break;
                        4338 --1324: 				
                        4339 --1325: 			    case STATUS_EED_UNKNOWN:
                        4340 --1326: 			    case STATUS_EED_ERR:
                        4341 --1327: 			        Dm_Send_Data.DATA.odoTgt.show = FALSE; 
                        4342 --line1327
                        4343 ..lin.D.3A.5CRenesas_Electronics.5CD1x_RGL.5Crgl_ghs_D1Lx_obj_V1.2E2.2E0.5Cvlib.5Capp.5Cgfx_apps.5Csimple_draw_d1l2.5Ctarget.5Cd1lx_mango_ghs.5Cobj.5Cdm.235::
                        4344 .LDWlin235:
00001114 5d074900       4345 	st.b	zero,73[r29]
00001118 a505*          4346 	br	.L3237
                        4347 .L3236:
                        4348 --line1332
                        4349 ..lin.D.3A.5CRenesas_Electronics.5CD1x_RGL.5Crgl_ghs_D1Lx_obj_V1.2E2.2E0.5Cvlib.5Capp.5Cgfx_apps.5Csimple_draw_d1l2.5Ctarget.5Cd1lx_mango_ghs.5Cobj.5Cdm.236::
                        4350 .LDWlin236:
0000111a 0000           4351 	nop
                        4352 .L3237:
                        4353 --1328: 			    	break;
                        4354 --1330: 			    case STATUS_EED_IDLE:
                        4355 --1331: 			    default:
                        4356 --1332: 			    	break;		
                        4357 --1333: 			}     

                                                                      Page 78
                                                              C:\Users\YINGAO~1\AppData\Local\Temp\gh_000004s1.si
                        4358 --1334:     }
                        4359 --1335:     else
                        4360 --1336:     {
                        4361 --1337:     }
                        4362 --1338: 	if(OdoValue > 999999)
0000111c 23770500       4363 	ld.w	4[sp],r14
00001120 21063f420f00   4364 	mov	999999,r1
00001126 e171           4365 	cmp	r1,r14
00001128 e305*          4366 	bnh	.L3240
                        4367 --1339: 	{
                        4368 --1340: 		OdoValue = 999999;
                        4369 --line1340
                        4370 ..lin.D.3A.5CRenesas_Electronics.5CD1x_RGL.5Crgl_ghs_D1Lx_obj_V1.2E2.2E0.5Cvlib.5Capp.5Cgfx_apps.5Csimple_draw_d1l2.5Ctarget.5Cd1lx_mango_ghs.5Cobj.5Cdm.237::
                        4371 .LDWlin237:
0000112a 21063f420f00   4372 	mov	999999,r1
00001130 630f0500       4373 	st.w	r1,4[sp]
                        4374 .L3240:
                        4375 --1341: 	}
                        4376 --1342: 	else
                        4377 --1343: 	{
                        4378 --1344: 	}
                        4379 --1345:     Dm_Send_Data.DATA.odoTgt.value = OdoValue;
00001134 230f0500       4380 	ld.w	4[sp],r1
00001138 7d0f4d00       4381 	st.w	r1,76[r29]
                        4382 --1346: 	res = ACC_GetGearSts(&GearType);
0000113c 23360800       4383 	movea	8,sp,r6
                        4384 	jarl	_ACC_GetGearSts,lp
                        4384 <EXPANSION BEGIN>
                        4384 jarl22 _ACC_GetGearSts , lp 
00001140 80ff0000*      4384 <EXPANSION END>
00001144 0ad8           4385 	mov	r10,r27
                        4386 --1347: 	Dm_Send_Data.DATA.GearType = GearType;
                        4387 --line1347
                        4388 ..lin.D.3A.5CRenesas_Electronics.5CD1x_RGL.5Crgl_ghs_D1Lx_obj_V1.2E2.2E0.5Cvlib.5Capp.5Cgfx_apps.5Csimple_draw_d1l2.5Ctarget.5Cd1lx_mango_ghs.5Cobj.5Cdm.238::
                        4389 .LDWlin238:
00001146 23f60800       4390 	movea	8,sp,ep
0000114a 1c0e1800       4391 	addi	24,r28,r1
0000114e 0075           4392 	sld.w	0[ep],r14
00001150 026d           4393 	sld.w	4[ep],r13
00001152 61770100       4394 	st.w	r14,0[r1]
00001156 616f0500       4395 	st.w	r13,4[r1]
                        4396 --1348: 	
                        4397 --1349: 	if(INDEX_LOGO == Dm_Send_Data.CMD.PageType)
0000115a 9d0f3900       4398 	ld.bu	56[r29],r1
0000115e 610a           4399 	cmp	1,r1
00001160 da0d*          4400 	bne	.L3241
                        4401 --1350: 	{
                        4402 --1351: 		Dm_Send_Data.DATA.Buffer.Logo_index = logoTab[logoCnt];
                        4403 --line1351
                        4404 ..lin.D.3A.5CRenesas_Electronics.5CD1x_RGL.5Crgl_ghs_D1Lx_obj_V1.2E2.2E0.5Cvlib.5Capp.5Cgfx_apps.5Csimple_draw_d1l2.5Ctarget.5Cd1lx_mango_ghs.5Cobj.5Cdm.239::
                        4405 .LDWlin239:
00001162 3e0600000000*  4406 	mov	_logoCnt,ep
00001168 00f5           4407 	sld.w	0[ep],ep
0000116a 2e0600000000*  4408 	mov	_logoTab,r14
00001170 cef1           4409 	add	r14,ep
00001172 6008           4410 	sld.bu	0[ep],r1
00001174 5d0f5800       4411 	st.b	r1,88[r29]
00001178 8535*          4412 	br	.L3243
                        4413 .L3241:
                        4414 --1352: 	}
                        4415 --1353: 	else if(INDEX_POPUP == Dm_Send_Data.CMD.PageType)

                                                                      Page 79
                                                              C:\Users\YINGAO~1\AppData\Local\Temp\gh_000004s1.si
                        4416 --line1353
                        4417 ..lin.D.3A.5CRenesas_Electronics.5CD1x_RGL.5Crgl_ghs_D1Lx_obj_V1.2E2.2E0.5Cvlib.5Capp.5Cgfx_apps.5Csimple_draw_d1l2.5Ctarget.5Cd1lx_mango_ghs.5Cobj.5Cdm.240::
                        4418 .LDWlin240:
0000117a 9d0f3900       4419 	ld.bu	56[r29],r1
0000117e 630a           4420 	cmp	3,r1
00001180 ca15*          4421 	bne	.L3244
                        4422 --1354: 	{
                        4423 --1355: 		if(POPUP_MAINFUNCTION_MSG == Dm_Send_Data.CMD.MainPage)
                        4424 --line1355
                        4425 ..lin.D.3A.5CRenesas_Electronics.5CD1x_RGL.5Crgl_ghs_D1Lx_obj_V1.2E2.2E0.5Cvlib.5Capp.5Cgfx_apps.5Csimple_draw_d1l2.5Ctarget.5Cd1lx_mango_ghs.5Cobj.5Cdm.241::
                        4426 .LDWlin241:
00001182 bd0f3900       4427 	ld.bu	57[r29],r1
00001186 e009           4428 	cmp	zero,r1
00001188 ca05*          4429 	bne	.L3246
                        4430 --1356: 		{
                        4431 --1357: 			dm_Get_POPUP_MainPage_MSG_Data();
                        4432 --line1357
                        4433 ..lin.D.3A.5CRenesas_Electronics.5CD1x_RGL.5Crgl_ghs_D1Lx_obj_V1.2E2.2E0.5Cvlib.5Capp.5Cgfx_apps.5Csimple_draw_d1l2.5Ctarget.5Cd1lx_mango_ghs.5Cobj.5Cdm.242::
                        4434 .LDWlin242:
                        4435 	jarl	_dm_Get_POPUP_MainPage_MSG_Data,lp
                        4435 <EXPANSION BEGIN>
                        4435 jarl22 _dm_Get_POPUP_MainPage_MSG_Data , lp 
0000118a bfffbcf3*      4435 <EXPANSION END>
0000118e d525*          4436 	br	.L3243
                        4437 .L3246:
                        4438 --1358: 		}
                        4439 --1359: 		else if(POPUP_MAINFUNCTION_NAVI== Dm_Send_Data.CMD.MainPage)
                        4440 --line1359
                        4441 ..lin.D.3A.5CRenesas_Electronics.5CD1x_RGL.5Crgl_ghs_D1Lx_obj_V1.2E2.2E0.5Cvlib.5Capp.5Cgfx_apps.5Csimple_draw_d1l2.5Ctarget.5Cd1lx_mango_ghs.5Cobj.5Cdm.243::
                        4442 .LDWlin243:
00001190 bd0f3900       4443 	ld.bu	57[r29],r1
00001194 610a           4444 	cmp	1,r1
00001196 9a25*          4445 	bne	.L3243
                        4446 --1360: 		{
                        4447 --1361: 			dm_Get_POPUP_MainPage_Navi_Data(dm_MsgIndex);
                        4448 --line1361
                        4449 ..lin.D.3A.5CRenesas_Electronics.5CD1x_RGL.5Crgl_ghs_D1Lx_obj_V1.2E2.2E0.5Cvlib.5Capp.5Cgfx_apps.5Csimple_draw_d1l2.5Ctarget.5Cd1lx_mango_ghs.5Cobj.5Cdm.244::
                        4450 .LDWlin244:
00001198 260600000000*  4451 	mov	_dm_MsgIndex,r6
0000119e 26370100       4452 	ld.w	0[r6],r6
                        4453 	jarl	_dm_Get_POPUP_MainPage_Navi_Data,lp
                        4453 <EXPANSION BEGIN>
                        4453 jarl22 _dm_Get_POPUP_MainPage_Navi_Data , lp 
000011a2 bfff4af4*      4453 <EXPANSION END>
000011a6 951d*          4454 	br	.L3243
                        4455 .L3244:
                        4456 --1362: 		}	
                        4457 --1363:         else
                        4458 --1364:         {
                        4459 --1365:         }
                        4460 --1366: 	}
                        4461 --1367: 	else/*INDEX_FUNCTION == Dm_Send_Data.CMD.PageType*/
                        4462 --1368: 	{
                        4463 --1371: 		if(MAINFUCTION_TC == Dm_Send_Data.CMD.MainPage)
                        4464 --line1371
                        4465 ..lin.D.3A.5CRenesas_Electronics.5CD1x_RGL.5Crgl_ghs_D1Lx_obj_V1.2E2.2E0.5Cvlib.5Capp.5Cgfx_apps.5Csimple_draw_d1l2.5Ctarget.5Cd1lx_mango_ghs.5Cobj.5Cdm.245::
                        4466 .LDWlin245:
000011a8 bd0f3900       4467 	ld.bu	57[r29],r1
000011ac e009           4468 	cmp	zero,r1
000011ae da05*          4469 	bne	.L3253
                        4470 --1372: 		{

                                                                      Page 80
                                                              C:\Users\YINGAO~1\AppData\Local\Temp\gh_000004s1.si
                        4471 --1373: 			dm_Get_MainPage_TC_Data(isUpdate);
                        4472 --line1373
                        4473 ..lin.D.3A.5CRenesas_Electronics.5CD1x_RGL.5Crgl_ghs_D1Lx_obj_V1.2E2.2E0.5Cvlib.5Capp.5Cgfx_apps.5Csimple_draw_d1l2.5Ctarget.5Cd1lx_mango_ghs.5Cobj.5Cdm.246::
                        4474 .LDWlin246:
000011b0 1a30           4475 	mov	r26,r6
                        4476 	jarl	_dm_Get_MainPage_TC_Data,lp
                        4476 <EXPANSION BEGIN>
                        4476 jarl22 _dm_Get_MainPage_TC_Data , lp 
000011b2 80ff2c00*      4476 <EXPANSION END>
000011b6 9515*          4477 	br	.L3243
                        4478 .L3253:
                        4479 --1374: 		}
                        4480 --1375: 		else if(MAINFUCTION_SET == Dm_Send_Data.CMD.MainPage)
                        4481 --line1375
                        4482 ..lin.D.3A.5CRenesas_Electronics.5CD1x_RGL.5Crgl_ghs_D1Lx_obj_V1.2E2.2E0.5Cvlib.5Capp.5Cgfx_apps.5Csimple_draw_d1l2.5Ctarget.5Cd1lx_mango_ghs.5Cobj.5Cdm.247::
                        4483 .LDWlin247:
000011b8 bd0f3900       4484 	ld.bu	57[r29],r1
000011bc 610a           4485 	cmp	1,r1
000011be ca05*          4486 	bne	.L3256
                        4487 --1376: 		{
                        4488 --1377: 			dm_Get_MainPage_Set_Data();
                        4489 --line1377
                        4490 ..lin.D.3A.5CRenesas_Electronics.5CD1x_RGL.5Crgl_ghs_D1Lx_obj_V1.2E2.2E0.5Cvlib.5Capp.5Cgfx_apps.5Csimple_draw_d1l2.5Ctarget.5Cd1lx_mango_ghs.5Cobj.5Cdm.248::
                        4491 .LDWlin248:
                        4492 	jarl	_dm_Get_MainPage_Set_Data,lp
                        4492 <EXPANSION BEGIN>
                        4492 jarl22 _dm_Get_MainPage_Set_Data , lp 
000011c0 80ff6602*      4492 <EXPANSION END>
000011c4 a50d*          4493 	br	.L3243
                        4494 .L3256:
                        4495 --1378: 		}
                        4496 --1379: 		else if(MAINFUCTION_ENTERTAINMENT == Dm_Send_Data.CMD.MainPage)
                        4497 --line1379
                        4498 ..lin.D.3A.5CRenesas_Electronics.5CD1x_RGL.5Crgl_ghs_D1Lx_obj_V1.2E2.2E0.5Cvlib.5Capp.5Cgfx_apps.5Csimple_draw_d1l2.5Ctarget.5Cd1lx_mango_ghs.5Cobj.5Cdm.249::
                        4499 .LDWlin249:
000011c6 bd0f3900       4500 	ld.bu	57[r29],r1
000011ca 620a           4501 	cmp	2,r1
000011cc ca05*          4502 	bne	.L3259
                        4503 --1380: 		{
                        4504 --1381: 			dm_Get_MainPage_ENT_Data();
                        4505 --line1381
                        4506 ..lin.D.3A.5CRenesas_Electronics.5CD1x_RGL.5Crgl_ghs_D1Lx_obj_V1.2E2.2E0.5Cvlib.5Capp.5Cgfx_apps.5Csimple_draw_d1l2.5Ctarget.5Cd1lx_mango_ghs.5Cobj.5Cdm.250::
                        4507 .LDWlin250:
                        4508 	jarl	_dm_Get_MainPage_ENT_Data,lp
                        4508 <EXPANSION BEGIN>
                        4508 jarl22 _dm_Get_MainPage_ENT_Data , lp 
000011ce 80ff2e03*      4508 <EXPANSION END>
000011d2 b505*          4509 	br	.L3243
                        4510 .L3259:
                        4511 --1382: 		}
                        4512 --1383: 		else/*fault*/
                        4513 --1384: 		{
                        4514 --1385: 			dm_Get_MainPage_FAULT_Data();
                        4515 --line1385
                        4516 ..lin.D.3A.5CRenesas_Electronics.5CD1x_RGL.5Crgl_ghs_D1Lx_obj_V1.2E2.2E0.5Cvlib.5Capp.5Cgfx_apps.5Csimple_draw_d1l2.5Ctarget.5Cd1lx_mango_ghs.5Cobj.5Cdm.251::
                        4517 .LDWlin251:
                        4518 	jarl	_dm_Get_MainPage_FAULT_Data,lp
                        4518 <EXPANSION BEGIN>
                        4518 jarl22 _dm_Get_MainPage_FAULT_Data , lp 
000011d4 80ff7c03*      4518 <EXPANSION END>
                        4519 .L3243:

                                                                      Page 81
                                                              C:\Users\YINGAO~1\AppData\Local\Temp\gh_000004s1.si
                        4520 --1386: 		}
                        4521 --1387: 	}
                        4522 --1388: }
                        4523 --line1388
                        4524 ..lin.D.3A.5CRenesas_Electronics.5CD1x_RGL.5Crgl_ghs_D1Lx_obj_V1.2E2.2E0.5Cvlib.5Capp.5Cgfx_apps.5Csimple_draw_d1l2.5Ctarget.5Cd1lx_mango_ghs.5Cobj.5Cdm.252::
                        4525 .LDWlin252:
000011d8 0000           4526 	nop
                        4527 --	    .ef
                        4528 .LDW95:
000011da 4e06ff30       4529 	dispose	7,{r26,r27,r28,r29,r31},[lp]
                        4530 	.type	_dm_Get_DestData_Process,@function
                        4531 	.size	_dm_Get_DestData_Process,.-_dm_Get_DestData_Process
                        4532 	.type	_dm_Get_DestData_Process..D.3A.5CRenesas_Electronics.5CD1x_RGL.5Crgl_ghs_D1Lx_obj_V1.2E2.2E0.5Cvlib.5Capp.5Cgfx_apps.5Csimple_draw_d1l2.5Ctarget.5Cd1lx_mango_ghs.5Cobj.5Cdm.,@function
                        4533 	.size	_dm_Get_DestData_Process..D.3A.5CRenesas_Electronics.5CD1x_RGL.5Crgl_ghs_D1Lx_obj_V1.2E2.2E0.5Cvlib.5Capp.5Cgfx_apps.5Csimple_draw_d1l2.5Ctarget.5Cd1lx_mango_ghs.5Cobj.5Cdm.,.-_dm_Get_DestData_Process..D.3A.5CRenesas_Electronics.5CD1x_RGL.5Crgl_ghs_D1Lx_obj_V1.2E2.2E0.5Cvlib.5Capp.5Cgfx_apps.5Csimple_draw_d1l2.5Ctarget.5Cd1lx_mango_ghs.5Cobj.5Cdm.
                        4534 	.align	2
                        4535 .LDW06:
                        4536 --_res	r27	local
                        4537 --_sts	3[sp]	local
                        4538 --_Time	18[sp]	local
                        4539 --_OdoValue	4[sp]	local
                        4540 --_GearType	8[sp]	local
                        4541 
                        4542 --_isUpdate	r26	param
                        4543 
                        4544 	.data
                        4545 	.text
                        4546 
                        4547 
                        4548 --1390: /**************************************************
                        4549 --1391: *Function :dm_Get_DestData_Process
                        4550 --1392: *Description:  Dest Data Update
                        4551 --1393: *Parameters:none
                        4552 --1394: *Returns: none
                        4553 --1395: **create&Verlog:
                        4554 --1396: *Author Name xs  Date:2017-09-22   Ver:02
                        4555 --1397: ***************************************************/
                        4556 --1398: static void dm_Get_MainPage_TC_Data(U8 isUpdate)
                        4557 	.align	2
                        4558 	.align	2
                        4559 	.global	_dm_Get_MainPage_TC_Data..D.3A.5CRenesas_Electronics.5CD1x_RGL.5Crgl_ghs_D1Lx_obj_V1.2E2.2E0.5Cvlib.5Capp.5Cgfx_apps.5Csimple_draw_d1l2.5Ctarget.5Cd1lx_mango_ghs.5Cobj.5Cdm.
                        4560 _dm_Get_MainPage_TC_Data..D.3A.5CRenesas_Electronics.5CD1x_RGL.5Crgl_ghs_D1Lx_obj_V1.2E2.2E0.5Cvlib.5Capp.5Cgfx_apps.5Csimple_draw_d1l2.5Ctarget.5Cd1lx_mango_ghs.5Cobj.5Cdm.:
                        4561 _dm_Get_MainPage_TC_Data:
000011de 8e07e170       4562 	prepare	{r25,r26,r27,r28,r29,r31},7
000011e2 c65eff00       4563 	andi	255,r6,r11
000011e6 435f0300       4564 	st.b	r11,3[sp]
000011ea 3d0600000000*  4565 	mov	_Dm_Send_Data,r29
000011f0 3a0600000000*  4566 	mov	.L3794,r26
000011f6 390600000000*  4567 	mov	.L3793,r25
                        4568 --	    .bf
                        4569 .LDW16:
                        4570 --1399: {
                        4571 --1400: 	U8 res;
                        4572 --1401: 	U8 FuelConsumption;
                        4573 --1402: 	BOOL FuelConsumptionV;
                        4574 --1403: 	DBL DisplayFuel;
                        4575 --1404: 	U8 UnitType;
                        4576 --1405: 	float InsFuelConpn;
                        4577 --1406: 	U32 DrivenTime;
                        4578 --1407: 	U32 AverageSpeed;
                        4579 --1408: 	U32 DisplaySpeed;
                        4580 --1409: 	

                                                                      Page 82
                                                              C:\Users\YINGAO~1\AppData\Local\Temp\gh_000004s1.si
                        4581 --1410: 	U32 trip;
                        4582 --1411: 	U16 BatValue;
                        4583 --1412: 	U16 RangeToEmpty;
                        4584 --1413:     //U16 angle = 0;
                        4585 --1414: 	static U16 count_1s = 0;
                        4586 --1416: 	static U8 SpeetCnt = DM_DISPLAYSPEED_CNT;
                        4587 --1418: 	static U8 autoStartCnt = DM_AUTOSTART_CNT;
                        4588 --1419: 	static U8 autoRstCnt = DM_AUTORST_CNT;
                        4589 --1420: 	U8 rstFlg = FALSE;
000011fc 43070100       4590 	st.b	zero,1[sp]
                        4591 --1422: 	switch(Dm_Send_Data.CMD.SubPage)
00001200 9d0f0300       4592 	ld.bu	2[r29],r1
00001204 660a           4593 	cmp	6,r1
00001206 eb071902*      4594 	bh	.L3480
0000120a c20a           4595 	shl	2,r1
0000120c e10600000000*  4596 	jmp	.L3639[r1]
                        4597 .L3639:
00001212 80071c00*      4598 	jr	.L3449
00001216 80075c00*      4599 	jr	.L3454
0000121a 80076c00*      4600 	jr	.L3455
0000121e 80077600*      4601 	jr	.L3456
00001222 80078c00*      4602 	jr	.L3457
00001226 80073801*      4603 	jr	.L3468
0000122a 8007e401*      4604 	jr	.L3479
                        4605 .L3449:
                        4606 --1423: 	{
                        4607 --1424: 		case SUBFUCTION_TC_SPEED:
                        4608 --1425: 			//res = ST_GetDisplaySpeed(&DisplaySpeed); 
                        4609 --1427: 			DisplaySpeed = ST_GetCurAngleSpeed();
                        4610 --line1427
                        4611 ..lin.D.3A.5CRenesas_Electronics.5CD1x_RGL.5Crgl_ghs_D1Lx_obj_V1.2E2.2E0.5Cvlib.5Capp.5Cgfx_apps.5Csimple_draw_d1l2.5Ctarget.5Cd1lx_mango_ghs.5Cobj.5Cdm.253::
                        4612 .LDWlin253:
                        4613 	jarl	_ST_GetCurAngleSpeed,lp
                        4613 <EXPANSION BEGIN>
                        4613 jarl22 _ST_GetCurAngleSpeed , lp 
0000122e 80ff0000*      4613 <EXPANSION END>
00001232 0ae0           4614 	mov	r10,r28
                        4615 --1428: 			
                        4616 --1429: 			SpeetCnt++;
                        4617 --line1429
                        4618 ..lin.D.3A.5CRenesas_Electronics.5CD1x_RGL.5Crgl_ghs_D1Lx_obj_V1.2E2.2E0.5Cvlib.5Capp.5Cgfx_apps.5Csimple_draw_d1l2.5Ctarget.5Cd1lx_mango_ghs.5Cobj.5Cdm.254::
                        4619 .LDWlin254:
00001234 210600000000*  4620 	mov	.L3792,r1
0000123a 810f0100       4621 	ld.bu	0[r1],r1
0000123e 2c0600000000*  4622 	mov	.L3792,r12
00001244 410a           4623 	add	1,r1
00001246 4c0f0000       4624 	st.b	r1,0[r12]
                        4625 --1430: 			if((DM_DISPLAYSPEED_CNT <= SpeetCnt) || (TRUE == isUpdate))
0000124a 210600000000*  4626 	mov	.L3792,r1
00001250 810f0100       4627 	ld.bu	0[r1],r1
00001254 620a           4628 	cmp	2,r1
00001256 d905*          4629 	bnl	.L3451
00001258 a35f0300       4630 	ld.bu	3[sp],r11
0000125c 615a           4631 	cmp	1,r11
0000125e 8a0d*          4632 	bne	.L3453
                        4633 .L3451:
                        4634 --1431: 			{
                        4635 --1432:      		  Dm_Send_Data.DATA.Buffer.DisplaySpeed = DisplaySpeed;
                        4636 --line1432
                        4637 ..lin.D.3A.5CRenesas_Electronics.5CD1x_RGL.5Crgl_ghs_D1Lx_obj_V1.2E2.2E0.5Cvlib.5Capp.5Cgfx_apps.5Csimple_draw_d1l2.5Ctarget.5Cd1lx_mango_ghs.5Cobj.5Cdm.255::
                        4638 .LDWlin255:

                                                                      Page 83
                                                              C:\Users\YINGAO~1\AppData\Local\Temp\gh_000004s1.si
00001260 7de72100       4639 	st.w	r28,32[r29]
                        4640 --1433: 			  SpeetCnt = 0;
00001264 2b0600000000*  4641 	mov	.L3792,r11
0000126a 4b070000       4642 	st.b	zero,0[r11]
                        4643 .L3453:
                        4644 --1434: 			}
                        4645 --1435: 			else
                        4646 --1436: 			{
0000126e 8007b201*      4647 	br	.L3447
                        4648 .L3454:
                        4649 --1437: 			}
                        4650 --1438: 			break;
                        4651 --1439: 		case SUBFUCTION_TC_INSFUELCOMP:			
                        4652 --1440: 			res = ACC_GetInstantFuelConsumption(&(Dm_Send_Data.DATA.Buffer.InsFuel));
                        4653 --line1440
                        4654 ..lin.D.3A.5CRenesas_Electronics.5CD1x_RGL.5Crgl_ghs_D1Lx_obj_V1.2E2.2E0.5Cvlib.5Capp.5Cgfx_apps.5Csimple_draw_d1l2.5Ctarget.5Cd1lx_mango_ghs.5Cobj.5Cdm.256::
                        4655 .LDWlin256:
00001272 2b0600000000*  4656 	mov	_Dm_Send_Data,r11
00001278 0b362000       4657 	addi	32,r11,r6
                        4658 	jarl	_ACC_GetInstantFuelConsumption,lp
                        4658 <EXPANSION BEGIN>
                        4658 jarl22 _ACC_GetInstantFuelConsumption , lp 
0000127c 80ff0000*      4658 <EXPANSION END>
00001280 0ae0           4659 	mov	r10,r28
                        4660 --line1441
                        4661 ..lin.D.3A.5CRenesas_Electronics.5CD1x_RGL.5Crgl_ghs_D1Lx_obj_V1.2E2.2E0.5Cvlib.5Capp.5Cgfx_apps.5Csimple_draw_d1l2.5Ctarget.5Cd1lx_mango_ghs.5Cobj.5Cdm.257::
                        4662 .LDWlin257:
00001282 80079e01*      4663 	br	.L3447
                        4664 .L3455:
                        4665 --1441: 			break;
                        4666 --1442: 		case SUBFUCTION_TC_RANGE:
                        4667 --1443: 			RangeToEmpty = RANG_GetDisplayRangeToEmpty();
                        4668 --line1443
                        4669 ..lin.D.3A.5CRenesas_Electronics.5CD1x_RGL.5Crgl_ghs_D1Lx_obj_V1.2E2.2E0.5Cvlib.5Capp.5Cgfx_apps.5Csimple_draw_d1l2.5Ctarget.5Cd1lx_mango_ghs.5Cobj.5Cdm.258::
                        4670 .LDWlin258:
                        4671 	jarl	_RANG_GetDisplayRangeToEmpty,lp
                        4671 <EXPANSION BEGIN>
                        4671 jarl22 _RANG_GetDisplayRangeToEmpty , lp 
00001286 80ff0000*      4671 <EXPANSION END>
0000128a 0ae0           4672 	mov	r10,r28
                        4673 --1444: 			Dm_Send_Data.DATA.Buffer.RangeToEmpty = RangeToEmpty;
                        4674 --line1444
                        4675 ..lin.D.3A.5CRenesas_Electronics.5CD1x_RGL.5Crgl_ghs_D1Lx_obj_V1.2E2.2E0.5Cvlib.5Capp.5Cgfx_apps.5Csimple_draw_d1l2.5Ctarget.5Cd1lx_mango_ghs.5Cobj.5Cdm.259::
                        4676 .LDWlin259:
0000128c 7de72000       4677 	st.h	r28,32[r29]
00001290 80079001*      4678 	br	.L3447
                        4679 .L3456:
                        4680 --1445: 			break;
                        4681 --1446: 		case SUBFUCTION_TC_BAT:
                        4682 --1447: 			res = BAT_GetBCMBatValue(&BatValue);
                        4683 --line1447
                        4684 ..lin.D.3A.5CRenesas_Electronics.5CD1x_RGL.5Crgl_ghs_D1Lx_obj_V1.2E2.2E0.5Cvlib.5Capp.5Cgfx_apps.5Csimple_draw_d1l2.5Ctarget.5Cd1lx_mango_ghs.5Cobj.5Cdm.260::
                        4685 .LDWlin260:
00001294 23361200       4686 	movea	18,sp,r6
                        4687 	jarl	_BAT_GetBCMBatValue,lp
                        4687 <EXPANSION BEGIN>
                        4687 jarl22 _BAT_GetBCMBatValue , lp 
00001298 80ff0000*      4687 <EXPANSION END>
0000129c 0ae0           4688 	mov	r10,r28
                        4689 --1448: 			Dm_Send_Data.DATA.Buffer.bat.Value = BatValue;
                        4690 --line1448

                                                                      Page 84
                                                              C:\Users\YINGAO~1\AppData\Local\Temp\gh_000004s1.si
                        4691 ..lin.D.3A.5CRenesas_Electronics.5CD1x_RGL.5Crgl_ghs_D1Lx_obj_V1.2E2.2E0.5Cvlib.5Capp.5Cgfx_apps.5Csimple_draw_d1l2.5Ctarget.5Cd1lx_mango_ghs.5Cobj.5Cdm.261::
                        4692 .LDWlin261:
0000129e e30f1300       4693 	ld.hu	18[sp],r1
000012a2 7d0f2000       4694 	st.h	r1,32[r29]
                        4695 --1449: 			Dm_Send_Data.DATA.Buffer.bat.Valid = VALID;
000012a6 5d072200       4696 	st.b	zero,34[r29]
000012aa 80077601*      4697 	br	.L3447
                        4698 .L3457:
                        4699 --1450: 			break;
                        4700 --1451: 		case SUBFUCTION_TC_AUTOSTART:
                        4701 --1452: 			
                        4702 --1453: 			FuelConsumptionV = FC_GetFuelConsumptionV1();
                        4703 --line1453
                        4704 ..lin.D.3A.5CRenesas_Electronics.5CD1x_RGL.5Crgl_ghs_D1Lx_obj_V1.2E2.2E0.5Cvlib.5Capp.5Cgfx_apps.5Csimple_draw_d1l2.5Ctarget.5Cd1lx_mango_ghs.5Cobj.5Cdm.262::
                        4705 .LDWlin262:
                        4706 	jarl	_FC_GetFuelConsumptionV1,lp
                        4706 <EXPANSION BEGIN>
                        4706 jarl22 _FC_GetFuelConsumptionV1 , lp 
000012ae 80ff0000*      4706 <EXPANSION END>
000012b2 43570200       4707 	st.b	r10,2[sp]
                        4708 --1454: 			FuelConsumption = FC_GetFuelConsumption1();
                        4709 --line1454
                        4710 ..lin.D.3A.5CRenesas_Electronics.5CD1x_RGL.5Crgl_ghs_D1Lx_obj_V1.2E2.2E0.5Cvlib.5Capp.5Cgfx_apps.5Csimple_draw_d1l2.5Ctarget.5Cd1lx_mango_ghs.5Cobj.5Cdm.263::
                        4711 .LDWlin263:
                        4712 	jarl	_FC_GetFuelConsumption1,lp
                        4712 <EXPANSION BEGIN>
                        4712 jarl22 _FC_GetFuelConsumption1 , lp 
000012b6 80ff0000*      4712 <EXPANSION END>
000012ba 0ad8           4713 	mov	r10,r27
                        4714 --1456: 			if(DM_AVRGFUELCONPN_MAX <= FuelConsumption)
                        4715 --line1456
                        4716 ..lin.D.3A.5CRenesas_Electronics.5CD1x_RGL.5Crgl_ghs_D1Lx_obj_V1.2E2.2E0.5Cvlib.5Capp.5Cgfx_apps.5Csimple_draw_d1l2.5Ctarget.5Cd1lx_mango_ghs.5Cobj.5Cdm.264::
                        4717 .LDWlin264:
000012bc 1b0638ff       4718 	addi	-200,r27,zero
000012c0 b905*          4719 	bnl	.L3460
                        4720 --1457: 			{
                        4721 --1458: 				FuelConsumption = DM_AVRGFUELCONPN_MAX;
                        4722 --line1458
                        4723 ..lin.D.3A.5CRenesas_Electronics.5CD1x_RGL.5Crgl_ghs_D1Lx_obj_V1.2E2.2E0.5Cvlib.5Capp.5Cgfx_apps.5Csimple_draw_d1l2.5Ctarget.5Cd1lx_mango_ghs.5Cobj.5Cdm.265::
                        4724 .LDWlin265:
000012c2 20dec800       4725 	movea	200,zero,r27
                        4726 .L3460:
                        4727 --1459: 			}
                        4728 --1460: 			else
                        4729 --1461: 			{
                        4730 --1462: 			}
                        4731 --1464: 		
                        4732 --1465: 			res = ODO_GetODOValue(INDEX_ODO_TRIP1, &trip);
000012c6 0132           4733 	mov	1,r6
000012c8 233e0c00       4734 	movea	12,sp,r7
                        4735 	jarl	_ODO_GetODOValue,lp
                        4735 <EXPANSION BEGIN>
                        4735 jarl22 _ODO_GetODOValue , lp 
000012cc 80ff0000*      4735 <EXPANSION END>
000012d0 0ae0           4736 	mov	r10,r28
                        4737 --1466: 			res = RTC_GetDrivenTime(E_DRIVEN_TIME1, &DrivenTime);
                        4738 --line1466
                        4739 ..lin.D.3A.5CRenesas_Electronics.5CD1x_RGL.5Crgl_ghs_D1Lx_obj_V1.2E2.2E0.5Cvlib.5Capp.5Cgfx_apps.5Csimple_draw_d1l2.5Ctarget.5Cd1lx_mango_ghs.5Cobj.5Cdm.266::
                        4740 .LDWlin266:
000012d2 0032           4741 	mov	0,r6
000012d4 233e0400       4742 	movea	4,sp,r7

                                                                      Page 85
                                                              C:\Users\YINGAO~1\AppData\Local\Temp\gh_000004s1.si
                        4743 	jarl	_RTC_GetDrivenTime,lp
                        4743 <EXPANSION BEGIN>
                        4743 jarl22 _RTC_GetDrivenTime , lp 
000012d8 80ff0000*      4743 <EXPANSION END>
000012dc 0ae0           4744 	mov	r10,r28
                        4745 --1467: 			res = ST_GetAverageSpeed(E_ST_AVERAGE_SPEED1, &AverageSpeed);
                        4746 --line1467
                        4747 ..lin.D.3A.5CRenesas_Electronics.5CD1x_RGL.5Crgl_ghs_D1Lx_obj_V1.2E2.2E0.5Cvlib.5Capp.5Cgfx_apps.5Csimple_draw_d1l2.5Ctarget.5Cd1lx_mango_ghs.5Cobj.5Cdm.267::
                        4748 .LDWlin267:
000012de 0032           4749 	mov	0,r6
000012e0 233e0800       4750 	movea	8,sp,r7
                        4751 	jarl	_ST_GetAverageSpeed,lp
                        4751 <EXPANSION BEGIN>
                        4751 jarl22 _ST_GetAverageSpeed , lp 
000012e4 80ff0000*      4751 <EXPANSION END>
000012e8 0ae0           4752 	mov	r10,r28
                        4753 --1468:                   TRIP_GetTripRstSts(RSTTYPE_TRIP_TRIP1,&rstFlg);
                        4754 --line1468
                        4755 ..lin.D.3A.5CRenesas_Electronics.5CD1x_RGL.5Crgl_ghs_D1Lx_obj_V1.2E2.2E0.5Cvlib.5Capp.5Cgfx_apps.5Csimple_draw_d1l2.5Ctarget.5Cd1lx_mango_ghs.5Cobj.5Cdm.268::
                        4756 .LDWlin268:
000012ea 0132           4757 	mov	1,r6
000012ec 233e0100       4758 	movea	1,sp,r7
                        4759 	jarl	_TRIP_GetTripRstSts,lp
                        4759 <EXPANSION BEGIN>
                        4759 jarl22 _TRIP_GetTripRstSts , lp 
000012f0 80ff0000*      4759 <EXPANSION END>
                        4760 --1469: 			if(TRUE == rstFlg)
                        4761 --line1469
                        4762 ..lin.D.3A.5CRenesas_Electronics.5CD1x_RGL.5Crgl_ghs_D1Lx_obj_V1.2E2.2E0.5Cvlib.5Capp.5Cgfx_apps.5Csimple_draw_d1l2.5Ctarget.5Cd1lx_mango_ghs.5Cobj.5Cdm.269::
                        4763 .LDWlin269:
000012f4 a30f0100       4764 	ld.bu	1[sp],r1
000012f8 610a           4765 	cmp	1,r1
000012fa fa0d*          4766 	bne	.L3461
                        4767 --1470: 				{
                        4768 --1471: 					autoStartCnt = 0;
                        4769 --line1471
                        4770 ..lin.D.3A.5CRenesas_Electronics.5CD1x_RGL.5Crgl_ghs_D1Lx_obj_V1.2E2.2E0.5Cvlib.5Capp.5Cgfx_apps.5Csimple_draw_d1l2.5Ctarget.5Cd1lx_mango_ghs.5Cobj.5Cdm.270::
                        4771 .LDWlin270:
000012fc 59070000       4772 	st.b	zero,0[r25]
                        4773 --1472: 			Dm_Send_Data.DATA.Buffer.AutoStart_Show.AvrgSpeed1 = 0;			
00001300 7d072100       4774 	st.w	zero,32[r29]
                        4775 --1473: 			Dm_Send_Data.DATA.Buffer.AutoStart_Show.ODOValue1 = 0;
00001304 7d072500       4776 	st.w	zero,36[r29]
                        4777 --1474: 			Dm_Send_Data.DATA.Buffer.AutoStart_Show.AvrgFuelConpnV1 = INVALID;
00001308 010a           4778 	mov	1,r1
0000130a 7d0f2d00       4779 	st.w	r1,44[r29]
                        4780 --1475: 			Dm_Send_Data.DATA.Buffer.AutoStart_Show.AvrgFuelConpn1 = 0;
0000130e 7d072900       4781 	st.w	zero,40[r29]
                        4782 --1476: 			Dm_Send_Data.DATA.Buffer.AutoStart_Show.DrivenTime1 = 0;
00001312 7d073100       4783 	st.w	zero,48[r29]
00001316 b525*          4784 	br	.L3463
                        4785 .L3461:
                        4786 --1477: 				}
                        4787 --1478: 			else
                        4788 --1479: 				{
                        4789 --1480: 				autoStartCnt ++;
                        4790 --line1480
                        4791 ..lin.D.3A.5CRenesas_Electronics.5CD1x_RGL.5Crgl_ghs_D1Lx_obj_V1.2E2.2E0.5Cvlib.5Capp.5Cgfx_apps.5Csimple_draw_d1l2.5Ctarget.5Cd1lx_mango_ghs.5Cobj.5Cdm.271::
                        4792 .LDWlin271:
00001318 990f0100       4793 	ld.bu	0[r25],r1
0000131c 410a           4794 	add	1,r1

                                                                      Page 86
                                                              C:\Users\YINGAO~1\AppData\Local\Temp\gh_000004s1.si
0000131e 590f0000       4795 	st.b	r1,0[r25]
                        4796 --1481: 				if((DM_AUTOSTART_CNT >= autoStartCnt) || (TRUE == isUpdate))
00001322 990f0100       4797 	ld.bu	0[r25],r1
00001326 0106ebff       4798 	addi	-21,r1,zero
0000132a d905*          4799 	bnl	.L3465
0000132c a35f0300       4800 	ld.bu	3[sp],r11
00001330 615a           4801 	cmp	1,r11
00001332 da15*          4802 	bne	.L3463
                        4803 .L3465:
                        4804 --1482: 					{
                        4805 --1483: 						autoStartCnt = 0;
                        4806 --line1483
                        4807 ..lin.D.3A.5CRenesas_Electronics.5CD1x_RGL.5Crgl_ghs_D1Lx_obj_V1.2E2.2E0.5Cvlib.5Capp.5Cgfx_apps.5Csimple_draw_d1l2.5Ctarget.5Cd1lx_mango_ghs.5Cobj.5Cdm.272::
                        4808 .LDWlin272:
00001334 59070000       4809 	st.b	zero,0[r25]
                        4810 --1484: 						Dm_Send_Data.DATA.Buffer.AutoStart_Show.AvrgSpeed1 = AverageSpeed;			
00001338 230f0900       4811 	ld.w	8[sp],r1
0000133c 7d0f2100       4812 	st.w	r1,32[r29]
                        4813 --1485: 						Dm_Send_Data.DATA.Buffer.AutoStart_Show.ODOValue1 = trip;
00001340 230f0d00       4814 	ld.w	12[sp],r1
00001344 7d0f2500       4815 	st.w	r1,36[r29]
                        4816 --1486: 						Dm_Send_Data.DATA.Buffer.AutoStart_Show.AvrgFuelConpnV1 = FuelConsumptionV;
00001348 835f0300       4817 	ld.bu	2[sp],r11
0000134c 7d5f2d00       4818 	st.w	r11,44[r29]
                        4819 --1487: 						Dm_Send_Data.DATA.Buffer.AutoStart_Show.AvrgFuelConpn1 = FuelConsumption;
00001350 7ddf2900       4820 	st.w	r27,40[r29]
                        4821 --1488: 						Dm_Send_Data.DATA.Buffer.AutoStart_Show.DrivenTime1 = DrivenTime;
00001354 230f0500       4822 	ld.w	4[sp],r1
00001358 7d0f3100       4823 	st.w	r1,48[r29]
                        4824 .L3463:
                        4825 --1489: 					}
                        4826 --1490: 				else
                        4827 --1491: 					{
0000135c a565*          4828 	br	.L3447
                        4829 .L3468:
                        4830 --1492: 					}
                        4831 --1493: 				}
                        4832 --1494: 			
                        4833 --1495: 			break;
                        4834 --1496: 		case SUBFUCTION_TC_AUTORST:
                        4835 --1497: 			FuelConsumptionV = FC_GetFuelConsumptionV2();
                        4836 --line1497
                        4837 ..lin.D.3A.5CRenesas_Electronics.5CD1x_RGL.5Crgl_ghs_D1Lx_obj_V1.2E2.2E0.5Cvlib.5Capp.5Cgfx_apps.5Csimple_draw_d1l2.5Ctarget.5Cd1lx_mango_ghs.5Cobj.5Cdm.273::
                        4838 .LDWlin273:
                        4839 	jarl	_FC_GetFuelConsumptionV2,lp
                        4839 <EXPANSION BEGIN>
                        4839 jarl22 _FC_GetFuelConsumptionV2 , lp 
0000135e 80ff0000*      4839 <EXPANSION END>
00001362 43570200       4840 	st.b	r10,2[sp]
                        4841 --1498: 			FuelConsumption = FC_GetFuelConsumption2();
                        4842 --line1498
                        4843 ..lin.D.3A.5CRenesas_Electronics.5CD1x_RGL.5Crgl_ghs_D1Lx_obj_V1.2E2.2E0.5Cvlib.5Capp.5Cgfx_apps.5Csimple_draw_d1l2.5Ctarget.5Cd1lx_mango_ghs.5Cobj.5Cdm.274::
                        4844 .LDWlin274:
                        4845 	jarl	_FC_GetFuelConsumption2,lp
                        4845 <EXPANSION BEGIN>
                        4845 jarl22 _FC_GetFuelConsumption2 , lp 
00001366 80ff0000*      4845 <EXPANSION END>
0000136a 0ad8           4846 	mov	r10,r27
                        4847 --1500: 			if(DM_AVRGFUELCONPN_MAX <= FuelConsumption)
                        4848 --line1500
                        4849 ..lin.D.3A.5CRenesas_Electronics.5CD1x_RGL.5Crgl_ghs_D1Lx_obj_V1.2E2.2E0.5Cvlib.5Capp.5Cgfx_apps.5Csimple_draw_d1l2.5Ctarget.5Cd1lx_mango_ghs.5Cobj.5Cdm.275::

                                                                      Page 87
                                                              C:\Users\YINGAO~1\AppData\Local\Temp\gh_000004s1.si
                        4850 .LDWlin275:
0000136c 1b0638ff       4851 	addi	-200,r27,zero
00001370 b905*          4852 	bnl	.L3471
                        4853 --1501: 			{
                        4854 --1502: 				FuelConsumption = DM_AVRGFUELCONPN_MAX;
                        4855 --line1502
                        4856 ..lin.D.3A.5CRenesas_Electronics.5CD1x_RGL.5Crgl_ghs_D1Lx_obj_V1.2E2.2E0.5Cvlib.5Capp.5Cgfx_apps.5Csimple_draw_d1l2.5Ctarget.5Cd1lx_mango_ghs.5Cobj.5Cdm.276::
                        4857 .LDWlin276:
00001372 20dec800       4858 	movea	200,zero,r27
                        4859 .L3471:
                        4860 --1503: 			}
                        4861 --1504: 			else
                        4862 --1505: 			{
                        4863 --1506: 			}
                        4864 --1508: 		
                        4865 --1509: 			res = ODO_GetODOValue(INDEX_ODO_TRIP2, &trip);
00001376 0232           4866 	mov	2,r6
00001378 233e0c00       4867 	movea	12,sp,r7
                        4868 	jarl	_ODO_GetODOValue,lp
                        4868 <EXPANSION BEGIN>
                        4868 jarl22 _ODO_GetODOValue , lp 
0000137c 80ff0000*      4868 <EXPANSION END>
00001380 0ae0           4869 	mov	r10,r28
                        4870 --1510: 			res = RTC_GetDrivenTime(E_DRIVEN_TIME2, &DrivenTime);
                        4871 --line1510
                        4872 ..lin.D.3A.5CRenesas_Electronics.5CD1x_RGL.5Crgl_ghs_D1Lx_obj_V1.2E2.2E0.5Cvlib.5Capp.5Cgfx_apps.5Csimple_draw_d1l2.5Ctarget.5Cd1lx_mango_ghs.5Cobj.5Cdm.277::
                        4873 .LDWlin277:
00001382 0132           4874 	mov	1,r6
00001384 233e0400       4875 	movea	4,sp,r7
                        4876 	jarl	_RTC_GetDrivenTime,lp
                        4876 <EXPANSION BEGIN>
                        4876 jarl22 _RTC_GetDrivenTime , lp 
00001388 80ff0000*      4876 <EXPANSION END>
0000138c 0ae0           4877 	mov	r10,r28
                        4878 --1511: 			res = ST_GetAverageSpeed(E_ST_AVERAGE_SPEED2, &AverageSpeed);
                        4879 --line1511
                        4880 ..lin.D.3A.5CRenesas_Electronics.5CD1x_RGL.5Crgl_ghs_D1Lx_obj_V1.2E2.2E0.5Cvlib.5Capp.5Cgfx_apps.5Csimple_draw_d1l2.5Ctarget.5Cd1lx_mango_ghs.5Cobj.5Cdm.278::
                        4881 .LDWlin278:
0000138e 0132           4882 	mov	1,r6
00001390 233e0800       4883 	movea	8,sp,r7
                        4884 	jarl	_ST_GetAverageSpeed,lp
                        4884 <EXPANSION BEGIN>
                        4884 jarl22 _ST_GetAverageSpeed , lp 
00001394 80ff0000*      4884 <EXPANSION END>
00001398 0ae0           4885 	mov	r10,r28
                        4886 --1512: 			     TRIP_GetTripRstSts(RSTTYPE_TRIP_TRIP2,&rstFlg);
                        4887 --line1512
                        4888 ..lin.D.3A.5CRenesas_Electronics.5CD1x_RGL.5Crgl_ghs_D1Lx_obj_V1.2E2.2E0.5Cvlib.5Capp.5Cgfx_apps.5Csimple_draw_d1l2.5Ctarget.5Cd1lx_mango_ghs.5Cobj.5Cdm.279::
                        4889 .LDWlin279:
0000139a 0232           4890 	mov	2,r6
0000139c 233e0100       4891 	movea	1,sp,r7
                        4892 	jarl	_TRIP_GetTripRstSts,lp
                        4892 <EXPANSION BEGIN>
                        4892 jarl22 _TRIP_GetTripRstSts , lp 
000013a0 80ff0000*      4892 <EXPANSION END>
                        4893 --1513: 			
                        4894 --1514: 			#if TRIP_THRESHHOLD_TEST	
                        4895 --1515: 			FuelConsumptionV = VALID;
                        4896 --1516: 			FuelConsumption = 20;
                        4897 --1517: 			trip = 299;
                        4898 --1518: 			#endif

                                                                      Page 88
                                                              C:\Users\YINGAO~1\AppData\Local\Temp\gh_000004s1.si
                        4899 --1519: 			if(TRUE == rstFlg)
                        4900 --line1519
                        4901 ..lin.D.3A.5CRenesas_Electronics.5CD1x_RGL.5Crgl_ghs_D1Lx_obj_V1.2E2.2E0.5Cvlib.5Capp.5Cgfx_apps.5Csimple_draw_d1l2.5Ctarget.5Cd1lx_mango_ghs.5Cobj.5Cdm.280::
                        4902 .LDWlin280:
000013a4 a30f0100       4903 	ld.bu	1[sp],r1
000013a8 610a           4904 	cmp	1,r1
000013aa fa0d*          4905 	bne	.L3472
                        4906 --1520: 				{
                        4907 --1521: 					autoRstCnt = 0;
                        4908 --line1521
                        4909 ..lin.D.3A.5CRenesas_Electronics.5CD1x_RGL.5Crgl_ghs_D1Lx_obj_V1.2E2.2E0.5Cvlib.5Capp.5Cgfx_apps.5Csimple_draw_d1l2.5Ctarget.5Cd1lx_mango_ghs.5Cobj.5Cdm.281::
                        4910 .LDWlin281:
000013ac 5a070000       4911 	st.b	zero,0[r26]
                        4912 --1522: 					Dm_Send_Data.DATA.Buffer.AutoRst_Show.AvrgSpeed2 = 0;
000013b0 7d072100       4913 	st.w	zero,32[r29]
                        4914 --1523: 					Dm_Send_Data.DATA.Buffer.AutoRst_Show.ODOValue2 = 0;
000013b4 7d072500       4915 	st.w	zero,36[r29]
                        4916 --1524: 					Dm_Send_Data.DATA.Buffer.AutoRst_Show.AvrgFuelConpnV2 = INVALID;
000013b8 010a           4917 	mov	1,r1
000013ba 7d0f2d00       4918 	st.w	r1,44[r29]
                        4919 --1525: 					Dm_Send_Data.DATA.Buffer.AutoRst_Show.AvrgFuelConpn2 = 0;
000013be 7d072900       4920 	st.w	zero,40[r29]
                        4921 --1526: 					Dm_Send_Data.DATA.Buffer.AutoRst_Show.DrivenTime2 = 0;
000013c2 7d073100       4922 	st.w	zero,48[r29]
000013c6 b525*          4923 	br	.L3474
                        4924 .L3472:
                        4925 --1527: 				}
                        4926 --1528: 			else
                        4927 --1529: 				{
                        4928 --1530: 					
                        4929 --1531: 					autoRstCnt ++;
                        4930 --line1531
                        4931 ..lin.D.3A.5CRenesas_Electronics.5CD1x_RGL.5Crgl_ghs_D1Lx_obj_V1.2E2.2E0.5Cvlib.5Capp.5Cgfx_apps.5Csimple_draw_d1l2.5Ctarget.5Cd1lx_mango_ghs.5Cobj.5Cdm.282::
                        4932 .LDWlin282:
000013c8 9a0f0100       4933 	ld.bu	0[r26],r1
000013cc 410a           4934 	add	1,r1
000013ce 5a0f0000       4935 	st.b	r1,0[r26]
                        4936 --1532: 					if((DM_AUTORST_CNT >= autoRstCnt) || (TRUE == isUpdate))
000013d2 9a0f0100       4937 	ld.bu	0[r26],r1
000013d6 0106ebff       4938 	addi	-21,r1,zero
000013da d905*          4939 	bnl	.L3476
000013dc a35f0300       4940 	ld.bu	3[sp],r11
000013e0 615a           4941 	cmp	1,r11
000013e2 da15*          4942 	bne	.L3474
                        4943 .L3476:
                        4944 --1533: 					{
                        4945 --1534: 						autoRstCnt = 0;
                        4946 --line1534
                        4947 ..lin.D.3A.5CRenesas_Electronics.5CD1x_RGL.5Crgl_ghs_D1Lx_obj_V1.2E2.2E0.5Cvlib.5Capp.5Cgfx_apps.5Csimple_draw_d1l2.5Ctarget.5Cd1lx_mango_ghs.5Cobj.5Cdm.283::
                        4948 .LDWlin283:
000013e4 5a070000       4949 	st.b	zero,0[r26]
                        4950 --1536: 						Dm_Send_Data.DATA.Buffer.AutoRst_Show.AvrgSpeed2 = AverageSpeed;
000013e8 230f0900       4951 	ld.w	8[sp],r1
000013ec 7d0f2100       4952 	st.w	r1,32[r29]
                        4953 --1537: 						Dm_Send_Data.DATA.Buffer.AutoRst_Show.ODOValue2 = trip;
000013f0 230f0d00       4954 	ld.w	12[sp],r1
000013f4 7d0f2500       4955 	st.w	r1,36[r29]
                        4956 --1538: 						Dm_Send_Data.DATA.Buffer.AutoRst_Show.AvrgFuelConpnV2 = FuelConsumptionV;
000013f8 835f0300       4957 	ld.bu	2[sp],r11
000013fc 7d5f2d00       4958 	st.w	r11,44[r29]
                        4959 --1539: 						Dm_Send_Data.DATA.Buffer.AutoRst_Show.AvrgFuelConpn2 = FuelConsumption;

                                                                      Page 89
                                                              C:\Users\YINGAO~1\AppData\Local\Temp\gh_000004s1.si
00001400 7ddf2900       4960 	st.w	r27,40[r29]
                        4961 --1540: 						Dm_Send_Data.DATA.Buffer.AutoRst_Show.DrivenTime2 = DrivenTime;
00001404 230f0500       4962 	ld.w	4[sp],r1
00001408 7d0f3100       4963 	st.w	r1,48[r29]
                        4964 .L3474:
                        4965 --1541: 					}
                        4966 --1542: 					else
                        4967 --1543: 					{
0000140c a50d*          4968 	br	.L3447
                        4969 .L3479:
                        4970 --1544: 					}
                        4971 --1545: 				}
                        4972 --1546:             
                        4973 --1547: 			break;
                        4974 --1548: 		case SUBFUCTION_TC_TIREPRESS:
                        4975 --1549: 			TPMS_GetTPMSDATA(&Dm_Send_Data.DATA.Buffer.Tire.TirePress);
                        4976 --line1549
                        4977 ..lin.D.3A.5CRenesas_Electronics.5CD1x_RGL.5Crgl_ghs_D1Lx_obj_V1.2E2.2E0.5Cvlib.5Capp.5Cgfx_apps.5Csimple_draw_d1l2.5Ctarget.5Cd1lx_mango_ghs.5Cobj.5Cdm.284::
                        4978 .LDWlin284:
0000140e 2b0600000000*  4979 	mov	_Dm_Send_Data,r11
00001414 0b362000       4980 	addi	32,r11,r6
                        4981 	jarl	_TPMS_GetTPMSDATA,lp
                        4981 <EXPANSION BEGIN>
                        4981 jarl22 _TPMS_GetTPMSDATA , lp 
00001418 80ff0000*      4981 <EXPANSION END>
                        4982 --line1550
                        4983 ..lin.D.3A.5CRenesas_Electronics.5CD1x_RGL.5Crgl_ghs_D1Lx_obj_V1.2E2.2E0.5Cvlib.5Capp.5Cgfx_apps.5Csimple_draw_d1l2.5Ctarget.5Cd1lx_mango_ghs.5Cobj.5Cdm.285::
                        4984 .LDWlin285:
0000141c a505*          4985 	br	.L3447
                        4986 .L3480:
                        4987 --line1552
                        4988 ..lin.D.3A.5CRenesas_Electronics.5CD1x_RGL.5Crgl_ghs_D1Lx_obj_V1.2E2.2E0.5Cvlib.5Capp.5Cgfx_apps.5Csimple_draw_d1l2.5Ctarget.5Cd1lx_mango_ghs.5Cobj.5Cdm.286::
                        4989 .LDWlin286:
0000141e 0000           4990 	nop
                        4991 .L3447:
                        4992 --1550: 			break;
                        4993 --1551: 		default:
                        4994 --1552: 			break;
                        4995 --1553: 	}
                        4996 --1554: }
00001420 0000           4997 	nop
                        4998 --	    .ef
                        4999 .LDW26:
00001422 4e06ff70       5000 	dispose	7,{r25,r26,r27,r28,r29,r31},[lp]
                        5001 	.type	_dm_Get_MainPage_TC_Data,@function
                        5002 	.size	_dm_Get_MainPage_TC_Data,.-_dm_Get_MainPage_TC_Data
                        5003 	.type	_dm_Get_MainPage_TC_Data..D.3A.5CRenesas_Electronics.5CD1x_RGL.5Crgl_ghs_D1Lx_obj_V1.2E2.2E0.5Cvlib.5Capp.5Cgfx_apps.5Csimple_draw_d1l2.5Ctarget.5Cd1lx_mango_ghs.5Cobj.5Cdm.,@function
                        5004 	.size	_dm_Get_MainPage_TC_Data..D.3A.5CRenesas_Electronics.5CD1x_RGL.5Crgl_ghs_D1Lx_obj_V1.2E2.2E0.5Cvlib.5Capp.5Cgfx_apps.5Csimple_draw_d1l2.5Ctarget.5Cd1lx_mango_ghs.5Cobj.5Cdm.,.-_dm_Get_MainPage_TC_Data..D.3A.5CRenesas_Electronics.5CD1x_RGL.5Crgl_ghs_D1Lx_obj_V1.2E2.2E0.5Cvlib.5Capp.5Cgfx_apps.5Csimple_draw_d1l2.5Ctarget.5Cd1lx_mango_ghs.5Cobj.5Cdm.
                        5005 	.align	2
                        5006 .LDW36:
                        5007 --_SpeetCnt	.L3792	static
                        5008 --_autoStartCnt	.L3793	static
                        5009 --_autoRstCnt	.L3794	static
                        5010 --_res	r28	local
                        5011 --_FuelConsumption	r27	local
                        5012 --_FuelConsumptionV	2[sp]	local
                        5013 --_DrivenTime	4[sp]	local
                        5014 --_AverageSpeed	8[sp]	local
                        5015 --_DisplaySpeed	r28	local
                        5016 --_trip	12[sp]	local
                        5017 --_BatValue	18[sp]	local

                                                                      Page 90
                                                              C:\Users\YINGAO~1\AppData\Local\Temp\gh_000004s1.si
                        5018 --_RangeToEmpty	r28	local
                        5019 --_rstFlg	1[sp]	local
                        5020 
                        5021 --_isUpdate	3[sp]	param
                        5022 
                        5023 	.data
                        5024 .L3792:
                        5025 	.global	_SpeetCnt.dm_Get_MainPage_TC_Data.D.3A.5CRenesas_Electronics.5CD1x_RGL.5Crgl_ghs_D1Lx_obj_V1.2E2.2E0.5Cvlib.5Capp.5Cgfx_apps.5Csimple_draw_d1l2.5Ctarget.5Cd1lx_mango_ghs.5Cobj.5Cdm..43
                        5026 _SpeetCnt.dm_Get_MainPage_TC_Data.D.3A.5CRenesas_Electronics.5CD1x_RGL.5Crgl_ghs_D1Lx_obj_V1.2E2.2E0.5Cvlib.5Capp.5Cgfx_apps.5Csimple_draw_d1l2.5Ctarget.5Cd1lx_mango_ghs.5Cobj.5Cdm..43:
                        5027 	.type	_SpeetCnt.dm_Get_MainPage_TC_Data.D.3A.5CRenesas_Electronics.5CD1x_RGL.5Crgl_ghs_D1Lx_obj_V1.2E2.2E0.5Cvlib.5Capp.5Cgfx_apps.5Csimple_draw_d1l2.5Ctarget.5Cd1lx_mango_ghs.5Cobj.5Cdm..43,@object
                        5028 	.size	_SpeetCnt.dm_Get_MainPage_TC_Data.D.3A.5CRenesas_Electronics.5CD1x_RGL.5Crgl_ghs_D1Lx_obj_V1.2E2.2E0.5Cvlib.5Capp.5Cgfx_apps.5Csimple_draw_d1l2.5Ctarget.5Cd1lx_mango_ghs.5Cobj.5Cdm..43,1
00000012 02             5029 	.byte	2
                        5030 	.type	.L3792,@object
                        5031 	.size	.L3792,1
                        5032 .L3793:
                        5033 	.global	_autoStartCnt.dm_Get_MainPage_TC_Data.D.3A.5CRenesas_Electronics.5CD1x_RGL.5Crgl_ghs_D1Lx_obj_V1.2E2.2E0.5Cvlib.5Capp.5Cgfx_apps.5Csimple_draw_d1l2.5Ctarget.5Cd1lx_mango_ghs.5Cobj.5Cdm..44
                        5034 _autoStartCnt.dm_Get_MainPage_TC_Data.D.3A.5CRenesas_Electronics.5CD1x_RGL.5Crgl_ghs_D1Lx_obj_V1.2E2.2E0.5Cvlib.5Capp.5Cgfx_apps.5Csimple_draw_d1l2.5Ctarget.5Cd1lx_mango_ghs.5Cobj.5Cdm..44:
                        5035 	.type	_autoStartCnt.dm_Get_MainPage_TC_Data.D.3A.5CRenesas_Electronics.5CD1x_RGL.5Crgl_ghs_D1Lx_obj_V1.2E2.2E0.5Cvlib.5Capp.5Cgfx_apps.5Csimple_draw_d1l2.5Ctarget.5Cd1lx_mango_ghs.5Cobj.5Cdm..44,@object
                        5036 	.size	_autoStartCnt.dm_Get_MainPage_TC_Data.D.3A.5CRenesas_Electronics.5CD1x_RGL.5Crgl_ghs_D1Lx_obj_V1.2E2.2E0.5Cvlib.5Capp.5Cgfx_apps.5Csimple_draw_d1l2.5Ctarget.5Cd1lx_mango_ghs.5Cobj.5Cdm..44,1
00000013 14             5037 	.byte	20
                        5038 	.type	.L3793,@object
                        5039 	.size	.L3793,1
                        5040 .L3794:
                        5041 	.global	_autoRstCnt.dm_Get_MainPage_TC_Data.D.3A.5CRenesas_Electronics.5CD1x_RGL.5Crgl_ghs_D1Lx_obj_V1.2E2.2E0.5Cvlib.5Capp.5Cgfx_apps.5Csimple_draw_d1l2.5Ctarget.5Cd1lx_mango_ghs.5Cobj.5Cdm..45
                        5042 _autoRstCnt.dm_Get_MainPage_TC_Data.D.3A.5CRenesas_Electronics.5CD1x_RGL.5Crgl_ghs_D1Lx_obj_V1.2E2.2E0.5Cvlib.5Capp.5Cgfx_apps.5Csimple_draw_d1l2.5Ctarget.5Cd1lx_mango_ghs.5Cobj.5Cdm..45:
                        5043 	.type	_autoRstCnt.dm_Get_MainPage_TC_Data.D.3A.5CRenesas_Electronics.5CD1x_RGL.5Crgl_ghs_D1Lx_obj_V1.2E2.2E0.5Cvlib.5Capp.5Cgfx_apps.5Csimple_draw_d1l2.5Ctarget.5Cd1lx_mango_ghs.5Cobj.5Cdm..45,@object
                        5044 	.size	_autoRstCnt.dm_Get_MainPage_TC_Data.D.3A.5CRenesas_Electronics.5CD1x_RGL.5Crgl_ghs_D1Lx_obj_V1.2E2.2E0.5Cvlib.5Capp.5Cgfx_apps.5Csimple_draw_d1l2.5Ctarget.5Cd1lx_mango_ghs.5Cobj.5Cdm..45,1
00000014 14             5045 	.byte	20
                        5046 	.type	.L3794,@object
                        5047 	.size	.L3794,1
                        5048 	.ghsnote jtable,2097156,.L3639,.L3639,.L3639,7
                        5049 	.text
                        5050 
                        5051 
                        5052 --1558: /**************************************************
                        5053 --1559: *Function :dm_Get_MainPage_Set_Data
                        5054 --1560: *Description: collect Dest Data Update
                        5055 --1561: *Parameters:none
                        5056 --1562: *Returns: none
                        5057 --1563: **create&Verlog:
                        5058 --1564: *Author Name xs  Date:2017-09-22   Ver:02
                        5059 --1565: ***************************************************/
                        5060 --1566: static void dm_Get_MainPage_Set_Data(void)
                        5061 	.align	2
                        5062 	.align	2
                        5063 	.global	_dm_Get_MainPage_Set_Data..D.3A.5CRenesas_Electronics.5CD1x_RGL.5Crgl_ghs_D1Lx_obj_V1.2E2.2E0.5Cvlib.5Capp.5Cgfx_apps.5Csimple_draw_d1l2.5Ctarget.5Cd1lx_mango_ghs.5Cobj.5Cdm.
                        5064 _dm_Get_MainPage_Set_Data..D.3A.5CRenesas_Electronics.5CD1x_RGL.5Crgl_ghs_D1Lx_obj_V1.2E2.2E0.5Cvlib.5Capp.5Cgfx_apps.5Csimple_draw_d1l2.5Ctarget.5Cd1lx_mango_ghs.5Cobj.5Cdm.:
                        5065 _dm_Get_MainPage_Set_Data:
00001426 8207e170       5066 	prepare	{r25,r26,r27,r28,r29,r31},1
0000142a 3d0600000000*  5067 	mov	_illu_Level,r29
00001430 3dd62900       5068 	movea	41,r29,r26
00001434 3dce3000       5069 	movea	48,r29,r25
00001438 3b0600000000*  5070 	mov	_dm_SetTab,r27
                        5071 --	    .bf
                        5072 .LDW46:
                        5073 --1567: {
                        5074 --1568:     U8 i = 0;
0000143e 00e2           5075 	mov	0,r28
                        5076 --1569: 	switch(Dm_Send_Data.CMD.SubPage)
00001440 9d0f3300       5077 	ld.bu	50[r29],r1
00001444 610a           5078 	cmp	1,r1

                                                                      Page 91
                                                              C:\Users\YINGAO~1\AppData\Local\Temp\gh_000004s1.si
00001446 e105*          5079 	bl	.L3874
00001448 c245*          5080 	be	.L3888
0000144a 630a           5081 	cmp	3,r1
0000144c a14d*          5082 	bl	.L3889
0000144e bb55*          5083 	bh	.L3891
00001450 d54d*          5084 	br	.L3890
                        5085 .L3874:
                        5086 --1570: 	{
                        5087 --1571: 		case SUBFUCTION_SETTING:
                        5088 --1572: 			for(i =0; i< SETMAIN_TABLE_MAXCNT; i++)
                        5089 --line1572
                        5090 ..lin.D.3A.5CRenesas_Electronics.5CD1x_RGL.5Crgl_ghs_D1Lx_obj_V1.2E2.2E0.5Cvlib.5Capp.5Cgfx_apps.5Csimple_draw_d1l2.5Ctarget.5Cd1lx_mango_ghs.5Cobj.5Cdm.287::
                        5091 .LDWlin287:
00001452 00e2           5092 	mov	0,r28
00001454 0000           5093 	nop
                        5094 .L3877:
                        5095 --1573: 			{
                        5096 --1574: 				if((dm_SetTab[i].illuEn == dm_stSet.illuEn)
00001456 fcf60700       5097 	mulhi	7,r28,ep
0000145a bd0f2b00       5098 	ld.bu	43[r29],r1
0000145e dbf1           5099 	add	r27,ep
00001460 6270           5100 	sld.bu	2[ep],r14
00001462 e171           5101 	cmp	r1,r14
00001464 9a25*          5102 	bne	.L3884
00001466 fcf60700       5103 	mulhi	7,r28,ep
0000146a bd0f2900       5104 	ld.bu	41[r29],r1
0000146e dbf1           5105 	add	r27,ep
00001470 6070           5106 	sld.bu	0[ep],r14
00001472 e171           5107 	cmp	r1,r14
00001474 9a1d*          5108 	bne	.L3884
00001476 fcf60700       5109 	mulhi	7,r28,ep
0000147a 9d0f2b00       5110 	ld.bu	42[r29],r1
0000147e dbf1           5111 	add	r27,ep
00001480 6170           5112 	sld.bu	1[ep],r14
00001482 e171           5113 	cmp	r1,r14
00001484 9a15*          5114 	bne	.L3884
                        5115 --1575: 					&& (dm_SetTab[i].ScsEn== dm_stSet.ScsEn)
                        5116 --1576: 					&& (dm_SetTab[i].SpdLmtEn== dm_stSet.SpdLmtEn))
                        5117 --1577: 				{	
                        5118 --1578: 				    memcpy(&dm_stSet,&(dm_SetTab[i]),sizeof(Dm_SetPageData_ST));
                        5119 --line1578
                        5120 ..lin.D.3A.5CRenesas_Electronics.5CD1x_RGL.5Crgl_ghs_D1Lx_obj_V1.2E2.2E0.5Cvlib.5Capp.5Cgfx_apps.5Csimple_draw_d1l2.5Ctarget.5Cd1lx_mango_ghs.5Cobj.5Cdm.288::
                        5121 .LDWlin288:
00001486 fc0e0700       5122 	mulhi	7,r28,r1
0000148a 1a30           5123 	mov	r26,r6
0000148c 0742           5124 	mov	7,r8
0000148e db09           5125 	add	r27,r1
00001490 0138           5126 	mov	r1,r7
                        5127 	jarl	_memcpy,lp
                        5127 <EXPANSION BEGIN>
                        5127 jarl22 _memcpy , lp 
00001492 80ff0000*      5127 <EXPANSION END>
                        5128 --1579: 					memcpy(Dm_Send_Data.DATA.Buffer.SetMain.Item,dm_stSet.Item,3);
                        5129 --line1579
                        5130 ..lin.D.3A.5CRenesas_Electronics.5CD1x_RGL.5Crgl_ghs_D1Lx_obj_V1.2E2.2E0.5Cvlib.5Capp.5Cgfx_apps.5Csimple_draw_d1l2.5Ctarget.5Cd1lx_mango_ghs.5Cobj.5Cdm.289::
                        5131 .LDWlin289:
00001496 19362000       5132 	addi	32,r25,r6
0000149a 1a3e0300       5133 	addi	3,r26,r7
0000149e 0342           5134 	mov	3,r8
                        5135 	jarl	_memcpy,lp
                        5135 <EXPANSION BEGIN>

                                                                      Page 92
                                                              C:\Users\YINGAO~1\AppData\Local\Temp\gh_000004s1.si
                        5135 jarl22 _memcpy , lp 
000014a0 80ff0000*      5135 <EXPANSION END>
                        5136 --1580: 					
                        5137 --1581: 					break;
                        5138 --line1581
                        5139 ..lin.D.3A.5CRenesas_Electronics.5CD1x_RGL.5Crgl_ghs_D1Lx_obj_V1.2E2.2E0.5Cvlib.5Capp.5Cgfx_apps.5Csimple_draw_d1l2.5Ctarget.5Cd1lx_mango_ghs.5Cobj.5Cdm.290::
                        5140 .LDWlin290:
000014a4 d505*          5141 	br	.L3882
                        5142 .L3884:
                        5143 --1582: 				}
                        5144 --1583: 				else
                        5145 --1584: 				{
                        5146 --line1572
                        5147 ..lin.D.3A.5CRenesas_Electronics.5CD1x_RGL.5Crgl_ghs_D1Lx_obj_V1.2E2.2E0.5Cvlib.5Capp.5Cgfx_apps.5Csimple_draw_d1l2.5Ctarget.5Cd1lx_mango_ghs.5Cobj.5Cdm.291::
                        5148 .LDWlin291:
000014a6 41e2           5149 	add	1,r28
000014a8 9c00           5150 	zxb	r28
000014aa 68e2           5151 	cmp	8,r28
000014ac d1d5*          5152 	bl	.L3877
                        5153 .L3882:
                        5154 --1585: 					/*do nothing*/
                        5155 --1586: 				}
                        5156 --1587: 			}
                        5157 --1588: 			
                        5158 --1589: 			if(SetSel >= dm_stSet.maxCnt-1)
                        5159 --line1589
                        5160 ..lin.D.3A.5CRenesas_Electronics.5CD1x_RGL.5Crgl_ghs_D1Lx_obj_V1.2E2.2E0.5Cvlib.5Capp.5Cgfx_apps.5Csimple_draw_d1l2.5Ctarget.5Cd1lx_mango_ghs.5Cobj.5Cdm.292::
                        5161 .LDWlin292:
000014ae bd0f2f00       5162 	ld.bu	47[r29],r1
000014b2 9d772300       5163 	ld.bu	34[r29],r14
000014b6 5f0a           5164 	add	-1,r1
000014b8 e171           5165 	cmp	r1,r14
000014ba e605*          5166 	blt	.L3887
                        5167 --1590: 			{
                        5168 --1591: 				SetSel = dm_stSet.maxCnt-1;
                        5169 --line1591
                        5170 ..lin.D.3A.5CRenesas_Electronics.5CD1x_RGL.5Crgl_ghs_D1Lx_obj_V1.2E2.2E0.5Cvlib.5Capp.5Cgfx_apps.5Csimple_draw_d1l2.5Ctarget.5Cd1lx_mango_ghs.5Cobj.5Cdm.293::
                        5171 .LDWlin293:
000014bc bd0f2f00       5172 	ld.bu	47[r29],r1
000014c0 5f0a           5173 	add	-1,r1
000014c2 5d0f2200       5174 	st.b	r1,34[r29]
                        5175 .L3887:
                        5176 --1592: 			}
                        5177 --1593: 			else
                        5178 --1594: 			{
                        5179 --1595: 			}
                        5180 --1596: 			Dm_Send_Data.DATA.Buffer.SetMain.Sel = SetSel;
000014c6 9d0f2300       5181 	ld.bu	34[r29],r1
000014ca 5d0f5300       5182 	st.b	r1,83[r29]
000014ce c515*          5183 	br	.L3872
                        5184 .L3888:
                        5185 --1597: 			break;
                        5186 --1598: 		case SUBFUCTION_SET_ILLU:
                        5187 --1599: 			Dm_Send_Data.DATA.Buffer.IlluLevel = illu_Level;
                        5188 --line1599
                        5189 ..lin.D.3A.5CRenesas_Electronics.5CD1x_RGL.5Crgl_ghs_D1Lx_obj_V1.2E2.2E0.5Cvlib.5Capp.5Cgfx_apps.5Csimple_draw_d1l2.5Ctarget.5Cd1lx_mango_ghs.5Cobj.5Cdm.294::
                        5190 .LDWlin294:
000014d0 210600000000*  5191 	mov	_illu_Level,r1
000014d6 210f0100       5192 	ld.w	0[r1],r1
000014da 5d0f5000       5193 	st.b	r1,80[r29]
000014de c50d*          5194 	br	.L3872

                                                                      Page 93
                                                              C:\Users\YINGAO~1\AppData\Local\Temp\gh_000004s1.si
                        5195 .L3889:
                        5196 --1600: 			break;
                        5197 --1601: 		case SUBFUCTION_SET_SPEEDLIMIT:
                        5198 --1602: 			Dm_Send_Data.DATA.Buffer.SpeadLimit = speed_Limit;
                        5199 --line1602
                        5200 ..lin.D.3A.5CRenesas_Electronics.5CD1x_RGL.5Crgl_ghs_D1Lx_obj_V1.2E2.2E0.5Cvlib.5Capp.5Cgfx_apps.5Csimple_draw_d1l2.5Ctarget.5Cd1lx_mango_ghs.5Cobj.5Cdm.295::
                        5201 .LDWlin295:
000014e0 3d0f0500       5202 	ld.w	4[r29],r1
000014e4 5d0f5000       5203 	st.b	r1,80[r29]
000014e8 f505*          5204 	br	.L3872
                        5205 .L3890:
                        5206 --1603: 			break;
                        5207 --1604: 		case SUBFUCTION_SET_SCS:
                        5208 --1605: 			Dm_Send_Data.DATA.Buffer.SCSEn = SCS_Sts;
                        5209 --line1605
                        5210 ..lin.D.3A.5CRenesas_Electronics.5CD1x_RGL.5Crgl_ghs_D1Lx_obj_V1.2E2.2E0.5Cvlib.5Capp.5Cgfx_apps.5Csimple_draw_d1l2.5Ctarget.5Cd1lx_mango_ghs.5Cobj.5Cdm.296::
                        5211 .LDWlin296:
000014ea bd0f2300       5212 	ld.bu	35[r29],r1
000014ee 5d0f5000       5213 	st.b	r1,80[r29]
000014f2 a505*          5214 	br	.L3872
                        5215 .L3891:
                        5216 --line1608
                        5217 ..lin.D.3A.5CRenesas_Electronics.5CD1x_RGL.5Crgl_ghs_D1Lx_obj_V1.2E2.2E0.5Cvlib.5Capp.5Cgfx_apps.5Csimple_draw_d1l2.5Ctarget.5Cd1lx_mango_ghs.5Cobj.5Cdm.297::
                        5218 .LDWlin297:
000014f4 0000           5219 	nop
                        5220 .L3872:
                        5221 --1606: 			break;
                        5222 --1607: 		default:
                        5223 --1608: 			break;
                        5224 --1609: 	}
                        5225 --1610: }
000014f6 0000           5226 	nop
                        5227 --	    .ef
                        5228 .LDW56:
000014f8 4206ff70       5229 	dispose	1,{r25,r26,r27,r28,r29,r31},[lp]
                        5230 	.type	_dm_Get_MainPage_Set_Data,@function
                        5231 	.size	_dm_Get_MainPage_Set_Data,.-_dm_Get_MainPage_Set_Data
                        5232 	.type	_dm_Get_MainPage_Set_Data..D.3A.5CRenesas_Electronics.5CD1x_RGL.5Crgl_ghs_D1Lx_obj_V1.2E2.2E0.5Cvlib.5Capp.5Cgfx_apps.5Csimple_draw_d1l2.5Ctarget.5Cd1lx_mango_ghs.5Cobj.5Cdm.,@function
                        5233 	.size	_dm_Get_MainPage_Set_Data..D.3A.5CRenesas_Electronics.5CD1x_RGL.5Crgl_ghs_D1Lx_obj_V1.2E2.2E0.5Cvlib.5Capp.5Cgfx_apps.5Csimple_draw_d1l2.5Ctarget.5Cd1lx_mango_ghs.5Cobj.5Cdm.,.-_dm_Get_MainPage_Set_Data..D.3A.5CRenesas_Electronics.5CD1x_RGL.5Crgl_ghs_D1Lx_obj_V1.2E2.2E0.5Cvlib.5Capp.5Cgfx_apps.5Csimple_draw_d1l2.5Ctarget.5Cd1lx_mango_ghs.5Cobj.5Cdm.
                        5234 	.align	2
                        5235 .LDW66:
                        5236 --_i	r28	local
                        5237 
                        5238 	.data
                        5239 	.text
                        5240 
                        5241 
                        5242 --1614: /**************************************************
                        5243 --1615: *Function :dm_Get_MainPage_ENT_Data
                        5244 --1616: *Description:  collect Enfotainment Data
                        5245 --1617: *Parameters:none
                        5246 --1618: *Returns: none
                        5247 --1619: **create&Verlog:
                        5248 --1620: *Author Name xs  Date:2017-09-22   Ver:02
                        5249 --1621: ***************************************************/
                        5250 --1622: static void dm_Get_MainPage_ENT_Data(void)
                        5251 	.align	2
                        5252 	.align	2
                        5253 	.global	_dm_Get_MainPage_ENT_Data..D.3A.5CRenesas_Electronics.5CD1x_RGL.5Crgl_ghs_D1Lx_obj_V1.2E2.2E0.5Cvlib.5Capp.5Cgfx_apps.5Csimple_draw_d1l2.5Ctarget.5Cd1lx_mango_ghs.5Cobj.5Cdm.
                        5254 _dm_Get_MainPage_ENT_Data..D.3A.5CRenesas_Electronics.5CD1x_RGL.5Crgl_ghs_D1Lx_obj_V1.2E2.2E0.5Cvlib.5Capp.5Cgfx_apps.5Csimple_draw_d1l2.5Ctarget.5Cd1lx_mango_ghs.5Cobj.5Cdm.:
                        5255 _dm_Get_MainPage_ENT_Data:

                                                                      Page 94
                                                              C:\Users\YINGAO~1\AppData\Local\Temp\gh_000004s1.si
000014fc 8207e110       5256 	prepare	{r27,r28,r29,r31},1
00001500 3d0600000000*  5257 	mov	_Dm_Send_Data,r29
00001506 1dd8           5258 	mov	r29,r27
                        5259 --	    .bf
                        5260 .LDW76:
                        5261 --1623: {
                        5262 --1624: 	U8 res;
                        5263 --1625: 	U8 GearType;
                        5264 --1626: 	U16 RdoFrqcVal;
                        5265 --1627: 	U8 NavDircn;
                        5266 --1628: 	U16 NavDist;
                        5267 --1629: 	U8 unit = 0;
00001508 00e2           5268 	mov	0,r28
                        5269 --1630: 	U8 FICMLost = FALSE;
0000150a 43070200       5270 	st.b	zero,2[sp]
                        5271 --1632: 	U8 MusSrcMd = 0;
0000150e 43070300       5272 	st.b	zero,3[sp]
                        5273 --1633: 	COM_GetSignalValue_8(INDEX_COM_RS_MUSSRCMD, &MusSrcMd);
00001512 20369c00       5274 	movea	156,zero,r6
00001516 233e0300       5275 	movea	3,sp,r7
                        5276 	jarl	_COM_GetSignalValue_8,lp
                        5276 <EXPANSION BEGIN>
                        5276 jarl22 _COM_GetSignalValue_8 , lp 
0000151a 80ff0000*      5276 <EXPANSION END>
                        5277 --1634: 	NWD_GetNodeMissing(INDEX_FICM_NODE_SOT,&FICMLost);
                        5278 --line1634
                        5279 ..lin.D.3A.5CRenesas_Electronics.5CD1x_RGL.5Crgl_ghs_D1Lx_obj_V1.2E2.2E0.5Cvlib.5Capp.5Cgfx_apps.5Csimple_draw_d1l2.5Ctarget.5Cd1lx_mango_ghs.5Cobj.5Cdm.298::
                        5280 .LDWlin298:
0000151e 0932           5281 	mov	9,r6
00001520 233e0200       5282 	movea	2,sp,r7
                        5283 	jarl	_NWD_GetNodeMissing,lp
                        5283 <EXPANSION BEGIN>
                        5283 jarl22 _NWD_GetNodeMissing , lp 
00001524 80ff0000*      5283 <EXPANSION END>
                        5284 --1635: 	
                        5285 --1636: 	switch(Dm_Send_Data.CMD.SubPage)
                        5286 --line1636
                        5287 ..lin.D.3A.5CRenesas_Electronics.5CD1x_RGL.5Crgl_ghs_D1Lx_obj_V1.2E2.2E0.5Cvlib.5Capp.5Cgfx_apps.5Csimple_draw_d1l2.5Ctarget.5Cd1lx_mango_ghs.5Cobj.5Cdm.299::
                        5288 .LDWlin299:
00001528 9d0f0300       5289 	ld.bu	2[r29],r1
0000152c e009           5290 	cmp	zero,r1
0000152e da0d*          5291 	bne	.L4053
                        5292 --1637: 	{
                        5293 --1638: 		case SUBFUCTION_MEDIA_MUSIC:
                        5294 --1639: 			if(FALSE == FICMLost)
                        5295 --line1639
                        5296 ..lin.D.3A.5CRenesas_Electronics.5CD1x_RGL.5Crgl_ghs_D1Lx_obj_V1.2E2.2E0.5Cvlib.5Capp.5Cgfx_apps.5Csimple_draw_d1l2.5Ctarget.5Cd1lx_mango_ghs.5Cobj.5Cdm.300::
                        5297 .LDWlin300:
00001530 830f0300       5298 	ld.bu	2[sp],r1
00001534 e009           5299 	cmp	zero,r1
00001536 ea05*          5300 	bne	.L4050
                        5301 --1640: 			Dm_Send_Data.DATA.Buffer.MusicSrc = MusSrcMd;
                        5302 --line1640
                        5303 ..lin.D.3A.5CRenesas_Electronics.5CD1x_RGL.5Crgl_ghs_D1Lx_obj_V1.2E2.2E0.5Cvlib.5Capp.5Cgfx_apps.5Csimple_draw_d1l2.5Ctarget.5Cd1lx_mango_ghs.5Cobj.5Cdm.301::
                        5304 .LDWlin301:
00001538 a30f0300       5305 	ld.bu	3[sp],r1
0000153c 5d0f2000       5306 	st.b	r1,32[r29]
00001540 b505*          5307 	br	.L4052
                        5308 .L4050:
                        5309 --1641: 			else				
                        5310 --1642: 			Dm_Send_Data.DATA.Buffer.MusicSrc = 0;

                                                                      Page 95
                                                              C:\Users\YINGAO~1\AppData\Local\Temp\gh_000004s1.si
                        5311 --line1642
                        5312 ..lin.D.3A.5CRenesas_Electronics.5CD1x_RGL.5Crgl_ghs_D1Lx_obj_V1.2E2.2E0.5Cvlib.5Capp.5Cgfx_apps.5Csimple_draw_d1l2.5Ctarget.5Cd1lx_mango_ghs.5Cobj.5Cdm.302::
                        5313 .LDWlin302:
00001542 5d072000       5314 	st.b	zero,32[r29]
                        5315 .L4052:
00001546 a505*          5316 	br	.L4047
                        5317 .L4053:
                        5318 --line1646
                        5319 ..lin.D.3A.5CRenesas_Electronics.5CD1x_RGL.5Crgl_ghs_D1Lx_obj_V1.2E2.2E0.5Cvlib.5Capp.5Cgfx_apps.5Csimple_draw_d1l2.5Ctarget.5Cd1lx_mango_ghs.5Cobj.5Cdm.303::
                        5320 .LDWlin303:
00001548 0000           5321 	nop
                        5322 .L4047:
                        5323 --1643: 			break;
                        5324 --1645: 		default:
                        5325 --1646: 			break;
                        5326 --1647: 	}
                        5327 --1648: }
0000154a 0000           5328 	nop
                        5329 --	    .ef
                        5330 .LDW86:
0000154c 4206ff10       5331 	dispose	1,{r27,r28,r29,r31},[lp]
                        5332 	.type	_dm_Get_MainPage_ENT_Data,@function
                        5333 	.size	_dm_Get_MainPage_ENT_Data,.-_dm_Get_MainPage_ENT_Data
                        5334 	.type	_dm_Get_MainPage_ENT_Data..D.3A.5CRenesas_Electronics.5CD1x_RGL.5Crgl_ghs_D1Lx_obj_V1.2E2.2E0.5Cvlib.5Capp.5Cgfx_apps.5Csimple_draw_d1l2.5Ctarget.5Cd1lx_mango_ghs.5Cobj.5Cdm.,@function
                        5335 	.size	_dm_Get_MainPage_ENT_Data..D.3A.5CRenesas_Electronics.5CD1x_RGL.5Crgl_ghs_D1Lx_obj_V1.2E2.2E0.5Cvlib.5Capp.5Cgfx_apps.5Csimple_draw_d1l2.5Ctarget.5Cd1lx_mango_ghs.5Cobj.5Cdm.,.-_dm_Get_MainPage_ENT_Data..D.3A.5CRenesas_Electronics.5CD1x_RGL.5Crgl_ghs_D1Lx_obj_V1.2E2.2E0.5Cvlib.5Capp.5Cgfx_apps.5Csimple_draw_d1l2.5Ctarget.5Cd1lx_mango_ghs.5Cobj.5Cdm.
                        5336 	.align	2
                        5337 .LDW96:
                        5338 --_unit	r28	local
                        5339 --_FICMLost	2[sp]	local
                        5340 --_MusSrcMd	3[sp]	local
                        5341 
                        5342 	.data
                        5343 	.text
                        5344 
                        5345 
                        5346 --1652: /**************************************************
                        5347 --1653: *Function :dm_Get_MainPage_FAULT_Data
                        5348 --1654: *Description:  collect Enfotainment Data
                        5349 --1655: *Parameters:none
                        5350 --1656: *Returns: none
                        5351 --1657: **create&Verlog:
                        5352 --1658: *Author Name xs  Date:2017-09-22   Ver:02
                        5353 --1659: ***************************************************/
                        5354 --1660: static void dm_Get_MainPage_FAULT_Data(void)
                        5355 	.align	2
                        5356 	.align	2
                        5357 	.global	_dm_Get_MainPage_FAULT_Data..D.3A.5CRenesas_Electronics.5CD1x_RGL.5Crgl_ghs_D1Lx_obj_V1.2E2.2E0.5Cvlib.5Capp.5Cgfx_apps.5Csimple_draw_d1l2.5Ctarget.5Cd1lx_mango_ghs.5Cobj.5Cdm.
                        5358 _dm_Get_MainPage_FAULT_Data..D.3A.5CRenesas_Electronics.5CD1x_RGL.5Crgl_ghs_D1Lx_obj_V1.2E2.2E0.5Cvlib.5Capp.5Cgfx_apps.5Csimple_draw_d1l2.5Ctarget.5Cd1lx_mango_ghs.5Cobj.5Cdm.:
                        5359 _dm_Get_MainPage_FAULT_Data:
00001550 8007e110       5360 	prepare	{r27,r28,r29,r31},0
00001554 3d0600000000*  5361 	mov	_CurTotolFaultList-1,r29
0000155a 3de62c00       5362 	movea	44,r29,r28
0000155e 3b0600000000*  5363 	mov	_CurFaultList,r27
                        5364 --	    .bf
                        5365 .LDW07:
                        5366 --1661: {
                        5367 --1663: 	EVT_GetFltListItem(CurFaultList,&Dm_Send_Data.DATA.Buffer.Fault,DM_FLTLIST_ITEM_MAX);  
00001564 9b370100       5368 	ld.bu	0[r27],r6
00001568 1c38           5369 	mov	r28,r7
0000156a 0442           5370 	mov	4,r8
                        5371 	jarl	_EVT_GetFltListItem,lp

                                                                      Page 96
                                                              C:\Users\YINGAO~1\AppData\Local\Temp\gh_000004s1.si
                        5371 <EXPANSION BEGIN>
                        5371 jarl22 _EVT_GetFltListItem , lp 
0000156c 80ff0000*      5371 <EXPANSION END>
                        5372 --1664: 	CurTotolFaultList = Dm_Send_Data.DATA.Buffer.Fault.total;
                        5373 --line1664
                        5374 ..lin.D.3A.5CRenesas_Electronics.5CD1x_RGL.5Crgl_ghs_D1Lx_obj_V1.2E2.2E0.5Cvlib.5Capp.5Cgfx_apps.5Csimple_draw_d1l2.5Ctarget.5Cd1lx_mango_ghs.5Cobj.5Cdm.304::
                        5375 .LDWlin304:
00001570 fc0f0100       5376 	ld.hu	0[r28],r1
00001574 2b0600000000*  5377 	mov	_CurTotolFaultList,r11
0000157a 4b0f0000       5378 	st.b	r1,0[r11]
                        5379 --1665: 	CurFaultList = Dm_Send_Data.DATA.Buffer.Fault.index;
0000157e fc0f0300       5380 	ld.hu	2[r28],r1
00001582 5b0f0000       5381 	st.b	r1,0[r27]
                        5382 --1666: 	
                        5383 --1667: }
00001586 0000           5384 	nop
                        5385 --	    .ef
                        5386 .LDW17:
00001588 4006ff10       5387 	dispose	0,{r27,r28,r29,r31},[lp]
                        5388 	.type	_dm_Get_MainPage_FAULT_Data,@function
                        5389 	.size	_dm_Get_MainPage_FAULT_Data,.-_dm_Get_MainPage_FAULT_Data
                        5390 	.type	_dm_Get_MainPage_FAULT_Data..D.3A.5CRenesas_Electronics.5CD1x_RGL.5Crgl_ghs_D1Lx_obj_V1.2E2.2E0.5Cvlib.5Capp.5Cgfx_apps.5Csimple_draw_d1l2.5Ctarget.5Cd1lx_mango_ghs.5Cobj.5Cdm.,@function
                        5391 	.size	_dm_Get_MainPage_FAULT_Data..D.3A.5CRenesas_Electronics.5CD1x_RGL.5Crgl_ghs_D1Lx_obj_V1.2E2.2E0.5Cvlib.5Capp.5Cgfx_apps.5Csimple_draw_d1l2.5Ctarget.5Cd1lx_mango_ghs.5Cobj.5Cdm.,.-_dm_Get_MainPage_FAULT_Data..D.3A.5CRenesas_Electronics.5CD1x_RGL.5Crgl_ghs_D1Lx_obj_V1.2E2.2E0.5Cvlib.5Capp.5Cgfx_apps.5Csimple_draw_d1l2.5Ctarget.5Cd1lx_mango_ghs.5Cobj.5Cdm.
                        5392 	.align	2
                        5393 .LDW27:
                        5394 
                        5395 	.data
                        5396 	.text
                        5397 
                        5398 
                        5399 --1670: /**************************************************
                        5400 --1671: *Function :DM_GetDisplayInfo
                        5401 --1672: *Description:  Collect all data whitch HMI need 
                        5402 --1673: *Parameters:none
                        5403 --1674: *Returns: 
                        5404 --1675:     RET_FAIL: DM module init fail
                        5405 --1676:     RET_INVALID: parameter err
                        5406 --1677:     RET_OK: operation success 
                        5407 --1679: **create&Verlog:
                        5408 --1680: *Author Name xs  Date:2017-09-22   Ver:02
                        5409 --1681: ***************************************************/
                        5410 --1682: U8 DM_GetDisplayInfo(DM_Send_PageValue_ST *pInfo)
                        5411 	.align	2
                        5412 	.align	2
                        5413 	.global	_DM_GetDisplayInfo
                        5414 _DM_GetDisplayInfo:
0000158c 80076100       5415 	prepare	{r29,r31},0
00001590 06e8           5416 	mov	r6,r29
                        5417 --	    .bf
                        5418 .LDW37:
                        5419 --1683: {
                        5420 --1684:     U8 res;
                        5421 --1686:     if (FALSE == DM_InitSts)
00001592 210600000000*  5422 	mov	_DM_InitSts,r1
00001598 810f0100       5423 	ld.bu	0[r1],r1
0000159c e009           5424 	cmp	zero,r1
0000159e ba05*          5425 	bne	.L4180
                        5426 --1687:     {
                        5427 --1688:         res = RET_FAIL;
                        5428 --line1688
                        5429 ..lin.D.3A.5CRenesas_Electronics.5CD1x_RGL.5Crgl_ghs_D1Lx_obj_V1.2E2.2E0.5Cvlib.5Capp.5Cgfx_apps.5Csimple_draw_d1l2.5Ctarget.5Cd1lx_mango_ghs.5Cobj.5Cdm.305::

                                                                      Page 97
                                                              C:\Users\YINGAO~1\AppData\Local\Temp\gh_000004s1.si
                        5430 .LDWlin305:
000015a0 000a           5431 	mov	0,r1
000015a2 e50d*          5432 	br	.L4182
                        5433 .L4180:
                        5434 --1689:     }
                        5435 --1690:     else if (NULL_PTR == pInfo)
                        5436 --line1690
                        5437 ..lin.D.3A.5CRenesas_Electronics.5CD1x_RGL.5Crgl_ghs_D1Lx_obj_V1.2E2.2E0.5Cvlib.5Capp.5Cgfx_apps.5Csimple_draw_d1l2.5Ctarget.5Cd1lx_mango_ghs.5Cobj.5Cdm.306::
                        5438 .LDWlin306:
000015a4 e0e9           5439 	cmp	zero,r29
000015a6 ba05*          5440 	bne	.L4183
                        5441 --1691:     {
                        5442 --1692:         res = RET_INVALID;
                        5443 --line1692
                        5444 ..lin.D.3A.5CRenesas_Electronics.5CD1x_RGL.5Crgl_ghs_D1Lx_obj_V1.2E2.2E0.5Cvlib.5Capp.5Cgfx_apps.5Csimple_draw_d1l2.5Ctarget.5Cd1lx_mango_ghs.5Cobj.5Cdm.307::
                        5445 .LDWlin307:
000015a8 020a           5446 	mov	2,r1
000015aa a50d*          5447 	br	.L4182
                        5448 .L4183:
                        5449 --1693:     }
                        5450 --1694:     else
                        5451 --1695:     {
                        5452 --1696:         memcpy(pInfo, &Dm_Send_Data, sizeof(DM_Send_PageValue_ST));
                        5453 --line1696
                        5454 ..lin.D.3A.5CRenesas_Electronics.5CD1x_RGL.5Crgl_ghs_D1Lx_obj_V1.2E2.2E0.5Cvlib.5Capp.5Cgfx_apps.5Csimple_draw_d1l2.5Ctarget.5Cd1lx_mango_ghs.5Cobj.5Cdm.308::
                        5455 .LDWlin308:
000015ac 1d30           5456 	mov	r29,r6
000015ae 20464000       5457 	movea	64,zero,r8
000015b2 270600000000*  5458 	mov	_Dm_Send_Data,r7
                        5459 	jarl	_memcpy,lp
                        5459 <EXPANSION BEGIN>
                        5459 jarl22 _memcpy , lp 
000015b8 80ff0000*      5459 <EXPANSION END>
                        5460 --1697:         res = RET_OK;       
                        5461 --line1697
                        5462 ..lin.D.3A.5CRenesas_Electronics.5CD1x_RGL.5Crgl_ghs_D1Lx_obj_V1.2E2.2E0.5Cvlib.5Capp.5Cgfx_apps.5Csimple_draw_d1l2.5Ctarget.5Cd1lx_mango_ghs.5Cobj.5Cdm.309::
                        5463 .LDWlin309:
000015bc 010a           5464 	mov	1,r1
                        5465 .L4182:
                        5466 --1698:     }
                        5467 --1699:     return  res;
000015be 0150           5468 	mov	r1,r10
                        5469 --	    .ef
                        5470 .LDW47:
000015c0 40067f00       5471 	dispose	0,{r29,r31},[lp]
                        5472 	.type	_DM_GetDisplayInfo,@function
                        5473 	.size	_DM_GetDisplayInfo,.-_DM_GetDisplayInfo
                        5474 	.align	2
                        5475 .LDW57:
                        5476 --_res	r1	local
                        5477 
                        5478 --_pInfo	r29	param
                        5479 
                        5480 	.data
                        5481 	.text
                        5482 
                        5483 --1700: }
                        5484 
                        5485 --1703: /***************************************************************
                        5486 --1704: *Function :DM_GetScsSwEn
                        5487 --1705: *Description:DM SHOULD CLEAN THE scs status with 100ms period 

                                                                      Page 98
                                                              C:\Users\YINGAO~1\AppData\Local\Temp\gh_000004s1.si
                        5488 --1706: *Parameters:none
                        5489 --1707: *Returns: 
                        5490 --1708:     RET_FAIL: DM module init fail
                        5491 --1709:     RET_INVALID: parameter err
                        5492 --1710:     RET_OK: operation success 
                        5493 --1711: **create&Verlog:
                        5494 --1712: *Author Name xs  Date:2017-09-22   Ver:02
                        5495 --1713: *****************************************************************/
                        5496 --1714: /*DM SHOULD CLEAN THE scs status with 100ms*/
                        5497 --1715: U8 DM_GetScsSwEn(PU8 status)
                        5498 	.align	2
                        5499 	.align	2
                        5500 	.global	_DM_GetScsSwEn
                        5501 _DM_GetScsSwEn:
000015c4 06f0           5502 	mov	r6,ep
                        5503 --	    .bf
                        5504 .LDW67:
                        5505 --1716: {
                        5506 --1717:    
                        5507 --1718:     if(FALSE == DM_InitSts)
000015c6 210600000000*  5508 	mov	_DM_InitSts,r1
000015cc 810f0100       5509 	ld.bu	0[r1],r1
000015d0 e009           5510 	cmp	zero,r1
000015d2 ba05*          5511 	bne	.L4246
                        5512 --1719:     {
                        5513 --1720:         return RET_FAIL;
                        5514 --line1720
                        5515 ..lin.D.3A.5CRenesas_Electronics.5CD1x_RGL.5Crgl_ghs_D1Lx_obj_V1.2E2.2E0.5Cvlib.5Capp.5Cgfx_apps.5Csimple_draw_d1l2.5Ctarget.5Cd1lx_mango_ghs.5Cobj.5Cdm.310::
                        5516 .LDWlin310:
000015d4 0052           5517 	mov	0,r10
000015d6 c50d*          5518 	br	.L4241
                        5519 .L4246:
                        5520 --1721:     }
                        5521 --1722: 	else
                        5522 --1723: 	{
                        5523 --1724: 	}
                        5524 --1725: 	
                        5525 --1726:     if(NULL_PTR == status)
                        5526 --line1726
                        5527 ..lin.D.3A.5CRenesas_Electronics.5CD1x_RGL.5Crgl_ghs_D1Lx_obj_V1.2E2.2E0.5Cvlib.5Capp.5Cgfx_apps.5Csimple_draw_d1l2.5Ctarget.5Cd1lx_mango_ghs.5Cobj.5Cdm.311::
                        5528 .LDWlin311:
000015d8 e0f1           5529 	cmp	zero,ep
000015da ba05*          5530 	bne	.L4247
                        5531 --1727:     {
                        5532 --1728:         return RET_INVALID;
                        5533 --line1728
                        5534 ..lin.D.3A.5CRenesas_Electronics.5CD1x_RGL.5Crgl_ghs_D1Lx_obj_V1.2E2.2E0.5Cvlib.5Capp.5Cgfx_apps.5Csimple_draw_d1l2.5Ctarget.5Cd1lx_mango_ghs.5Cobj.5Cdm.312::
                        5535 .LDWlin312:
000015dc 0252           5536 	mov	2,r10
000015de 850d*          5537 	br	.L4241
                        5538 .L4247:
                        5539 --1729:     }
                        5540 --1730:     else
                        5541 --1731:     {
                        5542 --1732:         *status = scs_cmd;
                        5543 --line1732
                        5544 ..lin.D.3A.5CRenesas_Electronics.5CD1x_RGL.5Crgl_ghs_D1Lx_obj_V1.2E2.2E0.5Cvlib.5Capp.5Cgfx_apps.5Csimple_draw_d1l2.5Ctarget.5Cd1lx_mango_ghs.5Cobj.5Cdm.313::
                        5545 .LDWlin313:
000015e0 210600000000*  5546 	mov	_scs_cmd,r1
000015e6 810f0100       5547 	ld.bu	0[r1],r1
000015ea 800b           5548 	sst.b	r1,0[ep]

                                                                      Page 99
                                                              C:\Users\YINGAO~1\AppData\Local\Temp\gh_000004s1.si
                        5549 --1733:         return RET_OK;
000015ec 0152           5550 	mov	1,r10
                        5551 .L4241:
                        5552 --	    .ef
                        5553 .LDW77:
000015ee 7f00           5554 	jmp	[lp]
                        5555 	.type	_DM_GetScsSwEn,@function
                        5556 	.size	_DM_GetScsSwEn,.-_DM_GetScsSwEn
                        5557 	.align	2
                        5558 .LDW87:
                        5559 
                        5560 --_status	ep	param
                        5561 
                        5562 	.data
                        5563 	.text
                        5564 
                        5565 --1734:     }
                        5566 --1735: }
                        5567 
                        5568 --1739: /***************************************************************
                        5569 --1740: *Function :DM_SetScsSwEn
                        5570 --1741: *Description:HMI will use this function to modify the SCS output 
                        5571 --1742: *Parameters:none
                        5572 --1743: *Returns: 
                        5573 --1744:     RET_FAIL: DM module init fail
                        5574 --1745:     RET_INVALID: parameter err
                        5575 --1746:     RET_OK: operation success 
                        5576 --1747: **create&Verlog:
                        5577 --1748: *Author Name xs  Date:2017-09-22   Ver:02
                        5578 --1749: *****************************************************************/
                        5579 --1750: void  DM_SetScsSwEn(U8 status)
                        5580 	.align	2
                        5581 	.align	2
                        5582 	.global	_DM_SetScsSwEn
                        5583 _DM_SetScsSwEn:
000015f0 c60eff00       5584 	andi	255,r6,r1
                        5585 --	    .bf
                        5586 .LDW97:
                        5587 --1751: {
                        5588 --1752:     scs_cmd = status;
000015f4 2b0600000000*  5589 	mov	_scs_cmd,r11
000015fa 4b0f0000       5590 	st.b	r1,0[r11]
                        5591 --1753: }
000015fe 0000           5592 	nop
                        5593 --	    .ef
                        5594 .LDW08:
00001600 7f00           5595 	jmp	[lp]
                        5596 	.type	_DM_SetScsSwEn,@function
                        5597 	.size	_DM_SetScsSwEn,.-_DM_SetScsSwEn
                        5598 	.align	2
                        5599 .LDW18:
                        5600 
                        5601 --_status	r1	param
                        5602 
                        5603 	.data
                        5604 	.text
                        5605 
                        5606 
                        5607 --1755: /***************************************************************
                        5608 --1756: *Function :DM_GetSetMainIndex
                        5609 --1757: *Description:HMI will use this function to Get 

                                                                      Page 100
                                                              C:\Users\YINGAO~1\AppData\Local\Temp\gh_000004s1.si
                        5610 --1758:             mainset page  highlight index 
                        5611 --1759: *Parameters:Index out put
                        5612 --1760: *Returns: 
                        5613 --1761:     RET_FAIL: DM module init fail
                        5614 --1762:     RET_INVALID: parameter err
                        5615 --1763:     RET_OK: operation success 
                        5616 --1764: **create&Verlog:
                        5617 --1765: *Author Name xs  Date:2017-09-22   Ver:02
                        5618 --1766: *****************************************************************/
                        5619 --1767: U8 DM_GetSetMainIndex(PU8 pIndex)
                        5620 	.align	2
                        5621 	.align	2
                        5622 	.global	_DM_GetSetMainIndex
                        5623 _DM_GetSetMainIndex:
00001602 06f0           5624 	mov	r6,ep
                        5625 --	    .bf
                        5626 .LDW28:
                        5627 --1768: {
                        5628 --1769:     if(FALSE == DM_InitSts)
00001604 210600000000*  5629 	mov	_DM_InitSts,r1
0000160a 810f0100       5630 	ld.bu	0[r1],r1
0000160e e009           5631 	cmp	zero,r1
00001610 ba05*          5632 	bne	.L4333
                        5633 --1770:     {
                        5634 --1771:         return RET_FAIL;
                        5635 --line1771
                        5636 ..lin.D.3A.5CRenesas_Electronics.5CD1x_RGL.5Crgl_ghs_D1Lx_obj_V1.2E2.2E0.5Cvlib.5Capp.5Cgfx_apps.5Csimple_draw_d1l2.5Ctarget.5Cd1lx_mango_ghs.5Cobj.5Cdm.314::
                        5637 .LDWlin314:
00001612 0052           5638 	mov	0,r10
00001614 c50d*          5639 	br	.L4328
                        5640 .L4333:
                        5641 --1772:     }
                        5642 --1773: 	else
                        5643 --1774: 	{
                        5644 --1775: 	}
                        5645 --1776: 	
                        5646 --1777:     if(NULL_PTR == pIndex)
                        5647 --line1777
                        5648 ..lin.D.3A.5CRenesas_Electronics.5CD1x_RGL.5Crgl_ghs_D1Lx_obj_V1.2E2.2E0.5Cvlib.5Capp.5Cgfx_apps.5Csimple_draw_d1l2.5Ctarget.5Cd1lx_mango_ghs.5Cobj.5Cdm.315::
                        5649 .LDWlin315:
00001616 e0f1           5650 	cmp	zero,ep
00001618 ba05*          5651 	bne	.L4334
                        5652 --1778:     {
                        5653 --1779:         return RET_INVALID;
                        5654 --line1779
                        5655 ..lin.D.3A.5CRenesas_Electronics.5CD1x_RGL.5Crgl_ghs_D1Lx_obj_V1.2E2.2E0.5Cvlib.5Capp.5Cgfx_apps.5Csimple_draw_d1l2.5Ctarget.5Cd1lx_mango_ghs.5Cobj.5Cdm.316::
                        5656 .LDWlin316:
0000161a 0252           5657 	mov	2,r10
0000161c 850d*          5658 	br	.L4328
                        5659 .L4334:
                        5660 --1780:     }
                        5661 --1781:     else
                        5662 --1782:     {
                        5663 --1783:         *pIndex = SetSel;
                        5664 --line1783
                        5665 ..lin.D.3A.5CRenesas_Electronics.5CD1x_RGL.5Crgl_ghs_D1Lx_obj_V1.2E2.2E0.5Cvlib.5Capp.5Cgfx_apps.5Csimple_draw_d1l2.5Ctarget.5Cd1lx_mango_ghs.5Cobj.5Cdm.317::
                        5666 .LDWlin317:
0000161e 210600000000*  5667 	mov	_SetSel,r1
00001624 810f0100       5668 	ld.bu	0[r1],r1
00001628 800b           5669 	sst.b	r1,0[ep]
                        5670 --1784:         return RET_OK;

                                                                      Page 101
                                                              C:\Users\YINGAO~1\AppData\Local\Temp\gh_000004s1.si
0000162a 0152           5671 	mov	1,r10
                        5672 .L4328:
                        5673 --	    .ef
                        5674 .LDW38:
0000162c 7f00           5675 	jmp	[lp]
                        5676 	.type	_DM_GetSetMainIndex,@function
                        5677 	.size	_DM_GetSetMainIndex,.-_DM_GetSetMainIndex
                        5678 	.align	2
                        5679 .LDW48:
                        5680 
                        5681 --_pIndex	ep	param
                        5682 
                        5683 	.data
                        5684 	.text
                        5685 
                        5686 --1785:     }
                        5687 --1786: }
                        5688 
                        5689 --1789: /***************************************************************
                        5690 --1790: *Function :DM_GetFltListIndex
                        5691 --1791: *Description:HMI will use this function to Get 
                        5692 --1792:             Fault list page  the first item  show on the screen
                        5693 --1793: *Parameters:Index out put
                        5694 --1794: *Returns: 
                        5695 --1795:     RET_FAIL: DM module init fail
                        5696 --1796:     RET_INVALID: parameter err
                        5697 --1797:     RET_OK: operation success 
                        5698 --1798: **create&Verlog:
                        5699 --1799: *Author Name xs  Date:2017-09-22   Ver:02
                        5700 --1800: *****************************************************************/
                        5701 --1801: U8 DM_GetFltListIndex(PU8 pIndex)
                        5702 	.align	2
                        5703 	.align	2
                        5704 	.global	_DM_GetFltListIndex
                        5705 _DM_GetFltListIndex:
0000162e 06f0           5706 	mov	r6,ep
00001630 210600000000*  5707 	mov	_DM_InitSts,r1
                        5708 --	    .bf
                        5709 .LDW58:
                        5710 --1802: {
                        5711 --1803:     if(FALSE == DM_InitSts)
00001636 2e0600000000*  5712 	mov	_DM_InitSts,r14
0000163c 8e770100       5713 	ld.bu	0[r14],r14
00001640 e071           5714 	cmp	zero,r14
00001642 ba05*          5715 	bne	.L4401
                        5716 --1804:     {
                        5717 --1805:         return RET_FAIL;
                        5718 --line1805
                        5719 ..lin.D.3A.5CRenesas_Electronics.5CD1x_RGL.5Crgl_ghs_D1Lx_obj_V1.2E2.2E0.5Cvlib.5Capp.5Cgfx_apps.5Csimple_draw_d1l2.5Ctarget.5Cd1lx_mango_ghs.5Cobj.5Cdm.318::
                        5720 .LDWlin318:
00001644 0052           5721 	mov	0,r10
00001646 950d*          5722 	br	.L4396
                        5723 .L4401:
                        5724 --1806:     }
                        5725 --1807: 	else
                        5726 --1808: 	{
                        5727 --1809: 	}
                        5728 --1810: 	
                        5729 --1811:     if(NULL_PTR == pIndex)
                        5730 --line1811
                        5731 ..lin.D.3A.5CRenesas_Electronics.5CD1x_RGL.5Crgl_ghs_D1Lx_obj_V1.2E2.2E0.5Cvlib.5Capp.5Cgfx_apps.5Csimple_draw_d1l2.5Ctarget.5Cd1lx_mango_ghs.5Cobj.5Cdm.319::

                                                                      Page 102
                                                              C:\Users\YINGAO~1\AppData\Local\Temp\gh_000004s1.si
                        5732 .LDWlin319:
00001648 e0f1           5733 	cmp	zero,ep
0000164a ba05*          5734 	bne	.L4402
                        5735 --1812:     {
                        5736 --1813:         return RET_INVALID;
                        5737 --line1813
                        5738 ..lin.D.3A.5CRenesas_Electronics.5CD1x_RGL.5Crgl_ghs_D1Lx_obj_V1.2E2.2E0.5Cvlib.5Capp.5Cgfx_apps.5Csimple_draw_d1l2.5Ctarget.5Cd1lx_mango_ghs.5Cobj.5Cdm.320::
                        5739 .LDWlin320:
0000164c 0252           5740 	mov	2,r10
0000164e d505*          5741 	br	.L4396
                        5742 .L4402:
                        5743 --1814:     }
                        5744 --1815:     else
                        5745 --1816:     {
                        5746 --1817:          *pIndex = CurFaultList;
                        5747 --line1817
                        5748 ..lin.D.3A.5CRenesas_Electronics.5CD1x_RGL.5Crgl_ghs_D1Lx_obj_V1.2E2.2E0.5Cvlib.5Capp.5Cgfx_apps.5Csimple_draw_d1l2.5Ctarget.5Cd1lx_mango_ghs.5Cobj.5Cdm.321::
                        5749 .LDWlin321:
00001650 a10f0100       5750 	ld.bu	1[r1],r1
00001654 800b           5751 	sst.b	r1,0[ep]
                        5752 --1818:         return RET_OK;
00001656 0152           5753 	mov	1,r10
                        5754 .L4396:
                        5755 --	    .ef
                        5756 .LDW68:
00001658 7f00           5757 	jmp	[lp]
                        5758 	.type	_DM_GetFltListIndex,@function
                        5759 	.size	_DM_GetFltListIndex,.-_DM_GetFltListIndex
                        5760 	.align	2
                        5761 .LDW78:
                        5762 
                        5763 --_pIndex	ep	param
                        5764 
                        5765 	.data
                        5766 	.text
                        5767 
                        5768 --1819:     }
                        5769 --1820: }
                        5770 
                        5771 --1823: /***************************************************************
                        5772 --1824: *Function :DM_UpdatePageInfo
                        5773 --1825: *Description:HMI will use this function to Get 
                        5774 --1826:            function information when pwr-on
                        5775 --1827: *Parameters:Index out put
                        5776 --1828: *Returns: 
                        5777 --1829:     RET_FAIL: DM module init fail
                        5778 --1830:     RET_INVALID: parameter err
                        5779 --1831:     RET_OK: operation success 
                        5780 --1832: **create&Verlog:
                        5781 --1833: *Author Name xs  Date:2017-09-22   Ver:02
                        5782 --1834: *****************************************************************/
                        5783 --1835: U8 DM_UpdatePageInfo(Dm_CMD_ST *data)
                        5784 	.align	2
                        5785 	.align	2
                        5786 	.global	_DM_UpdatePageInfo
                        5787 _DM_UpdatePageInfo:
0000165a 80076100       5788 	prepare	{r29,r31},0
0000165e 06e8           5789 	mov	r6,r29
                        5790 --	    .bf
                        5791 .LDW88:
                        5792 --1836: {

                                                                      Page 103
                                                              C:\Users\YINGAO~1\AppData\Local\Temp\gh_000004s1.si
                        5793 --1837:     if(FALSE == DM_InitSts)
00001660 210600000000*  5794 	mov	_DM_InitSts,r1
00001666 810f0100       5795 	ld.bu	0[r1],r1
0000166a e009           5796 	cmp	zero,r1
0000166c ba05*          5797 	bne	.L4465
                        5798 --1838:     {
                        5799 --1839:         return RET_FAIL;
                        5800 --line1839
                        5801 ..lin.D.3A.5CRenesas_Electronics.5CD1x_RGL.5Crgl_ghs_D1Lx_obj_V1.2E2.2E0.5Cvlib.5Capp.5Cgfx_apps.5Csimple_draw_d1l2.5Ctarget.5Cd1lx_mango_ghs.5Cobj.5Cdm.322::
                        5802 .LDWlin322:
0000166e 0052           5803 	mov	0,r10
00001670 d50d*          5804 	br	.L4460
                        5805 .L4465:
                        5806 --1840:     }
                        5807 --1841: 	else
                        5808 --1842: 	{
                        5809 --1843: 	}
                        5810 --1844: 	
                        5811 --1845:     if(NULL_PTR == data)
                        5812 --line1845
                        5813 ..lin.D.3A.5CRenesas_Electronics.5CD1x_RGL.5Crgl_ghs_D1Lx_obj_V1.2E2.2E0.5Cvlib.5Capp.5Cgfx_apps.5Csimple_draw_d1l2.5Ctarget.5Cd1lx_mango_ghs.5Cobj.5Cdm.323::
                        5814 .LDWlin323:
00001672 e0e9           5815 	cmp	zero,r29
00001674 ba05*          5816 	bne	.L4466
                        5817 --1846:     {
                        5818 --1847:         return RET_INVALID;
                        5819 --line1847
                        5820 ..lin.D.3A.5CRenesas_Electronics.5CD1x_RGL.5Crgl_ghs_D1Lx_obj_V1.2E2.2E0.5Cvlib.5Capp.5Cgfx_apps.5Csimple_draw_d1l2.5Ctarget.5Cd1lx_mango_ghs.5Cobj.5Cdm.324::
                        5821 .LDWlin324:
00001676 0252           5822 	mov	2,r10
00001678 950d*          5823 	br	.L4460
                        5824 .L4466:
                        5825 --1848:     }
                        5826 --1849:     else
                        5827 --1850:     {
                        5828 --1851:          memcpy(data,&dm_FunPage,sizeof(Dm_CMD_ST));        
                        5829 --line1851
                        5830 ..lin.D.3A.5CRenesas_Electronics.5CD1x_RGL.5Crgl_ghs_D1Lx_obj_V1.2E2.2E0.5Cvlib.5Capp.5Cgfx_apps.5Csimple_draw_d1l2.5Ctarget.5Cd1lx_mango_ghs.5Cobj.5Cdm.325::
                        5831 .LDWlin325:
0000167a 1d30           5832 	mov	r29,r6
0000167c 0342           5833 	mov	3,r8
0000167e 270600000000*  5834 	mov	_dm_FunPage,r7
                        5835 	jarl	_memcpy,lp
                        5835 <EXPANSION BEGIN>
                        5835 jarl22 _memcpy , lp 
00001684 80ff0000*      5835 <EXPANSION END>
                        5836 --1852:         return RET_OK;
                        5837 --line1852
                        5838 ..lin.D.3A.5CRenesas_Electronics.5CD1x_RGL.5Crgl_ghs_D1Lx_obj_V1.2E2.2E0.5Cvlib.5Capp.5Cgfx_apps.5Csimple_draw_d1l2.5Ctarget.5Cd1lx_mango_ghs.5Cobj.5Cdm.326::
                        5839 .LDWlin326:
00001688 0152           5840 	mov	1,r10
                        5841 .L4460:
                        5842 --	    .ef
                        5843 .LDW98:
0000168a 40067f00       5844 	dispose	0,{r29,r31},[lp]
                        5845 	.type	_DM_UpdatePageInfo,@function
                        5846 	.size	_DM_UpdatePageInfo,.-_DM_UpdatePageInfo
                        5847 	.align	2
                        5848 .LDW09:
                        5849 
                        5850 --_data	r29	param

                                                                      Page 104
                                                              C:\Users\YINGAO~1\AppData\Local\Temp\gh_000004s1.si
                        5851 
                        5852 	.data
                        5853 	.text
                        5854 
                        5855 --1853:     }
                        5856 --1854: }
                        5857 
                        5858 --1857: /***************************************************************
                        5859 --1858: *Function :DM_GetIlluLevel
                        5860 --1859: *Description:Get the current ILLUMINATION LEVEL
                        5861 --1860: *Parameters:Index out put
                        5862 --1861: *Returns: 
                        5863 --1862:     RET_FAIL: DM module init fail
                        5864 --1863:     RET_INVALID: parameter err
                        5865 --1864:     RET_OK: operation success 
                        5866 --1865: **create&Verlog:
                        5867 --1866: *Author Name xs  Date:2017-09-22   Ver:02
                        5868 --1867: *****************************************************************/
                        5869 --1868: U8 DM_GetIlluLevel(PU8 Level)
                        5870 	.align	2
                        5871 	.align	2
                        5872 	.global	_DM_GetIlluLevel
                        5873 _DM_GetIlluLevel:
0000168e 06f0           5874 	mov	r6,ep
                        5875 --	    .bf
                        5876 .LDW19:
                        5877 --1869: {
                        5878 --1870:    
                        5879 --1871:     if(FALSE == DM_InitSts)
00001690 210600000000*  5880 	mov	_DM_InitSts,r1
00001696 810f0100       5881 	ld.bu	0[r1],r1
0000169a e009           5882 	cmp	zero,r1
0000169c ba05*          5883 	bne	.L4526
                        5884 --1872:     {
                        5885 --1873:         return RET_FAIL;
                        5886 --line1873
                        5887 ..lin.D.3A.5CRenesas_Electronics.5CD1x_RGL.5Crgl_ghs_D1Lx_obj_V1.2E2.2E0.5Cvlib.5Capp.5Cgfx_apps.5Csimple_draw_d1l2.5Ctarget.5Cd1lx_mango_ghs.5Cobj.5Cdm.327::
                        5888 .LDWlin327:
0000169e 0052           5889 	mov	0,r10
000016a0 c50d*          5890 	br	.L4524
                        5891 .L4526:
                        5892 --1874:     }
                        5893 --1875: 	else  if(NULL_PTR == Level)
                        5894 --line1875
                        5895 ..lin.D.3A.5CRenesas_Electronics.5CD1x_RGL.5Crgl_ghs_D1Lx_obj_V1.2E2.2E0.5Cvlib.5Capp.5Cgfx_apps.5Csimple_draw_d1l2.5Ctarget.5Cd1lx_mango_ghs.5Cobj.5Cdm.328::
                        5896 .LDWlin328:
000016a2 e0f1           5897 	cmp	zero,ep
000016a4 ba05*          5898 	bne	.L4530
                        5899 --1876:     {
                        5900 --1877:         return RET_INVALID;
                        5901 --line1877
                        5902 ..lin.D.3A.5CRenesas_Electronics.5CD1x_RGL.5Crgl_ghs_D1Lx_obj_V1.2E2.2E0.5Cvlib.5Capp.5Cgfx_apps.5Csimple_draw_d1l2.5Ctarget.5Cd1lx_mango_ghs.5Cobj.5Cdm.329::
                        5903 .LDWlin329:
000016a6 0252           5904 	mov	2,r10
000016a8 850d*          5905 	br	.L4524
                        5906 .L4530:
                        5907 --1878:     }
                        5908 --1879:     else
                        5909 --1880:     {
                        5910 --1881:         *Level = illu_Level;        
                        5911 --line1881

                                                                      Page 105
                                                              C:\Users\YINGAO~1\AppData\Local\Temp\gh_000004s1.si
                        5912 ..lin.D.3A.5CRenesas_Electronics.5CD1x_RGL.5Crgl_ghs_D1Lx_obj_V1.2E2.2E0.5Cvlib.5Capp.5Cgfx_apps.5Csimple_draw_d1l2.5Ctarget.5Cd1lx_mango_ghs.5Cobj.5Cdm.330::
                        5913 .LDWlin330:
000016aa 210600000000*  5914 	mov	_illu_Level,r1
000016b0 210f0100       5915 	ld.w	0[r1],r1
000016b4 800b           5916 	sst.b	r1,0[ep]
                        5917 --1882:         return RET_OK;
000016b6 0152           5918 	mov	1,r10
                        5919 .L4524:
                        5920 --	    .ef
                        5921 .LDW29:
000016b8 7f00           5922 	jmp	[lp]
                        5923 	.type	_DM_GetIlluLevel,@function
                        5924 	.size	_DM_GetIlluLevel,.-_DM_GetIlluLevel
                        5925 	.align	2
                        5926 .LDW39:
                        5927 
                        5928 --_Level	ep	param
                        5929 
                        5930 	.data
                        5931 	.text
                        5932 
                        5933 --1883:     }
                        5934 --1884: }
                        5935 	.align	2
                        5936 --_logoTab	_logoTab	static
                        5937 --_dm_SetTab	_dm_SetTab	static
                        5938 --_DM_InitSts	_DM_InitSts	static
                        5939 --_insTrip1UserEnPrm	_insTrip1UserEnPrm	static
                        5940 --_insTrip2UserEnPrm	_insTrip2UserEnPrm	static
                        5941 --_insTCConUnitsPrm	_insTCConUnitsPrm	static
                        5942 --_insTripRollOverPrm	_insTripRollOverPrm	static
                        5943 --_insUnitsPrm	_insUnitsPrm	static
                        5944 --_insMenuSpeedTresholdPrm	_insMenuSpeedTresholdPrm	static
                        5945 --_insIFCEnPrm	_insIFCEnPrm	static
                        5946 --_insRTEEnPrm	_insRTEEnPrm	static
                        5947 --_insTCDispTimeoutPrm	_insTCDispTimeoutPrm	static
                        5948 --_insMenuIllumAdEnPrm	_insMenuIllumAdEnPrm	static
                        5949 --_insMenuDigCEnPrm	_insMenuDigCEnPrm	static
                        5950 --_insSCSOffSwitchEnPrm	_insSCSOffSwitchEnPrm	static
                        5951 --_insPresstime1Prm	_insPresstime1Prm	static
                        5952 --_insTCFuelDispUpdatePrm	_insTCFuelDispUpdatePrm	static
                        5953 --_insPrndEnPrm	_insPrndEnPrm	static
                        5954 --_insGearShiftUpDwnWarnPrm	_insGearShiftUpDwnWarnPrm	static
                        5955 --_insTyrePresUnitsPrm	_insTyrePresUnitsPrm	static
                        5956 --_insTyrTemDisUntPrm	_insTyrTemDisUntPrm	static
                        5957 --_Dm_Send_Data	_Dm_Send_Data	static
                        5958 --_logoCnt	_logoCnt	static
                        5959 --_TCSel	_TCSel	static
                        5960 --_SetSel	_SetSel	static
                        5961 --_illu_Level	_illu_Level	static
                        5962 --_speed_Limit	_speed_Limit	static
                        5963 --_SCS_Sts	_SCS_Sts	static
                        5964 --_scs_cmd	_scs_cmd	static
                        5965 --_CurPage_Point	_CurPage_Point	static
                        5966 --_DestPage_Point	_DestPage_Point	static
                        5967 --_CurTotolFaultList	_CurTotolFaultList	static
                        5968 --_CurFaultList	_CurFaultList	static
                        5969 --_dm_RadioSubPage	_dm_RadioSubPage	static
                        5970 --_dm_FunPage	_dm_FunPage	static
                        5971 --_dm_MsgIndex	_dm_MsgIndex	static
                        5972 --_StartLogoEn	_StartLogoEn	static

                                                                      Page 106
                                                              C:\Users\YINGAO~1\AppData\Local\Temp\gh_000004s1.si
                        5973 --_dm_stSet	_dm_stSet	static
                        5974 --_dm_EscCnt	_dm_EscCnt	static
                        5975 --_dm_EscMaxCnt	_dm_EscMaxCnt	static
                        5976 --_EnableFun	_EnableFun	static
                        5977 
                        5978 	.section ".rodata","a"
                        5979 	.global	_DestPage_Matrix
0000009d 03             5980 _DestPage_Matrix:	.byte	3
0000009e 00             5981 	.space	1
0000009f 0c             5982 	.byte	12
000000a0 01             5983 	.byte	1
000000a1 00             5984 	.space	1
000000a2 07             5985 	.byte	7
000000a3 00             5986 	.space	1
000000a4 0606           5987 	.byte	6,6
000000a6 00             5988 	.space	1
000000a7 0101           5989 	.byte	1,1
000000a9 00             5990 	.space	1
000000aa 00             5991 	.space	1
000000ab 00             5992 	.space	1
000000ac 03             5993 	.byte	3
000000ad 00             5994 	.space	1
000000ae 0c             5995 	.byte	12
000000af 01             5996 	.byte	1
000000b0 00             5997 	.space	1
000000b1 07             5998 	.byte	7
000000b2 00             5999 	.space	1
000000b3 00             6000 	.space	1
000000b4 00             6001 	.space	1
000000b5 00             6002 	.space	1
000000b6 0202           6003 	.byte	2,2
000000b8 00             6004 	.space	1
000000b9 0101           6005 	.byte	1,1
000000bb 03             6006 	.byte	3
000000bc 00             6007 	.space	1
000000bd 0c             6008 	.byte	12
000000be 01             6009 	.byte	1
000000bf 00             6010 	.space	1
000000c0 07             6011 	.byte	7
000000c1 00             6012 	.space	1
000000c2 0101           6013 	.byte	1,1
000000c4 00             6014 	.space	1
000000c5 0303           6015 	.byte	3,3
000000c7 00             6016 	.space	1
000000c8 0202           6017 	.byte	2,2
000000ca 03             6018 	.byte	3
000000cb 00             6019 	.space	1
000000cc 0c             6020 	.byte	12
000000cd 01             6021 	.byte	1
000000ce 00             6022 	.space	1
000000cf 07             6023 	.byte	7
000000d0 00             6024 	.space	1
000000d1 0202           6025 	.byte	2,2
000000d3 00             6026 	.space	1
000000d4 0404           6027 	.byte	4,4
000000d6 00             6028 	.space	1
000000d7 0303           6029 	.byte	3,3
000000d9 03             6030 	.byte	3
000000da 00             6031 	.space	1
000000db 0c             6032 	.byte	12
000000dc 01             6033 	.byte	1

                                                                      Page 107
                                                              C:\Users\YINGAO~1\AppData\Local\Temp\gh_000004s1.si
000000dd 00             6034 	.space	1
000000de 07             6035 	.byte	7
000000df 00             6036 	.space	1
000000e0 0303           6037 	.byte	3,3
000000e2 00             6038 	.space	1
000000e3 0505           6039 	.byte	5,5
000000e5 00             6040 	.space	1
000000e6 0404           6041 	.byte	4,4
000000e8 03             6042 	.byte	3
000000e9 00             6043 	.space	1
000000ea 0c             6044 	.byte	12
000000eb 01             6045 	.byte	1
000000ec 00             6046 	.space	1
000000ed 07             6047 	.byte	7
000000ee 00             6048 	.space	1
000000ef 0404           6049 	.byte	4,4
000000f1 00             6050 	.space	1
000000f2 0606           6051 	.byte	6,6
000000f4 00             6052 	.space	1
000000f5 0505           6053 	.byte	5,5
000000f7 03             6054 	.byte	3
000000f8 00             6055 	.space	1
000000f9 0c             6056 	.byte	12
000000fa 01             6057 	.byte	1
000000fb 00             6058 	.space	1
000000fc 07             6059 	.byte	7
000000fd 00             6060 	.space	1
000000fe 0505           6061 	.byte	5,5
00000100 00             6062 	.space	1
00000101 00             6063 	.space	1
00000102 00             6064 	.space	1
00000103 00             6065 	.space	1
00000104 0606           6066 	.byte	6,6
00000106 00             6067 	.space	1
00000107 00             6068 	.space	1
00000108 00             6069 	.space	1
00000109 02             6070 	.byte	2
0000010a 00             6071 	.space	1
0000010b 0b             6072 	.byte	11
0000010c 01             6073 	.byte	1
0000010d 00             6074 	.space	1
0000010e 07             6075 	.byte	7
0000010f 01             6076 	.byte	1
00000110 00             6077 	.space	1
00000111 07             6078 	.byte	7
00000112 01             6079 	.byte	1
00000113 00             6080 	.space	1
00000114 07             6081 	.byte	7
00000115 00             6082 	.space	1
00000116 00             6083 	.space	1
00000117 00             6084 	.space	1
00000118 02             6085 	.byte	2
00000119 00             6086 	.space	1
0000011a 0b             6087 	.byte	11
0000011b 0101           6088 	.byte	1,1
0000011d 08             6089 	.byte	8
0000011e 0101           6090 	.byte	1,1
00000120 08             6091 	.byte	8
00000121 01             6092 	.byte	1
00000122 00             6093 	.space	1
00000123 07             6094 	.byte	7

                                                                      Page 108
                                                              C:\Users\YINGAO~1\AppData\Local\Temp\gh_000004s1.si
00000124 00             6095 	.space	1
00000125 00             6096 	.space	1
00000126 00             6097 	.space	1
00000127 02             6098 	.byte	2
00000128 00             6099 	.space	1
00000129 0b             6100 	.byte	11
0000012a 0102           6101 	.byte	1,2
0000012c 09             6102 	.byte	9
0000012d 0102           6103 	.byte	1,2
0000012f 09             6104 	.byte	9
00000130 01             6105 	.byte	1
00000131 00             6106 	.space	1
00000132 07             6107 	.byte	7
00000133 00             6108 	.space	1
00000134 00             6109 	.space	1
00000135 00             6110 	.space	1
00000136 02             6111 	.byte	2
00000137 00             6112 	.space	1
00000138 0b             6113 	.byte	11
00000139 0103           6114 	.byte	1,3
0000013b 0a             6115 	.byte	10
0000013c 0103           6116 	.byte	1,3
0000013e 0a             6117 	.byte	10
0000013f 01             6118 	.byte	1
00000140 00             6119 	.space	1
00000141 07             6120 	.byte	7
00000142 01             6121 	.byte	1
00000143 00             6122 	.space	1
00000144 07             6123 	.byte	7
00000145 03             6124 	.byte	3
00000146 00             6125 	.space	1
00000147 0c             6126 	.byte	12
00000148 02             6127 	.byte	2
00000149 00             6128 	.space	1
0000014a 0b             6129 	.byte	11
0000014b 02             6130 	.byte	2
0000014c 00             6131 	.space	1
0000014d 0b             6132 	.byte	11
0000014e 02             6133 	.byte	2
0000014f 00             6134 	.space	1
00000150 0b             6135 	.byte	11
00000151 02             6136 	.byte	2
00000152 00             6137 	.space	1
00000153 0b             6138 	.byte	11
00000154 00             6139 	.space	1
00000155 00             6140 	.space	1
00000156 00             6141 	.space	1
00000157 03             6142 	.byte	3
00000158 00             6143 	.space	1
00000159 0c             6144 	.byte	12
0000015a 03             6145 	.byte	3
0000015b 00             6146 	.space	1
0000015c 0c             6147 	.byte	12
0000015d 03             6148 	.byte	3
0000015e 00             6149 	.space	1
0000015f 0c             6150 	.byte	12
                        6151 	.type	_DestPage_Matrix,@object
                        6152 	.size	_DestPage_Matrix,195
                        6153 	.data
                        6154 	.ghsnote version,14
                        6155 	.ghsnote tools,3

                                                                      Page 109
                                                              C:\Users\YINGAO~1\AppData\Local\Temp\gh_000004s1.si
                        6156 	.ghsnote options,144
                        6157 	.text
                        6158 	.align	2
                        6159 ..eof.D.3A.5CRenesas_Electronics.5CD1x_RGL.5Crgl_ghs_D1Lx_obj_V1.2E2.2E0.5Cvlib.5Capp.5Cgfx_apps.5Csimple_draw_d1l2.5Ctarget.5Cd1lx_mango_ghs.5Cobj.5Cdm...44.3A.5CRenesas_Electronics.5CD1x_RGL.5Crgl_ghs_D1Lx_obj_V1.2E2.2E0.5Cvlib.5Capp.5Cgfx_apps.5Csimple_draw_d1l2.5Ctarget.5Cd1lx_mango_ghs..5A74037B..0::
                        6160 .rh850_flags REGMODE22,DATA_ALIGN8,GP_FIX,EP_NONFIX,TP_FIX,REG2_RESERVE,G3M
