                                                                      Page 1
                                                              C:\Users\YINGAO~1\AppData\Local\Temp\gh_00007j81.si
Command Line: C:\ghs\comp_201355\ease850.exe -w -elf -b0 -I../../../../../Device -I../../../../../Driver/ADCE -I../../../../../Driver/CLOCK -I../../../../../Driver/DIO -I../../../../../Driver/DSPI -I../../../../../Driver/Interrupt -I../../../../../Driver/ISM -I../../../../../Driver/OSTM -I../../../../../Driver/PWM -I../../../../../Driver/RSTC -I../../../../../Driver/RTCA -I../../../../../Driver/STBC -I../../../../../Driver/TAUB -I../../../../../Driver/WDT -I../../../../../middleware\ADM -I../../../../../middleware\BPM -I../../../../../middleware\EED -I../../../../../middleware\IOM -I../../../../../middleware\LRM -I../../../../../middleware\MOM -I../../../../../middleware\PWMM -I../../../../../Common -I../../../../../Applayer\DSM -I../../../../../Applayer\FM -I../../../../../Applayer\TPM -I../../../../../Applayer\ACC -I../../../../../Applayer\ASS -I../../../../../Applayer\BAT -I../../../../../Applayer\COM -I../../../../../Applayer\COM\vtp -I../../../../../Applayer\COM\vtp\lib -I../../../../../Applayer\CRUS -I../../../../../Applayer\DIAG -I../../../../../Applayer\FC -I../../../../../Applayer\FL -I../../../../../Applayer\HSD -I../../../../../Applayer\IDLE -I../../../../../Applayer\ILLU -I../../../../../Applayer\LED -I../../../../../Applayer\MSG -I../../../../../Applayer\NVM -I../../../../../Applayer\ODO -I../../../../../Applayer\PWR -I../../../../../Applayer\RANG -I../../../../../Applayer\RST -I../../../../../Applayer\RTC -I../../../../../Applayer\SCS -I../../../../../Applayer\SSB -I../../../../../Applayer\ST -I../../../../../Applayer\STSMG -I../../../../../Applayer\SYS -I../../../../../Applayer\TIP -I../../../../../Applayer\TRIP -I../../../../../Applayer\CHM -I../../../../../Applayer\DM -I../../../../../Applayer\EVT -I../../../../../Applayer\FTR -I../../../../../Applayer\SLF -I../../../../../Applayer\NWD -I../../../../../Applayer\TPMS -I../../../../../Applayer\WFM -I../../../../../Applayer\NZM -I../../../../../app/gfx_apps/simple_draw_d1l2/src -I../../../../../bsp/board//config -I../../../../../bsp/board//src/gfx -I../../../../../bsp/board//src/hmi -I../../../../../bsp/board//src/stdio -I../../../../../bsp/board/d1lx_mango/config -I../../../../../bsp/board/d1lx_mango/src -I../../../../../bsp/board/d1lx_mango/src/gfx -I../../../../../bsp/board/d1lx_mango/src/hmi -I../../../../../bsp/board/d1lx_mango/src/stdio -I../../../../../bsp/gfx/lib -I../../../../../bsp/gfx/src -I../../../../../bsp/hmi/lib -I../../../../../bsp/hmi/src -I../../../../../bsp/lib -I../../../../../bsp/stdio/lib -I../../../../../bsp/stdio/src -I../../../../../cdi/lib -I../../../../../cdi/src -I../../../../../compiler/rh850_ghs/inc -I../../../../../device/d1lx/lib -I../../../../../device/d1lx/macro_cfg -I../../../../../device/d1lx/src/dev -I../../../../../device/d1lx/src/rh850_ghs -I../../../../../device/d1x_common/macro_cfg -I../../../../../device/d1x_common/src/csisw -I../../../../../device/d1x_common/src/ddb -I../../../../../device/d1x_common/src/dev -I../../../../../device/d1x_common/src/gfxbus -I../../../../../device/d1x_common/src/gpio -I../../../../../device/d1x_common/src/ostm -I../../../../../device/d1x_common/src/pbg -I../../../../../device/d1x_common/src/riic -I../../../../../device/d1x_common/src/sfma -I../../../../../device/d1x_common/src/spea -I../../../../../device/d1x_common/src/tauj -I../../../../../device/d1x_common/src/tick -I../../../../../device/d1x_common/src/vdce -I../../../../../device/d1x_common/src/wm -I../../../../../device/d1x_common/src/xbus -I../../../../../device/lib -I../../../../../macro/bus/pbg/lib -I../../../../../macro/bus/pbg/src -I../../../../../macro/csi/csisw/lib -I../../../../../macro/csi/csisw/src -I../../../../../macro/drw2d/lib -I../../../../../macro/drw2d/platform/cpu -I../../../../../macro/drw2d/platform/os/no_os -I../../../../../macro/drw2d/src -I../../../../../macro/flashc/sfcdb/lib -I../../../../../macro/flashc/sfcdb/src -I../../../../../macro/flashc/sfma/lib -I../../../../../macro/flashc/sfma/src -I../../../../../macro/gfxbus/lib -I../../../../../macro/gfxbus/src -I../../../../../macro/gfxbus/xbus/lib -I../../../../../macro/gfxbus/xbus/src -I../../../../../macro/gpio/lib -I../../../../../macro/gpio/src -I../../../../../macro/i2c/riic/lib -I../../../../../macro/i2c/riic/src -I../../../../../macro/tick/lib -I../../../../../macro/tick/src -I../../../../../macro/timer/ostm/lib -I../../../../../macro/timer/ostm/src -I../../../../../macro/timer/tauj/lib -I../../../../../macro/timer/tauj/src -I../../../../../macro/vdce/lib -I../../../../../macro/vdce/src -I../../../../../macro/vo/ddb/lib -I../../../../../macro/vo/ddb/src -I../../../../../macro/vo/spea/lib -I../../../../../macro/vo/spea/src -I../../../../../macro/wm/lib -I../../../../../macro/wm/src -I../../../../../app/gfx_apps/simple_draw_d1l2/src/QD_HMI -I../../../../../app/gfx_apps/simple_draw_d1l2/src/QD_HMI/HMI_Data -IC:\ghs\comp_201355\lib\rh850_22 -cg_underscore -cpu=rh850g3m -no_v850_simd -nomacro -patch_dbo=D:\Renesas_Electronics\D1x_RGL\rgl_ghs_D1Lx_obj_V1.2.0\vlib\app\gfx_apps\simple_draw_d1l2\target\d1lx_mango_ghs\obj\led.dbo -source=led.c -o .\obj\gh_00007j81.o -list=.\obj\led.lst C:\Users\YINGAO~1\AppData\Local\Temp\gh_00007j81.si 
Original File: C:\Users\YINGAO~1\AppData\Local\Temp\gh_00007j81.si
Source File: led.c
Directory: D:\Renesas_Electronics\D1x_RGL\rgl_ghs_D1Lx_obj_V1.2.0\vlib\app\gfx_apps\simple_draw_d1l2\target\d1lx_mango_ghs
Host OS: Windows 7 Service Pack 1
EASE: Copyright (C) 1983-2013 Green Hills Software.  All Rights Reversed.
Release: Compiler v2013.5.5
Build Directory: [Directory] BTOWINBOX:c:/build_2013_5_bto/2013-10-04.1311-2013_5_bto/win32-comp-ecom
Revision: [VCInfo] http://toolsvc/branches/release-branch-2013-5-bto/src@496240 (built by build)
Revision Date: Sat Oct 05 04:54:43 2013

Release Date: Sat Oct 05 05:20:49 2013

                           1 --Driver Command: ccv850 -c -MD -I../../../../../Device
                           2 --		-I../../../../../Driver/ADCE -I../../../../../Driver/CLOCK
                           3 --		-I../../../../../Driver/DIO -I../../../../../Driver/DSPI
                           4 --		-I../../../../../Driver/Interrupt -I../../../../../Driver/ISM
                           5 --		-I../../../../../Driver/OSTM -I../../../../../Driver/PWM
                           6 --		-I../../../../../Driver/RSTC -I../../../../../Driver/RTCA
                           7 --		-I../../../../../Driver/STBC -I../../../../../Driver/TAUB
                           8 --		-I../../../../../Driver/WDT -I../../../../../middleware\ADM
                           9 --		-I../../../../../middleware\BPM -I../../../../../middleware\EED
                          10 --		-I../../../../../middleware\IOM -I../../../../../middleware\LRM
                          11 --		-I../../../../../middleware\MOM -I../../../../../middleware\PWMM
                          12 --		-I../../../../../Common -I../../../../../Applayer\DSM
                          13 --		-I../../../../../Applayer\FM -I../../../../../Applayer\TPM
                          14 --		-I../../../../../Applayer\ACC -I../../../../../Applayer\ASS
                          15 --		-I../../../../../Applayer\BAT -I../../../../../Applayer\COM
                          16 --		-I../../../../../Applayer\COM\vtp
                          17 --		-I../../../../../Applayer\COM\vtp\lib
                          18 --		-I../../../../../Applayer\CRUS -I../../../../../Applayer\DIAG
                          19 --		-I../../../../../Applayer\FC -I../../../../../Applayer\FL
                          20 --		-I../../../../../Applayer\HSD -I../../../../../Applayer\IDLE
                          21 --		-I../../../../../Applayer\ILLU -I../../../../../Applayer\LED
                          22 --		-I../../../../../Applayer\MSG -I../../../../../Applayer\NVM
                          23 --		-I../../../../../Applayer\ODO -I../../../../../Applayer\PWR
                          24 --		-I../../../../../Applayer\RANG -I../../../../../Applayer\RST
                          25 --		-I../../../../../Applayer\RTC -I../../../../../Applayer\SCS
                          26 --		-I../../../../../Applayer\SSB -I../../../../../Applayer\ST
                          27 --		-I../../../../../Applayer\STSMG -I../../../../../Applayer\SYS
                          28 --		-I../../../../../Applayer\TIP -I../../../../../Applayer\TRIP
                          29 --		-I../../../../../Applayer\CHM -I../../../../../Applayer\DM
                          30 --		-I../../../../../Applayer\EVT -I../../../../../Applayer\FTR
                          31 --		-I../../../../../Applayer\SLF -I../../../../../Applayer\NWD
                          32 --		-I../../../../../Applayer\TPMS -I../../../../../Applayer\WFM
                          33 --		-I../../../../../Applayer\NZM
                          34 --		-I../../../../../app/gfx_apps/simple_draw_d1l2/src
                          35 --		-I../../../../../bsp/board//config
                          36 --		-I../../../../../bsp/board//src/gfx
                          37 --		-I../../../../../bsp/board//src/hmi
                          38 --		-I../../../../../bsp/board//src/stdio
                          39 --		-I../../../../../bsp/board/d1lx_mango/config
                          40 --		-I../../../../../bsp/board/d1lx_mango/src
                          41 --		-I../../../../../bsp/board/d1lx_mango/src/gfx
                          42 --		-I../../../../../bsp/board/d1lx_mango/src/hmi
                          43 --		-I../../../../../bsp/board/d1lx_mango/src/stdio
                          44 --		-I../../../../../bsp/gfx/lib -I../../../../../bsp/gfx/src
                          45 --		-I../../../../../bsp/hmi/lib -I../../../../../bsp/hmi/src
                          46 --		-I../../../../../bsp/lib -I../../../../../bsp/stdio/lib
                          47 --		-I../../../../../bsp/stdio/src -I../../../../../cdi/lib
                          48 --		-I../../../../../cdi/src -I../../../../../compiler/rh850_ghs/inc
                          49 --		-I../../../../../device/d1lx/lib
                          50 --		-I../../../../../device/d1lx/macro_cfg

                                                                      Page 2
                                                              C:\Users\YINGAO~1\AppData\Local\Temp\gh_00007j81.si
                          51 --		-I../../../../../device/d1lx/src/dev
                          52 --		-I../../../../../device/d1lx/src/rh850_ghs
                          53 --		-I../../../../../device/d1x_common/macro_cfg
                          54 --		-I../../../../../device/d1x_common/src/csisw
                          55 --		-I../../../../../device/d1x_common/src/ddb
                          56 --		-I../../../../../device/d1x_common/src/dev
                          57 --		-I../../../../../device/d1x_common/src/gfxbus
                          58 --		-I../../../../../device/d1x_common/src/gpio
                          59 --		-I../../../../../device/d1x_common/src/ostm
                          60 --		-I../../../../../device/d1x_common/src/pbg
                          61 --		-I../../../../../device/d1x_common/src/riic
                          62 --		-I../../../../../device/d1x_common/src/sfma
                          63 --		-I../../../../../device/d1x_common/src/spea
                          64 --		-I../../../../../device/d1x_common/src/tauj
                          65 --		-I../../../../../device/d1x_common/src/tick
                          66 --		-I../../../../../device/d1x_common/src/vdce
                          67 --		-I../../../../../device/d1x_common/src/wm
                          68 --		-I../../../../../device/d1x_common/src/xbus
                          69 --		-I../../../../../device/lib -I../../../../../macro/bus/pbg/lib
                          70 --		-I../../../../../macro/bus/pbg/src
                          71 --		-I../../../../../macro/csi/csisw/lib
                          72 --		-I../../../../../macro/csi/csisw/src
                          73 --		-I../../../../../macro/drw2d/lib
                          74 --		-I../../../../../macro/drw2d/platform/cpu
                          75 --		-I../../../../../macro/drw2d/platform/os/no_os
                          76 --		-I../../../../../macro/drw2d/src
                          77 --		-I../../../../../macro/flashc/sfcdb/lib
                          78 --		-I../../../../../macro/flashc/sfcdb/src
                          79 --		-I../../../../../macro/flashc/sfma/lib
                          80 --		-I../../../../../macro/flashc/sfma/src
                          81 --		-I../../../../../macro/gfxbus/lib
                          82 --		-I../../../../../macro/gfxbus/src
                          83 --		-I../../../../../macro/gfxbus/xbus/lib
                          84 --		-I../../../../../macro/gfxbus/xbus/src
                          85 --		-I../../../../../macro/gpio/lib -I../../../../../macro/gpio/src
                          86 --		-I../../../../../macro/i2c/riic/lib
                          87 --		-I../../../../../macro/i2c/riic/src
                          88 --		-I../../../../../macro/tick/lib -I../../../../../macro/tick/src
                          89 --		-I../../../../../macro/timer/ostm/lib
                          90 --		-I../../../../../macro/timer/ostm/src
                          91 --		-I../../../../../macro/timer/tauj/lib
                          92 --		-I../../../../../macro/timer/tauj/src
                          93 --		-I../../../../../macro/vdce/lib -I../../../../../macro/vdce/src
                          94 --		-I../../../../../macro/vo/ddb/lib
                          95 --		-I../../../../../macro/vo/ddb/src
                          96 --		-I../../../../../macro/vo/spea/lib
                          97 --		-I../../../../../macro/vo/spea/src -I../../../../../macro/wm/lib
                          98 --		-I../../../../../macro/wm/src
                          99 --		-I../../../../../app/gfx_apps/simple_draw_d1l2/src/QD_HMI
                         100 --		-I../../../../../app/gfx_apps/simple_draw_d1l2/src/QD_HMI/HMI_Data
                         101 --		-G --no_commons --no_implicit_include --prototype_errors
                         102 --		-DR_DRW2D_OS_NO_OS -DR_DRW2D_SYS_CPU -DUSED_CPU=RH850G3M
                         103 --		-DUSE_BSP_GFX -DUSE_BSP_HMI -DUSE_BSP_STDIO -DUSE_CDI -DUSE_CSISW
                         104 --		-DUSE_DDB -DUSE_DRW2D -DUSE_GFXBUS -DUSE_GPIO -DUSE_OSTM
                         105 --		-DUSE_PBG -DUSE_RIIC -DUSE_SFCDB -DUSE_SFMA -DUSE_SPEA -DUSE_TAUJ
                         106 --		-DUSE_TICK -DUSE_VDCE -DUSE_WM -DUSE_XBUS -MD -Mn -Mx -Zuse1bit
                         107 --		-allocate_ep -cpu=rh850g3m -entry=_RESET -large_sda -list
                         108 --		-no_callt -notda -passsource -preprocess_assembly_files
                         109 --		-registermode=22 -reserve_r2 --diag_warning 1 -object_dir=./obj
                         110 --		-filetype.c
                         111 --		D:\Renesas_Electronics\D1x_RGL\rgl_ghs_D1Lx_obj_V1.2.0\vlib\Applayer\LED\led.c

                                                                      Page 3
                                                              C:\Users\YINGAO~1\AppData\Local\Temp\gh_00007j81.si
                         112 --		-o .\obj\led.o
                         113 --Source File:   D:\Renesas_Electronics\D1x_RGL\rgl_ghs_D1Lx_obj_V1.2.0\vlib\Applayer\LED\led.c
                         114 --Directory:     
                         115 --		D:\Renesas_Electronics\D1x_RGL\rgl_ghs_D1Lx_obj_V1.2.0\vlib\app\gfx_apps\simple_draw_d1l2\target\d1lx_mango_ghs
                         116 --Compile Date:  Fri Feb 02 14:21:34 2018
                         117 --Host OS:       Win32
                         118 --Version:       C-RH850 2013.5.5 DEVELOPMENT VERSION
                         119 --Release:       Compiler v2013.5.5
                         120 --Revision Date: Sat Oct 05 05:01:20 2013
                         121 --Release Date:  Sat Oct 05 05:22:44 2013
                         122 -- ecom  -g -w
                         123 
                         124 --3: /**************************************************************************
                         125 --4: |                                Copyright
                         126 --5: |------------------------------------------------------------------------
                         127 --6: |Copyright(c) by YEEDON MultiMedia Co.LTD. All rights reserved.
                         128 --7: |
                         129 --8: |    this software if furnished under a license and may be used and copied
                         130 --9: |    only in accordance with the terms of such license and with the inclusion
                         131 --10: |    of he above copyright notic.This software or any other copies thereof
                         132 --11: |    may not be provided of otherwise made available to any other persion.
                         133 --12: |    No title to and ownership of the software is hereby transferred.
                         134 --13: |
                         135 --14: |    the information in this software is subject to change without notice
                         136 --15: |   and should not be construed as a commitment by
                         137 --16: |   YEEDON MultiMedia Co.LTD.
                         138 --17: |
                         139 --18: |     YEEDON MultiMedia Co.LTD. assumes no responsibility for the use or reliability
                         140 --19: |     of its Software on equipment which is not supported by YEEDON MultiMedia Co.LTD.
                         141 --20: |--------------------------------------------------------------
                         142 --21: **************************************************************************/
                         143 --25: /*-----------------------------------------------------------------------*/
                         144 --26: /*----Description of file-----------------------------------------------------*/
                         145 --27: /*-----------------------------------------------------------------------*/
                         146 --31: /*************************************************************************
                         147 --32: LED source file used for LED ON,OFF,FLASH control when warn or other event trigged
                         148 --33: *************************************************************************/
                         149 --36: /*------------------------------------------------------------------------*/
                         150 --37: /*-----Head of file----------------------------------------------------------*/
                         151 --38: /*------------------------------------------------------------------------*/
                         152 --39: #include "led_info.inc"
                         153 --42: /*==========variables=================*/
                         154 --43: static BOOL led_InitSts  = FALSE;
                         155 --44: static U32 led_GCounter = 0;
                         156 --45: static U8 led_invalidCnt = 0;
                         157 --46: static LedEventData_ST led_EventData;
                         158 --47: static LEDLightData_ST led_data[LEDLAMP_ALL];
                         159 --48: static LEDState_ST led_State;
                         160 --49: static LEDState_ST led_out;
                         161 --50: static LEDState_ST led_Enable;
                         162 --52: static BOOL insCruiseLampEnPrm  = FALSE;
                         163 --53: static BOOL insLoadShedLampEnPrm = FALSE;
                         164 --54: static BOOL insEPSLampEnPrm = FALSE;
                         165 --55: static BOOL insSASLampEnPrm = FALSE;
                         166 --56: static BOOL insESCLLampEnPrm = FALSE;
                         167 --57: static BOOL insDSCLampEnPrm = FALSE;
                         168 --58: static BOOL insFrFogLampEnPRm = FALSE;
                         169 --59: static BOOL insNoSmartKeyLampEnPrm = FALSE;
                         170 --60: static BOOL insSecKeyInvLampEnPrm = FALSE;/*V2*/
                         171 --61: static BOOL insKeyBatLowLampEnPrm = FALSE;
                         172 --62: static BOOL insEcoLampEnPrm = FALSE;

                                                                      Page 4
                                                              C:\Users\YINGAO~1\AppData\Local\Temp\gh_00007j81.si
                         173 --63: static BOOL insDSCOffLampEnPrm = FALSE;
                         174 --64: static BOOL insStopStartSysEnPrm = FALSE;
                         175 --65: static BOOL insTPMSFailEnPrm = FALSE;/*V2*/
                         176 --66: static BOOL insEPBStatusEnPrm = FALSE;/*V2*/
                         177 --67: static BOOL insAutoholdStatusEnPrm = FALSE;/*V2*/
                         178 --68: static BOOL insHDCLampEnPrm = FALSE;/*V2*/
                         179 --70: static U16 led_count[FREQUENCY_LED_ALL];
                         180 --71: static BOOL led_flash[FREQUENCY_LED_ALL];
                         181 --73: /**************************************************
                         182 --74: *Function :LED_Init
                         183 --75: *Description: LED Module Inital
                         184 --76: *Parameters:none
                         185 --77: *Returns: none
                         186 --78: **create&Verlog:
                         187 --79: *Author Name liuyingying  Date:2016-11-25    Ver:01
                         188 --80: ***************************************************/
                         189 --81: void LED_Init(void)
                         190 	.text
                         191 ..bof.D.3A.5CRenesas_Electronics.5CD1x_RGL.5Crgl_ghs_D1Lx_obj_V1.2E2.2E0.5Cvlib.5Capp.5Cgfx_apps.5Csimple_draw_d1l2.5Ctarget.5Cd1lx_mango_ghs.5Cobj.5Cled...44.3A.5CRenesas_Electronics.5CD1x_RGL.5Crgl_ghs_D1Lx_obj_V1.2E2.2E0.5Cvlib.5Capp.5Cgfx_apps.5Csimple_draw_d1l2.5Ctarget.5Cd1lx_mango_ghs..5A74036E..0::
                         192 	.align	2
                         193 	.global	_LED_Init
                         194 _LED_Init:
00000000 8807e170        195 	prepare	{r25,r26,r27,r28,r29,r31},4
00000004 3d0600000000*   196 	mov	.L178,r29
0000000a 3b0600000000*   197 	mov	_led_Enable,r27
00000010 3dce1500        198 	movea	21,r29,r25
                         199 --	    .bf
                         200 .LDW01:
                         201 --82: {
                         202 --83:     U8 i = 0;
00000014 00e2            203 	mov	0,r28
                         204 --84:     U8 res = 0;
00000016 00d2            205 	mov	0,r26
                         206 --85: 	
                         207 --87:     led_GCounter = 0;
00000018 7d070100        208 	st.w	zero,0[r29]
                         209 --89:     memset(&led_count, 0, sizeof(led_count));
0000001c 260600000000*   210 	mov	_led_count,r6
00000022 003a            211 	mov	0,r7
00000024 0a42            212 	mov	10,r8
                         213 	jarl	_memset,lp
                         213 <EXPANSION BEGIN>
                         213 jarl22 _memset , lp 
00000026 80ff0000*       213 <EXPANSION END>
                         214 --90:     memset(&led_flash, 0, sizeof(led_flash));
                         215 --line90
                         216 ..lin.D.3A.5CRenesas_Electronics.5CD1x_RGL.5Crgl_ghs_D1Lx_obj_V1.2E2.2E0.5Cvlib.5Capp.5Cgfx_apps.5Csimple_draw_d1l2.5Ctarget.5Cd1lx_mango_ghs.5Cobj.5Cled.1::
                         217 .LDWlin1:
0000002a 260600000000*   218 	mov	_led_flash,r6
00000030 003a            219 	mov	0,r7
00000032 0542            220 	mov	5,r8
                         221 	jarl	_memset,lp
                         221 <EXPANSION BEGIN>
                         221 jarl22 _memset , lp 
00000034 80ff0000*       221 <EXPANSION END>
                         222 --92:     memset(&led_EventData, 0, sizeof(led_EventData));
                         223 --line92
                         224 ..lin.D.3A.5CRenesas_Electronics.5CD1x_RGL.5Crgl_ghs_D1Lx_obj_V1.2E2.2E0.5Cvlib.5Capp.5Cgfx_apps.5Csimple_draw_d1l2.5Ctarget.5Cd1lx_mango_ghs.5Cobj.5Cled.2::
                         225 .LDWlin2:
00000038 260600000000*   226 	mov	_led_EventData,r6
0000003e 003a            227 	mov	0,r7

                                                                      Page 5
                                                              C:\Users\YINGAO~1\AppData\Local\Temp\gh_00007j81.si
00000040 20461000        228 	movea	16,zero,r8
                         229 	jarl	_memset,lp
                         229 <EXPANSION BEGIN>
                         229 jarl22 _memset , lp 
00000044 80ff0000*       229 <EXPANSION END>
                         230 --93:     memset(&led_State, 0, sizeof(led_State));
                         231 --line93
                         232 ..lin.D.3A.5CRenesas_Electronics.5CD1x_RGL.5Crgl_ghs_D1Lx_obj_V1.2E2.2E0.5Cvlib.5Capp.5Cgfx_apps.5Csimple_draw_d1l2.5Ctarget.5Cd1lx_mango_ghs.5Cobj.5Cled.3::
                         233 .LDWlin3:
00000048 260600000000*   234 	mov	_led_State,r6
0000004e 003a            235 	mov	0,r7
00000050 0742            236 	mov	7,r8
                         237 	jarl	_memset,lp
                         237 <EXPANSION BEGIN>
                         237 jarl22 _memset , lp 
00000052 80ff0000*       237 <EXPANSION END>
                         238 --95:     for (i =0; i <LEDLAMP_ALL; i++) {
                         239 --line95
                         240 ..lin.D.3A.5CRenesas_Electronics.5CD1x_RGL.5Crgl_ghs_D1Lx_obj_V1.2E2.2E0.5Cvlib.5Capp.5Cgfx_apps.5Csimple_draw_d1l2.5Ctarget.5Cd1lx_mango_ghs.5Cobj.5Cled.4::
                         241 .LDWlin4:
00000056 00e2            242 	mov	0,r28
00000058 0000            243 	nop
                         244 .L6:
                         245 --96:         memset(&(led_data[i]), 0, sizeof(led_data[i]));
0000005a 1c08            246 	mov	r28,r1
0000005c c40a            247 	shl	4,r1
0000005e 2e0600000000*   248 	mov	_led_data,r14
00000064 ce09            249 	add	r14,r1
00000066 003a            250 	mov	0,r7
00000068 0130            251 	mov	r1,r6
0000006a 20461000        252 	movea	16,zero,r8
                         253 	jarl	_memset,lp
                         253 <EXPANSION BEGIN>
                         253 jarl22 _memset , lp 
0000006e 80ff0000*       253 <EXPANSION END>
                         254 --line95
                         255 ..lin.D.3A.5CRenesas_Electronics.5CD1x_RGL.5Crgl_ghs_D1Lx_obj_V1.2E2.2E0.5Cvlib.5Capp.5Cgfx_apps.5Csimple_draw_d1l2.5Ctarget.5Cd1lx_mango_ghs.5Cobj.5Cled.5::
                         256 .LDWlin5:
00000072 41e2            257 	add	1,r28
00000074 9c00            258 	zxb	r28
00000076 1c06ceff        259 	addi	-50,r28,zero
0000007a 89f5*           260 	bnl	.L6
                         261 --97:     }
                         262 --99:     led_out = led_State;
                         263 --line99
                         264 ..lin.D.3A.5CRenesas_Electronics.5CD1x_RGL.5Crgl_ghs_D1Lx_obj_V1.2E2.2E0.5Cvlib.5Capp.5Cgfx_apps.5Csimple_draw_d1l2.5Ctarget.5Cd1lx_mango_ghs.5Cobj.5Cled.6::
                         265 .LDWlin6:
0000007c 3e0600000000*   266 	mov	_led_State,ep
00000082 6070            267 	sld.bu	0[ep],r14
00000084 6168            268 	sld.bu	1[ep],r13
00000086 6260            269 	sld.bu	2[ep],r12
00000088 210600000000*   270 	mov	_led_out,r1
0000008e 41770000        271 	st.b	r14,0[r1]
00000092 416f0100        272 	st.b	r13,1[r1]
00000096 41670200        273 	st.b	r12,2[r1]
0000009a 6358            274 	sld.bu	3[ep],r11
0000009c 6470            275 	sld.bu	4[ep],r14
0000009e 6568            276 	sld.bu	5[ep],r13
000000a0 6660            277 	sld.bu	6[ep],r12
000000a2 415f0300        278 	st.b	r11,3[r1]
000000a6 41770400        279 	st.b	r14,4[r1]

                                                                      Page 6
                                                              C:\Users\YINGAO~1\AppData\Local\Temp\gh_00007j81.si
000000aa 416f0500        280 	st.b	r13,5[r1]
000000ae 41670600        281 	st.b	r12,6[r1]
                         282 --100:     led_Enable.lrm_lamp.LRM_value[0] = 0xff;
000000b2 200eff00        283 	movea	255,zero,r1
000000b6 5b0f0000        284 	st.b	r1,0[r27]
                         285 --101:     led_Enable.lrm_lamp.LRM_value[1] = 0xff;
000000ba 200eff00        286 	movea	255,zero,r1
000000be 5b0f0100        287 	st.b	r1,1[r27]
                         288 --102:     led_Enable.lrm_lamp.LRM_value[2] = 0xff;
000000c2 200eff00        289 	movea	255,zero,r1
000000c6 5b0f0200        290 	st.b	r1,2[r27]
                         291 --103:     led_Enable.lrm_lamp.LRM_value[3] = 0xff;
000000ca 200eff00        292 	movea	255,zero,r1
000000ce 5b0f0300        293 	st.b	r1,3[r27]
                         294 --104:     led_Enable.lrm_lamp.LRM_value[4] = 0xff;
000000d2 200eff00        295 	movea	255,zero,r1
000000d6 5b0f0400        296 	st.b	r1,4[r27]
                         297 --105:     led_Enable.lrm_lamp.LRM_value[5] = 0xff;
000000da 200eff00        298 	movea	255,zero,r1
000000de 5b0f0500        299 	st.b	r1,5[r27]
                         300 --106:     led_Enable.assLamp = TRUE;
000000e2 010a            301 	mov	1,r1
000000e4 5b0f0600        302 	st.b	r1,6[r27]
                         303 --107:     led_invalidCnt = 0;
000000e8 5d070500        304 	st.b	zero,5[r29]
                         305 --108:     
                         306 --110:     insCruiseLampEnPrm = DIAG_GetCruiseLampEn();
                         307 	jarl	_DIAG_GetCruiseLampEn,lp
                         307 <EXPANSION BEGIN>
                         307 jarl22 _DIAG_GetCruiseLampEn , lp 
000000ec 80ff0000*       307 <EXPANSION END>
000000f0 5d570600        308 	st.b	r10,6[r29]
                         309 --111:     insEPSLampEnPrm = DIAG_GetEPSLampEn();
                         310 --line111
                         311 ..lin.D.3A.5CRenesas_Electronics.5CD1x_RGL.5Crgl_ghs_D1Lx_obj_V1.2E2.2E0.5Cvlib.5Capp.5Cgfx_apps.5Csimple_draw_d1l2.5Ctarget.5Cd1lx_mango_ghs.5Cobj.5Cled.7::
                         312 .LDWlin7:
                         313 	jarl	_DIAG_GetEPSLampEn,lp
                         313 <EXPANSION BEGIN>
                         313 jarl22 _DIAG_GetEPSLampEn , lp 
000000f4 80ff0000*       313 <EXPANSION END>
000000f8 5d570800        314 	st.b	r10,8[r29]
                         315 --112:     insSASLampEnPrm = DIAG_GetSASLampEn();
                         316 --line112
                         317 ..lin.D.3A.5CRenesas_Electronics.5CD1x_RGL.5Crgl_ghs_D1Lx_obj_V1.2E2.2E0.5Cvlib.5Capp.5Cgfx_apps.5Csimple_draw_d1l2.5Ctarget.5Cd1lx_mango_ghs.5Cobj.5Cled.8::
                         318 .LDWlin8:
                         319 	jarl	_DIAG_GetSASLampEn,lp
                         319 <EXPANSION BEGIN>
                         319 jarl22 _DIAG_GetSASLampEn , lp 
000000fc 80ff0000*       319 <EXPANSION END>
00000100 5d570900        320 	st.b	r10,9[r29]
                         321 --113:     insESCLLampEnPrm = DIAG_GetESCLLampEn();
                         322 --line113
                         323 ..lin.D.3A.5CRenesas_Electronics.5CD1x_RGL.5Crgl_ghs_D1Lx_obj_V1.2E2.2E0.5Cvlib.5Capp.5Cgfx_apps.5Csimple_draw_d1l2.5Ctarget.5Cd1lx_mango_ghs.5Cobj.5Cled.9::
                         324 .LDWlin9:
                         325 	jarl	_DIAG_GetESCLLampEn,lp
                         325 <EXPANSION BEGIN>
                         325 jarl22 _DIAG_GetESCLLampEn , lp 
00000104 80ff0000*       325 <EXPANSION END>
00000108 5d570a00        326 	st.b	r10,10[r29]
                         327 --114:     insDSCLampEnPrm = DIAG_GetDSCLampEn();
                         328 --line114

                                                                      Page 7
                                                              C:\Users\YINGAO~1\AppData\Local\Temp\gh_00007j81.si
                         329 ..lin.D.3A.5CRenesas_Electronics.5CD1x_RGL.5Crgl_ghs_D1Lx_obj_V1.2E2.2E0.5Cvlib.5Capp.5Cgfx_apps.5Csimple_draw_d1l2.5Ctarget.5Cd1lx_mango_ghs.5Cobj.5Cled.10::
                         330 .LDWlin10:
                         331 	jarl	_DIAG_GetDSCLampEn,lp
                         331 <EXPANSION BEGIN>
                         331 jarl22 _DIAG_GetDSCLampEn , lp 
0000010c 80ff0000*       331 <EXPANSION END>
00000110 5d570b00        332 	st.b	r10,11[r29]
                         333 --115:     insLoadShedLampEnPrm = DIAG_GetLoadShedLampEn();
                         334 --line115
                         335 ..lin.D.3A.5CRenesas_Electronics.5CD1x_RGL.5Crgl_ghs_D1Lx_obj_V1.2E2.2E0.5Cvlib.5Capp.5Cgfx_apps.5Csimple_draw_d1l2.5Ctarget.5Cd1lx_mango_ghs.5Cobj.5Cled.11::
                         336 .LDWlin11:
                         337 	jarl	_DIAG_GetLoadShedLampEn,lp
                         337 <EXPANSION BEGIN>
                         337 jarl22 _DIAG_GetLoadShedLampEn , lp 
00000114 80ff0000*       337 <EXPANSION END>
00000118 5d570700        338 	st.b	r10,7[r29]
                         339 --116:     insFrFogLampEnPRm = DIAG_GetFrFogLampEn();
                         340 --line116
                         341 ..lin.D.3A.5CRenesas_Electronics.5CD1x_RGL.5Crgl_ghs_D1Lx_obj_V1.2E2.2E0.5Cvlib.5Capp.5Cgfx_apps.5Csimple_draw_d1l2.5Ctarget.5Cd1lx_mango_ghs.5Cobj.5Cled.12::
                         342 .LDWlin12:
                         343 	jarl	_DIAG_GetFrFogLampEn,lp
                         343 <EXPANSION BEGIN>
                         343 jarl22 _DIAG_GetFrFogLampEn , lp 
0000011c 80ff0000*       343 <EXPANSION END>
00000120 5d570c00        344 	st.b	r10,12[r29]
                         345 --117:     insNoSmartKeyLampEnPrm = DIAG_GetNoSmartKeyLampEn();
                         346 --line117
                         347 ..lin.D.3A.5CRenesas_Electronics.5CD1x_RGL.5Crgl_ghs_D1Lx_obj_V1.2E2.2E0.5Cvlib.5Capp.5Cgfx_apps.5Csimple_draw_d1l2.5Ctarget.5Cd1lx_mango_ghs.5Cobj.5Cled.13::
                         348 .LDWlin13:
                         349 	jarl	_DIAG_GetNoSmartKeyLampEn,lp
                         349 <EXPANSION BEGIN>
                         349 jarl22 _DIAG_GetNoSmartKeyLampEn , lp 
00000124 80ff0000*       349 <EXPANSION END>
00000128 5d570d00        350 	st.b	r10,13[r29]
                         351 --118:     insKeyBatLowLampEnPrm = DIAG_GetKeyBatLowLampEn();
                         352 --line118
                         353 ..lin.D.3A.5CRenesas_Electronics.5CD1x_RGL.5Crgl_ghs_D1Lx_obj_V1.2E2.2E0.5Cvlib.5Capp.5Cgfx_apps.5Csimple_draw_d1l2.5Ctarget.5Cd1lx_mango_ghs.5Cobj.5Cled.14::
                         354 .LDWlin14:
                         355 	jarl	_DIAG_GetKeyBatLowLampEn,lp
                         355 <EXPANSION BEGIN>
                         355 jarl22 _DIAG_GetKeyBatLowLampEn , lp 
0000012c 80ff0000*       355 <EXPANSION END>
00000130 5d570f00        356 	st.b	r10,15[r29]
                         357 --119:     insEcoLampEnPrm = DIAG_GetEcoLampEn();
                         358 --line119
                         359 ..lin.D.3A.5CRenesas_Electronics.5CD1x_RGL.5Crgl_ghs_D1Lx_obj_V1.2E2.2E0.5Cvlib.5Capp.5Cgfx_apps.5Csimple_draw_d1l2.5Ctarget.5Cd1lx_mango_ghs.5Cobj.5Cled.15::
                         360 .LDWlin15:
                         361 	jarl	_DIAG_GetEcoLampEn,lp
                         361 <EXPANSION BEGIN>
                         361 jarl22 _DIAG_GetEcoLampEn , lp 
00000134 80ff0000*       361 <EXPANSION END>
00000138 5d571000        362 	st.b	r10,16[r29]
                         363 --120: 	insStopStartSysEnPrm = DIAG_GetStopStartSysEn();
                         364 --line120
                         365 ..lin.D.3A.5CRenesas_Electronics.5CD1x_RGL.5Crgl_ghs_D1Lx_obj_V1.2E2.2E0.5Cvlib.5Capp.5Cgfx_apps.5Csimple_draw_d1l2.5Ctarget.5Cd1lx_mango_ghs.5Cobj.5Cled.16::
                         366 .LDWlin16:
                         367 	jarl	_DIAG_GetStopStartSysEn,lp
                         367 <EXPANSION BEGIN>
                         367 jarl22 _DIAG_GetStopStartSysEn , lp 
0000013c 80ff0000*       367 <EXPANSION END>
00000140 5d571100        368 	st.b	r10,17[r29]

                                                                      Page 8
                                                              C:\Users\YINGAO~1\AppData\Local\Temp\gh_00007j81.si
                         369 --121: 	insTPMSFailEnPrm = DIAG_GetTPMSFailEn();
                         370 --line121
                         371 ..lin.D.3A.5CRenesas_Electronics.5CD1x_RGL.5Crgl_ghs_D1Lx_obj_V1.2E2.2E0.5Cvlib.5Capp.5Cgfx_apps.5Csimple_draw_d1l2.5Ctarget.5Cd1lx_mango_ghs.5Cobj.5Cled.17::
                         372 .LDWlin17:
                         373 	jarl	_DIAG_GetTPMSFailEn,lp
                         373 <EXPANSION BEGIN>
                         373 jarl22 _DIAG_GetTPMSFailEn , lp 
00000144 80ff0000*       373 <EXPANSION END>
00000148 5d571200        374 	st.b	r10,18[r29]
                         375 --122: 	insAutoholdStatusEnPrm = DIAG_GetAutoholdStatusEn();
                         376 --line122
                         377 ..lin.D.3A.5CRenesas_Electronics.5CD1x_RGL.5Crgl_ghs_D1Lx_obj_V1.2E2.2E0.5Cvlib.5Capp.5Cgfx_apps.5Csimple_draw_d1l2.5Ctarget.5Cd1lx_mango_ghs.5Cobj.5Cled.18::
                         378 .LDWlin18:
                         379 	jarl	_DIAG_GetAutoholdStatusEn,lp
                         379 <EXPANSION BEGIN>
                         379 jarl22 _DIAG_GetAutoholdStatusEn , lp 
0000014c 80ff0000*       379 <EXPANSION END>
00000150 5d571400        380 	st.b	r10,20[r29]
                         381 --123: 	insHDCLampEnPrm = DIAG_GetHDCLampEn();
                         382 --line123
                         383 ..lin.D.3A.5CRenesas_Electronics.5CD1x_RGL.5Crgl_ghs_D1Lx_obj_V1.2E2.2E0.5Cvlib.5Capp.5Cgfx_apps.5Csimple_draw_d1l2.5Ctarget.5Cd1lx_mango_ghs.5Cobj.5Cled.19::
                         384 .LDWlin19:
                         385 	jarl	_DIAG_GetHDCLampEn,lp
                         385 <EXPANSION BEGIN>
                         385 jarl22 _DIAG_GetHDCLampEn , lp 
00000154 80ff0000*       385 <EXPANSION END>
00000158 5d571500        386 	st.b	r10,21[r29]
                         387 --124: 	insEPBStatusEnPrm = DIAG_GetEPBStatusEn();
                         388 --line124
                         389 ..lin.D.3A.5CRenesas_Electronics.5CD1x_RGL.5Crgl_ghs_D1Lx_obj_V1.2E2.2E0.5Cvlib.5Capp.5Cgfx_apps.5Csimple_draw_d1l2.5Ctarget.5Cd1lx_mango_ghs.5Cobj.5Cled.20::
                         390 .LDWlin20:
                         391 	jarl	_DIAG_GetEPBStatusEn,lp
                         391 <EXPANSION BEGIN>
                         391 jarl22 _DIAG_GetEPBStatusEn , lp 
0000015c 80ff0000*       391 <EXPANSION END>
00000160 5d571300        392 	st.b	r10,19[r29]
                         393 --125: 	insSecKeyInvLampEnPrm = DIAG_GetInsSecKeyInvLampEnPrm();/*V2*/
                         394 --line125
                         395 ..lin.D.3A.5CRenesas_Electronics.5CD1x_RGL.5Crgl_ghs_D1Lx_obj_V1.2E2.2E0.5Cvlib.5Capp.5Cgfx_apps.5Csimple_draw_d1l2.5Ctarget.5Cd1lx_mango_ghs.5Cobj.5Cled.21::
                         396 .LDWlin21:
                         397 	jarl	_DIAG_GetInsSecKeyInvLampEnPrm,lp
                         397 <EXPANSION BEGIN>
                         397 jarl22 _DIAG_GetInsSecKeyInvLampEnPrm , lp 
00000164 80ff0000*       397 <EXPANSION END>
00000168 5d570e00        398 	st.b	r10,14[r29]
                         399 --127:     led_SetLampStatus(&led_Enable, LEDLAMP_CRUISE_GREEN, insCruiseLampEnPrm);
                         400 --line127
                         401 ..lin.D.3A.5CRenesas_Electronics.5CD1x_RGL.5Crgl_ghs_D1Lx_obj_V1.2E2.2E0.5Cvlib.5Capp.5Cgfx_apps.5Csimple_draw_d1l2.5Ctarget.5Cd1lx_mango_ghs.5Cobj.5Cled.22::
                         402 .LDWlin22:
0000016c 9d470700        403 	ld.bu	6[r29],r8
00000170 1b30            404 	mov	r27,r6
00000172 0f3a            405 	mov	15,r7
                         406 	jarl	_led_SetLampStatus,lp
                         406 <EXPANSION BEGIN>
                         406 jarl22 _led_SetLampStatus , lp 
00000174 80ff5807*       406 <EXPANSION END>
                         407 --128:     led_SetLampStatus(&led_Enable, LEDLAMP_CRUISE_YELLOW, insCruiseLampEnPrm);
                         408 --line128
                         409 ..lin.D.3A.5CRenesas_Electronics.5CD1x_RGL.5Crgl_ghs_D1Lx_obj_V1.2E2.2E0.5Cvlib.5Capp.5Cgfx_apps.5Csimple_draw_d1l2.5Ctarget.5Cd1lx_mango_ghs.5Cobj.5Cled.23::
                         410 .LDWlin23:
00000178 9d470700        411 	ld.bu	6[r29],r8

                                                                      Page 9
                                                              C:\Users\YINGAO~1\AppData\Local\Temp\gh_00007j81.si
0000017c 1b30            412 	mov	r27,r6
0000017e 203e1000        413 	movea	16,zero,r7
                         414 	jarl	_led_SetLampStatus,lp
                         414 <EXPANSION BEGIN>
                         414 jarl22 _led_SetLampStatus , lp 
00000182 80ff4a07*       414 <EXPANSION END>
                         415 --129:     led_SetLampStatus(&led_Enable, LEDLAMP_SIDELIGHTS, insLoadShedLampEnPrm);
                         416 --line129
                         417 ..lin.D.3A.5CRenesas_Electronics.5CD1x_RGL.5Crgl_ghs_D1Lx_obj_V1.2E2.2E0.5Cvlib.5Capp.5Cgfx_apps.5Csimple_draw_d1l2.5Ctarget.5Cd1lx_mango_ghs.5Cobj.5Cled.24::
                         418 .LDWlin24:
00000186 bd470700        419 	ld.bu	7[r29],r8
0000018a 1b30            420 	mov	r27,r6
0000018c 203e2500        421 	movea	37,zero,r7
                         422 	jarl	_led_SetLampStatus,lp
                         422 <EXPANSION BEGIN>
                         422 jarl22 _led_SetLampStatus , lp 
00000190 80ff3c07*       422 <EXPANSION END>
                         423 --131:     if(( TRUE == insEPSLampEnPrm)
                         424 --line131
                         425 ..lin.D.3A.5CRenesas_Electronics.5CD1x_RGL.5Crgl_ghs_D1Lx_obj_V1.2E2.2E0.5Cvlib.5Capp.5Cgfx_apps.5Csimple_draw_d1l2.5Ctarget.5Cd1lx_mango_ghs.5Cobj.5Cled.25::
                         426 .LDWlin25:
00000194 9d0f0900        427 	ld.bu	8[r29],r1
00000198 610a            428 	cmp	1,r1
0000019a d205*           429 	be	.L8
0000019c bd0f0900        430 	ld.bu	9[r29],r1
000001a0 610a            431 	cmp	1,r1
000001a2 8a0d*           432 	bne	.L7
                         433 .L8:
                         434 --132:     || (TRUE == insSASLampEnPrm))
                         435 --133:     {
                         436 --134:         led_SetLampStatus(&led_Enable, LEDLAMP_EPS_ERROR, TRUE);
                         437 --line134
                         438 ..lin.D.3A.5CRenesas_Electronics.5CD1x_RGL.5Crgl_ghs_D1Lx_obj_V1.2E2.2E0.5Cvlib.5Capp.5Cgfx_apps.5Csimple_draw_d1l2.5Ctarget.5Cd1lx_mango_ghs.5Cobj.5Cled.26::
                         439 .LDWlin26:
000001a4 1b30            440 	mov	r27,r6
000001a6 203e2a00        441 	movea	42,zero,r7
000001aa 0142            442 	mov	1,r8
                         443 	jarl	_led_SetLampStatus,lp
                         443 <EXPANSION BEGIN>
                         443 jarl22 _led_SetLampStatus , lp 
000001ac 80ff2007*       443 <EXPANSION END>
000001b0 f505*           444 	br	.L10
                         445 .L7:
                         446 --135:     }
                         447 --136:     else
                         448 --137:     {
                         449 --138:         led_SetLampStatus(&led_Enable, LEDLAMP_EPS_ERROR, FALSE);
                         450 --line138
                         451 ..lin.D.3A.5CRenesas_Electronics.5CD1x_RGL.5Crgl_ghs_D1Lx_obj_V1.2E2.2E0.5Cvlib.5Capp.5Cgfx_apps.5Csimple_draw_d1l2.5Ctarget.5Cd1lx_mango_ghs.5Cobj.5Cled.27::
                         452 .LDWlin27:
000001b2 1b30            453 	mov	r27,r6
000001b4 203e2a00        454 	movea	42,zero,r7
000001b8 0042            455 	mov	0,r8
                         456 	jarl	_led_SetLampStatus,lp
                         456 <EXPANSION BEGIN>
                         456 jarl22 _led_SetLampStatus , lp 
000001ba 80ff1207*       456 <EXPANSION END>
                         457 .L10:
                         458 --139:     }
                         459 --141:     if((TRUE ==  insEPSLampEnPrm)
                         460 --line141

                                                                      Page 10
                                                              C:\Users\YINGAO~1\AppData\Local\Temp\gh_00007j81.si
                         461 ..lin.D.3A.5CRenesas_Electronics.5CD1x_RGL.5Crgl_ghs_D1Lx_obj_V1.2E2.2E0.5Cvlib.5Capp.5Cgfx_apps.5Csimple_draw_d1l2.5Ctarget.5Cd1lx_mango_ghs.5Cobj.5Cled.28::
                         462 .LDWlin28:
000001be 9d0f0900        463 	ld.bu	8[r29],r1
000001c2 610a            464 	cmp	1,r1
000001c4 d205*           465 	be	.L12
000001c6 9d0f0b00        466 	ld.bu	10[r29],r1
000001ca 610a            467 	cmp	1,r1
000001cc 8a0d*           468 	bne	.L11
                         469 .L12:
                         470 --142:     ||(TRUE == insESCLLampEnPrm))
                         471 --143:     {
                         472 --144:         led_SetLampStatus(&led_Enable, LEDLAMP_EPS_WARN, TRUE);
                         473 --line144
                         474 ..lin.D.3A.5CRenesas_Electronics.5CD1x_RGL.5Crgl_ghs_D1Lx_obj_V1.2E2.2E0.5Cvlib.5Capp.5Cgfx_apps.5Csimple_draw_d1l2.5Ctarget.5Cd1lx_mango_ghs.5Cobj.5Cled.29::
                         475 .LDWlin29:
000001ce 1b30            476 	mov	r27,r6
000001d0 203e2b00        477 	movea	43,zero,r7
000001d4 0142            478 	mov	1,r8
                         479 	jarl	_led_SetLampStatus,lp
                         479 <EXPANSION BEGIN>
                         479 jarl22 _led_SetLampStatus , lp 
000001d6 80fff606*       479 <EXPANSION END>
000001da f505*           480 	br	.L14
                         481 .L11:
                         482 --145:     }
                         483 --146:     else
                         484 --147:     {
                         485 --148:         led_SetLampStatus(&led_Enable, LEDLAMP_EPS_WARN, FALSE);
                         486 --line148
                         487 ..lin.D.3A.5CRenesas_Electronics.5CD1x_RGL.5Crgl_ghs_D1Lx_obj_V1.2E2.2E0.5Cvlib.5Capp.5Cgfx_apps.5Csimple_draw_d1l2.5Ctarget.5Cd1lx_mango_ghs.5Cobj.5Cled.30::
                         488 .LDWlin30:
000001dc 1b30            489 	mov	r27,r6
000001de 203e2b00        490 	movea	43,zero,r7
000001e2 0042            491 	mov	0,r8
                         492 	jarl	_led_SetLampStatus,lp
                         492 <EXPANSION BEGIN>
                         492 jarl22 _led_SetLampStatus , lp 
000001e4 80ffe806*       492 <EXPANSION END>
                         493 .L14:
                         494 --149:     }
                         495 --151:     led_SetLampStatus(&led_Enable, LEDLAMP_SCSSTART, insDSCLampEnPrm);
                         496 --line151
                         497 ..lin.D.3A.5CRenesas_Electronics.5CD1x_RGL.5Crgl_ghs_D1Lx_obj_V1.2E2.2E0.5Cvlib.5Capp.5Cgfx_apps.5Csimple_draw_d1l2.5Ctarget.5Cd1lx_mango_ghs.5Cobj.5Cled.31::
                         498 .LDWlin31:
000001e8 bd470b00        499 	ld.bu	11[r29],r8
000001ec 1b30            500 	mov	r27,r6
000001ee 083a            501 	mov	8,r7
                         502 	jarl	_led_SetLampStatus,lp
                         502 <EXPANSION BEGIN>
                         502 jarl22 _led_SetLampStatus , lp 
000001f0 80ffdc06*       502 <EXPANSION END>
                         503 --152:     led_SetLampStatus(&led_Enable, LEDLAMP_SCS_OFF, insDSCLampEnPrm);
                         504 --line152
                         505 ..lin.D.3A.5CRenesas_Electronics.5CD1x_RGL.5Crgl_ghs_D1Lx_obj_V1.2E2.2E0.5Cvlib.5Capp.5Cgfx_apps.5Csimple_draw_d1l2.5Ctarget.5Cd1lx_mango_ghs.5Cobj.5Cled.32::
                         506 .LDWlin32:
000001f4 bd470b00        507 	ld.bu	11[r29],r8
000001f8 1b30            508 	mov	r27,r6
000001fa 0e3a            509 	mov	14,r7
                         510 	jarl	_led_SetLampStatus,lp
                         510 <EXPANSION BEGIN>
                         510 jarl22 _led_SetLampStatus , lp 

                                                                      Page 11
                                                              C:\Users\YINGAO~1\AppData\Local\Temp\gh_00007j81.si
000001fc 80ffd006*       510 <EXPANSION END>
                         511 --154:     led_SetLampStatus(&led_Enable, LEDLAMP_FRONT_FOG, insFrFogLampEnPRm);
                         512 --line154
                         513 ..lin.D.3A.5CRenesas_Electronics.5CD1x_RGL.5Crgl_ghs_D1Lx_obj_V1.2E2.2E0.5Cvlib.5Capp.5Cgfx_apps.5Csimple_draw_d1l2.5Ctarget.5Cd1lx_mango_ghs.5Cobj.5Cled.33::
                         514 .LDWlin33:
00000200 9d470d00        515 	ld.bu	12[r29],r8
00000204 1b30            516 	mov	r27,r6
00000206 203e2600        517 	movea	38,zero,r7
                         518 	jarl	_led_SetLampStatus,lp
                         518 <EXPANSION BEGIN>
                         518 jarl22 _led_SetLampStatus , lp 
0000020a 80ffc206*       518 <EXPANSION END>
                         519 --155:     if ((TRUE == insNoSmartKeyLampEnPrm)
                         520 --line155
                         521 ..lin.D.3A.5CRenesas_Electronics.5CD1x_RGL.5Crgl_ghs_D1Lx_obj_V1.2E2.2E0.5Cvlib.5Capp.5Cgfx_apps.5Csimple_draw_d1l2.5Ctarget.5Cd1lx_mango_ghs.5Cobj.5Cled.34::
                         522 .LDWlin34:
0000020e bd0f0d00        523 	ld.bu	13[r29],r1
00000212 610a            524 	cmp	1,r1
00000214 920d*           525 	be	.L16
00000216 bd0f0f00        526 	ld.bu	15[r29],r1
0000021a 610a            527 	cmp	1,r1
0000021c d205*           528 	be	.L16
0000021e 9d0f0f00        529 	ld.bu	14[r29],r1
00000222 610a            530 	cmp	1,r1
00000224 8a0d*           531 	bne	.L15
                         532 .L16:
                         533 --156:         || (TRUE ==insKeyBatLowLampEnPrm)
                         534 --157:         || (TRUE ==insSecKeyInvLampEnPrm))
                         535 --158:     {
                         536 --159:         led_SetLampStatus(&led_Enable, LEDLAMP_ALARM, TRUE);
                         537 --line159
                         538 ..lin.D.3A.5CRenesas_Electronics.5CD1x_RGL.5Crgl_ghs_D1Lx_obj_V1.2E2.2E0.5Cvlib.5Capp.5Cgfx_apps.5Csimple_draw_d1l2.5Ctarget.5Cd1lx_mango_ghs.5Cobj.5Cled.35::
                         539 .LDWlin35:
00000226 1b30            540 	mov	r27,r6
00000228 203e2900        541 	movea	41,zero,r7
0000022c 0142            542 	mov	1,r8
                         543 	jarl	_led_SetLampStatus,lp
                         543 <EXPANSION BEGIN>
                         543 jarl22 _led_SetLampStatus , lp 
0000022e 80ff9e06*       543 <EXPANSION END>
00000232 f505*           544 	br	.L19
                         545 .L15:
                         546 --160:     }
                         547 --161:     else
                         548 --162:     {
                         549 --163:         led_SetLampStatus(&led_Enable, LEDLAMP_ALARM, FALSE);
                         550 --line163
                         551 ..lin.D.3A.5CRenesas_Electronics.5CD1x_RGL.5Crgl_ghs_D1Lx_obj_V1.2E2.2E0.5Cvlib.5Capp.5Cgfx_apps.5Csimple_draw_d1l2.5Ctarget.5Cd1lx_mango_ghs.5Cobj.5Cled.36::
                         552 .LDWlin36:
00000234 1b30            553 	mov	r27,r6
00000236 203e2900        554 	movea	41,zero,r7
0000023a 0042            555 	mov	0,r8
                         556 	jarl	_led_SetLampStatus,lp
                         556 <EXPANSION BEGIN>
                         556 jarl22 _led_SetLampStatus , lp 
0000023c 80ff9006*       556 <EXPANSION END>
                         557 .L19:
                         558 --164:     }
                         559 --166:     led_SetLampStatus(&led_Enable, LEDLAMP_ECOMODE, insEcoLampEnPrm);
                         560 --line166
                         561 ..lin.D.3A.5CRenesas_Electronics.5CD1x_RGL.5Crgl_ghs_D1Lx_obj_V1.2E2.2E0.5Cvlib.5Capp.5Cgfx_apps.5Csimple_draw_d1l2.5Ctarget.5Cd1lx_mango_ghs.5Cobj.5Cled.37::

                                                                      Page 12
                                                              C:\Users\YINGAO~1\AppData\Local\Temp\gh_00007j81.si
                         562 .LDWlin37:
00000240 9d471100        563 	ld.bu	16[r29],r8
00000244 1b30            564 	mov	r27,r6
00000246 203e2400        565 	movea	36,zero,r7
                         566 	jarl	_led_SetLampStatus,lp
                         566 <EXPANSION BEGIN>
                         566 jarl22 _led_SetLampStatus , lp 
0000024a 80ff8206*       566 <EXPANSION END>
                         567 --168: 	led_SetLampStatus(&led_Enable, LEDLAMP_ASS_ACTIVE, insStopStartSysEnPrm);
                         568 --line168
                         569 ..lin.D.3A.5CRenesas_Electronics.5CD1x_RGL.5Crgl_ghs_D1Lx_obj_V1.2E2.2E0.5Cvlib.5Capp.5Cgfx_apps.5Csimple_draw_d1l2.5Ctarget.5Cd1lx_mango_ghs.5Cobj.5Cled.38::
                         570 .LDWlin38:
0000024e bd471100        571 	ld.bu	17[r29],r8
00000252 1b30            572 	mov	r27,r6
00000254 203e2200        573 	movea	34,zero,r7
                         574 	jarl	_led_SetLampStatus,lp
                         574 <EXPANSION BEGIN>
                         574 jarl22 _led_SetLampStatus , lp 
00000258 80ff7406*       574 <EXPANSION END>
                         575 --169: 	led_SetLampStatus(&led_Enable, LEDLAMP_ASS_ERROR, insStopStartSysEnPrm);
                         576 --line169
                         577 ..lin.D.3A.5CRenesas_Electronics.5CD1x_RGL.5Crgl_ghs_D1Lx_obj_V1.2E2.2E0.5Cvlib.5Capp.5Cgfx_apps.5Csimple_draw_d1l2.5Ctarget.5Cd1lx_mango_ghs.5Cobj.5Cled.39::
                         578 .LDWlin39:
0000025c bd471100        579 	ld.bu	17[r29],r8
00000260 1b30            580 	mov	r27,r6
00000262 203e2300        581 	movea	35,zero,r7
                         582 	jarl	_led_SetLampStatus,lp
                         582 <EXPANSION BEGIN>
                         582 jarl22 _led_SetLampStatus , lp 
00000266 80ff6606*       582 <EXPANSION END>
                         583 --170: 	led_SetLampStatus(&led_Enable, LEDLAMP_TPMS_WARN, insTPMSFailEnPrm);
                         584 --line170
                         585 ..lin.D.3A.5CRenesas_Electronics.5CD1x_RGL.5Crgl_ghs_D1Lx_obj_V1.2E2.2E0.5Cvlib.5Capp.5Cgfx_apps.5Csimple_draw_d1l2.5Ctarget.5Cd1lx_mango_ghs.5Cobj.5Cled.40::
                         586 .LDWlin40:
0000026a 9d471300        587 	ld.bu	18[r29],r8
0000026e 1b30            588 	mov	r27,r6
00000270 073a            589 	mov	7,r7
                         590 	jarl	_led_SetLampStatus,lp
                         590 <EXPANSION BEGIN>
                         590 jarl22 _led_SetLampStatus , lp 
00000272 80ff5a06*       590 <EXPANSION END>
                         591 --171: 	led_SetLampStatus(&led_Enable, LEDLAMP_EPB, insEPBStatusEnPrm);
                         592 --line171
                         593 ..lin.D.3A.5CRenesas_Electronics.5CD1x_RGL.5Crgl_ghs_D1Lx_obj_V1.2E2.2E0.5Cvlib.5Capp.5Cgfx_apps.5Csimple_draw_d1l2.5Ctarget.5Cd1lx_mango_ghs.5Cobj.5Cled.41::
                         594 .LDWlin41:
00000276 bd471300        595 	ld.bu	19[r29],r8
0000027a 1b30            596 	mov	r27,r6
0000027c 093a            597 	mov	9,r7
                         598 	jarl	_led_SetLampStatus,lp
                         598 <EXPANSION BEGIN>
                         598 jarl22 _led_SetLampStatus , lp 
0000027e 80ff4e06*       598 <EXPANSION END>
                         599 --172: 	led_SetLampStatus(&led_Enable, LEDLAMP_EPB_OFF, insEPBStatusEnPrm);
                         600 --line172
                         601 ..lin.D.3A.5CRenesas_Electronics.5CD1x_RGL.5Crgl_ghs_D1Lx_obj_V1.2E2.2E0.5Cvlib.5Capp.5Cgfx_apps.5Csimple_draw_d1l2.5Ctarget.5Cd1lx_mango_ghs.5Cobj.5Cled.42::
                         602 .LDWlin42:
00000282 bd471300        603 	ld.bu	19[r29],r8
00000286 1b30            604 	mov	r27,r6
00000288 0d3a            605 	mov	13,r7
                         606 	jarl	_led_SetLampStatus,lp
                         606 <EXPANSION BEGIN>

                                                                      Page 13
                                                              C:\Users\YINGAO~1\AppData\Local\Temp\gh_00007j81.si
                         606 jarl22 _led_SetLampStatus , lp 
0000028a 80ff4206*       606 <EXPANSION END>
                         607 --173: 	led_SetLampStatus(&led_Enable, LEDLAMP_AUTOHOLD_GREEN, insAutoholdStatusEnPrm);
                         608 --line173
                         609 ..lin.D.3A.5CRenesas_Electronics.5CD1x_RGL.5Crgl_ghs_D1Lx_obj_V1.2E2.2E0.5Cvlib.5Capp.5Cgfx_apps.5Csimple_draw_d1l2.5Ctarget.5Cd1lx_mango_ghs.5Cobj.5Cled.43::
                         610 .LDWlin43:
0000028e 9d471500        611 	ld.bu	20[r29],r8
00000292 1b30            612 	mov	r27,r6
00000294 013a            613 	mov	1,r7
                         614 	jarl	_led_SetLampStatus,lp
                         614 <EXPANSION BEGIN>
                         614 jarl22 _led_SetLampStatus , lp 
00000296 80ff3606*       614 <EXPANSION END>
                         615 --174: 	led_SetLampStatus(&led_Enable, LEDLAMP_HDC_GREEN, insHDCLampEnPrm);
                         616 --line174
                         617 ..lin.D.3A.5CRenesas_Electronics.5CD1x_RGL.5Crgl_ghs_D1Lx_obj_V1.2E2.2E0.5Cvlib.5Capp.5Cgfx_apps.5Csimple_draw_d1l2.5Ctarget.5Cd1lx_mango_ghs.5Cobj.5Cled.44::
                         618 .LDWlin44:
0000029a bd471500        619 	ld.bu	21[r29],r8
0000029e 1b30            620 	mov	r27,r6
000002a0 203e2700        621 	movea	39,zero,r7
                         622 	jarl	_led_SetLampStatus,lp
                         622 <EXPANSION BEGIN>
                         622 jarl22 _led_SetLampStatus , lp 
000002a4 80ff2806*       622 <EXPANSION END>
                         623 --175: 	led_SetLampStatus(&led_Enable, LEDLAMP_HDC_YELLOW, insHDCLampEnPrm);
                         624 --line175
                         625 ..lin.D.3A.5CRenesas_Electronics.5CD1x_RGL.5Crgl_ghs_D1Lx_obj_V1.2E2.2E0.5Cvlib.5Capp.5Cgfx_apps.5Csimple_draw_d1l2.5Ctarget.5Cd1lx_mango_ghs.5Cobj.5Cled.45::
                         626 .LDWlin45:
000002a8 bd471500        627 	ld.bu	21[r29],r8
000002ac 1b30            628 	mov	r27,r6
000002ae 203e2800        629 	movea	40,zero,r7
                         630 	jarl	_led_SetLampStatus,lp
                         630 <EXPANSION BEGIN>
                         630 jarl22 _led_SetLampStatus , lp 
000002b2 80ff1a06*       630 <EXPANSION END>
                         631 --178:     if ((FALSE == IOM_GetModuleStatus())
                         632 --line178
                         633 ..lin.D.3A.5CRenesas_Electronics.5CD1x_RGL.5Crgl_ghs_D1Lx_obj_V1.2E2.2E0.5Cvlib.5Capp.5Cgfx_apps.5Csimple_draw_d1l2.5Ctarget.5Cd1lx_mango_ghs.5Cobj.5Cled.46::
                         634 .LDWlin46:
                         635 	jarl	_IOM_GetModuleStatus,lp
                         635 <EXPANSION BEGIN>
                         635 jarl22 _IOM_GetModuleStatus , lp 
000002b6 80ff0000*       635 <EXPANSION END>
000002ba e051            636 	cmp	zero,r10
000002bc d205*           637 	be	.L21
                         638 	jarl	_LRM_GetInitStatus,lp
                         638 <EXPANSION BEGIN>
                         638 jarl22 _LRM_GetInitStatus , lp 
000002be 80ff0000*       638 <EXPANSION END>
000002c2 e051            639 	cmp	zero,r10
000002c4 ca05*           640 	bne	.L20
                         641 .L21:
                         642 --179:     ||(FALSE == LRM_GetInitStatus()))
                         643 --180:     {
                         644 --181:         led_InitSts = FALSE;
                         645 --line181
                         646 ..lin.D.3A.5CRenesas_Electronics.5CD1x_RGL.5Crgl_ghs_D1Lx_obj_V1.2E2.2E0.5Cvlib.5Capp.5Cgfx_apps.5Csimple_draw_d1l2.5Ctarget.5Cd1lx_mango_ghs.5Cobj.5Cled.47::
                         647 .LDWlin47:
000002c6 5d070400        648 	st.b	zero,4[r29]
000002ca c505*           649 	br	.L23
                         650 .L20:

                                                                      Page 14
                                                              C:\Users\YINGAO~1\AppData\Local\Temp\gh_00007j81.si
                         651 --182:     }
                         652 --183:     else
                         653 --184:     {
                         654 --185:         led_InitSts = TRUE;
                         655 --line185
                         656 ..lin.D.3A.5CRenesas_Electronics.5CD1x_RGL.5Crgl_ghs_D1Lx_obj_V1.2E2.2E0.5Cvlib.5Capp.5Cgfx_apps.5Csimple_draw_d1l2.5Ctarget.5Cd1lx_mango_ghs.5Cobj.5Cled.48::
                         657 .LDWlin48:
000002cc 010a            658 	mov	1,r1
000002ce 5d0f0400        659 	st.b	r1,4[r29]
                         660 .L23:
                         661 --186:     }
                         662 --187: }
000002d2 0000            663 	nop
                         664 --	    .ef
                         665 .LDW11:
000002d4 4806ff70        666 	dispose	4,{r25,r26,r27,r28,r29,r31},[lp]
                         667 	.type	_LED_Init,@function
                         668 	.size	_LED_Init,.-_LED_Init
                         669 	.align	2
                         670 .LDW21:
                         671 --_i	r28	local
                         672 --_res	r26	local
                         673 
                         674 	.data
                         675 	.align	4
                         676 .L178:
                         677 	.type	.L178,@object
                         678 	.size	.L178,0
                         679 	.global	_led_GCounter..D.3A.5CRenesas_Electronics.5CD1x_RGL.5Crgl_ghs_D1Lx_obj_V1.2E2.2E0.5Cvlib.5Capp.5Cgfx_apps.5Csimple_draw_d1l2.5Ctarget.5Cd1lx_mango_ghs.5Cobj.5Cled.
                         680 _led_GCounter..D.3A.5CRenesas_Electronics.5CD1x_RGL.5Crgl_ghs_D1Lx_obj_V1.2E2.2E0.5Cvlib.5Capp.5Cgfx_apps.5Csimple_draw_d1l2.5Ctarget.5Cd1lx_mango_ghs.5Cobj.5Cled.:
                         681 	.type	_led_GCounter..D.3A.5CRenesas_Electronics.5CD1x_RGL.5Crgl_ghs_D1Lx_obj_V1.2E2.2E0.5Cvlib.5Capp.5Cgfx_apps.5Csimple_draw_d1l2.5Ctarget.5Cd1lx_mango_ghs.5Cobj.5Cled.,@object
                         682 	.size	_led_GCounter..D.3A.5CRenesas_Electronics.5CD1x_RGL.5Crgl_ghs_D1Lx_obj_V1.2E2.2E0.5Cvlib.5Capp.5Cgfx_apps.5Csimple_draw_d1l2.5Ctarget.5Cd1lx_mango_ghs.5Cobj.5Cled.,4
00000000 00000000        683 _led_GCounter:	.byte	0,0,0,0
                         684 	.type	_led_GCounter,@object
                         685 	.size	_led_GCounter,4
                         686 	.global	_led_InitSts..D.3A.5CRenesas_Electronics.5CD1x_RGL.5Crgl_ghs_D1Lx_obj_V1.2E2.2E0.5Cvlib.5Capp.5Cgfx_apps.5Csimple_draw_d1l2.5Ctarget.5Cd1lx_mango_ghs.5Cobj.5Cled.
                         687 _led_InitSts..D.3A.5CRenesas_Electronics.5CD1x_RGL.5Crgl_ghs_D1Lx_obj_V1.2E2.2E0.5Cvlib.5Capp.5Cgfx_apps.5Csimple_draw_d1l2.5Ctarget.5Cd1lx_mango_ghs.5Cobj.5Cled.:
                         688 	.type	_led_InitSts..D.3A.5CRenesas_Electronics.5CD1x_RGL.5Crgl_ghs_D1Lx_obj_V1.2E2.2E0.5Cvlib.5Capp.5Cgfx_apps.5Csimple_draw_d1l2.5Ctarget.5Cd1lx_mango_ghs.5Cobj.5Cled.,@object
                         689 	.size	_led_InitSts..D.3A.5CRenesas_Electronics.5CD1x_RGL.5Crgl_ghs_D1Lx_obj_V1.2E2.2E0.5Cvlib.5Capp.5Cgfx_apps.5Csimple_draw_d1l2.5Ctarget.5Cd1lx_mango_ghs.5Cobj.5Cled.,1
00000004 00              690 _led_InitSts:	.byte	0
                         691 	.type	_led_InitSts,@object
                         692 	.size	_led_InitSts,1
                         693 	.global	_led_invalidCnt..D.3A.5CRenesas_Electronics.5CD1x_RGL.5Crgl_ghs_D1Lx_obj_V1.2E2.2E0.5Cvlib.5Capp.5Cgfx_apps.5Csimple_draw_d1l2.5Ctarget.5Cd1lx_mango_ghs.5Cobj.5Cled.
                         694 _led_invalidCnt..D.3A.5CRenesas_Electronics.5CD1x_RGL.5Crgl_ghs_D1Lx_obj_V1.2E2.2E0.5Cvlib.5Capp.5Cgfx_apps.5Csimple_draw_d1l2.5Ctarget.5Cd1lx_mango_ghs.5Cobj.5Cled.:
                         695 	.type	_led_invalidCnt..D.3A.5CRenesas_Electronics.5CD1x_RGL.5Crgl_ghs_D1Lx_obj_V1.2E2.2E0.5Cvlib.5Capp.5Cgfx_apps.5Csimple_draw_d1l2.5Ctarget.5Cd1lx_mango_ghs.5Cobj.5Cled.,@object
                         696 	.size	_led_invalidCnt..D.3A.5CRenesas_Electronics.5CD1x_RGL.5Crgl_ghs_D1Lx_obj_V1.2E2.2E0.5Cvlib.5Capp.5Cgfx_apps.5Csimple_draw_d1l2.5Ctarget.5Cd1lx_mango_ghs.5Cobj.5Cled.,1
00000005 00              697 _led_invalidCnt:	.byte	0
                         698 	.type	_led_invalidCnt,@object
                         699 	.size	_led_invalidCnt,1
                         700 	.global	_insCruiseLampEnPrm..D.3A.5CRenesas_Electronics.5CD1x_RGL.5Crgl_ghs_D1Lx_obj_V1.2E2.2E0.5Cvlib.5Capp.5Cgfx_apps.5Csimple_draw_d1l2.5Ctarget.5Cd1lx_mango_ghs.5Cobj.5Cled.
                         701 _insCruiseLampEnPrm..D.3A.5CRenesas_Electronics.5CD1x_RGL.5Crgl_ghs_D1Lx_obj_V1.2E2.2E0.5Cvlib.5Capp.5Cgfx_apps.5Csimple_draw_d1l2.5Ctarget.5Cd1lx_mango_ghs.5Cobj.5Cled.:
                         702 	.type	_insCruiseLampEnPrm..D.3A.5CRenesas_Electronics.5CD1x_RGL.5Crgl_ghs_D1Lx_obj_V1.2E2.2E0.5Cvlib.5Capp.5Cgfx_apps.5Csimple_draw_d1l2.5Ctarget.5Cd1lx_mango_ghs.5Cobj.5Cled.,@object
                         703 	.size	_insCruiseLampEnPrm..D.3A.5CRenesas_Electronics.5CD1x_RGL.5Crgl_ghs_D1Lx_obj_V1.2E2.2E0.5Cvlib.5Capp.5Cgfx_apps.5Csimple_draw_d1l2.5Ctarget.5Cd1lx_mango_ghs.5Cobj.5Cled.,1
00000006 00              704 _insCruiseLampEnPrm:	.byte	0
                         705 	.type	_insCruiseLampEnPrm,@object
                         706 	.size	_insCruiseLampEnPrm,1
                         707 	.global	_insLoadShedLampEnPrm..D.3A.5CRenesas_Electronics.5CD1x_RGL.5Crgl_ghs_D1Lx_obj_V1.2E2.2E0.5Cvlib.5Capp.5Cgfx_apps.5Csimple_draw_d1l2.5Ctarget.5Cd1lx_mango_ghs.5Cobj.5Cled.
                         708 _insLoadShedLampEnPrm..D.3A.5CRenesas_Electronics.5CD1x_RGL.5Crgl_ghs_D1Lx_obj_V1.2E2.2E0.5Cvlib.5Capp.5Cgfx_apps.5Csimple_draw_d1l2.5Ctarget.5Cd1lx_mango_ghs.5Cobj.5Cled.:
                         709 	.type	_insLoadShedLampEnPrm..D.3A.5CRenesas_Electronics.5CD1x_RGL.5Crgl_ghs_D1Lx_obj_V1.2E2.2E0.5Cvlib.5Capp.5Cgfx_apps.5Csimple_draw_d1l2.5Ctarget.5Cd1lx_mango_ghs.5Cobj.5Cled.,@object
                         710 	.size	_insLoadShedLampEnPrm..D.3A.5CRenesas_Electronics.5CD1x_RGL.5Crgl_ghs_D1Lx_obj_V1.2E2.2E0.5Cvlib.5Capp.5Cgfx_apps.5Csimple_draw_d1l2.5Ctarget.5Cd1lx_mango_ghs.5Cobj.5Cled.,1
00000007 00              711 _insLoadShedLampEnPrm:	.byte	0

                                                                      Page 15
                                                              C:\Users\YINGAO~1\AppData\Local\Temp\gh_00007j81.si
                         712 	.type	_insLoadShedLampEnPrm,@object
                         713 	.size	_insLoadShedLampEnPrm,1
                         714 	.global	_insEPSLampEnPrm..D.3A.5CRenesas_Electronics.5CD1x_RGL.5Crgl_ghs_D1Lx_obj_V1.2E2.2E0.5Cvlib.5Capp.5Cgfx_apps.5Csimple_draw_d1l2.5Ctarget.5Cd1lx_mango_ghs.5Cobj.5Cled.
                         715 _insEPSLampEnPrm..D.3A.5CRenesas_Electronics.5CD1x_RGL.5Crgl_ghs_D1Lx_obj_V1.2E2.2E0.5Cvlib.5Capp.5Cgfx_apps.5Csimple_draw_d1l2.5Ctarget.5Cd1lx_mango_ghs.5Cobj.5Cled.:
                         716 	.type	_insEPSLampEnPrm..D.3A.5CRenesas_Electronics.5CD1x_RGL.5Crgl_ghs_D1Lx_obj_V1.2E2.2E0.5Cvlib.5Capp.5Cgfx_apps.5Csimple_draw_d1l2.5Ctarget.5Cd1lx_mango_ghs.5Cobj.5Cled.,@object
                         717 	.size	_insEPSLampEnPrm..D.3A.5CRenesas_Electronics.5CD1x_RGL.5Crgl_ghs_D1Lx_obj_V1.2E2.2E0.5Cvlib.5Capp.5Cgfx_apps.5Csimple_draw_d1l2.5Ctarget.5Cd1lx_mango_ghs.5Cobj.5Cled.,1
00000008 00              718 _insEPSLampEnPrm:	.byte	0
                         719 	.type	_insEPSLampEnPrm,@object
                         720 	.size	_insEPSLampEnPrm,1
                         721 	.global	_insSASLampEnPrm..D.3A.5CRenesas_Electronics.5CD1x_RGL.5Crgl_ghs_D1Lx_obj_V1.2E2.2E0.5Cvlib.5Capp.5Cgfx_apps.5Csimple_draw_d1l2.5Ctarget.5Cd1lx_mango_ghs.5Cobj.5Cled.
                         722 _insSASLampEnPrm..D.3A.5CRenesas_Electronics.5CD1x_RGL.5Crgl_ghs_D1Lx_obj_V1.2E2.2E0.5Cvlib.5Capp.5Cgfx_apps.5Csimple_draw_d1l2.5Ctarget.5Cd1lx_mango_ghs.5Cobj.5Cled.:
                         723 	.type	_insSASLampEnPrm..D.3A.5CRenesas_Electronics.5CD1x_RGL.5Crgl_ghs_D1Lx_obj_V1.2E2.2E0.5Cvlib.5Capp.5Cgfx_apps.5Csimple_draw_d1l2.5Ctarget.5Cd1lx_mango_ghs.5Cobj.5Cled.,@object
                         724 	.size	_insSASLampEnPrm..D.3A.5CRenesas_Electronics.5CD1x_RGL.5Crgl_ghs_D1Lx_obj_V1.2E2.2E0.5Cvlib.5Capp.5Cgfx_apps.5Csimple_draw_d1l2.5Ctarget.5Cd1lx_mango_ghs.5Cobj.5Cled.,1
00000009 00              725 _insSASLampEnPrm:	.byte	0
                         726 	.type	_insSASLampEnPrm,@object
                         727 	.size	_insSASLampEnPrm,1
                         728 	.global	_insESCLLampEnPrm..D.3A.5CRenesas_Electronics.5CD1x_RGL.5Crgl_ghs_D1Lx_obj_V1.2E2.2E0.5Cvlib.5Capp.5Cgfx_apps.5Csimple_draw_d1l2.5Ctarget.5Cd1lx_mango_ghs.5Cobj.5Cled.
                         729 _insESCLLampEnPrm..D.3A.5CRenesas_Electronics.5CD1x_RGL.5Crgl_ghs_D1Lx_obj_V1.2E2.2E0.5Cvlib.5Capp.5Cgfx_apps.5Csimple_draw_d1l2.5Ctarget.5Cd1lx_mango_ghs.5Cobj.5Cled.:
                         730 	.type	_insESCLLampEnPrm..D.3A.5CRenesas_Electronics.5CD1x_RGL.5Crgl_ghs_D1Lx_obj_V1.2E2.2E0.5Cvlib.5Capp.5Cgfx_apps.5Csimple_draw_d1l2.5Ctarget.5Cd1lx_mango_ghs.5Cobj.5Cled.,@object
                         731 	.size	_insESCLLampEnPrm..D.3A.5CRenesas_Electronics.5CD1x_RGL.5Crgl_ghs_D1Lx_obj_V1.2E2.2E0.5Cvlib.5Capp.5Cgfx_apps.5Csimple_draw_d1l2.5Ctarget.5Cd1lx_mango_ghs.5Cobj.5Cled.,1
0000000a 00              732 _insESCLLampEnPrm:	.byte	0
                         733 	.type	_insESCLLampEnPrm,@object
                         734 	.size	_insESCLLampEnPrm,1
                         735 	.global	_insDSCLampEnPrm..D.3A.5CRenesas_Electronics.5CD1x_RGL.5Crgl_ghs_D1Lx_obj_V1.2E2.2E0.5Cvlib.5Capp.5Cgfx_apps.5Csimple_draw_d1l2.5Ctarget.5Cd1lx_mango_ghs.5Cobj.5Cled.
                         736 _insDSCLampEnPrm..D.3A.5CRenesas_Electronics.5CD1x_RGL.5Crgl_ghs_D1Lx_obj_V1.2E2.2E0.5Cvlib.5Capp.5Cgfx_apps.5Csimple_draw_d1l2.5Ctarget.5Cd1lx_mango_ghs.5Cobj.5Cled.:
                         737 	.type	_insDSCLampEnPrm..D.3A.5CRenesas_Electronics.5CD1x_RGL.5Crgl_ghs_D1Lx_obj_V1.2E2.2E0.5Cvlib.5Capp.5Cgfx_apps.5Csimple_draw_d1l2.5Ctarget.5Cd1lx_mango_ghs.5Cobj.5Cled.,@object
                         738 	.size	_insDSCLampEnPrm..D.3A.5CRenesas_Electronics.5CD1x_RGL.5Crgl_ghs_D1Lx_obj_V1.2E2.2E0.5Cvlib.5Capp.5Cgfx_apps.5Csimple_draw_d1l2.5Ctarget.5Cd1lx_mango_ghs.5Cobj.5Cled.,1
0000000b 00              739 _insDSCLampEnPrm:	.byte	0
                         740 	.type	_insDSCLampEnPrm,@object
                         741 	.size	_insDSCLampEnPrm,1
                         742 	.global	_insFrFogLampEnPRm..D.3A.5CRenesas_Electronics.5CD1x_RGL.5Crgl_ghs_D1Lx_obj_V1.2E2.2E0.5Cvlib.5Capp.5Cgfx_apps.5Csimple_draw_d1l2.5Ctarget.5Cd1lx_mango_ghs.5Cobj.5Cled.
                         743 _insFrFogLampEnPRm..D.3A.5CRenesas_Electronics.5CD1x_RGL.5Crgl_ghs_D1Lx_obj_V1.2E2.2E0.5Cvlib.5Capp.5Cgfx_apps.5Csimple_draw_d1l2.5Ctarget.5Cd1lx_mango_ghs.5Cobj.5Cled.:
                         744 	.type	_insFrFogLampEnPRm..D.3A.5CRenesas_Electronics.5CD1x_RGL.5Crgl_ghs_D1Lx_obj_V1.2E2.2E0.5Cvlib.5Capp.5Cgfx_apps.5Csimple_draw_d1l2.5Ctarget.5Cd1lx_mango_ghs.5Cobj.5Cled.,@object
                         745 	.size	_insFrFogLampEnPRm..D.3A.5CRenesas_Electronics.5CD1x_RGL.5Crgl_ghs_D1Lx_obj_V1.2E2.2E0.5Cvlib.5Capp.5Cgfx_apps.5Csimple_draw_d1l2.5Ctarget.5Cd1lx_mango_ghs.5Cobj.5Cled.,1
0000000c 00              746 _insFrFogLampEnPRm:	.byte	0
                         747 	.type	_insFrFogLampEnPRm,@object
                         748 	.size	_insFrFogLampEnPRm,1
                         749 	.global	_insNoSmartKeyLampEnPrm..D.3A.5CRenesas_Electronics.5CD1x_RGL.5Crgl_ghs_D1Lx_obj_V1.2E2.2E0.5Cvlib.5Capp.5Cgfx_apps.5Csimple_draw_d1l2.5Ctarget.5Cd1lx_mango_ghs.5Cobj.5Cled.
                         750 _insNoSmartKeyLampEnPrm..D.3A.5CRenesas_Electronics.5CD1x_RGL.5Crgl_ghs_D1Lx_obj_V1.2E2.2E0.5Cvlib.5Capp.5Cgfx_apps.5Csimple_draw_d1l2.5Ctarget.5Cd1lx_mango_ghs.5Cobj.5Cled.:
                         751 	.type	_insNoSmartKeyLampEnPrm..D.3A.5CRenesas_Electronics.5CD1x_RGL.5Crgl_ghs_D1Lx_obj_V1.2E2.2E0.5Cvlib.5Capp.5Cgfx_apps.5Csimple_draw_d1l2.5Ctarget.5Cd1lx_mango_ghs.5Cobj.5Cled.,@object
                         752 	.size	_insNoSmartKeyLampEnPrm..D.3A.5CRenesas_Electronics.5CD1x_RGL.5Crgl_ghs_D1Lx_obj_V1.2E2.2E0.5Cvlib.5Capp.5Cgfx_apps.5Csimple_draw_d1l2.5Ctarget.5Cd1lx_mango_ghs.5Cobj.5Cled.,1
0000000d 00              753 _insNoSmartKeyLampEnPrm:	.byte	0
                         754 	.type	_insNoSmartKeyLampEnPrm,@object
                         755 	.size	_insNoSmartKeyLampEnPrm,1
                         756 	.global	_insSecKeyInvLampEnPrm..D.3A.5CRenesas_Electronics.5CD1x_RGL.5Crgl_ghs_D1Lx_obj_V1.2E2.2E0.5Cvlib.5Capp.5Cgfx_apps.5Csimple_draw_d1l2.5Ctarget.5Cd1lx_mango_ghs.5Cobj.5Cled.
                         757 _insSecKeyInvLampEnPrm..D.3A.5CRenesas_Electronics.5CD1x_RGL.5Crgl_ghs_D1Lx_obj_V1.2E2.2E0.5Cvlib.5Capp.5Cgfx_apps.5Csimple_draw_d1l2.5Ctarget.5Cd1lx_mango_ghs.5Cobj.5Cled.:
                         758 	.type	_insSecKeyInvLampEnPrm..D.3A.5CRenesas_Electronics.5CD1x_RGL.5Crgl_ghs_D1Lx_obj_V1.2E2.2E0.5Cvlib.5Capp.5Cgfx_apps.5Csimple_draw_d1l2.5Ctarget.5Cd1lx_mango_ghs.5Cobj.5Cled.,@object
                         759 	.size	_insSecKeyInvLampEnPrm..D.3A.5CRenesas_Electronics.5CD1x_RGL.5Crgl_ghs_D1Lx_obj_V1.2E2.2E0.5Cvlib.5Capp.5Cgfx_apps.5Csimple_draw_d1l2.5Ctarget.5Cd1lx_mango_ghs.5Cobj.5Cled.,1
0000000e 00              760 _insSecKeyInvLampEnPrm:	.byte	0
                         761 	.type	_insSecKeyInvLampEnPrm,@object
                         762 	.size	_insSecKeyInvLampEnPrm,1
                         763 	.global	_insKeyBatLowLampEnPrm..D.3A.5CRenesas_Electronics.5CD1x_RGL.5Crgl_ghs_D1Lx_obj_V1.2E2.2E0.5Cvlib.5Capp.5Cgfx_apps.5Csimple_draw_d1l2.5Ctarget.5Cd1lx_mango_ghs.5Cobj.5Cled.
                         764 _insKeyBatLowLampEnPrm..D.3A.5CRenesas_Electronics.5CD1x_RGL.5Crgl_ghs_D1Lx_obj_V1.2E2.2E0.5Cvlib.5Capp.5Cgfx_apps.5Csimple_draw_d1l2.5Ctarget.5Cd1lx_mango_ghs.5Cobj.5Cled.:
                         765 	.type	_insKeyBatLowLampEnPrm..D.3A.5CRenesas_Electronics.5CD1x_RGL.5Crgl_ghs_D1Lx_obj_V1.2E2.2E0.5Cvlib.5Capp.5Cgfx_apps.5Csimple_draw_d1l2.5Ctarget.5Cd1lx_mango_ghs.5Cobj.5Cled.,@object
                         766 	.size	_insKeyBatLowLampEnPrm..D.3A.5CRenesas_Electronics.5CD1x_RGL.5Crgl_ghs_D1Lx_obj_V1.2E2.2E0.5Cvlib.5Capp.5Cgfx_apps.5Csimple_draw_d1l2.5Ctarget.5Cd1lx_mango_ghs.5Cobj.5Cled.,1
0000000f 00              767 _insKeyBatLowLampEnPrm:	.byte	0
                         768 	.type	_insKeyBatLowLampEnPrm,@object
                         769 	.size	_insKeyBatLowLampEnPrm,1
                         770 	.global	_insEcoLampEnPrm..D.3A.5CRenesas_Electronics.5CD1x_RGL.5Crgl_ghs_D1Lx_obj_V1.2E2.2E0.5Cvlib.5Capp.5Cgfx_apps.5Csimple_draw_d1l2.5Ctarget.5Cd1lx_mango_ghs.5Cobj.5Cled.
                         771 _insEcoLampEnPrm..D.3A.5CRenesas_Electronics.5CD1x_RGL.5Crgl_ghs_D1Lx_obj_V1.2E2.2E0.5Cvlib.5Capp.5Cgfx_apps.5Csimple_draw_d1l2.5Ctarget.5Cd1lx_mango_ghs.5Cobj.5Cled.:
                         772 	.type	_insEcoLampEnPrm..D.3A.5CRenesas_Electronics.5CD1x_RGL.5Crgl_ghs_D1Lx_obj_V1.2E2.2E0.5Cvlib.5Capp.5Cgfx_apps.5Csimple_draw_d1l2.5Ctarget.5Cd1lx_mango_ghs.5Cobj.5Cled.,@object

                                                                      Page 16
                                                              C:\Users\YINGAO~1\AppData\Local\Temp\gh_00007j81.si
                         773 	.size	_insEcoLampEnPrm..D.3A.5CRenesas_Electronics.5CD1x_RGL.5Crgl_ghs_D1Lx_obj_V1.2E2.2E0.5Cvlib.5Capp.5Cgfx_apps.5Csimple_draw_d1l2.5Ctarget.5Cd1lx_mango_ghs.5Cobj.5Cled.,1
00000010 00              774 _insEcoLampEnPrm:	.byte	0
                         775 	.type	_insEcoLampEnPrm,@object
                         776 	.size	_insEcoLampEnPrm,1
                         777 	.global	_insStopStartSysEnPrm..D.3A.5CRenesas_Electronics.5CD1x_RGL.5Crgl_ghs_D1Lx_obj_V1.2E2.2E0.5Cvlib.5Capp.5Cgfx_apps.5Csimple_draw_d1l2.5Ctarget.5Cd1lx_mango_ghs.5Cobj.5Cled.
                         778 _insStopStartSysEnPrm..D.3A.5CRenesas_Electronics.5CD1x_RGL.5Crgl_ghs_D1Lx_obj_V1.2E2.2E0.5Cvlib.5Capp.5Cgfx_apps.5Csimple_draw_d1l2.5Ctarget.5Cd1lx_mango_ghs.5Cobj.5Cled.:
                         779 	.type	_insStopStartSysEnPrm..D.3A.5CRenesas_Electronics.5CD1x_RGL.5Crgl_ghs_D1Lx_obj_V1.2E2.2E0.5Cvlib.5Capp.5Cgfx_apps.5Csimple_draw_d1l2.5Ctarget.5Cd1lx_mango_ghs.5Cobj.5Cled.,@object
                         780 	.size	_insStopStartSysEnPrm..D.3A.5CRenesas_Electronics.5CD1x_RGL.5Crgl_ghs_D1Lx_obj_V1.2E2.2E0.5Cvlib.5Capp.5Cgfx_apps.5Csimple_draw_d1l2.5Ctarget.5Cd1lx_mango_ghs.5Cobj.5Cled.,1
00000011 00              781 _insStopStartSysEnPrm:	.byte	0
                         782 	.type	_insStopStartSysEnPrm,@object
                         783 	.size	_insStopStartSysEnPrm,1
                         784 	.global	_insTPMSFailEnPrm..D.3A.5CRenesas_Electronics.5CD1x_RGL.5Crgl_ghs_D1Lx_obj_V1.2E2.2E0.5Cvlib.5Capp.5Cgfx_apps.5Csimple_draw_d1l2.5Ctarget.5Cd1lx_mango_ghs.5Cobj.5Cled.
                         785 _insTPMSFailEnPrm..D.3A.5CRenesas_Electronics.5CD1x_RGL.5Crgl_ghs_D1Lx_obj_V1.2E2.2E0.5Cvlib.5Capp.5Cgfx_apps.5Csimple_draw_d1l2.5Ctarget.5Cd1lx_mango_ghs.5Cobj.5Cled.:
                         786 	.type	_insTPMSFailEnPrm..D.3A.5CRenesas_Electronics.5CD1x_RGL.5Crgl_ghs_D1Lx_obj_V1.2E2.2E0.5Cvlib.5Capp.5Cgfx_apps.5Csimple_draw_d1l2.5Ctarget.5Cd1lx_mango_ghs.5Cobj.5Cled.,@object
                         787 	.size	_insTPMSFailEnPrm..D.3A.5CRenesas_Electronics.5CD1x_RGL.5Crgl_ghs_D1Lx_obj_V1.2E2.2E0.5Cvlib.5Capp.5Cgfx_apps.5Csimple_draw_d1l2.5Ctarget.5Cd1lx_mango_ghs.5Cobj.5Cled.,1
00000012 00              788 _insTPMSFailEnPrm:	.byte	0
                         789 	.type	_insTPMSFailEnPrm,@object
                         790 	.size	_insTPMSFailEnPrm,1
                         791 	.global	_insEPBStatusEnPrm..D.3A.5CRenesas_Electronics.5CD1x_RGL.5Crgl_ghs_D1Lx_obj_V1.2E2.2E0.5Cvlib.5Capp.5Cgfx_apps.5Csimple_draw_d1l2.5Ctarget.5Cd1lx_mango_ghs.5Cobj.5Cled.
                         792 _insEPBStatusEnPrm..D.3A.5CRenesas_Electronics.5CD1x_RGL.5Crgl_ghs_D1Lx_obj_V1.2E2.2E0.5Cvlib.5Capp.5Cgfx_apps.5Csimple_draw_d1l2.5Ctarget.5Cd1lx_mango_ghs.5Cobj.5Cled.:
                         793 	.type	_insEPBStatusEnPrm..D.3A.5CRenesas_Electronics.5CD1x_RGL.5Crgl_ghs_D1Lx_obj_V1.2E2.2E0.5Cvlib.5Capp.5Cgfx_apps.5Csimple_draw_d1l2.5Ctarget.5Cd1lx_mango_ghs.5Cobj.5Cled.,@object
                         794 	.size	_insEPBStatusEnPrm..D.3A.5CRenesas_Electronics.5CD1x_RGL.5Crgl_ghs_D1Lx_obj_V1.2E2.2E0.5Cvlib.5Capp.5Cgfx_apps.5Csimple_draw_d1l2.5Ctarget.5Cd1lx_mango_ghs.5Cobj.5Cled.,1
00000013 00              795 _insEPBStatusEnPrm:	.byte	0
                         796 	.type	_insEPBStatusEnPrm,@object
                         797 	.size	_insEPBStatusEnPrm,1
                         798 	.global	_insAutoholdStatusEnPrm..D.3A.5CRenesas_Electronics.5CD1x_RGL.5Crgl_ghs_D1Lx_obj_V1.2E2.2E0.5Cvlib.5Capp.5Cgfx_apps.5Csimple_draw_d1l2.5Ctarget.5Cd1lx_mango_ghs.5Cobj.5Cled.
                         799 _insAutoholdStatusEnPrm..D.3A.5CRenesas_Electronics.5CD1x_RGL.5Crgl_ghs_D1Lx_obj_V1.2E2.2E0.5Cvlib.5Capp.5Cgfx_apps.5Csimple_draw_d1l2.5Ctarget.5Cd1lx_mango_ghs.5Cobj.5Cled.:
                         800 	.type	_insAutoholdStatusEnPrm..D.3A.5CRenesas_Electronics.5CD1x_RGL.5Crgl_ghs_D1Lx_obj_V1.2E2.2E0.5Cvlib.5Capp.5Cgfx_apps.5Csimple_draw_d1l2.5Ctarget.5Cd1lx_mango_ghs.5Cobj.5Cled.,@object
                         801 	.size	_insAutoholdStatusEnPrm..D.3A.5CRenesas_Electronics.5CD1x_RGL.5Crgl_ghs_D1Lx_obj_V1.2E2.2E0.5Cvlib.5Capp.5Cgfx_apps.5Csimple_draw_d1l2.5Ctarget.5Cd1lx_mango_ghs.5Cobj.5Cled.,1
00000014 00              802 _insAutoholdStatusEnPrm:	.byte	0
                         803 	.type	_insAutoholdStatusEnPrm,@object
                         804 	.size	_insAutoholdStatusEnPrm,1
                         805 	.global	_insHDCLampEnPrm..D.3A.5CRenesas_Electronics.5CD1x_RGL.5Crgl_ghs_D1Lx_obj_V1.2E2.2E0.5Cvlib.5Capp.5Cgfx_apps.5Csimple_draw_d1l2.5Ctarget.5Cd1lx_mango_ghs.5Cobj.5Cled.
                         806 _insHDCLampEnPrm..D.3A.5CRenesas_Electronics.5CD1x_RGL.5Crgl_ghs_D1Lx_obj_V1.2E2.2E0.5Cvlib.5Capp.5Cgfx_apps.5Csimple_draw_d1l2.5Ctarget.5Cd1lx_mango_ghs.5Cobj.5Cled.:
                         807 	.type	_insHDCLampEnPrm..D.3A.5CRenesas_Electronics.5CD1x_RGL.5Crgl_ghs_D1Lx_obj_V1.2E2.2E0.5Cvlib.5Capp.5Cgfx_apps.5Csimple_draw_d1l2.5Ctarget.5Cd1lx_mango_ghs.5Cobj.5Cled.,@object
                         808 	.size	_insHDCLampEnPrm..D.3A.5CRenesas_Electronics.5CD1x_RGL.5Crgl_ghs_D1Lx_obj_V1.2E2.2E0.5Cvlib.5Capp.5Cgfx_apps.5Csimple_draw_d1l2.5Ctarget.5Cd1lx_mango_ghs.5Cobj.5Cled.,1
00000015 00              809 _insHDCLampEnPrm:	.byte	0
                         810 	.type	_insHDCLampEnPrm,@object
                         811 	.size	_insHDCLampEnPrm,1
                         812 	.section ".rodata","a"
                         813 	.align	4
                         814 	.global	_led_counter..D.3A.5CRenesas_Electronics.5CD1x_RGL.5Crgl_ghs_D1Lx_obj_V1.2E2.2E0.5Cvlib.5Capp.5Cgfx_apps.5Csimple_draw_d1l2.5Ctarget.5Cd1lx_mango_ghs.5Cobj.5Cled.
                         815 _led_counter..D.3A.5CRenesas_Electronics.5CD1x_RGL.5Crgl_ghs_D1Lx_obj_V1.2E2.2E0.5Cvlib.5Capp.5Cgfx_apps.5Csimple_draw_d1l2.5Ctarget.5Cd1lx_mango_ghs.5Cobj.5Cled.:
                         816 	.type	_led_counter..D.3A.5CRenesas_Electronics.5CD1x_RGL.5Crgl_ghs_D1Lx_obj_V1.2E2.2E0.5Cvlib.5Capp.5Cgfx_apps.5Csimple_draw_d1l2.5Ctarget.5Cd1lx_mango_ghs.5Cobj.5Cled.,@object
                         817 	.size	_led_counter..D.3A.5CRenesas_Electronics.5CD1x_RGL.5Crgl_ghs_D1Lx_obj_V1.2E2.2E0.5Cvlib.5Capp.5Cgfx_apps.5Csimple_draw_d1l2.5Ctarget.5Cd1lx_mango_ghs.5Cobj.5Cled.,5
00000000 00              818 _led_counter:	.space	1
00000001 28140a05        819 	.byte	40,20,10,5
                         820 	.type	_led_counter,@object
                         821 	.size	_led_counter,5
                         822 	.section ".bss","awb"
                         823 	.align	4
                         824 	.global	_led_State..D.3A.5CRenesas_Electronics.5CD1x_RGL.5Crgl_ghs_D1Lx_obj_V1.2E2.2E0.5Cvlib.5Capp.5Cgfx_apps.5Csimple_draw_d1l2.5Ctarget.5Cd1lx_mango_ghs.5Cobj.5Cled.
                         825 _led_State..D.3A.5CRenesas_Electronics.5CD1x_RGL.5Crgl_ghs_D1Lx_obj_V1.2E2.2E0.5Cvlib.5Capp.5Cgfx_apps.5Csimple_draw_d1l2.5Ctarget.5Cd1lx_mango_ghs.5Cobj.5Cled.:
                         826 	.type	_led_State..D.3A.5CRenesas_Electronics.5CD1x_RGL.5Crgl_ghs_D1Lx_obj_V1.2E2.2E0.5Cvlib.5Capp.5Cgfx_apps.5Csimple_draw_d1l2.5Ctarget.5Cd1lx_mango_ghs.5Cobj.5Cled.,@object
                         827 	.size	_led_State..D.3A.5CRenesas_Electronics.5CD1x_RGL.5Crgl_ghs_D1Lx_obj_V1.2E2.2E0.5Cvlib.5Capp.5Cgfx_apps.5Csimple_draw_d1l2.5Ctarget.5Cd1lx_mango_ghs.5Cobj.5Cled.,7
00000000 000000000000    828 _led_State:	.space	7
00000006 00 
                         829 	.type	_led_State,@object
                         830 	.size	_led_State,7
                         831 	.global	_led_out..D.3A.5CRenesas_Electronics.5CD1x_RGL.5Crgl_ghs_D1Lx_obj_V1.2E2.2E0.5Cvlib.5Capp.5Cgfx_apps.5Csimple_draw_d1l2.5Ctarget.5Cd1lx_mango_ghs.5Cobj.5Cled.
                         832 _led_out..D.3A.5CRenesas_Electronics.5CD1x_RGL.5Crgl_ghs_D1Lx_obj_V1.2E2.2E0.5Cvlib.5Capp.5Cgfx_apps.5Csimple_draw_d1l2.5Ctarget.5Cd1lx_mango_ghs.5Cobj.5Cled.:

                                                                      Page 17
                                                              C:\Users\YINGAO~1\AppData\Local\Temp\gh_00007j81.si
                         833 	.type	_led_out..D.3A.5CRenesas_Electronics.5CD1x_RGL.5Crgl_ghs_D1Lx_obj_V1.2E2.2E0.5Cvlib.5Capp.5Cgfx_apps.5Csimple_draw_d1l2.5Ctarget.5Cd1lx_mango_ghs.5Cobj.5Cled.,@object
                         834 	.size	_led_out..D.3A.5CRenesas_Electronics.5CD1x_RGL.5Crgl_ghs_D1Lx_obj_V1.2E2.2E0.5Cvlib.5Capp.5Cgfx_apps.5Csimple_draw_d1l2.5Ctarget.5Cd1lx_mango_ghs.5Cobj.5Cled.,7
00000007 000000000000    835 _led_out:	.space	7
0000000d 00 
                         836 	.type	_led_out,@object
                         837 	.size	_led_out,7
                         838 	.global	_led_Enable..D.3A.5CRenesas_Electronics.5CD1x_RGL.5Crgl_ghs_D1Lx_obj_V1.2E2.2E0.5Cvlib.5Capp.5Cgfx_apps.5Csimple_draw_d1l2.5Ctarget.5Cd1lx_mango_ghs.5Cobj.5Cled.
                         839 _led_Enable..D.3A.5CRenesas_Electronics.5CD1x_RGL.5Crgl_ghs_D1Lx_obj_V1.2E2.2E0.5Cvlib.5Capp.5Cgfx_apps.5Csimple_draw_d1l2.5Ctarget.5Cd1lx_mango_ghs.5Cobj.5Cled.:
                         840 	.type	_led_Enable..D.3A.5CRenesas_Electronics.5CD1x_RGL.5Crgl_ghs_D1Lx_obj_V1.2E2.2E0.5Cvlib.5Capp.5Cgfx_apps.5Csimple_draw_d1l2.5Ctarget.5Cd1lx_mango_ghs.5Cobj.5Cled.,@object
                         841 	.size	_led_Enable..D.3A.5CRenesas_Electronics.5CD1x_RGL.5Crgl_ghs_D1Lx_obj_V1.2E2.2E0.5Cvlib.5Capp.5Cgfx_apps.5Csimple_draw_d1l2.5Ctarget.5Cd1lx_mango_ghs.5Cobj.5Cled.,7
0000000e 000000000000    842 _led_Enable:	.space	7
00000014 00 
                         843 	.type	_led_Enable,@object
                         844 	.size	_led_Enable,7
                         845 	.global	_led_flash..D.3A.5CRenesas_Electronics.5CD1x_RGL.5Crgl_ghs_D1Lx_obj_V1.2E2.2E0.5Cvlib.5Capp.5Cgfx_apps.5Csimple_draw_d1l2.5Ctarget.5Cd1lx_mango_ghs.5Cobj.5Cled.
                         846 _led_flash..D.3A.5CRenesas_Electronics.5CD1x_RGL.5Crgl_ghs_D1Lx_obj_V1.2E2.2E0.5Cvlib.5Capp.5Cgfx_apps.5Csimple_draw_d1l2.5Ctarget.5Cd1lx_mango_ghs.5Cobj.5Cled.:
                         847 	.type	_led_flash..D.3A.5CRenesas_Electronics.5CD1x_RGL.5Crgl_ghs_D1Lx_obj_V1.2E2.2E0.5Cvlib.5Capp.5Cgfx_apps.5Csimple_draw_d1l2.5Ctarget.5Cd1lx_mango_ghs.5Cobj.5Cled.,@object
                         848 	.size	_led_flash..D.3A.5CRenesas_Electronics.5CD1x_RGL.5Crgl_ghs_D1Lx_obj_V1.2E2.2E0.5Cvlib.5Capp.5Cgfx_apps.5Csimple_draw_d1l2.5Ctarget.5Cd1lx_mango_ghs.5Cobj.5Cled.,5
00000015 0000000000      849 _led_flash:	.space	5
                         850 	.type	_led_flash,@object
                         851 	.size	_led_flash,5
                         852 	.section ".rodata","a"
00000005 000000          853 	.space	3
                         854 	.global	_led_dataMask..D.3A.5CRenesas_Electronics.5CD1x_RGL.5Crgl_ghs_D1Lx_obj_V1.2E2.2E0.5Cvlib.5Capp.5Cgfx_apps.5Csimple_draw_d1l2.5Ctarget.5Cd1lx_mango_ghs.5Cobj.5Cled.
                         855 _led_dataMask..D.3A.5CRenesas_Electronics.5CD1x_RGL.5Crgl_ghs_D1Lx_obj_V1.2E2.2E0.5Cvlib.5Capp.5Cgfx_apps.5Csimple_draw_d1l2.5Ctarget.5Cd1lx_mango_ghs.5Cobj.5Cled.:
                         856 	.type	_led_dataMask..D.3A.5CRenesas_Electronics.5CD1x_RGL.5Crgl_ghs_D1Lx_obj_V1.2E2.2E0.5Cvlib.5Capp.5Cgfx_apps.5Csimple_draw_d1l2.5Ctarget.5Cd1lx_mango_ghs.5Cobj.5Cled.,@object
                         857 	.size	_led_dataMask..D.3A.5CRenesas_Electronics.5CD1x_RGL.5Crgl_ghs_D1Lx_obj_V1.2E2.2E0.5Cvlib.5Capp.5Cgfx_apps.5Csimple_draw_d1l2.5Ctarget.5Cd1lx_mango_ghs.5Cobj.5Cled.,16
00000008 00000000        858 _led_dataMask:	.space	4
0000000c ffffffff        859 	.byte	255,255,255,255
00000010 ffffffff        860 	.byte	255,255,255,255
00000014 ffffffff        861 	.byte	255,255,255,255
                         862 	.type	_led_dataMask,@object
                         863 	.size	_led_dataMask,16
                         864 	.section ".bss","awb"
0000001a 0000            865 	.space	2
                         866 	.global	_led_EventData..D.3A.5CRenesas_Electronics.5CD1x_RGL.5Crgl_ghs_D1Lx_obj_V1.2E2.2E0.5Cvlib.5Capp.5Cgfx_apps.5Csimple_draw_d1l2.5Ctarget.5Cd1lx_mango_ghs.5Cobj.5Cled.
                         867 _led_EventData..D.3A.5CRenesas_Electronics.5CD1x_RGL.5Crgl_ghs_D1Lx_obj_V1.2E2.2E0.5Cvlib.5Capp.5Cgfx_apps.5Csimple_draw_d1l2.5Ctarget.5Cd1lx_mango_ghs.5Cobj.5Cled.:
                         868 	.type	_led_EventData..D.3A.5CRenesas_Electronics.5CD1x_RGL.5Crgl_ghs_D1Lx_obj_V1.2E2.2E0.5Cvlib.5Capp.5Cgfx_apps.5Csimple_draw_d1l2.5Ctarget.5Cd1lx_mango_ghs.5Cobj.5Cled.,@object
                         869 	.size	_led_EventData..D.3A.5CRenesas_Electronics.5CD1x_RGL.5Crgl_ghs_D1Lx_obj_V1.2E2.2E0.5Cvlib.5Capp.5Cgfx_apps.5Csimple_draw_d1l2.5Ctarget.5Cd1lx_mango_ghs.5Cobj.5Cled.,16
0000001c 000000000000    870 _led_EventData:	.space	16
00000022 000000000000 
00000028 00000000 
                         871 	.type	_led_EventData,@object
                         872 	.size	_led_EventData,16
                         873 	.global	_led_count..D.3A.5CRenesas_Electronics.5CD1x_RGL.5Crgl_ghs_D1Lx_obj_V1.2E2.2E0.5Cvlib.5Capp.5Cgfx_apps.5Csimple_draw_d1l2.5Ctarget.5Cd1lx_mango_ghs.5Cobj.5Cled.
                         874 _led_count..D.3A.5CRenesas_Electronics.5CD1x_RGL.5Crgl_ghs_D1Lx_obj_V1.2E2.2E0.5Cvlib.5Capp.5Cgfx_apps.5Csimple_draw_d1l2.5Ctarget.5Cd1lx_mango_ghs.5Cobj.5Cled.:
                         875 	.type	_led_count..D.3A.5CRenesas_Electronics.5CD1x_RGL.5Crgl_ghs_D1Lx_obj_V1.2E2.2E0.5Cvlib.5Capp.5Cgfx_apps.5Csimple_draw_d1l2.5Ctarget.5Cd1lx_mango_ghs.5Cobj.5Cled.,@object
                         876 	.size	_led_count..D.3A.5CRenesas_Electronics.5CD1x_RGL.5Crgl_ghs_D1Lx_obj_V1.2E2.2E0.5Cvlib.5Capp.5Cgfx_apps.5Csimple_draw_d1l2.5Ctarget.5Cd1lx_mango_ghs.5Cobj.5Cled.,10
0000002c 000000000000    877 _led_count:	.space	10
00000032 00000000 
                         878 	.type	_led_count,@object
                         879 	.size	_led_count,10
                         880 	.section ".rodata","a"
                         881 	.global	_led_selfcheckMatrix..D.3A.5CRenesas_Electronics.5CD1x_RGL.5Crgl_ghs_D1Lx_obj_V1.2E2.2E0.5Cvlib.5Capp.5Cgfx_apps.5Csimple_draw_d1l2.5Ctarget.5Cd1lx_mango_ghs.5Cobj.5Cled.
                         882 _led_selfcheckMatrix..D.3A.5CRenesas_Electronics.5CD1x_RGL.5Crgl_ghs_D1Lx_obj_V1.2E2.2E0.5Cvlib.5Capp.5Cgfx_apps.5Csimple_draw_d1l2.5Ctarget.5Cd1lx_mango_ghs.5Cobj.5Cled.:
                         883 	.type	_led_selfcheckMatrix..D.3A.5CRenesas_Electronics.5CD1x_RGL.5Crgl_ghs_D1Lx_obj_V1.2E2.2E0.5Cvlib.5Capp.5Cgfx_apps.5Csimple_draw_d1l2.5Ctarget.5Cd1lx_mango_ghs.5Cobj.5Cled.,@object
                         884 	.size	_led_selfcheckMatrix..D.3A.5CRenesas_Electronics.5CD1x_RGL.5Crgl_ghs_D1Lx_obj_V1.2E2.2E0.5Cvlib.5Capp.5Cgfx_apps.5Csimple_draw_d1l2.5Ctarget.5Cd1lx_mango_ghs.5Cobj.5Cled.,700
00000018 fe7f            885 _led_selfcheckMatrix:	.byte	254,127
0000001a 00              886 	.space	1
0000001b 00              887 	.space	1
0000001c 7ffb            888 	.byte	127,251

                                                                      Page 18
                                                              C:\Users\YINGAO~1\AppData\Local\Temp\gh_00007j81.si
0000001e 01              889 	.byte	1
0000001f fe7f            890 	.byte	254,127
00000021 00              891 	.space	1
00000022 00              892 	.space	1
00000023 7ffb            893 	.byte	127,251
00000025 01              894 	.byte	1
00000026 fe7f            895 	.byte	254,127
00000028 00              896 	.space	1
00000029 00              897 	.space	1
0000002a 7ffb            898 	.byte	127,251
0000002c 01              899 	.byte	1
0000002d fe7f            900 	.byte	254,127
0000002f 00              901 	.space	1
00000030 00              902 	.space	1
00000031 7ffb            903 	.byte	127,251
00000033 01              904 	.byte	1
00000034 fe7f            905 	.byte	254,127
00000036 00              906 	.space	1
00000037 00              907 	.space	1
00000038 7ffb            908 	.byte	127,251
0000003a 01              909 	.byte	1
0000003b fe7f            910 	.byte	254,127
0000003d 00              911 	.space	1
0000003e 00              912 	.space	1
0000003f 7ffb            913 	.byte	127,251
00000041 01              914 	.byte	1
00000042 fe7f            915 	.byte	254,127
00000044 00              916 	.space	1
00000045 00              917 	.space	1
00000046 7ffb            918 	.byte	127,251
00000048 01              919 	.byte	1
00000049 fe7f            920 	.byte	254,127
0000004b 00              921 	.space	1
0000004c 00              922 	.space	1
0000004d 7ffb            923 	.byte	127,251
0000004f 01              924 	.byte	1
00000050 fe7f            925 	.byte	254,127
00000052 00              926 	.space	1
00000053 00              927 	.space	1
00000054 7ffb            928 	.byte	127,251
00000056 01              929 	.byte	1
00000057 fe7f            930 	.byte	254,127
00000059 00              931 	.space	1
0000005a 00              932 	.space	1
0000005b 7ffb            933 	.byte	127,251
0000005d 01              934 	.byte	1
0000005e fe7f            935 	.byte	254,127
00000060 00              936 	.space	1
00000061 00              937 	.space	1
00000062 7ffb            938 	.byte	127,251
00000064 01              939 	.byte	1
00000065 fe7f            940 	.byte	254,127
00000067 00              941 	.space	1
00000068 00              942 	.space	1
00000069 7ffb            943 	.byte	127,251
0000006b 01              944 	.byte	1
0000006c fe7f            945 	.byte	254,127
0000006e 00              946 	.space	1
0000006f 00              947 	.space	1
00000070 7ffb            948 	.byte	127,251
00000072 01              949 	.byte	1

                                                                      Page 19
                                                              C:\Users\YINGAO~1\AppData\Local\Temp\gh_00007j81.si
00000073 fe7f            950 	.byte	254,127
00000075 00              951 	.space	1
00000076 00              952 	.space	1
00000077 7ffb            953 	.byte	127,251
00000079 01              954 	.byte	1
0000007a fe7f            955 	.byte	254,127
0000007c 00              956 	.space	1
0000007d 00              957 	.space	1
0000007e 7ffb            958 	.byte	127,251
00000080 01              959 	.byte	1
00000081 fe7f            960 	.byte	254,127
00000083 00              961 	.space	1
00000084 00              962 	.space	1
00000085 7ffb            963 	.byte	127,251
00000087 01              964 	.byte	1
00000088 fe7f            965 	.byte	254,127
0000008a 00              966 	.space	1
0000008b 00              967 	.space	1
0000008c 7ffb            968 	.byte	127,251
0000008e 01              969 	.byte	1
0000008f fe7f            970 	.byte	254,127
00000091 00              971 	.space	1
00000092 00              972 	.space	1
00000093 7ffb            973 	.byte	127,251
00000095 01              974 	.byte	1
00000096 fe7f8001        975 	.byte	254,127,128,1
0000009a 7ffb            976 	.byte	127,251
0000009c 01              977 	.byte	1
0000009d fe7f8001        978 	.byte	254,127,128,1
000000a1 7ffb            979 	.byte	127,251
000000a3 01              980 	.byte	1
000000a4 fe7f8001        981 	.byte	254,127,128,1
000000a8 7ffb            982 	.byte	127,251
000000aa 01              983 	.byte	1
000000ab fe7f8001        984 	.byte	254,127,128,1
000000af 7ffb            985 	.byte	127,251
000000b1 01              986 	.byte	1
000000b2 fe7fc081        987 	.byte	254,127,192,129
000000b6 7ffb            988 	.byte	127,251
000000b8 01              989 	.byte	1
000000b9 fe7fc081        990 	.byte	254,127,192,129
000000bd 7ffb            991 	.byte	127,251
000000bf 01              992 	.byte	1
000000c0 fe7fc081        993 	.byte	254,127,192,129
000000c4 7ffb            994 	.byte	127,251
000000c6 01              995 	.byte	1
000000c7 fe7fc081        996 	.byte	254,127,192,129
000000cb 7ffb            997 	.byte	127,251
000000cd 01              998 	.byte	1
000000ce fe7fe0c1        999 	.byte	254,127,224,193
000000d2 7ffb           1000 	.byte	127,251
000000d4 01             1001 	.byte	1
000000d5 fe7fe0c1       1002 	.byte	254,127,224,193
000000d9 7ffb           1003 	.byte	127,251
000000db 01             1004 	.byte	1
000000dc fe7fe0c1       1005 	.byte	254,127,224,193
000000e0 7ffb           1006 	.byte	127,251
000000e2 01             1007 	.byte	1
000000e3 fe7fe0c1       1008 	.byte	254,127,224,193
000000e7 7ffb           1009 	.byte	127,251
000000e9 01             1010 	.byte	1

                                                                      Page 20
                                                              C:\Users\YINGAO~1\AppData\Local\Temp\gh_00007j81.si
000000ea fe7ff0e1       1011 	.byte	254,127,240,225
000000ee 7ffb           1012 	.byte	127,251
000000f0 01             1013 	.byte	1
000000f1 fe7ff0e1       1014 	.byte	254,127,240,225
000000f5 7ffb           1015 	.byte	127,251
000000f7 01             1016 	.byte	1
000000f8 fe7ff0e1       1017 	.byte	254,127,240,225
000000fc 7ffb           1018 	.byte	127,251
000000fe 01             1019 	.byte	1
000000ff fe7ff0e1       1020 	.byte	254,127,240,225
00000103 7ffb           1021 	.byte	127,251
00000105 01             1022 	.byte	1
00000106 fe7ff8f1       1023 	.byte	254,127,248,241
0000010a 7ffb           1024 	.byte	127,251
0000010c 01             1025 	.byte	1
0000010d fe7ff8f1       1026 	.byte	254,127,248,241
00000111 7ffb           1027 	.byte	127,251
00000113 01             1028 	.byte	1
00000114 fe7ff8f1       1029 	.byte	254,127,248,241
00000118 7ffb           1030 	.byte	127,251
0000011a 01             1031 	.byte	1
0000011b fe7ff8f1       1032 	.byte	254,127,248,241
0000011f 7ffb           1033 	.byte	127,251
00000121 01             1034 	.byte	1
00000122 fe7ffcf9       1035 	.byte	254,127,252,249
00000126 7ffb           1036 	.byte	127,251
00000128 01             1037 	.byte	1
00000129 fe7ffcf9       1038 	.byte	254,127,252,249
0000012d 7ffb           1039 	.byte	127,251
0000012f 01             1040 	.byte	1
00000130 fe7ffcf9       1041 	.byte	254,127,252,249
00000134 7ffb           1042 	.byte	127,251
00000136 01             1043 	.byte	1
00000137 fe7ffcf9       1044 	.byte	254,127,252,249
0000013b 7ffb           1045 	.byte	127,251
0000013d 01             1046 	.byte	1
0000013e fe7ffefd       1047 	.byte	254,127,254,253
00000142 7ffb           1048 	.byte	127,251
00000144 01             1049 	.byte	1
00000145 fe7ffefd       1050 	.byte	254,127,254,253
00000149 7ffb           1051 	.byte	127,251
0000014b 01             1052 	.byte	1
0000014c fe7ffefd       1053 	.byte	254,127,254,253
00000150 7ffb           1054 	.byte	127,251
00000152 01             1055 	.byte	1
00000153 fe7ffefd       1056 	.byte	254,127,254,253
00000157 7ffb           1057 	.byte	127,251
00000159 01             1058 	.byte	1
0000015a fe7fffff       1059 	.byte	254,127,255,255
0000015e 7ffb           1060 	.byte	127,251
00000160 01             1061 	.byte	1
00000161 fe7fffff       1062 	.byte	254,127,255,255
00000165 7ffb           1063 	.byte	127,251
00000167 01             1064 	.byte	1
00000168 fe7fffff       1065 	.byte	254,127,255,255
0000016c 7ffb           1066 	.byte	127,251
0000016e 01             1067 	.byte	1
0000016f febeffff       1068 	.byte	254,190,255,255
00000173 bffb           1069 	.byte	191,251
00000175 01             1070 	.byte	1
00000176 ffbeffff       1071 	.byte	255,190,255,255

                                                                      Page 21
                                                              C:\Users\YINGAO~1\AppData\Local\Temp\gh_00007j81.si
0000017a bffd           1072 	.byte	191,253
0000017c 01             1073 	.byte	1
0000017d ffbeffff       1074 	.byte	255,190,255,255
00000181 bffd           1075 	.byte	191,253
00000183 01             1076 	.byte	1
00000184 ffbeffff       1077 	.byte	255,190,255,255
00000188 bffd           1078 	.byte	191,253
0000018a 01             1079 	.byte	1
0000018b ffbeffff       1080 	.byte	255,190,255,255
0000018f bffd           1081 	.byte	191,253
00000191 01             1082 	.byte	1
00000192 ffbeffff       1083 	.byte	255,190,255,255
00000196 bffd           1084 	.byte	191,253
00000198 01             1085 	.byte	1
00000199 ffbeffff       1086 	.byte	255,190,255,255
0000019d bffd           1087 	.byte	191,253
0000019f 01             1088 	.byte	1
000001a0 ffbeffff       1089 	.byte	255,190,255,255
000001a4 bffd           1090 	.byte	191,253
000001a6 01             1091 	.byte	1
000001a7 ffbeffff       1092 	.byte	255,190,255,255
000001ab bffd           1093 	.byte	191,253
000001ad 01             1094 	.byte	1
000001ae ffbeffff       1095 	.byte	255,190,255,255
000001b2 bffd           1096 	.byte	191,253
000001b4 01             1097 	.byte	1
000001b5 ffbeffff       1098 	.byte	255,190,255,255
000001b9 bffd           1099 	.byte	191,253
000001bb 01             1100 	.byte	1
000001bc ffbefefd       1101 	.byte	255,190,254,253
000001c0 bffd           1102 	.byte	191,253
000001c2 01             1103 	.byte	1
000001c3 ffbefefd       1104 	.byte	255,190,254,253
000001c7 bffd           1105 	.byte	191,253
000001c9 01             1106 	.byte	1
000001ca ffbefefd       1107 	.byte	255,190,254,253
000001ce bffd           1108 	.byte	191,253
000001d0 01             1109 	.byte	1
000001d1 ffbefefd       1110 	.byte	255,190,254,253
000001d5 bffd           1111 	.byte	191,253
000001d7 01             1112 	.byte	1
000001d8 ffbefcf9       1113 	.byte	255,190,252,249
000001dc bffd           1114 	.byte	191,253
000001de 01             1115 	.byte	1
000001df ffbefcf9       1116 	.byte	255,190,252,249
000001e3 bffd           1117 	.byte	191,253
000001e5 01             1118 	.byte	1
000001e6 ffbefcf9       1119 	.byte	255,190,252,249
000001ea bffd           1120 	.byte	191,253
000001ec 01             1121 	.byte	1
000001ed ffbefcf9       1122 	.byte	255,190,252,249
000001f1 bffd           1123 	.byte	191,253
000001f3 01             1124 	.byte	1
000001f4 ffbef8f1       1125 	.byte	255,190,248,241
000001f8 bffd           1126 	.byte	191,253
000001fa 01             1127 	.byte	1
000001fb ffbef8f1       1128 	.byte	255,190,248,241
000001ff bffd           1129 	.byte	191,253
00000201 01             1130 	.byte	1
00000202 ffbef8f1       1131 	.byte	255,190,248,241
00000206 bffd           1132 	.byte	191,253

                                                                      Page 22
                                                              C:\Users\YINGAO~1\AppData\Local\Temp\gh_00007j81.si
00000208 01             1133 	.byte	1
00000209 ffbef8f1       1134 	.byte	255,190,248,241
0000020d bffd           1135 	.byte	191,253
0000020f 01             1136 	.byte	1
00000210 ffbef0e1       1137 	.byte	255,190,240,225
00000214 bffd           1138 	.byte	191,253
00000216 01             1139 	.byte	1
00000217 ffbef0e1       1140 	.byte	255,190,240,225
0000021b bffd           1141 	.byte	191,253
0000021d 01             1142 	.byte	1
0000021e ffbef0e1       1143 	.byte	255,190,240,225
00000222 bffd           1144 	.byte	191,253
00000224 01             1145 	.byte	1
00000225 ffbef0e1       1146 	.byte	255,190,240,225
00000229 bffd           1147 	.byte	191,253
0000022b 01             1148 	.byte	1
0000022c ffbee0c1       1149 	.byte	255,190,224,193
00000230 bffd           1150 	.byte	191,253
00000232 01             1151 	.byte	1
00000233 ffbee0c1       1152 	.byte	255,190,224,193
00000237 bffd           1153 	.byte	191,253
00000239 01             1154 	.byte	1
0000023a ffbee0c1       1155 	.byte	255,190,224,193
0000023e bffd           1156 	.byte	191,253
00000240 01             1157 	.byte	1
00000241 ffbee0c1       1158 	.byte	255,190,224,193
00000245 bffd           1159 	.byte	191,253
00000247 01             1160 	.byte	1
00000248 ffbec081       1161 	.byte	255,190,192,129
0000024c bffd           1162 	.byte	191,253
0000024e 01             1163 	.byte	1
0000024f ffbec081       1164 	.byte	255,190,192,129
00000253 bffd           1165 	.byte	191,253
00000255 01             1166 	.byte	1
00000256 ffbec081       1167 	.byte	255,190,192,129
0000025a bffd           1168 	.byte	191,253
0000025c 01             1169 	.byte	1
0000025d ffbec081       1170 	.byte	255,190,192,129
00000261 bffd           1171 	.byte	191,253
00000263 01             1172 	.byte	1
00000264 ffbe8001       1173 	.byte	255,190,128,1
00000268 bffd           1174 	.byte	191,253
0000026a 01             1175 	.byte	1
0000026b ffbe8001       1176 	.byte	255,190,128,1
0000026f bffd           1177 	.byte	191,253
00000271 01             1178 	.byte	1
00000272 ffbe8001       1179 	.byte	255,190,128,1
00000276 bffd           1180 	.byte	191,253
00000278 01             1181 	.byte	1
00000279 ffbe8001       1182 	.byte	255,190,128,1
0000027d bffd           1183 	.byte	191,253
0000027f 01             1184 	.byte	1
00000280 ffbe           1185 	.byte	255,190
00000282 00             1186 	.space	1
00000283 00             1187 	.space	1
00000284 bffd           1188 	.byte	191,253
00000286 01             1189 	.byte	1
00000287 ffbe           1190 	.byte	255,190
00000289 00             1191 	.space	1
0000028a 00             1192 	.space	1
0000028b bffd           1193 	.byte	191,253

                                                                      Page 23
                                                              C:\Users\YINGAO~1\AppData\Local\Temp\gh_00007j81.si
0000028d 01             1194 	.byte	1
0000028e ffbe           1195 	.byte	255,190
00000290 00             1196 	.space	1
00000291 00             1197 	.space	1
00000292 bffd           1198 	.byte	191,253
00000294 01             1199 	.byte	1
00000295 ffbe           1200 	.byte	255,190
00000297 00             1201 	.space	1
00000298 00             1202 	.space	1
00000299 bffd           1203 	.byte	191,253
0000029b 01             1204 	.byte	1
0000029c ffbe           1205 	.byte	255,190
0000029e 00             1206 	.space	1
0000029f 00             1207 	.space	1
000002a0 bffd           1208 	.byte	191,253
000002a2 01             1209 	.byte	1
000002a3 ffbe           1210 	.byte	255,190
000002a5 00             1211 	.space	1
000002a6 00             1212 	.space	1
000002a7 bffd           1213 	.byte	191,253
000002a9 01             1214 	.byte	1
000002aa ffbe           1215 	.byte	255,190
000002ac 00             1216 	.space	1
000002ad 00             1217 	.space	1
000002ae bffd           1218 	.byte	191,253
000002b0 01             1219 	.byte	1
000002b1 ffbe           1220 	.byte	255,190
000002b3 00             1221 	.space	1
000002b4 00             1222 	.space	1
000002b5 bffd           1223 	.byte	191,253
000002b7 01             1224 	.byte	1
000002b8 ffbe           1225 	.byte	255,190
000002ba 00             1226 	.space	1
000002bb 00             1227 	.space	1
000002bc bffd           1228 	.byte	191,253
000002be 01             1229 	.byte	1
000002bf ffbe           1230 	.byte	255,190
000002c1 00             1231 	.space	1
000002c2 00             1232 	.space	1
000002c3 bffd           1233 	.byte	191,253
000002c5 01             1234 	.byte	1
000002c6 ffbe           1235 	.byte	255,190
000002c8 00             1236 	.space	1
000002c9 00             1237 	.space	1
000002ca bffd           1238 	.byte	191,253
000002cc 01             1239 	.byte	1
000002cd ffbe           1240 	.byte	255,190
000002cf 00             1241 	.space	1
000002d0 00             1242 	.space	1
000002d1 bffd           1243 	.byte	191,253
000002d3 01             1244 	.byte	1
                        1245 	.type	_led_selfcheckMatrix,@object
                        1246 	.size	_led_selfcheckMatrix,700
                        1247 	.global	_led_Matrix..D.3A.5CRenesas_Electronics.5CD1x_RGL.5Crgl_ghs_D1Lx_obj_V1.2E2.2E0.5Cvlib.5Capp.5Cgfx_apps.5Csimple_draw_d1l2.5Ctarget.5Cd1lx_mango_ghs.5Cobj.5Cled.
                        1248 _led_Matrix..D.3A.5CRenesas_Electronics.5CD1x_RGL.5Crgl_ghs_D1Lx_obj_V1.2E2.2E0.5Cvlib.5Capp.5Cgfx_apps.5Csimple_draw_d1l2.5Ctarget.5Cd1lx_mango_ghs.5Cobj.5Cled.:
                        1249 	.type	_led_Matrix..D.3A.5CRenesas_Electronics.5CD1x_RGL.5Crgl_ghs_D1Lx_obj_V1.2E2.2E0.5Cvlib.5Capp.5Cgfx_apps.5Csimple_draw_d1l2.5Ctarget.5Cd1lx_mango_ghs.5Cobj.5Cled.,@object
                        1250 	.size	_led_Matrix..D.3A.5CRenesas_Electronics.5CD1x_RGL.5Crgl_ghs_D1Lx_obj_V1.2E2.2E0.5Cvlib.5Capp.5Cgfx_apps.5Csimple_draw_d1l2.5Ctarget.5Cd1lx_mango_ghs.5Cobj.5Cled.,1088
000002d4 00000000       1251 _led_Matrix:	.space	4
000002d8 00000000       1252 	.space	4
000002dc 03             1253 	.byte	3
000002dd 000000         1254 	.space	3

                                                                      Page 24
                                                              C:\Users\YINGAO~1\AppData\Local\Temp\gh_00007j81.si
000002e0 00000000       1255 	.space	4
000002e4 03000000       1256 	.byte	3,0,0,0
000002e8 05000000       1257 	.byte	5,0,0,0
000002ec 00             1258 	.space	1
000002ed 000000         1259 	.space	3
000002f0 00000000       1260 	.space	4
000002f4 03000000       1261 	.byte	3,0,0,0
000002f8 05000000       1262 	.byte	5,0,0,0
000002fc 00             1263 	.space	1
000002fd 000000         1264 	.space	3
00000300 00000000       1265 	.space	4
00000304 03000000       1266 	.byte	3,0,0,0
00000308 2c000000       1267 	.byte	44,0,0,0
0000030c 00             1268 	.space	1
0000030d 000000         1269 	.space	3
00000310 00000000       1270 	.space	4
00000314 06000000       1271 	.byte	6,0,0,0
00000318 2c000000       1272 	.byte	44,0,0,0
0000031c 00             1273 	.space	1
0000031d 000000         1274 	.space	3
00000320 00000000       1275 	.space	4
00000324 02000000       1276 	.byte	2,0,0,0
00000328 2c000000       1277 	.byte	44,0,0,0
0000032c 00             1278 	.space	1
0000032d 000000         1279 	.space	3
00000330 00000000       1280 	.space	4
00000334 01000000       1281 	.byte	1,0,0,0
00000338 22000000       1282 	.byte	34,0,0,0
0000033c 00             1283 	.space	1
0000033d 000000         1284 	.space	3
00000340 00000000       1285 	.space	4
00000344 02000000       1286 	.byte	2,0,0,0
00000348 22000000       1287 	.byte	34,0,0,0
0000034c 04             1288 	.byte	4
0000034d 000000         1289 	.space	3
00000350 dc050000       1290 	.byte	220,5,0,0
00000354 01000000       1291 	.byte	1,0,0,0
00000358 23000000       1292 	.byte	35,0,0,0
0000035c 00             1293 	.space	1
0000035d 000000         1294 	.space	3
00000360 00000000       1295 	.space	4
00000364 05000000       1296 	.byte	5,0,0,0
00000368 03000000       1297 	.byte	3,0,0,0
0000036c 02             1298 	.byte	2
0000036d 000000         1299 	.space	3
00000370 30750000       1300 	.byte	48,117,0,0
00000374 04000000       1301 	.byte	4,0,0,0
00000378 03000000       1302 	.byte	3,0,0,0
0000037c 00             1303 	.space	1
0000037d 000000         1304 	.space	3
00000380 00000000       1305 	.space	4
00000384 02000000       1306 	.byte	2,0,0,0
00000388 03000000       1307 	.byte	3,0,0,0
0000038c 00             1308 	.space	1
0000038d 000000         1309 	.space	3
00000390 00000000       1310 	.space	4
00000394 01000000       1311 	.byte	1,0,0,0
00000398 21000000       1312 	.byte	33,0,0,0
0000039c 00             1313 	.space	1
0000039d 000000         1314 	.space	3
000003a0 00000000       1315 	.space	4

                                                                      Page 25
                                                              C:\Users\YINGAO~1\AppData\Local\Temp\gh_00007j81.si
000003a4 02000000       1316 	.byte	2,0,0,0
000003a8 21000000       1317 	.byte	33,0,0,0
000003ac 02             1318 	.byte	2
000003ad 000000         1319 	.space	3
000003b0 ffff0000       1320 	.byte	255,255,0,0
000003b4 01000000       1321 	.byte	1,0,0,0
000003b8 0f000000       1322 	.byte	15,0,0,0
000003bc 00             1323 	.space	1
000003bd 000000         1324 	.space	3
000003c0 00000000       1325 	.space	4
000003c4 01000000       1326 	.byte	1,0,0,0
000003c8 10000000       1327 	.byte	16,0,0,0
000003cc 00             1328 	.space	1
000003cd 000000         1329 	.space	3
000003d0 00000000       1330 	.space	4
000003d4 02000000       1331 	.byte	2,0,0,0
000003d8 10000000       1332 	.byte	16,0,0,0
000003dc 02             1333 	.byte	2
000003dd 000000         1334 	.space	3
000003e0 ffff0000       1335 	.byte	255,255,0,0
000003e4 01000000       1336 	.byte	1,0,0,0
000003e8 24000000       1337 	.byte	36,0,0,0
000003ec 00             1338 	.space	1
000003ed 000000         1339 	.space	3
000003f0 00000000       1340 	.space	4
000003f4 01000000       1341 	.byte	1,0,0,0
000003f8 2d000000       1342 	.byte	45,0,0,0
000003fc 00             1343 	.space	1
000003fd 000000         1344 	.space	3
00000400 00000000       1345 	.space	4
00000404 05000000       1346 	.byte	5,0,0,0
00000408 2d000000       1347 	.byte	45,0,0,0
0000040c 02             1348 	.byte	2
0000040d 000000         1349 	.space	3
00000410 ffff0000       1350 	.byte	255,255,0,0
00000414 04000000       1351 	.byte	4,0,0,0
00000418 2d000000       1352 	.byte	45,0,0,0
0000041c 03             1353 	.byte	3
0000041d 000000         1354 	.space	3
00000420 ffff0000       1355 	.byte	255,255,0,0
00000424 03000000       1356 	.byte	3,0,0,0
00000428 2d000000       1357 	.byte	45,0,0,0
0000042c 04             1358 	.byte	4
0000042d 000000         1359 	.space	3
00000430 ffff0000       1360 	.byte	255,255,0,0
00000434 01000000       1361 	.byte	1,0,0,0
00000438 2e000000       1362 	.byte	46,0,0,0
0000043c 00             1363 	.space	1
0000043d 000000         1364 	.space	3
00000440 00000000       1365 	.space	4
00000444 06000000       1366 	.byte	6,0,0,0
00000448 2a000000       1367 	.byte	42,0,0,0
0000044c 02             1368 	.byte	2
0000044d 000000         1369 	.space	3
00000450 ffff0000       1370 	.byte	255,255,0,0
00000454 04000000       1371 	.byte	4,0,0,0
00000458 2a000000       1372 	.byte	42,0,0,0
0000045c 00             1373 	.space	1
0000045d 000000         1374 	.space	3
00000460 00000000       1375 	.space	4
00000464 02000000       1376 	.byte	2,0,0,0

                                                                      Page 26
                                                              C:\Users\YINGAO~1\AppData\Local\Temp\gh_00007j81.si
00000468 2a000000       1377 	.byte	42,0,0,0
0000046c 00             1378 	.space	1
0000046d 000000         1379 	.space	3
00000470 00000000       1380 	.space	4
00000474 02000000       1381 	.byte	2,0,0,0
00000478 2b000000       1382 	.byte	43,0,0,0
0000047c 00             1383 	.space	1
0000047d 000000         1384 	.space	3
00000480 00000000       1385 	.space	4
00000484 04000000       1386 	.byte	4,0,0,0
00000488 2b000000       1387 	.byte	43,0,0,0
0000048c 02             1388 	.byte	2
0000048d 000000         1389 	.space	3
00000490 ffff0000       1390 	.byte	255,255,0,0
00000494 01000000       1391 	.byte	1,0,0,0
00000498 26000000       1392 	.byte	38,0,0,0
0000049c 00             1393 	.space	1
0000049d 000000         1394 	.space	3
000004a0 00000000       1395 	.space	4
000004a4 02000000       1396 	.byte	2,0,0,0
000004a8 0a000000       1397 	.byte	10,0,0,0
000004ac 02             1398 	.byte	2
000004ad 000000         1399 	.space	3
000004b0 ffff0000       1400 	.byte	255,255,0,0
000004b4 01000000       1401 	.byte	1,0,0,0
000004b8 0a000000       1402 	.byte	10,0,0,0
000004bc 00             1403 	.space	1
000004bd 000000         1404 	.space	3
000004c0 00000000       1405 	.space	4
000004c4 01000000       1406 	.byte	1,0,0,0
000004c8 0b000000       1407 	.byte	11,0,0,0
000004cc 00             1408 	.space	1
000004cd 000000         1409 	.space	3
000004d0 00000000       1410 	.space	4
000004d4 00000000       1411 	.space	4
000004d8 00000000       1412 	.space	4
000004dc 03             1413 	.byte	3
000004dd 000000         1414 	.space	3
000004e0 ffff0000       1415 	.byte	255,255,0,0
000004e4 01000000       1416 	.byte	1,0,0,0
000004e8 29000000       1417 	.byte	41,0,0,0
000004ec 00             1418 	.space	1
000004ed 000000         1419 	.space	3
000004f0 00000000       1420 	.space	4
000004f4 03000000       1421 	.byte	3,0,0,0
000004f8 29000000       1422 	.byte	41,0,0,0
000004fc 02             1423 	.byte	2
000004fd 000000         1424 	.space	3
00000500 ffff0000       1425 	.byte	255,255,0,0
00000504 02000000       1426 	.byte	2,0,0,0
00000508 02000000       1427 	.byte	2,0,0,0
0000050c 00             1428 	.space	1
0000050d 000000         1429 	.space	3
00000510 00000000       1430 	.space	4
00000514 01000000       1431 	.byte	1,0,0,0
00000518 25000000       1432 	.byte	37,0,0,0
0000051c 00             1433 	.space	1
0000051d 000000         1434 	.space	3
00000520 00000000       1435 	.space	4
00000524 01000000       1436 	.byte	1,0,0,0
00000528 25000000       1437 	.byte	37,0,0,0

                                                                      Page 27
                                                              C:\Users\YINGAO~1\AppData\Local\Temp\gh_00007j81.si
0000052c 00             1438 	.space	1
0000052d 000000         1439 	.space	3
00000530 00000000       1440 	.space	4
00000534 07000000       1441 	.byte	7,0,0,0
00000538 2f000000       1442 	.byte	47,0,0,0
0000053c 00             1443 	.space	1
0000053d 000000         1444 	.space	3
00000540 00000000       1445 	.space	4
00000544 00000000       1446 	.space	4
00000548 00000000       1447 	.space	4
0000054c 03             1448 	.byte	3
0000054d 000000         1449 	.space	3
00000550 ffff0000       1450 	.byte	255,255,0,0
00000554 00000000       1451 	.space	4
00000558 00000000       1452 	.space	4
0000055c 00             1453 	.space	1
0000055d 000000         1454 	.space	3
00000560 00000000       1455 	.space	4
00000564 00000000       1456 	.space	4
00000568 00000000       1457 	.space	4
0000056c 00             1458 	.space	1
0000056d 000000         1459 	.space	3
00000570 00000000       1460 	.space	4
00000574 01000000       1461 	.byte	1,0,0,0
00000578 0c000000       1462 	.byte	12,0,0,0
0000057c 00             1463 	.space	1
0000057d 000000         1464 	.space	3
00000580 00000000       1465 	.space	4
00000584 03000000       1466 	.byte	3,0,0,0
00000588 30000000       1467 	.byte	48,0,0,0
0000058c 00             1468 	.space	1
0000058d 000000         1469 	.space	3
00000590 00000000       1470 	.space	4
00000594 04000000       1471 	.byte	4,0,0,0
00000598 0e000000       1472 	.byte	14,0,0,0
0000059c 00             1473 	.space	1
0000059d 000000         1474 	.space	3
000005a0 00000000       1475 	.space	4
000005a4 02000000       1476 	.byte	2,0,0,0
000005a8 0e000000       1477 	.byte	14,0,0,0
000005ac 00             1478 	.space	1
000005ad 000000         1479 	.space	3
000005b0 00000000       1480 	.space	4
000005b4 03000000       1481 	.byte	3,0,0,0
000005b8 08000000       1482 	.byte	8,0,0,0
000005bc 00             1483 	.space	1
000005bd 000000         1484 	.space	3
000005c0 00000000       1485 	.space	4
000005c4 01000000       1486 	.byte	1,0,0,0
000005c8 08000000       1487 	.byte	8,0,0,0
000005cc 04             1488 	.byte	4
000005cd 000000         1489 	.space	3
000005d0 ffff0000       1490 	.byte	255,255,0,0
000005d4 05000000       1491 	.byte	5,0,0,0
000005d8 08000000       1492 	.byte	8,0,0,0
000005dc 00             1493 	.space	1
000005dd 000000         1494 	.space	3
000005e0 00000000       1495 	.space	4
000005e4 05000000       1496 	.byte	5,0,0,0
000005e8 06000000       1497 	.byte	6,0,0,0
000005ec 02             1498 	.byte	2

                                                                      Page 28
                                                              C:\Users\YINGAO~1\AppData\Local\Temp\gh_00007j81.si
000005ed 000000         1499 	.space	3
000005f0 ffff0000       1500 	.byte	255,255,0,0
000005f4 01000000       1501 	.byte	1,0,0,0
000005f8 06000000       1502 	.byte	6,0,0,0
000005fc 00             1503 	.space	1
000005fd 000000         1504 	.space	3
00000600 00000000       1505 	.space	4
00000604 01000000       1506 	.byte	1,0,0,0
00000608 04000000       1507 	.byte	4,0,0,0
0000060c 00             1508 	.space	1
0000060d 000000         1509 	.space	3
00000610 00000000       1510 	.space	4
00000614 02000000       1511 	.byte	2,0,0,0
00000618 04000000       1512 	.byte	4,0,0,0
0000061c 02             1513 	.byte	2
0000061d 000000         1514 	.space	3
00000620 ffff0000       1515 	.byte	255,255,0,0
00000624 03000000       1516 	.byte	3,0,0,0
00000628 04000000       1517 	.byte	4,0,0,0
0000062c 02             1518 	.byte	2
0000062d 000000         1519 	.space	3
00000630 ffff0000       1520 	.byte	255,255,0,0
00000634 09000000       1521 	.byte	9,0,0,0
00000638 07000000       1522 	.byte	7,0,0,0
0000063c 02             1523 	.byte	2
0000063d 000000         1524 	.space	3
00000640 905f0100       1525 	.byte	144,95,1,0
00000644 08000000       1526 	.byte	8,0,0,0
00000648 07000000       1527 	.byte	7,0,0,0
0000064c 00             1528 	.space	1
0000064d 000000         1529 	.space	3
00000650 00000000       1530 	.space	4
00000654 03000000       1531 	.byte	3,0,0,0
00000658 00000000       1532 	.space	4
0000065c 00             1533 	.space	1
0000065d 000000         1534 	.space	3
00000660 00000000       1535 	.space	4
00000664 02000000       1536 	.byte	2,0,0,0
00000668 00000000       1537 	.space	4
0000066c 00             1538 	.space	1
0000066d 000000         1539 	.space	3
00000670 00000000       1540 	.space	4
00000674 01000000       1541 	.byte	1,0,0,0
00000678 00000000       1542 	.space	4
0000067c 00             1543 	.space	1
0000067d 000000         1544 	.space	3
00000680 00000000       1545 	.space	4
00000684 01000000       1546 	.byte	1,0,0,0
00000688 09000000       1547 	.byte	9,0,0,0
0000068c 04             1548 	.byte	4
0000068d 000000         1549 	.space	3
00000690 ffff0000       1550 	.byte	255,255,0,0
00000694 02000000       1551 	.byte	2,0,0,0
00000698 09000000       1552 	.byte	9,0,0,0
0000069c 00             1553 	.space	1
0000069d 000000         1554 	.space	3
000006a0 00000000       1555 	.space	4
000006a4 01000000       1556 	.byte	1,0,0,0
000006a8 01000000       1557 	.byte	1,0,0,0
000006ac 00             1558 	.space	1
000006ad 000000         1559 	.space	3

                                                                      Page 29
                                                              C:\Users\YINGAO~1\AppData\Local\Temp\gh_00007j81.si
000006b0 00000000       1560 	.space	4
000006b4 01000000       1561 	.byte	1,0,0,0
000006b8 0d000000       1562 	.byte	13,0,0,0
000006bc 04             1563 	.byte	4
000006bd 000000         1564 	.space	3
000006c0 ffff0000       1565 	.byte	255,255,0,0
000006c4 02000000       1566 	.byte	2,0,0,0
000006c8 0d000000       1567 	.byte	13,0,0,0
000006cc 00             1568 	.space	1
000006cd 000000         1569 	.space	3
000006d0 00000000       1570 	.space	4
000006d4 02000000       1571 	.byte	2,0,0,0
000006d8 27000000       1572 	.byte	39,0,0,0
000006dc 00             1573 	.space	1
000006dd 000000         1574 	.space	3
000006e0 00000000       1575 	.space	4
000006e4 01000000       1576 	.byte	1,0,0,0
000006e8 27000000       1577 	.byte	39,0,0,0
000006ec 04             1578 	.byte	4
000006ed 000000         1579 	.space	3
000006f0 ffff0000       1580 	.byte	255,255,0,0
000006f4 02000000       1581 	.byte	2,0,0,0
000006f8 28000000       1582 	.byte	40,0,0,0
000006fc 00             1583 	.space	1
000006fd 000000         1584 	.space	3
00000700 00000000       1585 	.space	4
00000704 01000000       1586 	.byte	1,0,0,0
00000708 28000000       1587 	.byte	40,0,0,0
0000070c 04             1588 	.byte	4
0000070d 000000         1589 	.space	3
00000710 ffff0000       1590 	.byte	255,255,0,0
                        1591 	.type	_led_Matrix,@object
                        1592 	.size	_led_Matrix,1088
                        1593 	.section ".bss","awb"
00000036 0000           1594 	.space	2
                        1595 	.global	_led_data..D.3A.5CRenesas_Electronics.5CD1x_RGL.5Crgl_ghs_D1Lx_obj_V1.2E2.2E0.5Cvlib.5Capp.5Cgfx_apps.5Csimple_draw_d1l2.5Ctarget.5Cd1lx_mango_ghs.5Cobj.5Cled.
                        1596 _led_data..D.3A.5CRenesas_Electronics.5CD1x_RGL.5Crgl_ghs_D1Lx_obj_V1.2E2.2E0.5Cvlib.5Capp.5Cgfx_apps.5Csimple_draw_d1l2.5Ctarget.5Cd1lx_mango_ghs.5Cobj.5Cled.:
                        1597 	.type	_led_data..D.3A.5CRenesas_Electronics.5CD1x_RGL.5Crgl_ghs_D1Lx_obj_V1.2E2.2E0.5Cvlib.5Capp.5Cgfx_apps.5Csimple_draw_d1l2.5Ctarget.5Cd1lx_mango_ghs.5Cobj.5Cled.,@object
                        1598 	.size	_led_data..D.3A.5CRenesas_Electronics.5CD1x_RGL.5Crgl_ghs_D1Lx_obj_V1.2E2.2E0.5Cvlib.5Capp.5Cgfx_apps.5Csimple_draw_d1l2.5Ctarget.5Cd1lx_mango_ghs.5Cobj.5Cled.,800
00000038 000000000000   1599 _led_data:	.space	800
0000003e 000000000000 
00000044 000000000000 
0000004a 000000000000 
00000050 000000000000 
00000056 000000000000 
0000005c 000000000000 
00000062 000000000000 
00000068 000000000000 
0000006e 000000000000 
00000074 000000000000 
0000007a 000000000000 
00000080 000000000000 
00000086 000000000000 
0000008c 000000000000 
00000092 000000000000 
00000098 000000000000 
0000009e 000000000000 
000000a4 000000000000 
000000aa 000000000000 
000000b0 000000000000 
000000b6 000000000000 

                                                                      Page 30
                                                              C:\Users\YINGAO~1\AppData\Local\Temp\gh_00007j81.si
000000bc 000000000000 
000000c2 000000000000 
000000c8 000000000000 
000000ce 000000000000 
000000d4 000000000000 
000000da 000000000000 
000000e0 000000000000 
000000e6 000000000000 
000000ec 000000000000 
000000f2 000000000000 
000000f8 000000000000 
000000fe 000000000000 
00000104 000000000000 
0000010a 000000000000 
00000110 000000000000 
00000116 000000000000 
0000011c 000000000000 
00000122 000000000000 
00000128 000000000000 
0000012e 000000000000 
00000134 00000000 
                        1600 	.type	_led_data,@object
                        1601 	.size	_led_data,800
                        1602 	.data
                        1603 	.text
                        1604 
                        1605 
                        1606 --190: /**************************************************
                        1607 --191: *Function :LED_Process_50ms
                        1608 --192: *Description: LED Module Process
                        1609 --193: *Parameters:none
                        1610 --194: *Returns: none
                        1611 --195: **create&Verlog:
                        1612 --196: *Author Name liuyingying  Date:2016-11-25    Ver:01
                        1613 --197: ***************************************************/
                        1614 --198: void LED_Process_50ms(void)
                        1615 	.align	2
                        1616 	.align	2
                        1617 	.global	_LED_Process_50ms
                        1618 _LED_Process_50ms:
000002d8 8207e110       1619 	prepare	{r27,r28,r29,r31},1
000002dc 3d0600000000*  1620 	mov	_led_GCounter,r29
                        1621 --	    .bf
                        1622 .LDW31:
                        1623 --199: {
                        1624 --200:     U8 checksts;
                        1625 --201:     U8 i, res;
                        1626 --202:     U8 mode = 0;
000002e2 00da           1627 	mov	0,r27
                        1628 --204:     if (TRUE == led_InitSts)    
000002e4 9d0f0500       1629 	ld.bu	4[r29],r1
000002e8 610a           1630 	cmp	1,r1
000002ea 9a1d*          1631 	bne	.L405
                        1632 --205:     {           
                        1633 --206:         res = PWR_GetChkStatus(&checksts);
                        1634 --line206
                        1635 ..lin.D.3A.5CRenesas_Electronics.5CD1x_RGL.5Crgl_ghs_D1Lx_obj_V1.2E2.2E0.5Cvlib.5Capp.5Cgfx_apps.5Csimple_draw_d1l2.5Ctarget.5Cd1lx_mango_ghs.5Cobj.5Cled.49::
                        1636 .LDWlin49:
000002ec 23360300       1637 	movea	3,sp,r6
                        1638 	jarl	_PWR_GetChkStatus,lp
                        1638 <EXPANSION BEGIN>

                                                                      Page 31
                                                              C:\Users\YINGAO~1\AppData\Local\Temp\gh_00007j81.si
                        1638 jarl22 _PWR_GetChkStatus , lp 
000002f0 80ff0000*      1638 <EXPANSION END>
000002f4 0ae0           1639 	mov	r10,r28
                        1640 --207:          switch(checksts)
                        1641 --line207
                        1642 ..lin.D.3A.5CRenesas_Electronics.5CD1x_RGL.5Crgl_ghs_D1Lx_obj_V1.2E2.2E0.5Cvlib.5Capp.5Cgfx_apps.5Csimple_draw_d1l2.5Ctarget.5Cd1lx_mango_ghs.5Cobj.5Cled.50::
                        1643 .LDWlin50:
000002f6 a30f0300       1644 	ld.bu	3[sp],r1
000002fa 610a           1645 	cmp	1,r1
000002fc 810d*          1646 	bl	.L404
000002fe c205*          1647 	be	.L403
00000300 620a           1648 	cmp	2,r1
00000302 da0d*          1649 	bne	.L405
00000304 c505*          1650 	br	.L404
                        1651 .L403:
                        1652 --208:         {
                        1653 --209:            
                        1654 --210:             case STATUS_SLFCHK_ING:	
                        1655 --211:                  led_SelfChkProcess();
                        1656 --line211
                        1657 ..lin.D.3A.5CRenesas_Electronics.5CD1x_RGL.5Crgl_ghs_D1Lx_obj_V1.2E2.2E0.5Cvlib.5Capp.5Cgfx_apps.5Csimple_draw_d1l2.5Ctarget.5Cd1lx_mango_ghs.5Cobj.5Cled.51::
                        1658 .LDWlin51:
                        1659 	jarl	_led_SelfChkProcess,lp
                        1659 <EXPANSION BEGIN>
                        1659 jarl22 _led_SelfChkProcess , lp 
00000306 80ff1c00*      1659 <EXPANSION END>
                        1660 --line212
                        1661 ..lin.D.3A.5CRenesas_Electronics.5CD1x_RGL.5Crgl_ghs_D1Lx_obj_V1.2E2.2E0.5Cvlib.5Capp.5Cgfx_apps.5Csimple_draw_d1l2.5Ctarget.5Cd1lx_mango_ghs.5Cobj.5Cled.52::
                        1662 .LDWlin52:
0000030a 950d*          1663 	br	.L405
                        1664 .L404:
                        1665 --212:                 break;
                        1666 --213:             case STATUS_SLFCHK_NOT_READY: 
                        1667 --214:             case STATUS_SLFCHK_FINISH:
                        1668 --215:                 led_GCounter = 0;
                        1669 --line215
                        1670 ..lin.D.3A.5CRenesas_Electronics.5CD1x_RGL.5Crgl_ghs_D1Lx_obj_V1.2E2.2E0.5Cvlib.5Capp.5Cgfx_apps.5Csimple_draw_d1l2.5Ctarget.5Cd1lx_mango_ghs.5Cobj.5Cled.53::
                        1671 .LDWlin53:
0000030c 2b0600000000*  1672 	mov	_led_GCounter,r11
00000312 6b070100       1673 	st.w	zero,0[r11]
                        1674 --216:                led_NormalProcess();
                        1675 	jarl	_led_NormalProcess,lp
                        1675 <EXPANSION BEGIN>
                        1675 jarl22 _led_NormalProcess , lp 
00000316 80ff5e01*      1675 <EXPANSION END>
                        1676 --line217
                        1677 ..lin.D.3A.5CRenesas_Electronics.5CD1x_RGL.5Crgl_ghs_D1Lx_obj_V1.2E2.2E0.5Cvlib.5Capp.5Cgfx_apps.5Csimple_draw_d1l2.5Ctarget.5Cd1lx_mango_ghs.5Cobj.5Cled.54::
                        1678 .LDWlin54:
0000031a 0000           1679 	nop
                        1680 .L405:
                        1681 --217:                 break;
                        1682 --218:         }       
                        1683 --219:     }
                        1684 --220:     else
                        1685 --221:     {
                        1686 --222:         /*do nothing*/
                        1687 --223:     }
                        1688 --224: }
0000031c 0000           1689 	nop
                        1690 --	    .ef
                        1691 .LDW41:

                                                                      Page 32
                                                              C:\Users\YINGAO~1\AppData\Local\Temp\gh_00007j81.si
0000031e 4206ff10       1692 	dispose	1,{r27,r28,r29,r31},[lp]
                        1693 	.type	_LED_Process_50ms,@function
                        1694 	.size	_LED_Process_50ms,.-_LED_Process_50ms
                        1695 	.align	2
                        1696 .LDW51:
                        1697 --_checksts	3[sp]	local
                        1698 --_res	r28	local
                        1699 --_mode	r27	local
                        1700 
                        1701 	.data
                        1702 	.text
                        1703 
                        1704 
                        1705 --227: /**************************************************
                        1706 --228: *Function :led_SelfChkProcess
                        1707 --229: *Description: LED Module SelfCheck process
                        1708 --230: *Parameters:none
                        1709 --231: *Returns: none
                        1710 --232: **create&Verlog:
                        1711 --233: *Author Name liuyingying  Date:2016-11-28    Ver:01
                        1712 --234: ***************************************************/
                        1713 --235: static void led_SelfChkProcess( void )
                        1714 	.align	2
                        1715 	.align	2
                        1716 	.global	_led_SelfChkProcess..D.3A.5CRenesas_Electronics.5CD1x_RGL.5Crgl_ghs_D1Lx_obj_V1.2E2.2E0.5Cvlib.5Capp.5Cgfx_apps.5Csimple_draw_d1l2.5Ctarget.5Cd1lx_mango_ghs.5Cobj.5Cled.
                        1717 _led_SelfChkProcess..D.3A.5CRenesas_Electronics.5CD1x_RGL.5Crgl_ghs_D1Lx_obj_V1.2E2.2E0.5Cvlib.5Capp.5Cgfx_apps.5Csimple_draw_d1l2.5Ctarget.5Cd1lx_mango_ghs.5Cobj.5Cled.:
                        1718 _led_SelfChkProcess:
00000322 8407e130       1719 	prepare	{r26,r27,r28,r29,r31},2
00000326 3d0600000000*  1720 	mov	_led_out-3,r29
0000032c 3dde0a00       1721 	movea	10,r29,r27
00000330 3a0600000000*  1722 	mov	_led_GCounter,r26
                        1723 --	    .bf
                        1724 .LDW61:
                        1725 --236: {
                        1726 --237: 	LRMState_UN ledOut;
                        1727 --238: 	U8 i = 0;
00000336 00e2           1728 	mov	0,r28
                        1729 --239: 	
                        1730 --240: 	led_GCounter ++;
00000338 3a0f0100       1731 	ld.w	0[r26],r1
0000033c 410a           1732 	add	1,r1
0000033e 7a0f0100       1733 	st.w	r1,0[r26]
                        1734 --241: 	if (SELF_CHECK_CNT >= led_GCounter)
00000342 3a0f0100       1735 	ld.w	0[r26],r1
00000346 01069bff       1736 	addi	-101,r1,zero
0000034a e1072501*      1737 	bl	.L513
                        1738 --242: 	{
                        1739 --243: 		for(i = 0; i < LRM_LAMP_ALL; i ++)
                        1740 --line243
                        1741 ..lin.D.3A.5CRenesas_Electronics.5CD1x_RGL.5Crgl_ghs_D1Lx_obj_V1.2E2.2E0.5Cvlib.5Capp.5Cgfx_apps.5Csimple_draw_d1l2.5Ctarget.5Cd1lx_mango_ghs.5Cobj.5Cled.55::
                        1742 .LDWlin55:
0000034e 00e2           1743 	mov	0,r28
00000350 0000           1744 	nop
                        1745 .L493:
                        1746 --244: 		{
                        1747 --245: 		 ledOut.LRM_value[i] = (led_selfcheckMatrix[led_GCounter-1].lrm_lamp.LRM_value[i] & led_Enable.lrm_lamp.LRM_value[i]) ;
00000352 3a0f0100       1748 	ld.w	0[r26],r1
00000356 1c70           1749 	mov	r28,r14
00000358 2d0600000000*  1750 	mov	_led_selfcheckMatrix-7,r13
0000035e 23f60200       1751 	movea	2,sp,ep
00000362 dcf1           1752 	add	r28,ep

                                                                      Page 33
                                                              C:\Users\YINGAO~1\AppData\Local\Temp\gh_00007j81.si
00000364 e70f4002       1753 	mul	7,r1,zero
00000368 cd09           1754 	add	r13,r1
0000036a c171           1755 	add	r1,r14
0000036c 1c08           1756 	mov	r28,r1
0000036e db09           1757 	add	r27,r1
00000370 810f0100       1758 	ld.bu	0[r1],r1
00000374 8e770100       1759 	ld.bu	0[r14],r14
00000378 4e09           1760 	and	r14,r1
0000037a 800b           1761 	sst.b	r1,0[ep]
0000037c 41e2           1762 	add	1,r28
0000037e 9c00           1763 	zxb	r28
00000380 66e2           1764 	cmp	6,r28
00000382 81ed*          1765 	bl	.L493
                        1766 --246: 		}
                        1767 --247: 		
                        1768 --248: 		if((TRUE == led_GetLampDataByIndex(&led_Enable,LEDLAMP_EPS_ERROR))
                        1769 --line248
                        1770 ..lin.D.3A.5CRenesas_Electronics.5CD1x_RGL.5Crgl_ghs_D1Lx_obj_V1.2E2.2E0.5Cvlib.5Capp.5Cgfx_apps.5Csimple_draw_d1l2.5Ctarget.5Cd1lx_mango_ghs.5Cobj.5Cled.56::
                        1771 .LDWlin56:
00000384 1b30           1772 	mov	r27,r6
00000386 203e2a00       1773 	movea	42,zero,r7
                        1774 	jarl	_led_GetLampDataByIndex,lp
                        1774 <EXPANSION BEGIN>
                        1774 jarl22 _led_GetLampDataByIndex , lp 
0000038a 80fff401*      1774 <EXPANSION END>
0000038e 6152           1775 	cmp	1,r10
00000390 8a15*          1776 	bne	.L494
00000392 1b30           1777 	mov	r27,r6
00000394 203e2b00       1778 	movea	43,zero,r7
                        1779 	jarl	_led_GetLampDataByIndex,lp
                        1779 <EXPANSION BEGIN>
                        1779 jarl22 _led_GetLampDataByIndex , lp 
00000398 80ffe601*      1779 <EXPANSION END>
0000039c e051           1780 	cmp	zero,r10
0000039e 9a0d*          1781 	bne	.L494
                        1782 --249: 			&& (FALSE == led_GetLampDataByIndex(&led_Enable,LEDLAMP_EPS_WARN)))
                        1783 --250: 		{
                        1784 --251: 			led_SetLampStatus(&ledOut,LEDLAMP_EPS_ERROR,1);
                        1785 --line251
                        1786 ..lin.D.3A.5CRenesas_Electronics.5CD1x_RGL.5Crgl_ghs_D1Lx_obj_V1.2E2.2E0.5Cvlib.5Capp.5Cgfx_apps.5Csimple_draw_d1l2.5Ctarget.5Cd1lx_mango_ghs.5Cobj.5Cled.57::
                        1787 .LDWlin57:
000003a0 23360200       1788 	movea	2,sp,r6
000003a4 203e2a00       1789 	movea	42,zero,r7
000003a8 0142           1790 	mov	1,r8
                        1791 	jarl	_led_SetLampStatus,lp
                        1791 <EXPANSION BEGIN>
                        1791 jarl22 _led_SetLampStatus , lp 
000003aa 80ff2205*      1791 <EXPANSION END>
000003ae e515*          1792 	br	.L497
                        1793 .L494:
                        1794 --252: 		}
                        1795 --253: 		else if((FALSE == led_GetLampDataByIndex(&led_Enable,LEDLAMP_EPS_ERROR))
                        1796 --line253
                        1797 ..lin.D.3A.5CRenesas_Electronics.5CD1x_RGL.5Crgl_ghs_D1Lx_obj_V1.2E2.2E0.5Cvlib.5Capp.5Cgfx_apps.5Csimple_draw_d1l2.5Ctarget.5Cd1lx_mango_ghs.5Cobj.5Cled.58::
                        1798 .LDWlin58:
000003b0 1b30           1799 	mov	r27,r6
000003b2 203e2a00       1800 	movea	42,zero,r7
                        1801 	jarl	_led_GetLampDataByIndex,lp
                        1801 <EXPANSION BEGIN>
                        1801 jarl22 _led_GetLampDataByIndex , lp 
000003b6 80ffc801*      1801 <EXPANSION END>

                                                                      Page 34
                                                              C:\Users\YINGAO~1\AppData\Local\Temp\gh_00007j81.si
000003ba e051           1802 	cmp	zero,r10
000003bc fa0d*          1803 	bne	.L497
000003be 1b30           1804 	mov	r27,r6
000003c0 203e2b00       1805 	movea	43,zero,r7
                        1806 	jarl	_led_GetLampDataByIndex,lp
                        1806 <EXPANSION BEGIN>
                        1806 jarl22 _led_GetLampDataByIndex , lp 
000003c4 80ffba01*      1806 <EXPANSION END>
000003c8 6152           1807 	cmp	1,r10
000003ca 8a0d*          1808 	bne	.L497
                        1809 --254: 			&& (TRUE == led_GetLampDataByIndex(&led_Enable,LEDLAMP_EPS_WARN)))
                        1810 --255: 		{
                        1811 --256: 			led_SetLampStatus(&ledOut,LEDLAMP_EPS_WARN,1);
                        1812 --line256
                        1813 ..lin.D.3A.5CRenesas_Electronics.5CD1x_RGL.5Crgl_ghs_D1Lx_obj_V1.2E2.2E0.5Cvlib.5Capp.5Cgfx_apps.5Csimple_draw_d1l2.5Ctarget.5Cd1lx_mango_ghs.5Cobj.5Cled.59::
                        1814 .LDWlin59:
000003cc 23360200       1815 	movea	2,sp,r6
000003d0 203e2b00       1816 	movea	43,zero,r7
000003d4 0142           1817 	mov	1,r8
                        1818 	jarl	_led_SetLampStatus,lp
                        1818 <EXPANSION BEGIN>
                        1818 jarl22 _led_SetLampStatus , lp 
000003d6 80fff604*      1818 <EXPANSION END>
                        1819 .L497:
                        1820 --257: 		}
                        1821 --258: 		else
                        1822 --259: 		{
                        1823 --260: 		}
                        1824 --262: 		if((TRUE == led_GetLampDataByIndex(&led_Enable,LEDLAMP_EPB))
                        1825 --line262
                        1826 ..lin.D.3A.5CRenesas_Electronics.5CD1x_RGL.5Crgl_ghs_D1Lx_obj_V1.2E2.2E0.5Cvlib.5Capp.5Cgfx_apps.5Csimple_draw_d1l2.5Ctarget.5Cd1lx_mango_ghs.5Cobj.5Cled.60::
                        1827 .LDWlin60:
000003da 1b30           1828 	mov	r27,r6
000003dc 093a           1829 	mov	9,r7
                        1830 	jarl	_led_GetLampDataByIndex,lp
                        1830 <EXPANSION BEGIN>
                        1830 jarl22 _led_GetLampDataByIndex , lp 
000003de 80ffa001*      1830 <EXPANSION END>
000003e2 6152           1831 	cmp	1,r10
000003e4 ea0d*          1832 	bne	.L502
000003e6 1b30           1833 	mov	r27,r6
000003e8 013a           1834 	mov	1,r7
                        1835 	jarl	_led_GetLampDataByIndex,lp
                        1835 <EXPANSION BEGIN>
                        1835 jarl22 _led_GetLampDataByIndex , lp 
000003ea 80ff9401*      1835 <EXPANSION END>
000003ee e051           1836 	cmp	zero,r10
000003f0 8a0d*          1837 	bne	.L502
                        1838 --263: 			&& (FALSE == led_GetLampDataByIndex(&led_Enable,LEDLAMP_AUTOHOLD_GREEN)))
                        1839 --264: 		{
                        1840 --265: 			led_SetLampStatus(&ledOut,LEDLAMP_EPB,1);
                        1841 --line265
                        1842 ..lin.D.3A.5CRenesas_Electronics.5CD1x_RGL.5Crgl_ghs_D1Lx_obj_V1.2E2.2E0.5Cvlib.5Capp.5Cgfx_apps.5Csimple_draw_d1l2.5Ctarget.5Cd1lx_mango_ghs.5Cobj.5Cled.61::
                        1843 .LDWlin61:
000003f2 23360200       1844 	movea	2,sp,r6
000003f6 093a           1845 	mov	9,r7
000003f8 0142           1846 	mov	1,r8
                        1847 	jarl	_led_SetLampStatus,lp
                        1847 <EXPANSION BEGIN>
                        1847 jarl22 _led_SetLampStatus , lp 
000003fa 80ffd204*      1847 <EXPANSION END>

                                                                      Page 35
                                                              C:\Users\YINGAO~1\AppData\Local\Temp\gh_00007j81.si
000003fe b515*          1848 	br	.L505
                        1849 .L502:
                        1850 --266: 		}
                        1851 --267: 		else if((FALSE == led_GetLampDataByIndex(&led_Enable,LEDLAMP_EPB))
                        1852 --line267
                        1853 ..lin.D.3A.5CRenesas_Electronics.5CD1x_RGL.5Crgl_ghs_D1Lx_obj_V1.2E2.2E0.5Cvlib.5Capp.5Cgfx_apps.5Csimple_draw_d1l2.5Ctarget.5Cd1lx_mango_ghs.5Cobj.5Cled.62::
                        1854 .LDWlin62:
00000400 1b30           1855 	mov	r27,r6
00000402 093a           1856 	mov	9,r7
                        1857 	jarl	_led_GetLampDataByIndex,lp
                        1857 <EXPANSION BEGIN>
                        1857 jarl22 _led_GetLampDataByIndex , lp 
00000404 80ff7a01*      1857 <EXPANSION END>
00000408 e051           1858 	cmp	zero,r10
0000040a da0d*          1859 	bne	.L505
0000040c 1b30           1860 	mov	r27,r6
0000040e 013a           1861 	mov	1,r7
                        1862 	jarl	_led_GetLampDataByIndex,lp
                        1862 <EXPANSION BEGIN>
                        1862 jarl22 _led_GetLampDataByIndex , lp 
00000410 80ff6e01*      1862 <EXPANSION END>
00000414 6152           1863 	cmp	1,r10
00000416 fa05*          1864 	bne	.L505
                        1865 --268: 			&& (TRUE == led_GetLampDataByIndex(&led_Enable,LEDLAMP_AUTOHOLD_GREEN)))
                        1866 --269: 		{
                        1867 --270: 			led_SetLampStatus(&ledOut,LEDLAMP_AUTOHOLD_GREEN,1);
                        1868 --line270
                        1869 ..lin.D.3A.5CRenesas_Electronics.5CD1x_RGL.5Crgl_ghs_D1Lx_obj_V1.2E2.2E0.5Cvlib.5Capp.5Cgfx_apps.5Csimple_draw_d1l2.5Ctarget.5Cd1lx_mango_ghs.5Cobj.5Cled.63::
                        1870 .LDWlin63:
00000418 23360200       1871 	movea	2,sp,r6
0000041c 013a           1872 	mov	1,r7
0000041e 0142           1873 	mov	1,r8
                        1874 	jarl	_led_SetLampStatus,lp
                        1874 <EXPANSION BEGIN>
                        1874 jarl22 _led_SetLampStatus , lp 
00000420 80ffac04*      1874 <EXPANSION END>
                        1875 .L505:
                        1876 --271: 		}
                        1877 --272: 		else
                        1878 --273: 		{
                        1879 --274: 		}
                        1880 --276:     	if (TRUE != insSecKeyInvLampEnPrm)
                        1881 --line276
                        1882 ..lin.D.3A.5CRenesas_Electronics.5CD1x_RGL.5Crgl_ghs_D1Lx_obj_V1.2E2.2E0.5Cvlib.5Capp.5Cgfx_apps.5Csimple_draw_d1l2.5Ctarget.5Cd1lx_mango_ghs.5Cobj.5Cled.64::
                        1883 .LDWlin64:
00000424 210600000000*  1884 	mov	_insSecKeyInvLampEnPrm,r1
0000042a 810f0100       1885 	ld.bu	0[r1],r1
0000042e 610a           1886 	cmp	1,r1
00000430 820d*          1887 	be	.L512
                        1888 --277:     	{
                        1889 --278:         	led_SetLampStatus(&ledOut, LEDLAMP_ALARM, FALSE);
                        1890 --line278
                        1891 ..lin.D.3A.5CRenesas_Electronics.5CD1x_RGL.5Crgl_ghs_D1Lx_obj_V1.2E2.2E0.5Cvlib.5Capp.5Cgfx_apps.5Csimple_draw_d1l2.5Ctarget.5Cd1lx_mango_ghs.5Cobj.5Cled.65::
                        1892 .LDWlin65:
00000432 23360200       1893 	movea	2,sp,r6
00000436 203e2900       1894 	movea	41,zero,r7
0000043a 0042           1895 	mov	0,r8
                        1896 	jarl	_led_SetLampStatus,lp
                        1896 <EXPANSION BEGIN>
                        1896 jarl22 _led_SetLampStatus , lp 
0000043c 80ff9004*      1896 <EXPANSION END>

                                                                      Page 36
                                                              C:\Users\YINGAO~1\AppData\Local\Temp\gh_00007j81.si
                        1897 .L512:
                        1898 --279:    	 	}
                        1899 --280:     	else
                        1900 --281:     	{
                        1901 --282:     	}
                        1902 --283: 	
                        1903 --284: 	    led_out.lrm_lamp = ledOut;	//led_selfcheckMatrix[led_GCounter].lrm_lamp;    /*  U14 Q0 */
                        1904 --line284
                        1905 ..lin.D.3A.5CRenesas_Electronics.5CD1x_RGL.5Crgl_ghs_D1Lx_obj_V1.2E2.2E0.5Cvlib.5Capp.5Cgfx_apps.5Csimple_draw_d1l2.5Ctarget.5Cd1lx_mango_ghs.5Cobj.5Cled.66::
                        1906 .LDWlin66:
00000440 23f60200       1907 	movea	2,sp,ep
00000444 6070           1908 	sld.bu	0[ep],r14
00000446 6168           1909 	sld.bu	1[ep],r13
00000448 210600000000*  1910 	mov	_led_out,r1
0000044e 6260           1911 	sld.bu	2[ep],r12
00000450 41770000       1912 	st.b	r14,0[r1]
00000454 416f0100       1913 	st.b	r13,1[r1]
00000458 6358           1914 	sld.bu	3[ep],r11
0000045a 6470           1915 	sld.bu	4[ep],r14
0000045c 6568           1916 	sld.bu	5[ep],r13
0000045e 41670200       1917 	st.b	r12,2[r1]
00000462 415f0300       1918 	st.b	r11,3[r1]
00000466 41770400       1919 	st.b	r14,4[r1]
0000046a 416f0500       1920 	st.b	r13,5[r1]
                        1921 .L513:
                        1922 --287: 	}
                        1923 --288: 	else
                        1924 --289: 	{
                        1925 --291: 		/*nothing*/
                        1926 --292: 	}
                        1927 --293: }
0000046e 0000           1928 	nop
                        1929 --	    .ef
                        1930 .LDW71:
00000470 4406ff30       1931 	dispose	2,{r26,r27,r28,r29,r31},[lp]
                        1932 	.type	_led_SelfChkProcess,@function
                        1933 	.size	_led_SelfChkProcess,.-_led_SelfChkProcess
                        1934 	.type	_led_SelfChkProcess..D.3A.5CRenesas_Electronics.5CD1x_RGL.5Crgl_ghs_D1Lx_obj_V1.2E2.2E0.5Cvlib.5Capp.5Cgfx_apps.5Csimple_draw_d1l2.5Ctarget.5Cd1lx_mango_ghs.5Cobj.5Cled.,@function
                        1935 	.size	_led_SelfChkProcess..D.3A.5CRenesas_Electronics.5CD1x_RGL.5Crgl_ghs_D1Lx_obj_V1.2E2.2E0.5Cvlib.5Capp.5Cgfx_apps.5Csimple_draw_d1l2.5Ctarget.5Cd1lx_mango_ghs.5Cobj.5Cled.,.-_led_SelfChkProcess..D.3A.5CRenesas_Electronics.5CD1x_RGL.5Crgl_ghs_D1Lx_obj_V1.2E2.2E0.5Cvlib.5Capp.5Cgfx_apps.5Csimple_draw_d1l2.5Ctarget.5Cd1lx_mango_ghs.5Cobj.5Cled.
                        1936 	.align	2
                        1937 .LDW81:
                        1938 --_ledOut	2[sp]	local
                        1939 --_i	r28	local
                        1940 
                        1941 	.data
                        1942 	.text
                        1943 
                        1944 
                        1945 --295: /**************************************************
                        1946 --296: *Function :led_NormalProcess
                        1947 --297: *Description: LED Module normal process
                        1948 --298: *Parameters:none
                        1949 --299: *Returns: none
                        1950 --300: **create&Verlog:
                        1951 --301: *Author Name liuyingying  Date:2016-11-28    Ver:01
                        1952 --302: ***************************************************/
                        1953 --303: static void led_NormalProcess( void )
                        1954 	.align	2
                        1955 	.align	2
                        1956 	.global	_led_NormalProcess..D.3A.5CRenesas_Electronics.5CD1x_RGL.5Crgl_ghs_D1Lx_obj_V1.2E2.2E0.5Cvlib.5Capp.5Cgfx_apps.5Csimple_draw_d1l2.5Ctarget.5Cd1lx_mango_ghs.5Cobj.5Cled.
                        1957 _led_NormalProcess..D.3A.5CRenesas_Electronics.5CD1x_RGL.5Crgl_ghs_D1Lx_obj_V1.2E2.2E0.5Cvlib.5Capp.5Cgfx_apps.5Csimple_draw_d1l2.5Ctarget.5Cd1lx_mango_ghs.5Cobj.5Cled.:

                                                                      Page 37
                                                              C:\Users\YINGAO~1\AppData\Local\Temp\gh_00007j81.si
                        1958 _led_NormalProcess:
00000474 80072100       1959 	prepare	{r31},0
                        1960 --	    .bf
                        1961 .LDW91:
                        1962 --304: {
                        1963 --305: 	led_LampUpdateProcess();
                        1964 	jarl	_led_LampUpdateProcess,lp
                        1964 <EXPANSION BEGIN>
                        1964 jarl22 _led_LampUpdateProcess , lp 
00000478 80ff8810*      1964 <EXPANSION END>
                        1965 --306: 	led_OutPutProcess();
                        1966 --line306
                        1967 ..lin.D.3A.5CRenesas_Electronics.5CD1x_RGL.5Crgl_ghs_D1Lx_obj_V1.2E2.2E0.5Cvlib.5Capp.5Cgfx_apps.5Csimple_draw_d1l2.5Ctarget.5Cd1lx_mango_ghs.5Cobj.5Cled.67::
                        1968 .LDWlin67:
                        1969 	jarl	_led_OutPutProcess,lp
                        1969 <EXPANSION BEGIN>
                        1969 jarl22 _led_OutPutProcess , lp 
0000047c 80ff9a10*      1969 <EXPANSION END>
                        1970 --307: }
                        1971 --line307
                        1972 ..lin.D.3A.5CRenesas_Electronics.5CD1x_RGL.5Crgl_ghs_D1Lx_obj_V1.2E2.2E0.5Cvlib.5Capp.5Cgfx_apps.5Csimple_draw_d1l2.5Ctarget.5Cd1lx_mango_ghs.5Cobj.5Cled.68::
                        1973 .LDWlin68:
00000480 0000           1974 	nop
                        1975 --	    .ef
                        1976 .LDW02:
00000482 40063f00       1977 	dispose	0,{r31},[lp]
                        1978 	.type	_led_NormalProcess,@function
                        1979 	.size	_led_NormalProcess,.-_led_NormalProcess
                        1980 	.type	_led_NormalProcess..D.3A.5CRenesas_Electronics.5CD1x_RGL.5Crgl_ghs_D1Lx_obj_V1.2E2.2E0.5Cvlib.5Capp.5Cgfx_apps.5Csimple_draw_d1l2.5Ctarget.5Cd1lx_mango_ghs.5Cobj.5Cled.,@function
                        1981 	.size	_led_NormalProcess..D.3A.5CRenesas_Electronics.5CD1x_RGL.5Crgl_ghs_D1Lx_obj_V1.2E2.2E0.5Cvlib.5Capp.5Cgfx_apps.5Csimple_draw_d1l2.5Ctarget.5Cd1lx_mango_ghs.5Cobj.5Cled.,.-_led_NormalProcess..D.3A.5CRenesas_Electronics.5CD1x_RGL.5Crgl_ghs_D1Lx_obj_V1.2E2.2E0.5Cvlib.5Capp.5Cgfx_apps.5Csimple_draw_d1l2.5Ctarget.5Cd1lx_mango_ghs.5Cobj.5Cled.
                        1982 	.align	2
                        1983 .LDW12:
                        1984 
                        1985 	.section ".bss","awb"
                        1986 .L684:
                        1987 	.type	.L684,@object
                        1988 	.size	.L684,0
                        1989 	.data
                        1990 	.text
                        1991 
                        1992 
                        1993 --311: /**************************************************
                        1994 --312: *Function :led_GetLampIndex
                        1995 --313: *Description: Get Water Temperature warn type
                        1996 --314: *Parameters:type: input
                        1997 --315: 				TYPE_LED_FUEL
                        1998 --316: 				TYPE_LED_TEMP
                        1999 --317: 			SegIndex:LEVEL_LED_SEGNONE~LEDLAMP_FUELSEGMENT8
                        2000 --320: *Returns:
                        2001 --321:               LEDLamp_ENUM:the lampindex according to type and SegIndex
                        2002 --323: **create&Verlog:
                        2003 --324: *Author Name liuyingying  Date:2016-11-25    Ver:01
                        2004 --325: ***************************************************/
                        2005 --326: static LEDLamp_ENUM led_GetLampIndex(U8 type, U8 index)
                        2006 	.align	2
                        2007 	.align	2
                        2008 	.global	_led_GetLampIndex..D.3A.5CRenesas_Electronics.5CD1x_RGL.5Crgl_ghs_D1Lx_obj_V1.2E2.2E0.5Cvlib.5Capp.5Cgfx_apps.5Csimple_draw_d1l2.5Ctarget.5Cd1lx_mango_ghs.5Cobj.5Cled.
                        2009 _led_GetLampIndex..D.3A.5CRenesas_Electronics.5CD1x_RGL.5Crgl_ghs_D1Lx_obj_V1.2E2.2E0.5Cvlib.5Capp.5Cgfx_apps.5Csimple_draw_d1l2.5Ctarget.5Cd1lx_mango_ghs.5Cobj.5Cled.:
                        2010 _led_GetLampIndex:
00000486 c666ff00       2011 	andi	255,r6,r12
0000048a c776ff00       2012 	andi	255,r7,r14

                                                                      Page 38
                                                              C:\Users\YINGAO~1\AppData\Local\Temp\gh_00007j81.si
                        2013 --	    .bf
                        2014 .LDW22:
                        2015 --327: {
                        2016 --328:     LEDLamp_ENUM lamp = LEDLAMP_NONE;
0000048e 000a           2017 	mov	0,r1
                        2018 --330:     switch (type)
00000490 6162           2019 	cmp	1,r12
00000492 cb6d*          2020 	bh	.L731
00000494 d935*          2021 	bnl	.L718
                        2022 --331:     {
                        2023 --332:         case TYPE_LED_FUEL:
                        2024 --333:             switch (index)
                        2025 --line333
                        2026 ..lin.D.3A.5CRenesas_Electronics.5CD1x_RGL.5Crgl_ghs_D1Lx_obj_V1.2E2.2E0.5Cvlib.5Capp.5Cgfx_apps.5Csimple_draw_d1l2.5Ctarget.5Cd1lx_mango_ghs.5Cobj.5Cled.69::
                        2027 .LDWlin69:
00000496 0e68           2028 	mov	r14,r13
00000498 686a           2029 	cmp	8,r13
0000049a 8b35*          2030 	bh	.L717
0000049c 0d58           2031 	mov	r13,r11
0000049e c25a           2032 	shl	2,r11
000004a0 eb0600000000*  2033 	jmp	.L835[r11]
                        2034 .L835:
000004a6 80072400*      2035 	jr	.L709
000004aa 80072000*      2036 	jr	.L709
000004ae 80072200*      2037 	jr	.L710
000004b2 80072400*      2038 	jr	.L711
000004b6 80072600*      2039 	jr	.L712
000004ba 80072800*      2040 	jr	.L713
000004be 80072a00*      2041 	jr	.L714
000004c2 80072c00*      2042 	jr	.L715
000004c6 80072e00*      2043 	jr	.L716
                        2044 .L709:
                        2045 --334:             {
                        2046 --335:                 case LEVEL_LED_SEGNONE:
                        2047 --336:                 case LEVEL_LED_SEG1:
                        2048 --337:                     lamp = LEDLAMP_FUELSEGMENT1;
                        2049 --line337
                        2050 ..lin.D.3A.5CRenesas_Electronics.5CD1x_RGL.5Crgl_ghs_D1Lx_obj_V1.2E2.2E0.5Cvlib.5Capp.5Cgfx_apps.5Csimple_draw_d1l2.5Ctarget.5Cd1lx_mango_ghs.5Cobj.5Cled.70::
                        2051 .LDWlin70:
000004ca 200e1800       2052 	movea	24,zero,r1
000004ce f515*          2053 	br	.L707
                        2054 .L710:
                        2055 --338:                     break;
                        2056 --339:                 case LEVEL_LED_SEG2:
                        2057 --340:                     lamp = LEDLAMP_FUELSEGMENT2;
                        2058 --line340
                        2059 ..lin.D.3A.5CRenesas_Electronics.5CD1x_RGL.5Crgl_ghs_D1Lx_obj_V1.2E2.2E0.5Cvlib.5Capp.5Cgfx_apps.5Csimple_draw_d1l2.5Ctarget.5Cd1lx_mango_ghs.5Cobj.5Cled.71::
                        2060 .LDWlin71:
000004d0 200e1700       2061 	movea	23,zero,r1
000004d4 c515*          2062 	br	.L707
                        2063 .L711:
                        2064 --341:                     break;
                        2065 --342:                 case LEVEL_LED_SEG3:
                        2066 --343:                     lamp = LEDLAMP_FUELSEGMENT3;
                        2067 --line343
                        2068 ..lin.D.3A.5CRenesas_Electronics.5CD1x_RGL.5Crgl_ghs_D1Lx_obj_V1.2E2.2E0.5Cvlib.5Capp.5Cgfx_apps.5Csimple_draw_d1l2.5Ctarget.5Cd1lx_mango_ghs.5Cobj.5Cled.72::
                        2069 .LDWlin72:
000004d6 200e1600       2070 	movea	22,zero,r1
000004da 9515*          2071 	br	.L707
                        2072 .L712:
                        2073 --344:                     break;

                                                                      Page 39
                                                              C:\Users\YINGAO~1\AppData\Local\Temp\gh_00007j81.si
                        2074 --345:                 case LEVEL_LED_SEG4:
                        2075 --346:                     lamp = LEDLAMP_FUELSEGMENT4;
                        2076 --line346
                        2077 ..lin.D.3A.5CRenesas_Electronics.5CD1x_RGL.5Crgl_ghs_D1Lx_obj_V1.2E2.2E0.5Cvlib.5Capp.5Cgfx_apps.5Csimple_draw_d1l2.5Ctarget.5Cd1lx_mango_ghs.5Cobj.5Cled.73::
                        2078 .LDWlin73:
000004dc 200e1500       2079 	movea	21,zero,r1
000004e0 e50d*          2080 	br	.L707
                        2081 .L713:
                        2082 --347:                     break;
                        2083 --348:                 case LEVEL_LED_SEG5:
                        2084 --349:                     lamp = LEDLAMP_FUELSEGMENT5;
                        2085 --line349
                        2086 ..lin.D.3A.5CRenesas_Electronics.5CD1x_RGL.5Crgl_ghs_D1Lx_obj_V1.2E2.2E0.5Cvlib.5Capp.5Cgfx_apps.5Csimple_draw_d1l2.5Ctarget.5Cd1lx_mango_ghs.5Cobj.5Cled.74::
                        2087 .LDWlin74:
000004e2 200e1400       2088 	movea	20,zero,r1
000004e6 b50d*          2089 	br	.L707
                        2090 .L714:
                        2091 --350:                     break;
                        2092 --351:                 case LEVEL_LED_SEG6:
                        2093 --352:                     lamp = LEDLAMP_FUELSEGMENT6;
                        2094 --line352
                        2095 ..lin.D.3A.5CRenesas_Electronics.5CD1x_RGL.5Crgl_ghs_D1Lx_obj_V1.2E2.2E0.5Cvlib.5Capp.5Cgfx_apps.5Csimple_draw_d1l2.5Ctarget.5Cd1lx_mango_ghs.5Cobj.5Cled.75::
                        2096 .LDWlin75:
000004e8 200e1300       2097 	movea	19,zero,r1
000004ec 850d*          2098 	br	.L707
                        2099 .L715:
                        2100 --353:                     break;
                        2101 --354:                 case LEVEL_LED_SEG7:
                        2102 --355:                     lamp = LEDLAMP_FUELSEGMENT7;
                        2103 --line355
                        2104 ..lin.D.3A.5CRenesas_Electronics.5CD1x_RGL.5Crgl_ghs_D1Lx_obj_V1.2E2.2E0.5Cvlib.5Capp.5Cgfx_apps.5Csimple_draw_d1l2.5Ctarget.5Cd1lx_mango_ghs.5Cobj.5Cled.76::
                        2105 .LDWlin76:
000004ee 200e1200       2106 	movea	18,zero,r1
000004f2 d505*          2107 	br	.L707
                        2108 .L716:
                        2109 --356:                     break;
                        2110 --357:                 case LEVEL_LED_SEG8:
                        2111 --358:                     lamp = LEDLAMP_FUELSEGMENT8;
                        2112 --line358
                        2113 ..lin.D.3A.5CRenesas_Electronics.5CD1x_RGL.5Crgl_ghs_D1Lx_obj_V1.2E2.2E0.5Cvlib.5Capp.5Cgfx_apps.5Csimple_draw_d1l2.5Ctarget.5Cd1lx_mango_ghs.5Cobj.5Cled.77::
                        2114 .LDWlin77:
000004f4 200e1100       2115 	movea	17,zero,r1
000004f8 a505*          2116 	br	.L707
                        2117 .L717:
                        2118 --line362
                        2119 ..lin.D.3A.5CRenesas_Electronics.5CD1x_RGL.5Crgl_ghs_D1Lx_obj_V1.2E2.2E0.5Cvlib.5Capp.5Cgfx_apps.5Csimple_draw_d1l2.5Ctarget.5Cd1lx_mango_ghs.5Cobj.5Cled.78::
                        2120 .LDWlin78:
000004fa 0000           2121 	nop
                        2122 .L707:
000004fc f53d*          2123 	br	.L704
                        2124 .L718:
                        2125 --359:                     break;
                        2126 --360:                 default:
                        2127 --361:                      /*do nothing*/
                        2128 --362:                      break;
                        2129 --363:             }
                        2130 --364:             break;
                        2131 --366:         case TYPE_LED_TEMP:
                        2132 --367:             switch (index)
                        2133 --line367
                        2134 ..lin.D.3A.5CRenesas_Electronics.5CD1x_RGL.5Crgl_ghs_D1Lx_obj_V1.2E2.2E0.5Cvlib.5Capp.5Cgfx_apps.5Csimple_draw_d1l2.5Ctarget.5Cd1lx_mango_ghs.5Cobj.5Cled.79::

                                                                      Page 40
                                                              C:\Users\YINGAO~1\AppData\Local\Temp\gh_00007j81.si
                        2135 .LDWlin79:
000004fe 0e68           2136 	mov	r14,r13
00000500 686a           2137 	cmp	8,r13
00000502 ab35*          2138 	bh	.L730
00000504 0d58           2139 	mov	r13,r11
00000506 c25a           2140 	shl	2,r11
00000508 eb0600000000*  2141 	jmp	.L837[r11]
                        2142 .L837:
0000050e 80072400*      2143 	jr	.L721
00000512 80072400*      2144 	jr	.L722
00000516 80072600*      2145 	jr	.L723
0000051a 80072800*      2146 	jr	.L724
0000051e 80072a00*      2147 	jr	.L725
00000522 80072c00*      2148 	jr	.L726
00000526 80072e00*      2149 	jr	.L727
0000052a 80073000*      2150 	jr	.L728
0000052e 80073200*      2151 	jr	.L729
                        2152 .L721:
                        2153 --368:             {
                        2154 --369:                 case LEVEL_LED_SEGNONE:
                        2155 --370:                     lamp =LEDLAMP_NONE;
                        2156 --line370
                        2157 ..lin.D.3A.5CRenesas_Electronics.5CD1x_RGL.5Crgl_ghs_D1Lx_obj_V1.2E2.2E0.5Cvlib.5Capp.5Cgfx_apps.5Csimple_draw_d1l2.5Ctarget.5Cd1lx_mango_ghs.5Cobj.5Cled.80::
                        2158 .LDWlin80:
00000532 000a           2159 	mov	0,r1
00000534 a51d*          2160 	br	.L719
                        2161 .L722:
                        2162 --371:                     break;
                        2163 --372:                 case LEVEL_LED_SEG1:
                        2164 --373:                     lamp = LEDLAMP_TEMPSEGMENT1;
                        2165 --line373
                        2166 ..lin.D.3A.5CRenesas_Electronics.5CD1x_RGL.5Crgl_ghs_D1Lx_obj_V1.2E2.2E0.5Cvlib.5Capp.5Cgfx_apps.5Csimple_draw_d1l2.5Ctarget.5Cd1lx_mango_ghs.5Cobj.5Cled.81::
                        2167 .LDWlin81:
00000536 200e1900       2168 	movea	25,zero,r1
0000053a f515*          2169 	br	.L719
                        2170 .L723:
                        2171 --374:                     break;
                        2172 --375:                 case LEVEL_LED_SEG2:
                        2173 --376:                     lamp = LEDLAMP_TEMPSEGMENT2;
                        2174 --line376
                        2175 ..lin.D.3A.5CRenesas_Electronics.5CD1x_RGL.5Crgl_ghs_D1Lx_obj_V1.2E2.2E0.5Cvlib.5Capp.5Cgfx_apps.5Csimple_draw_d1l2.5Ctarget.5Cd1lx_mango_ghs.5Cobj.5Cled.82::
                        2176 .LDWlin82:
0000053c 200e2000       2177 	movea	32,zero,r1
00000540 c515*          2178 	br	.L719
                        2179 .L724:
                        2180 --377:                     break;
                        2181 --378:                 case LEVEL_LED_SEG3:
                        2182 --379:                     lamp = LEDLAMP_TEMPSEGMENT3;
                        2183 --line379
                        2184 ..lin.D.3A.5CRenesas_Electronics.5CD1x_RGL.5Crgl_ghs_D1Lx_obj_V1.2E2.2E0.5Cvlib.5Capp.5Cgfx_apps.5Csimple_draw_d1l2.5Ctarget.5Cd1lx_mango_ghs.5Cobj.5Cled.83::
                        2185 .LDWlin83:
00000542 200e1f00       2186 	movea	31,zero,r1
00000546 9515*          2187 	br	.L719
                        2188 .L725:
                        2189 --380:                     break;
                        2190 --381:                 case LEVEL_LED_SEG4:
                        2191 --382:                     lamp = LEDLAMP_TEMPSEGMENT4;
                        2192 --line382
                        2193 ..lin.D.3A.5CRenesas_Electronics.5CD1x_RGL.5Crgl_ghs_D1Lx_obj_V1.2E2.2E0.5Cvlib.5Capp.5Cgfx_apps.5Csimple_draw_d1l2.5Ctarget.5Cd1lx_mango_ghs.5Cobj.5Cled.84::
                        2194 .LDWlin84:
00000548 200e1e00       2195 	movea	30,zero,r1

                                                                      Page 41
                                                              C:\Users\YINGAO~1\AppData\Local\Temp\gh_00007j81.si
0000054c e50d*          2196 	br	.L719
                        2197 .L726:
                        2198 --383:                     break;
                        2199 --384:                 case LEVEL_LED_SEG5:
                        2200 --385:                     lamp = LEDLAMP_TEMPSEGMENT5;
                        2201 --line385
                        2202 ..lin.D.3A.5CRenesas_Electronics.5CD1x_RGL.5Crgl_ghs_D1Lx_obj_V1.2E2.2E0.5Cvlib.5Capp.5Cgfx_apps.5Csimple_draw_d1l2.5Ctarget.5Cd1lx_mango_ghs.5Cobj.5Cled.85::
                        2203 .LDWlin85:
0000054e 200e1d00       2204 	movea	29,zero,r1
00000552 b50d*          2205 	br	.L719
                        2206 .L727:
                        2207 --386:                     break;
                        2208 --387:                 case LEVEL_LED_SEG6:
                        2209 --388:                     lamp = LEDLAMP_TEMPSEGMENT6;
                        2210 --line388
                        2211 ..lin.D.3A.5CRenesas_Electronics.5CD1x_RGL.5Crgl_ghs_D1Lx_obj_V1.2E2.2E0.5Cvlib.5Capp.5Cgfx_apps.5Csimple_draw_d1l2.5Ctarget.5Cd1lx_mango_ghs.5Cobj.5Cled.86::
                        2212 .LDWlin86:
00000554 200e1c00       2213 	movea	28,zero,r1
00000558 850d*          2214 	br	.L719
                        2215 .L728:
                        2216 --389:                     break;
                        2217 --390:                 case LEVEL_LED_SEG7:
                        2218 --391:                     lamp = LEDLAMP_TEMPSEGMENT7;
                        2219 --line391
                        2220 ..lin.D.3A.5CRenesas_Electronics.5CD1x_RGL.5Crgl_ghs_D1Lx_obj_V1.2E2.2E0.5Cvlib.5Capp.5Cgfx_apps.5Csimple_draw_d1l2.5Ctarget.5Cd1lx_mango_ghs.5Cobj.5Cled.87::
                        2221 .LDWlin87:
0000055a 200e1b00       2222 	movea	27,zero,r1
0000055e d505*          2223 	br	.L719
                        2224 .L729:
                        2225 --392:                     break;
                        2226 --393:                 case LEVEL_LED_SEG8:
                        2227 --394:                     lamp = LEDLAMP_TEMPSEGMENT8;
                        2228 --line394
                        2229 ..lin.D.3A.5CRenesas_Electronics.5CD1x_RGL.5Crgl_ghs_D1Lx_obj_V1.2E2.2E0.5Cvlib.5Capp.5Cgfx_apps.5Csimple_draw_d1l2.5Ctarget.5Cd1lx_mango_ghs.5Cobj.5Cled.88::
                        2230 .LDWlin88:
00000560 200e1a00       2231 	movea	26,zero,r1
00000564 a505*          2232 	br	.L719
                        2233 .L730:
                        2234 --line398
                        2235 ..lin.D.3A.5CRenesas_Electronics.5CD1x_RGL.5Crgl_ghs_D1Lx_obj_V1.2E2.2E0.5Cvlib.5Capp.5Cgfx_apps.5Csimple_draw_d1l2.5Ctarget.5Cd1lx_mango_ghs.5Cobj.5Cled.89::
                        2236 .LDWlin89:
00000566 0000           2237 	nop
                        2238 .L719:
00000568 950d*          2239 	br	.L704
                        2240 .L731:
                        2241 --395:                     break;
                        2242 --396:                default:
                        2243 --397:                         /*do nothing*/
                        2244 --398:                     break;
                        2245 --399:             }
                        2246 --400:             break;
                        2247 --402:         default:
                        2248 --403:             lamp =led_Matrix[index].index;
                        2249 --line403
                        2250 ..lin.D.3A.5CRenesas_Electronics.5CD1x_RGL.5Crgl_ghs_D1Lx_obj_V1.2E2.2E0.5Cvlib.5Capp.5Cgfx_apps.5Csimple_draw_d1l2.5Ctarget.5Cd1lx_mango_ghs.5Cobj.5Cled.90::
                        2251 .LDWlin90:
0000056a 0ef0           2252 	mov	r14,ep
0000056c c4f2           2253 	shl	4,ep
0000056e 2b0600000000*  2254 	mov	_led_Matrix,r11
00000574 cbf1           2255 	add	r11,ep
00000576 020d           2256 	sld.w	4[ep],r1

                                                                      Page 42
                                                              C:\Users\YINGAO~1\AppData\Local\Temp\gh_00007j81.si
00000578 0000           2257 	nop
                        2258 .L704:
                        2259 --404:             break;
                        2260 --405:     }
                        2261 --407:     return lamp;
0000057a 0150           2262 	mov	r1,r10
                        2263 --	    .ef
                        2264 .LDW32:
0000057c 7f00           2265 	jmp	[lp]
                        2266 	.type	_led_GetLampIndex,@function
                        2267 	.size	_led_GetLampIndex,.-_led_GetLampIndex
                        2268 	.type	_led_GetLampIndex..D.3A.5CRenesas_Electronics.5CD1x_RGL.5Crgl_ghs_D1Lx_obj_V1.2E2.2E0.5Cvlib.5Capp.5Cgfx_apps.5Csimple_draw_d1l2.5Ctarget.5Cd1lx_mango_ghs.5Cobj.5Cled.,@function
                        2269 	.size	_led_GetLampIndex..D.3A.5CRenesas_Electronics.5CD1x_RGL.5Crgl_ghs_D1Lx_obj_V1.2E2.2E0.5Cvlib.5Capp.5Cgfx_apps.5Csimple_draw_d1l2.5Ctarget.5Cd1lx_mango_ghs.5Cobj.5Cled.,.-_led_GetLampIndex..D.3A.5CRenesas_Electronics.5CD1x_RGL.5Crgl_ghs_D1Lx_obj_V1.2E2.2E0.5Cvlib.5Capp.5Cgfx_apps.5Csimple_draw_d1l2.5Ctarget.5Cd1lx_mango_ghs.5Cobj.5Cled.
                        2270 	.align	2
                        2271 .LDW42:
                        2272 --_lamp	r1	local
                        2273 
                        2274 --_type	r12	param
                        2275 --_index	r14	param
                        2276 
                        2277 	.section ".bss","awb"
                        2278 .L832:
                        2279 	.type	.L832,@object
                        2280 	.size	.L832,0
                        2281 	.data
                        2282 	.ghsnote jtable,2097156,.L835,.L835,.L835,9
                        2283 	.ghsnote jtable,2097156,.L837,.L837,.L837,9
                        2284 	.text
                        2285 
                        2286 --408: }
                        2287 
                        2288 --410: /**************************************************
                        2289 --411: *Function :led_GetLampDataByIndex
                        2290 --412: *Description: Get led function enable or disable by configuration
                        2291 --413: *Parameters:type: LEDLamp_ENUM lamp
                        2292 --414: 					input lampIndex
                        2293 --417: *Returns:
                        2294 --418:               TRUE:lamp enable
                        2295 --419:               FALSE:lamp disable
                        2296 --421: **create&Verlog:
                        2297 --422: *Author Name liuyingying  Date:2016-11-25    Ver:01
                        2298 --423: *****************************************************/
                        2299 --424: static BOOL led_GetLampDataByIndex(LEDState_ST *pValue, LEDLamp_ENUM lamp)
                        2300 	.align	2
                        2301 	.align	2
                        2302 	.global	_led_GetLampDataByIndex..D.3A.5CRenesas_Electronics.5CD1x_RGL.5Crgl_ghs_D1Lx_obj_V1.2E2.2E0.5Cvlib.5Capp.5Cgfx_apps.5Csimple_draw_d1l2.5Ctarget.5Cd1lx_mango_ghs.5Cobj.5Cled.
                        2303 _led_GetLampDataByIndex..D.3A.5CRenesas_Electronics.5CD1x_RGL.5Crgl_ghs_D1Lx_obj_V1.2E2.2E0.5Cvlib.5Capp.5Cgfx_apps.5Csimple_draw_d1l2.5Ctarget.5Cd1lx_mango_ghs.5Cobj.5Cled.:
                        2304 _led_GetLampDataByIndex:
0000057e 0660           2305 	mov	r6,r12
00000580 0758           2306 	mov	r7,r11
                        2307 --	    .bf
                        2308 .LDW52:
                        2309 --425: {
                        2310 --426: 	LEDState_ST *state = pValue;
00000582 0cf0           2311 	mov	r12,ep
                        2312 --428: 	BOOL lightSts = FALSE;
00000584 000a           2313 	mov	0,r1
                        2314 --430:  	switch(lamp)
00000586 0b70           2315 	mov	r11,r14
00000588 0e06ceff       2316 	addi	-50,r14,zero
0000058c e1073903*      2317 	bl	.L1043

                                                                      Page 43
                                                              C:\Users\YINGAO~1\AppData\Local\Temp\gh_00007j81.si
00000590 c272           2318 	shl	2,r14
00000592 ee0600000000*  2319 	jmp	.L1274[r14]
                        2320 .L1274:
00000598 8007c800*      2321 	jr	.L993
0000059c 8007c800*      2322 	jr	.L994
000005a0 8007ce00*      2323 	jr	.L995
000005a4 8007d800*      2324 	jr	.L996
000005a8 8007e200*      2325 	jr	.L997
000005ac 8007ec00*      2326 	jr	.L998
000005b0 8007f600*      2327 	jr	.L999
000005b4 80070001*      2328 	jr	.L1000
000005b8 80070a01*      2329 	jr	.L1001
000005bc 80071401*      2330 	jr	.L1002
000005c0 80071a01*      2331 	jr	.L1003
000005c4 80072401*      2332 	jr	.L1004
000005c8 80072e01*      2333 	jr	.L1005
000005cc 80073801*      2334 	jr	.L1006
000005d0 80074201*      2335 	jr	.L1007
000005d4 80074c01*      2336 	jr	.L1008
000005d8 80075601*      2337 	jr	.L1009
000005dc 80076001*      2338 	jr	.L1010
000005e0 80076601*      2339 	jr	.L1011
000005e4 80077001*      2340 	jr	.L1012
000005e8 80077a01*      2341 	jr	.L1013
000005ec 80078401*      2342 	jr	.L1014
000005f0 80078e01*      2343 	jr	.L1015
000005f4 80079801*      2344 	jr	.L1016
000005f8 8007a201*      2345 	jr	.L1017
000005fc 8007ac01*      2346 	jr	.L1018
00000600 8007b201*      2347 	jr	.L1019
00000604 8007bc01*      2348 	jr	.L1020
00000608 8007c401*      2349 	jr	.L1021
0000060c 8007cc01*      2350 	jr	.L1022
00000610 8007d401*      2351 	jr	.L1023
00000614 8007dc01*      2352 	jr	.L1024
00000618 8007e401*      2353 	jr	.L1025
0000061c 8007ec01*      2354 	jr	.L1026
00000620 8007f001*      2355 	jr	.L1027
00000624 8007f801*      2356 	jr	.L1028
00000628 80070002*      2357 	jr	.L1029
0000062c 80070802*      2358 	jr	.L1030
00000630 80071002*      2359 	jr	.L1031
00000634 80071802*      2360 	jr	.L1032
00000638 80072002*      2361 	jr	.L1033
0000063c 80072802*      2362 	jr	.L1034
00000640 80072c02*      2363 	jr	.L1035
00000644 80073402*      2364 	jr	.L1036
00000648 80073c02*      2365 	jr	.L1037
0000064c 80074402*      2366 	jr	.L1038
00000650 80074c02*      2367 	jr	.L1039
00000654 80075402*      2368 	jr	.L1040
00000658 80075c02*      2369 	jr	.L1041
0000065c 80076402*      2370 	jr	.L1042
                        2371 .L993:
                        2372 --line434
                        2373 ..lin.D.3A.5CRenesas_Electronics.5CD1x_RGL.5Crgl_ghs_D1Lx_obj_V1.2E2.2E0.5Cvlib.5Capp.5Cgfx_apps.5Csimple_draw_d1l2.5Ctarget.5Cd1lx_mango_ghs.5Cobj.5Cled.91::
                        2374 .LDWlin91:
00000660 80076802*      2375 	br	.L991
                        2376 .L994:
                        2377 --431: 	{
                        2378 --433: 	case LEDLAMP_NONE:/* Reserved Bits */

                                                                      Page 44
                                                              C:\Users\YINGAO~1\AppData\Local\Temp\gh_00007j81.si
                        2379 --434: 		break;
                        2380 --435: 	case LEDLAMP_AUTOHOLD_GREEN:/* Reserved Bits */
                        2381 --436: 		lightSts = state->lrm_lamp.BYTES.LRM_TYPE_AUTOHOLD_GREEN;//state->lrm_lamp->BYTES->LRM_TYPE_Reserve1;
                        2382 --line436
                        2383 ..lin.D.3A.5CRenesas_Electronics.5CD1x_RGL.5Crgl_ghs_D1Lx_obj_V1.2E2.2E0.5Cvlib.5Capp.5Cgfx_apps.5Csimple_draw_d1l2.5Ctarget.5Cd1lx_mango_ghs.5Cobj.5Cled.92::
                        2384 .LDWlin92:
00000664 6008           2385 	sld.bu	0[ep],r1
00000666 c10e0100       2386 	andi	1,r1,r1
0000066a 80075e02*      2387 	br	.L991
                        2388 .L995:
                        2389 --437: 		break;
                        2390 --438: 	case LEDLAMP_TURNLEFT:/*  */
                        2391 --439: 		lightSts = state->lrm_lamp.BYTES.LRM_TYPE_TURNLEFT;
                        2392 --line439
                        2393 ..lin.D.3A.5CRenesas_Electronics.5CD1x_RGL.5Crgl_ghs_D1Lx_obj_V1.2E2.2E0.5Cvlib.5Capp.5Cgfx_apps.5Csimple_draw_d1l2.5Ctarget.5Cd1lx_mango_ghs.5Cobj.5Cled.93::
                        2394 .LDWlin93:
0000066e 6008           2395 	sld.bu	0[ep],r1
00000670 0170           2396 	mov	r1,r14
00000672 de72           2397 	shl	30,r14
00000674 9f72           2398 	shr	31,r14
00000676 0e08           2399 	mov	r14,r1
00000678 80075002*      2400 	br	.L991
                        2401 .L996:
                        2402 --440: 		break;
                        2403 --441: 	case LEDLAMP_BRAKEERROR:/* */
                        2404 --442: 		lightSts = state->lrm_lamp.BYTES.LRM_TYPE_BRAKEERROR;
                        2405 --line442
                        2406 ..lin.D.3A.5CRenesas_Electronics.5CD1x_RGL.5Crgl_ghs_D1Lx_obj_V1.2E2.2E0.5Cvlib.5Capp.5Cgfx_apps.5Csimple_draw_d1l2.5Ctarget.5Cd1lx_mango_ghs.5Cobj.5Cled.94::
                        2407 .LDWlin94:
0000067c 6008           2408 	sld.bu	0[ep],r1
0000067e 0170           2409 	mov	r1,r14
00000680 dd72           2410 	shl	29,r14
00000682 9f72           2411 	shr	31,r14
00000684 0e08           2412 	mov	r14,r1
00000686 80074202*      2413 	br	.L991
                        2414 .L997:
                        2415 --443: 		break;
                        2416 --444: 	case LEDLAMP_SRS:/*  */
                        2417 --445: 		lightSts = state->lrm_lamp.BYTES.LRM_TYPE_SRS;
                        2418 --line445
                        2419 ..lin.D.3A.5CRenesas_Electronics.5CD1x_RGL.5Crgl_ghs_D1Lx_obj_V1.2E2.2E0.5Cvlib.5Capp.5Cgfx_apps.5Csimple_draw_d1l2.5Ctarget.5Cd1lx_mango_ghs.5Cobj.5Cled.95::
                        2420 .LDWlin95:
0000068a 6008           2421 	sld.bu	0[ep],r1
0000068c 0170           2422 	mov	r1,r14
0000068e dc72           2423 	shl	28,r14
00000690 9f72           2424 	shr	31,r14
00000692 0e08           2425 	mov	r14,r1
00000694 80073402*      2426 	br	.L991
                        2427 .L998:
                        2428 --446: 		break;
                        2429 --447: 	case LEDLAMP_ABS_ERROR:/* ABS */
                        2430 --448: 		lightSts = state->lrm_lamp.BYTES.LRM_TYPE_ABS_ERROR;
                        2431 --line448
                        2432 ..lin.D.3A.5CRenesas_Electronics.5CD1x_RGL.5Crgl_ghs_D1Lx_obj_V1.2E2.2E0.5Cvlib.5Capp.5Cgfx_apps.5Csimple_draw_d1l2.5Ctarget.5Cd1lx_mango_ghs.5Cobj.5Cled.96::
                        2433 .LDWlin96:
00000698 6008           2434 	sld.bu	0[ep],r1
0000069a 0170           2435 	mov	r1,r14
0000069c db72           2436 	shl	27,r14
0000069e 9f72           2437 	shr	31,r14
000006a0 0e08           2438 	mov	r14,r1
000006a2 80072602*      2439 	br	.L991

                                                                      Page 45
                                                              C:\Users\YINGAO~1\AppData\Local\Temp\gh_00007j81.si
                        2440 .L999:
                        2441 --449: 		break;
                        2442 --450: 	case LEDLAMP_SEATBELT_UNFASTEN:/* */
                        2443 --451: 		lightSts = state->lrm_lamp.BYTES.LRM_TYPE_SEATBELT_UNFASTEN;
                        2444 --line451
                        2445 ..lin.D.3A.5CRenesas_Electronics.5CD1x_RGL.5Crgl_ghs_D1Lx_obj_V1.2E2.2E0.5Cvlib.5Capp.5Cgfx_apps.5Csimple_draw_d1l2.5Ctarget.5Cd1lx_mango_ghs.5Cobj.5Cled.97::
                        2446 .LDWlin97:
000006a6 6008           2447 	sld.bu	0[ep],r1
000006a8 0170           2448 	mov	r1,r14
000006aa da72           2449 	shl	26,r14
000006ac 9f72           2450 	shr	31,r14
000006ae 0e08           2451 	mov	r14,r1
000006b0 80071802*      2452 	br	.L991
                        2453 .L1000:
                        2454 --452: 		break;
                        2455 --453: 	case LEDLAMP_TPMS_WARN:/* */
                        2456 --454: 		lightSts = state->lrm_lamp.BYTES.LRM_TYPE_TPMS_WARN;
                        2457 --line454
                        2458 ..lin.D.3A.5CRenesas_Electronics.5CD1x_RGL.5Crgl_ghs_D1Lx_obj_V1.2E2.2E0.5Cvlib.5Capp.5Cgfx_apps.5Csimple_draw_d1l2.5Ctarget.5Cd1lx_mango_ghs.5Cobj.5Cled.98::
                        2459 .LDWlin98:
000006b4 6008           2460 	sld.bu	0[ep],r1
000006b6 0170           2461 	mov	r1,r14
000006b8 d972           2462 	shl	25,r14
000006ba 9f72           2463 	shr	31,r14
000006bc 0e08           2464 	mov	r14,r1
000006be 80070a02*      2465 	br	.L991
                        2466 .L1001:
                        2467 --455: 		break;
                        2468 --456: 	case LEDLAMP_SCSSTART:/* SCS*/
                        2469 --457: 		lightSts = state->lrm_lamp.BYTES.LRM_TYPE_SCSSTART;
                        2470 --line457
                        2471 ..lin.D.3A.5CRenesas_Electronics.5CD1x_RGL.5Crgl_ghs_D1Lx_obj_V1.2E2.2E0.5Cvlib.5Capp.5Cgfx_apps.5Csimple_draw_d1l2.5Ctarget.5Cd1lx_mango_ghs.5Cobj.5Cled.99::
                        2472 .LDWlin99:
000006c2 6008           2473 	sld.bu	0[ep],r1
000006c4 0170           2474 	mov	r1,r14
000006c6 d872           2475 	shl	24,r14
000006c8 9f72           2476 	shr	31,r14
000006ca 0e08           2477 	mov	r14,r1
000006cc 8007fc01*      2478 	br	.L991
                        2479 .L1002:
                        2480 --458: 		break;
                        2481 --459: 	case LEDLAMP_EPB:/* ECALL  */
                        2482 --460: 		lightSts = state->lrm_lamp.BYTES.LRM_TYPE_EPB_RED;
                        2483 --line460
                        2484 ..lin.D.3A.5CRenesas_Electronics.5CD1x_RGL.5Crgl_ghs_D1Lx_obj_V1.2E2.2E0.5Cvlib.5Capp.5Cgfx_apps.5Csimple_draw_d1l2.5Ctarget.5Cd1lx_mango_ghs.5Cobj.5Cled.100::
                        2485 .LDWlin100:
000006d0 6108           2486 	sld.bu	1[ep],r1
000006d2 c10e0100       2487 	andi	1,r1,r1
000006d6 8007f201*      2488 	br	.L991
                        2489 .L1003:
                        2490 --461: 		break;
                        2491 --462: 	case LEDLAMP_FUEL_WARN:/*  */
                        2492 --463: 		lightSts = state->lrm_lamp.BYTES.LRM_TYPE_FUEL_WARN;
                        2493 --line463
                        2494 ..lin.D.3A.5CRenesas_Electronics.5CD1x_RGL.5Crgl_ghs_D1Lx_obj_V1.2E2.2E0.5Cvlib.5Capp.5Cgfx_apps.5Csimple_draw_d1l2.5Ctarget.5Cd1lx_mango_ghs.5Cobj.5Cled.101::
                        2495 .LDWlin101:
000006da 6108           2496 	sld.bu	1[ep],r1
000006dc 0170           2497 	mov	r1,r14
000006de de72           2498 	shl	30,r14
000006e0 9f72           2499 	shr	31,r14
000006e2 0e08           2500 	mov	r14,r1

                                                                      Page 46
                                                              C:\Users\YINGAO~1\AppData\Local\Temp\gh_00007j81.si
000006e4 8007e401*      2501 	br	.L991
                        2502 .L1004:
                        2503 --464: 		break;
                        2504 --465: 	case LEDLAMP_BEAM_LAMP:/*  */
                        2505 --466: 		lightSts = state->lrm_lamp.BYTES.LRM_TYPE_BEAM_LAMP;
                        2506 --line466
                        2507 ..lin.D.3A.5CRenesas_Electronics.5CD1x_RGL.5Crgl_ghs_D1Lx_obj_V1.2E2.2E0.5Cvlib.5Capp.5Cgfx_apps.5Csimple_draw_d1l2.5Ctarget.5Cd1lx_mango_ghs.5Cobj.5Cled.102::
                        2508 .LDWlin102:
000006e8 6108           2509 	sld.bu	1[ep],r1
000006ea 0170           2510 	mov	r1,r14
000006ec dd72           2511 	shl	29,r14
000006ee 9f72           2512 	shr	31,r14
000006f0 0e08           2513 	mov	r14,r1
000006f2 8007d601*      2514 	br	.L991
                        2515 .L1005:
                        2516 --467: 		break;
                        2517 --468: 	case LEDLAMP_REAR_FOG:/**/
                        2518 --469: 		lightSts = state->lrm_lamp.BYTES.LRM_TYPE_REAR_FOG;
                        2519 --line469
                        2520 ..lin.D.3A.5CRenesas_Electronics.5CD1x_RGL.5Crgl_ghs_D1Lx_obj_V1.2E2.2E0.5Cvlib.5Capp.5Cgfx_apps.5Csimple_draw_d1l2.5Ctarget.5Cd1lx_mango_ghs.5Cobj.5Cled.103::
                        2521 .LDWlin103:
000006f6 6108           2522 	sld.bu	1[ep],r1
000006f8 0170           2523 	mov	r1,r14
000006fa dc72           2524 	shl	28,r14
000006fc 9f72           2525 	shr	31,r14
000006fe 0e08           2526 	mov	r14,r1
00000700 8007c801*      2527 	br	.L991
                        2528 .L1006:
                        2529 --470: 		break;
                        2530 --471: 	case LEDLAMP_EPB_OFF:/* EPB OFF*/
                        2531 --472: 		lightSts = state->lrm_lamp.BYTES.LRM_TYPE_EPB_OFF;
                        2532 --line472
                        2533 ..lin.D.3A.5CRenesas_Electronics.5CD1x_RGL.5Crgl_ghs_D1Lx_obj_V1.2E2.2E0.5Cvlib.5Capp.5Cgfx_apps.5Csimple_draw_d1l2.5Ctarget.5Cd1lx_mango_ghs.5Cobj.5Cled.104::
                        2534 .LDWlin104:
00000704 6108           2535 	sld.bu	1[ep],r1
00000706 0170           2536 	mov	r1,r14
00000708 db72           2537 	shl	27,r14
0000070a 9f72           2538 	shr	31,r14
0000070c 0e08           2539 	mov	r14,r1
0000070e 8007ba01*      2540 	br	.L991
                        2541 .L1007:
                        2542 --473: 		break;
                        2543 --474: 	case LEDLAMP_SCS_OFF:/* SCS*/
                        2544 --475: 		lightSts = state->lrm_lamp.BYTES.LRM_TYPE_SCS_OFF;
                        2545 --line475
                        2546 ..lin.D.3A.5CRenesas_Electronics.5CD1x_RGL.5Crgl_ghs_D1Lx_obj_V1.2E2.2E0.5Cvlib.5Capp.5Cgfx_apps.5Csimple_draw_d1l2.5Ctarget.5Cd1lx_mango_ghs.5Cobj.5Cled.105::
                        2547 .LDWlin105:
00000712 6108           2548 	sld.bu	1[ep],r1
00000714 0170           2549 	mov	r1,r14
00000716 da72           2550 	shl	26,r14
00000718 9f72           2551 	shr	31,r14
0000071a 0e08           2552 	mov	r14,r1
0000071c 8007ac01*      2553 	br	.L991
                        2554 .L1008:
                        2555 --476: 		break;
                        2556 --477: 	case LEDLAMP_CRUISE_GREEN:/* */
                        2557 --478: 		lightSts = state->lrm_lamp.BYTES.LRM_TYPE_CRUISE_GREEN;
                        2558 --line478
                        2559 ..lin.D.3A.5CRenesas_Electronics.5CD1x_RGL.5Crgl_ghs_D1Lx_obj_V1.2E2.2E0.5Cvlib.5Capp.5Cgfx_apps.5Csimple_draw_d1l2.5Ctarget.5Cd1lx_mango_ghs.5Cobj.5Cled.106::
                        2560 .LDWlin106:
00000720 6108           2561 	sld.bu	1[ep],r1

                                                                      Page 47
                                                              C:\Users\YINGAO~1\AppData\Local\Temp\gh_00007j81.si
00000722 0170           2562 	mov	r1,r14
00000724 d972           2563 	shl	25,r14
00000726 9f72           2564 	shr	31,r14
00000728 0e08           2565 	mov	r14,r1
0000072a 80079e01*      2566 	br	.L991
                        2567 .L1009:
                        2568 --479: 		break;
                        2569 --480: 	case LEDLAMP_CRUISE_YELLOW: /* */
                        2570 --481: 		lightSts = state->lrm_lamp.BYTES.LRM_TYPE_CRUISE_YELLOW;
                        2571 --line481
                        2572 ..lin.D.3A.5CRenesas_Electronics.5CD1x_RGL.5Crgl_ghs_D1Lx_obj_V1.2E2.2E0.5Cvlib.5Capp.5Cgfx_apps.5Csimple_draw_d1l2.5Ctarget.5Cd1lx_mango_ghs.5Cobj.5Cled.107::
                        2573 .LDWlin107:
0000072e 6108           2574 	sld.bu	1[ep],r1
00000730 0170           2575 	mov	r1,r14
00000732 d872           2576 	shl	24,r14
00000734 9f72           2577 	shr	31,r14
00000736 0e08           2578 	mov	r14,r1
00000738 80079001*      2579 	br	.L991
                        2580 .L1010:
                        2581 --482: 		break;
                        2582 --483: 	case LEDLAMP_FUELSEGMENT8:/* 8*/
                        2583 --484: 		lightSts = state->lrm_lamp.BYTES.LRM_TYPE_FUELSEGMENT8;
                        2584 --line484
                        2585 ..lin.D.3A.5CRenesas_Electronics.5CD1x_RGL.5Crgl_ghs_D1Lx_obj_V1.2E2.2E0.5Cvlib.5Capp.5Cgfx_apps.5Csimple_draw_d1l2.5Ctarget.5Cd1lx_mango_ghs.5Cobj.5Cled.108::
                        2586 .LDWlin108:
0000073c 6208           2587 	sld.bu	2[ep],r1
0000073e c10e0100       2588 	andi	1,r1,r1
00000742 80078601*      2589 	br	.L991
                        2590 .L1011:
                        2591 --485: 		break;
                        2592 --486: 	case LEDLAMP_FUELSEGMENT7:/* 7*/
                        2593 --487: 		lightSts = state->lrm_lamp.BYTES.LRM_TYPE_FUELSEGMENT7;
                        2594 --line487
                        2595 ..lin.D.3A.5CRenesas_Electronics.5CD1x_RGL.5Crgl_ghs_D1Lx_obj_V1.2E2.2E0.5Cvlib.5Capp.5Cgfx_apps.5Csimple_draw_d1l2.5Ctarget.5Cd1lx_mango_ghs.5Cobj.5Cled.109::
                        2596 .LDWlin109:
00000746 6208           2597 	sld.bu	2[ep],r1
00000748 0170           2598 	mov	r1,r14
0000074a de72           2599 	shl	30,r14
0000074c 9f72           2600 	shr	31,r14
0000074e 0e08           2601 	mov	r14,r1
00000750 80077801*      2602 	br	.L991
                        2603 .L1012:
                        2604 --488: 		break;
                        2605 --489: 	case LEDLAMP_FUELSEGMENT6:/* 6 */
                        2606 --490: 		lightSts = state->lrm_lamp.BYTES.LRM_TYPE_FUELSEGMENT6;
                        2607 --line490
                        2608 ..lin.D.3A.5CRenesas_Electronics.5CD1x_RGL.5Crgl_ghs_D1Lx_obj_V1.2E2.2E0.5Cvlib.5Capp.5Cgfx_apps.5Csimple_draw_d1l2.5Ctarget.5Cd1lx_mango_ghs.5Cobj.5Cled.110::
                        2609 .LDWlin110:
00000754 6208           2610 	sld.bu	2[ep],r1
00000756 0170           2611 	mov	r1,r14
00000758 dd72           2612 	shl	29,r14
0000075a 9f72           2613 	shr	31,r14
0000075c 0e08           2614 	mov	r14,r1
0000075e 80076a01*      2615 	br	.L991
                        2616 .L1013:
                        2617 --491: 		break;
                        2618 --492: 	case LEDLAMP_FUELSEGMENT5:/* 5 */
                        2619 --493: 		lightSts = state->lrm_lamp.BYTES.LRM_TYPE_FUELSEGMENT5;
                        2620 --line493
                        2621 ..lin.D.3A.5CRenesas_Electronics.5CD1x_RGL.5Crgl_ghs_D1Lx_obj_V1.2E2.2E0.5Cvlib.5Capp.5Cgfx_apps.5Csimple_draw_d1l2.5Ctarget.5Cd1lx_mango_ghs.5Cobj.5Cled.111::
                        2622 .LDWlin111:

                                                                      Page 48
                                                              C:\Users\YINGAO~1\AppData\Local\Temp\gh_00007j81.si
00000762 6208           2623 	sld.bu	2[ep],r1
00000764 0170           2624 	mov	r1,r14
00000766 dc72           2625 	shl	28,r14
00000768 9f72           2626 	shr	31,r14
0000076a 0e08           2627 	mov	r14,r1
0000076c 80075c01*      2628 	br	.L991
                        2629 .L1014:
                        2630 --494: 		break;
                        2631 --495: 	case LEDLAMP_FUELSEGMENT4:/* 4 */
                        2632 --496: 		lightSts = state->lrm_lamp.BYTES.LRM_TYPE_FUELSEGMENT4;
                        2633 --line496
                        2634 ..lin.D.3A.5CRenesas_Electronics.5CD1x_RGL.5Crgl_ghs_D1Lx_obj_V1.2E2.2E0.5Cvlib.5Capp.5Cgfx_apps.5Csimple_draw_d1l2.5Ctarget.5Cd1lx_mango_ghs.5Cobj.5Cled.112::
                        2635 .LDWlin112:
00000770 6208           2636 	sld.bu	2[ep],r1
00000772 0170           2637 	mov	r1,r14
00000774 db72           2638 	shl	27,r14
00000776 9f72           2639 	shr	31,r14
00000778 0e08           2640 	mov	r14,r1
0000077a 80074e01*      2641 	br	.L991
                        2642 .L1015:
                        2643 --497: 		break;
                        2644 --498: 	case LEDLAMP_FUELSEGMENT3:/* 3 */
                        2645 --499: 		lightSts = state->lrm_lamp.BYTES.LRM_TYPE_FUELSEGMENT3;
                        2646 --line499
                        2647 ..lin.D.3A.5CRenesas_Electronics.5CD1x_RGL.5Crgl_ghs_D1Lx_obj_V1.2E2.2E0.5Cvlib.5Capp.5Cgfx_apps.5Csimple_draw_d1l2.5Ctarget.5Cd1lx_mango_ghs.5Cobj.5Cled.113::
                        2648 .LDWlin113:
0000077e 6208           2649 	sld.bu	2[ep],r1
00000780 0170           2650 	mov	r1,r14
00000782 da72           2651 	shl	26,r14
00000784 9f72           2652 	shr	31,r14
00000786 0e08           2653 	mov	r14,r1
00000788 80074001*      2654 	br	.L991
                        2655 .L1016:
                        2656 --500: 		break;
                        2657 --501: 	case LEDLAMP_FUELSEGMENT2:/* 2 */
                        2658 --502: 		lightSts = state->lrm_lamp.BYTES.LRM_TYPE_FUELSEGMENT2;
                        2659 --line502
                        2660 ..lin.D.3A.5CRenesas_Electronics.5CD1x_RGL.5Crgl_ghs_D1Lx_obj_V1.2E2.2E0.5Cvlib.5Capp.5Cgfx_apps.5Csimple_draw_d1l2.5Ctarget.5Cd1lx_mango_ghs.5Cobj.5Cled.114::
                        2661 .LDWlin114:
0000078c 6208           2662 	sld.bu	2[ep],r1
0000078e 0170           2663 	mov	r1,r14
00000790 d972           2664 	shl	25,r14
00000792 9f72           2665 	shr	31,r14
00000794 0e08           2666 	mov	r14,r1
00000796 80073201*      2667 	br	.L991
                        2668 .L1017:
                        2669 --503: 		break;
                        2670 --504: 	case LEDLAMP_FUELSEGMENT1:/* 1 */
                        2671 --505: 		lightSts = state->lrm_lamp.BYTES.LRM_TYPE_FUELSEGMENT1;
                        2672 --line505
                        2673 ..lin.D.3A.5CRenesas_Electronics.5CD1x_RGL.5Crgl_ghs_D1Lx_obj_V1.2E2.2E0.5Cvlib.5Capp.5Cgfx_apps.5Csimple_draw_d1l2.5Ctarget.5Cd1lx_mango_ghs.5Cobj.5Cled.115::
                        2674 .LDWlin115:
0000079a 6208           2675 	sld.bu	2[ep],r1
0000079c 0170           2676 	mov	r1,r14
0000079e d872           2677 	shl	24,r14
000007a0 9f72           2678 	shr	31,r14
000007a2 0e08           2679 	mov	r14,r1
000007a4 80072401*      2680 	br	.L991
                        2681 .L1018:
                        2682 --506: 		break;
                        2683 --507: 	case LEDLAMP_TEMPSEGMENT1:/* 1 */

                                                                      Page 49
                                                              C:\Users\YINGAO~1\AppData\Local\Temp\gh_00007j81.si
                        2684 --508: 		lightSts = state->lrm_lamp.BYTES.LRM_TYPE_TEMPSEGMENT1;
                        2685 --line508
                        2686 ..lin.D.3A.5CRenesas_Electronics.5CD1x_RGL.5Crgl_ghs_D1Lx_obj_V1.2E2.2E0.5Cvlib.5Capp.5Cgfx_apps.5Csimple_draw_d1l2.5Ctarget.5Cd1lx_mango_ghs.5Cobj.5Cled.116::
                        2687 .LDWlin116:
000007a8 6308           2688 	sld.bu	3[ep],r1
000007aa c10e0100       2689 	andi	1,r1,r1
000007ae 80071a01*      2690 	br	.L991
                        2691 .L1019:
                        2692 --509: 		break;
                        2693 --510: 	case LEDLAMP_TEMPSEGMENT8:/* 8 */
                        2694 --511: 		lightSts = state->lrm_lamp.BYTES.LRM_TYPE_TEMPSEGMENT8;
                        2695 --line511
                        2696 ..lin.D.3A.5CRenesas_Electronics.5CD1x_RGL.5Crgl_ghs_D1Lx_obj_V1.2E2.2E0.5Cvlib.5Capp.5Cgfx_apps.5Csimple_draw_d1l2.5Ctarget.5Cd1lx_mango_ghs.5Cobj.5Cled.117::
                        2697 .LDWlin117:
000007b2 6308           2698 	sld.bu	3[ep],r1
000007b4 0170           2699 	mov	r1,r14
000007b6 de72           2700 	shl	30,r14
000007b8 9f72           2701 	shr	31,r14
000007ba 0e08           2702 	mov	r14,r1
000007bc 80070c01*      2703 	br	.L991
                        2704 .L1020:
                        2705 --512: 		break;
                        2706 --513: 	case LEDLAMP_TEMPSEGMENT7:/*7 */
                        2707 --514: 		lightSts = state->lrm_lamp.BYTES.LRM_TYPE_TEMPSEGMENT7;
                        2708 --line514
                        2709 ..lin.D.3A.5CRenesas_Electronics.5CD1x_RGL.5Crgl_ghs_D1Lx_obj_V1.2E2.2E0.5Cvlib.5Capp.5Cgfx_apps.5Csimple_draw_d1l2.5Ctarget.5Cd1lx_mango_ghs.5Cobj.5Cled.118::
                        2710 .LDWlin118:
000007c0 6308           2711 	sld.bu	3[ep],r1
000007c2 0170           2712 	mov	r1,r14
000007c4 dd72           2713 	shl	29,r14
000007c6 9f72           2714 	shr	31,r14
000007c8 0e08           2715 	mov	r14,r1
000007ca f57d*          2716 	br	.L991
                        2717 .L1021:
                        2718 --515: 		break;
                        2719 --516: 	case LEDLAMP_TEMPSEGMENT6:/* 6 */
                        2720 --517: 		lightSts = state->lrm_lamp.BYTES.LRM_TYPE_TEMPSEGMENT6;
                        2721 --line517
                        2722 ..lin.D.3A.5CRenesas_Electronics.5CD1x_RGL.5Crgl_ghs_D1Lx_obj_V1.2E2.2E0.5Cvlib.5Capp.5Cgfx_apps.5Csimple_draw_d1l2.5Ctarget.5Cd1lx_mango_ghs.5Cobj.5Cled.119::
                        2723 .LDWlin119:
000007cc 6308           2724 	sld.bu	3[ep],r1
000007ce 0170           2725 	mov	r1,r14
000007d0 dc72           2726 	shl	28,r14
000007d2 9f72           2727 	shr	31,r14
000007d4 0e08           2728 	mov	r14,r1
000007d6 957d*          2729 	br	.L991
                        2730 .L1022:
                        2731 --518: 		break;
                        2732 --519: 	case LEDLAMP_TEMPSEGMENT5:/* 5 */
                        2733 --520: 		lightSts = state->lrm_lamp.BYTES.LRM_TYPE_TEMPSEGMENT5;
                        2734 --line520
                        2735 ..lin.D.3A.5CRenesas_Electronics.5CD1x_RGL.5Crgl_ghs_D1Lx_obj_V1.2E2.2E0.5Cvlib.5Capp.5Cgfx_apps.5Csimple_draw_d1l2.5Ctarget.5Cd1lx_mango_ghs.5Cobj.5Cled.120::
                        2736 .LDWlin120:
000007d8 6308           2737 	sld.bu	3[ep],r1
000007da 0170           2738 	mov	r1,r14
000007dc db72           2739 	shl	27,r14
000007de 9f72           2740 	shr	31,r14
000007e0 0e08           2741 	mov	r14,r1
000007e2 b575*          2742 	br	.L991
                        2743 .L1023:
                        2744 --521: 		break;

                                                                      Page 50
                                                              C:\Users\YINGAO~1\AppData\Local\Temp\gh_00007j81.si
                        2745 --522: 	case LEDLAMP_TEMPSEGMENT4:/* 4 */
                        2746 --523: 		lightSts = state->lrm_lamp.BYTES.LRM_TYPE_TEMPSEGMENT4;
                        2747 --line523
                        2748 ..lin.D.3A.5CRenesas_Electronics.5CD1x_RGL.5Crgl_ghs_D1Lx_obj_V1.2E2.2E0.5Cvlib.5Capp.5Cgfx_apps.5Csimple_draw_d1l2.5Ctarget.5Cd1lx_mango_ghs.5Cobj.5Cled.121::
                        2749 .LDWlin121:
000007e4 6308           2750 	sld.bu	3[ep],r1
000007e6 0170           2751 	mov	r1,r14
000007e8 da72           2752 	shl	26,r14
000007ea 9f72           2753 	shr	31,r14
000007ec 0e08           2754 	mov	r14,r1
000007ee d56d*          2755 	br	.L991
                        2756 .L1024:
                        2757 --524: 		break;
                        2758 --525: 	case LEDLAMP_TEMPSEGMENT3:/* 3 */
                        2759 --526: 		lightSts = state->lrm_lamp.BYTES.LRM_TYPE_TEMPSEGMENT3;
                        2760 --line526
                        2761 ..lin.D.3A.5CRenesas_Electronics.5CD1x_RGL.5Crgl_ghs_D1Lx_obj_V1.2E2.2E0.5Cvlib.5Capp.5Cgfx_apps.5Csimple_draw_d1l2.5Ctarget.5Cd1lx_mango_ghs.5Cobj.5Cled.122::
                        2762 .LDWlin122:
000007f0 6308           2763 	sld.bu	3[ep],r1
000007f2 0170           2764 	mov	r1,r14
000007f4 d972           2765 	shl	25,r14
000007f6 9f72           2766 	shr	31,r14
000007f8 0e08           2767 	mov	r14,r1
000007fa f565*          2768 	br	.L991
                        2769 .L1025:
                        2770 --527: 		break;
                        2771 --528: 	case LEDLAMP_TEMPSEGMENT2:/* 2 */
                        2772 --529: 		lightSts = state->lrm_lamp.BYTES.LRM_TYPE_TEMPSEGMENT2;
                        2773 --line529
                        2774 ..lin.D.3A.5CRenesas_Electronics.5CD1x_RGL.5Crgl_ghs_D1Lx_obj_V1.2E2.2E0.5Cvlib.5Capp.5Cgfx_apps.5Csimple_draw_d1l2.5Ctarget.5Cd1lx_mango_ghs.5Cobj.5Cled.123::
                        2775 .LDWlin123:
000007fc 6308           2776 	sld.bu	3[ep],r1
000007fe 0170           2777 	mov	r1,r14
00000800 d872           2778 	shl	24,r14
00000802 9f72           2779 	shr	31,r14
00000804 0e08           2780 	mov	r14,r1
00000806 9565*          2781 	br	.L991
                        2782 .L1026:
                        2783 --530: 		break;
                        2784 --531: 	case LEDLAMP_TEMP_WARN_RED: /* Reserved Bits */
                        2785 --532: 		lightSts = state->lrm_lamp.BYTES.LRM_TYPE_TEMP_WARN;
                        2786 --line532
                        2787 ..lin.D.3A.5CRenesas_Electronics.5CD1x_RGL.5Crgl_ghs_D1Lx_obj_V1.2E2.2E0.5Cvlib.5Capp.5Cgfx_apps.5Csimple_draw_d1l2.5Ctarget.5Cd1lx_mango_ghs.5Cobj.5Cled.124::
                        2788 .LDWlin124:
00000808 6408           2789 	sld.bu	4[ep],r1
0000080a c10e0100       2790 	andi	1,r1,r1
0000080e d55d*          2791 	br	.L991
                        2792 .L1027:
                        2793 --533: 		break;
                        2794 --534: 	case LEDLAMP_ASS_ACTIVE:/* SSB */
                        2795 --535: 		lightSts = state->lrm_lamp.BYTES.LRM_TYPE_SSB_ACTIVE;
                        2796 --line535
                        2797 ..lin.D.3A.5CRenesas_Electronics.5CD1x_RGL.5Crgl_ghs_D1Lx_obj_V1.2E2.2E0.5Cvlib.5Capp.5Cgfx_apps.5Csimple_draw_d1l2.5Ctarget.5Cd1lx_mango_ghs.5Cobj.5Cled.125::
                        2798 .LDWlin125:
00000810 6408           2799 	sld.bu	4[ep],r1
00000812 0170           2800 	mov	r1,r14
00000814 de72           2801 	shl	30,r14
00000816 9f72           2802 	shr	31,r14
00000818 0e08           2803 	mov	r14,r1
0000081a f555*          2804 	br	.L991
                        2805 .L1028:

                                                                      Page 51
                                                              C:\Users\YINGAO~1\AppData\Local\Temp\gh_00007j81.si
                        2806 --536: 		break;
                        2807 --537: 	case LEDLAMP_ASS_ERROR:/* */
                        2808 --538: 		lightSts = state->lrm_lamp.BYTES.LRM_TYPE_SSB_ERROR;
                        2809 --line538
                        2810 ..lin.D.3A.5CRenesas_Electronics.5CD1x_RGL.5Crgl_ghs_D1Lx_obj_V1.2E2.2E0.5Cvlib.5Capp.5Cgfx_apps.5Csimple_draw_d1l2.5Ctarget.5Cd1lx_mango_ghs.5Cobj.5Cled.126::
                        2811 .LDWlin126:
0000081c 6408           2812 	sld.bu	4[ep],r1
0000081e 0170           2813 	mov	r1,r14
00000820 dd72           2814 	shl	29,r14
00000822 9f72           2815 	shr	31,r14
00000824 0e08           2816 	mov	r14,r1
00000826 9555*          2817 	br	.L991
                        2818 .L1029:
                        2819 --539: 		break;
                        2820 --540: 	case LEDLAMP_ECOMODE:/*  */
                        2821 --541: 		lightSts = state->lrm_lamp.BYTES.LRM_TYPE_ECOMODE;    //
                        2822 --line541
                        2823 ..lin.D.3A.5CRenesas_Electronics.5CD1x_RGL.5Crgl_ghs_D1Lx_obj_V1.2E2.2E0.5Cvlib.5Capp.5Cgfx_apps.5Csimple_draw_d1l2.5Ctarget.5Cd1lx_mango_ghs.5Cobj.5Cled.127::
                        2824 .LDWlin127:
00000828 6408           2825 	sld.bu	4[ep],r1
0000082a 0170           2826 	mov	r1,r14
0000082c dc72           2827 	shl	28,r14
0000082e 9f72           2828 	shr	31,r14
00000830 0e08           2829 	mov	r14,r1
00000832 b54d*          2830 	br	.L991
                        2831 .L1030:
                        2832 --542: 		break;
                        2833 --543:  	case LEDLAMP_SIDELIGHTS:/* */
                        2834 --544: 		lightSts = state->lrm_lamp.BYTES.LRM_TYPE_SIDELIGHTS; //
                        2835 --line544
                        2836 ..lin.D.3A.5CRenesas_Electronics.5CD1x_RGL.5Crgl_ghs_D1Lx_obj_V1.2E2.2E0.5Cvlib.5Capp.5Cgfx_apps.5Csimple_draw_d1l2.5Ctarget.5Cd1lx_mango_ghs.5Cobj.5Cled.128::
                        2837 .LDWlin128:
00000834 6408           2838 	sld.bu	4[ep],r1
00000836 0170           2839 	mov	r1,r14
00000838 db72           2840 	shl	27,r14
0000083a 9f72           2841 	shr	31,r14
0000083c 0e08           2842 	mov	r14,r1
0000083e d545*          2843 	br	.L991
                        2844 .L1031:
                        2845 --545: 		break;
                        2846 --546: 	case LEDLAMP_FRONT_FOG:/*  */
                        2847 --547: 		lightSts = state->lrm_lamp.BYTES.LRM_TYPE_FRONG_FOG; //
                        2848 --line547
                        2849 ..lin.D.3A.5CRenesas_Electronics.5CD1x_RGL.5Crgl_ghs_D1Lx_obj_V1.2E2.2E0.5Cvlib.5Capp.5Cgfx_apps.5Csimple_draw_d1l2.5Ctarget.5Cd1lx_mango_ghs.5Cobj.5Cled.129::
                        2850 .LDWlin129:
00000840 6408           2851 	sld.bu	4[ep],r1
00000842 0170           2852 	mov	r1,r14
00000844 da72           2853 	shl	26,r14
00000846 9f72           2854 	shr	31,r14
00000848 0e08           2855 	mov	r14,r1
0000084a f53d*          2856 	br	.L991
                        2857 .L1032:
                        2858 --548: 		break;
                        2859 --549: 	case LEDLAMP_HDC_GREEN:/* */
                        2860 --550: 		lightSts = state->lrm_lamp.BYTES.LRM_TYPE_HDC_GREEN; //
                        2861 --line550
                        2862 ..lin.D.3A.5CRenesas_Electronics.5CD1x_RGL.5Crgl_ghs_D1Lx_obj_V1.2E2.2E0.5Cvlib.5Capp.5Cgfx_apps.5Csimple_draw_d1l2.5Ctarget.5Cd1lx_mango_ghs.5Cobj.5Cled.130::
                        2863 .LDWlin130:
0000084c 6408           2864 	sld.bu	4[ep],r1
0000084e 0170           2865 	mov	r1,r14
00000850 d972           2866 	shl	25,r14

                                                                      Page 52
                                                              C:\Users\YINGAO~1\AppData\Local\Temp\gh_00007j81.si
00000852 9f72           2867 	shr	31,r14
00000854 0e08           2868 	mov	r14,r1
00000856 953d*          2869 	br	.L991
                        2870 .L1033:
                        2871 --551: 		break;
                        2872 --552: 	case LEDLAMP_HDC_YELLOW:/* */
                        2873 --553: 		lightSts = state->lrm_lamp.BYTES.LRM_TYPE_HDC_YELLOW; //
                        2874 --line553
                        2875 ..lin.D.3A.5CRenesas_Electronics.5CD1x_RGL.5Crgl_ghs_D1Lx_obj_V1.2E2.2E0.5Cvlib.5Capp.5Cgfx_apps.5Csimple_draw_d1l2.5Ctarget.5Cd1lx_mango_ghs.5Cobj.5Cled.131::
                        2876 .LDWlin131:
00000858 6408           2877 	sld.bu	4[ep],r1
0000085a 0170           2878 	mov	r1,r14
0000085c d872           2879 	shl	24,r14
0000085e 9f72           2880 	shr	31,r14
00000860 0e08           2881 	mov	r14,r1
00000862 b535*          2882 	br	.L991
                        2883 .L1034:
                        2884 --554: 		break;
                        2885 --555:     case LEDLAMP_ALARM:/**/
                        2886 --556:             lightSts = state->lrm_lamp.BYTES.LRM_TYPE_THEFTPROOF;
                        2887 --line556
                        2888 ..lin.D.3A.5CRenesas_Electronics.5CD1x_RGL.5Crgl_ghs_D1Lx_obj_V1.2E2.2E0.5Cvlib.5Capp.5Cgfx_apps.5Csimple_draw_d1l2.5Ctarget.5Cd1lx_mango_ghs.5Cobj.5Cled.132::
                        2889 .LDWlin132:
00000864 6508           2890 	sld.bu	5[ep],r1
00000866 c10e0100       2891 	andi	1,r1,r1
0000086a f52d*          2892 	br	.L991
                        2893 .L1035:
                        2894 --557:             break;
                        2895 --558:     case LEDLAMP_EPS_ERROR:/* EPS */
                        2896 --559:             lightSts = state->lrm_lamp.BYTES.LRM_TYPE_EPS_ERROR; //
                        2897 --line559
                        2898 ..lin.D.3A.5CRenesas_Electronics.5CD1x_RGL.5Crgl_ghs_D1Lx_obj_V1.2E2.2E0.5Cvlib.5Capp.5Cgfx_apps.5Csimple_draw_d1l2.5Ctarget.5Cd1lx_mango_ghs.5Cobj.5Cled.133::
                        2899 .LDWlin133:
0000086c 6508           2900 	sld.bu	5[ep],r1
0000086e 0170           2901 	mov	r1,r14
00000870 de72           2902 	shl	30,r14
00000872 9f72           2903 	shr	31,r14
00000874 0e08           2904 	mov	r14,r1
00000876 952d*          2905 	br	.L991
                        2906 .L1036:
                        2907 --560:             break;
                        2908 --561:     case LEDLAMP_EPS_WARN:/* EPS */
                        2909 --562:             lightSts = state->lrm_lamp.BYTES.LRM_TYPE_EPS_WARN; //
                        2910 --line562
                        2911 ..lin.D.3A.5CRenesas_Electronics.5CD1x_RGL.5Crgl_ghs_D1Lx_obj_V1.2E2.2E0.5Cvlib.5Capp.5Cgfx_apps.5Csimple_draw_d1l2.5Ctarget.5Cd1lx_mango_ghs.5Cobj.5Cled.134::
                        2912 .LDWlin134:
00000878 6508           2913 	sld.bu	5[ep],r1
0000087a 0170           2914 	mov	r1,r14
0000087c dd72           2915 	shl	29,r14
0000087e 9f72           2916 	shr	31,r14
00000880 0e08           2917 	mov	r14,r1
00000882 b525*          2918 	br	.L991
                        2919 .L1037:
                        2920 --563:             break;
                        2921 --564:     case LEDLAMP_CHARGER:/* */
                        2922 --565:             lightSts = state->lrm_lamp.BYTES.LRM_TYPE_CHARGER; //
                        2923 --line565
                        2924 ..lin.D.3A.5CRenesas_Electronics.5CD1x_RGL.5Crgl_ghs_D1Lx_obj_V1.2E2.2E0.5Cvlib.5Capp.5Cgfx_apps.5Csimple_draw_d1l2.5Ctarget.5Cd1lx_mango_ghs.5Cobj.5Cled.135::
                        2925 .LDWlin135:
00000884 6508           2926 	sld.bu	5[ep],r1
00000886 0170           2927 	mov	r1,r14

                                                                      Page 53
                                                              C:\Users\YINGAO~1\AppData\Local\Temp\gh_00007j81.si
00000888 dc72           2928 	shl	28,r14
0000088a 9f72           2929 	shr	31,r14
0000088c 0e08           2930 	mov	r14,r1
0000088e d51d*          2931 	br	.L991
                        2932 .L1038:
                        2933 --566:             break;
                        2934 --567:     case LEDLAMP_EMS_ERROR:/* */
                        2935 --568:             lightSts = state->lrm_lamp.BYTES.LRM_TYPE_EMS_ERROR;  //
                        2936 --line568
                        2937 ..lin.D.3A.5CRenesas_Electronics.5CD1x_RGL.5Crgl_ghs_D1Lx_obj_V1.2E2.2E0.5Cvlib.5Capp.5Cgfx_apps.5Csimple_draw_d1l2.5Ctarget.5Cd1lx_mango_ghs.5Cobj.5Cled.136::
                        2938 .LDWlin136:
00000890 6508           2939 	sld.bu	5[ep],r1
00000892 0170           2940 	mov	r1,r14
00000894 db72           2941 	shl	27,r14
00000896 9f72           2942 	shr	31,r14
00000898 0e08           2943 	mov	r14,r1
0000089a f515*          2944 	br	.L991
                        2945 .L1039:
                        2946 --569:             break;
                        2947 --570:     case LEDLAMP_EMISSION_ERROR:/*  */
                        2948 --571:             lightSts = state->lrm_lamp.BYTES.LRM_TYPE_EMISSION_ERROR;  //
                        2949 --line571
                        2950 ..lin.D.3A.5CRenesas_Electronics.5CD1x_RGL.5Crgl_ghs_D1Lx_obj_V1.2E2.2E0.5Cvlib.5Capp.5Cgfx_apps.5Csimple_draw_d1l2.5Ctarget.5Cd1lx_mango_ghs.5Cobj.5Cled.137::
                        2951 .LDWlin137:
0000089c 6508           2952 	sld.bu	5[ep],r1
0000089e 0170           2953 	mov	r1,r14
000008a0 da72           2954 	shl	26,r14
000008a2 9f72           2955 	shr	31,r14
000008a4 0e08           2956 	mov	r14,r1
000008a6 9515*          2957 	br	.L991
                        2958 .L1040:
                        2959 --572:             break;
                        2960 --573: 	case LEDLAMP_FUELPRESURE_LOW:/*  */
                        2961 --574: 		lightSts = state->lrm_lamp.BYTES.LRM_TYPE_FUELPRESURE_LOW; //
                        2962 --line574
                        2963 ..lin.D.3A.5CRenesas_Electronics.5CD1x_RGL.5Crgl_ghs_D1Lx_obj_V1.2E2.2E0.5Cvlib.5Capp.5Cgfx_apps.5Csimple_draw_d1l2.5Ctarget.5Cd1lx_mango_ghs.5Cobj.5Cled.138::
                        2964 .LDWlin138:
000008a8 6508           2965 	sld.bu	5[ep],r1
000008aa 0170           2966 	mov	r1,r14
000008ac d972           2967 	shl	25,r14
000008ae 9f72           2968 	shr	31,r14
000008b0 0e08           2969 	mov	r14,r1
000008b2 b50d*          2970 	br	.L991
                        2971 .L1041:
                        2972 --575: 		break;
                        2973 --576: 	case LEDLAMP_TURNRIGHT:/* */
                        2974 --577: 		lightSts = state->lrm_lamp.BYTES.LRM_TYPE_TURNRIGHT;  //
                        2975 --line577
                        2976 ..lin.D.3A.5CRenesas_Electronics.5CD1x_RGL.5Crgl_ghs_D1Lx_obj_V1.2E2.2E0.5Cvlib.5Capp.5Cgfx_apps.5Csimple_draw_d1l2.5Ctarget.5Cd1lx_mango_ghs.5Cobj.5Cled.139::
                        2977 .LDWlin139:
000008b4 6508           2978 	sld.bu	5[ep],r1
000008b6 0170           2979 	mov	r1,r14
000008b8 d872           2980 	shl	24,r14
000008ba 9f72           2981 	shr	31,r14
000008bc 0e08           2982 	mov	r14,r1
000008be d505*          2983 	br	.L991
                        2984 .L1042:
                        2985 --578: 		break;
                        2986 --579: 	case LEDLAMP_ASS:/* */
                        2987 --580: 		lightSts = state->assLamp;
                        2988 --line580

                                                                      Page 54
                                                              C:\Users\YINGAO~1\AppData\Local\Temp\gh_00007j81.si
                        2989 ..lin.D.3A.5CRenesas_Electronics.5CD1x_RGL.5Crgl_ghs_D1Lx_obj_V1.2E2.2E0.5Cvlib.5Capp.5Cgfx_apps.5Csimple_draw_d1l2.5Ctarget.5Cd1lx_mango_ghs.5Cobj.5Cled.140::
                        2990 .LDWlin140:
000008c0 6608           2991 	sld.bu	6[ep],r1
000008c2 b505*          2992 	br	.L991
                        2993 .L1043:
                        2994 --581: 		break;
                        2995 --582: 	default:
                        2996 --583: 		lightSts = FALSE;
                        2997 --line583
                        2998 ..lin.D.3A.5CRenesas_Electronics.5CD1x_RGL.5Crgl_ghs_D1Lx_obj_V1.2E2.2E0.5Cvlib.5Capp.5Cgfx_apps.5Csimple_draw_d1l2.5Ctarget.5Cd1lx_mango_ghs.5Cobj.5Cled.141::
                        2999 .LDWlin141:
000008c4 000a           3000 	mov	0,r1
000008c6 0000           3001 	nop
                        3002 .L991:
                        3003 --584: 		break;
                        3004 --585: 	}
                        3005 --586: 	return lightSts;
000008c8 0150           3006 	mov	r1,r10
                        3007 --	    .ef
                        3008 .LDW62:
000008ca 7f00           3009 	jmp	[lp]
                        3010 	.type	_led_GetLampDataByIndex,@function
                        3011 	.size	_led_GetLampDataByIndex,.-_led_GetLampDataByIndex
                        3012 	.type	_led_GetLampDataByIndex..D.3A.5CRenesas_Electronics.5CD1x_RGL.5Crgl_ghs_D1Lx_obj_V1.2E2.2E0.5Cvlib.5Capp.5Cgfx_apps.5Csimple_draw_d1l2.5Ctarget.5Cd1lx_mango_ghs.5Cobj.5Cled.,@function
                        3013 	.size	_led_GetLampDataByIndex..D.3A.5CRenesas_Electronics.5CD1x_RGL.5Crgl_ghs_D1Lx_obj_V1.2E2.2E0.5Cvlib.5Capp.5Cgfx_apps.5Csimple_draw_d1l2.5Ctarget.5Cd1lx_mango_ghs.5Cobj.5Cled.,.-_led_GetLampDataByIndex..D.3A.5CRenesas_Electronics.5CD1x_RGL.5Crgl_ghs_D1Lx_obj_V1.2E2.2E0.5Cvlib.5Capp.5Cgfx_apps.5Csimple_draw_d1l2.5Ctarget.5Cd1lx_mango_ghs.5Cobj.5Cled.
                        3014 	.align	2
                        3015 .LDW72:
                        3016 --_state	ep	local
                        3017 --_lightSts	r1	local
                        3018 
                        3019 --_pValue	r12	param
                        3020 --_lamp	r11	param
                        3021 
                        3022 	.section ".bss","awb"
                        3023 .L1272:
                        3024 	.type	.L1272,@object
                        3025 	.size	.L1272,0
                        3026 	.data
                        3027 	.ghsnote jtable,2097156,.L1274,.L1274,.L1274,50
                        3028 	.text
                        3029 
                        3030 --587: }
                        3031 
                        3032 --589: /**************************************************
                        3033 --590: *Function :led_SetLampStatus
                        3034 --591: *Description: Set Led output status
                        3035 --592: *Parameters:state output structure,the bits of state will set to value
                        3036 --593: 			lamp  input lampindex, for which the value will be set
                        3037 --594: 			value input :true set light on
                        3038 --595: 					     false set light off
                        3039 --597: *Returns:
                        3040 --598:               TRUE:success
                        3041 --599:               FALSE:fail
                        3042 --601: **create&Verlog:
                        3043 --602: *Author Name liuyingying  Date:2016-11-25    Ver:01
                        3044 --603: ***************************************************/
                        3045 --605: static BOOL led_SetLampStatus(LEDState_ST *state, LEDLamp_ENUM lamp, U8 Value)
                        3046 	.align	2
                        3047 	.align	2
                        3048 	.global	_led_SetLampStatus..D.3A.5CRenesas_Electronics.5CD1x_RGL.5Crgl_ghs_D1Lx_obj_V1.2E2.2E0.5Cvlib.5Capp.5Cgfx_apps.5Csimple_draw_d1l2.5Ctarget.5Cd1lx_mango_ghs.5Cobj.5Cled.
                        3049 _led_SetLampStatus..D.3A.5CRenesas_Electronics.5CD1x_RGL.5Crgl_ghs_D1Lx_obj_V1.2E2.2E0.5Cvlib.5Capp.5Cgfx_apps.5Csimple_draw_d1l2.5Ctarget.5Cd1lx_mango_ghs.5Cobj.5Cled.:

                                                                      Page 55
                                                              C:\Users\YINGAO~1\AppData\Local\Temp\gh_00007j81.si
                        3050 _led_SetLampStatus:
000008cc 06f0           3051 	mov	r6,ep
000008ce 0760           3052 	mov	r7,r12
000008d0 c80eff00       3053 	andi	255,r8,r1
                        3054 --	    .bf
                        3055 .LDW82:
                        3056 --606: {
                        3057 --607:     BOOL res = TRUE;
000008d4 0172           3058 	mov	1,r14
                        3059 --609: 	if(NULL_PTR !=state)
000008d6 e0f1           3060 	cmp	zero,ep
000008d8 e2077d04*      3061 	be	.L1603
                        3062 --610:     {
                        3063 --611:     	switch(lamp)
                        3064 --line611
                        3065 ..lin.D.3A.5CRenesas_Electronics.5CD1x_RGL.5Crgl_ghs_D1Lx_obj_V1.2E2.2E0.5Cvlib.5Capp.5Cgfx_apps.5Csimple_draw_d1l2.5Ctarget.5Cd1lx_mango_ghs.5Cobj.5Cled.142::
                        3066 .LDWlin142:
000008dc 0c68           3067 	mov	r12,r13
000008de 0d06ceff       3068 	addi	-50,r13,zero
000008e2 e1076f04*      3069 	bl	.L1658
000008e6 0d58           3070 	mov	r13,r11
000008e8 c25a           3071 	shl	2,r11
000008ea eb0600000000*  3072 	jmp	.L1880[r11]
                        3073 .L1880:
000008f0 80076004*      3074 	jr	.L1658
000008f4 8007c400*      3075 	jr	.L1607
000008f8 8007d200*      3076 	jr	.L1608
000008fc 8007e200*      3077 	jr	.L1609
00000900 8007f200*      3078 	jr	.L1610
00000904 80070201*      3079 	jr	.L1611
00000908 80071201*      3080 	jr	.L1612
0000090c 80072201*      3081 	jr	.L1613
00000910 80073201*      3082 	jr	.L1614
00000914 80074201*      3083 	jr	.L1615
00000918 80075001*      3084 	jr	.L1616
0000091c 80076001*      3085 	jr	.L1617
00000920 80077001*      3086 	jr	.L1618
00000924 80078001*      3087 	jr	.L1619
00000928 80079001*      3088 	jr	.L1620
0000092c 8007a001*      3089 	jr	.L1621
00000930 8007b001*      3090 	jr	.L1622
00000934 8007c001*      3091 	jr	.L1623
00000938 8007ce01*      3092 	jr	.L1624
0000093c 8007de01*      3093 	jr	.L1625
00000940 8007ee01*      3094 	jr	.L1626
00000944 8007fe01*      3095 	jr	.L1627
00000948 80070e02*      3096 	jr	.L1628
0000094c 80071e02*      3097 	jr	.L1629
00000950 80072e02*      3098 	jr	.L1630
00000954 80073e02*      3099 	jr	.L1631
00000958 80074c02*      3100 	jr	.L1632
0000095c 80075c02*      3101 	jr	.L1633
00000960 80076c02*      3102 	jr	.L1634
00000964 80077c02*      3103 	jr	.L1635
00000968 80078c02*      3104 	jr	.L1636
0000096c 80079c02*      3105 	jr	.L1637
00000970 8007ac02*      3106 	jr	.L1638
00000974 8007bc02*      3107 	jr	.L1639
00000978 8007c602*      3108 	jr	.L1640
0000097c 8007d602*      3109 	jr	.L1643
00000980 8007e402*      3110 	jr	.L1644

                                                                      Page 56
                                                              C:\Users\YINGAO~1\AppData\Local\Temp\gh_00007j81.si
00000984 8007f202*      3111 	jr	.L1645
00000988 80070003*      3112 	jr	.L1646
0000098c 80070e03*      3113 	jr	.L1647
00000990 80071c03*      3114 	jr	.L1648
00000994 80072a03*      3115 	jr	.L1649
00000998 80073603*      3116 	jr	.L1650
0000099c 80074403*      3117 	jr	.L1651
000009a0 80075203*      3118 	jr	.L1652
000009a4 80076003*      3119 	jr	.L1653
000009a8 80076e03*      3120 	jr	.L1654
000009ac 80077c03*      3121 	jr	.L1655
000009b0 80078a03*      3122 	jr	.L1656
000009b4 80079803*      3123 	jr	.L1657
                        3124 .L1607:
                        3125 --612: 		{
                        3126 --614: 	    	case LEDLAMP_AUTOHOLD_GREEN:/* Reserved Bits */
                        3127 --615: 	    		state->lrm_lamp.BYTES.LRM_TYPE_AUTOHOLD_GREEN=Value;    ///new add
                        3128 --line615
                        3129 ..lin.D.3A.5CRenesas_Electronics.5CD1x_RGL.5Crgl_ghs_D1Lx_obj_V1.2E2.2E0.5Cvlib.5Capp.5Cgfx_apps.5Csimple_draw_d1l2.5Ctarget.5Cd1lx_mango_ghs.5Cobj.5Cled.143::
                        3130 .LDWlin143:
000009b8 6068           3131 	sld.bu	0[ep],r13
000009ba c15e0100       3132 	andi	1,r1,r11
000009be cd6efe00       3133 	andi	254,r13,r13
000009c2 0b69           3134 	or	r11,r13
000009c4 806b           3135 	sst.b	r13,0[ep]
000009c6 80079003*      3136 	br	.L1659
                        3137 .L1608:
                        3138 --616: 	    		break;
                        3139 --617: 	    	case LEDLAMP_TURNLEFT:/*  */
                        3140 --618: 	    		state->lrm_lamp.BYTES.LRM_TYPE_TURNLEFT=Value;
                        3141 --line618
                        3142 ..lin.D.3A.5CRenesas_Electronics.5CD1x_RGL.5Crgl_ghs_D1Lx_obj_V1.2E2.2E0.5Cvlib.5Capp.5Cgfx_apps.5Csimple_draw_d1l2.5Ctarget.5Cd1lx_mango_ghs.5Cobj.5Cled.144::
                        3143 .LDWlin144:
000009ca 6068           3144 	sld.bu	0[ep],r13
000009cc c15e0100       3145 	andi	1,r1,r11
000009d0 c15a           3146 	shl	1,r11
000009d2 cd6efd00       3147 	andi	253,r13,r13
000009d6 0b69           3148 	or	r11,r13
000009d8 806b           3149 	sst.b	r13,0[ep]
000009da 80077c03*      3150 	br	.L1659
                        3151 .L1609:
                        3152 --619: 	    		break;
                        3153 --620: 	    	case LEDLAMP_BRAKEERROR:/* */
                        3154 --621: 	    		state->lrm_lamp.BYTES.LRM_TYPE_BRAKEERROR=Value;
                        3155 --line621
                        3156 ..lin.D.3A.5CRenesas_Electronics.5CD1x_RGL.5Crgl_ghs_D1Lx_obj_V1.2E2.2E0.5Cvlib.5Capp.5Cgfx_apps.5Csimple_draw_d1l2.5Ctarget.5Cd1lx_mango_ghs.5Cobj.5Cled.145::
                        3157 .LDWlin145:
000009de 6068           3158 	sld.bu	0[ep],r13
000009e0 c15e0100       3159 	andi	1,r1,r11
000009e4 c25a           3160 	shl	2,r11
000009e6 cd6efb00       3161 	andi	251,r13,r13
000009ea 0b69           3162 	or	r11,r13
000009ec 806b           3163 	sst.b	r13,0[ep]
000009ee 80076803*      3164 	br	.L1659
                        3165 .L1610:
                        3166 --622: 	    		break;
                        3167 --623: 	    	case LEDLAMP_SRS:/*  */
                        3168 --624: 	    		state->lrm_lamp.BYTES.LRM_TYPE_SRS=Value;
                        3169 --line624
                        3170 ..lin.D.3A.5CRenesas_Electronics.5CD1x_RGL.5Crgl_ghs_D1Lx_obj_V1.2E2.2E0.5Cvlib.5Capp.5Cgfx_apps.5Csimple_draw_d1l2.5Ctarget.5Cd1lx_mango_ghs.5Cobj.5Cled.146::
                        3171 .LDWlin146:

                                                                      Page 57
                                                              C:\Users\YINGAO~1\AppData\Local\Temp\gh_00007j81.si
000009f2 6068           3172 	sld.bu	0[ep],r13
000009f4 c15e0100       3173 	andi	1,r1,r11
000009f8 c35a           3174 	shl	3,r11
000009fa cd6ef700       3175 	andi	247,r13,r13
000009fe 0b69           3176 	or	r11,r13
00000a00 806b           3177 	sst.b	r13,0[ep]
00000a02 80075403*      3178 	br	.L1659
                        3179 .L1611:
                        3180 --625: 	    		break;
                        3181 --626: 	    	case LEDLAMP_ABS_ERROR:/* ABS */
                        3182 --627: 	    		state->lrm_lamp.BYTES.LRM_TYPE_ABS_ERROR=Value;
                        3183 --line627
                        3184 ..lin.D.3A.5CRenesas_Electronics.5CD1x_RGL.5Crgl_ghs_D1Lx_obj_V1.2E2.2E0.5Cvlib.5Capp.5Cgfx_apps.5Csimple_draw_d1l2.5Ctarget.5Cd1lx_mango_ghs.5Cobj.5Cled.147::
                        3185 .LDWlin147:
00000a06 6068           3186 	sld.bu	0[ep],r13
00000a08 c15e0100       3187 	andi	1,r1,r11
00000a0c c45a           3188 	shl	4,r11
00000a0e cd6eef00       3189 	andi	239,r13,r13
00000a12 0b69           3190 	or	r11,r13
00000a14 806b           3191 	sst.b	r13,0[ep]
00000a16 80074003*      3192 	br	.L1659
                        3193 .L1612:
                        3194 --628: 	    		break;
                        3195 --629: 	    	case LEDLAMP_SEATBELT_UNFASTEN:/* */
                        3196 --630: 	    		state->lrm_lamp.BYTES.LRM_TYPE_SEATBELT_UNFASTEN=Value;
                        3197 --line630
                        3198 ..lin.D.3A.5CRenesas_Electronics.5CD1x_RGL.5Crgl_ghs_D1Lx_obj_V1.2E2.2E0.5Cvlib.5Capp.5Cgfx_apps.5Csimple_draw_d1l2.5Ctarget.5Cd1lx_mango_ghs.5Cobj.5Cled.148::
                        3199 .LDWlin148:
00000a1a 6068           3200 	sld.bu	0[ep],r13
00000a1c c15e0100       3201 	andi	1,r1,r11
00000a20 c55a           3202 	shl	5,r11
00000a22 cd6edf00       3203 	andi	223,r13,r13
00000a26 0b69           3204 	or	r11,r13
00000a28 806b           3205 	sst.b	r13,0[ep]
00000a2a 80072c03*      3206 	br	.L1659
                        3207 .L1613:
                        3208 --631: 	    		break;
                        3209 --632: 	    	case LEDLAMP_TPMS_WARN:/* */
                        3210 --633: 	    		state->lrm_lamp.BYTES.LRM_TYPE_TPMS_WARN=Value;
                        3211 --line633
                        3212 ..lin.D.3A.5CRenesas_Electronics.5CD1x_RGL.5Crgl_ghs_D1Lx_obj_V1.2E2.2E0.5Cvlib.5Capp.5Cgfx_apps.5Csimple_draw_d1l2.5Ctarget.5Cd1lx_mango_ghs.5Cobj.5Cled.149::
                        3213 .LDWlin149:
00000a2e 6068           3214 	sld.bu	0[ep],r13
00000a30 c15e0100       3215 	andi	1,r1,r11
00000a34 c65a           3216 	shl	6,r11
00000a36 cd6ebf00       3217 	andi	191,r13,r13
00000a3a 0b69           3218 	or	r11,r13
00000a3c 806b           3219 	sst.b	r13,0[ep]
00000a3e 80071803*      3220 	br	.L1659
                        3221 .L1614:
                        3222 --634: 	    		break;
                        3223 --635: 	    	case LEDLAMP_SCSSTART:/* SCS*/
                        3224 --636: 	    		state->lrm_lamp.BYTES.LRM_TYPE_SCSSTART=Value;
                        3225 --line636
                        3226 ..lin.D.3A.5CRenesas_Electronics.5CD1x_RGL.5Crgl_ghs_D1Lx_obj_V1.2E2.2E0.5Cvlib.5Capp.5Cgfx_apps.5Csimple_draw_d1l2.5Ctarget.5Cd1lx_mango_ghs.5Cobj.5Cled.150::
                        3227 .LDWlin150:
00000a42 6068           3228 	sld.bu	0[ep],r13
00000a44 c15e0100       3229 	andi	1,r1,r11
00000a48 c75a           3230 	shl	7,r11
00000a4a cd6e7f00       3231 	andi	127,r13,r13
00000a4e 0b69           3232 	or	r11,r13

                                                                      Page 58
                                                              C:\Users\YINGAO~1\AppData\Local\Temp\gh_00007j81.si
00000a50 806b           3233 	sst.b	r13,0[ep]
00000a52 80070403*      3234 	br	.L1659
                        3235 .L1615:
                        3236 --637: 	    		break;
                        3237 --638: 	    	case LEDLAMP_EPB:/* ECALL  */
                        3238 --639: 	    		state->lrm_lamp.BYTES.LRM_TYPE_EPB_RED=Value;
                        3239 --line639
                        3240 ..lin.D.3A.5CRenesas_Electronics.5CD1x_RGL.5Crgl_ghs_D1Lx_obj_V1.2E2.2E0.5Cvlib.5Capp.5Cgfx_apps.5Csimple_draw_d1l2.5Ctarget.5Cd1lx_mango_ghs.5Cobj.5Cled.151::
                        3241 .LDWlin151:
00000a56 6168           3242 	sld.bu	1[ep],r13
00000a58 c15e0100       3243 	andi	1,r1,r11
00000a5c cd6efe00       3244 	andi	254,r13,r13
00000a60 0b69           3245 	or	r11,r13
00000a62 816b           3246 	sst.b	r13,1[ep]
00000a64 8007f202*      3247 	br	.L1659
                        3248 .L1616:
                        3249 --640: 	    		break;
                        3250 --641: 	    	case LEDLAMP_FUEL_WARN:/*  */
                        3251 --642: 	    		state->lrm_lamp.BYTES.LRM_TYPE_FUEL_WARN=Value;
                        3252 --line642
                        3253 ..lin.D.3A.5CRenesas_Electronics.5CD1x_RGL.5Crgl_ghs_D1Lx_obj_V1.2E2.2E0.5Cvlib.5Capp.5Cgfx_apps.5Csimple_draw_d1l2.5Ctarget.5Cd1lx_mango_ghs.5Cobj.5Cled.152::
                        3254 .LDWlin152:
00000a68 6168           3255 	sld.bu	1[ep],r13
00000a6a c15e0100       3256 	andi	1,r1,r11
00000a6e c15a           3257 	shl	1,r11
00000a70 cd6efd00       3258 	andi	253,r13,r13
00000a74 0b69           3259 	or	r11,r13
00000a76 816b           3260 	sst.b	r13,1[ep]
00000a78 8007de02*      3261 	br	.L1659
                        3262 .L1617:
                        3263 --643: 	    		break;
                        3264 --644: 	    	case LEDLAMP_BEAM_LAMP:/*  */
                        3265 --645: 	    		state->lrm_lamp.BYTES.LRM_TYPE_BEAM_LAMP=Value;
                        3266 --line645
                        3267 ..lin.D.3A.5CRenesas_Electronics.5CD1x_RGL.5Crgl_ghs_D1Lx_obj_V1.2E2.2E0.5Cvlib.5Capp.5Cgfx_apps.5Csimple_draw_d1l2.5Ctarget.5Cd1lx_mango_ghs.5Cobj.5Cled.153::
                        3268 .LDWlin153:
00000a7c 6168           3269 	sld.bu	1[ep],r13
00000a7e c15e0100       3270 	andi	1,r1,r11
00000a82 c25a           3271 	shl	2,r11
00000a84 cd6efb00       3272 	andi	251,r13,r13
00000a88 0b69           3273 	or	r11,r13
00000a8a 816b           3274 	sst.b	r13,1[ep]
00000a8c 8007ca02*      3275 	br	.L1659
                        3276 .L1618:
                        3277 --646: 	    		break;
                        3278 --647: 	    	case LEDLAMP_REAR_FOG:/**/
                        3279 --648: 	    		state->lrm_lamp.BYTES.LRM_TYPE_REAR_FOG=Value;
                        3280 --line648
                        3281 ..lin.D.3A.5CRenesas_Electronics.5CD1x_RGL.5Crgl_ghs_D1Lx_obj_V1.2E2.2E0.5Cvlib.5Capp.5Cgfx_apps.5Csimple_draw_d1l2.5Ctarget.5Cd1lx_mango_ghs.5Cobj.5Cled.154::
                        3282 .LDWlin154:
00000a90 6168           3283 	sld.bu	1[ep],r13
00000a92 c15e0100       3284 	andi	1,r1,r11
00000a96 c35a           3285 	shl	3,r11
00000a98 cd6ef700       3286 	andi	247,r13,r13
00000a9c 0b69           3287 	or	r11,r13
00000a9e 816b           3288 	sst.b	r13,1[ep]
00000aa0 8007b602*      3289 	br	.L1659
                        3290 .L1619:
                        3291 --649: 	    		break;
                        3292 --650: 	    	case LEDLAMP_EPB_OFF:/* TC OFF*/
                        3293 --651: 	    		state->lrm_lamp.BYTES.LRM_TYPE_EPB_OFF=Value;

                                                                      Page 59
                                                              C:\Users\YINGAO~1\AppData\Local\Temp\gh_00007j81.si
                        3294 --line651
                        3295 ..lin.D.3A.5CRenesas_Electronics.5CD1x_RGL.5Crgl_ghs_D1Lx_obj_V1.2E2.2E0.5Cvlib.5Capp.5Cgfx_apps.5Csimple_draw_d1l2.5Ctarget.5Cd1lx_mango_ghs.5Cobj.5Cled.155::
                        3296 .LDWlin155:
00000aa4 6168           3297 	sld.bu	1[ep],r13
00000aa6 c15e0100       3298 	andi	1,r1,r11
00000aaa c45a           3299 	shl	4,r11
00000aac cd6eef00       3300 	andi	239,r13,r13
00000ab0 0b69           3301 	or	r11,r13
00000ab2 816b           3302 	sst.b	r13,1[ep]
00000ab4 8007a202*      3303 	br	.L1659
                        3304 .L1620:
                        3305 --652: 	    		break;
                        3306 --653: 	    	case LEDLAMP_SCS_OFF:/* SCS*/
                        3307 --654: 	    		state->lrm_lamp.BYTES.LRM_TYPE_SCS_OFF=Value;
                        3308 --line654
                        3309 ..lin.D.3A.5CRenesas_Electronics.5CD1x_RGL.5Crgl_ghs_D1Lx_obj_V1.2E2.2E0.5Cvlib.5Capp.5Cgfx_apps.5Csimple_draw_d1l2.5Ctarget.5Cd1lx_mango_ghs.5Cobj.5Cled.156::
                        3310 .LDWlin156:
00000ab8 6168           3311 	sld.bu	1[ep],r13
00000aba c15e0100       3312 	andi	1,r1,r11
00000abe c55a           3313 	shl	5,r11
00000ac0 cd6edf00       3314 	andi	223,r13,r13
00000ac4 0b69           3315 	or	r11,r13
00000ac6 816b           3316 	sst.b	r13,1[ep]
00000ac8 80078e02*      3317 	br	.L1659
                        3318 .L1621:
                        3319 --655: 	    		break;
                        3320 --656: 	    	case LEDLAMP_CRUISE_GREEN:/* */
                        3321 --657: 	    		state->lrm_lamp.BYTES.LRM_TYPE_CRUISE_GREEN=Value;
                        3322 --line657
                        3323 ..lin.D.3A.5CRenesas_Electronics.5CD1x_RGL.5Crgl_ghs_D1Lx_obj_V1.2E2.2E0.5Cvlib.5Capp.5Cgfx_apps.5Csimple_draw_d1l2.5Ctarget.5Cd1lx_mango_ghs.5Cobj.5Cled.157::
                        3324 .LDWlin157:
00000acc 6168           3325 	sld.bu	1[ep],r13
00000ace c15e0100       3326 	andi	1,r1,r11
00000ad2 c65a           3327 	shl	6,r11
00000ad4 cd6ebf00       3328 	andi	191,r13,r13
00000ad8 0b69           3329 	or	r11,r13
00000ada 816b           3330 	sst.b	r13,1[ep]
00000adc 80077a02*      3331 	br	.L1659
                        3332 .L1622:
                        3333 --658: 	    		break;
                        3334 --659: 	    	case LEDLAMP_CRUISE_YELLOW: /* */
                        3335 --660: 	    		state->lrm_lamp.BYTES.LRM_TYPE_CRUISE_YELLOW=Value;
                        3336 --line660
                        3337 ..lin.D.3A.5CRenesas_Electronics.5CD1x_RGL.5Crgl_ghs_D1Lx_obj_V1.2E2.2E0.5Cvlib.5Capp.5Cgfx_apps.5Csimple_draw_d1l2.5Ctarget.5Cd1lx_mango_ghs.5Cobj.5Cled.158::
                        3338 .LDWlin158:
00000ae0 6168           3339 	sld.bu	1[ep],r13
00000ae2 c15e0100       3340 	andi	1,r1,r11
00000ae6 c75a           3341 	shl	7,r11
00000ae8 cd6e7f00       3342 	andi	127,r13,r13
00000aec 0b69           3343 	or	r11,r13
00000aee 816b           3344 	sst.b	r13,1[ep]
00000af0 80076602*      3345 	br	.L1659
                        3346 .L1623:
                        3347 --661: 	    		break;
                        3348 --662: 	    	case LEDLAMP_FUELSEGMENT8:/* 8*/
                        3349 --663: 	    		state->lrm_lamp.BYTES.LRM_TYPE_FUELSEGMENT8=Value;
                        3350 --line663
                        3351 ..lin.D.3A.5CRenesas_Electronics.5CD1x_RGL.5Crgl_ghs_D1Lx_obj_V1.2E2.2E0.5Cvlib.5Capp.5Cgfx_apps.5Csimple_draw_d1l2.5Ctarget.5Cd1lx_mango_ghs.5Cobj.5Cled.159::
                        3352 .LDWlin159:
00000af4 6268           3353 	sld.bu	2[ep],r13
00000af6 c15e0100       3354 	andi	1,r1,r11

                                                                      Page 60
                                                              C:\Users\YINGAO~1\AppData\Local\Temp\gh_00007j81.si
00000afa cd6efe00       3355 	andi	254,r13,r13
00000afe 0b69           3356 	or	r11,r13
00000b00 826b           3357 	sst.b	r13,2[ep]
00000b02 80075402*      3358 	br	.L1659
                        3359 .L1624:
                        3360 --664: 	    		break;
                        3361 --665: 	    	case LEDLAMP_FUELSEGMENT7:/* 7*/
                        3362 --666: 	    		state->lrm_lamp.BYTES.LRM_TYPE_FUELSEGMENT7=Value;
                        3363 --line666
                        3364 ..lin.D.3A.5CRenesas_Electronics.5CD1x_RGL.5Crgl_ghs_D1Lx_obj_V1.2E2.2E0.5Cvlib.5Capp.5Cgfx_apps.5Csimple_draw_d1l2.5Ctarget.5Cd1lx_mango_ghs.5Cobj.5Cled.160::
                        3365 .LDWlin160:
00000b06 6268           3366 	sld.bu	2[ep],r13
00000b08 c15e0100       3367 	andi	1,r1,r11
00000b0c c15a           3368 	shl	1,r11
00000b0e cd6efd00       3369 	andi	253,r13,r13
00000b12 0b69           3370 	or	r11,r13
00000b14 826b           3371 	sst.b	r13,2[ep]
00000b16 80074002*      3372 	br	.L1659
                        3373 .L1625:
                        3374 --667: 	    		break;
                        3375 --668: 	    	case LEDLAMP_FUELSEGMENT6:/* 6 */
                        3376 --669: 	    		state->lrm_lamp.BYTES.LRM_TYPE_FUELSEGMENT6=Value;
                        3377 --line669
                        3378 ..lin.D.3A.5CRenesas_Electronics.5CD1x_RGL.5Crgl_ghs_D1Lx_obj_V1.2E2.2E0.5Cvlib.5Capp.5Cgfx_apps.5Csimple_draw_d1l2.5Ctarget.5Cd1lx_mango_ghs.5Cobj.5Cled.161::
                        3379 .LDWlin161:
00000b1a 6268           3380 	sld.bu	2[ep],r13
00000b1c c15e0100       3381 	andi	1,r1,r11
00000b20 c25a           3382 	shl	2,r11
00000b22 cd6efb00       3383 	andi	251,r13,r13
00000b26 0b69           3384 	or	r11,r13
00000b28 826b           3385 	sst.b	r13,2[ep]
00000b2a 80072c02*      3386 	br	.L1659
                        3387 .L1626:
                        3388 --670: 	    		break;
                        3389 --671: 	    	case LEDLAMP_FUELSEGMENT5:/* 5 */
                        3390 --672: 	    		state->lrm_lamp.BYTES.LRM_TYPE_FUELSEGMENT5=Value;
                        3391 --line672
                        3392 ..lin.D.3A.5CRenesas_Electronics.5CD1x_RGL.5Crgl_ghs_D1Lx_obj_V1.2E2.2E0.5Cvlib.5Capp.5Cgfx_apps.5Csimple_draw_d1l2.5Ctarget.5Cd1lx_mango_ghs.5Cobj.5Cled.162::
                        3393 .LDWlin162:
00000b2e 6268           3394 	sld.bu	2[ep],r13
00000b30 c15e0100       3395 	andi	1,r1,r11
00000b34 c35a           3396 	shl	3,r11
00000b36 cd6ef700       3397 	andi	247,r13,r13
00000b3a 0b69           3398 	or	r11,r13
00000b3c 826b           3399 	sst.b	r13,2[ep]
00000b3e 80071802*      3400 	br	.L1659
                        3401 .L1627:
                        3402 --673: 	    		break;
                        3403 --674: 	    	case LEDLAMP_FUELSEGMENT4:/* 4 */
                        3404 --675: 	    		state->lrm_lamp.BYTES.LRM_TYPE_FUELSEGMENT4=Value;
                        3405 --line675
                        3406 ..lin.D.3A.5CRenesas_Electronics.5CD1x_RGL.5Crgl_ghs_D1Lx_obj_V1.2E2.2E0.5Cvlib.5Capp.5Cgfx_apps.5Csimple_draw_d1l2.5Ctarget.5Cd1lx_mango_ghs.5Cobj.5Cled.163::
                        3407 .LDWlin163:
00000b42 6268           3408 	sld.bu	2[ep],r13
00000b44 c15e0100       3409 	andi	1,r1,r11
00000b48 c45a           3410 	shl	4,r11
00000b4a cd6eef00       3411 	andi	239,r13,r13
00000b4e 0b69           3412 	or	r11,r13
00000b50 826b           3413 	sst.b	r13,2[ep]
00000b52 80070402*      3414 	br	.L1659
                        3415 .L1628:

                                                                      Page 61
                                                              C:\Users\YINGAO~1\AppData\Local\Temp\gh_00007j81.si
                        3416 --676: 	    		break;
                        3417 --677: 	    	case LEDLAMP_FUELSEGMENT3:/* 3 */
                        3418 --678: 	    		state->lrm_lamp.BYTES.LRM_TYPE_FUELSEGMENT3=Value;
                        3419 --line678
                        3420 ..lin.D.3A.5CRenesas_Electronics.5CD1x_RGL.5Crgl_ghs_D1Lx_obj_V1.2E2.2E0.5Cvlib.5Capp.5Cgfx_apps.5Csimple_draw_d1l2.5Ctarget.5Cd1lx_mango_ghs.5Cobj.5Cled.164::
                        3421 .LDWlin164:
00000b56 6268           3422 	sld.bu	2[ep],r13
00000b58 c15e0100       3423 	andi	1,r1,r11
00000b5c c55a           3424 	shl	5,r11
00000b5e cd6edf00       3425 	andi	223,r13,r13
00000b62 0b69           3426 	or	r11,r13
00000b64 826b           3427 	sst.b	r13,2[ep]
00000b66 8007f001*      3428 	br	.L1659
                        3429 .L1629:
                        3430 --679: 	    		break;
                        3431 --680: 	    	case LEDLAMP_FUELSEGMENT2:/* 2 */
                        3432 --681: 	    		state->lrm_lamp.BYTES.LRM_TYPE_FUELSEGMENT2=Value;
                        3433 --line681
                        3434 ..lin.D.3A.5CRenesas_Electronics.5CD1x_RGL.5Crgl_ghs_D1Lx_obj_V1.2E2.2E0.5Cvlib.5Capp.5Cgfx_apps.5Csimple_draw_d1l2.5Ctarget.5Cd1lx_mango_ghs.5Cobj.5Cled.165::
                        3435 .LDWlin165:
00000b6a 6268           3436 	sld.bu	2[ep],r13
00000b6c c15e0100       3437 	andi	1,r1,r11
00000b70 c65a           3438 	shl	6,r11
00000b72 cd6ebf00       3439 	andi	191,r13,r13
00000b76 0b69           3440 	or	r11,r13
00000b78 826b           3441 	sst.b	r13,2[ep]
00000b7a 8007dc01*      3442 	br	.L1659
                        3443 .L1630:
                        3444 --682: 	    		break;
                        3445 --683: 	    	case LEDLAMP_FUELSEGMENT1:/* 1 */
                        3446 --684: 	    		state->lrm_lamp.BYTES.LRM_TYPE_FUELSEGMENT1=Value;
                        3447 --line684
                        3448 ..lin.D.3A.5CRenesas_Electronics.5CD1x_RGL.5Crgl_ghs_D1Lx_obj_V1.2E2.2E0.5Cvlib.5Capp.5Cgfx_apps.5Csimple_draw_d1l2.5Ctarget.5Cd1lx_mango_ghs.5Cobj.5Cled.166::
                        3449 .LDWlin166:
00000b7e 6268           3450 	sld.bu	2[ep],r13
00000b80 c15e0100       3451 	andi	1,r1,r11
00000b84 c75a           3452 	shl	7,r11
00000b86 cd6e7f00       3453 	andi	127,r13,r13
00000b8a 0b69           3454 	or	r11,r13
00000b8c 826b           3455 	sst.b	r13,2[ep]
00000b8e 8007c801*      3456 	br	.L1659
                        3457 .L1631:
                        3458 --685: 	    		break;
                        3459 --686: 	    	case LEDLAMP_TEMPSEGMENT1:/* 1 */
                        3460 --687: 	    		state->lrm_lamp.BYTES.LRM_TYPE_TEMPSEGMENT1=Value;
                        3461 --line687
                        3462 ..lin.D.3A.5CRenesas_Electronics.5CD1x_RGL.5Crgl_ghs_D1Lx_obj_V1.2E2.2E0.5Cvlib.5Capp.5Cgfx_apps.5Csimple_draw_d1l2.5Ctarget.5Cd1lx_mango_ghs.5Cobj.5Cled.167::
                        3463 .LDWlin167:
00000b92 6368           3464 	sld.bu	3[ep],r13
00000b94 c15e0100       3465 	andi	1,r1,r11
00000b98 cd6efe00       3466 	andi	254,r13,r13
00000b9c 0b69           3467 	or	r11,r13
00000b9e 836b           3468 	sst.b	r13,3[ep]
00000ba0 8007b601*      3469 	br	.L1659
                        3470 .L1632:
                        3471 --688: 	    		break;
                        3472 --689: 	    	case LEDLAMP_TEMPSEGMENT8:/* 8 */
                        3473 --690: 	    		state->lrm_lamp.BYTES.LRM_TYPE_TEMPSEGMENT8=Value;
                        3474 --line690
                        3475 ..lin.D.3A.5CRenesas_Electronics.5CD1x_RGL.5Crgl_ghs_D1Lx_obj_V1.2E2.2E0.5Cvlib.5Capp.5Cgfx_apps.5Csimple_draw_d1l2.5Ctarget.5Cd1lx_mango_ghs.5Cobj.5Cled.168::
                        3476 .LDWlin168:

                                                                      Page 62
                                                              C:\Users\YINGAO~1\AppData\Local\Temp\gh_00007j81.si
00000ba4 6368           3477 	sld.bu	3[ep],r13
00000ba6 c15e0100       3478 	andi	1,r1,r11
00000baa c15a           3479 	shl	1,r11
00000bac cd6efd00       3480 	andi	253,r13,r13
00000bb0 0b69           3481 	or	r11,r13
00000bb2 836b           3482 	sst.b	r13,3[ep]
00000bb4 8007a201*      3483 	br	.L1659
                        3484 .L1633:
                        3485 --691: 	    		break;
                        3486 --692: 	    	case LEDLAMP_TEMPSEGMENT7:/*7 */
                        3487 --693: 	    		state->lrm_lamp.BYTES.LRM_TYPE_TEMPSEGMENT7=Value;
                        3488 --line693
                        3489 ..lin.D.3A.5CRenesas_Electronics.5CD1x_RGL.5Crgl_ghs_D1Lx_obj_V1.2E2.2E0.5Cvlib.5Capp.5Cgfx_apps.5Csimple_draw_d1l2.5Ctarget.5Cd1lx_mango_ghs.5Cobj.5Cled.169::
                        3490 .LDWlin169:
00000bb8 6368           3491 	sld.bu	3[ep],r13
00000bba c15e0100       3492 	andi	1,r1,r11
00000bbe c25a           3493 	shl	2,r11
00000bc0 cd6efb00       3494 	andi	251,r13,r13
00000bc4 0b69           3495 	or	r11,r13
00000bc6 836b           3496 	sst.b	r13,3[ep]
00000bc8 80078e01*      3497 	br	.L1659
                        3498 .L1634:
                        3499 --694: 	    		break;
                        3500 --695: 	    	case LEDLAMP_TEMPSEGMENT6:/* 6 */
                        3501 --696: 	    		state->lrm_lamp.BYTES.LRM_TYPE_TEMPSEGMENT6=Value;
                        3502 --line696
                        3503 ..lin.D.3A.5CRenesas_Electronics.5CD1x_RGL.5Crgl_ghs_D1Lx_obj_V1.2E2.2E0.5Cvlib.5Capp.5Cgfx_apps.5Csimple_draw_d1l2.5Ctarget.5Cd1lx_mango_ghs.5Cobj.5Cled.170::
                        3504 .LDWlin170:
00000bcc 6368           3505 	sld.bu	3[ep],r13
00000bce c15e0100       3506 	andi	1,r1,r11
00000bd2 c35a           3507 	shl	3,r11
00000bd4 cd6ef700       3508 	andi	247,r13,r13
00000bd8 0b69           3509 	or	r11,r13
00000bda 836b           3510 	sst.b	r13,3[ep]
00000bdc 80077a01*      3511 	br	.L1659
                        3512 .L1635:
                        3513 --697: 	    		break;
                        3514 --698: 	    	case LEDLAMP_TEMPSEGMENT5:/* 5 */
                        3515 --699: 	    		state->lrm_lamp.BYTES.LRM_TYPE_TEMPSEGMENT5=Value;
                        3516 --line699
                        3517 ..lin.D.3A.5CRenesas_Electronics.5CD1x_RGL.5Crgl_ghs_D1Lx_obj_V1.2E2.2E0.5Cvlib.5Capp.5Cgfx_apps.5Csimple_draw_d1l2.5Ctarget.5Cd1lx_mango_ghs.5Cobj.5Cled.171::
                        3518 .LDWlin171:
00000be0 6368           3519 	sld.bu	3[ep],r13
00000be2 c15e0100       3520 	andi	1,r1,r11
00000be6 c45a           3521 	shl	4,r11
00000be8 cd6eef00       3522 	andi	239,r13,r13
00000bec 0b69           3523 	or	r11,r13
00000bee 836b           3524 	sst.b	r13,3[ep]
00000bf0 80076601*      3525 	br	.L1659
                        3526 .L1636:
                        3527 --700: 	    		break;
                        3528 --701: 	    	case LEDLAMP_TEMPSEGMENT4:/* 4 */
                        3529 --702: 	    		state->lrm_lamp.BYTES.LRM_TYPE_TEMPSEGMENT4=Value;
                        3530 --line702
                        3531 ..lin.D.3A.5CRenesas_Electronics.5CD1x_RGL.5Crgl_ghs_D1Lx_obj_V1.2E2.2E0.5Cvlib.5Capp.5Cgfx_apps.5Csimple_draw_d1l2.5Ctarget.5Cd1lx_mango_ghs.5Cobj.5Cled.172::
                        3532 .LDWlin172:
00000bf4 6368           3533 	sld.bu	3[ep],r13
00000bf6 c15e0100       3534 	andi	1,r1,r11
00000bfa c55a           3535 	shl	5,r11
00000bfc cd6edf00       3536 	andi	223,r13,r13
00000c00 0b69           3537 	or	r11,r13

                                                                      Page 63
                                                              C:\Users\YINGAO~1\AppData\Local\Temp\gh_00007j81.si
00000c02 836b           3538 	sst.b	r13,3[ep]
00000c04 80075201*      3539 	br	.L1659
                        3540 .L1637:
                        3541 --703: 	    		break;
                        3542 --704: 	    	case LEDLAMP_TEMPSEGMENT3:/* 3 */
                        3543 --705: 	    		state->lrm_lamp.BYTES.LRM_TYPE_TEMPSEGMENT3=Value;
                        3544 --line705
                        3545 ..lin.D.3A.5CRenesas_Electronics.5CD1x_RGL.5Crgl_ghs_D1Lx_obj_V1.2E2.2E0.5Cvlib.5Capp.5Cgfx_apps.5Csimple_draw_d1l2.5Ctarget.5Cd1lx_mango_ghs.5Cobj.5Cled.173::
                        3546 .LDWlin173:
00000c08 6368           3547 	sld.bu	3[ep],r13
00000c0a c15e0100       3548 	andi	1,r1,r11
00000c0e c65a           3549 	shl	6,r11
00000c10 cd6ebf00       3550 	andi	191,r13,r13
00000c14 0b69           3551 	or	r11,r13
00000c16 836b           3552 	sst.b	r13,3[ep]
00000c18 80073e01*      3553 	br	.L1659
                        3554 .L1638:
                        3555 --706: 	    		break;
                        3556 --707: 	    	case LEDLAMP_TEMPSEGMENT2:/* 2 */
                        3557 --708: 	    		state->lrm_lamp.BYTES.LRM_TYPE_TEMPSEGMENT2=Value;
                        3558 --line708
                        3559 ..lin.D.3A.5CRenesas_Electronics.5CD1x_RGL.5Crgl_ghs_D1Lx_obj_V1.2E2.2E0.5Cvlib.5Capp.5Cgfx_apps.5Csimple_draw_d1l2.5Ctarget.5Cd1lx_mango_ghs.5Cobj.5Cled.174::
                        3560 .LDWlin174:
00000c1c 6368           3561 	sld.bu	3[ep],r13
00000c1e c15e0100       3562 	andi	1,r1,r11
00000c22 c75a           3563 	shl	7,r11
00000c24 cd6e7f00       3564 	andi	127,r13,r13
00000c28 0b69           3565 	or	r11,r13
00000c2a 836b           3566 	sst.b	r13,3[ep]
00000c2c 80072a01*      3567 	br	.L1659
                        3568 .L1639:
                        3569 --709: 	    		break;
                        3570 --710: 	    	case LEDLAMP_TEMP_WARN_RED:
                        3571 --711: 	    		state->lrm_lamp.BYTES.LRM_TYPE_TEMP_WARN=Value;			
                        3572 --line711
                        3573 ..lin.D.3A.5CRenesas_Electronics.5CD1x_RGL.5Crgl_ghs_D1Lx_obj_V1.2E2.2E0.5Cvlib.5Capp.5Cgfx_apps.5Csimple_draw_d1l2.5Ctarget.5Cd1lx_mango_ghs.5Cobj.5Cled.175::
                        3574 .LDWlin175:
00000c30 6468           3575 	sld.bu	4[ep],r13
00000c32 c15e0100       3576 	andi	1,r1,r11
00000c36 cd6efe00       3577 	andi	254,r13,r13
00000c3a 0b69           3578 	or	r11,r13
00000c3c 846b           3579 	sst.b	r13,4[ep]
                        3580 --712: 	    	case LEDLAMP_ASS_ACTIVE:/* SSB */
                        3581 .L1640:
                        3582 --713: 	    		state->lrm_lamp.BYTES.LRM_TYPE_SSB_ACTIVE=Value;
00000c3e 6468           3583 	sld.bu	4[ep],r13
00000c40 c15e0100       3584 	andi	1,r1,r11
00000c44 c15a           3585 	shl	1,r11
00000c46 cd6efd00       3586 	andi	253,r13,r13
00000c4a 0b69           3587 	or	r11,r13
00000c4c 846b           3588 	sst.b	r13,4[ep]
00000c4e 80070801*      3589 	br	.L1659
                        3590 .L1643:
                        3591 --714: 	    		break;
                        3592 --715: 	    	case LEDLAMP_ASS_ERROR:/* */
                        3593 --716: 	    		state->lrm_lamp.BYTES.LRM_TYPE_SSB_ERROR=Value;
                        3594 --line716
                        3595 ..lin.D.3A.5CRenesas_Electronics.5CD1x_RGL.5Crgl_ghs_D1Lx_obj_V1.2E2.2E0.5Cvlib.5Capp.5Cgfx_apps.5Csimple_draw_d1l2.5Ctarget.5Cd1lx_mango_ghs.5Cobj.5Cled.176::
                        3596 .LDWlin176:
00000c52 6468           3597 	sld.bu	4[ep],r13
00000c54 c15e0100       3598 	andi	1,r1,r11

                                                                      Page 64
                                                              C:\Users\YINGAO~1\AppData\Local\Temp\gh_00007j81.si
00000c58 c25a           3599 	shl	2,r11
00000c5a cd6efb00       3600 	andi	251,r13,r13
00000c5e 0b69           3601 	or	r11,r13
00000c60 846b           3602 	sst.b	r13,4[ep]
00000c62 a57d*          3603 	br	.L1659
                        3604 .L1644:
                        3605 --717: 	    		break;
                        3606 --718: 	    	case LEDLAMP_ECOMODE:/*  */
                        3607 --719: 	    		state->lrm_lamp.BYTES.LRM_TYPE_ECOMODE=Value;
                        3608 --line719
                        3609 ..lin.D.3A.5CRenesas_Electronics.5CD1x_RGL.5Crgl_ghs_D1Lx_obj_V1.2E2.2E0.5Cvlib.5Capp.5Cgfx_apps.5Csimple_draw_d1l2.5Ctarget.5Cd1lx_mango_ghs.5Cobj.5Cled.177::
                        3610 .LDWlin177:
00000c64 6468           3611 	sld.bu	4[ep],r13
00000c66 c15e0100       3612 	andi	1,r1,r11
00000c6a c35a           3613 	shl	3,r11
00000c6c cd6ef700       3614 	andi	247,r13,r13
00000c70 0b69           3615 	or	r11,r13
00000c72 846b           3616 	sst.b	r13,4[ep]
00000c74 9575*          3617 	br	.L1659
                        3618 .L1645:
                        3619 --720: 	    		break;
                        3620 --721: 			case LEDLAMP_SIDELIGHTS:/* */
                        3621 --722: 	    		state->lrm_lamp.BYTES.LRM_TYPE_SIDELIGHTS=Value;
                        3622 --line722
                        3623 ..lin.D.3A.5CRenesas_Electronics.5CD1x_RGL.5Crgl_ghs_D1Lx_obj_V1.2E2.2E0.5Cvlib.5Capp.5Cgfx_apps.5Csimple_draw_d1l2.5Ctarget.5Cd1lx_mango_ghs.5Cobj.5Cled.178::
                        3624 .LDWlin178:
00000c76 6468           3625 	sld.bu	4[ep],r13
00000c78 c15e0100       3626 	andi	1,r1,r11
00000c7c c45a           3627 	shl	4,r11
00000c7e cd6eef00       3628 	andi	239,r13,r13
00000c82 0b69           3629 	or	r11,r13
00000c84 846b           3630 	sst.b	r13,4[ep]
00000c86 856d*          3631 	br	.L1659
                        3632 .L1646:
                        3633 --723: 	    		break;
                        3634 --724: 			case LEDLAMP_FRONT_FOG:/*  */
                        3635 --725: 	    		state->lrm_lamp.BYTES.LRM_TYPE_FRONG_FOG=Value;
                        3636 --line725
                        3637 ..lin.D.3A.5CRenesas_Electronics.5CD1x_RGL.5Crgl_ghs_D1Lx_obj_V1.2E2.2E0.5Cvlib.5Capp.5Cgfx_apps.5Csimple_draw_d1l2.5Ctarget.5Cd1lx_mango_ghs.5Cobj.5Cled.179::
                        3638 .LDWlin179:
00000c88 6468           3639 	sld.bu	4[ep],r13
00000c8a c15e0100       3640 	andi	1,r1,r11
00000c8e c55a           3641 	shl	5,r11
00000c90 cd6edf00       3642 	andi	223,r13,r13
00000c94 0b69           3643 	or	r11,r13
00000c96 846b           3644 	sst.b	r13,4[ep]
00000c98 f55d*          3645 	br	.L1659
                        3646 .L1647:
                        3647 --726: 	    		break;
                        3648 --727: 	    	case LEDLAMP_HDC_GREEN:/* */
                        3649 --728: 	    		state->lrm_lamp.BYTES.LRM_TYPE_HDC_GREEN=Value;
                        3650 --line728
                        3651 ..lin.D.3A.5CRenesas_Electronics.5CD1x_RGL.5Crgl_ghs_D1Lx_obj_V1.2E2.2E0.5Cvlib.5Capp.5Cgfx_apps.5Csimple_draw_d1l2.5Ctarget.5Cd1lx_mango_ghs.5Cobj.5Cled.180::
                        3652 .LDWlin180:
00000c9a 6468           3653 	sld.bu	4[ep],r13
00000c9c c15e0100       3654 	andi	1,r1,r11
00000ca0 c65a           3655 	shl	6,r11
00000ca2 cd6ebf00       3656 	andi	191,r13,r13
00000ca6 0b69           3657 	or	r11,r13
00000ca8 846b           3658 	sst.b	r13,4[ep]
00000caa e555*          3659 	br	.L1659

                                                                      Page 65
                                                              C:\Users\YINGAO~1\AppData\Local\Temp\gh_00007j81.si
                        3660 .L1648:
                        3661 --729: 	    		break;
                        3662 --730: 	    	case LEDLAMP_HDC_YELLOW: /* Reserved Bits */
                        3663 --731: 	    		state->lrm_lamp.BYTES.LRM_TYPE_HDC_YELLOW=Value;
                        3664 --line731
                        3665 ..lin.D.3A.5CRenesas_Electronics.5CD1x_RGL.5Crgl_ghs_D1Lx_obj_V1.2E2.2E0.5Cvlib.5Capp.5Cgfx_apps.5Csimple_draw_d1l2.5Ctarget.5Cd1lx_mango_ghs.5Cobj.5Cled.181::
                        3666 .LDWlin181:
00000cac 6468           3667 	sld.bu	4[ep],r13
00000cae c15e0100       3668 	andi	1,r1,r11
00000cb2 c75a           3669 	shl	7,r11
00000cb4 cd6e7f00       3670 	andi	127,r13,r13
00000cb8 0b69           3671 	or	r11,r13
00000cba 846b           3672 	sst.b	r13,4[ep]
00000cbc d54d*          3673 	br	.L1659
                        3674 .L1649:
                        3675 --732: 	    		break;
                        3676 --733: 			case LEDLAMP_ALARM: /* Reserved Bits */
                        3677 --734: 	    		state->lrm_lamp.BYTES.LRM_TYPE_THEFTPROOF=Value;
                        3678 --line734
                        3679 ..lin.D.3A.5CRenesas_Electronics.5CD1x_RGL.5Crgl_ghs_D1Lx_obj_V1.2E2.2E0.5Cvlib.5Capp.5Cgfx_apps.5Csimple_draw_d1l2.5Ctarget.5Cd1lx_mango_ghs.5Cobj.5Cled.182::
                        3680 .LDWlin182:
00000cbe 6568           3681 	sld.bu	5[ep],r13
00000cc0 c15e0100       3682 	andi	1,r1,r11
00000cc4 cd6efe00       3683 	andi	254,r13,r13
00000cc8 0b69           3684 	or	r11,r13
00000cca 856b           3685 	sst.b	r13,5[ep]
00000ccc d545*          3686 	br	.L1659
                        3687 .L1650:
                        3688 --735: 	    		break;
                        3689 --736: 	    	case LEDLAMP_EPS_ERROR:/* EPS */
                        3690 --737: 	    		state->lrm_lamp.BYTES.LRM_TYPE_EPS_ERROR=Value;
                        3691 --line737
                        3692 ..lin.D.3A.5CRenesas_Electronics.5CD1x_RGL.5Crgl_ghs_D1Lx_obj_V1.2E2.2E0.5Cvlib.5Capp.5Cgfx_apps.5Csimple_draw_d1l2.5Ctarget.5Cd1lx_mango_ghs.5Cobj.5Cled.183::
                        3693 .LDWlin183:
00000cce 6568           3694 	sld.bu	5[ep],r13
00000cd0 c15e0100       3695 	andi	1,r1,r11
00000cd4 c15a           3696 	shl	1,r11
00000cd6 cd6efd00       3697 	andi	253,r13,r13
00000cda 0b69           3698 	or	r11,r13
00000cdc 856b           3699 	sst.b	r13,5[ep]
00000cde c53d*          3700 	br	.L1659
                        3701 .L1651:
                        3702 --738: 	    		break;
                        3703 --739: 	    	case LEDLAMP_EPS_WARN:/* EPS */
                        3704 --740: 	    		state->lrm_lamp.BYTES.LRM_TYPE_EPS_WARN=Value;
                        3705 --line740
                        3706 ..lin.D.3A.5CRenesas_Electronics.5CD1x_RGL.5Crgl_ghs_D1Lx_obj_V1.2E2.2E0.5Cvlib.5Capp.5Cgfx_apps.5Csimple_draw_d1l2.5Ctarget.5Cd1lx_mango_ghs.5Cobj.5Cled.184::
                        3707 .LDWlin184:
00000ce0 6568           3708 	sld.bu	5[ep],r13
00000ce2 c15e0100       3709 	andi	1,r1,r11
00000ce6 c25a           3710 	shl	2,r11
00000ce8 cd6efb00       3711 	andi	251,r13,r13
00000cec 0b69           3712 	or	r11,r13
00000cee 856b           3713 	sst.b	r13,5[ep]
00000cf0 b535*          3714 	br	.L1659
                        3715 .L1652:
                        3716 --741: 	    		break;
                        3717 --742: 	    	case LEDLAMP_CHARGER:/* */
                        3718 --743: 	    		state->lrm_lamp.BYTES.LRM_TYPE_CHARGER=Value;
                        3719 --line743
                        3720 ..lin.D.3A.5CRenesas_Electronics.5CD1x_RGL.5Crgl_ghs_D1Lx_obj_V1.2E2.2E0.5Cvlib.5Capp.5Cgfx_apps.5Csimple_draw_d1l2.5Ctarget.5Cd1lx_mango_ghs.5Cobj.5Cled.185::

                                                                      Page 66
                                                              C:\Users\YINGAO~1\AppData\Local\Temp\gh_00007j81.si
                        3721 .LDWlin185:
00000cf2 6568           3722 	sld.bu	5[ep],r13
00000cf4 c15e0100       3723 	andi	1,r1,r11
00000cf8 c35a           3724 	shl	3,r11
00000cfa cd6ef700       3725 	andi	247,r13,r13
00000cfe 0b69           3726 	or	r11,r13
00000d00 856b           3727 	sst.b	r13,5[ep]
00000d02 a52d*          3728 	br	.L1659
                        3729 .L1653:
                        3730 --744: 	    		break;
                        3731 --745: 	    	case LEDLAMP_EMS_ERROR:/* */
                        3732 --746: 	    		state->lrm_lamp.BYTES.LRM_TYPE_EMS_ERROR=Value;
                        3733 --line746
                        3734 ..lin.D.3A.5CRenesas_Electronics.5CD1x_RGL.5Crgl_ghs_D1Lx_obj_V1.2E2.2E0.5Cvlib.5Capp.5Cgfx_apps.5Csimple_draw_d1l2.5Ctarget.5Cd1lx_mango_ghs.5Cobj.5Cled.186::
                        3735 .LDWlin186:
00000d04 6568           3736 	sld.bu	5[ep],r13
00000d06 c15e0100       3737 	andi	1,r1,r11
00000d0a c45a           3738 	shl	4,r11
00000d0c cd6eef00       3739 	andi	239,r13,r13
00000d10 0b69           3740 	or	r11,r13
00000d12 856b           3741 	sst.b	r13,5[ep]
00000d14 9525*          3742 	br	.L1659
                        3743 .L1654:
                        3744 --747: 	    		break;
                        3745 --748: 	    	case LEDLAMP_EMISSION_ERROR:/*  */
                        3746 --749: 	    		state->lrm_lamp.BYTES.LRM_TYPE_EMISSION_ERROR=Value;
                        3747 --line749
                        3748 ..lin.D.3A.5CRenesas_Electronics.5CD1x_RGL.5Crgl_ghs_D1Lx_obj_V1.2E2.2E0.5Cvlib.5Capp.5Cgfx_apps.5Csimple_draw_d1l2.5Ctarget.5Cd1lx_mango_ghs.5Cobj.5Cled.187::
                        3749 .LDWlin187:
00000d16 6568           3750 	sld.bu	5[ep],r13
00000d18 c15e0100       3751 	andi	1,r1,r11
00000d1c c55a           3752 	shl	5,r11
00000d1e cd6edf00       3753 	andi	223,r13,r13
00000d22 0b69           3754 	or	r11,r13
00000d24 856b           3755 	sst.b	r13,5[ep]
00000d26 851d*          3756 	br	.L1659
                        3757 .L1655:
                        3758 --750: 	    		break;
                        3759 --751: 			case LEDLAMP_FUELPRESURE_LOW:/*  */
                        3760 --752: 	    		state->lrm_lamp.BYTES.LRM_TYPE_FUELPRESURE_LOW=Value;
                        3761 --line752
                        3762 ..lin.D.3A.5CRenesas_Electronics.5CD1x_RGL.5Crgl_ghs_D1Lx_obj_V1.2E2.2E0.5Cvlib.5Capp.5Cgfx_apps.5Csimple_draw_d1l2.5Ctarget.5Cd1lx_mango_ghs.5Cobj.5Cled.188::
                        3763 .LDWlin188:
00000d28 6568           3764 	sld.bu	5[ep],r13
00000d2a c15e0100       3765 	andi	1,r1,r11
00000d2e c65a           3766 	shl	6,r11
00000d30 cd6ebf00       3767 	andi	191,r13,r13
00000d34 0b69           3768 	or	r11,r13
00000d36 856b           3769 	sst.b	r13,5[ep]
00000d38 f50d*          3770 	br	.L1659
                        3771 .L1656:
                        3772 --753: 	    		break;
                        3773 --754: 	    	case LEDLAMP_TURNRIGHT:/* */
                        3774 --755: 	    		state->lrm_lamp.BYTES.LRM_TYPE_TURNRIGHT=Value;
                        3775 --line755
                        3776 ..lin.D.3A.5CRenesas_Electronics.5CD1x_RGL.5Crgl_ghs_D1Lx_obj_V1.2E2.2E0.5Cvlib.5Capp.5Cgfx_apps.5Csimple_draw_d1l2.5Ctarget.5Cd1lx_mango_ghs.5Cobj.5Cled.189::
                        3777 .LDWlin189:
00000d3a 6568           3778 	sld.bu	5[ep],r13
00000d3c c15e0100       3779 	andi	1,r1,r11
00000d40 c75a           3780 	shl	7,r11
00000d42 cd6e7f00       3781 	andi	127,r13,r13

                                                                      Page 67
                                                              C:\Users\YINGAO~1\AppData\Local\Temp\gh_00007j81.si
00000d46 0b69           3782 	or	r11,r13
00000d48 856b           3783 	sst.b	r13,5[ep]
00000d4a e505*          3784 	br	.L1659
                        3785 .L1657:
                        3786 --756: 	    		break;
                        3787 --757: 	    	case LEDLAMP_ASS:/* */
                        3788 --758: 	    		state->assLamp=Value;
                        3789 --line758
                        3790 ..lin.D.3A.5CRenesas_Electronics.5CD1x_RGL.5Crgl_ghs_D1Lx_obj_V1.2E2.2E0.5Cvlib.5Capp.5Cgfx_apps.5Csimple_draw_d1l2.5Ctarget.5Cd1lx_mango_ghs.5Cobj.5Cled.190::
                        3791 .LDWlin190:
00000d4c 860b           3792 	sst.b	r1,6[ep]
00000d4e c505*          3793 	br	.L1659
                        3794 .L1658:
                        3795 --759: 	    		break;
                        3796 --760: 				
                        3797 --761: 			default:
                        3798 --762: 				res =  FALSE;
                        3799 --line762
                        3800 ..lin.D.3A.5CRenesas_Electronics.5CD1x_RGL.5Crgl_ghs_D1Lx_obj_V1.2E2.2E0.5Cvlib.5Capp.5Cgfx_apps.5Csimple_draw_d1l2.5Ctarget.5Cd1lx_mango_ghs.5Cobj.5Cled.191::
                        3801 .LDWlin191:
00000d50 0072           3802 	mov	0,r14
00000d52 a505*          3803 	br	.L1659
                        3804 .L1603:
                        3805 --763: 				break;
                        3806 --764: 		}
                        3807 --765:     }
                        3808 --766: 	else
                        3809 --767: 	{
                        3810 --768: 		res =  FALSE;
                        3811 --line768
                        3812 ..lin.D.3A.5CRenesas_Electronics.5CD1x_RGL.5Crgl_ghs_D1Lx_obj_V1.2E2.2E0.5Cvlib.5Capp.5Cgfx_apps.5Csimple_draw_d1l2.5Ctarget.5Cd1lx_mango_ghs.5Cobj.5Cled.192::
                        3813 .LDWlin192:
00000d54 0072           3814 	mov	0,r14
                        3815 .L1659:
                        3816 --769: 	}
                        3817 --771:     return res;
00000d56 0e50           3818 	mov	r14,r10
                        3819 --	    .ef
                        3820 .LDW92:
00000d58 7f00           3821 	jmp	[lp]
                        3822 	.type	_led_SetLampStatus,@function
                        3823 	.size	_led_SetLampStatus,.-_led_SetLampStatus
                        3824 	.type	_led_SetLampStatus..D.3A.5CRenesas_Electronics.5CD1x_RGL.5Crgl_ghs_D1Lx_obj_V1.2E2.2E0.5Cvlib.5Capp.5Cgfx_apps.5Csimple_draw_d1l2.5Ctarget.5Cd1lx_mango_ghs.5Cobj.5Cled.,@function
                        3825 	.size	_led_SetLampStatus..D.3A.5CRenesas_Electronics.5CD1x_RGL.5Crgl_ghs_D1Lx_obj_V1.2E2.2E0.5Cvlib.5Capp.5Cgfx_apps.5Csimple_draw_d1l2.5Ctarget.5Cd1lx_mango_ghs.5Cobj.5Cled.,.-_led_SetLampStatus..D.3A.5CRenesas_Electronics.5CD1x_RGL.5Crgl_ghs_D1Lx_obj_V1.2E2.2E0.5Cvlib.5Capp.5Cgfx_apps.5Csimple_draw_d1l2.5Ctarget.5Cd1lx_mango_ghs.5Cobj.5Cled.
                        3826 	.align	2
                        3827 .LDW03:
                        3828 --_res	r14	local
                        3829 
                        3830 --_state	ep	param
                        3831 --_lamp	r12	param
                        3832 --_Value	r1	param
                        3833 
                        3834 	.section ".bss","awb"
                        3835 .L1878:
                        3836 	.type	.L1878,@object
                        3837 	.size	.L1878,0
                        3838 	.data
                        3839 	.ghsnote jtable,2097156,.L1880,.L1880,.L1880,50
                        3840 	.text
                        3841 
                        3842 --772: }

                                                                      Page 68
                                                              C:\Users\YINGAO~1\AppData\Local\Temp\gh_00007j81.si
                        3843 
                        3844 --774: /**************************************************
                        3845 --775: *Function :led_EventProcess
                        3846 --776: *Description: process event from STSMG,only change led_state when differ with the newest state.
                        3847 --777: *Parameters:none
                        3848 --778: *Returns:
                        3849 --779:               TRUE:means  there is a warn
                        3850 --780:               FALSE:means no warn exist
                        3851 --782: **create&Verlog:
                        3852 --783: *Author Name liuyingying  Date:2016-11-25    Ver:01
                        3853 --784: ***************************************************/
                        3854 --785: static void led_EventProcess( void )
                        3855 	.align	2
                        3856 	.align	2
                        3857 	.global	_led_EventProcess..D.3A.5CRenesas_Electronics.5CD1x_RGL.5Crgl_ghs_D1Lx_obj_V1.2E2.2E0.5Cvlib.5Capp.5Cgfx_apps.5Csimple_draw_d1l2.5Ctarget.5Cd1lx_mango_ghs.5Cobj.5Cled.
                        3858 _led_EventProcess..D.3A.5CRenesas_Electronics.5CD1x_RGL.5Crgl_ghs_D1Lx_obj_V1.2E2.2E0.5Cvlib.5Capp.5Cgfx_apps.5Csimple_draw_d1l2.5Ctarget.5Cd1lx_mango_ghs.5Cobj.5Cled.:
                        3859 _led_EventProcess:
00000d5a 9c07e170       3860 	prepare	{r25,r26,r27,r28,r29,r31},14
00000d5e 3d0600000000*  3861 	mov	_led_State,r29
                        3862 --	    .bf
                        3863 .LDW13:
                        3864 --786: {
                        3865 --787:     U8 res = FALSE;
00000d64 43070300       3866 	st.b	zero,3[sp]
00000d68 005a           3867 	mov	0,r11
                        3868 --789:     U8 group = 0;
00000d6a 00d2           3869 	mov	0,r26
                        3870 --790:     U8 pos = 0;
00000d6c 00ca           3871 	mov	0,r25
                        3872 --792:     LedEventData_ST curEvent;
                        3873 --794:     LED_EVENT_ENUM i,j, indtem = INDEX_LED_ALL;
00000d6e 205e4400       3874 	movea	68,zero,r11
00000d72 635f0900       3875 	st.w	r11,8[sp]
                        3876 --795:     
                        3877 --796:     LEDLamp_ENUM lampIndex = LEDLAMP_NONE;
00000d76 00da           3878 	mov	0,r27
                        3879 --798:     LEDEventPriority_ENUM pri = PRIORITY_NONE;
00000d78 63071900       3880 	st.w	zero,24[sp]
00000d7c 005a           3881 	mov	0,r11
                        3882 --801:     res = STSMG_GetEventLed(&curEvent);
00000d7e 23362800       3883 	movea	40,sp,r6
                        3884 	jarl	_STSMG_GetEventLed,lp
                        3884 <EXPANSION BEGIN>
                        3884 jarl22 _STSMG_GetEventLed , lp 
00000d82 80ff0000*      3884 <EXPANSION END>
00000d86 43570300       3885 	st.b	r10,3[sp]
                        3886 --803:     if (RET_OK == res)
                        3887 --line803
                        3888 ..lin.D.3A.5CRenesas_Electronics.5CD1x_RGL.5Crgl_ghs_D1Lx_obj_V1.2E2.2E0.5Cvlib.5Capp.5Cgfx_apps.5Csimple_draw_d1l2.5Ctarget.5Cd1lx_mango_ghs.5Cobj.5Cled.193::
                        3889 .LDWlin193:
00000d8a a35f0300       3890 	ld.bu	3[sp],r11
00000d8e 615a           3891 	cmp	1,r11
00000d90 ea07df05*      3892 	bne	.L2285
                        3893 --804:     {
                        3894 --805:         /*CAN BE OPTIMIZE LATER*/
                        3895 --806:         /* led_dataMask */
                        3896 --807:         for (i = INDEX_LED_NULL+1; i < INDEX_LED_ALL; i++)
                        3897 --line807
                        3898 ..lin.D.3A.5CRenesas_Electronics.5CD1x_RGL.5Crgl_ghs_D1Lx_obj_V1.2E2.2E0.5Cvlib.5Capp.5Cgfx_apps.5Csimple_draw_d1l2.5Ctarget.5Cd1lx_mango_ghs.5Cobj.5Cled.194::
                        3899 .LDWlin194:
00000d94 015a           3900 	mov	1,r11

                                                                      Page 69
                                                              C:\Users\YINGAO~1\AppData\Local\Temp\gh_00007j81.si
00000d96 635f0d00       3901 	st.w	r11,12[sp]
00000d9a 0000           3902 	nop
                        3903 .L2210:
                        3904 --808:         {
                        3905 --809:             group = j /STSMG_EVENT_FLAG_TYPE;
00000d9c 1c08           3906 	mov	r28,r1
00000d9e bf0a           3907 	sar	31,r1
00000da0 9b0a           3908 	shr	27,r1
00000da2 dc09           3909 	add	r28,r1
00000da4 a50a           3910 	sar	5,r1
00000da6 c1d6ff00       3911 	andi	255,r1,r26
00000daa 9a00           3912 	zxb	r26
                        3913 --810:             pos = j - (group * STSMG_EVENT_FLAG_TYPE);
00000dac 1a70           3914 	mov	r26,r14
00000dae c572           3915 	shl	5,r14
00000db0 1c08           3916 	mov	r28,r1
00000db2 ae09           3917 	sub	r14,r1
00000db4 c1ceff00       3918 	andi	255,r1,r25
00000db8 9900           3919 	zxb	r25
                        3920 --811:             if (FALSE == GET_BIT(led_dataMask.FlagMap[group], pos))//led_dataMask.FlagMap;
00000dba 1a70           3921 	mov	r26,r14
00000dbc c272           3922 	shl	2,r14
00000dbe 3e0600000000*  3923 	mov	_led_dataMask+4,ep
00000dc4 cef1           3924 	add	r14,ep
00000dc6 010a           3925 	mov	1,r1
00000dc8 0075           3926 	sld.w	0[ep],r14
00000dca f90fc208       3927 	shl	r25,r1,r1
00000dce 4e09           3928 	and	r14,r1
00000dd0 da0d*          3929 	bne	.L2213
                        3930 --812:             {
                        3931 --813:                 CLR_BIT(curEvent.FlagMap[group], pos);
                        3932 --line813
                        3933 ..lin.D.3A.5CRenesas_Electronics.5CD1x_RGL.5Crgl_ghs_D1Lx_obj_V1.2E2.2E0.5Cvlib.5Capp.5Cgfx_apps.5Csimple_draw_d1l2.5Ctarget.5Cd1lx_mango_ghs.5Cobj.5Cled.195::
                        3934 .LDWlin195:
00000dd2 010a           3935 	mov	1,r1
00000dd4 1a68           3936 	mov	r26,r13
00000dd6 f90fc208       3937 	shl	r25,r1,r1
00000dda 23f62c00       3938 	movea	44,sp,ep
00000dde c26a           3939 	shl	2,r13
00000de0 2170           3940 	not	r1,r14
00000de2 cdf1           3941 	add	r13,ep
00000de4 000d           3942 	sld.w	0[ep],r1
00000de6 4e09           3943 	and	r14,r1
00000de8 010d           3944 	sst.w	r1,0[ep]
                        3945 .L2213:
                        3946 --814:             }
                        3947 --815: 			else
                        3948 --816: 			{
00000dea 235f0d00       3949 	ld.w	12[sp],r11
00000dee 415a           3950 	add	1,r11
00000df0 635f0d00       3951 	st.w	r11,12[sp]
00000df4 235f0d00       3952 	ld.w	12[sp],r11
00000df8 0b06bcff       3953 	addi	-68,r11,zero
00000dfc 86d5*          3954 	blt	.L2210
                        3955 --817: 			}
                        3956 --818:         }
                        3957 --820:         /*NEW EVENT TRIGGER*/
                        3958 --821:         if (0 != memcmp(&curEvent, &led_EventData,sizeof(LedEventData_ST)))
                        3959 --line821
                        3960 ..lin.D.3A.5CRenesas_Electronics.5CD1x_RGL.5Crgl_ghs_D1Lx_obj_V1.2E2.2E0.5Cvlib.5Capp.5Cgfx_apps.5Csimple_draw_d1l2.5Ctarget.5Cd1lx_mango_ghs.5Cobj.5Cled.196::
                        3961 .LDWlin196:

                                                                      Page 70
                                                              C:\Users\YINGAO~1\AppData\Local\Temp\gh_00007j81.si
00000dfe 23362800       3962 	movea	40,sp,r6
00000e02 20461000       3963 	movea	16,zero,r8
00000e06 270600000000*  3964 	mov	_led_EventData,r7
                        3965 	jarl	_memcmp,lp
                        3965 <EXPANSION BEGIN>
                        3965 jarl22 _memcmp , lp 
00000e0c 80ff0000*      3965 <EXPANSION END>
00000e10 e051           3966 	cmp	zero,r10
00000e12 e2075d05*      3967 	be	.L2285
                        3968 --822:         {
                        3969 --823:         	for (i = INDEX_LED_NULL+1; i < INDEX_LED_ALL; i++)
                        3970 --line823
                        3971 ..lin.D.3A.5CRenesas_Electronics.5CD1x_RGL.5Crgl_ghs_D1Lx_obj_V1.2E2.2E0.5Cvlib.5Capp.5Cgfx_apps.5Csimple_draw_d1l2.5Ctarget.5Cd1lx_mango_ghs.5Cobj.5Cled.197::
                        3972 .LDWlin197:
00000e16 015a           3973 	mov	1,r11
00000e18 635f0d00       3974 	st.w	r11,12[sp]
00000e1c 0000           3975 	nop
                        3976 .L2218:
                        3977 --824:         	{
                        3978 --825:                    lampIndex = led_Matrix[i].index;                                      //lampIndex = LEDLAMP_CRUISE_GREEN;
00000e1e 230f0d00       3979 	ld.w	12[sp],r1
00000e22 2b0600000000*  3980 	mov	_led_Matrix,r11
00000e28 c40a           3981 	shl	4,r1
00000e2a 01f0           3982 	mov	r1,ep
00000e2c cbf1           3983 	add	r11,ep
00000e2e 02dd           3984 	sld.w	4[ep],r27
                        3985 --827:                    pri= led_Matrix[i].priority;
00000e30 230f0d00       3986 	ld.w	12[sp],r1
00000e34 2b0600000000*  3987 	mov	_led_Matrix,r11
00000e3a c40a           3988 	shl	4,r1
00000e3c 01f0           3989 	mov	r1,ep
00000e3e cbf1           3990 	add	r11,ep
00000e40 0065           3991 	sld.w	0[ep],r12
00000e42 63671900       3992 	st.w	r12,24[sp]
                        3993 --828:                    indtem = INDEX_LED_ALL;
00000e46 205e4400       3994 	movea	68,zero,r11
00000e4a 635f0900       3995 	st.w	r11,8[sp]
                        3996 --830:                     for(j = i; j < INDEX_LED_ALL; j++)
00000e4e 23e70d00       3997 	ld.w	12[sp],r28
00000e52 d545*          3998 	br	.L2222
                        3999 .L2221:
                        4000 --831:                     {
                        4001 --832:                         if (lampIndex ==led_Matrix[j].index)
                        4002 --line832
                        4003 ..lin.D.3A.5CRenesas_Electronics.5CD1x_RGL.5Crgl_ghs_D1Lx_obj_V1.2E2.2E0.5Cvlib.5Capp.5Cgfx_apps.5Csimple_draw_d1l2.5Ctarget.5Cd1lx_mango_ghs.5Cobj.5Cled.198::
                        4004 .LDWlin198:
00000e54 1cf0           4005 	mov	r28,ep
00000e56 c4f2           4006 	shl	4,ep
00000e58 2b0600000000*  4007 	mov	_led_Matrix,r11
00000e5e cbf1           4008 	add	r11,ep
00000e60 020d           4009 	sld.w	4[ep],r1
00000e62 e1d9           4010 	cmp	r1,r27
00000e64 aa3d*          4011 	bne	.L2223
                        4012 --833:                         {
                        4013 --834:                             group = j /STSMG_EVENT_FLAG_TYPE;
                        4014 --line834
                        4015 ..lin.D.3A.5CRenesas_Electronics.5CD1x_RGL.5Crgl_ghs_D1Lx_obj_V1.2E2.2E0.5Cvlib.5Capp.5Cgfx_apps.5Csimple_draw_d1l2.5Ctarget.5Cd1lx_mango_ghs.5Cobj.5Cled.199::
                        4016 .LDWlin199:
00000e66 1c08           4017 	mov	r28,r1
00000e68 bf0a           4018 	sar	31,r1
00000e6a 9b0a           4019 	shr	27,r1

                                                                      Page 71
                                                              C:\Users\YINGAO~1\AppData\Local\Temp\gh_00007j81.si
00000e6c dc09           4020 	add	r28,r1
00000e6e a50a           4021 	sar	5,r1
00000e70 c1d6ff00       4022 	andi	255,r1,r26
00000e74 9a00           4023 	zxb	r26
                        4024 --835:                             pos = j - (group * STSMG_EVENT_FLAG_TYPE);
00000e76 1a70           4025 	mov	r26,r14
00000e78 c572           4026 	shl	5,r14
00000e7a 1c08           4027 	mov	r28,r1
00000e7c ae09           4028 	sub	r14,r1
00000e7e c1ceff00       4029 	andi	255,r1,r25
00000e82 9900           4030 	zxb	r25
                        4031 --836:                             if (TRUE ==GET_BIT(curEvent.FlagMap[group], pos))
00000e84 1a70           4032 	mov	r26,r14
00000e86 c272           4033 	shl	2,r14
00000e88 23f62c00       4034 	movea	44,sp,ep
00000e8c 010a           4035 	mov	1,r1
00000e8e cef1           4036 	add	r14,ep
00000e90 f90fc208       4037 	shl	r25,r1,r1
00000e94 0075           4038 	sld.w	0[ep],r14
00000e96 4e09           4039 	and	r14,r1
00000e98 9225*          4040 	be	.L2220
                        4041 --837:                             {
                        4042 --838:                                 if (led_Matrix[j].priority > pri)
                        4043 --line838
                        4044 ..lin.D.3A.5CRenesas_Electronics.5CD1x_RGL.5Crgl_ghs_D1Lx_obj_V1.2E2.2E0.5Cvlib.5Capp.5Cgfx_apps.5Csimple_draw_d1l2.5Ctarget.5Cd1lx_mango_ghs.5Cobj.5Cled.200::
                        4045 .LDWlin200:
00000e9a 1cf0           4046 	mov	r28,ep
00000e9c c4f2           4047 	shl	4,ep
00000e9e 2b0600000000*  4048 	mov	_led_Matrix,r11
00000ea4 23671900       4049 	ld.w	24[sp],r12
00000ea8 cbf1           4050 	add	r11,ep
00000eaa 000d           4051 	sld.w	0[ep],r1
00000eac ec09           4052 	cmp	r12,r1
00000eae d70d*          4053 	ble	.L2227
                        4054 --839:                                 {
                        4055 --840:                                     pri= led_Matrix[j].priority;
                        4056 --line840
                        4057 ..lin.D.3A.5CRenesas_Electronics.5CD1x_RGL.5Crgl_ghs_D1Lx_obj_V1.2E2.2E0.5Cvlib.5Capp.5Cgfx_apps.5Csimple_draw_d1l2.5Ctarget.5Cd1lx_mango_ghs.5Cobj.5Cled.201::
                        4058 .LDWlin201:
00000eb0 1cf0           4059 	mov	r28,ep
00000eb2 c4f2           4060 	shl	4,ep
00000eb4 2b0600000000*  4061 	mov	_led_Matrix,r11
00000eba cbf1           4062 	add	r11,ep
00000ebc 0065           4063 	sld.w	0[ep],r12
00000ebe 63671900       4064 	st.w	r12,24[sp]
                        4065 --841:                                     indtem = j;
00000ec2 63e70900       4066 	st.w	r28,8[sp]
00000ec6 a50d*          4067 	br	.L2220
                        4068 .L2227:
                        4069 --842:                                 }
                        4070 --843:                                 else
                        4071 --844:                                 {
                        4072 --845:                                     if (INDEX_LED_ALL == indtem)
                        4073 --line845
                        4074 ..lin.D.3A.5CRenesas_Electronics.5CD1x_RGL.5Crgl_ghs_D1Lx_obj_V1.2E2.2E0.5Cvlib.5Capp.5Cgfx_apps.5Csimple_draw_d1l2.5Ctarget.5Cd1lx_mango_ghs.5Cobj.5Cled.202::
                        4075 .LDWlin202:
00000ec8 235f0900       4076 	ld.w	8[sp],r11
00000ecc 0b06bcff       4077 	addi	-68,r11,zero
00000ed0 da05*          4078 	bne	.L2220
                        4079 --846: 									{
                        4080 --847:                                         indtem = j;

                                                                      Page 72
                                                              C:\Users\YINGAO~1\AppData\Local\Temp\gh_00007j81.si
                        4081 --line847
                        4082 ..lin.D.3A.5CRenesas_Electronics.5CD1x_RGL.5Crgl_ghs_D1Lx_obj_V1.2E2.2E0.5Cvlib.5Capp.5Cgfx_apps.5Csimple_draw_d1l2.5Ctarget.5Cd1lx_mango_ghs.5Cobj.5Cled.203::
                        4083 .LDWlin203:
00000ed2 63e70900       4084 	st.w	r28,8[sp]
00000ed6 a505*          4085 	br	.L2220
                        4086 .L2223:
                        4087 --848:                                     }
                        4088 --849: 									else
                        4089 --850: 									{
                        4090 --851: 									}
                        4091 --852:                                 }
                        4092 --853:                             }
                        4093 --854:                             else
                        4094 --855:                             {
                        4095 --856:                             }
                        4096 --857:                         }
                        4097 --858:                         else
                        4098 --859:                         {
                        4099 --860:                             break;
                        4100 --line860
                        4101 ..lin.D.3A.5CRenesas_Electronics.5CD1x_RGL.5Crgl_ghs_D1Lx_obj_V1.2E2.2E0.5Cvlib.5Capp.5Cgfx_apps.5Csimple_draw_d1l2.5Ctarget.5Cd1lx_mango_ghs.5Cobj.5Cled.204::
                        4102 .LDWlin204:
00000ed8 d505*          4103 	br	.L2235
                        4104 .L2220:
                        4105 --line830
                        4106 ..lin.D.3A.5CRenesas_Electronics.5CD1x_RGL.5Crgl_ghs_D1Lx_obj_V1.2E2.2E0.5Cvlib.5Capp.5Cgfx_apps.5Csimple_draw_d1l2.5Ctarget.5Cd1lx_mango_ghs.5Cobj.5Cled.205::
                        4107 .LDWlin205:
00000eda 41e2           4108 	add	1,r28
                        4109 .L2222:
00000edc 1c06bcff       4110 	addi	-68,r28,zero
00000ee0 a6bd*          4111 	blt	.L2221
                        4112 .L2235:
                        4113 --861:                         }
                        4114 --862:                     }
                        4115 --864:                     i = j - 1;
                        4116 --line864
                        4117 ..lin.D.3A.5CRenesas_Electronics.5CD1x_RGL.5Crgl_ghs_D1Lx_obj_V1.2E2.2E0.5Cvlib.5Capp.5Cgfx_apps.5Csimple_draw_d1l2.5Ctarget.5Cd1lx_mango_ghs.5Cobj.5Cled.206::
                        4118 .LDWlin206:
00000ee2 1c5effff       4119 	addi	-1,r28,r11
00000ee6 635f0d00       4120 	st.w	r11,12[sp]
                        4121 --865:                     group = indtem /STSMG_EVENT_FLAG_TYPE;
00000eea 23770900       4122 	ld.w	8[sp],r14
00000eee 0e08           4123 	mov	r14,r1
00000ef0 bf0a           4124 	sar	31,r1
00000ef2 9b0a           4125 	shr	27,r1
00000ef4 ce09           4126 	add	r14,r1
00000ef6 a50a           4127 	sar	5,r1
00000ef8 c1d6ff00       4128 	andi	255,r1,r26
00000efc 9a00           4129 	zxb	r26
                        4130 --866:                     pos = indtem - (group * STSMG_EVENT_FLAG_TYPE);
00000efe 230f0900       4131 	ld.w	8[sp],r1
00000f02 1a70           4132 	mov	r26,r14
00000f04 c572           4133 	shl	5,r14
00000f06 ae09           4134 	sub	r14,r1
00000f08 c1ceff00       4135 	andi	255,r1,r25
00000f0c 9900           4136 	zxb	r25
                        4137 --867:                     if (TRUE ==GET_BIT(curEvent.FlagMap[group], pos))
00000f0e 1a70           4138 	mov	r26,r14
00000f10 c272           4139 	shl	2,r14
00000f12 23f62c00       4140 	movea	44,sp,ep
00000f16 010a           4141 	mov	1,r1

                                                                      Page 73
                                                              C:\Users\YINGAO~1\AppData\Local\Temp\gh_00007j81.si
00000f18 cef1           4142 	add	r14,ep
00000f1a f90fc208       4143 	shl	r25,r1,r1
00000f1e 0075           4144 	sld.w	0[ep],r14
00000f20 4e09           4145 	and	r14,r1
00000f22 e2079d03*      4146 	be	.L2237
                        4147 --868:                     {
                        4148 --869:                         switch (lampIndex) 
                        4149 --line869
                        4150 ..lin.D.3A.5CRenesas_Electronics.5CD1x_RGL.5Crgl_ghs_D1Lx_obj_V1.2E2.2E0.5Cvlib.5Capp.5Cgfx_apps.5Csimple_draw_d1l2.5Ctarget.5Cd1lx_mango_ghs.5Cobj.5Cled.207::
                        4151 .LDWlin207:
00000f26 1b08           4152 	mov	r27,r1
00000f28 0106d6ff       4153 	addi	-42,r1,zero
00000f2c e205*          4154 	be	.L2241
00000f2e 0106d5ff       4155 	addi	-43,r1,zero
00000f32 ea073302*      4156 	bne	.L2262
00000f36 a575*          4157 	br	.L2248
                        4158 .L2241:
                        4159 --870: 						{
                        4160 --872:                             case LEDLAMP_EPS_ERROR:
                        4161 --873: 								
                        4162 --874:                                 led_SetLampStatus(&led_State,lampIndex,TRUE);
                        4163 --line874
                        4164 ..lin.D.3A.5CRenesas_Electronics.5CD1x_RGL.5Crgl_ghs_D1Lx_obj_V1.2E2.2E0.5Cvlib.5Capp.5Cgfx_apps.5Csimple_draw_d1l2.5Ctarget.5Cd1lx_mango_ghs.5Cobj.5Cled.208::
                        4165 .LDWlin208:
00000f38 260600000000*  4166 	mov	_led_State,r6
00000f3e 1b38           4167 	mov	r27,r7
00000f40 0142           4168 	mov	1,r8
                        4169 	jarl	_led_SetLampStatus,lp
                        4169 <EXPANSION BEGIN>
                        4169 jarl22 _led_SetLampStatus , lp 
00000f42 bfff8af9*      4169 <EXPANSION END>
                        4170 --876:                                 led_data[lampIndex].prm = led_Matrix[indtem].data;
                        4171 --line876
                        4172 ..lin.D.3A.5CRenesas_Electronics.5CD1x_RGL.5Crgl_ghs_D1Lx_obj_V1.2E2.2E0.5Cvlib.5Capp.5Cgfx_apps.5Csimple_draw_d1l2.5Ctarget.5Cd1lx_mango_ghs.5Cobj.5Cled.209::
                        4173 .LDWlin209:
00000f46 23770900       4174 	ld.w	8[sp],r14
00000f4a 1b08           4175 	mov	r27,r1
00000f4c 2c0600000000*  4176 	mov	_led_Matrix,r12
00000f52 c40a           4177 	shl	4,r1
00000f54 2b0600000000*  4178 	mov	_led_data,r11
00000f5a c472           4179 	shl	4,r14
00000f5c cb09           4180 	add	r11,r1
00000f5e cc71           4181 	add	r12,r14
00000f60 480a           4182 	add	8,r1
00000f62 0ef60800       4183 	addi	8,r14,ep
00000f66 0075           4184 	sld.w	0[ep],r14
00000f68 026d           4185 	sld.w	4[ep],r13
00000f6a 61770100       4186 	st.w	r14,0[r1]
00000f6e 616f0500       4187 	st.w	r13,4[r1]
                        4188 --878: 								if (0xffff ==led_data[lampIndex].prm.Duration)	
00000f72 1bf0           4189 	mov	r27,ep
00000f74 c4f2           4190 	shl	4,ep
00000f76 2b0600000000*  4191 	mov	_led_data,r11
00000f7c cbf1           4192 	add	r11,ep
00000f7e 060d           4193 	sld.w	12[ep],r1
00000f80 a106ffff       4194 	xori	65535,r1,zero
00000f84 ba0d*          4195 	bne	.L2242
                        4196 --879: 							  	{
                        4197 --880: 							  	    led_data[lampIndex].TotalCnt =0xffff;
                        4198 --line880
                        4199 ..lin.D.3A.5CRenesas_Electronics.5CD1x_RGL.5Crgl_ghs_D1Lx_obj_V1.2E2.2E0.5Cvlib.5Capp.5Cgfx_apps.5Csimple_draw_d1l2.5Ctarget.5Cd1lx_mango_ghs.5Cobj.5Cled.210::

                                                                      Page 74
                                                              C:\Users\YINGAO~1\AppData\Local\Temp\gh_00007j81.si
                        4200 .LDWlin210:
00000f86 1bf0           4201 	mov	r27,ep
00000f88 c4f2           4202 	shl	4,ep
00000f8a 2b0600000000*  4203 	mov	_led_data,r11
00000f90 cbf1           4204 	add	r11,ep
00000f92 800effff       4205 	ori	65535,zero,r1
00000f96 800c           4206 	sst.h	r1,0[ep]
00000f98 c51d*          4207 	br	.L2244
                        4208 .L2242:
                        4209 --881: 							  	}
                        4210 --882: 								else 
                        4211 --883: 								{
                        4212 --884: 				                    led_data[lampIndex].TotalCnt = ((led_data[lampIndex].prm.Duration)
                        4213 --line884
                        4214 ..lin.D.3A.5CRenesas_Electronics.5CD1x_RGL.5Crgl_ghs_D1Lx_obj_V1.2E2.2E0.5Cvlib.5Capp.5Cgfx_apps.5Csimple_draw_d1l2.5Ctarget.5Cd1lx_mango_ghs.5Cobj.5Cled.211::
                        4215 .LDWlin211:
00000f9a 1b08           4216 	mov	r27,r1
00000f9c c40a           4217 	shl	4,r1
00000f9e 2b0600000000*  4218 	mov	_led_data,r11
00000fa4 01f0           4219 	mov	r1,ep
00000fa6 0b68           4220 	mov	r11,r13
00000fa8 cdf1           4221 	add	r13,ep
00000faa 0170           4222 	mov	r1,r14
00000fac 68f0           4223 	sld.bu	8[ep],ep
00000fae 0b60           4224 	mov	r11,r12
00000fb0 3f0600000000*  4225 	mov	_led_counter,lp
00000fb6 cc71           4226 	add	r12,r14
00000fb8 cb09           4227 	add	r11,r1
00000fba 2e770d00       4228 	ld.w	12[r14],r14
00000fbe dff1           4229 	add	lp,ep
00000fc0 6068           4230 	sld.bu	0[ep],r13
00000fc2 ed6e3200       4231 	mulhi	50,r13,r13
00000fc6 ed77fe02       4232 	divqu	r13,r14,zero
00000fca 8172           4233 	shr	1,r14
00000fcc 61770000       4234 	st.h	r14,0[r1]
                        4235 .L2244:
                        4236 --885: 				                        /(led_counter[led_data[lampIndex].prm.Frequency]*REVERSE_FACTOR))/2;
                        4237 --886: 								}
                        4238 --888:                                 if (0 !=led_data[lampIndex].TotalCnt) 
00000fd0 1bf0           4239 	mov	r27,ep
00000fd2 c4f2           4240 	shl	4,ep
00000fd4 2b0600000000*  4241 	mov	_led_data,r11
00000fda cbf1           4242 	add	r11,ep
00000fdc 7008           4243 	sld.hu	0[ep],r1
00000fde e009           4244 	cmp	zero,r1
00000fe0 920d*          4245 	be	.L2245
                        4246 --889:                                 {
                        4247 --890:                                     led_data[lampIndex].done = FALSE;
                        4248 --line890
                        4249 ..lin.D.3A.5CRenesas_Electronics.5CD1x_RGL.5Crgl_ghs_D1Lx_obj_V1.2E2.2E0.5Cvlib.5Capp.5Cgfx_apps.5Csimple_draw_d1l2.5Ctarget.5Cd1lx_mango_ghs.5Cobj.5Cled.212::
                        4250 .LDWlin212:
00000fe2 1bf0           4251 	mov	r27,ep
00000fe4 c4f2           4252 	shl	4,ep
00000fe6 2b0600000000*  4253 	mov	_led_data,r11
00000fec cbf1           4254 	add	r11,ep
00000fee 8203           4255 	sst.b	zero,2[ep]
00000ff0 b515*          4256 	br	.L2247
                        4257 .L2245:
                        4258 --891:                                   
                        4259 --892:                                 }                    
                        4260 --893:                                 else

                                                                      Page 75
                                                              C:\Users\YINGAO~1\AppData\Local\Temp\gh_00007j81.si
                        4261 --894:                                 {
                        4262 --895:                                 	led_data[lampIndex].Level = led_GetLampDataByIndex(&led_State,lampIndex);
                        4263 --line895
                        4264 ..lin.D.3A.5CRenesas_Electronics.5CD1x_RGL.5Crgl_ghs_D1Lx_obj_V1.2E2.2E0.5Cvlib.5Capp.5Cgfx_apps.5Csimple_draw_d1l2.5Ctarget.5Cd1lx_mango_ghs.5Cobj.5Cled.213::
                        4265 .LDWlin213:
00000ff2 1b08           4266 	mov	r27,r1
00000ff4 c40a           4267 	shl	4,r1
00000ff6 2b0600000000*  4268 	mov	_led_data,r11
00000ffc cb09           4269 	add	r11,r1
00000ffe 1b38           4270 	mov	r27,r7
00001000 630f1d00       4271 	st.w	r1,28[sp]
00001004 260600000000*  4272 	mov	_led_State,r6
                        4273 	jarl	_led_GetLampDataByIndex,lp
                        4273 <EXPANSION BEGIN>
                        4273 jarl22 _led_GetLampDataByIndex , lp 
0000100a bfff74f5*      4273 <EXPANSION END>
0000100e 236f1d00       4274 	ld.w	28[sp],r13
00001012 4d570300       4275 	st.b	r10,3[r13]
                        4276 .L2247:
                        4277 --line897
                        4278 ..lin.D.3A.5CRenesas_Electronics.5CD1x_RGL.5Crgl_ghs_D1Lx_obj_V1.2E2.2E0.5Cvlib.5Capp.5Cgfx_apps.5Csimple_draw_d1l2.5Ctarget.5Cd1lx_mango_ghs.5Cobj.5Cled.214::
                        4279 .LDWlin214:
00001016 8007ea02*      4280 	br	.L2277
                        4281 .L2248:
                        4282 --896:                                 }
                        4283 --897:                                 break;
                        4284 --898:                                 
                        4285 --899:                             case LEDLAMP_EPS_WARN:
                        4286 --900:                                 if (FALSE ==led_data[LEDLAMP_EPS_ERROR].done)
                        4287 --line900
                        4288 ..lin.D.3A.5CRenesas_Electronics.5CD1x_RGL.5Crgl_ghs_D1Lx_obj_V1.2E2.2E0.5Cvlib.5Capp.5Cgfx_apps.5Csimple_draw_d1l2.5Ctarget.5Cd1lx_mango_ghs.5Cobj.5Cled.215::
                        4289 .LDWlin215:
0000101a 9d0fdb02       4290 	ld.bu	730[r29],r1
0000101e e009           4291 	cmp	zero,r1
00001020 fa15*          4292 	bne	.L2249
                        4293 --901:                                 {
                        4294 --902: 		                            led_SetLampStatus(&led_State,LEDLAMP_EPS_WARN,FALSE);
                        4295 --line902
                        4296 ..lin.D.3A.5CRenesas_Electronics.5CD1x_RGL.5Crgl_ghs_D1Lx_obj_V1.2E2.2E0.5Cvlib.5Capp.5Cgfx_apps.5Csimple_draw_d1l2.5Ctarget.5Cd1lx_mango_ghs.5Cobj.5Cled.216::
                        4297 .LDWlin216:
00001022 260600000000*  4298 	mov	_led_State,r6
00001028 203e2b00       4299 	movea	43,zero,r7
0000102c 0042           4300 	mov	0,r8
                        4301 	jarl	_led_SetLampStatus,lp
                        4301 <EXPANSION BEGIN>
                        4301 jarl22 _led_SetLampStatus , lp 
0000102e bfff9ef8*      4301 <EXPANSION END>
                        4302 --903: 		                            led_data[LEDLAMP_EPS_WARN].Level = led_GetLampDataByIndex(&led_State,LEDLAMP_EPS_WARN);
                        4303 --line903
                        4304 ..lin.D.3A.5CRenesas_Electronics.5CD1x_RGL.5Crgl_ghs_D1Lx_obj_V1.2E2.2E0.5Cvlib.5Capp.5Cgfx_apps.5Csimple_draw_d1l2.5Ctarget.5Cd1lx_mango_ghs.5Cobj.5Cled.217::
                        4305 .LDWlin217:
00001032 260600000000*  4306 	mov	_led_State,r6
00001038 203e2b00       4307 	movea	43,zero,r7
                        4308 	jarl	_led_GetLampDataByIndex,lp
                        4308 <EXPANSION BEGIN>
                        4308 jarl22 _led_GetLampDataByIndex , lp 
0000103c bfff42f5*      4308 <EXPANSION END>
00001040 5d57eb02       4309 	st.b	r10,747[r29]
                        4310 --904: 		                            led_data[LEDLAMP_EPS_WARN].done =TRUE;
                        4311 --line904
                        4312 ..lin.D.3A.5CRenesas_Electronics.5CD1x_RGL.5Crgl_ghs_D1Lx_obj_V1.2E2.2E0.5Cvlib.5Capp.5Cgfx_apps.5Csimple_draw_d1l2.5Ctarget.5Cd1lx_mango_ghs.5Cobj.5Cled.218::

                                                                      Page 76
                                                              C:\Users\YINGAO~1\AppData\Local\Temp\gh_00007j81.si
                        4313 .LDWlin218:
00001044 010a           4314 	mov	1,r1
00001046 5d0fea02       4315 	st.b	r1,746[r29]
                        4316 --905:                                     break;
0000104a 8007b602*      4317 	br	.L2277
                        4318 .L2249:
                        4319 --906:                                 }
                        4320 --908:                                 if (TRUE ==led_data[LEDLAMP_EPS_ERROR].Level)
                        4321 --line908
                        4322 ..lin.D.3A.5CRenesas_Electronics.5CD1x_RGL.5Crgl_ghs_D1Lx_obj_V1.2E2.2E0.5Cvlib.5Capp.5Cgfx_apps.5Csimple_draw_d1l2.5Ctarget.5Cd1lx_mango_ghs.5Cobj.5Cled.219::
                        4323 .LDWlin219:
0000104e bd0fdb02       4324 	ld.bu	731[r29],r1
00001052 610a           4325 	cmp	1,r1
00001054 fa15*          4326 	bne	.L2253
                        4327 --909:                                 {
                        4328 --910: 	 	                            led_SetLampStatus(&led_State,LEDLAMP_EPS_WARN,FALSE);
                        4329 --line910
                        4330 ..lin.D.3A.5CRenesas_Electronics.5CD1x_RGL.5Crgl_ghs_D1Lx_obj_V1.2E2.2E0.5Cvlib.5Capp.5Cgfx_apps.5Csimple_draw_d1l2.5Ctarget.5Cd1lx_mango_ghs.5Cobj.5Cled.220::
                        4331 .LDWlin220:
00001056 260600000000*  4332 	mov	_led_State,r6
0000105c 203e2b00       4333 	movea	43,zero,r7
00001060 0042           4334 	mov	0,r8
                        4335 	jarl	_led_SetLampStatus,lp
                        4335 <EXPANSION BEGIN>
                        4335 jarl22 _led_SetLampStatus , lp 
00001062 bfff6af8*      4335 <EXPANSION END>
                        4336 --911: 		                            led_data[LEDLAMP_EPS_WARN].Level = led_GetLampDataByIndex(&led_State,LEDLAMP_EPS_WARN);
                        4337 --line911
                        4338 ..lin.D.3A.5CRenesas_Electronics.5CD1x_RGL.5Crgl_ghs_D1Lx_obj_V1.2E2.2E0.5Cvlib.5Capp.5Cgfx_apps.5Csimple_draw_d1l2.5Ctarget.5Cd1lx_mango_ghs.5Cobj.5Cled.221::
                        4339 .LDWlin221:
00001066 260600000000*  4340 	mov	_led_State,r6
0000106c 203e2b00       4341 	movea	43,zero,r7
                        4342 	jarl	_led_GetLampDataByIndex,lp
                        4342 <EXPANSION BEGIN>
                        4342 jarl22 _led_GetLampDataByIndex , lp 
00001070 bfff0ef5*      4342 <EXPANSION END>
00001074 5d57eb02       4343 	st.b	r10,747[r29]
                        4344 --912: 		                            led_data[LEDLAMP_EPS_WARN].done =TRUE;
                        4345 --line912
                        4346 ..lin.D.3A.5CRenesas_Electronics.5CD1x_RGL.5Crgl_ghs_D1Lx_obj_V1.2E2.2E0.5Cvlib.5Capp.5Cgfx_apps.5Csimple_draw_d1l2.5Ctarget.5Cd1lx_mango_ghs.5Cobj.5Cled.222::
                        4347 .LDWlin222:
00001078 010a           4348 	mov	1,r1
0000107a 5d0fea02       4349 	st.b	r1,746[r29]
                        4350 --913:                                    break;
0000107e 80078202*      4351 	br	.L2277
                        4352 .L2253:
                        4353 --914:                                 }
                        4354 --916:                                 led_SetLampStatus(&led_State,lampIndex,TRUE);
                        4355 --line916
                        4356 ..lin.D.3A.5CRenesas_Electronics.5CD1x_RGL.5Crgl_ghs_D1Lx_obj_V1.2E2.2E0.5Cvlib.5Capp.5Cgfx_apps.5Csimple_draw_d1l2.5Ctarget.5Cd1lx_mango_ghs.5Cobj.5Cled.223::
                        4357 .LDWlin223:
00001082 260600000000*  4358 	mov	_led_State,r6
00001088 1b38           4359 	mov	r27,r7
0000108a 0142           4360 	mov	1,r8
                        4361 	jarl	_led_SetLampStatus,lp
                        4361 <EXPANSION BEGIN>
                        4361 jarl22 _led_SetLampStatus , lp 
0000108c bfff40f8*      4361 <EXPANSION END>
                        4362 --917:                                 led_data[lampIndex].prm = led_Matrix[indtem].data;
                        4363 --line917
                        4364 ..lin.D.3A.5CRenesas_Electronics.5CD1x_RGL.5Crgl_ghs_D1Lx_obj_V1.2E2.2E0.5Cvlib.5Capp.5Cgfx_apps.5Csimple_draw_d1l2.5Ctarget.5Cd1lx_mango_ghs.5Cobj.5Cled.224::

                                                                      Page 77
                                                              C:\Users\YINGAO~1\AppData\Local\Temp\gh_00007j81.si
                        4365 .LDWlin224:
00001090 23770900       4366 	ld.w	8[sp],r14
00001094 1b08           4367 	mov	r27,r1
00001096 2c0600000000*  4368 	mov	_led_Matrix,r12
0000109c c40a           4369 	shl	4,r1
0000109e 2b0600000000*  4370 	mov	_led_data,r11
000010a4 c472           4371 	shl	4,r14
000010a6 cb09           4372 	add	r11,r1
000010a8 cc71           4373 	add	r12,r14
000010aa 480a           4374 	add	8,r1
000010ac 0ef60800       4375 	addi	8,r14,ep
000010b0 0075           4376 	sld.w	0[ep],r14
000010b2 026d           4377 	sld.w	4[ep],r13
000010b4 61770100       4378 	st.w	r14,0[r1]
000010b8 616f0500       4379 	st.w	r13,4[r1]
                        4380 --918: 								
                        4381 --919: 							    if (0xffff ==led_data[lampIndex].prm.Duration)	
000010bc 1bf0           4382 	mov	r27,ep
000010be c4f2           4383 	shl	4,ep
000010c0 2b0600000000*  4384 	mov	_led_data,r11
000010c6 cbf1           4385 	add	r11,ep
000010c8 060d           4386 	sld.w	12[ep],r1
000010ca a106ffff       4387 	xori	65535,r1,zero
000010ce ba0d*          4388 	bne	.L2256
                        4389 --920: 							    {
                        4390 --921: 							  	  led_data[lampIndex].TotalCnt =0xffff;
                        4391 --line921
                        4392 ..lin.D.3A.5CRenesas_Electronics.5CD1x_RGL.5Crgl_ghs_D1Lx_obj_V1.2E2.2E0.5Cvlib.5Capp.5Cgfx_apps.5Csimple_draw_d1l2.5Ctarget.5Cd1lx_mango_ghs.5Cobj.5Cled.225::
                        4393 .LDWlin225:
000010d0 1bf0           4394 	mov	r27,ep
000010d2 c4f2           4395 	shl	4,ep
000010d4 2b0600000000*  4396 	mov	_led_data,r11
000010da cbf1           4397 	add	r11,ep
000010dc 800effff       4398 	ori	65535,zero,r1
000010e0 800c           4399 	sst.h	r1,0[ep]
000010e2 c51d*          4400 	br	.L2258
                        4401 .L2256:
                        4402 --922: 							    }
                        4403 --923: 							    else 
                        4404 --924: 			                    {
                        4405 --925: 			                     	led_data[lampIndex].TotalCnt = ((led_data[lampIndex].prm.Duration)
                        4406 --line925
                        4407 ..lin.D.3A.5CRenesas_Electronics.5CD1x_RGL.5Crgl_ghs_D1Lx_obj_V1.2E2.2E0.5Cvlib.5Capp.5Cgfx_apps.5Csimple_draw_d1l2.5Ctarget.5Cd1lx_mango_ghs.5Cobj.5Cled.226::
                        4408 .LDWlin226:
000010e4 1b08           4409 	mov	r27,r1
000010e6 c40a           4410 	shl	4,r1
000010e8 2b0600000000*  4411 	mov	_led_data,r11
000010ee 01f0           4412 	mov	r1,ep
000010f0 0b68           4413 	mov	r11,r13
000010f2 cdf1           4414 	add	r13,ep
000010f4 0170           4415 	mov	r1,r14
000010f6 68f0           4416 	sld.bu	8[ep],ep
000010f8 0b60           4417 	mov	r11,r12
000010fa 3f0600000000*  4418 	mov	_led_counter,lp
00001100 cc71           4419 	add	r12,r14
00001102 cb09           4420 	add	r11,r1
00001104 2e770d00       4421 	ld.w	12[r14],r14
00001108 dff1           4422 	add	lp,ep
0000110a 6068           4423 	sld.bu	0[ep],r13
0000110c ed6e3200       4424 	mulhi	50,r13,r13
00001110 ed77fe02       4425 	divqu	r13,r14,zero

                                                                      Page 78
                                                              C:\Users\YINGAO~1\AppData\Local\Temp\gh_00007j81.si
00001114 8172           4426 	shr	1,r14
00001116 61770000       4427 	st.h	r14,0[r1]
                        4428 .L2258:
                        4429 --926: 			                     	/(led_counter[led_data[lampIndex].prm.Frequency]*REVERSE_FACTOR))/2;
                        4430 --927: 					            }
                        4431 --929:                                 if (0 !=led_data[lampIndex].TotalCnt) 
0000111a 1bf0           4432 	mov	r27,ep
0000111c c4f2           4433 	shl	4,ep
0000111e 2b0600000000*  4434 	mov	_led_data,r11
00001124 cbf1           4435 	add	r11,ep
00001126 7008           4436 	sld.hu	0[ep],r1
00001128 e009           4437 	cmp	zero,r1
0000112a 920d*          4438 	be	.L2259
                        4439 --930:                                 {
                        4440 --931:                                     led_data[lampIndex].done = FALSE;
                        4441 --line931
                        4442 ..lin.D.3A.5CRenesas_Electronics.5CD1x_RGL.5Crgl_ghs_D1Lx_obj_V1.2E2.2E0.5Cvlib.5Capp.5Cgfx_apps.5Csimple_draw_d1l2.5Ctarget.5Cd1lx_mango_ghs.5Cobj.5Cled.227::
                        4443 .LDWlin227:
0000112c 1bf0           4444 	mov	r27,ep
0000112e c4f2           4445 	shl	4,ep
00001130 2b0600000000*  4446 	mov	_led_data,r11
00001136 cbf1           4447 	add	r11,ep
00001138 8203           4448 	sst.b	zero,2[ep]
0000113a b515*          4449 	br	.L2261
                        4450 .L2259:
                        4451 --932:                                     //led_SetLampStatus(&led_State,LEDLAMP_EPS_WARN,FALSE);
                        4452 --933:                                 }                    
                        4453 --934:                                 else
                        4454 --935:                                 {
                        4455 --936:                                 led_data[lampIndex].Level = led_GetLampDataByIndex(&led_State,lampIndex);
                        4456 --line936
                        4457 ..lin.D.3A.5CRenesas_Electronics.5CD1x_RGL.5Crgl_ghs_D1Lx_obj_V1.2E2.2E0.5Cvlib.5Capp.5Cgfx_apps.5Csimple_draw_d1l2.5Ctarget.5Cd1lx_mango_ghs.5Cobj.5Cled.228::
                        4458 .LDWlin228:
0000113c 1b08           4459 	mov	r27,r1
0000113e c40a           4460 	shl	4,r1
00001140 2b0600000000*  4461 	mov	_led_data,r11
00001146 cb09           4462 	add	r11,r1
00001148 1b38           4463 	mov	r27,r7
0000114a 630f1d00       4464 	st.w	r1,28[sp]
0000114e 260600000000*  4465 	mov	_led_State,r6
                        4466 	jarl	_led_GetLampDataByIndex,lp
                        4466 <EXPANSION BEGIN>
                        4466 jarl22 _led_GetLampDataByIndex , lp 
00001154 bfff2af4*      4466 <EXPANSION END>
00001158 236f1d00       4467 	ld.w	28[sp],r13
0000115c 4d570300       4468 	st.b	r10,3[r13]
                        4469 .L2261:
                        4470 --line939
                        4471 ..lin.D.3A.5CRenesas_Electronics.5CD1x_RGL.5Crgl_ghs_D1Lx_obj_V1.2E2.2E0.5Cvlib.5Capp.5Cgfx_apps.5Csimple_draw_d1l2.5Ctarget.5Cd1lx_mango_ghs.5Cobj.5Cled.229::
                        4472 .LDWlin229:
00001160 8007a001*      4473 	br	.L2277
                        4474 .L2262:
                        4475 --937:                                 }
                        4476 --938: 				  	
                        4477 --939: 				  			break;
                        4478 --940: 				  
                        4479 --941:                             default:
                        4480 --942: 								if (TRUE ==GET_BIT(led_EventData.FlagMap[group], pos))
                        4481 --line942
                        4482 ..lin.D.3A.5CRenesas_Electronics.5CD1x_RGL.5Crgl_ghs_D1Lx_obj_V1.2E2.2E0.5Cvlib.5Capp.5Cgfx_apps.5Csimple_draw_d1l2.5Ctarget.5Cd1lx_mango_ghs.5Cobj.5Cled.230::
                        4483 .LDWlin230:

                                                                      Page 79
                                                              C:\Users\YINGAO~1\AppData\Local\Temp\gh_00007j81.si
00001164 1af0           4484 	mov	r26,ep
00001166 c2f2           4485 	shl	2,ep
00001168 2b0600000000*  4486 	mov	_led_EventData,r11
0000116e 0b760400       4487 	addi	4,r11,r14
00001172 010a           4488 	mov	1,r1
00001174 cef1           4489 	add	r14,ep
00001176 f90fc208       4490 	shl	r25,r1,r1
0000117a 0075           4491 	sld.w	0[ep],r14
0000117c 4e09           4492 	and	r14,r1
0000117e b205*          4493 	be	.L2266
                        4494 --943: 								{
                        4495 --944: 									break;
                        4496 --line944
                        4497 ..lin.D.3A.5CRenesas_Electronics.5CD1x_RGL.5Crgl_ghs_D1Lx_obj_V1.2E2.2E0.5Cvlib.5Capp.5Cgfx_apps.5Csimple_draw_d1l2.5Ctarget.5Cd1lx_mango_ghs.5Cobj.5Cled.231::
                        4498 .LDWlin231:
00001180 80078001*      4499 	br	.L2277
                        4500 .L2266:
                        4501 --945: 								}
                        4502 --946: 								else
                        4503 --947: 								{
                        4504 --948: 								}
                        4505 --949: 								
                        4506 --950:                                 led_SetLampStatus(&led_State,lampIndex,TRUE);
                        4507 --line950
                        4508 ..lin.D.3A.5CRenesas_Electronics.5CD1x_RGL.5Crgl_ghs_D1Lx_obj_V1.2E2.2E0.5Cvlib.5Capp.5Cgfx_apps.5Csimple_draw_d1l2.5Ctarget.5Cd1lx_mango_ghs.5Cobj.5Cled.232::
                        4509 .LDWlin232:
00001184 260600000000*  4510 	mov	_led_State,r6
0000118a 1b38           4511 	mov	r27,r7
0000118c 0142           4512 	mov	1,r8
                        4513 	jarl	_led_SetLampStatus,lp
                        4513 <EXPANSION BEGIN>
                        4513 jarl22 _led_SetLampStatus , lp 
0000118e bfff3ef7*      4513 <EXPANSION END>
                        4514 --951:                                 led_data[lampIndex].prm = led_Matrix[indtem].data;
                        4515 --line951
                        4516 ..lin.D.3A.5CRenesas_Electronics.5CD1x_RGL.5Crgl_ghs_D1Lx_obj_V1.2E2.2E0.5Cvlib.5Capp.5Cgfx_apps.5Csimple_draw_d1l2.5Ctarget.5Cd1lx_mango_ghs.5Cobj.5Cled.233::
                        4517 .LDWlin233:
00001192 23770900       4518 	ld.w	8[sp],r14
00001196 1b08           4519 	mov	r27,r1
00001198 2c0600000000*  4520 	mov	_led_Matrix,r12
0000119e c40a           4521 	shl	4,r1
000011a0 2b0600000000*  4522 	mov	_led_data,r11
000011a6 c472           4523 	shl	4,r14
000011a8 cb09           4524 	add	r11,r1
000011aa cc71           4525 	add	r12,r14
000011ac 480a           4526 	add	8,r1
000011ae 0ef60800       4527 	addi	8,r14,ep
000011b2 0075           4528 	sld.w	0[ep],r14
000011b4 026d           4529 	sld.w	4[ep],r13
000011b6 61770100       4530 	st.w	r14,0[r1]
000011ba 616f0500       4531 	st.w	r13,4[r1]
                        4532 --952: 								
                        4533 --953:                                 /*LYY ADD DURATION VIA CFG KEY*/
                        4534 --954: 								switch (indtem) 
000011be 230f0900       4535 	ld.w	8[sp],r1
000011c2 690a           4536 	cmp	9,r1
000011c4 f215*          4537 	be	.L2270
000011c6 0106caff       4538 	addi	-54,r1,zero
000011ca fa25*          4539 	bne	.L2267
                        4540 --955: 								{
                        4541 --956: 									case INDEX_LED_TPMS_FAULT_FLASH:

                                                                      Page 80
                                                              C:\Users\YINGAO~1\AppData\Local\Temp\gh_00007j81.si
                        4542 --957: 					                    led_data[lampIndex].prm.Duration = S_TO_MS(DIAG_GetTPMSLampFlaPeriod());
                        4543 --line957
                        4544 ..lin.D.3A.5CRenesas_Electronics.5CD1x_RGL.5Crgl_ghs_D1Lx_obj_V1.2E2.2E0.5Cvlib.5Capp.5Cgfx_apps.5Csimple_draw_d1l2.5Ctarget.5Cd1lx_mango_ghs.5Cobj.5Cled.234::
                        4545 .LDWlin234:
000011cc 1b08           4546 	mov	r27,r1
000011ce c40a           4547 	shl	4,r1
000011d0 2b0600000000*  4548 	mov	_led_data,r11
000011d6 cb09           4549 	add	r11,r1
000011d8 630f1d00       4550 	st.w	r1,28[sp]
                        4551 	jarl	_DIAG_GetTPMSLampFlaPeriod,lp
                        4551 <EXPANSION BEGIN>
                        4551 jarl22 _DIAG_GetTPMSLampFlaPeriod , lp 
000011dc 80ff0000*      4551 <EXPANSION END>
000011e0 236f1d00       4552 	ld.w	28[sp],r13
000011e4 200ee803       4553 	movea	1000,zero,r1
000011e8 ea0f2002       4554 	mul	r10,r1,zero
000011ec 6d0f0d00       4555 	st.w	r1,12[r13]
                        4556 --line958
                        4557 ..lin.D.3A.5CRenesas_Electronics.5CD1x_RGL.5Crgl_ghs_D1Lx_obj_V1.2E2.2E0.5Cvlib.5Capp.5Cgfx_apps.5Csimple_draw_d1l2.5Ctarget.5Cd1lx_mango_ghs.5Cobj.5Cled.235::
                        4558 .LDWlin235:
000011f0 c515*          4559 	br	.L2267
                        4560 .L2270:
                        4561 --958: 										break;
                        4562 --960: 									case INDEX_LED_BRAKE_HANDON_FLASH:
                        4563 --961: 					                    led_data[lampIndex].prm.Duration = S_TO_MS(DIAG_GetBrakeSysRemPeriod());
                        4564 --line961
                        4565 ..lin.D.3A.5CRenesas_Electronics.5CD1x_RGL.5Crgl_ghs_D1Lx_obj_V1.2E2.2E0.5Cvlib.5Capp.5Cgfx_apps.5Csimple_draw_d1l2.5Ctarget.5Cd1lx_mango_ghs.5Cobj.5Cled.236::
                        4566 .LDWlin236:
000011f2 1b08           4567 	mov	r27,r1
000011f4 c40a           4568 	shl	4,r1
000011f6 2b0600000000*  4569 	mov	_led_data,r11
000011fc cb09           4570 	add	r11,r1
000011fe 630f1d00       4571 	st.w	r1,28[sp]
                        4572 	jarl	_DIAG_GetBrakeSysRemPeriod,lp
                        4572 <EXPANSION BEGIN>
                        4572 jarl22 _DIAG_GetBrakeSysRemPeriod , lp 
00001202 80ff0000*      4572 <EXPANSION END>
00001206 236f1d00       4573 	ld.w	28[sp],r13
0000120a 200ee803       4574 	movea	1000,zero,r1
0000120e ea0f2002       4575 	mul	r10,r1,zero
00001212 6d0f0d00       4576 	st.w	r1,12[r13]
                        4577 --line962
                        4578 ..lin.D.3A.5CRenesas_Electronics.5CD1x_RGL.5Crgl_ghs_D1Lx_obj_V1.2E2.2E0.5Cvlib.5Capp.5Cgfx_apps.5Csimple_draw_d1l2.5Ctarget.5Cd1lx_mango_ghs.5Cobj.5Cled.237::
                        4579 .LDWlin237:
00001216 0000           4580 	nop
                        4581 .L2267:
                        4582 --962: 										break;
                        4583 --963: 								}
                        4584 --965: 							  if (0xffff ==led_data[lampIndex].prm.Duration)
00001218 1bf0           4585 	mov	r27,ep
0000121a c4f2           4586 	shl	4,ep
0000121c 2b0600000000*  4587 	mov	_led_data,r11
00001222 cbf1           4588 	add	r11,ep
00001224 060d           4589 	sld.w	12[ep],r1
00001226 a106ffff       4590 	xori	65535,r1,zero
0000122a ba0d*          4591 	bne	.L2271
                        4592 --966: 							  {
                        4593 --967: 							  	led_data[lampIndex].TotalCnt =0xffff;
                        4594 --line967
                        4595 ..lin.D.3A.5CRenesas_Electronics.5CD1x_RGL.5Crgl_ghs_D1Lx_obj_V1.2E2.2E0.5Cvlib.5Capp.5Cgfx_apps.5Csimple_draw_d1l2.5Ctarget.5Cd1lx_mango_ghs.5Cobj.5Cled.238::
                        4596 .LDWlin238:

                                                                      Page 81
                                                              C:\Users\YINGAO~1\AppData\Local\Temp\gh_00007j81.si
0000122c 1bf0           4597 	mov	r27,ep
0000122e c4f2           4598 	shl	4,ep
00001230 2b0600000000*  4599 	mov	_led_data,r11
00001236 cbf1           4600 	add	r11,ep
00001238 800effff       4601 	ori	65535,zero,r1
0000123c 800c           4602 	sst.h	r1,0[ep]
0000123e c51d*          4603 	br	.L2273
                        4604 .L2271:
                        4605 --968: 							  }
                        4606 --969: 							  else 
                        4607 --970: 			                  {
                        4608 --971: 			                     led_data[lampIndex].TotalCnt = ((led_data[lampIndex].prm.Duration)
                        4609 --line971
                        4610 ..lin.D.3A.5CRenesas_Electronics.5CD1x_RGL.5Crgl_ghs_D1Lx_obj_V1.2E2.2E0.5Cvlib.5Capp.5Cgfx_apps.5Csimple_draw_d1l2.5Ctarget.5Cd1lx_mango_ghs.5Cobj.5Cled.239::
                        4611 .LDWlin239:
00001240 1b08           4612 	mov	r27,r1
00001242 c40a           4613 	shl	4,r1
00001244 2b0600000000*  4614 	mov	_led_data,r11
0000124a 01f0           4615 	mov	r1,ep
0000124c 0b68           4616 	mov	r11,r13
0000124e cdf1           4617 	add	r13,ep
00001250 0170           4618 	mov	r1,r14
00001252 68f0           4619 	sld.bu	8[ep],ep
00001254 0b60           4620 	mov	r11,r12
00001256 3f0600000000*  4621 	mov	_led_counter,lp
0000125c cc71           4622 	add	r12,r14
0000125e cb09           4623 	add	r11,r1
00001260 2e770d00       4624 	ld.w	12[r14],r14
00001264 dff1           4625 	add	lp,ep
00001266 6068           4626 	sld.bu	0[ep],r13
00001268 ed6e3200       4627 	mulhi	50,r13,r13
0000126c ed77fe02       4628 	divqu	r13,r14,zero
00001270 8172           4629 	shr	1,r14
00001272 61770000       4630 	st.h	r14,0[r1]
                        4631 .L2273:
                        4632 --972: 			                     /(led_counter[led_data[lampIndex].prm.Frequency]*REVERSE_FACTOR))/2;
                        4633 --973: 				              }
                        4634 --975:                               if (0 !=led_data[lampIndex].TotalCnt) 
00001276 1bf0           4635 	mov	r27,ep
00001278 c4f2           4636 	shl	4,ep
0000127a 2b0600000000*  4637 	mov	_led_data,r11
00001280 cbf1           4638 	add	r11,ep
00001282 7008           4639 	sld.hu	0[ep],r1
00001284 e009           4640 	cmp	zero,r1
00001286 920d*          4641 	be	.L2274
                        4642 --976:                               {
                        4643 --977:                                     led_data[lampIndex].done = FALSE;
                        4644 --line977
                        4645 ..lin.D.3A.5CRenesas_Electronics.5CD1x_RGL.5Crgl_ghs_D1Lx_obj_V1.2E2.2E0.5Cvlib.5Capp.5Cgfx_apps.5Csimple_draw_d1l2.5Ctarget.5Cd1lx_mango_ghs.5Cobj.5Cled.240::
                        4646 .LDWlin240:
00001288 1bf0           4647 	mov	r27,ep
0000128a c4f2           4648 	shl	4,ep
0000128c 2b0600000000*  4649 	mov	_led_data,r11
00001292 cbf1           4650 	add	r11,ep
00001294 8203           4651 	sst.b	zero,2[ep]
00001296 b515*          4652 	br	.L2276
                        4653 .L2274:
                        4654 --978:                               }                    
                        4655 --979:                               else
                        4656 --980:                               {
                        4657 --981:                                   led_data[lampIndex].Level = led_GetLampDataByIndex(&led_State,lampIndex);

                                                                      Page 82
                                                              C:\Users\YINGAO~1\AppData\Local\Temp\gh_00007j81.si
                        4658 --line981
                        4659 ..lin.D.3A.5CRenesas_Electronics.5CD1x_RGL.5Crgl_ghs_D1Lx_obj_V1.2E2.2E0.5Cvlib.5Capp.5Cgfx_apps.5Csimple_draw_d1l2.5Ctarget.5Cd1lx_mango_ghs.5Cobj.5Cled.241::
                        4660 .LDWlin241:
00001298 1b08           4661 	mov	r27,r1
0000129a c40a           4662 	shl	4,r1
0000129c 2b0600000000*  4663 	mov	_led_data,r11
000012a2 cb09           4664 	add	r11,r1
000012a4 1b38           4665 	mov	r27,r7
000012a6 630f1d00       4666 	st.w	r1,28[sp]
000012aa 260600000000*  4667 	mov	_led_State,r6
                        4668 	jarl	_led_GetLampDataByIndex,lp
                        4668 <EXPANSION BEGIN>
                        4668 jarl22 _led_GetLampDataByIndex , lp 
000012b0 bfffcef2*      4668 <EXPANSION END>
000012b4 236f1d00       4669 	ld.w	28[sp],r13
000012b8 4d570300       4670 	st.b	r10,3[r13]
                        4671 .L2276:
                        4672 --line983
                        4673 ..lin.D.3A.5CRenesas_Electronics.5CD1x_RGL.5Crgl_ghs_D1Lx_obj_V1.2E2.2E0.5Cvlib.5Capp.5Cgfx_apps.5Csimple_draw_d1l2.5Ctarget.5Cd1lx_mango_ghs.5Cobj.5Cled.242::
                        4674 .LDWlin242:
000012bc a525*          4675 	br	.L2277
                        4676 .L2237:
                        4677 --982:                               }
                        4678 --983:                                 break;
                        4679 --984:                         }
                        4680 --986:                     }
                        4681 --987:                     else
                        4682 --988:                     {
                        4683 --989:                         led_SetLampStatus(&led_State,lampIndex,FALSE);                       
                        4684 --line989
                        4685 ..lin.D.3A.5CRenesas_Electronics.5CD1x_RGL.5Crgl_ghs_D1Lx_obj_V1.2E2.2E0.5Cvlib.5Capp.5Cgfx_apps.5Csimple_draw_d1l2.5Ctarget.5Cd1lx_mango_ghs.5Cobj.5Cled.243::
                        4686 .LDWlin243:
000012be 260600000000*  4687 	mov	_led_State,r6
000012c4 1b38           4688 	mov	r27,r7
000012c6 0042           4689 	mov	0,r8
                        4690 	jarl	_led_SetLampStatus,lp
                        4690 <EXPANSION BEGIN>
                        4690 jarl22 _led_SetLampStatus , lp 
000012c8 bfff04f6*      4690 <EXPANSION END>
                        4691 --990:                         led_data[lampIndex].Level = led_GetLampDataByIndex(&led_State,lampIndex);
                        4692 --line990
                        4693 ..lin.D.3A.5CRenesas_Electronics.5CD1x_RGL.5Crgl_ghs_D1Lx_obj_V1.2E2.2E0.5Cvlib.5Capp.5Cgfx_apps.5Csimple_draw_d1l2.5Ctarget.5Cd1lx_mango_ghs.5Cobj.5Cled.244::
                        4694 .LDWlin244:
000012cc 1b08           4695 	mov	r27,r1
000012ce c40a           4696 	shl	4,r1
000012d0 2b0600000000*  4697 	mov	_led_data,r11
000012d6 cb09           4698 	add	r11,r1
000012d8 1b38           4699 	mov	r27,r7
000012da 630f1d00       4700 	st.w	r1,28[sp]
000012de 260600000000*  4701 	mov	_led_State,r6
                        4702 	jarl	_led_GetLampDataByIndex,lp
                        4702 <EXPANSION BEGIN>
                        4702 jarl22 _led_GetLampDataByIndex , lp 
000012e4 bfff9af2*      4702 <EXPANSION END>
000012e8 236f1d00       4703 	ld.w	28[sp],r13
000012ec 4d570300       4704 	st.b	r10,3[r13]
                        4705 --991:                         led_data[lampIndex].done = TRUE;
                        4706 --line991
                        4707 ..lin.D.3A.5CRenesas_Electronics.5CD1x_RGL.5Crgl_ghs_D1Lx_obj_V1.2E2.2E0.5Cvlib.5Capp.5Cgfx_apps.5Csimple_draw_d1l2.5Ctarget.5Cd1lx_mango_ghs.5Cobj.5Cled.245::
                        4708 .LDWlin245:
000012f0 1bf0           4709 	mov	r27,ep

                                                                      Page 83
                                                              C:\Users\YINGAO~1\AppData\Local\Temp\gh_00007j81.si
000012f2 c4f2           4710 	shl	4,ep
000012f4 2b0600000000*  4711 	mov	_led_data,r11
000012fa cbf1           4712 	add	r11,ep
000012fc 010a           4713 	mov	1,r1
000012fe 820b           4714 	sst.b	r1,2[ep]
                        4715 .L2277:
00001300 235f0d00       4716 	ld.w	12[sp],r11
00001304 415a           4717 	add	1,r11
00001306 635f0d00       4718 	st.w	r11,12[sp]
0000130a 235f0d00       4719 	ld.w	12[sp],r11
0000130e 0b06bcff       4720 	addi	-68,r11,zero
00001312 f6070dfb*      4721 	blt	.L2218
                        4722 --992:                     }
                        4723 --994:         	}/*end for*/
                        4724 --996:                   /*disable those leds  which is not used in this project*/
                        4725 --997:     	        for(i = LEDLAMP_NONE +1; i < LEDLAMP_ALL; i ++)
                        4726 --line997
                        4727 ..lin.D.3A.5CRenesas_Electronics.5CD1x_RGL.5Crgl_ghs_D1Lx_obj_V1.2E2.2E0.5Cvlib.5Capp.5Cgfx_apps.5Csimple_draw_d1l2.5Ctarget.5Cd1lx_mango_ghs.5Cobj.5Cled.246::
                        4728 .LDWlin246:
00001316 015a           4729 	mov	1,r11
00001318 635f0d00       4730 	st.w	r11,12[sp]
0000131c 0000           4731 	nop
                        4732 .L2280:
                        4733 --998:     	        {
                        4734 --999:     	            if (FALSE == led_GetLampDataByIndex(&led_Enable, i))
0000131e 233f0d00       4735 	ld.w	12[sp],r7
00001322 3d360e00       4736 	movea	14,r29,r6
                        4737 	jarl	_led_GetLampDataByIndex,lp
                        4737 <EXPANSION BEGIN>
                        4737 jarl22 _led_GetLampDataByIndex , lp 
00001326 bfff58f2*      4737 <EXPANSION END>
0000132a e051           4738 	cmp	zero,r10
0000132c 9a0d*          4739 	bne	.L2283
                        4740 --1000:     	            {
                        4741 --1001:     	                led_SetLampStatus(&led_State, i, FALSE);
                        4742 --line1001
                        4743 ..lin.D.3A.5CRenesas_Electronics.5CD1x_RGL.5Crgl_ghs_D1Lx_obj_V1.2E2.2E0.5Cvlib.5Capp.5Cgfx_apps.5Csimple_draw_d1l2.5Ctarget.5Cd1lx_mango_ghs.5Cobj.5Cled.247::
                        4744 .LDWlin247:
0000132e 233f0d00       4745 	ld.w	12[sp],r7
00001332 0042           4746 	mov	0,r8
00001334 260600000000*  4747 	mov	_led_State,r6
                        4748 	jarl	_led_SetLampStatus,lp
                        4748 <EXPANSION BEGIN>
                        4748 jarl22 _led_SetLampStatus , lp 
0000133a bfff92f5*      4748 <EXPANSION END>
                        4749 .L2283:
                        4750 --1002:     	            }
                        4751 --1003: 					else
                        4752 --1004: 					{
                        4753 --line997
                        4754 ..lin.D.3A.5CRenesas_Electronics.5CD1x_RGL.5Crgl_ghs_D1Lx_obj_V1.2E2.2E0.5Cvlib.5Capp.5Cgfx_apps.5Csimple_draw_d1l2.5Ctarget.5Cd1lx_mango_ghs.5Cobj.5Cled.248::
                        4755 .LDWlin248:
0000133e 235f0d00       4756 	ld.w	12[sp],r11
00001342 415a           4757 	add	1,r11
00001344 635f0d00       4758 	st.w	r11,12[sp]
00001348 235f0d00       4759 	ld.w	12[sp],r11
0000134c 0b06ceff       4760 	addi	-50,r11,zero
00001350 f6e5*          4761 	blt	.L2280
                        4762 --1005: 					}
                        4763 --1006:     	        }
                        4764 --1008:              led_EventData = curEvent;

                                                                      Page 84
                                                              C:\Users\YINGAO~1\AppData\Local\Temp\gh_00007j81.si
                        4765 --line1008
                        4766 ..lin.D.3A.5CRenesas_Electronics.5CD1x_RGL.5Crgl_ghs_D1Lx_obj_V1.2E2.2E0.5Cvlib.5Capp.5Cgfx_apps.5Csimple_draw_d1l2.5Ctarget.5Cd1lx_mango_ghs.5Cobj.5Cled.249::
                        4767 .LDWlin249:
00001352 23f62800       4768 	movea	40,sp,ep
00001356 000d           4769 	sld.w	0[ep],r1
00001358 0275           4770 	sld.w	4[ep],r14
0000135a 046d           4771 	sld.w	8[ep],r13
0000135c 0665           4772 	sld.w	12[ep],r12
0000135e 7d0f1d00       4773 	st.w	r1,28[r29]
00001362 7d772100       4774 	st.w	r14,32[r29]
00001366 7d6f2500       4775 	st.w	r13,36[r29]
0000136a 7d672900       4776 	st.w	r12,40[r29]
                        4777 .L2285:
                        4778 --1009:                 /////BREAK POINTER5
                        4779 --1010:         }/*end if*/
                        4780 --1011: 		else
                        4781 --1012: 		{
                        4782 --1013: 		}
                        4783 --1014:     }
                        4784 --1015:     else
                        4785 --1016:     {
                        4786 --1017:     }
                        4787 --1018: }
0000136e 0000           4788 	nop
                        4789 --	    .ef
                        4790 .LDW23:
00001370 5c06ff70       4791 	dispose	14,{r25,r26,r27,r28,r29,r31},[lp]
                        4792 	.type	_led_EventProcess,@function
                        4793 	.size	_led_EventProcess,.-_led_EventProcess
                        4794 	.type	_led_EventProcess..D.3A.5CRenesas_Electronics.5CD1x_RGL.5Crgl_ghs_D1Lx_obj_V1.2E2.2E0.5Cvlib.5Capp.5Cgfx_apps.5Csimple_draw_d1l2.5Ctarget.5Cd1lx_mango_ghs.5Cobj.5Cled.,@function
                        4795 	.size	_led_EventProcess..D.3A.5CRenesas_Electronics.5CD1x_RGL.5Crgl_ghs_D1Lx_obj_V1.2E2.2E0.5Cvlib.5Capp.5Cgfx_apps.5Csimple_draw_d1l2.5Ctarget.5Cd1lx_mango_ghs.5Cobj.5Cled.,.-_led_EventProcess..D.3A.5CRenesas_Electronics.5CD1x_RGL.5Crgl_ghs_D1Lx_obj_V1.2E2.2E0.5Cvlib.5Capp.5Cgfx_apps.5Csimple_draw_d1l2.5Ctarget.5Cd1lx_mango_ghs.5Cobj.5Cled.
                        4796 	.align	2
                        4797 .LDW33:
                        4798 --_res	3[sp]	local
                        4799 --_group	r26	local
                        4800 --_pos	r25	local
                        4801 --_curEvent	40[sp]	local
                        4802 --_i	12[sp]	local
                        4803 --_j	r28	local
                        4804 --_indtem	8[sp]	local
                        4805 --_lampIndex	r27	local
                        4806 --_pri	24[sp]	local
                        4807 
                        4808 	.data
                        4809 	.text
                        4810 
                        4811 
                        4812 --1020: static void led_UpdateFuelLampProcess(void)
                        4813 	.align	2
                        4814 	.align	2
                        4815 	.global	_led_UpdateFuelLampProcess..D.3A.5CRenesas_Electronics.5CD1x_RGL.5Crgl_ghs_D1Lx_obj_V1.2E2.2E0.5Cvlib.5Capp.5Cgfx_apps.5Csimple_draw_d1l2.5Ctarget.5Cd1lx_mango_ghs.5Cobj.5Cled.
                        4816 _led_UpdateFuelLampProcess..D.3A.5CRenesas_Electronics.5CD1x_RGL.5Crgl_ghs_D1Lx_obj_V1.2E2.2E0.5Cvlib.5Capp.5Cgfx_apps.5Csimple_draw_d1l2.5Ctarget.5Cd1lx_mango_ghs.5Cobj.5Cled.:
                        4817 _led_UpdateFuelLampProcess:
00001374 8807e170       4818 	prepare	{r25,r26,r27,r28,r29,r31},4
00001378 3d0600000000*  4819 	mov	_led_State,r29
                        4820 --	    .bf
                        4821 .LDW43:
                        4822 --1021: {
                        4823 --1022: 	BOOL enable = FALSE;
0000137e 00da           4824 	mov	0,r27
                        4825 --1023: 	U8 lampIndex = 0;

                                                                      Page 85
                                                              C:\Users\YINGAO~1\AppData\Local\Temp\gh_00007j81.si
00001380 00d2           4826 	mov	0,r26
                        4827 --1024: 	U8 i = 0;
00001382 00e2           4828 	mov	0,r28
                        4829 --1025: 	static U8 seg = LEVEL_LED_ALL;
                        4830 --1026: 	U8 led_fuelSeg;
                        4831 --1027:     U8 res = RET_FAIL;
00001384 00ca           4832 	mov	0,r25
                        4833 --1029: 	U8 curMode;
                        4834 --1031: 	PWR_GetPwrMode(&curMode);
00001386 23360300       4835 	movea	3,sp,r6
                        4836 	jarl	_PWR_GetPwrMode,lp
                        4836 <EXPANSION BEGIN>
                        4836 jarl22 _PWR_GetPwrMode , lp 
0000138a 80ff0000*      4836 <EXPANSION END>
                        4837 --1032: 	if( (PWR_ACC == curMode) || (PWR_OFF == curMode) )
                        4838 --line1032
                        4839 ..lin.D.3A.5CRenesas_Electronics.5CD1x_RGL.5Crgl_ghs_D1Lx_obj_V1.2E2.2E0.5Cvlib.5Capp.5Cgfx_apps.5Csimple_draw_d1l2.5Ctarget.5Cd1lx_mango_ghs.5Cobj.5Cled.250::
                        4840 .LDWlin250:
0000138e a30f0300       4841 	ld.bu	3[sp],r1
00001392 610a           4842 	cmp	1,r1
00001394 d205*          4843 	be	.L2809
00001396 a30f0300       4844 	ld.bu	3[sp],r1
0000139a e009           4845 	cmp	zero,r1
0000139c da05*          4846 	bne	.L2808
                        4847 .L2809:
                        4848 --1033: 	{
                        4849 --1034: 		led_fuelSeg = LEVEL_LED_ALL;
                        4850 --line1034
                        4851 ..lin.D.3A.5CRenesas_Electronics.5CD1x_RGL.5Crgl_ghs_D1Lx_obj_V1.2E2.2E0.5Cvlib.5Capp.5Cgfx_apps.5Csimple_draw_d1l2.5Ctarget.5Cd1lx_mango_ghs.5Cobj.5Cled.251::
                        4852 .LDWlin251:
0000139e 090a           4853 	mov	9,r1
000013a0 430f0200       4854 	st.b	r1,2[sp]
000013a4 e505*          4855 	br	.L2811
                        4856 .L2808:
                        4857 --1035: 	}
                        4858 --1036: 	else
                        4859 --1037: 	{
                        4860 --1038: 		res = WFM_GetFuelSegmentNum(&led_fuelSeg);
                        4861 --line1038
                        4862 ..lin.D.3A.5CRenesas_Electronics.5CD1x_RGL.5Crgl_ghs_D1Lx_obj_V1.2E2.2E0.5Cvlib.5Capp.5Cgfx_apps.5Csimple_draw_d1l2.5Ctarget.5Cd1lx_mango_ghs.5Cobj.5Cled.252::
                        4863 .LDWlin252:
000013a6 23360200       4864 	movea	2,sp,r6
                        4865 	jarl	_WFM_GetFuelSegmentNum,lp
                        4865 <EXPANSION BEGIN>
                        4865 jarl22 _WFM_GetFuelSegmentNum , lp 
000013aa 80ff0000*      4865 <EXPANSION END>
000013ae 0ac8           4866 	mov	r10,r25
                        4867 .L2811:
                        4868 --1039: 	}
                        4869 --1041: 	//res  = WFM_GetFuelSegmentNum(&led_fuelSeg);
                        4870 --1042: 	if (seg !=led_fuelSeg) 
                        4871 --line1042
                        4872 ..lin.D.3A.5CRenesas_Electronics.5CD1x_RGL.5Crgl_ghs_D1Lx_obj_V1.2E2.2E0.5Cvlib.5Capp.5Cgfx_apps.5Csimple_draw_d1l2.5Ctarget.5Cd1lx_mango_ghs.5Cobj.5Cled.253::
                        4873 .LDWlin253:
000013b0 2e0600000000*  4874 	mov	.L2950,r14
000013b6 830f0300       4875 	ld.bu	2[sp],r1
000013ba 8e770100       4876 	ld.bu	0[r14],r14
000013be e171           4877 	cmp	r1,r14
000013c0 f235*          4878 	be	.L2820
                        4879 --1043:     {
                        4880 --1044:         seg =led_fuelSeg;

                                                                      Page 86
                                                              C:\Users\YINGAO~1\AppData\Local\Temp\gh_00007j81.si
                        4881 --line1044
                        4882 ..lin.D.3A.5CRenesas_Electronics.5CD1x_RGL.5Crgl_ghs_D1Lx_obj_V1.2E2.2E0.5Cvlib.5Capp.5Cgfx_apps.5Csimple_draw_d1l2.5Ctarget.5Cd1lx_mango_ghs.5Cobj.5Cled.254::
                        4883 .LDWlin254:
000013c2 830f0300       4884 	ld.bu	2[sp],r1
000013c6 2b0600000000*  4885 	mov	.L2950,r11
000013cc 4b0f0000       4886 	st.b	r1,0[r11]
                        4887 --1046:     /*LAMP DATA UPDATE*/
                        4888 --1047:         for (i = LEVEL_LED_SEGNONE; i <  LEVEL_LED_ALL; i++)
000013d0 00e2           4889 	mov	0,r28
000013d2 0000           4890 	nop
                        4891 .L2816:
                        4892 --1048:         {
                        4893 --1049:             if (LEVEL_LED_ALL ==led_fuelSeg) 
000013d4 830f0300       4894 	ld.bu	2[sp],r1
000013d8 690a           4895 	cmp	9,r1
000013da ba05*          4896 	bne	.L2817
                        4897 --1050:             {
                        4898 --1051:                 enable = FALSE;
                        4899 --line1051
                        4900 ..lin.D.3A.5CRenesas_Electronics.5CD1x_RGL.5Crgl_ghs_D1Lx_obj_V1.2E2.2E0.5Cvlib.5Capp.5Cgfx_apps.5Csimple_draw_d1l2.5Ctarget.5Cd1lx_mango_ghs.5Cobj.5Cled.255::
                        4901 .LDWlin255:
000013dc 00da           4902 	mov	0,r27
000013de e505*          4903 	br	.L2819
                        4904 .L2817:
                        4905 --1052:             }
                        4906 --1053:             else
                        4907 --1054:             {
                        4908 --1055:                 enable = ((i <= led_fuelSeg) ? TRUE : FALSE);
                        4909 --line1055
                        4910 ..lin.D.3A.5CRenesas_Electronics.5CD1x_RGL.5Crgl_ghs_D1Lx_obj_V1.2E2.2E0.5Cvlib.5Capp.5Cgfx_apps.5Csimple_draw_d1l2.5Ctarget.5Cd1lx_mango_ghs.5Cobj.5Cled.256::
                        4911 .LDWlin256:
000013e0 830f0300       4912 	ld.bu	2[sp],r1
000013e4 e1e1           4913 	cmp	r1,r28
000013e6 e3df0000       4914 	setfnh	r27
                        4915 .L2819:
                        4916 --1056:             }
                        4917 --1057: 			
                        4918 --1058:             lampIndex = led_GetLampIndex(TYPE_LED_FUEL, i);
000013ea 1c38           4919 	mov	r28,r7
000013ec 0032           4920 	mov	0,r6
                        4921 	jarl	_led_GetLampIndex,lp
                        4921 <EXPANSION BEGIN>
                        4921 jarl22 _led_GetLampIndex , lp 
000013ee bfff98f0*      4921 <EXPANSION END>
000013f2 8a00           4922 	zxb	r10
000013f4 0ad0           4923 	mov	r10,r26
                        4924 --1059:             led_SetLampStatus(&led_State, lampIndex, enable);
                        4925 --line1059
                        4926 ..lin.D.3A.5CRenesas_Electronics.5CD1x_RGL.5Crgl_ghs_D1Lx_obj_V1.2E2.2E0.5Cvlib.5Capp.5Cgfx_apps.5Csimple_draw_d1l2.5Ctarget.5Cd1lx_mango_ghs.5Cobj.5Cled.257::
                        4927 .LDWlin257:
000013f6 260600000000*  4928 	mov	_led_State,r6
000013fc 1a38           4929 	mov	r26,r7
000013fe 1b40           4930 	mov	r27,r8
                        4931 	jarl	_led_SetLampStatus,lp
                        4931 <EXPANSION BEGIN>
                        4931 jarl22 _led_SetLampStatus , lp 
00001400 bfffccf4*      4931 <EXPANSION END>
                        4932 --1060:             led_data[lampIndex].Level = led_GetLampDataByIndex(&led_State,lampIndex);               
                        4933 --line1060
                        4934 ..lin.D.3A.5CRenesas_Electronics.5CD1x_RGL.5Crgl_ghs_D1Lx_obj_V1.2E2.2E0.5Cvlib.5Capp.5Cgfx_apps.5Csimple_draw_d1l2.5Ctarget.5Cd1lx_mango_ghs.5Cobj.5Cled.258::
                        4935 .LDWlin258:

                                                                      Page 87
                                                              C:\Users\YINGAO~1\AppData\Local\Temp\gh_00007j81.si
00001404 1a08           4936 	mov	r26,r1
00001406 c40a           4937 	shl	4,r1
00001408 3d763800       4938 	movea	56,r29,r14
0000140c 1a38           4939 	mov	r26,r7
0000140e ce09           4940 	add	r14,r1
00001410 630f0d00       4941 	st.w	r1,12[sp]
00001414 260600000000*  4942 	mov	_led_State,r6
                        4943 	jarl	_led_GetLampDataByIndex,lp
                        4943 <EXPANSION BEGIN>
                        4943 jarl22 _led_GetLampDataByIndex , lp 
0000141a bfff64f1*      4943 <EXPANSION END>
0000141e 23670d00       4944 	ld.w	12[sp],r12
00001422 4c570300       4945 	st.b	r10,3[r12]
                        4946 --line1047
                        4947 ..lin.D.3A.5CRenesas_Electronics.5CD1x_RGL.5Crgl_ghs_D1Lx_obj_V1.2E2.2E0.5Cvlib.5Capp.5Cgfx_apps.5Csimple_draw_d1l2.5Ctarget.5Cd1lx_mango_ghs.5Cobj.5Cled.259::
                        4948 .LDWlin259:
00001426 41e2           4949 	add	1,r28
00001428 9c00           4950 	zxb	r28
0000142a 69e2           4951 	cmp	9,r28
0000142c c1d5*          4952 	bl	.L2816
                        4953 .L2820:
                        4954 --1061:         }
                        4955 --1062:     }
                        4956 --1063:     else
                        4957 --1064:     {
                        4958 --1065:     }
                        4959 --1066: }
                        4960 --line1066
                        4961 ..lin.D.3A.5CRenesas_Electronics.5CD1x_RGL.5Crgl_ghs_D1Lx_obj_V1.2E2.2E0.5Cvlib.5Capp.5Cgfx_apps.5Csimple_draw_d1l2.5Ctarget.5Cd1lx_mango_ghs.5Cobj.5Cled.260::
                        4962 .LDWlin260:
0000142e 0000           4963 	nop
                        4964 --	    .ef
                        4965 .LDW53:
00001430 4806ff70       4966 	dispose	4,{r25,r26,r27,r28,r29,r31},[lp]
                        4967 	.type	_led_UpdateFuelLampProcess,@function
                        4968 	.size	_led_UpdateFuelLampProcess,.-_led_UpdateFuelLampProcess
                        4969 	.type	_led_UpdateFuelLampProcess..D.3A.5CRenesas_Electronics.5CD1x_RGL.5Crgl_ghs_D1Lx_obj_V1.2E2.2E0.5Cvlib.5Capp.5Cgfx_apps.5Csimple_draw_d1l2.5Ctarget.5Cd1lx_mango_ghs.5Cobj.5Cled.,@function
                        4970 	.size	_led_UpdateFuelLampProcess..D.3A.5CRenesas_Electronics.5CD1x_RGL.5Crgl_ghs_D1Lx_obj_V1.2E2.2E0.5Cvlib.5Capp.5Cgfx_apps.5Csimple_draw_d1l2.5Ctarget.5Cd1lx_mango_ghs.5Cobj.5Cled.,.-_led_UpdateFuelLampProcess..D.3A.5CRenesas_Electronics.5CD1x_RGL.5Crgl_ghs_D1Lx_obj_V1.2E2.2E0.5Cvlib.5Capp.5Cgfx_apps.5Csimple_draw_d1l2.5Ctarget.5Cd1lx_mango_ghs.5Cobj.5Cled.
                        4971 	.align	2
                        4972 .LDW63:
                        4973 --_seg	.L2950	static
                        4974 --_enable	r27	local
                        4975 --_lampIndex	r26	local
                        4976 --_i	r28	local
                        4977 --_led_fuelSeg	2[sp]	local
                        4978 --_res	r25	local
                        4979 --_curMode	3[sp]	local
                        4980 
                        4981 	.data
                        4982 .L2950:
                        4983 	.global	_seg.led_UpdateFuelLampProcess.D.3A.5CRenesas_Electronics.5CD1x_RGL.5Crgl_ghs_D1Lx_obj_V1.2E2.2E0.5Cvlib.5Capp.5Cgfx_apps.5Csimple_draw_d1l2.5Ctarget.5Cd1lx_mango_ghs.5Cobj.5Cled..30
                        4984 _seg.led_UpdateFuelLampProcess.D.3A.5CRenesas_Electronics.5CD1x_RGL.5Crgl_ghs_D1Lx_obj_V1.2E2.2E0.5Cvlib.5Capp.5Cgfx_apps.5Csimple_draw_d1l2.5Ctarget.5Cd1lx_mango_ghs.5Cobj.5Cled..30:
                        4985 	.type	_seg.led_UpdateFuelLampProcess.D.3A.5CRenesas_Electronics.5CD1x_RGL.5Crgl_ghs_D1Lx_obj_V1.2E2.2E0.5Cvlib.5Capp.5Cgfx_apps.5Csimple_draw_d1l2.5Ctarget.5Cd1lx_mango_ghs.5Cobj.5Cled..30,@object
                        4986 	.size	_seg.led_UpdateFuelLampProcess.D.3A.5CRenesas_Electronics.5CD1x_RGL.5Crgl_ghs_D1Lx_obj_V1.2E2.2E0.5Cvlib.5Capp.5Cgfx_apps.5Csimple_draw_d1l2.5Ctarget.5Cd1lx_mango_ghs.5Cobj.5Cled..30,1
00000016 09             4987 	.byte	9
                        4988 	.type	.L2950,@object
                        4989 	.size	.L2950,1
                        4990 	.text
                        4991 
                        4992 
                        4993 --1068: static void led_UpdateTemLampProcess(void)

                                                                      Page 88
                                                              C:\Users\YINGAO~1\AppData\Local\Temp\gh_00007j81.si
                        4994 	.align	2
                        4995 	.align	2
                        4996 	.global	_led_UpdateTemLampProcess..D.3A.5CRenesas_Electronics.5CD1x_RGL.5Crgl_ghs_D1Lx_obj_V1.2E2.2E0.5Cvlib.5Capp.5Cgfx_apps.5Csimple_draw_d1l2.5Ctarget.5Cd1lx_mango_ghs.5Cobj.5Cled.
                        4997 _led_UpdateTemLampProcess..D.3A.5CRenesas_Electronics.5CD1x_RGL.5Crgl_ghs_D1Lx_obj_V1.2E2.2E0.5Cvlib.5Capp.5Cgfx_apps.5Csimple_draw_d1l2.5Ctarget.5Cd1lx_mango_ghs.5Cobj.5Cled.:
                        4998 _led_UpdateTemLampProcess:
00001434 8807e170       4999 	prepare	{r25,r26,r27,r28,r29,r31},4
00001438 3d0600000000*  5000 	mov	_led_State,r29
                        5001 --	    .bf
                        5002 .LDW73:
                        5003 --1069: {
                        5004 --1070: 	BOOL enable = FALSE;
0000143e 00d2           5005 	mov	0,r26
                        5006 --1071: 	U8 lampIndex = 0;
00001440 00da           5007 	mov	0,r27
                        5008 --1072: 	U8 i = 0;
00001442 00e2           5009 	mov	0,r28
                        5010 --1073: 	static U8 wseg = LEVEL_LED_ALL;
                        5011 --1074:    	U8 led_TmptSeg;
                        5012 --1075:     U8 res = RET_FAIL;
00001444 00ca           5013 	mov	0,r25
                        5014 --1077: 	U8 curMode;
                        5015 --1079: 	PWR_GetPwrMode(&curMode);
00001446 23360300       5016 	movea	3,sp,r6
                        5017 	jarl	_PWR_GetPwrMode,lp
                        5017 <EXPANSION BEGIN>
                        5017 jarl22 _PWR_GetPwrMode , lp 
0000144a 80ff0000*      5017 <EXPANSION END>
                        5018 --1080: 	if( (PWR_ACC == curMode) || (PWR_OFF == curMode) )
                        5019 --line1080
                        5020 ..lin.D.3A.5CRenesas_Electronics.5CD1x_RGL.5Crgl_ghs_D1Lx_obj_V1.2E2.2E0.5Cvlib.5Capp.5Cgfx_apps.5Csimple_draw_d1l2.5Ctarget.5Cd1lx_mango_ghs.5Cobj.5Cled.261::
                        5021 .LDWlin261:
0000144e a30f0300       5022 	ld.bu	3[sp],r1
00001452 610a           5023 	cmp	1,r1
00001454 d205*          5024 	be	.L2978
00001456 a30f0300       5025 	ld.bu	3[sp],r1
0000145a e009           5026 	cmp	zero,r1
0000145c da05*          5027 	bne	.L2977
                        5028 .L2978:
                        5029 --1081: 	{
                        5030 --1082: 		led_TmptSeg = LEVEL_LED_ALL;
                        5031 --line1082
                        5032 ..lin.D.3A.5CRenesas_Electronics.5CD1x_RGL.5Crgl_ghs_D1Lx_obj_V1.2E2.2E0.5Cvlib.5Capp.5Cgfx_apps.5Csimple_draw_d1l2.5Ctarget.5Cd1lx_mango_ghs.5Cobj.5Cled.262::
                        5033 .LDWlin262:
0000145e 090a           5034 	mov	9,r1
00001460 430f0200       5035 	st.b	r1,2[sp]
00001464 e505*          5036 	br	.L2980
                        5037 .L2977:
                        5038 --1083: 	}
                        5039 --1084: 	else
                        5040 --1085: 	{
                        5041 --1086: 		res = WFM_GetCoolantSegmentNum(&led_TmptSeg);
                        5042 --line1086
                        5043 ..lin.D.3A.5CRenesas_Electronics.5CD1x_RGL.5Crgl_ghs_D1Lx_obj_V1.2E2.2E0.5Cvlib.5Capp.5Cgfx_apps.5Csimple_draw_d1l2.5Ctarget.5Cd1lx_mango_ghs.5Cobj.5Cled.263::
                        5044 .LDWlin263:
00001466 23360200       5045 	movea	2,sp,r6
                        5046 	jarl	_WFM_GetCoolantSegmentNum,lp
                        5046 <EXPANSION BEGIN>
                        5046 jarl22 _WFM_GetCoolantSegmentNum , lp 
0000146a 80ff0000*      5046 <EXPANSION END>
0000146e 0ac8           5047 	mov	r10,r25
                        5048 .L2980:

                                                                      Page 89
                                                              C:\Users\YINGAO~1\AppData\Local\Temp\gh_00007j81.si
                        5049 --1087: 	}
                        5050 --1088: 	
                        5051 --1089: 	//res = WFM_GetCoolantSegmentNum(&led_TmptSeg);
                        5052 --1090: 	/*LAMP DATA UPDATE*/
                        5053 --1091:     if (wseg !=led_TmptSeg) 
                        5054 --line1091
                        5055 ..lin.D.3A.5CRenesas_Electronics.5CD1x_RGL.5Crgl_ghs_D1Lx_obj_V1.2E2.2E0.5Cvlib.5Capp.5Cgfx_apps.5Csimple_draw_d1l2.5Ctarget.5Cd1lx_mango_ghs.5Cobj.5Cled.264::
                        5056 .LDWlin264:
00001470 2e0600000000*  5057 	mov	.L3137,r14
00001476 830f0300       5058 	ld.bu	2[sp],r1
0000147a 8e770100       5059 	ld.bu	0[r14],r14
0000147e e171           5060 	cmp	r1,r14
00001480 d23d*          5061 	be	.L2993
                        5062 --1092:     {
                        5063 --1093:         wseg =led_TmptSeg;
                        5064 --line1093
                        5065 ..lin.D.3A.5CRenesas_Electronics.5CD1x_RGL.5Crgl_ghs_D1Lx_obj_V1.2E2.2E0.5Cvlib.5Capp.5Cgfx_apps.5Csimple_draw_d1l2.5Ctarget.5Cd1lx_mango_ghs.5Cobj.5Cled.265::
                        5066 .LDWlin265:
00001482 830f0300       5067 	ld.bu	2[sp],r1
00001486 2b0600000000*  5068 	mov	.L3137,r11
0000148c 4b0f0000       5069 	st.b	r1,0[r11]
                        5070 --1095:         for (i = LEVEL_LED_SEGNONE; i < LEVEL_LED_ALL; i++)
00001490 00e2           5071 	mov	0,r28
00001492 0000           5072 	nop
                        5073 .L2985:
                        5074 --1096:         {
                        5075 --1097:             if (LEVEL_LED_ALL ==led_TmptSeg) 
00001494 830f0300       5076 	ld.bu	2[sp],r1
00001498 690a           5077 	cmp	9,r1
0000149a ba05*          5078 	bne	.L2986
                        5079 --1098:             {
                        5080 --1099:                 enable = FALSE;
                        5081 --line1099
                        5082 ..lin.D.3A.5CRenesas_Electronics.5CD1x_RGL.5Crgl_ghs_D1Lx_obj_V1.2E2.2E0.5Cvlib.5Capp.5Cgfx_apps.5Csimple_draw_d1l2.5Ctarget.5Cd1lx_mango_ghs.5Cobj.5Cled.266::
                        5083 .LDWlin266:
0000149c 00d2           5084 	mov	0,r26
0000149e e505*          5085 	br	.L2988
                        5086 .L2986:
                        5087 --1100:             }
                        5088 --1101:             else
                        5089 --1102:             {
                        5090 --1103:                 enable = ((led_TmptSeg < i) ? FALSE : TRUE);
                        5091 --line1103
                        5092 ..lin.D.3A.5CRenesas_Electronics.5CD1x_RGL.5Crgl_ghs_D1Lx_obj_V1.2E2.2E0.5Cvlib.5Capp.5Cgfx_apps.5Csimple_draw_d1l2.5Ctarget.5Cd1lx_mango_ghs.5Cobj.5Cled.267::
                        5093 .LDWlin267:
000014a0 830f0300       5094 	ld.bu	2[sp],r1
000014a4 fc09           5095 	cmp	r28,r1
000014a6 e9d70000       5096 	setfnl	r26
                        5097 .L2988:
                        5098 --1104:             }
                        5099 --1106:             lampIndex = led_GetLampIndex(TYPE_LED_TEMP, i);
000014aa 1c38           5100 	mov	r28,r7
000014ac 0132           5101 	mov	1,r6
                        5102 	jarl	_led_GetLampIndex,lp
                        5102 <EXPANSION BEGIN>
                        5102 jarl22 _led_GetLampIndex , lp 
000014ae bfffd8ef*      5102 <EXPANSION END>
000014b2 8a00           5103 	zxb	r10
000014b4 0ad8           5104 	mov	r10,r27
                        5105 --1107:             if (( LEDLAMP_TEMPSEGMENT1 <= lampIndex) && (LEDLAMP_TEMPSEGMENT2 >= lampIndex))
                        5106 --line1107

                                                                      Page 90
                                                              C:\Users\YINGAO~1\AppData\Local\Temp\gh_00007j81.si
                        5107 ..lin.D.3A.5CRenesas_Electronics.5CD1x_RGL.5Crgl_ghs_D1Lx_obj_V1.2E2.2E0.5Cvlib.5Capp.5Cgfx_apps.5Csimple_draw_d1l2.5Ctarget.5Cd1lx_mango_ghs.5Cobj.5Cled.268::
                        5108 .LDWlin268:
000014b6 1b06e7ff       5109 	addi	-25,r27,zero
000014ba c91d*          5110 	bnl	.L2992
000014bc 1b06dfff       5111 	addi	-33,r27,zero
000014c0 911d*          5112 	bl	.L2992
                        5113 --1108:             {
                        5114 --1109:                 led_SetLampStatus(&led_State, lampIndex, enable);
                        5115 --line1109
                        5116 ..lin.D.3A.5CRenesas_Electronics.5CD1x_RGL.5Crgl_ghs_D1Lx_obj_V1.2E2.2E0.5Cvlib.5Capp.5Cgfx_apps.5Csimple_draw_d1l2.5Ctarget.5Cd1lx_mango_ghs.5Cobj.5Cled.269::
                        5117 .LDWlin269:
000014c2 260600000000*  5118 	mov	_led_State,r6
000014c8 1b38           5119 	mov	r27,r7
000014ca 1a40           5120 	mov	r26,r8
                        5121 	jarl	_led_SetLampStatus,lp
                        5121 <EXPANSION BEGIN>
                        5121 jarl22 _led_SetLampStatus , lp 
000014cc bfff00f4*      5121 <EXPANSION END>
                        5122 --1110:                 led_data[lampIndex].Level = led_GetLampDataByIndex(&led_State,lampIndex);
                        5123 --line1110
                        5124 ..lin.D.3A.5CRenesas_Electronics.5CD1x_RGL.5Crgl_ghs_D1Lx_obj_V1.2E2.2E0.5Cvlib.5Capp.5Cgfx_apps.5Csimple_draw_d1l2.5Ctarget.5Cd1lx_mango_ghs.5Cobj.5Cled.270::
                        5125 .LDWlin270:
000014d0 1b08           5126 	mov	r27,r1
000014d2 c40a           5127 	shl	4,r1
000014d4 3d763800       5128 	movea	56,r29,r14
000014d8 1b38           5129 	mov	r27,r7
000014da ce09           5130 	add	r14,r1
000014dc 630f0d00       5131 	st.w	r1,12[sp]
000014e0 260600000000*  5132 	mov	_led_State,r6
                        5133 	jarl	_led_GetLampDataByIndex,lp
                        5133 <EXPANSION BEGIN>
                        5133 jarl22 _led_GetLampDataByIndex , lp 
000014e6 bfff98f0*      5133 <EXPANSION END>
000014ea 23670d00       5134 	ld.w	12[sp],r12
000014ee 4c570300       5135 	st.b	r10,3[r12]
                        5136 .L2992:
                        5137 --1111:             }
                        5138 --1112:             else
                        5139 --1113:             {
                        5140 --line1095
                        5141 ..lin.D.3A.5CRenesas_Electronics.5CD1x_RGL.5Crgl_ghs_D1Lx_obj_V1.2E2.2E0.5Cvlib.5Capp.5Cgfx_apps.5Csimple_draw_d1l2.5Ctarget.5Cd1lx_mango_ghs.5Cobj.5Cled.271::
                        5142 .LDWlin271:
000014f2 41e2           5143 	add	1,r28
000014f4 9c00           5144 	zxb	r28
000014f6 69e2           5145 	cmp	9,r28
000014f8 e1cd*          5146 	bl	.L2985
                        5147 .L2993:
                        5148 --1114:             }
                        5149 --1115:         }/*end for*/
                        5150 --1116:     }
                        5151 --1117:     else
                        5152 --1118:     {
                        5153 --1119:         /*do nothing*/
                        5154 --1120:     }
                        5155 --1121: }
                        5156 --line1121
                        5157 ..lin.D.3A.5CRenesas_Electronics.5CD1x_RGL.5Crgl_ghs_D1Lx_obj_V1.2E2.2E0.5Cvlib.5Capp.5Cgfx_apps.5Csimple_draw_d1l2.5Ctarget.5Cd1lx_mango_ghs.5Cobj.5Cled.272::
                        5158 .LDWlin272:
000014fa 0000           5159 	nop
                        5160 --	    .ef
                        5161 .LDW83:

                                                                      Page 91
                                                              C:\Users\YINGAO~1\AppData\Local\Temp\gh_00007j81.si
000014fc 4806ff70       5162 	dispose	4,{r25,r26,r27,r28,r29,r31},[lp]
                        5163 	.type	_led_UpdateTemLampProcess,@function
                        5164 	.size	_led_UpdateTemLampProcess,.-_led_UpdateTemLampProcess
                        5165 	.type	_led_UpdateTemLampProcess..D.3A.5CRenesas_Electronics.5CD1x_RGL.5Crgl_ghs_D1Lx_obj_V1.2E2.2E0.5Cvlib.5Capp.5Cgfx_apps.5Csimple_draw_d1l2.5Ctarget.5Cd1lx_mango_ghs.5Cobj.5Cled.,@function
                        5166 	.size	_led_UpdateTemLampProcess..D.3A.5CRenesas_Electronics.5CD1x_RGL.5Crgl_ghs_D1Lx_obj_V1.2E2.2E0.5Cvlib.5Capp.5Cgfx_apps.5Csimple_draw_d1l2.5Ctarget.5Cd1lx_mango_ghs.5Cobj.5Cled.,.-_led_UpdateTemLampProcess..D.3A.5CRenesas_Electronics.5CD1x_RGL.5Crgl_ghs_D1Lx_obj_V1.2E2.2E0.5Cvlib.5Capp.5Cgfx_apps.5Csimple_draw_d1l2.5Ctarget.5Cd1lx_mango_ghs.5Cobj.5Cled.
                        5167 	.align	2
                        5168 .LDW93:
                        5169 --_wseg	.L3137	static
                        5170 --_enable	r26	local
                        5171 --_lampIndex	r27	local
                        5172 --_i	r28	local
                        5173 --_led_TmptSeg	2[sp]	local
                        5174 --_res	r25	local
                        5175 --_curMode	3[sp]	local
                        5176 
                        5177 	.data
                        5178 .L3137:
                        5179 	.global	_wseg.led_UpdateTemLampProcess.D.3A.5CRenesas_Electronics.5CD1x_RGL.5Crgl_ghs_D1Lx_obj_V1.2E2.2E0.5Cvlib.5Capp.5Cgfx_apps.5Csimple_draw_d1l2.5Ctarget.5Cd1lx_mango_ghs.5Cobj.5Cled..31
                        5180 _wseg.led_UpdateTemLampProcess.D.3A.5CRenesas_Electronics.5CD1x_RGL.5Crgl_ghs_D1Lx_obj_V1.2E2.2E0.5Cvlib.5Capp.5Cgfx_apps.5Csimple_draw_d1l2.5Ctarget.5Cd1lx_mango_ghs.5Cobj.5Cled..31:
                        5181 	.type	_wseg.led_UpdateTemLampProcess.D.3A.5CRenesas_Electronics.5CD1x_RGL.5Crgl_ghs_D1Lx_obj_V1.2E2.2E0.5Cvlib.5Capp.5Cgfx_apps.5Csimple_draw_d1l2.5Ctarget.5Cd1lx_mango_ghs.5Cobj.5Cled..31,@object
                        5182 	.size	_wseg.led_UpdateTemLampProcess.D.3A.5CRenesas_Electronics.5CD1x_RGL.5Crgl_ghs_D1Lx_obj_V1.2E2.2E0.5Cvlib.5Capp.5Cgfx_apps.5Csimple_draw_d1l2.5Ctarget.5Cd1lx_mango_ghs.5Cobj.5Cled..31,1
00000017 09             5183 	.byte	9
                        5184 	.type	.L3137,@object
                        5185 	.size	.L3137,1
                        5186 	.text
                        5187 
                        5188 
                        5189 --1124: /**************************************************
                        5190 --1125: *Function :led_LampUpdateProcess
                        5191 --1126: *Description: Get Water Temperature warn type
                        5192 --1127: *Parameters:none
                        5193 --1128: *Returns: NONE
                        5194 --1130: **create&Verlog:
                        5195 --1131: *Author Name liuyingying  Date:2016-11-25    Ver:01
                        5196 --1132: ***************************************************/
                        5197 --1133: static void led_LampUpdateProcess(void)
                        5198 	.align	2
                        5199 	.align	2
                        5200 	.global	_led_LampUpdateProcess..D.3A.5CRenesas_Electronics.5CD1x_RGL.5Crgl_ghs_D1Lx_obj_V1.2E2.2E0.5Cvlib.5Capp.5Cgfx_apps.5Csimple_draw_d1l2.5Ctarget.5Cd1lx_mango_ghs.5Cobj.5Cled.
                        5201 _led_LampUpdateProcess..D.3A.5CRenesas_Electronics.5CD1x_RGL.5Crgl_ghs_D1Lx_obj_V1.2E2.2E0.5Cvlib.5Capp.5Cgfx_apps.5Csimple_draw_d1l2.5Ctarget.5Cd1lx_mango_ghs.5Cobj.5Cled.:
                        5202 _led_LampUpdateProcess:
00001500 80072100       5203 	prepare	{r31},0
                        5204 --	    .bf
                        5205 .LDW04:
                        5206 --1134: {
                        5207 --1135:     led_EventProcess();
                        5208 	jarl	_led_EventProcess,lp
                        5208 <EXPANSION BEGIN>
                        5208 jarl22 _led_EventProcess , lp 
00001504 bfff56f8*      5208 <EXPANSION END>
                        5209 --1136:     led_UpdateFuelLampProcess();
                        5210 --line1136
                        5211 ..lin.D.3A.5CRenesas_Electronics.5CD1x_RGL.5Crgl_ghs_D1Lx_obj_V1.2E2.2E0.5Cvlib.5Capp.5Cgfx_apps.5Csimple_draw_d1l2.5Ctarget.5Cd1lx_mango_ghs.5Cobj.5Cled.273::
                        5212 .LDWlin273:
                        5213 	jarl	_led_UpdateFuelLampProcess,lp
                        5213 <EXPANSION BEGIN>
                        5213 jarl22 _led_UpdateFuelLampProcess , lp 
00001508 bfff6cfe*      5213 <EXPANSION END>
                        5214 --1137:     led_UpdateTemLampProcess();    
                        5215 --line1137
                        5216 ..lin.D.3A.5CRenesas_Electronics.5CD1x_RGL.5Crgl_ghs_D1Lx_obj_V1.2E2.2E0.5Cvlib.5Capp.5Cgfx_apps.5Csimple_draw_d1l2.5Ctarget.5Cd1lx_mango_ghs.5Cobj.5Cled.274::

                                                                      Page 92
                                                              C:\Users\YINGAO~1\AppData\Local\Temp\gh_00007j81.si
                        5217 .LDWlin274:
                        5218 	jarl	_led_UpdateTemLampProcess,lp
                        5218 <EXPANSION BEGIN>
                        5218 jarl22 _led_UpdateTemLampProcess , lp 
0000150c bfff28ff*      5218 <EXPANSION END>
                        5219 --1138: }
                        5220 --line1138
                        5221 ..lin.D.3A.5CRenesas_Electronics.5CD1x_RGL.5Crgl_ghs_D1Lx_obj_V1.2E2.2E0.5Cvlib.5Capp.5Cgfx_apps.5Csimple_draw_d1l2.5Ctarget.5Cd1lx_mango_ghs.5Cobj.5Cled.275::
                        5222 .LDWlin275:
00001510 0000           5223 	nop
                        5224 --	    .ef
                        5225 .LDW14:
00001512 40063f00       5226 	dispose	0,{r31},[lp]
                        5227 	.type	_led_LampUpdateProcess,@function
                        5228 	.size	_led_LampUpdateProcess,.-_led_LampUpdateProcess
                        5229 	.type	_led_LampUpdateProcess..D.3A.5CRenesas_Electronics.5CD1x_RGL.5Crgl_ghs_D1Lx_obj_V1.2E2.2E0.5Cvlib.5Capp.5Cgfx_apps.5Csimple_draw_d1l2.5Ctarget.5Cd1lx_mango_ghs.5Cobj.5Cled.,@function
                        5230 	.size	_led_LampUpdateProcess..D.3A.5CRenesas_Electronics.5CD1x_RGL.5Crgl_ghs_D1Lx_obj_V1.2E2.2E0.5Cvlib.5Capp.5Cgfx_apps.5Csimple_draw_d1l2.5Ctarget.5Cd1lx_mango_ghs.5Cobj.5Cled.,.-_led_LampUpdateProcess..D.3A.5CRenesas_Electronics.5CD1x_RGL.5Crgl_ghs_D1Lx_obj_V1.2E2.2E0.5Cvlib.5Capp.5Cgfx_apps.5Csimple_draw_d1l2.5Ctarget.5Cd1lx_mango_ghs.5Cobj.5Cled.
                        5231 	.align	2
                        5232 .LDW24:
                        5233 
                        5234 	.section ".bss","awb"
                        5235 .L3182:
                        5236 	.type	.L3182,@object
                        5237 	.size	.L3182,0
                        5238 	.data
                        5239 	.text
                        5240 
                        5241 
                        5242 --1139: /**************************************************
                        5243 --1140: *Function :led_LampUpdateProcess
                        5244 --1141: *Description: Get Water Temperature warn type
                        5245 --1142: *Parameters:none
                        5246 --1143: *Returns: NONE
                        5247 --1145: **create&Verlog:
                        5248 --1146: *Author Name liuyingying  Date:2016-11-25    Ver:01
                        5249 --1147: ***************************************************/
                        5250 --1148: static void led_OutPutProcess(void)
                        5251 	.align	2
                        5252 	.align	2
                        5253 	.global	_led_OutPutProcess..D.3A.5CRenesas_Electronics.5CD1x_RGL.5Crgl_ghs_D1Lx_obj_V1.2E2.2E0.5Cvlib.5Capp.5Cgfx_apps.5Csimple_draw_d1l2.5Ctarget.5Cd1lx_mango_ghs.5Cobj.5Cled.
                        5254 _led_OutPutProcess..D.3A.5CRenesas_Electronics.5CD1x_RGL.5Crgl_ghs_D1Lx_obj_V1.2E2.2E0.5Cvlib.5Capp.5Cgfx_apps.5Csimple_draw_d1l2.5Ctarget.5Cd1lx_mango_ghs.5Cobj.5Cled.:
                        5255 _led_OutPutProcess:
00001516 8407e170       5256 	prepare	{r25,r26,r27,r28,r29,r31},2
0000151a 3d0600000000*  5257 	mov	_led_out-3,r29
00001520 3dde3400       5258 	movea	52,r29,r27
00001524 3dce1100       5259 	movea	17,r29,r25
                        5260 --	    .bf
                        5261 .LDW34:
                        5262 --1149: {
                        5263 --1150:     U8 i, j;
                        5264 --1152: 	U8 curMode;
                        5265 --1153: 	PWR_GetPwrMode(&curMode);
00001528 23360300       5266 	movea	3,sp,r6
                        5267 	jarl	_PWR_GetPwrMode,lp
                        5267 <EXPANSION BEGIN>
                        5267 jarl22 _PWR_GetPwrMode , lp 
0000152c 80ff0000*      5267 <EXPANSION END>
                        5268 --1156:     /***********************************************
                        5269 --1157:     LED state :  ON   OFF ?
                        5270 --1158:     ? FALSE == flash ? ,led_out ?????????
                        5271 --1159:     ************************************************/

                                                                      Page 93
                                                              C:\Users\YINGAO~1\AppData\Local\Temp\gh_00007j81.si
                        5272 --1160:     for (i =FREQUENCY_LED_NONE+1; i< FREQUENCY_LED_ALL; i++)
                        5273 --line1160
                        5274 ..lin.D.3A.5CRenesas_Electronics.5CD1x_RGL.5Crgl_ghs_D1Lx_obj_V1.2E2.2E0.5Cvlib.5Capp.5Cgfx_apps.5Csimple_draw_d1l2.5Ctarget.5Cd1lx_mango_ghs.5Cobj.5Cled.276::
                        5275 .LDWlin276:
00001530 01d2           5276 	mov	1,r26
00001532 0000           5277 	nop
                        5278 .L3207:
                        5279 --1161:     {
                        5280 --1162:         if (0 ==led_count[i]--)
00001534 1af0           5281 	mov	r26,ep
00001536 c1f2           5282 	shl	1,ep
00001538 2b0600000000*  5283 	mov	_led_count,r11
0000153e cbf1           5284 	add	r11,ep
00001540 7070           5285 	sld.hu	0[ep],r14
00001542 0e0effff       5286 	addi	-1,r14,r1
00001546 d072           5287 	shl	16,r14
00001548 800c           5288 	sst.h	r1,0[ep]
0000154a da7d*          5289 	bne	.L3243
                        5290 --1163:         {
                        5291 --1164:             led_count[i] =led_counter[i]-1;
                        5292 --line1164
                        5293 ..lin.D.3A.5CRenesas_Electronics.5CD1x_RGL.5Crgl_ghs_D1Lx_obj_V1.2E2.2E0.5Cvlib.5Capp.5Cgfx_apps.5Csimple_draw_d1l2.5Ctarget.5Cd1lx_mango_ghs.5Cobj.5Cled.277::
                        5294 .LDWlin277:
0000154c 210600000000*  5295 	mov	_led_counter,r1
00001552 da09           5296 	add	r26,r1
00001554 1af0           5297 	mov	r26,ep
00001556 810f0100       5298 	ld.bu	0[r1],r1
0000155a c1f2           5299 	shl	1,ep
0000155c 2b0600000000*  5300 	mov	_led_count,r11
00001562 cbf1           5301 	add	r11,ep
00001564 5f0a           5302 	add	-1,r1
00001566 800c           5303 	sst.h	r1,0[ep]
                        5304 --1165:             led_flash[i] =(!led_flash[i]);
00001568 1af0           5305 	mov	r26,ep
0000156a d9f1           5306 	add	r25,ep
0000156c 6008           5307 	sld.bu	0[ep],r1
0000156e e009           5308 	cmp	zero,r1
00001570 e20f0000       5309 	setfe	r1
00001574 800b           5310 	sst.b	r1,0[ep]
                        5311 --1167:             for (j = LEDLAMP_NONE +1; j < LEDLAMP_ALL; j++)            
00001576 01e2           5312 	mov	1,r28
00001578 0000           5313 	nop
                        5314 .L3212:
                        5315 --1168:             {
                        5316 --1169:                 if (i ==led_data[j].prm.Frequency)
0000157a 1cf0           5317 	mov	r28,ep
0000157c c4f2           5318 	shl	4,ep
0000157e dbf1           5319 	add	r27,ep
00001580 6808           5320 	sld.bu	8[ep],r1
00001582 e1d1           5321 	cmp	r1,r26
00001584 ba5d*          5322 	bne	.L3242
                        5323 --1170:                 {
                        5324 --1171:                 	if (FALSE ==led_data[j].done) 
                        5325 --line1171
                        5326 ..lin.D.3A.5CRenesas_Electronics.5CD1x_RGL.5Crgl_ghs_D1Lx_obj_V1.2E2.2E0.5Cvlib.5Capp.5Cgfx_apps.5Csimple_draw_d1l2.5Ctarget.5Cd1lx_mango_ghs.5Cobj.5Cled.278::
                        5327 .LDWlin278:
00001586 1cf0           5328 	mov	r28,ep
00001588 c4f2           5329 	shl	4,ep
0000158a dbf1           5330 	add	r27,ep
0000158c 6208           5331 	sld.bu	2[ep],r1
0000158e e009           5332 	cmp	zero,r1

                                                                      Page 94
                                                              C:\Users\YINGAO~1\AppData\Local\Temp\gh_00007j81.si
00001590 ba4d*          5333 	bne	.L3215
                        5334 --1172:         			{
                        5335 --1173:         	                    led_data[j].Level= led_flash[i];
                        5336 --line1173
                        5337 ..lin.D.3A.5CRenesas_Electronics.5CD1x_RGL.5Crgl_ghs_D1Lx_obj_V1.2E2.2E0.5Cvlib.5Capp.5Cgfx_apps.5Csimple_draw_d1l2.5Ctarget.5Cd1lx_mango_ghs.5Cobj.5Cled.279::
                        5338 .LDWlin279:
00001592 1a08           5339 	mov	r26,r1
00001594 d909           5340 	add	r25,r1
00001596 810f0100       5341 	ld.bu	0[r1],r1
0000159a 1cf0           5342 	mov	r28,ep
0000159c c4f2           5343 	shl	4,ep
0000159e dbf1           5344 	add	r27,ep
000015a0 830b           5345 	sst.b	r1,3[ep]
                        5346 --1175:         	                    if ((LEDLAMP_FUEL_WARN == j) && (FALSE == NWD_GetBusOffFlt()))
000015a2 6ae2           5347 	cmp	10,r28
000015a4 fa15*          5348 	bne	.L3225
                        5349 	jarl	_NWD_GetBusOffFlt,lp
                        5349 <EXPANSION BEGIN>
                        5349 jarl22 _NWD_GetBusOffFlt , lp 
000015a6 80ff0000*      5349 <EXPANSION END>
000015aa e051           5350 	cmp	zero,r10
000015ac ba15*          5351 	bne	.L3225
                        5352 --1176:         	                    {
                        5353 --1177:         	                    	if((STATE_CYCLE_NEXT != WFM_GetFuelSensorCycle())
                        5354 --line1177
                        5355 ..lin.D.3A.5CRenesas_Electronics.5CD1x_RGL.5Crgl_ghs_D1Lx_obj_V1.2E2.2E0.5Cvlib.5Capp.5Cgfx_apps.5Csimple_draw_d1l2.5Ctarget.5Cd1lx_mango_ghs.5Cobj.5Cled.280::
                        5356 .LDWlin280:
                        5357 	jarl	_WFM_GetFuelSensorCycle,lp
                        5357 <EXPANSION BEGIN>
                        5357 jarl22 _WFM_GetFuelSensorCycle , lp 
000015ae 80ff0000*      5357 <EXPANSION END>
000015b2 6252           5358 	cmp	2,r10
000015b4 f20d*          5359 	be	.L3225
000015b6 a30f0300       5360 	ld.bu	3[sp],r1
000015ba 620a           5361 	cmp	2,r1
000015bc d205*          5362 	be	.L3221
000015be a30f0300       5363 	ld.bu	3[sp],r1
000015c2 630a           5364 	cmp	3,r1
000015c4 fa05*          5365 	bne	.L3225
                        5366 .L3221:
                        5367 --1178: 										&&((PWR_RUN == curMode) ||(PWR_CRANK== curMode)))
                        5368 --1179:     	                    		{
                        5369 --1180:     	                         		led_data[LEDLAMP_FUELSEGMENT1].Level= led_data[j].Level;
                        5370 --line1180
                        5371 ..lin.D.3A.5CRenesas_Electronics.5CD1x_RGL.5Crgl_ghs_D1Lx_obj_V1.2E2.2E0.5Cvlib.5Capp.5Cgfx_apps.5Csimple_draw_d1l2.5Ctarget.5Cd1lx_mango_ghs.5Cobj.5Cled.281::
                        5372 .LDWlin281:
000015c6 1cf0           5373 	mov	r28,ep
000015c8 c4f2           5374 	shl	4,ep
000015ca dbf1           5375 	add	r27,ep
000015cc 6308           5376 	sld.bu	3[ep],r1
000015ce 5d0fb701       5377 	st.b	r1,439[r29]
                        5378 .L3225:
                        5379 --1181:     	                    		}
                        5380 --1182: 									else
                        5381 --1183: 									{
                        5382 --1184: 									}
                        5383 --1185:         	                    } 
                        5384 --1186: 								else
                        5385 --1187: 								{
                        5386 --1188: 								}
                        5387 --1190:         	                    /*************************************

                                                                      Page 95
                                                              C:\Users\YINGAO~1\AppData\Local\Temp\gh_00007j81.si
                        5388 --1191:         	                      do flash event update, eg.reverse
                        5389 --1193:         	                     *************************************/
                        5390 --1194:         	                    if (TRUE == led_data[j].Level)
000015d2 1cf0           5391 	mov	r28,ep
000015d4 c4f2           5392 	shl	4,ep
000015d6 dbf1           5393 	add	r27,ep
000015d8 6308           5394 	sld.bu	3[ep],r1
000015da 610a           5395 	cmp	1,r1
000015dc fa2d*          5396 	bne	.L3242
                        5397 --1195:         			            {
                        5398 --1196:         			 	            if (0 == led_data[j].TotalCnt)
                        5399 --line1196
                        5400 ..lin.D.3A.5CRenesas_Electronics.5CD1x_RGL.5Crgl_ghs_D1Lx_obj_V1.2E2.2E0.5Cvlib.5Capp.5Cgfx_apps.5Csimple_draw_d1l2.5Ctarget.5Cd1lx_mango_ghs.5Cobj.5Cled.282::
                        5401 .LDWlin282:
000015de 1cf0           5402 	mov	r28,ep
000015e0 c4f2           5403 	shl	4,ep
000015e2 dbf1           5404 	add	r27,ep
000015e4 7008           5405 	sld.hu	0[ep],r1
000015e6 e009           5406 	cmp	zero,r1
000015e8 9a15*          5407 	bne	.L3228
                        5408 --1197:         	                        {
                        5409 --1198:         	                            led_data[j].done = TRUE;
                        5410 --line1198
                        5411 ..lin.D.3A.5CRenesas_Electronics.5CD1x_RGL.5Crgl_ghs_D1Lx_obj_V1.2E2.2E0.5Cvlib.5Capp.5Cgfx_apps.5Csimple_draw_d1l2.5Ctarget.5Cd1lx_mango_ghs.5Cobj.5Cled.283::
                        5412 .LDWlin283:
000015ea 1cf0           5413 	mov	r28,ep
000015ec c4f2           5414 	shl	4,ep
000015ee dbf1           5415 	add	r27,ep
000015f0 010a           5416 	mov	1,r1
000015f2 820b           5417 	sst.b	r1,2[ep]
                        5418 --1199:             	                        if (LEDLAMP_ASS_ACTIVE ==j)
000015f4 1c06deff       5419 	addi	-34,r28,zero
000015f8 9a25*          5420 	bne	.L3242
                        5421 --1200:             	                        {
                        5422 --1201:             	                            STSMG_GetStopStartEventLed(&led_data[j].Level);
                        5423 --line1201
                        5424 ..lin.D.3A.5CRenesas_Electronics.5CD1x_RGL.5Crgl_ghs_D1Lx_obj_V1.2E2.2E0.5Cvlib.5Capp.5Cgfx_apps.5Csimple_draw_d1l2.5Ctarget.5Cd1lx_mango_ghs.5Cobj.5Cled.284::
                        5425 .LDWlin284:
000015fa 1c08           5426 	mov	r28,r1
000015fc c40a           5427 	shl	4,r1
000015fe db09           5428 	add	r27,r1
00001600 01360300       5429 	addi	3,r1,r6
                        5430 	jarl	_STSMG_GetStopStartEventLed,lp
                        5430 <EXPANSION BEGIN>
                        5430 jarl22 _STSMG_GetStopStartEventLed , lp 
00001604 80ff0000*      5430 <EXPANSION END>
00001608 951d*          5431 	br	.L3242
                        5432 .L3228:
                        5433 --1202:             	                        }
                        5434 --1203:             	                        else
                        5435 --1204:             	                        {
                        5436 --1205:             	                        }
                        5437 --1206:         	                        }
                        5438 --1207:         	                        else
                        5439 --1208:         	                        {
                        5440 --1209:         	                            
                        5441 --1210: 	                				     if (0xffff !=led_data[j].TotalCnt)				
                        5442 --line1210
                        5443 ..lin.D.3A.5CRenesas_Electronics.5CD1x_RGL.5Crgl_ghs_D1Lx_obj_V1.2E2.2E0.5Cvlib.5Capp.5Cgfx_apps.5Csimple_draw_d1l2.5Ctarget.5Cd1lx_mango_ghs.5Cobj.5Cled.285::
                        5444 .LDWlin285:
0000160a 1cf0           5445 	mov	r28,ep

                                                                      Page 96
                                                              C:\Users\YINGAO~1\AppData\Local\Temp\gh_00007j81.si
0000160c c4f2           5446 	shl	4,ep
0000160e dbf1           5447 	add	r27,ep
00001610 7008           5448 	sld.hu	0[ep],r1
00001612 a106ffff       5449 	xori	65535,r1,zero
00001616 a215*          5450 	be	.L3242
                        5451 --1211: 	                				     {
                        5452 --1212: 	                				     	led_data[j].TotalCnt--;
                        5453 --line1212
                        5454 ..lin.D.3A.5CRenesas_Electronics.5CD1x_RGL.5Crgl_ghs_D1Lx_obj_V1.2E2.2E0.5Cvlib.5Capp.5Cgfx_apps.5Csimple_draw_d1l2.5Ctarget.5Cd1lx_mango_ghs.5Cobj.5Cled.286::
                        5455 .LDWlin286:
00001618 1cf0           5456 	mov	r28,ep
0000161a c4f2           5457 	shl	4,ep
0000161c dbf1           5458 	add	r27,ep
0000161e 7008           5459 	sld.hu	0[ep],r1
00001620 5f0a           5460 	add	-1,r1
00001622 800c           5461 	sst.h	r1,0[ep]
00001624 b50d*          5462 	br	.L3242
                        5463 .L3215:
                        5464 --1213: 	                				     }
                        5465 --1214: 	                				     else
                        5466 --1215: 	                				     {
                        5467 --1216: 	                				     }
                        5468 --1217:         	                        }
                        5469 --1218:         	                    }
                        5470 --1219:         	                    else
                        5471 --1220:         	                    {
                        5472 --1221:         	                    }
                        5473 --1222:         	                }
                        5474 --1223:         			 else
                        5475 --1224:         			 {
                        5476 --1225:                         if (LEDLAMP_ASS_ACTIVE ==j)
                        5477 --line1225
                        5478 ..lin.D.3A.5CRenesas_Electronics.5CD1x_RGL.5Crgl_ghs_D1Lx_obj_V1.2E2.2E0.5Cvlib.5Capp.5Cgfx_apps.5Csimple_draw_d1l2.5Ctarget.5Cd1lx_mango_ghs.5Cobj.5Cled.287::
                        5479 .LDWlin287:
00001626 1c06deff       5480 	addi	-34,r28,zero
0000162a 8a0d*          5481 	bne	.L3242
                        5482 --1226:                         {
                        5483 --1227:                             STSMG_GetStopStartEventLed(&led_data[j].Level);
                        5484 --line1227
                        5485 ..lin.D.3A.5CRenesas_Electronics.5CD1x_RGL.5Crgl_ghs_D1Lx_obj_V1.2E2.2E0.5Cvlib.5Capp.5Cgfx_apps.5Csimple_draw_d1l2.5Ctarget.5Cd1lx_mango_ghs.5Cobj.5Cled.288::
                        5486 .LDWlin288:
0000162c 1c08           5487 	mov	r28,r1
0000162e c40a           5488 	shl	4,r1
00001630 db09           5489 	add	r27,r1
00001632 01360300       5490 	addi	3,r1,r6
                        5491 	jarl	_STSMG_GetStopStartEventLed,lp
                        5491 <EXPANSION BEGIN>
                        5491 jarl22 _STSMG_GetStopStartEventLed , lp 
00001636 80ff0000*      5491 <EXPANSION END>
                        5492 .L3242:
                        5493 --1228:                         }
                        5494 --1229:                         else
                        5495 --1230:                         {
                        5496 --1231:                         }
                        5497 --1232:         			 }	
                        5498 --1233:                 }
                        5499 --1234:                 else
                        5500 --1235:                 {
                        5501 --line1167
                        5502 ..lin.D.3A.5CRenesas_Electronics.5CD1x_RGL.5Crgl_ghs_D1Lx_obj_V1.2E2.2E0.5Cvlib.5Capp.5Cgfx_apps.5Csimple_draw_d1l2.5Ctarget.5Cd1lx_mango_ghs.5Cobj.5Cled.289::
                        5503 .LDWlin289:

                                                                      Page 97
                                                              C:\Users\YINGAO~1\AppData\Local\Temp\gh_00007j81.si
0000163a 41e2           5504 	add	1,r28
0000163c 9c00           5505 	zxb	r28
0000163e 1c06ceff       5506 	addi	-50,r28,zero
00001642 c99d*          5507 	bnl	.L3212
                        5508 .L3243:
                        5509 --1237:                 }
                        5510 --1239:             }
                        5511 --1241:         }
                        5512 --1242: 		else
                        5513 --1243: 		{
                        5514 --line1160
                        5515 ..lin.D.3A.5CRenesas_Electronics.5CD1x_RGL.5Crgl_ghs_D1Lx_obj_V1.2E2.2E0.5Cvlib.5Capp.5Cgfx_apps.5Csimple_draw_d1l2.5Ctarget.5Cd1lx_mango_ghs.5Cobj.5Cled.290::
                        5516 .LDWlin290:
00001644 41d2           5517 	add	1,r26
00001646 9a00           5518 	zxb	r26
00001648 65d2           5519 	cmp	5,r26
0000164a f107ebfe*      5520 	bl	.L3207
                        5521 --1244: 		}
                        5522 --1245:     }
                        5523 --1248:     /*update output level*/
                        5524 --1249:     for (i = LEDLAMP_NONE+1; i < LEDLAMP_ALL; i++)
                        5525 --line1249
                        5526 ..lin.D.3A.5CRenesas_Electronics.5CD1x_RGL.5Crgl_ghs_D1Lx_obj_V1.2E2.2E0.5Cvlib.5Capp.5Cgfx_apps.5Csimple_draw_d1l2.5Ctarget.5Cd1lx_mango_ghs.5Cobj.5Cled.291::
                        5527 .LDWlin291:
0000164e 01d2           5528 	mov	1,r26
00001650 0000           5529 	nop
                        5530 .L3246:
                        5531 --1250:     {
                        5532 --1251:         led_SetLampStatus(&led_out, i, led_data[i].Level);
00001652 1af0           5533 	mov	r26,ep
00001654 c4f2           5534 	shl	4,ep
00001656 dbf1           5535 	add	r27,ep
00001658 1a38           5536 	mov	r26,r7
0000165a 6340           5537 	sld.bu	3[ep],r8
0000165c 260600000000*  5538 	mov	_led_out,r6
                        5539 	jarl	_led_SetLampStatus,lp
                        5539 <EXPANSION BEGIN>
                        5539 jarl22 _led_SetLampStatus , lp 
00001662 bfff6af2*      5539 <EXPANSION END>
                        5540 --line1249
                        5541 ..lin.D.3A.5CRenesas_Electronics.5CD1x_RGL.5Crgl_ghs_D1Lx_obj_V1.2E2.2E0.5Cvlib.5Capp.5Cgfx_apps.5Csimple_draw_d1l2.5Ctarget.5Cd1lx_mango_ghs.5Cobj.5Cled.292::
                        5542 .LDWlin292:
00001666 41d2           5543 	add	1,r26
00001668 9a00           5544 	zxb	r26
0000166a 1a06ceff       5545 	addi	-50,r26,zero
0000166e a9f5*          5546 	bnl	.L3246
                        5547 --1252:     }
                        5548 --1254: }
                        5549 --line1254
                        5550 ..lin.D.3A.5CRenesas_Electronics.5CD1x_RGL.5Crgl_ghs_D1Lx_obj_V1.2E2.2E0.5Cvlib.5Capp.5Cgfx_apps.5Csimple_draw_d1l2.5Ctarget.5Cd1lx_mango_ghs.5Cobj.5Cled.293::
                        5551 .LDWlin293:
00001670 0000           5552 	nop
                        5553 --	    .ef
                        5554 .LDW44:
00001672 4406ff70       5555 	dispose	2,{r25,r26,r27,r28,r29,r31},[lp]
                        5556 	.type	_led_OutPutProcess,@function
                        5557 	.size	_led_OutPutProcess,.-_led_OutPutProcess
                        5558 	.type	_led_OutPutProcess..D.3A.5CRenesas_Electronics.5CD1x_RGL.5Crgl_ghs_D1Lx_obj_V1.2E2.2E0.5Cvlib.5Capp.5Cgfx_apps.5Csimple_draw_d1l2.5Ctarget.5Cd1lx_mango_ghs.5Cobj.5Cled.,@function
                        5559 	.size	_led_OutPutProcess..D.3A.5CRenesas_Electronics.5CD1x_RGL.5Crgl_ghs_D1Lx_obj_V1.2E2.2E0.5Cvlib.5Capp.5Cgfx_apps.5Csimple_draw_d1l2.5Ctarget.5Cd1lx_mango_ghs.5Cobj.5Cled.,.-_led_OutPutProcess..D.3A.5CRenesas_Electronics.5CD1x_RGL.5Crgl_ghs_D1Lx_obj_V1.2E2.2E0.5Cvlib.5Capp.5Cgfx_apps.5Csimple_draw_d1l2.5Ctarget.5Cd1lx_mango_ghs.5Cobj.5Cled.
                        5560 	.align	2
                        5561 .LDW54:

                                                                      Page 98
                                                              C:\Users\YINGAO~1\AppData\Local\Temp\gh_00007j81.si
                        5562 --_i	r26	local
                        5563 --_j	r28	local
                        5564 --_curMode	3[sp]	local
                        5565 
                        5566 	.data
                        5567 	.text
                        5568 
                        5569 
                        5570 --1257: /**************************************************
                        5571 --1258: *Function :LED_GetLevel
                        5572 --1259: *Description: Get LED work status
                        5573 --1260: *Parameters:none
                        5574 --1261: *Returns:
                        5575 --1262:               TRUE:means  LED is in IDLE state
                        5576 --1263:               FALSE:means LED is busy
                        5577 --1265: **create&Verlog:
                        5578 --1266: *Author Name liuyingying  Date:2016-11-25    Ver:01
                        5579 --1267: ***************************************************/
                        5580 --1268: BOOL LED_GetLevel(void)
                        5581 	.align	2
                        5582 	.align	2
                        5583 	.global	_LED_GetLevel
                        5584 _LED_GetLevel:
                        5585 --	    .bf
                        5586 .LDW64:
                        5587 --1269: {
                        5588 --1270: 	 
                        5589 --1271: 	if (0 <led_data[LEDLAMP_SEATBELT_UNFASTEN].Level)
00001676 210600000000*  5590 	mov	_led_data+99,r1
0000167c 810f0100       5591 	ld.bu	0[r1],r1
00001680 e009           5592 	cmp	zero,r1
00001682 b205*          5593 	be	.L3475
                        5594 --1272: 	{
                        5595 --1273:     	return (TRUE);
                        5596 --line1273
                        5597 ..lin.D.3A.5CRenesas_Electronics.5CD1x_RGL.5Crgl_ghs_D1Lx_obj_V1.2E2.2E0.5Cvlib.5Capp.5Cgfx_apps.5Csimple_draw_d1l2.5Ctarget.5Cd1lx_mango_ghs.5Cobj.5Cled.294::
                        5598 .LDWlin294:
00001684 0152           5599 	mov	1,r10
00001686 a505*          5600 	br	.L3473
                        5601 .L3475:
                        5602 --1274: 	}
                        5603 --1275: 	else
                        5604 --1276: 	{
                        5605 --1277: 		return (FALSE);
                        5606 --line1277
                        5607 ..lin.D.3A.5CRenesas_Electronics.5CD1x_RGL.5Crgl_ghs_D1Lx_obj_V1.2E2.2E0.5Cvlib.5Capp.5Cgfx_apps.5Csimple_draw_d1l2.5Ctarget.5Cd1lx_mango_ghs.5Cobj.5Cled.295::
                        5608 .LDWlin295:
00001688 0052           5609 	mov	0,r10
                        5610 .L3473:
                        5611 --	    .ef
                        5612 .LDW74:
0000168a 7f00           5613 	jmp	[lp]
                        5614 	.type	_LED_GetLevel,@function
                        5615 	.size	_LED_GetLevel,.-_LED_GetLevel
                        5616 	.align	2
                        5617 .LDW84:
                        5618 
                        5619 	.data
                        5620 	.text
                        5621 
                        5622 --1278: 	}

                                                                      Page 99
                                                              C:\Users\YINGAO~1\AppData\Local\Temp\gh_00007j81.si
                        5623 --1279: }
                        5624 
                        5625 --1281: BOOL LED_Get_Brake_Level(void)
                        5626 	.align	2
                        5627 	.align	2
                        5628 	.global	_LED_Get_Brake_Level
                        5629 _LED_Get_Brake_Level:
                        5630 --	    .bf
                        5631 .LDW94:
                        5632 --1282: {
                        5633 --1283: 	 
                        5634 --1284: 	if (0 <led_data[LEDLAMP_BRAKEERROR].Level)
0000168c 210600000000*  5635 	mov	_led_data+51,r1
00001692 810f0100       5636 	ld.bu	0[r1],r1
00001696 e009           5637 	cmp	zero,r1
00001698 b205*          5638 	be	.L3519
                        5639 --1285: 	{
                        5640 --1286:     	return (TRUE);
                        5641 --line1286
                        5642 ..lin.D.3A.5CRenesas_Electronics.5CD1x_RGL.5Crgl_ghs_D1Lx_obj_V1.2E2.2E0.5Cvlib.5Capp.5Cgfx_apps.5Csimple_draw_d1l2.5Ctarget.5Cd1lx_mango_ghs.5Cobj.5Cled.296::
                        5643 .LDWlin296:
0000169a 0152           5644 	mov	1,r10
0000169c a505*          5645 	br	.L3517
                        5646 .L3519:
                        5647 --1287: 	}
                        5648 --1288: 	else
                        5649 --1289: 	{
                        5650 --1290: 		return (FALSE);
                        5651 --line1290
                        5652 ..lin.D.3A.5CRenesas_Electronics.5CD1x_RGL.5Crgl_ghs_D1Lx_obj_V1.2E2.2E0.5Cvlib.5Capp.5Cgfx_apps.5Csimple_draw_d1l2.5Ctarget.5Cd1lx_mango_ghs.5Cobj.5Cled.297::
                        5653 .LDWlin297:
0000169e 0052           5654 	mov	0,r10
                        5655 .L3517:
                        5656 --	    .ef
                        5657 .LDW05:
000016a0 7f00           5658 	jmp	[lp]
                        5659 	.type	_LED_Get_Brake_Level,@function
                        5660 	.size	_LED_Get_Brake_Level,.-_LED_Get_Brake_Level
                        5661 	.align	2
                        5662 .LDW15:
                        5663 
                        5664 	.data
                        5665 	.text
                        5666 
                        5667 --1291: 	}
                        5668 --1292: }
                        5669 
                        5670 --1297: /**************************************************
                        5671 --1298: *Function :LED_GetEventResult
                        5672 --1299: *Description: Get LED work status
                        5673 --1300: *Parameters:none
                        5674 --1301: *Returns:
                        5675 --1302:               TRUE:means  LED is in IDLE state
                        5676 --1303:               FALSE:means LED is busy
                        5677 --1305: **create&Verlog:
                        5678 --1306: *Author Name liuyingying  Date:2016-11-25    Ver:01
                        5679 --1307: ***************************************************/
                        5680 --1308: BOOL LED_GetEventResult(LED_EVENT_ENUM index)
                        5681 	.align	2
                        5682 	.align	2
                        5683 	.global	_LED_GetEventResult

                                                                      Page 100
                                                              C:\Users\YINGAO~1\AppData\Local\Temp\gh_00007j81.si
                        5684 _LED_GetEventResult:
000016a2 0670           5685 	mov	r6,r14
                        5686 --	    .bf
                        5687 .LDW25:
                        5688 --1309: {
                        5689 --1310:     LEDLamp_ENUM lampIndex=LEDLAMP_NONE;
000016a4 000a           5690 	mov	0,r1
                        5691 --1312:     lampIndex =led_Matrix[index].index;
000016a6 0ef0           5692 	mov	r14,ep
000016a8 c4f2           5693 	shl	4,ep
000016aa 2c0600000000*  5694 	mov	_led_Matrix,r12
000016b0 ccf1           5695 	add	r12,ep
000016b2 020d           5696 	sld.w	4[ep],r1
                        5697 --1314:     return led_data[lampIndex].done;
000016b4 01f0           5698 	mov	r1,ep
000016b6 c4f2           5699 	shl	4,ep
000016b8 2c0600000000*  5700 	mov	_led_data,r12
000016be ccf1           5701 	add	r12,ep
000016c0 6250           5702 	sld.bu	2[ep],r10
                        5703 --	    .ef
                        5704 .LDW35:
000016c2 7f00           5705 	jmp	[lp]
                        5706 	.type	_LED_GetEventResult,@function
                        5707 	.size	_LED_GetEventResult,.-_LED_GetEventResult
                        5708 	.align	2
                        5709 .LDW45:
                        5710 --_lampIndex	r1	local
                        5711 
                        5712 --_index	r14	param
                        5713 
                        5714 	.data
                        5715 	.text
                        5716 
                        5717 --1315: }
                        5718 
                        5719 --1316: /**************************************************
                        5720 --1317: *Function :LED_GetLampStatus
                        5721 --1318: *Description: Provide interface for LRM,to get all lamp status.
                        5722 --1319: *Parameters:
                        5723 --1320:                     value:output ,all lrm  light status
                        5724 --1321:                     size:input, lrm value size
                        5725 --1322: *Returns:
                        5726 --1323:               TRUE:means  there is no wrong accour
                        5727 --1324:               FALSE:means nthere is something wrong accour
                        5728 --1325:               **create&Verlog:
                        5729 --1326: *Author Name liuyingying  Date:2016-11-25    Ver:01
                        5730 --1327: ***************************************************/
                        5731 --1328: U8 LED_GetLampStatus(LRMState_UN *value, U8 size)
                        5732 	.align	2
                        5733 	.align	2
                        5734 	.global	_LED_GetLampStatus
                        5735 _LED_GetLampStatus:
000016c4 06f0           5736 	mov	r6,ep
000016c6 c76eff00       5737 	andi	255,r7,r13
                        5738 --	    .bf
                        5739 .LDW55:
                        5740 --1329: {
                        5741 --1330:     U8 i,res = FALSE;
000016ca 000a           5742 	mov	0,r1
                        5743 --1331:     if((NULL_PTR == value) || (size != (sizeof(led_out.lrm_lamp))))
000016cc e0f1           5744 	cmp	zero,ep

                                                                      Page 101
                                                              C:\Users\YINGAO~1\AppData\Local\Temp\gh_00007j81.si
000016ce b205*          5745 	be	.L3600
000016d0 666a           5746 	cmp	6,r13
000016d2 b205*          5747 	be	.L3599
                        5748 .L3600:
                        5749 --1332:     {
                        5750 --1333:         res = FALSE;
                        5751 --line1333
                        5752 ..lin.D.3A.5CRenesas_Electronics.5CD1x_RGL.5Crgl_ghs_D1Lx_obj_V1.2E2.2E0.5Cvlib.5Capp.5Cgfx_apps.5Csimple_draw_d1l2.5Ctarget.5Cd1lx_mango_ghs.5Cobj.5Cled.298::
                        5753 .LDWlin298:
000016d4 000a           5754 	mov	0,r1
000016d6 f515*          5755 	br	.L3602
                        5756 .L3599:
                        5757 --1334:     }
                        5758 --1335:     else
                        5759 --1336:     {
                        5760 --1337:     	//for( i = 0; i < 6; i++)
                        5761 --1338: 		//	led_out.lrm_lamp.LRM_value[i] = 0xff;
                        5762 --1339:         *value = led_out.lrm_lamp;
                        5763 --line1339
                        5764 ..lin.D.3A.5CRenesas_Electronics.5CD1x_RGL.5Crgl_ghs_D1Lx_obj_V1.2E2.2E0.5Cvlib.5Capp.5Cgfx_apps.5Csimple_draw_d1l2.5Ctarget.5Cd1lx_mango_ghs.5Cobj.5Cled.299::
                        5765 .LDWlin299:
000016d8 2e0600000000*  5766 	mov	_led_out,r14
000016de 8e670100       5767 	ld.bu	0[r14],r12
000016e2 ae5f0100       5768 	ld.bu	1[r14],r11
000016e6 8e570300       5769 	ld.bu	2[r14],r10
000016ea ae4f0300       5770 	ld.bu	3[r14],r9
000016ee 8063           5771 	sst.b	r12,0[ep]
000016f0 815b           5772 	sst.b	r11,1[ep]
000016f2 8253           5773 	sst.b	r10,2[ep]
000016f4 834b           5774 	sst.b	r9,3[ep]
000016f6 8e670500       5775 	ld.bu	4[r14],r12
000016fa ae770500       5776 	ld.bu	5[r14],r14
000016fe 8463           5777 	sst.b	r12,4[ep]
00001700 8573           5778 	sst.b	r14,5[ep]
                        5779 --1340:         res =TRUE;
00001702 010a           5780 	mov	1,r1
                        5781 .L3602:
                        5782 --1341:     }
                        5783 --1342:     return  res;
00001704 0150           5784 	mov	r1,r10
                        5785 --	    .ef
                        5786 .LDW65:
00001706 7f00           5787 	jmp	[lp]
                        5788 	.type	_LED_GetLampStatus,@function
                        5789 	.size	_LED_GetLampStatus,.-_LED_GetLampStatus
                        5790 	.align	2
                        5791 .LDW75:
                        5792 --_res	r1	local
                        5793 
                        5794 --_value	ep	param
                        5795 --_size	r13	param
                        5796 
                        5797 	.data
                        5798 	.text
                        5799 
                        5800 --1343: }
                        5801 	.align	2
                        5802 --_led_selfcheckMatrix	_led_selfcheckMatrix	static
                        5803 --_led_Matrix	_led_Matrix	static
                        5804 --_led_counter	_led_counter	static
                        5805 --_led_dataMask	_led_dataMask	static

                                                                      Page 102
                                                              C:\Users\YINGAO~1\AppData\Local\Temp\gh_00007j81.si
                        5806 --_led_InitSts	_led_InitSts	static
                        5807 --_led_GCounter	_led_GCounter	static
                        5808 --_led_invalidCnt	_led_invalidCnt	static
                        5809 --_led_EventData	_led_EventData	static
                        5810 --_led_data	_led_data	static
                        5811 --_led_State	_led_State	static
                        5812 --_led_out	_led_out	static
                        5813 --_led_Enable	_led_Enable	static
                        5814 --_insCruiseLampEnPrm	_insCruiseLampEnPrm	static
                        5815 --_insLoadShedLampEnPrm	_insLoadShedLampEnPrm	static
                        5816 --_insEPSLampEnPrm	_insEPSLampEnPrm	static
                        5817 --_insSASLampEnPrm	_insSASLampEnPrm	static
                        5818 --_insESCLLampEnPrm	_insESCLLampEnPrm	static
                        5819 --_insDSCLampEnPrm	_insDSCLampEnPrm	static
                        5820 --_insFrFogLampEnPRm	_insFrFogLampEnPRm	static
                        5821 --_insNoSmartKeyLampEnPrm	_insNoSmartKeyLampEnPrm	static
                        5822 --_insSecKeyInvLampEnPrm	_insSecKeyInvLampEnPrm	static
                        5823 --_insKeyBatLowLampEnPrm	_insKeyBatLowLampEnPrm	static
                        5824 --_insEcoLampEnPrm	_insEcoLampEnPrm	static
                        5825 --_insStopStartSysEnPrm	_insStopStartSysEnPrm	static
                        5826 --_insTPMSFailEnPrm	_insTPMSFailEnPrm	static
                        5827 --_insEPBStatusEnPrm	_insEPBStatusEnPrm	static
                        5828 --_insAutoholdStatusEnPrm	_insAutoholdStatusEnPrm	static
                        5829 --_insHDCLampEnPrm	_insHDCLampEnPrm	static
                        5830 --_led_count	_led_count	static
                        5831 --_led_flash	_led_flash	static
                        5832 
                        5833 	.data
                        5834 	.ghsnote version,14
                        5835 	.ghsnote tools,3
                        5836 	.ghsnote options,144
                        5837 	.text
                        5838 	.align	2
                        5839 ..eof.D.3A.5CRenesas_Electronics.5CD1x_RGL.5Crgl_ghs_D1Lx_obj_V1.2E2.2E0.5Cvlib.5Capp.5Cgfx_apps.5Csimple_draw_d1l2.5Ctarget.5Cd1lx_mango_ghs.5Cobj.5Cled...44.3A.5CRenesas_Electronics.5CD1x_RGL.5Crgl_ghs_D1Lx_obj_V1.2E2.2E0.5Cvlib.5Capp.5Cgfx_apps.5Csimple_draw_d1l2.5Ctarget.5Cd1lx_mango_ghs..5A74036E..0::
                        5840 .rh850_flags REGMODE22,DATA_ALIGN8,GP_FIX,EP_NONFIX,TP_FIX,REG2_RESERVE,G3M
