                                                                      Page 1
                                                              C:\Users\YINGAO~1\AppData\Local\Temp\gh_00007eo1.si
Command Line: C:\ghs\comp_201355\ease850.exe -w -elf -b0 -I../../../../../Device -I../../../../../Driver/ADCE -I../../../../../Driver/CLOCK -I../../../../../Driver/DIO -I../../../../../Driver/DSPI -I../../../../../Driver/Interrupt -I../../../../../Driver/ISM -I../../../../../Driver/OSTM -I../../../../../Driver/PWM -I../../../../../Driver/RSTC -I../../../../../Driver/RTCA -I../../../../../Driver/STBC -I../../../../../Driver/TAUB -I../../../../../Driver/WDT -I../../../../../middleware\ADM -I../../../../../middleware\BPM -I../../../../../middleware\EED -I../../../../../middleware\IOM -I../../../../../middleware\LRM -I../../../../../middleware\MOM -I../../../../../middleware\PWMM -I../../../../../Common -I../../../../../Applayer\DSM -I../../../../../Applayer\FM -I../../../../../Applayer\TPM -I../../../../../Applayer\ACC -I../../../../../Applayer\ASS -I../../../../../Applayer\BAT -I../../../../../Applayer\COM -I../../../../../Applayer\COM\vtp -I../../../../../Applayer\COM\vtp\lib -I../../../../../Applayer\CRUS -I../../../../../Applayer\DIAG -I../../../../../Applayer\FC -I../../../../../Applayer\FL -I../../../../../Applayer\HSD -I../../../../../Applayer\IDLE -I../../../../../Applayer\ILLU -I../../../../../Applayer\LED -I../../../../../Applayer\MSG -I../../../../../Applayer\NVM -I../../../../../Applayer\ODO -I../../../../../Applayer\PWR -I../../../../../Applayer\RANG -I../../../../../Applayer\RST -I../../../../../Applayer\RTC -I../../../../../Applayer\SCS -I../../../../../Applayer\SSB -I../../../../../Applayer\ST -I../../../../../Applayer\STSMG -I../../../../../Applayer\SYS -I../../../../../Applayer\TIP -I../../../../../Applayer\TRIP -I../../../../../Applayer\CHM -I../../../../../Applayer\DM -I../../../../../Applayer\EVT -I../../../../../Applayer\FTR -I../../../../../Applayer\SLF -I../../../../../Applayer\NWD -I../../../../../Applayer\TPMS -I../../../../../Applayer\WFM -I../../../../../Applayer\NZM -I../../../../../app/gfx_apps/simple_draw_d1l2/src -I../../../../../bsp/board//config -I../../../../../bsp/board//src/gfx -I../../../../../bsp/board//src/hmi -I../../../../../bsp/board//src/stdio -I../../../../../bsp/board/d1lx_mango/config -I../../../../../bsp/board/d1lx_mango/src -I../../../../../bsp/board/d1lx_mango/src/gfx -I../../../../../bsp/board/d1lx_mango/src/hmi -I../../../../../bsp/board/d1lx_mango/src/stdio -I../../../../../bsp/gfx/lib -I../../../../../bsp/gfx/src -I../../../../../bsp/hmi/lib -I../../../../../bsp/hmi/src -I../../../../../bsp/lib -I../../../../../bsp/stdio/lib -I../../../../../bsp/stdio/src -I../../../../../cdi/lib -I../../../../../cdi/src -I../../../../../compiler/rh850_ghs/inc -I../../../../../device/d1lx/lib -I../../../../../device/d1lx/macro_cfg -I../../../../../device/d1lx/src/dev -I../../../../../device/d1lx/src/rh850_ghs -I../../../../../device/d1x_common/macro_cfg -I../../../../../device/d1x_common/src/csisw -I../../../../../device/d1x_common/src/ddb -I../../../../../device/d1x_common/src/dev -I../../../../../device/d1x_common/src/gfxbus -I../../../../../device/d1x_common/src/gpio -I../../../../../device/d1x_common/src/ostm -I../../../../../device/d1x_common/src/pbg -I../../../../../device/d1x_common/src/riic -I../../../../../device/d1x_common/src/sfma -I../../../../../device/d1x_common/src/spea -I../../../../../device/d1x_common/src/tauj -I../../../../../device/d1x_common/src/tick -I../../../../../device/d1x_common/src/vdce -I../../../../../device/d1x_common/src/wm -I../../../../../device/d1x_common/src/xbus -I../../../../../device/lib -I../../../../../macro/bus/pbg/lib -I../../../../../macro/bus/pbg/src -I../../../../../macro/csi/csisw/lib -I../../../../../macro/csi/csisw/src -I../../../../../macro/drw2d/lib -I../../../../../macro/drw2d/platform/cpu -I../../../../../macro/drw2d/platform/os/no_os -I../../../../../macro/drw2d/src -I../../../../../macro/flashc/sfcdb/lib -I../../../../../macro/flashc/sfcdb/src -I../../../../../macro/flashc/sfma/lib -I../../../../../macro/flashc/sfma/src -I../../../../../macro/gfxbus/lib -I../../../../../macro/gfxbus/src -I../../../../../macro/gfxbus/xbus/lib -I../../../../../macro/gfxbus/xbus/src -I../../../../../macro/gpio/lib -I../../../../../macro/gpio/src -I../../../../../macro/i2c/riic/lib -I../../../../../macro/i2c/riic/src -I../../../../../macro/tick/lib -I../../../../../macro/tick/src -I../../../../../macro/timer/ostm/lib -I../../../../../macro/timer/ostm/src -I../../../../../macro/timer/tauj/lib -I../../../../../macro/timer/tauj/src -I../../../../../macro/vdce/lib -I../../../../../macro/vdce/src -I../../../../../macro/vo/ddb/lib -I../../../../../macro/vo/ddb/src -I../../../../../macro/vo/spea/lib -I../../../../../macro/vo/spea/src -I../../../../../macro/wm/lib -I../../../../../macro/wm/src -I../../../../../app/gfx_apps/simple_draw_d1l2/src/QD_HMI -I../../../../../app/gfx_apps/simple_draw_d1l2/src/QD_HMI/HMI_Data -IC:\ghs\comp_201355\lib\rh850_22 -cg_underscore -cpu=rh850g3m -no_v850_simd -nomacro -patch_dbo=D:\Renesas_Electronics\D1x_RGL\rgl_ghs_D1Lx_obj_V1.2.0\vlib\app\gfx_apps\simple_draw_d1l2\target\d1lx_mango_ghs\obj\pwr.dbo -source=pwr.c -o .\obj\gh_00007eo1.o -list=.\obj\pwr.lst C:\Users\YINGAO~1\AppData\Local\Temp\gh_00007eo1.si 
Original File: C:\Users\YINGAO~1\AppData\Local\Temp\gh_00007eo1.si
Source File: pwr.c
Directory: D:\Renesas_Electronics\D1x_RGL\rgl_ghs_D1Lx_obj_V1.2.0\vlib\app\gfx_apps\simple_draw_d1l2\target\d1lx_mango_ghs
Host OS: Windows 7 Service Pack 1
EASE: Copyright (C) 1983-2013 Green Hills Software.  All Rights Reversed.
Release: Compiler v2013.5.5
Build Directory: [Directory] BTOWINBOX:c:/build_2013_5_bto/2013-10-04.1311-2013_5_bto/win32-comp-ecom
Revision: [VCInfo] http://toolsvc/branches/release-branch-2013-5-bto/src@496240 (built by build)
Revision Date: Sat Oct 05 04:54:43 2013

Release Date: Sat Oct 05 05:20:49 2013

                           1 --Driver Command: ccv850 -c -MD -I../../../../../Device
                           2 --		-I../../../../../Driver/ADCE -I../../../../../Driver/CLOCK
                           3 --		-I../../../../../Driver/DIO -I../../../../../Driver/DSPI
                           4 --		-I../../../../../Driver/Interrupt -I../../../../../Driver/ISM
                           5 --		-I../../../../../Driver/OSTM -I../../../../../Driver/PWM
                           6 --		-I../../../../../Driver/RSTC -I../../../../../Driver/RTCA
                           7 --		-I../../../../../Driver/STBC -I../../../../../Driver/TAUB
                           8 --		-I../../../../../Driver/WDT -I../../../../../middleware\ADM
                           9 --		-I../../../../../middleware\BPM -I../../../../../middleware\EED
                          10 --		-I../../../../../middleware\IOM -I../../../../../middleware\LRM
                          11 --		-I../../../../../middleware\MOM -I../../../../../middleware\PWMM
                          12 --		-I../../../../../Common -I../../../../../Applayer\DSM
                          13 --		-I../../../../../Applayer\FM -I../../../../../Applayer\TPM
                          14 --		-I../../../../../Applayer\ACC -I../../../../../Applayer\ASS
                          15 --		-I../../../../../Applayer\BAT -I../../../../../Applayer\COM
                          16 --		-I../../../../../Applayer\COM\vtp
                          17 --		-I../../../../../Applayer\COM\vtp\lib
                          18 --		-I../../../../../Applayer\CRUS -I../../../../../Applayer\DIAG
                          19 --		-I../../../../../Applayer\FC -I../../../../../Applayer\FL
                          20 --		-I../../../../../Applayer\HSD -I../../../../../Applayer\IDLE
                          21 --		-I../../../../../Applayer\ILLU -I../../../../../Applayer\LED
                          22 --		-I../../../../../Applayer\MSG -I../../../../../Applayer\NVM
                          23 --		-I../../../../../Applayer\ODO -I../../../../../Applayer\PWR
                          24 --		-I../../../../../Applayer\RANG -I../../../../../Applayer\RST
                          25 --		-I../../../../../Applayer\RTC -I../../../../../Applayer\SCS
                          26 --		-I../../../../../Applayer\SSB -I../../../../../Applayer\ST
                          27 --		-I../../../../../Applayer\STSMG -I../../../../../Applayer\SYS
                          28 --		-I../../../../../Applayer\TIP -I../../../../../Applayer\TRIP
                          29 --		-I../../../../../Applayer\CHM -I../../../../../Applayer\DM
                          30 --		-I../../../../../Applayer\EVT -I../../../../../Applayer\FTR
                          31 --		-I../../../../../Applayer\SLF -I../../../../../Applayer\NWD
                          32 --		-I../../../../../Applayer\TPMS -I../../../../../Applayer\WFM
                          33 --		-I../../../../../Applayer\NZM
                          34 --		-I../../../../../app/gfx_apps/simple_draw_d1l2/src
                          35 --		-I../../../../../bsp/board//config
                          36 --		-I../../../../../bsp/board//src/gfx
                          37 --		-I../../../../../bsp/board//src/hmi
                          38 --		-I../../../../../bsp/board//src/stdio
                          39 --		-I../../../../../bsp/board/d1lx_mango/config
                          40 --		-I../../../../../bsp/board/d1lx_mango/src
                          41 --		-I../../../../../bsp/board/d1lx_mango/src/gfx
                          42 --		-I../../../../../bsp/board/d1lx_mango/src/hmi
                          43 --		-I../../../../../bsp/board/d1lx_mango/src/stdio
                          44 --		-I../../../../../bsp/gfx/lib -I../../../../../bsp/gfx/src
                          45 --		-I../../../../../bsp/hmi/lib -I../../../../../bsp/hmi/src
                          46 --		-I../../../../../bsp/lib -I../../../../../bsp/stdio/lib
                          47 --		-I../../../../../bsp/stdio/src -I../../../../../cdi/lib
                          48 --		-I../../../../../cdi/src -I../../../../../compiler/rh850_ghs/inc
                          49 --		-I../../../../../device/d1lx/lib
                          50 --		-I../../../../../device/d1lx/macro_cfg

                                                                      Page 2
                                                              C:\Users\YINGAO~1\AppData\Local\Temp\gh_00007eo1.si
                          51 --		-I../../../../../device/d1lx/src/dev
                          52 --		-I../../../../../device/d1lx/src/rh850_ghs
                          53 --		-I../../../../../device/d1x_common/macro_cfg
                          54 --		-I../../../../../device/d1x_common/src/csisw
                          55 --		-I../../../../../device/d1x_common/src/ddb
                          56 --		-I../../../../../device/d1x_common/src/dev
                          57 --		-I../../../../../device/d1x_common/src/gfxbus
                          58 --		-I../../../../../device/d1x_common/src/gpio
                          59 --		-I../../../../../device/d1x_common/src/ostm
                          60 --		-I../../../../../device/d1x_common/src/pbg
                          61 --		-I../../../../../device/d1x_common/src/riic
                          62 --		-I../../../../../device/d1x_common/src/sfma
                          63 --		-I../../../../../device/d1x_common/src/spea
                          64 --		-I../../../../../device/d1x_common/src/tauj
                          65 --		-I../../../../../device/d1x_common/src/tick
                          66 --		-I../../../../../device/d1x_common/src/vdce
                          67 --		-I../../../../../device/d1x_common/src/wm
                          68 --		-I../../../../../device/d1x_common/src/xbus
                          69 --		-I../../../../../device/lib -I../../../../../macro/bus/pbg/lib
                          70 --		-I../../../../../macro/bus/pbg/src
                          71 --		-I../../../../../macro/csi/csisw/lib
                          72 --		-I../../../../../macro/csi/csisw/src
                          73 --		-I../../../../../macro/drw2d/lib
                          74 --		-I../../../../../macro/drw2d/platform/cpu
                          75 --		-I../../../../../macro/drw2d/platform/os/no_os
                          76 --		-I../../../../../macro/drw2d/src
                          77 --		-I../../../../../macro/flashc/sfcdb/lib
                          78 --		-I../../../../../macro/flashc/sfcdb/src
                          79 --		-I../../../../../macro/flashc/sfma/lib
                          80 --		-I../../../../../macro/flashc/sfma/src
                          81 --		-I../../../../../macro/gfxbus/lib
                          82 --		-I../../../../../macro/gfxbus/src
                          83 --		-I../../../../../macro/gfxbus/xbus/lib
                          84 --		-I../../../../../macro/gfxbus/xbus/src
                          85 --		-I../../../../../macro/gpio/lib -I../../../../../macro/gpio/src
                          86 --		-I../../../../../macro/i2c/riic/lib
                          87 --		-I../../../../../macro/i2c/riic/src
                          88 --		-I../../../../../macro/tick/lib -I../../../../../macro/tick/src
                          89 --		-I../../../../../macro/timer/ostm/lib
                          90 --		-I../../../../../macro/timer/ostm/src
                          91 --		-I../../../../../macro/timer/tauj/lib
                          92 --		-I../../../../../macro/timer/tauj/src
                          93 --		-I../../../../../macro/vdce/lib -I../../../../../macro/vdce/src
                          94 --		-I../../../../../macro/vo/ddb/lib
                          95 --		-I../../../../../macro/vo/ddb/src
                          96 --		-I../../../../../macro/vo/spea/lib
                          97 --		-I../../../../../macro/vo/spea/src -I../../../../../macro/wm/lib
                          98 --		-I../../../../../macro/wm/src
                          99 --		-I../../../../../app/gfx_apps/simple_draw_d1l2/src/QD_HMI
                         100 --		-I../../../../../app/gfx_apps/simple_draw_d1l2/src/QD_HMI/HMI_Data
                         101 --		-G --no_commons --no_implicit_include --prototype_errors
                         102 --		-DR_DRW2D_OS_NO_OS -DR_DRW2D_SYS_CPU -DUSED_CPU=RH850G3M
                         103 --		-DUSE_BSP_GFX -DUSE_BSP_HMI -DUSE_BSP_STDIO -DUSE_CDI -DUSE_CSISW
                         104 --		-DUSE_DDB -DUSE_DRW2D -DUSE_GFXBUS -DUSE_GPIO -DUSE_OSTM
                         105 --		-DUSE_PBG -DUSE_RIIC -DUSE_SFCDB -DUSE_SFMA -DUSE_SPEA -DUSE_TAUJ
                         106 --		-DUSE_TICK -DUSE_VDCE -DUSE_WM -DUSE_XBUS -MD -Mn -Mx -Zuse1bit
                         107 --		-allocate_ep -cpu=rh850g3m -entry=_RESET -large_sda -list
                         108 --		-no_callt -notda -passsource -preprocess_assembly_files
                         109 --		-registermode=22 -reserve_r2 --diag_warning 1 -object_dir=./obj
                         110 --		-filetype.c
                         111 --		D:\Renesas_Electronics\D1x_RGL\rgl_ghs_D1Lx_obj_V1.2.0\vlib\Applayer\PWR\pwr.c

                                                                      Page 3
                                                              C:\Users\YINGAO~1\AppData\Local\Temp\gh_00007eo1.si
                         112 --		-o .\obj\pwr.o
                         113 --Source File:   D:\Renesas_Electronics\D1x_RGL\rgl_ghs_D1Lx_obj_V1.2.0\vlib\Applayer\PWR\pwr.c
                         114 --Directory:     
                         115 --		D:\Renesas_Electronics\D1x_RGL\rgl_ghs_D1Lx_obj_V1.2.0\vlib\app\gfx_apps\simple_draw_d1l2\target\d1lx_mango_ghs
                         116 --Compile Date:  Fri Feb 02 14:21:34 2018
                         117 --Host OS:       Win32
                         118 --Version:       C-RH850 2013.5.5 DEVELOPMENT VERSION
                         119 --Release:       Compiler v2013.5.5
                         120 --Revision Date: Sat Oct 05 05:01:20 2013
                         121 --Release Date:  Sat Oct 05 05:22:44 2013
                         122 -- ecom  -g -w
                         123 
                         124 --1: /*****************************************************************************
                         125 --2: * Copyright (C) 2016 ShenZhen Yeedon Media co.,LTD. All rights reserved.
                         126 --3: *
                         127 --4: * File Name : pwr.C
                         128 --5: * Description :the private datas of the pwr module.
                         129 --6: * Author: Xueping.Chen
                         130 --7: * Date: 2016-12-09
                         131 --8: ******************************************************************************/
                         132 --9: /* Files for including */
                         133 --10: #include "pwr_info.inc"
                         134 --12: static U8 pwr_CntSSBlongPressPRO = 0;     /*用于计数到SSBLongPressDetect*/
                         135 --13: static U8 pwr_CntCheckPRO = 0;                  /*用于计数到自检process*/
                         136 --14: static U16 pwr_Cnt2Second = 0;                     /*用于判断ssb按键长按的计数*/
                         137 --15: static U16 pwr_Cnt5Second = 0;                     /*用于判断自检5s的计数*/
                         138 --16: static U16 pwr_CntLostNet = 0;                       /*用于判断网络节点丢失后由ACC->OFF的时间计数*/
                         139 --18: static U8 pwr_NetBCMPwrMdHwdSta = 0;     /*用于存储从CAN 获取BCMPwrMdHwdSta*/
                         140 --19: static U8 pwr_NetBCMPwrMdHwdStaV = 0;  /*用于存储从CAN 获取BCMPwrMdHwdStaV*/
                         141 --20: static BOOL pwr_NetBCMEmgcSp = FALSE;     /*用于存储从CAN 获取BCMEmgcSp*/
                         142 --21: static BOOL pwr_NetEnRunA = FALSE;             /*用于存储从CAN 获取EnRunA*/
                         143 --22: static PWR_SelfChk_ENUM pwr_CheckStatus = STATUS_SLFCHK_NOT_READY;            /*判断自检的标志*/
                         144 --23: static U8 pwr_LostIcm = FALSE;                    /*节点丢失的标志*/
                         145 --24: static BOOL pwr_SsbLongPressedFlag = FALSE;  /*判断长按的标志*/
                         146 --25: static BOOL pwr_VStpFlag = FALSE;                       /*判断车停的标志*/
                         147 --26: static BOOL pwr_NetSysBPMEnbd = FALSE;         /*用于存储从CAN 获取SysBPMEnbd*/
                         148 --27: static PWRMODEType_ENUM pwr_CPwrMode = PWR_OFF;
                         149 --28: static PWRMODEType_ENUM pwr_NetSysBPM = PWR_OFF;
                         150 --29: static U16 pwr_SSBlongPreCnt = 0;                      /*判断长按时间的计数*/
                         151 --30: static U16 pwr_SSBShortPrsCnt = 0;                      /*判断长按时间的计数*/
                         152 --31: static BOOL pwr_ThreeWheelStop = FALSE;       /*判断三个轮子停止的标志*/
                         153 --32: static U8 pwr_InitSts = FALSE;                              /*初始化*/
                         154 --33: /*配置字*/
                         155 --34: static U8 pmACCToOFFDelayprm = PMACCTOOFFDELAYPRM_DEF_VALUE;
                         156 --35: static U8 insLampCheckTimePrm = INSLAMPCHECKTIMEPRM_DEF_VALUE;
                         157 --36: static U8 gloVehMovingThresholdPrm = GLOVEHMOVINGTHRESHOLDPRM_DEF_VALUE;
                         158 --37: static U8 gloVehStoppedThresholdPrm = GLOVEHSTOPPEDTHRESHOLDPRM_DEF_VALUE;
                         159 --38: static U8 pmOperationalMode = PMOPERATIONALMODE_DEF_VALUE;
                         160 --39: static BOOL pmMultiPressEnPRm = PMMULTIPRESSENPRM_DEF_VALUE;     /*SSB按钮配置为长按功能*/
                         161 --40: static U16 pmSSBPressTimeToTurnOffprm;// = PMSSBPRESSTIMETOTURNOFFPRM_DEF_VALUE;
                         162 --41: static U16 PmSSBActivePressTimePrm;// = PMSSBACTIVEPRESSTIMEPRM_DEF_VALUE;
                         163 --42: static U16 pmManuSSBPressTimeToTurnOFFPrm = PMMANUSSBPRESSTIMETOTURNOFFPRM_DEF_VALUE;
                         164 --43: /*网络信号*/
                         165 --44: static U16 pwr_NetWhlGNDVelLDvn = 0;                     /*用于存储从CAN 获取WhlGNDVelLDvn*/
                         166 --45: static U8 pwr_NetWhlGNDVelLDvnv = INVALID;        /*用于存储从CAN 获取WhlGNDVelLDvnv*/
                         167 --46: static U16 pwr_NetWhlGNDVelLnonDvn = 0;              /*用于存储从CAN 获取WhlGNDVelLnonDvn*/
                         168 --47: static U8 pwr_NetWhlGNDVelLnonDvnv = INVALID; /*用于存储从CAN 获取WhlGNDVelLnonDvnv */
                         169 --48: static U16 pwr_NetWhlGNDVelRDvn = 0;                     /*用于存储从CAN 获取WhlGNDVelRDvn*/
                         170 --49: static U8 pwr_NetWhlGNDVelRDvnv = INVALID;         /*用于存储从CAN 获取WhlGNDVelRDvnv*/
                         171 --50: static U16 pwr_NetWhlGNDVelRnonDvn = 0;              /*用于存储从CAN 获取WhlGNDVelRnonDvn*/
                         172 --51: static U8 pwr_NetWhlGNDVelLRnonDvnv = INVALID;/*用于存储从CAN 获取WhlGNDVelLRnonDvnv*/

                                                                      Page 4
                                                              C:\Users\YINGAO~1\AppData\Local\Temp\gh_00007eo1.si
                         173 --52: static U16 pwr_NetVehSpdAvgDrvn = 0;                        /*用于存储从CAN 获取VehSpdAvgDrvn*/
                         174 --53: static U8 pwr_NetVehSpdAvgDrvnV = INVALID;          /*用于存储从CAN 获取VehSpdAvgDrvnV*/
                         175 --54: static BOOL pwr_busoff = FALSE;            /*BUSOFF 丢失的标志*/
                         176 --55: static U8 pwr_lostSCS = FALSE;          /*SCS 丢失的标志*/
                         177 --56: static U8 pwr_lostECM = FALSE;
                         178 --58: static DID_D001_UN pwr_D001;
                         179 --60: /***************************************************
                         180 --61: * Function: PWR_Init
                         181 --62: * Description: the initialized of the mom module
                         182 --63: * Parameters:  none
                         183 --64: * Returns: none
                         184 --65: * $Create & Verlog:$
                         185 --66: * Author:Xueping.Chen  Date:2016-12-09   Version:V1.0
                         186 --67: ****************************************************/
                         187 --68: void PWR_Init(void)
                         188 	.text
                         189 ..bof.D.3A.5CRenesas_Electronics.5CD1x_RGL.5Crgl_ghs_D1Lx_obj_V1.2E2.2E0.5Cvlib.5Capp.5Cgfx_apps.5Csimple_draw_d1l2.5Ctarget.5Cd1lx_mango_ghs.5Cobj.5Cpwr...44.3A.5CRenesas_Electronics.5CD1x_RGL.5Crgl_ghs_D1Lx_obj_V1.2E2.2E0.5Cvlib.5Capp.5Cgfx_apps.5Csimple_draw_d1l2.5Ctarget.5Cd1lx_mango_ghs..5A74036F..0::
                         190 	.align	2
                         191 	.global	_PWR_Init
                         192 _PWR_Init:
00000000 8607e170        193 	prepare	{r25,r26,r27,r28,r29,r31},3
00000004 3d0600000000*   194 	mov	.L98,r29
0000000a 3dd60800        195 	movea	8,r29,r26
0000000e 3c0600000000*   196 	mov	_PmSSBActivePressTimePrm,r28
00000014 3b0600000000*   197 	mov	_pmSSBPressTimeToTurnOffprm,r27
                         198 --	    .bf
                         199 .LDW01:
                         200 --69: {
                         201 --70:     U8 res = RET_FAIL;
0000001a 00ca            202 	mov	0,r25
                         203 --71: 	
                         204 --72:     pwr_InitSts = FALSE;
0000001c 5d072d00        205 	st.b	zero,45[r29]
                         206 --73:     pwr_CntSSBlongPressPRO = 0;
00000020 5d072200        207 	st.b	zero,34[r29]
                         208 --74:     pwr_CntCheckPRO = 0;
00000024 5d072300        209 	st.b	zero,35[r29]
                         210 --75:     pwr_Cnt2Second = 0;
00000028 7d070c00        211 	st.h	zero,12[r29]
                         212 --76:     pwr_Cnt5Second = 0;
0000002c 7d070e00        213 	st.h	zero,14[r29]
                         214 --77:     pwr_CntLostNet = 0;
00000030 7d071000        215 	st.h	zero,16[r29]
                         216 --79:     pwr_NetBCMPwrMdHwdSta = PWR_UNKNOWN;
00000034 040a            217 	mov	4,r1
00000036 5d0f2400        218 	st.b	r1,36[r29]
                         219 --80:     pwr_NetBCMPwrMdHwdStaV = VALID;
0000003a 5d072500        220 	st.b	zero,37[r29]
                         221 --81:     pwr_NetBCMEmgcSp = FALSE;
0000003e 5d072600        222 	st.b	zero,38[r29]
                         223 --82:     pwr_NetEnRunA = FALSE;
00000042 5d072700        224 	st.b	zero,39[r29]
                         225 --83:     pwr_CheckStatus = STATUS_SLFCHK_NOT_READY;
00000046 7d070100        226 	st.w	zero,0[r29]
                         227 --84:     pwr_LostIcm = FALSE;
0000004a 5d072800        228 	st.b	zero,40[r29]
                         229 --86:     pwr_VStpFlag = FALSE;
0000004e 5d072a00        230 	st.b	zero,42[r29]
                         231 --87:     pwr_NetSysBPMEnbd = FALSE;
00000052 5d072b00        232 	st.b	zero,43[r29]
                         233 --88:     pwr_CPwrMode = PWR_OFF;

                                                                      Page 5
                                                              C:\Users\YINGAO~1\AppData\Local\Temp\gh_00007eo1.si
00000056 7d070500        234 	st.w	zero,4[r29]
                         235 --89:     pwr_NetSysBPM = PWR_OFF;
0000005a 7d070900        236 	st.w	zero,8[r29]
                         237 --90:     pwr_SSBlongPreCnt = 0;     /*用于判断ssb按键长按的计数变量*/
0000005e 7d071200        238 	st.h	zero,18[r29]
                         239 --91:     pwr_ThreeWheelStop = FALSE;
00000062 5d072c00        240 	st.b	zero,44[r29]
                         241 --93:     insLampCheckTimePrm = DIAG_GetLampCheckTime();
                         242 	jarl	_DIAG_GetLampCheckTime,lp
                         242 <EXPANSION BEGIN>
                         242 jarl22 _DIAG_GetLampCheckTime , lp 
00000066 80ff0000*       242 <EXPANSION END>
0000006a 5d572f00        243 	st.b	r10,47[r29]
                         244 --94:     gloVehMovingThresholdPrm = DIAG_GetVehMovingThreshold();
                         245 --line94
                         246 ..lin.D.3A.5CRenesas_Electronics.5CD1x_RGL.5Crgl_ghs_D1Lx_obj_V1.2E2.2E0.5Cvlib.5Capp.5Cgfx_apps.5Csimple_draw_d1l2.5Ctarget.5Cd1lx_mango_ghs.5Cobj.5Cpwr.1::
                         247 .LDWlin1:
                         248 	jarl	_DIAG_GetVehMovingThreshold,lp
                         248 <EXPANSION BEGIN>
                         248 jarl22 _DIAG_GetVehMovingThreshold , lp 
0000006e 80ff0000*       248 <EXPANSION END>
00000072 5d573000        249 	st.b	r10,48[r29]
                         250 --95:     gloVehStoppedThresholdPrm = DIAG_GetVehStoppedThreshold();
                         251 --line95
                         252 ..lin.D.3A.5CRenesas_Electronics.5CD1x_RGL.5Crgl_ghs_D1Lx_obj_V1.2E2.2E0.5Cvlib.5Capp.5Cgfx_apps.5Csimple_draw_d1l2.5Ctarget.5Cd1lx_mango_ghs.5Cobj.5Cpwr.2::
                         253 .LDWlin2:
                         254 	jarl	_DIAG_GetVehStoppedThreshold,lp
                         254 <EXPANSION BEGIN>
                         254 jarl22 _DIAG_GetVehStoppedThreshold , lp 
00000076 80ff0000*       254 <EXPANSION END>
0000007a 5d573100        255 	st.b	r10,49[r29]
                         256 --97:     pmACCToOFFDelayprm = DIAG_GetACCToOFFDelay();
                         257 --line97
                         258 ..lin.D.3A.5CRenesas_Electronics.5CD1x_RGL.5Crgl_ghs_D1Lx_obj_V1.2E2.2E0.5Cvlib.5Capp.5Cgfx_apps.5Csimple_draw_d1l2.5Ctarget.5Cd1lx_mango_ghs.5Cobj.5Cpwr.3::
                         259 .LDWlin3:
                         260 	jarl	_DIAG_GetACCToOFFDelay,lp
                         260 <EXPANSION BEGIN>
                         260 jarl22 _DIAG_GetACCToOFFDelay , lp 
0000007e 80ff0000*       260 <EXPANSION END>
00000082 5d572e00        261 	st.b	r10,46[r29]
                         262 --98:     pmMultiPressEnPRm = DIAG_GetMultiPressEn();
                         263 --line98
                         264 ..lin.D.3A.5CRenesas_Electronics.5CD1x_RGL.5Crgl_ghs_D1Lx_obj_V1.2E2.2E0.5Cvlib.5Capp.5Cgfx_apps.5Csimple_draw_d1l2.5Ctarget.5Cd1lx_mango_ghs.5Cobj.5Cpwr.4::
                         265 .LDWlin4:
                         266 	jarl	_DIAG_GetMultiPressEn,lp
                         266 <EXPANSION BEGIN>
                         266 jarl22 _DIAG_GetMultiPressEn , lp 
00000086 80ff0000*       266 <EXPANSION END>
0000008a 5d573300        267 	st.b	r10,51[r29]
                         268 --99:     pmSSBPressTimeToTurnOffprm = DIAG_GetSSBPressTimeToTurnOFF();
                         269 --line99
                         270 ..lin.D.3A.5CRenesas_Electronics.5CD1x_RGL.5Crgl_ghs_D1Lx_obj_V1.2E2.2E0.5Cvlib.5Capp.5Cgfx_apps.5Csimple_draw_d1l2.5Ctarget.5Cd1lx_mango_ghs.5Cobj.5Cpwr.5::
                         271 .LDWlin5:
                         272 	jarl	_DIAG_GetSSBPressTimeToTurnOFF,lp
                         272 <EXPANSION BEGIN>
                         272 jarl22 _DIAG_GetSSBPressTimeToTurnOFF , lp 
0000008e 80ff0000*       272 <EXPANSION END>
00000092 7b570000        273 	st.h	r10,0[r27]
                         274 --100:     PmSSBActivePressTimePrm = DIAG_GetSSBActivePressTime();
                         275 --line100
                         276 ..lin.D.3A.5CRenesas_Electronics.5CD1x_RGL.5Crgl_ghs_D1Lx_obj_V1.2E2.2E0.5Cvlib.5Capp.5Cgfx_apps.5Csimple_draw_d1l2.5Ctarget.5Cd1lx_mango_ghs.5Cobj.5Cpwr.6::

                                                                      Page 6
                                                              C:\Users\YINGAO~1\AppData\Local\Temp\gh_00007eo1.si
                         277 .LDWlin6:
                         278 	jarl	_DIAG_GetSSBActivePressTime,lp
                         278 <EXPANSION BEGIN>
                         278 jarl22 _DIAG_GetSSBActivePressTime , lp 
00000096 80ff0000*       278 <EXPANSION END>
0000009a 7c570000        279 	st.h	r10,0[r28]
                         280 --102:     pmOperationalMode = DIAG_GetOperationalMode();
                         281 --line102
                         282 ..lin.D.3A.5CRenesas_Electronics.5CD1x_RGL.5Crgl_ghs_D1Lx_obj_V1.2E2.2E0.5Cvlib.5Capp.5Cgfx_apps.5Csimple_draw_d1l2.5Ctarget.5Cd1lx_mango_ghs.5Cobj.5Cpwr.7::
                         283 .LDWlin7:
                         284 	jarl	_DIAG_GetOperationalMode,lp
                         284 <EXPANSION BEGIN>
                         284 jarl22 _DIAG_GetOperationalMode , lp 
0000009e 80ff0000*       284 <EXPANSION END>
000000a2 5d573200        285 	st.b	r10,50[r29]
                         286 --103:     if (MANUFACTURE_MODE < pmOperationalMode)
                         287 --line103
                         288 ..lin.D.3A.5CRenesas_Electronics.5CD1x_RGL.5Crgl_ghs_D1Lx_obj_V1.2E2.2E0.5Cvlib.5Capp.5Cgfx_apps.5Csimple_draw_d1l2.5Ctarget.5Cd1lx_mango_ghs.5Cobj.5Cpwr.8::
                         289 .LDWlin8:
000000a6 9d0f3300        290 	ld.bu	50[r29],r1
000000aa e009            291 	cmp	zero,r1
000000ac c205*           292 	be	.L6
                         293 --104:     {
                         294 --105:         pmOperationalMode = NORMAL_MODE;
                         295 --line105
                         296 ..lin.D.3A.5CRenesas_Electronics.5CD1x_RGL.5Crgl_ghs_D1Lx_obj_V1.2E2.2E0.5Cvlib.5Capp.5Cgfx_apps.5Csimple_draw_d1l2.5Ctarget.5Cd1lx_mango_ghs.5Cobj.5Cpwr.9::
                         297 .LDWlin9:
000000ae 010a            298 	mov	1,r1
000000b0 5d0f3200        299 	st.b	r1,50[r29]
                         300 .L6:
                         301 --106:     }
                         302 --107: 	else
                         303 --108: 	{
                         304 --109: 	}
                         305 --110: 	
                         306 --111:     if (MANUFACTURE_MODE == pmOperationalMode)
000000b4 9d0f3300        307 	ld.bu	50[r29],r1
000000b8 e009            308 	cmp	zero,r1
000000ba 8a1d*           309 	bne	.L7
                         310 --112:     {
                         311 --113:         pwr_SSBlongPreCnt =(pmManuSSBPressTimeToTurnOFFPrm / SSBLONGPRE_PROCESS_PERIOD); /*秒转毫秒的函数*/
                         312 --line113
                         313 ..lin.D.3A.5CRenesas_Electronics.5CD1x_RGL.5Crgl_ghs_D1Lx_obj_V1.2E2.2E0.5Cvlib.5Capp.5Cgfx_apps.5Csimple_draw_d1l2.5Ctarget.5Cd1lx_mango_ghs.5Cobj.5Cpwr.10::
                         314 .LDWlin10:
000000bc fd0f1700        315 	ld.hu	22[r29],r1
000000c0 20761400        316 	movea	20,zero,r14
000000c4 ee0ffc02        317 	divq	r14,r1,zero
000000c8 7d0f1200        318 	st.h	r1,18[r29]
                         319 --115:         if ((NVM_WR_OK != NVM_GetParas(INDEX_NVM_RUNKEEP,&pwr_NetSysBPM,1))
000000cc 1a38            320 	mov	r26,r7
000000ce 20369700        321 	movea	151,zero,r6
000000d2 0142            322 	mov	1,r8
                         323 	jarl	_NVM_GetParas,lp
                         323 <EXPANSION BEGIN>
                         323 jarl22 _NVM_GetParas , lp 
000000d4 80ff0000*       323 <EXPANSION END>
000000d8 6152            324 	cmp	1,r10
000000da da05*           325 	bne	.L10
000000dc 3d0f0900        326 	ld.w	8[r29],r1
000000e0 620a            327 	cmp	2,r1
000000e2 c20d*           328 	be	.L13

                                                                      Page 7
                                                              C:\Users\YINGAO~1\AppData\Local\Temp\gh_00007eo1.si
                         329 .L10:
                         330 --116:             ||(PWR_RUN != pwr_NetSysBPM))
                         331 --117:         {
                         332 --118:             pwr_NetSysBPM =PWR_OFF;
                         333 --line118
                         334 ..lin.D.3A.5CRenesas_Electronics.5CD1x_RGL.5Crgl_ghs_D1Lx_obj_V1.2E2.2E0.5Cvlib.5Capp.5Cgfx_apps.5Csimple_draw_d1l2.5Ctarget.5Cd1lx_mango_ghs.5Cobj.5Cpwr.11::
                         335 .LDWlin11:
000000e4 7d070900        336 	st.w	zero,8[r29]
000000e8 950d*           337 	br	.L13
                         338 .L7:
                         339 --119:         }
                         340 --120: 		else
                         341 --121: 		{
                         342 --122: 		}
                         343 --123:     }
                         344 --124:     else
                         345 --125:     {
                         346 --126:         pwr_SSBlongPreCnt =(U16) (pmSSBPressTimeToTurnOffprm / SSBLONGPRE_PROCESS_PERIOD); /*秒转毫秒的函数*/
                         347 --line126
                         348 ..lin.D.3A.5CRenesas_Electronics.5CD1x_RGL.5Crgl_ghs_D1Lx_obj_V1.2E2.2E0.5Cvlib.5Capp.5Cgfx_apps.5Csimple_draw_d1l2.5Ctarget.5Cd1lx_mango_ghs.5Cobj.5Cpwr.12::
                         349 .LDWlin12:
000000ea fb0f0100        350 	ld.hu	0[r27],r1
000000ee 20761400        351 	movea	20,zero,r14
000000f2 ee0ffc02        352 	divq	r14,r1,zero
000000f6 7d0f1200        353 	st.h	r1,18[r29]
                         354 .L13:
                         355 --127:     }
                         356 --129:     pwr_SSBShortPrsCnt = ((PmSSBActivePressTimePrm)/PWR_PROCESS_PERIOD);
000000fa fc0f0100        357 	ld.hu	0[r28],r1
000000fe 20761400        358 	movea	20,zero,r14
00000102 ee0ffc02        359 	divq	r14,r1,zero
00000106 7d0f1400        360 	st.h	r1,20[r29]
                         361 --130:     pwr_InitSts = TRUE;
0000010a 010a            362 	mov	1,r1
0000010c 5d0f2d00        363 	st.b	r1,45[r29]
                         364 --131: }
00000110 0000            365 	nop
                         366 --	    .ef
                         367 .LDW11:
00000112 4606ff70        368 	dispose	3,{r25,r26,r27,r28,r29,r31},[lp]
                         369 	.type	_PWR_Init,@function
                         370 	.size	_PWR_Init,.-_PWR_Init
                         371 	.align	2
                         372 .LDW21:
                         373 --_res	r25	local
                         374 
                         375 	.data
                         376 	.align	4
                         377 .L98:
                         378 	.type	.L98,@object
                         379 	.size	.L98,0
                         380 	.global	_pwr_CheckStatus..D.3A.5CRenesas_Electronics.5CD1x_RGL.5Crgl_ghs_D1Lx_obj_V1.2E2.2E0.5Cvlib.5Capp.5Cgfx_apps.5Csimple_draw_d1l2.5Ctarget.5Cd1lx_mango_ghs.5Cobj.5Cpwr.
                         381 _pwr_CheckStatus..D.3A.5CRenesas_Electronics.5CD1x_RGL.5Crgl_ghs_D1Lx_obj_V1.2E2.2E0.5Cvlib.5Capp.5Cgfx_apps.5Csimple_draw_d1l2.5Ctarget.5Cd1lx_mango_ghs.5Cobj.5Cpwr.:
                         382 	.type	_pwr_CheckStatus..D.3A.5CRenesas_Electronics.5CD1x_RGL.5Crgl_ghs_D1Lx_obj_V1.2E2.2E0.5Cvlib.5Capp.5Cgfx_apps.5Csimple_draw_d1l2.5Ctarget.5Cd1lx_mango_ghs.5Cobj.5Cpwr.,@object
                         383 	.size	_pwr_CheckStatus..D.3A.5CRenesas_Electronics.5CD1x_RGL.5Crgl_ghs_D1Lx_obj_V1.2E2.2E0.5Cvlib.5Capp.5Cgfx_apps.5Csimple_draw_d1l2.5Ctarget.5Cd1lx_mango_ghs.5Cobj.5Cpwr.,4
00000000 00000000        384 _pwr_CheckStatus:	.byte	0,0,0,0
                         385 	.type	_pwr_CheckStatus,@object
                         386 	.size	_pwr_CheckStatus,4
                         387 	.global	_pwr_CPwrMode..D.3A.5CRenesas_Electronics.5CD1x_RGL.5Crgl_ghs_D1Lx_obj_V1.2E2.2E0.5Cvlib.5Capp.5Cgfx_apps.5Csimple_draw_d1l2.5Ctarget.5Cd1lx_mango_ghs.5Cobj.5Cpwr.
                         388 _pwr_CPwrMode..D.3A.5CRenesas_Electronics.5CD1x_RGL.5Crgl_ghs_D1Lx_obj_V1.2E2.2E0.5Cvlib.5Capp.5Cgfx_apps.5Csimple_draw_d1l2.5Ctarget.5Cd1lx_mango_ghs.5Cobj.5Cpwr.:
                         389 	.type	_pwr_CPwrMode..D.3A.5CRenesas_Electronics.5CD1x_RGL.5Crgl_ghs_D1Lx_obj_V1.2E2.2E0.5Cvlib.5Capp.5Cgfx_apps.5Csimple_draw_d1l2.5Ctarget.5Cd1lx_mango_ghs.5Cobj.5Cpwr.,@object

                                                                      Page 8
                                                              C:\Users\YINGAO~1\AppData\Local\Temp\gh_00007eo1.si
                         390 	.size	_pwr_CPwrMode..D.3A.5CRenesas_Electronics.5CD1x_RGL.5Crgl_ghs_D1Lx_obj_V1.2E2.2E0.5Cvlib.5Capp.5Cgfx_apps.5Csimple_draw_d1l2.5Ctarget.5Cd1lx_mango_ghs.5Cobj.5Cpwr.,4
00000004 00000000        391 _pwr_CPwrMode:	.byte	0,0,0,0
                         392 	.type	_pwr_CPwrMode,@object
                         393 	.size	_pwr_CPwrMode,4
                         394 	.global	_pwr_NetSysBPM..D.3A.5CRenesas_Electronics.5CD1x_RGL.5Crgl_ghs_D1Lx_obj_V1.2E2.2E0.5Cvlib.5Capp.5Cgfx_apps.5Csimple_draw_d1l2.5Ctarget.5Cd1lx_mango_ghs.5Cobj.5Cpwr.
                         395 _pwr_NetSysBPM..D.3A.5CRenesas_Electronics.5CD1x_RGL.5Crgl_ghs_D1Lx_obj_V1.2E2.2E0.5Cvlib.5Capp.5Cgfx_apps.5Csimple_draw_d1l2.5Ctarget.5Cd1lx_mango_ghs.5Cobj.5Cpwr.:
                         396 	.type	_pwr_NetSysBPM..D.3A.5CRenesas_Electronics.5CD1x_RGL.5Crgl_ghs_D1Lx_obj_V1.2E2.2E0.5Cvlib.5Capp.5Cgfx_apps.5Csimple_draw_d1l2.5Ctarget.5Cd1lx_mango_ghs.5Cobj.5Cpwr.,@object
                         397 	.size	_pwr_NetSysBPM..D.3A.5CRenesas_Electronics.5CD1x_RGL.5Crgl_ghs_D1Lx_obj_V1.2E2.2E0.5Cvlib.5Capp.5Cgfx_apps.5Csimple_draw_d1l2.5Ctarget.5Cd1lx_mango_ghs.5Cobj.5Cpwr.,4
00000008 00000000        398 _pwr_NetSysBPM:	.byte	0,0,0,0
                         399 	.type	_pwr_NetSysBPM,@object
                         400 	.size	_pwr_NetSysBPM,4
                         401 	.global	_pwr_Cnt2Second..D.3A.5CRenesas_Electronics.5CD1x_RGL.5Crgl_ghs_D1Lx_obj_V1.2E2.2E0.5Cvlib.5Capp.5Cgfx_apps.5Csimple_draw_d1l2.5Ctarget.5Cd1lx_mango_ghs.5Cobj.5Cpwr.
                         402 _pwr_Cnt2Second..D.3A.5CRenesas_Electronics.5CD1x_RGL.5Crgl_ghs_D1Lx_obj_V1.2E2.2E0.5Cvlib.5Capp.5Cgfx_apps.5Csimple_draw_d1l2.5Ctarget.5Cd1lx_mango_ghs.5Cobj.5Cpwr.:
                         403 	.type	_pwr_Cnt2Second..D.3A.5CRenesas_Electronics.5CD1x_RGL.5Crgl_ghs_D1Lx_obj_V1.2E2.2E0.5Cvlib.5Capp.5Cgfx_apps.5Csimple_draw_d1l2.5Ctarget.5Cd1lx_mango_ghs.5Cobj.5Cpwr.,@object
                         404 	.size	_pwr_Cnt2Second..D.3A.5CRenesas_Electronics.5CD1x_RGL.5Crgl_ghs_D1Lx_obj_V1.2E2.2E0.5Cvlib.5Capp.5Cgfx_apps.5Csimple_draw_d1l2.5Ctarget.5Cd1lx_mango_ghs.5Cobj.5Cpwr.,2
0000000c 0000            405 _pwr_Cnt2Second:	.byte	0,0
                         406 	.type	_pwr_Cnt2Second,@object
                         407 	.size	_pwr_Cnt2Second,2
                         408 	.global	_pwr_Cnt5Second..D.3A.5CRenesas_Electronics.5CD1x_RGL.5Crgl_ghs_D1Lx_obj_V1.2E2.2E0.5Cvlib.5Capp.5Cgfx_apps.5Csimple_draw_d1l2.5Ctarget.5Cd1lx_mango_ghs.5Cobj.5Cpwr.
                         409 _pwr_Cnt5Second..D.3A.5CRenesas_Electronics.5CD1x_RGL.5Crgl_ghs_D1Lx_obj_V1.2E2.2E0.5Cvlib.5Capp.5Cgfx_apps.5Csimple_draw_d1l2.5Ctarget.5Cd1lx_mango_ghs.5Cobj.5Cpwr.:
                         410 	.type	_pwr_Cnt5Second..D.3A.5CRenesas_Electronics.5CD1x_RGL.5Crgl_ghs_D1Lx_obj_V1.2E2.2E0.5Cvlib.5Capp.5Cgfx_apps.5Csimple_draw_d1l2.5Ctarget.5Cd1lx_mango_ghs.5Cobj.5Cpwr.,@object
                         411 	.size	_pwr_Cnt5Second..D.3A.5CRenesas_Electronics.5CD1x_RGL.5Crgl_ghs_D1Lx_obj_V1.2E2.2E0.5Cvlib.5Capp.5Cgfx_apps.5Csimple_draw_d1l2.5Ctarget.5Cd1lx_mango_ghs.5Cobj.5Cpwr.,2
0000000e 0000            412 _pwr_Cnt5Second:	.byte	0,0
                         413 	.type	_pwr_Cnt5Second,@object
                         414 	.size	_pwr_Cnt5Second,2
                         415 	.global	_pwr_CntLostNet..D.3A.5CRenesas_Electronics.5CD1x_RGL.5Crgl_ghs_D1Lx_obj_V1.2E2.2E0.5Cvlib.5Capp.5Cgfx_apps.5Csimple_draw_d1l2.5Ctarget.5Cd1lx_mango_ghs.5Cobj.5Cpwr.
                         416 _pwr_CntLostNet..D.3A.5CRenesas_Electronics.5CD1x_RGL.5Crgl_ghs_D1Lx_obj_V1.2E2.2E0.5Cvlib.5Capp.5Cgfx_apps.5Csimple_draw_d1l2.5Ctarget.5Cd1lx_mango_ghs.5Cobj.5Cpwr.:
                         417 	.type	_pwr_CntLostNet..D.3A.5CRenesas_Electronics.5CD1x_RGL.5Crgl_ghs_D1Lx_obj_V1.2E2.2E0.5Cvlib.5Capp.5Cgfx_apps.5Csimple_draw_d1l2.5Ctarget.5Cd1lx_mango_ghs.5Cobj.5Cpwr.,@object
                         418 	.size	_pwr_CntLostNet..D.3A.5CRenesas_Electronics.5CD1x_RGL.5Crgl_ghs_D1Lx_obj_V1.2E2.2E0.5Cvlib.5Capp.5Cgfx_apps.5Csimple_draw_d1l2.5Ctarget.5Cd1lx_mango_ghs.5Cobj.5Cpwr.,2
00000010 0000            419 _pwr_CntLostNet:	.byte	0,0
                         420 	.type	_pwr_CntLostNet,@object
                         421 	.size	_pwr_CntLostNet,2
                         422 	.global	_pwr_SSBlongPreCnt..D.3A.5CRenesas_Electronics.5CD1x_RGL.5Crgl_ghs_D1Lx_obj_V1.2E2.2E0.5Cvlib.5Capp.5Cgfx_apps.5Csimple_draw_d1l2.5Ctarget.5Cd1lx_mango_ghs.5Cobj.5Cpwr.
                         423 _pwr_SSBlongPreCnt..D.3A.5CRenesas_Electronics.5CD1x_RGL.5Crgl_ghs_D1Lx_obj_V1.2E2.2E0.5Cvlib.5Capp.5Cgfx_apps.5Csimple_draw_d1l2.5Ctarget.5Cd1lx_mango_ghs.5Cobj.5Cpwr.:
                         424 	.type	_pwr_SSBlongPreCnt..D.3A.5CRenesas_Electronics.5CD1x_RGL.5Crgl_ghs_D1Lx_obj_V1.2E2.2E0.5Cvlib.5Capp.5Cgfx_apps.5Csimple_draw_d1l2.5Ctarget.5Cd1lx_mango_ghs.5Cobj.5Cpwr.,@object
                         425 	.size	_pwr_SSBlongPreCnt..D.3A.5CRenesas_Electronics.5CD1x_RGL.5Crgl_ghs_D1Lx_obj_V1.2E2.2E0.5Cvlib.5Capp.5Cgfx_apps.5Csimple_draw_d1l2.5Ctarget.5Cd1lx_mango_ghs.5Cobj.5Cpwr.,2
00000012 0000            426 _pwr_SSBlongPreCnt:	.byte	0,0
                         427 	.type	_pwr_SSBlongPreCnt,@object
                         428 	.size	_pwr_SSBlongPreCnt,2
                         429 	.global	_pwr_SSBShortPrsCnt..D.3A.5CRenesas_Electronics.5CD1x_RGL.5Crgl_ghs_D1Lx_obj_V1.2E2.2E0.5Cvlib.5Capp.5Cgfx_apps.5Csimple_draw_d1l2.5Ctarget.5Cd1lx_mango_ghs.5Cobj.5Cpwr.
                         430 _pwr_SSBShortPrsCnt..D.3A.5CRenesas_Electronics.5CD1x_RGL.5Crgl_ghs_D1Lx_obj_V1.2E2.2E0.5Cvlib.5Capp.5Cgfx_apps.5Csimple_draw_d1l2.5Ctarget.5Cd1lx_mango_ghs.5Cobj.5Cpwr.:
                         431 	.type	_pwr_SSBShortPrsCnt..D.3A.5CRenesas_Electronics.5CD1x_RGL.5Crgl_ghs_D1Lx_obj_V1.2E2.2E0.5Cvlib.5Capp.5Cgfx_apps.5Csimple_draw_d1l2.5Ctarget.5Cd1lx_mango_ghs.5Cobj.5Cpwr.,@object
                         432 	.size	_pwr_SSBShortPrsCnt..D.3A.5CRenesas_Electronics.5CD1x_RGL.5Crgl_ghs_D1Lx_obj_V1.2E2.2E0.5Cvlib.5Capp.5Cgfx_apps.5Csimple_draw_d1l2.5Ctarget.5Cd1lx_mango_ghs.5Cobj.5Cpwr.,2
00000014 0000            433 _pwr_SSBShortPrsCnt:	.byte	0,0
                         434 	.type	_pwr_SSBShortPrsCnt,@object
                         435 	.size	_pwr_SSBShortPrsCnt,2
                         436 	.section ".bss","awb"
                         437 	.align	2
                         438 	.global	_pmSSBPressTimeToTurnOffprm..D.3A.5CRenesas_Electronics.5CD1x_RGL.5Crgl_ghs_D1Lx_obj_V1.2E2.2E0.5Cvlib.5Capp.5Cgfx_apps.5Csimple_draw_d1l2.5Ctarget.5Cd1lx_mango_ghs.5Cobj.5Cpwr.
                         439 _pmSSBPressTimeToTurnOffprm..D.3A.5CRenesas_Electronics.5CD1x_RGL.5Crgl_ghs_D1Lx_obj_V1.2E2.2E0.5Cvlib.5Capp.5Cgfx_apps.5Csimple_draw_d1l2.5Ctarget.5Cd1lx_mango_ghs.5Cobj.5Cpwr.:
                         440 	.type	_pmSSBPressTimeToTurnOffprm..D.3A.5CRenesas_Electronics.5CD1x_RGL.5Crgl_ghs_D1Lx_obj_V1.2E2.2E0.5Cvlib.5Capp.5Cgfx_apps.5Csimple_draw_d1l2.5Ctarget.5Cd1lx_mango_ghs.5Cobj.5Cpwr.,@object
                         441 	.size	_pmSSBPressTimeToTurnOffprm..D.3A.5CRenesas_Electronics.5CD1x_RGL.5Crgl_ghs_D1Lx_obj_V1.2E2.2E0.5Cvlib.5Capp.5Cgfx_apps.5Csimple_draw_d1l2.5Ctarget.5Cd1lx_mango_ghs.5Cobj.5Cpwr.,2
00000000 0000            442 _pmSSBPressTimeToTurnOffprm:	.space	2
                         443 	.type	_pmSSBPressTimeToTurnOffprm,@object
                         444 	.size	_pmSSBPressTimeToTurnOffprm,2
                         445 	.global	_PmSSBActivePressTimePrm..D.3A.5CRenesas_Electronics.5CD1x_RGL.5Crgl_ghs_D1Lx_obj_V1.2E2.2E0.5Cvlib.5Capp.5Cgfx_apps.5Csimple_draw_d1l2.5Ctarget.5Cd1lx_mango_ghs.5Cobj.5Cpwr.
                         446 _PmSSBActivePressTimePrm..D.3A.5CRenesas_Electronics.5CD1x_RGL.5Crgl_ghs_D1Lx_obj_V1.2E2.2E0.5Cvlib.5Capp.5Cgfx_apps.5Csimple_draw_d1l2.5Ctarget.5Cd1lx_mango_ghs.5Cobj.5Cpwr.:
                         447 	.type	_PmSSBActivePressTimePrm..D.3A.5CRenesas_Electronics.5CD1x_RGL.5Crgl_ghs_D1Lx_obj_V1.2E2.2E0.5Cvlib.5Capp.5Cgfx_apps.5Csimple_draw_d1l2.5Ctarget.5Cd1lx_mango_ghs.5Cobj.5Cpwr.,@object
                         448 	.size	_PmSSBActivePressTimePrm..D.3A.5CRenesas_Electronics.5CD1x_RGL.5Crgl_ghs_D1Lx_obj_V1.2E2.2E0.5Cvlib.5Capp.5Cgfx_apps.5Csimple_draw_d1l2.5Ctarget.5Cd1lx_mango_ghs.5Cobj.5Cpwr.,2
00000002 0000            449 _PmSSBActivePressTimePrm:	.space	2
                         450 	.type	_PmSSBActivePressTimePrm,@object

                                                                      Page 9
                                                              C:\Users\YINGAO~1\AppData\Local\Temp\gh_00007eo1.si
                         451 	.size	_PmSSBActivePressTimePrm,2
                         452 	.data
                         453 	.global	_pmManuSSBPressTimeToTurnOFFPrm..D.3A.5CRenesas_Electronics.5CD1x_RGL.5Crgl_ghs_D1Lx_obj_V1.2E2.2E0.5Cvlib.5Capp.5Cgfx_apps.5Csimple_draw_d1l2.5Ctarget.5Cd1lx_mango_ghs.5Cobj.5Cpwr.
                         454 _pmManuSSBPressTimeToTurnOFFPrm..D.3A.5CRenesas_Electronics.5CD1x_RGL.5Crgl_ghs_D1Lx_obj_V1.2E2.2E0.5Cvlib.5Capp.5Cgfx_apps.5Csimple_draw_d1l2.5Ctarget.5Cd1lx_mango_ghs.5Cobj.5Cpwr.:
                         455 	.type	_pmManuSSBPressTimeToTurnOFFPrm..D.3A.5CRenesas_Electronics.5CD1x_RGL.5Crgl_ghs_D1Lx_obj_V1.2E2.2E0.5Cvlib.5Capp.5Cgfx_apps.5Csimple_draw_d1l2.5Ctarget.5Cd1lx_mango_ghs.5Cobj.5Cpwr.,@object
                         456 	.size	_pmManuSSBPressTimeToTurnOFFPrm..D.3A.5CRenesas_Electronics.5CD1x_RGL.5Crgl_ghs_D1Lx_obj_V1.2E2.2E0.5Cvlib.5Capp.5Cgfx_apps.5Csimple_draw_d1l2.5Ctarget.5Cd1lx_mango_ghs.5Cobj.5Cpwr.,2
00000016 b80b            457 _pmManuSSBPressTimeToTurnOFFPrm:	.byte	184,11
                         458 	.type	_pmManuSSBPressTimeToTurnOFFPrm,@object
                         459 	.size	_pmManuSSBPressTimeToTurnOFFPrm,2
                         460 	.global	_pwr_NetWhlGNDVelLDvn..D.3A.5CRenesas_Electronics.5CD1x_RGL.5Crgl_ghs_D1Lx_obj_V1.2E2.2E0.5Cvlib.5Capp.5Cgfx_apps.5Csimple_draw_d1l2.5Ctarget.5Cd1lx_mango_ghs.5Cobj.5Cpwr.
                         461 _pwr_NetWhlGNDVelLDvn..D.3A.5CRenesas_Electronics.5CD1x_RGL.5Crgl_ghs_D1Lx_obj_V1.2E2.2E0.5Cvlib.5Capp.5Cgfx_apps.5Csimple_draw_d1l2.5Ctarget.5Cd1lx_mango_ghs.5Cobj.5Cpwr.:
                         462 	.type	_pwr_NetWhlGNDVelLDvn..D.3A.5CRenesas_Electronics.5CD1x_RGL.5Crgl_ghs_D1Lx_obj_V1.2E2.2E0.5Cvlib.5Capp.5Cgfx_apps.5Csimple_draw_d1l2.5Ctarget.5Cd1lx_mango_ghs.5Cobj.5Cpwr.,@object
                         463 	.size	_pwr_NetWhlGNDVelLDvn..D.3A.5CRenesas_Electronics.5CD1x_RGL.5Crgl_ghs_D1Lx_obj_V1.2E2.2E0.5Cvlib.5Capp.5Cgfx_apps.5Csimple_draw_d1l2.5Ctarget.5Cd1lx_mango_ghs.5Cobj.5Cpwr.,2
00000018 0000            464 _pwr_NetWhlGNDVelLDvn:	.byte	0,0
                         465 	.type	_pwr_NetWhlGNDVelLDvn,@object
                         466 	.size	_pwr_NetWhlGNDVelLDvn,2
                         467 	.global	_pwr_NetWhlGNDVelLnonDvn..D.3A.5CRenesas_Electronics.5CD1x_RGL.5Crgl_ghs_D1Lx_obj_V1.2E2.2E0.5Cvlib.5Capp.5Cgfx_apps.5Csimple_draw_d1l2.5Ctarget.5Cd1lx_mango_ghs.5Cobj.5Cpwr.
                         468 _pwr_NetWhlGNDVelLnonDvn..D.3A.5CRenesas_Electronics.5CD1x_RGL.5Crgl_ghs_D1Lx_obj_V1.2E2.2E0.5Cvlib.5Capp.5Cgfx_apps.5Csimple_draw_d1l2.5Ctarget.5Cd1lx_mango_ghs.5Cobj.5Cpwr.:
                         469 	.type	_pwr_NetWhlGNDVelLnonDvn..D.3A.5CRenesas_Electronics.5CD1x_RGL.5Crgl_ghs_D1Lx_obj_V1.2E2.2E0.5Cvlib.5Capp.5Cgfx_apps.5Csimple_draw_d1l2.5Ctarget.5Cd1lx_mango_ghs.5Cobj.5Cpwr.,@object
                         470 	.size	_pwr_NetWhlGNDVelLnonDvn..D.3A.5CRenesas_Electronics.5CD1x_RGL.5Crgl_ghs_D1Lx_obj_V1.2E2.2E0.5Cvlib.5Capp.5Cgfx_apps.5Csimple_draw_d1l2.5Ctarget.5Cd1lx_mango_ghs.5Cobj.5Cpwr.,2
0000001a 0000            471 _pwr_NetWhlGNDVelLnonDvn:	.byte	0,0
                         472 	.type	_pwr_NetWhlGNDVelLnonDvn,@object
                         473 	.size	_pwr_NetWhlGNDVelLnonDvn,2
                         474 	.global	_pwr_NetWhlGNDVelRDvn..D.3A.5CRenesas_Electronics.5CD1x_RGL.5Crgl_ghs_D1Lx_obj_V1.2E2.2E0.5Cvlib.5Capp.5Cgfx_apps.5Csimple_draw_d1l2.5Ctarget.5Cd1lx_mango_ghs.5Cobj.5Cpwr.
                         475 _pwr_NetWhlGNDVelRDvn..D.3A.5CRenesas_Electronics.5CD1x_RGL.5Crgl_ghs_D1Lx_obj_V1.2E2.2E0.5Cvlib.5Capp.5Cgfx_apps.5Csimple_draw_d1l2.5Ctarget.5Cd1lx_mango_ghs.5Cobj.5Cpwr.:
                         476 	.type	_pwr_NetWhlGNDVelRDvn..D.3A.5CRenesas_Electronics.5CD1x_RGL.5Crgl_ghs_D1Lx_obj_V1.2E2.2E0.5Cvlib.5Capp.5Cgfx_apps.5Csimple_draw_d1l2.5Ctarget.5Cd1lx_mango_ghs.5Cobj.5Cpwr.,@object
                         477 	.size	_pwr_NetWhlGNDVelRDvn..D.3A.5CRenesas_Electronics.5CD1x_RGL.5Crgl_ghs_D1Lx_obj_V1.2E2.2E0.5Cvlib.5Capp.5Cgfx_apps.5Csimple_draw_d1l2.5Ctarget.5Cd1lx_mango_ghs.5Cobj.5Cpwr.,2
0000001c 0000            478 _pwr_NetWhlGNDVelRDvn:	.byte	0,0
                         479 	.type	_pwr_NetWhlGNDVelRDvn,@object
                         480 	.size	_pwr_NetWhlGNDVelRDvn,2
                         481 	.global	_pwr_NetWhlGNDVelRnonDvn..D.3A.5CRenesas_Electronics.5CD1x_RGL.5Crgl_ghs_D1Lx_obj_V1.2E2.2E0.5Cvlib.5Capp.5Cgfx_apps.5Csimple_draw_d1l2.5Ctarget.5Cd1lx_mango_ghs.5Cobj.5Cpwr.
                         482 _pwr_NetWhlGNDVelRnonDvn..D.3A.5CRenesas_Electronics.5CD1x_RGL.5Crgl_ghs_D1Lx_obj_V1.2E2.2E0.5Cvlib.5Capp.5Cgfx_apps.5Csimple_draw_d1l2.5Ctarget.5Cd1lx_mango_ghs.5Cobj.5Cpwr.:
                         483 	.type	_pwr_NetWhlGNDVelRnonDvn..D.3A.5CRenesas_Electronics.5CD1x_RGL.5Crgl_ghs_D1Lx_obj_V1.2E2.2E0.5Cvlib.5Capp.5Cgfx_apps.5Csimple_draw_d1l2.5Ctarget.5Cd1lx_mango_ghs.5Cobj.5Cpwr.,@object
                         484 	.size	_pwr_NetWhlGNDVelRnonDvn..D.3A.5CRenesas_Electronics.5CD1x_RGL.5Crgl_ghs_D1Lx_obj_V1.2E2.2E0.5Cvlib.5Capp.5Cgfx_apps.5Csimple_draw_d1l2.5Ctarget.5Cd1lx_mango_ghs.5Cobj.5Cpwr.,2
0000001e 0000            485 _pwr_NetWhlGNDVelRnonDvn:	.byte	0,0
                         486 	.type	_pwr_NetWhlGNDVelRnonDvn,@object
                         487 	.size	_pwr_NetWhlGNDVelRnonDvn,2
                         488 	.global	_pwr_NetVehSpdAvgDrvn..D.3A.5CRenesas_Electronics.5CD1x_RGL.5Crgl_ghs_D1Lx_obj_V1.2E2.2E0.5Cvlib.5Capp.5Cgfx_apps.5Csimple_draw_d1l2.5Ctarget.5Cd1lx_mango_ghs.5Cobj.5Cpwr.
                         489 _pwr_NetVehSpdAvgDrvn..D.3A.5CRenesas_Electronics.5CD1x_RGL.5Crgl_ghs_D1Lx_obj_V1.2E2.2E0.5Cvlib.5Capp.5Cgfx_apps.5Csimple_draw_d1l2.5Ctarget.5Cd1lx_mango_ghs.5Cobj.5Cpwr.:
                         490 	.type	_pwr_NetVehSpdAvgDrvn..D.3A.5CRenesas_Electronics.5CD1x_RGL.5Crgl_ghs_D1Lx_obj_V1.2E2.2E0.5Cvlib.5Capp.5Cgfx_apps.5Csimple_draw_d1l2.5Ctarget.5Cd1lx_mango_ghs.5Cobj.5Cpwr.,@object
                         491 	.size	_pwr_NetVehSpdAvgDrvn..D.3A.5CRenesas_Electronics.5CD1x_RGL.5Crgl_ghs_D1Lx_obj_V1.2E2.2E0.5Cvlib.5Capp.5Cgfx_apps.5Csimple_draw_d1l2.5Ctarget.5Cd1lx_mango_ghs.5Cobj.5Cpwr.,2
00000020 0000            492 _pwr_NetVehSpdAvgDrvn:	.byte	0,0
                         493 	.type	_pwr_NetVehSpdAvgDrvn,@object
                         494 	.size	_pwr_NetVehSpdAvgDrvn,2
                         495 	.global	_pwr_CntSSBlongPressPRO..D.3A.5CRenesas_Electronics.5CD1x_RGL.5Crgl_ghs_D1Lx_obj_V1.2E2.2E0.5Cvlib.5Capp.5Cgfx_apps.5Csimple_draw_d1l2.5Ctarget.5Cd1lx_mango_ghs.5Cobj.5Cpwr.
                         496 _pwr_CntSSBlongPressPRO..D.3A.5CRenesas_Electronics.5CD1x_RGL.5Crgl_ghs_D1Lx_obj_V1.2E2.2E0.5Cvlib.5Capp.5Cgfx_apps.5Csimple_draw_d1l2.5Ctarget.5Cd1lx_mango_ghs.5Cobj.5Cpwr.:
                         497 	.type	_pwr_CntSSBlongPressPRO..D.3A.5CRenesas_Electronics.5CD1x_RGL.5Crgl_ghs_D1Lx_obj_V1.2E2.2E0.5Cvlib.5Capp.5Cgfx_apps.5Csimple_draw_d1l2.5Ctarget.5Cd1lx_mango_ghs.5Cobj.5Cpwr.,@object
                         498 	.size	_pwr_CntSSBlongPressPRO..D.3A.5CRenesas_Electronics.5CD1x_RGL.5Crgl_ghs_D1Lx_obj_V1.2E2.2E0.5Cvlib.5Capp.5Cgfx_apps.5Csimple_draw_d1l2.5Ctarget.5Cd1lx_mango_ghs.5Cobj.5Cpwr.,1
00000022 00              499 _pwr_CntSSBlongPressPRO:	.byte	0
                         500 	.type	_pwr_CntSSBlongPressPRO,@object
                         501 	.size	_pwr_CntSSBlongPressPRO,1
                         502 	.global	_pwr_CntCheckPRO..D.3A.5CRenesas_Electronics.5CD1x_RGL.5Crgl_ghs_D1Lx_obj_V1.2E2.2E0.5Cvlib.5Capp.5Cgfx_apps.5Csimple_draw_d1l2.5Ctarget.5Cd1lx_mango_ghs.5Cobj.5Cpwr.
                         503 _pwr_CntCheckPRO..D.3A.5CRenesas_Electronics.5CD1x_RGL.5Crgl_ghs_D1Lx_obj_V1.2E2.2E0.5Cvlib.5Capp.5Cgfx_apps.5Csimple_draw_d1l2.5Ctarget.5Cd1lx_mango_ghs.5Cobj.5Cpwr.:
                         504 	.type	_pwr_CntCheckPRO..D.3A.5CRenesas_Electronics.5CD1x_RGL.5Crgl_ghs_D1Lx_obj_V1.2E2.2E0.5Cvlib.5Capp.5Cgfx_apps.5Csimple_draw_d1l2.5Ctarget.5Cd1lx_mango_ghs.5Cobj.5Cpwr.,@object
                         505 	.size	_pwr_CntCheckPRO..D.3A.5CRenesas_Electronics.5CD1x_RGL.5Crgl_ghs_D1Lx_obj_V1.2E2.2E0.5Cvlib.5Capp.5Cgfx_apps.5Csimple_draw_d1l2.5Ctarget.5Cd1lx_mango_ghs.5Cobj.5Cpwr.,1
00000023 00              506 _pwr_CntCheckPRO:	.byte	0
                         507 	.type	_pwr_CntCheckPRO,@object
                         508 	.size	_pwr_CntCheckPRO,1
                         509 	.global	_pwr_NetBCMPwrMdHwdSta..D.3A.5CRenesas_Electronics.5CD1x_RGL.5Crgl_ghs_D1Lx_obj_V1.2E2.2E0.5Cvlib.5Capp.5Cgfx_apps.5Csimple_draw_d1l2.5Ctarget.5Cd1lx_mango_ghs.5Cobj.5Cpwr.
                         510 _pwr_NetBCMPwrMdHwdSta..D.3A.5CRenesas_Electronics.5CD1x_RGL.5Crgl_ghs_D1Lx_obj_V1.2E2.2E0.5Cvlib.5Capp.5Cgfx_apps.5Csimple_draw_d1l2.5Ctarget.5Cd1lx_mango_ghs.5Cobj.5Cpwr.:
                         511 	.type	_pwr_NetBCMPwrMdHwdSta..D.3A.5CRenesas_Electronics.5CD1x_RGL.5Crgl_ghs_D1Lx_obj_V1.2E2.2E0.5Cvlib.5Capp.5Cgfx_apps.5Csimple_draw_d1l2.5Ctarget.5Cd1lx_mango_ghs.5Cobj.5Cpwr.,@object

                                                                      Page 10
                                                              C:\Users\YINGAO~1\AppData\Local\Temp\gh_00007eo1.si
                         512 	.size	_pwr_NetBCMPwrMdHwdSta..D.3A.5CRenesas_Electronics.5CD1x_RGL.5Crgl_ghs_D1Lx_obj_V1.2E2.2E0.5Cvlib.5Capp.5Cgfx_apps.5Csimple_draw_d1l2.5Ctarget.5Cd1lx_mango_ghs.5Cobj.5Cpwr.,1
00000024 00              513 _pwr_NetBCMPwrMdHwdSta:	.byte	0
                         514 	.type	_pwr_NetBCMPwrMdHwdSta,@object
                         515 	.size	_pwr_NetBCMPwrMdHwdSta,1
                         516 	.global	_pwr_NetBCMPwrMdHwdStaV..D.3A.5CRenesas_Electronics.5CD1x_RGL.5Crgl_ghs_D1Lx_obj_V1.2E2.2E0.5Cvlib.5Capp.5Cgfx_apps.5Csimple_draw_d1l2.5Ctarget.5Cd1lx_mango_ghs.5Cobj.5Cpwr.
                         517 _pwr_NetBCMPwrMdHwdStaV..D.3A.5CRenesas_Electronics.5CD1x_RGL.5Crgl_ghs_D1Lx_obj_V1.2E2.2E0.5Cvlib.5Capp.5Cgfx_apps.5Csimple_draw_d1l2.5Ctarget.5Cd1lx_mango_ghs.5Cobj.5Cpwr.:
                         518 	.type	_pwr_NetBCMPwrMdHwdStaV..D.3A.5CRenesas_Electronics.5CD1x_RGL.5Crgl_ghs_D1Lx_obj_V1.2E2.2E0.5Cvlib.5Capp.5Cgfx_apps.5Csimple_draw_d1l2.5Ctarget.5Cd1lx_mango_ghs.5Cobj.5Cpwr.,@object
                         519 	.size	_pwr_NetBCMPwrMdHwdStaV..D.3A.5CRenesas_Electronics.5CD1x_RGL.5Crgl_ghs_D1Lx_obj_V1.2E2.2E0.5Cvlib.5Capp.5Cgfx_apps.5Csimple_draw_d1l2.5Ctarget.5Cd1lx_mango_ghs.5Cobj.5Cpwr.,1
00000025 00              520 _pwr_NetBCMPwrMdHwdStaV:	.byte	0
                         521 	.type	_pwr_NetBCMPwrMdHwdStaV,@object
                         522 	.size	_pwr_NetBCMPwrMdHwdStaV,1
                         523 	.global	_pwr_NetBCMEmgcSp..D.3A.5CRenesas_Electronics.5CD1x_RGL.5Crgl_ghs_D1Lx_obj_V1.2E2.2E0.5Cvlib.5Capp.5Cgfx_apps.5Csimple_draw_d1l2.5Ctarget.5Cd1lx_mango_ghs.5Cobj.5Cpwr.
                         524 _pwr_NetBCMEmgcSp..D.3A.5CRenesas_Electronics.5CD1x_RGL.5Crgl_ghs_D1Lx_obj_V1.2E2.2E0.5Cvlib.5Capp.5Cgfx_apps.5Csimple_draw_d1l2.5Ctarget.5Cd1lx_mango_ghs.5Cobj.5Cpwr.:
                         525 	.type	_pwr_NetBCMEmgcSp..D.3A.5CRenesas_Electronics.5CD1x_RGL.5Crgl_ghs_D1Lx_obj_V1.2E2.2E0.5Cvlib.5Capp.5Cgfx_apps.5Csimple_draw_d1l2.5Ctarget.5Cd1lx_mango_ghs.5Cobj.5Cpwr.,@object
                         526 	.size	_pwr_NetBCMEmgcSp..D.3A.5CRenesas_Electronics.5CD1x_RGL.5Crgl_ghs_D1Lx_obj_V1.2E2.2E0.5Cvlib.5Capp.5Cgfx_apps.5Csimple_draw_d1l2.5Ctarget.5Cd1lx_mango_ghs.5Cobj.5Cpwr.,1
00000026 00              527 _pwr_NetBCMEmgcSp:	.byte	0
                         528 	.type	_pwr_NetBCMEmgcSp,@object
                         529 	.size	_pwr_NetBCMEmgcSp,1
                         530 	.global	_pwr_NetEnRunA..D.3A.5CRenesas_Electronics.5CD1x_RGL.5Crgl_ghs_D1Lx_obj_V1.2E2.2E0.5Cvlib.5Capp.5Cgfx_apps.5Csimple_draw_d1l2.5Ctarget.5Cd1lx_mango_ghs.5Cobj.5Cpwr.
                         531 _pwr_NetEnRunA..D.3A.5CRenesas_Electronics.5CD1x_RGL.5Crgl_ghs_D1Lx_obj_V1.2E2.2E0.5Cvlib.5Capp.5Cgfx_apps.5Csimple_draw_d1l2.5Ctarget.5Cd1lx_mango_ghs.5Cobj.5Cpwr.:
                         532 	.type	_pwr_NetEnRunA..D.3A.5CRenesas_Electronics.5CD1x_RGL.5Crgl_ghs_D1Lx_obj_V1.2E2.2E0.5Cvlib.5Capp.5Cgfx_apps.5Csimple_draw_d1l2.5Ctarget.5Cd1lx_mango_ghs.5Cobj.5Cpwr.,@object
                         533 	.size	_pwr_NetEnRunA..D.3A.5CRenesas_Electronics.5CD1x_RGL.5Crgl_ghs_D1Lx_obj_V1.2E2.2E0.5Cvlib.5Capp.5Cgfx_apps.5Csimple_draw_d1l2.5Ctarget.5Cd1lx_mango_ghs.5Cobj.5Cpwr.,1
00000027 00              534 _pwr_NetEnRunA:	.byte	0
                         535 	.type	_pwr_NetEnRunA,@object
                         536 	.size	_pwr_NetEnRunA,1
                         537 	.global	_pwr_LostIcm..D.3A.5CRenesas_Electronics.5CD1x_RGL.5Crgl_ghs_D1Lx_obj_V1.2E2.2E0.5Cvlib.5Capp.5Cgfx_apps.5Csimple_draw_d1l2.5Ctarget.5Cd1lx_mango_ghs.5Cobj.5Cpwr.
                         538 _pwr_LostIcm..D.3A.5CRenesas_Electronics.5CD1x_RGL.5Crgl_ghs_D1Lx_obj_V1.2E2.2E0.5Cvlib.5Capp.5Cgfx_apps.5Csimple_draw_d1l2.5Ctarget.5Cd1lx_mango_ghs.5Cobj.5Cpwr.:
                         539 	.type	_pwr_LostIcm..D.3A.5CRenesas_Electronics.5CD1x_RGL.5Crgl_ghs_D1Lx_obj_V1.2E2.2E0.5Cvlib.5Capp.5Cgfx_apps.5Csimple_draw_d1l2.5Ctarget.5Cd1lx_mango_ghs.5Cobj.5Cpwr.,@object
                         540 	.size	_pwr_LostIcm..D.3A.5CRenesas_Electronics.5CD1x_RGL.5Crgl_ghs_D1Lx_obj_V1.2E2.2E0.5Cvlib.5Capp.5Cgfx_apps.5Csimple_draw_d1l2.5Ctarget.5Cd1lx_mango_ghs.5Cobj.5Cpwr.,1
00000028 00              541 _pwr_LostIcm:	.byte	0
                         542 	.type	_pwr_LostIcm,@object
                         543 	.size	_pwr_LostIcm,1
                         544 	.global	_pwr_SsbLongPressedFlag..D.3A.5CRenesas_Electronics.5CD1x_RGL.5Crgl_ghs_D1Lx_obj_V1.2E2.2E0.5Cvlib.5Capp.5Cgfx_apps.5Csimple_draw_d1l2.5Ctarget.5Cd1lx_mango_ghs.5Cobj.5Cpwr.
                         545 _pwr_SsbLongPressedFlag..D.3A.5CRenesas_Electronics.5CD1x_RGL.5Crgl_ghs_D1Lx_obj_V1.2E2.2E0.5Cvlib.5Capp.5Cgfx_apps.5Csimple_draw_d1l2.5Ctarget.5Cd1lx_mango_ghs.5Cobj.5Cpwr.:
                         546 	.type	_pwr_SsbLongPressedFlag..D.3A.5CRenesas_Electronics.5CD1x_RGL.5Crgl_ghs_D1Lx_obj_V1.2E2.2E0.5Cvlib.5Capp.5Cgfx_apps.5Csimple_draw_d1l2.5Ctarget.5Cd1lx_mango_ghs.5Cobj.5Cpwr.,@object
                         547 	.size	_pwr_SsbLongPressedFlag..D.3A.5CRenesas_Electronics.5CD1x_RGL.5Crgl_ghs_D1Lx_obj_V1.2E2.2E0.5Cvlib.5Capp.5Cgfx_apps.5Csimple_draw_d1l2.5Ctarget.5Cd1lx_mango_ghs.5Cobj.5Cpwr.,1
00000029 00              548 _pwr_SsbLongPressedFlag:	.byte	0
                         549 	.type	_pwr_SsbLongPressedFlag,@object
                         550 	.size	_pwr_SsbLongPressedFlag,1
                         551 	.global	_pwr_VStpFlag..D.3A.5CRenesas_Electronics.5CD1x_RGL.5Crgl_ghs_D1Lx_obj_V1.2E2.2E0.5Cvlib.5Capp.5Cgfx_apps.5Csimple_draw_d1l2.5Ctarget.5Cd1lx_mango_ghs.5Cobj.5Cpwr.
                         552 _pwr_VStpFlag..D.3A.5CRenesas_Electronics.5CD1x_RGL.5Crgl_ghs_D1Lx_obj_V1.2E2.2E0.5Cvlib.5Capp.5Cgfx_apps.5Csimple_draw_d1l2.5Ctarget.5Cd1lx_mango_ghs.5Cobj.5Cpwr.:
                         553 	.type	_pwr_VStpFlag..D.3A.5CRenesas_Electronics.5CD1x_RGL.5Crgl_ghs_D1Lx_obj_V1.2E2.2E0.5Cvlib.5Capp.5Cgfx_apps.5Csimple_draw_d1l2.5Ctarget.5Cd1lx_mango_ghs.5Cobj.5Cpwr.,@object
                         554 	.size	_pwr_VStpFlag..D.3A.5CRenesas_Electronics.5CD1x_RGL.5Crgl_ghs_D1Lx_obj_V1.2E2.2E0.5Cvlib.5Capp.5Cgfx_apps.5Csimple_draw_d1l2.5Ctarget.5Cd1lx_mango_ghs.5Cobj.5Cpwr.,1
0000002a 00              555 _pwr_VStpFlag:	.byte	0
                         556 	.type	_pwr_VStpFlag,@object
                         557 	.size	_pwr_VStpFlag,1
                         558 	.global	_pwr_NetSysBPMEnbd..D.3A.5CRenesas_Electronics.5CD1x_RGL.5Crgl_ghs_D1Lx_obj_V1.2E2.2E0.5Cvlib.5Capp.5Cgfx_apps.5Csimple_draw_d1l2.5Ctarget.5Cd1lx_mango_ghs.5Cobj.5Cpwr.
                         559 _pwr_NetSysBPMEnbd..D.3A.5CRenesas_Electronics.5CD1x_RGL.5Crgl_ghs_D1Lx_obj_V1.2E2.2E0.5Cvlib.5Capp.5Cgfx_apps.5Csimple_draw_d1l2.5Ctarget.5Cd1lx_mango_ghs.5Cobj.5Cpwr.:
                         560 	.type	_pwr_NetSysBPMEnbd..D.3A.5CRenesas_Electronics.5CD1x_RGL.5Crgl_ghs_D1Lx_obj_V1.2E2.2E0.5Cvlib.5Capp.5Cgfx_apps.5Csimple_draw_d1l2.5Ctarget.5Cd1lx_mango_ghs.5Cobj.5Cpwr.,@object
                         561 	.size	_pwr_NetSysBPMEnbd..D.3A.5CRenesas_Electronics.5CD1x_RGL.5Crgl_ghs_D1Lx_obj_V1.2E2.2E0.5Cvlib.5Capp.5Cgfx_apps.5Csimple_draw_d1l2.5Ctarget.5Cd1lx_mango_ghs.5Cobj.5Cpwr.,1
0000002b 00              562 _pwr_NetSysBPMEnbd:	.byte	0
                         563 	.type	_pwr_NetSysBPMEnbd,@object
                         564 	.size	_pwr_NetSysBPMEnbd,1
                         565 	.global	_pwr_ThreeWheelStop..D.3A.5CRenesas_Electronics.5CD1x_RGL.5Crgl_ghs_D1Lx_obj_V1.2E2.2E0.5Cvlib.5Capp.5Cgfx_apps.5Csimple_draw_d1l2.5Ctarget.5Cd1lx_mango_ghs.5Cobj.5Cpwr.
                         566 _pwr_ThreeWheelStop..D.3A.5CRenesas_Electronics.5CD1x_RGL.5Crgl_ghs_D1Lx_obj_V1.2E2.2E0.5Cvlib.5Capp.5Cgfx_apps.5Csimple_draw_d1l2.5Ctarget.5Cd1lx_mango_ghs.5Cobj.5Cpwr.:
                         567 	.type	_pwr_ThreeWheelStop..D.3A.5CRenesas_Electronics.5CD1x_RGL.5Crgl_ghs_D1Lx_obj_V1.2E2.2E0.5Cvlib.5Capp.5Cgfx_apps.5Csimple_draw_d1l2.5Ctarget.5Cd1lx_mango_ghs.5Cobj.5Cpwr.,@object
                         568 	.size	_pwr_ThreeWheelStop..D.3A.5CRenesas_Electronics.5CD1x_RGL.5Crgl_ghs_D1Lx_obj_V1.2E2.2E0.5Cvlib.5Capp.5Cgfx_apps.5Csimple_draw_d1l2.5Ctarget.5Cd1lx_mango_ghs.5Cobj.5Cpwr.,1
0000002c 00              569 _pwr_ThreeWheelStop:	.byte	0
                         570 	.type	_pwr_ThreeWheelStop,@object
                         571 	.size	_pwr_ThreeWheelStop,1
                         572 	.global	_pwr_InitSts..D.3A.5CRenesas_Electronics.5CD1x_RGL.5Crgl_ghs_D1Lx_obj_V1.2E2.2E0.5Cvlib.5Capp.5Cgfx_apps.5Csimple_draw_d1l2.5Ctarget.5Cd1lx_mango_ghs.5Cobj.5Cpwr.

                                                                      Page 11
                                                              C:\Users\YINGAO~1\AppData\Local\Temp\gh_00007eo1.si
                         573 _pwr_InitSts..D.3A.5CRenesas_Electronics.5CD1x_RGL.5Crgl_ghs_D1Lx_obj_V1.2E2.2E0.5Cvlib.5Capp.5Cgfx_apps.5Csimple_draw_d1l2.5Ctarget.5Cd1lx_mango_ghs.5Cobj.5Cpwr.:
                         574 	.type	_pwr_InitSts..D.3A.5CRenesas_Electronics.5CD1x_RGL.5Crgl_ghs_D1Lx_obj_V1.2E2.2E0.5Cvlib.5Capp.5Cgfx_apps.5Csimple_draw_d1l2.5Ctarget.5Cd1lx_mango_ghs.5Cobj.5Cpwr.,@object
                         575 	.size	_pwr_InitSts..D.3A.5CRenesas_Electronics.5CD1x_RGL.5Crgl_ghs_D1Lx_obj_V1.2E2.2E0.5Cvlib.5Capp.5Cgfx_apps.5Csimple_draw_d1l2.5Ctarget.5Cd1lx_mango_ghs.5Cobj.5Cpwr.,1
0000002d 00              576 _pwr_InitSts:	.byte	0
                         577 	.type	_pwr_InitSts,@object
                         578 	.size	_pwr_InitSts,1
                         579 	.global	_pmACCToOFFDelayprm..D.3A.5CRenesas_Electronics.5CD1x_RGL.5Crgl_ghs_D1Lx_obj_V1.2E2.2E0.5Cvlib.5Capp.5Cgfx_apps.5Csimple_draw_d1l2.5Ctarget.5Cd1lx_mango_ghs.5Cobj.5Cpwr.
                         580 _pmACCToOFFDelayprm..D.3A.5CRenesas_Electronics.5CD1x_RGL.5Crgl_ghs_D1Lx_obj_V1.2E2.2E0.5Cvlib.5Capp.5Cgfx_apps.5Csimple_draw_d1l2.5Ctarget.5Cd1lx_mango_ghs.5Cobj.5Cpwr.:
                         581 	.type	_pmACCToOFFDelayprm..D.3A.5CRenesas_Electronics.5CD1x_RGL.5Crgl_ghs_D1Lx_obj_V1.2E2.2E0.5Cvlib.5Capp.5Cgfx_apps.5Csimple_draw_d1l2.5Ctarget.5Cd1lx_mango_ghs.5Cobj.5Cpwr.,@object
                         582 	.size	_pmACCToOFFDelayprm..D.3A.5CRenesas_Electronics.5CD1x_RGL.5Crgl_ghs_D1Lx_obj_V1.2E2.2E0.5Cvlib.5Capp.5Cgfx_apps.5Csimple_draw_d1l2.5Ctarget.5Cd1lx_mango_ghs.5Cobj.5Cpwr.,1
0000002e 05              583 _pmACCToOFFDelayprm:	.byte	5
                         584 	.type	_pmACCToOFFDelayprm,@object
                         585 	.size	_pmACCToOFFDelayprm,1
                         586 	.global	_insLampCheckTimePrm..D.3A.5CRenesas_Electronics.5CD1x_RGL.5Crgl_ghs_D1Lx_obj_V1.2E2.2E0.5Cvlib.5Capp.5Cgfx_apps.5Csimple_draw_d1l2.5Ctarget.5Cd1lx_mango_ghs.5Cobj.5Cpwr.
                         587 _insLampCheckTimePrm..D.3A.5CRenesas_Electronics.5CD1x_RGL.5Crgl_ghs_D1Lx_obj_V1.2E2.2E0.5Cvlib.5Capp.5Cgfx_apps.5Csimple_draw_d1l2.5Ctarget.5Cd1lx_mango_ghs.5Cobj.5Cpwr.:
                         588 	.type	_insLampCheckTimePrm..D.3A.5CRenesas_Electronics.5CD1x_RGL.5Crgl_ghs_D1Lx_obj_V1.2E2.2E0.5Cvlib.5Capp.5Cgfx_apps.5Csimple_draw_d1l2.5Ctarget.5Cd1lx_mango_ghs.5Cobj.5Cpwr.,@object
                         589 	.size	_insLampCheckTimePrm..D.3A.5CRenesas_Electronics.5CD1x_RGL.5Crgl_ghs_D1Lx_obj_V1.2E2.2E0.5Cvlib.5Capp.5Cgfx_apps.5Csimple_draw_d1l2.5Ctarget.5Cd1lx_mango_ghs.5Cobj.5Cpwr.,1
0000002f 05              590 _insLampCheckTimePrm:	.byte	5
                         591 	.type	_insLampCheckTimePrm,@object
                         592 	.size	_insLampCheckTimePrm,1
                         593 	.global	_gloVehMovingThresholdPrm..D.3A.5CRenesas_Electronics.5CD1x_RGL.5Crgl_ghs_D1Lx_obj_V1.2E2.2E0.5Cvlib.5Capp.5Cgfx_apps.5Csimple_draw_d1l2.5Ctarget.5Cd1lx_mango_ghs.5Cobj.5Cpwr.
                         594 _gloVehMovingThresholdPrm..D.3A.5CRenesas_Electronics.5CD1x_RGL.5Crgl_ghs_D1Lx_obj_V1.2E2.2E0.5Cvlib.5Capp.5Cgfx_apps.5Csimple_draw_d1l2.5Ctarget.5Cd1lx_mango_ghs.5Cobj.5Cpwr.:
                         595 	.type	_gloVehMovingThresholdPrm..D.3A.5CRenesas_Electronics.5CD1x_RGL.5Crgl_ghs_D1Lx_obj_V1.2E2.2E0.5Cvlib.5Capp.5Cgfx_apps.5Csimple_draw_d1l2.5Ctarget.5Cd1lx_mango_ghs.5Cobj.5Cpwr.,@object
                         596 	.size	_gloVehMovingThresholdPrm..D.3A.5CRenesas_Electronics.5CD1x_RGL.5Crgl_ghs_D1Lx_obj_V1.2E2.2E0.5Cvlib.5Capp.5Cgfx_apps.5Csimple_draw_d1l2.5Ctarget.5Cd1lx_mango_ghs.5Cobj.5Cpwr.,1
00000030 05              597 _gloVehMovingThresholdPrm:	.byte	5
                         598 	.type	_gloVehMovingThresholdPrm,@object
                         599 	.size	_gloVehMovingThresholdPrm,1
                         600 	.global	_gloVehStoppedThresholdPrm..D.3A.5CRenesas_Electronics.5CD1x_RGL.5Crgl_ghs_D1Lx_obj_V1.2E2.2E0.5Cvlib.5Capp.5Cgfx_apps.5Csimple_draw_d1l2.5Ctarget.5Cd1lx_mango_ghs.5Cobj.5Cpwr.
                         601 _gloVehStoppedThresholdPrm..D.3A.5CRenesas_Electronics.5CD1x_RGL.5Crgl_ghs_D1Lx_obj_V1.2E2.2E0.5Cvlib.5Capp.5Cgfx_apps.5Csimple_draw_d1l2.5Ctarget.5Cd1lx_mango_ghs.5Cobj.5Cpwr.:
                         602 	.type	_gloVehStoppedThresholdPrm..D.3A.5CRenesas_Electronics.5CD1x_RGL.5Crgl_ghs_D1Lx_obj_V1.2E2.2E0.5Cvlib.5Capp.5Cgfx_apps.5Csimple_draw_d1l2.5Ctarget.5Cd1lx_mango_ghs.5Cobj.5Cpwr.,@object
                         603 	.size	_gloVehStoppedThresholdPrm..D.3A.5CRenesas_Electronics.5CD1x_RGL.5Crgl_ghs_D1Lx_obj_V1.2E2.2E0.5Cvlib.5Capp.5Cgfx_apps.5Csimple_draw_d1l2.5Ctarget.5Cd1lx_mango_ghs.5Cobj.5Cpwr.,1
00000031 04              604 _gloVehStoppedThresholdPrm:	.byte	4
                         605 	.type	_gloVehStoppedThresholdPrm,@object
                         606 	.size	_gloVehStoppedThresholdPrm,1
                         607 	.global	_pmOperationalMode..D.3A.5CRenesas_Electronics.5CD1x_RGL.5Crgl_ghs_D1Lx_obj_V1.2E2.2E0.5Cvlib.5Capp.5Cgfx_apps.5Csimple_draw_d1l2.5Ctarget.5Cd1lx_mango_ghs.5Cobj.5Cpwr.
                         608 _pmOperationalMode..D.3A.5CRenesas_Electronics.5CD1x_RGL.5Crgl_ghs_D1Lx_obj_V1.2E2.2E0.5Cvlib.5Capp.5Cgfx_apps.5Csimple_draw_d1l2.5Ctarget.5Cd1lx_mango_ghs.5Cobj.5Cpwr.:
                         609 	.type	_pmOperationalMode..D.3A.5CRenesas_Electronics.5CD1x_RGL.5Crgl_ghs_D1Lx_obj_V1.2E2.2E0.5Cvlib.5Capp.5Cgfx_apps.5Csimple_draw_d1l2.5Ctarget.5Cd1lx_mango_ghs.5Cobj.5Cpwr.,@object
                         610 	.size	_pmOperationalMode..D.3A.5CRenesas_Electronics.5CD1x_RGL.5Crgl_ghs_D1Lx_obj_V1.2E2.2E0.5Cvlib.5Capp.5Cgfx_apps.5Csimple_draw_d1l2.5Ctarget.5Cd1lx_mango_ghs.5Cobj.5Cpwr.,1
00000032 01              611 _pmOperationalMode:	.byte	1
                         612 	.type	_pmOperationalMode,@object
                         613 	.size	_pmOperationalMode,1
                         614 	.global	_pmMultiPressEnPRm..D.3A.5CRenesas_Electronics.5CD1x_RGL.5Crgl_ghs_D1Lx_obj_V1.2E2.2E0.5Cvlib.5Capp.5Cgfx_apps.5Csimple_draw_d1l2.5Ctarget.5Cd1lx_mango_ghs.5Cobj.5Cpwr.
                         615 _pmMultiPressEnPRm..D.3A.5CRenesas_Electronics.5CD1x_RGL.5Crgl_ghs_D1Lx_obj_V1.2E2.2E0.5Cvlib.5Capp.5Cgfx_apps.5Csimple_draw_d1l2.5Ctarget.5Cd1lx_mango_ghs.5Cobj.5Cpwr.:
                         616 	.type	_pmMultiPressEnPRm..D.3A.5CRenesas_Electronics.5CD1x_RGL.5Crgl_ghs_D1Lx_obj_V1.2E2.2E0.5Cvlib.5Capp.5Cgfx_apps.5Csimple_draw_d1l2.5Ctarget.5Cd1lx_mango_ghs.5Cobj.5Cpwr.,@object
                         617 	.size	_pmMultiPressEnPRm..D.3A.5CRenesas_Electronics.5CD1x_RGL.5Crgl_ghs_D1Lx_obj_V1.2E2.2E0.5Cvlib.5Capp.5Cgfx_apps.5Csimple_draw_d1l2.5Ctarget.5Cd1lx_mango_ghs.5Cobj.5Cpwr.,1
00000033 00              618 _pmMultiPressEnPRm:	.byte	0
                         619 	.type	_pmMultiPressEnPRm,@object
                         620 	.size	_pmMultiPressEnPRm,1
                         621 	.global	_pwr_NetWhlGNDVelLDvnv..D.3A.5CRenesas_Electronics.5CD1x_RGL.5Crgl_ghs_D1Lx_obj_V1.2E2.2E0.5Cvlib.5Capp.5Cgfx_apps.5Csimple_draw_d1l2.5Ctarget.5Cd1lx_mango_ghs.5Cobj.5Cpwr.
                         622 _pwr_NetWhlGNDVelLDvnv..D.3A.5CRenesas_Electronics.5CD1x_RGL.5Crgl_ghs_D1Lx_obj_V1.2E2.2E0.5Cvlib.5Capp.5Cgfx_apps.5Csimple_draw_d1l2.5Ctarget.5Cd1lx_mango_ghs.5Cobj.5Cpwr.:
                         623 	.type	_pwr_NetWhlGNDVelLDvnv..D.3A.5CRenesas_Electronics.5CD1x_RGL.5Crgl_ghs_D1Lx_obj_V1.2E2.2E0.5Cvlib.5Capp.5Cgfx_apps.5Csimple_draw_d1l2.5Ctarget.5Cd1lx_mango_ghs.5Cobj.5Cpwr.,@object
                         624 	.size	_pwr_NetWhlGNDVelLDvnv..D.3A.5CRenesas_Electronics.5CD1x_RGL.5Crgl_ghs_D1Lx_obj_V1.2E2.2E0.5Cvlib.5Capp.5Cgfx_apps.5Csimple_draw_d1l2.5Ctarget.5Cd1lx_mango_ghs.5Cobj.5Cpwr.,1
00000034 01              625 _pwr_NetWhlGNDVelLDvnv:	.byte	1
                         626 	.type	_pwr_NetWhlGNDVelLDvnv,@object
                         627 	.size	_pwr_NetWhlGNDVelLDvnv,1
                         628 	.global	_pwr_NetWhlGNDVelLnonDvnv..D.3A.5CRenesas_Electronics.5CD1x_RGL.5Crgl_ghs_D1Lx_obj_V1.2E2.2E0.5Cvlib.5Capp.5Cgfx_apps.5Csimple_draw_d1l2.5Ctarget.5Cd1lx_mango_ghs.5Cobj.5Cpwr.
                         629 _pwr_NetWhlGNDVelLnonDvnv..D.3A.5CRenesas_Electronics.5CD1x_RGL.5Crgl_ghs_D1Lx_obj_V1.2E2.2E0.5Cvlib.5Capp.5Cgfx_apps.5Csimple_draw_d1l2.5Ctarget.5Cd1lx_mango_ghs.5Cobj.5Cpwr.:
                         630 	.type	_pwr_NetWhlGNDVelLnonDvnv..D.3A.5CRenesas_Electronics.5CD1x_RGL.5Crgl_ghs_D1Lx_obj_V1.2E2.2E0.5Cvlib.5Capp.5Cgfx_apps.5Csimple_draw_d1l2.5Ctarget.5Cd1lx_mango_ghs.5Cobj.5Cpwr.,@object
                         631 	.size	_pwr_NetWhlGNDVelLnonDvnv..D.3A.5CRenesas_Electronics.5CD1x_RGL.5Crgl_ghs_D1Lx_obj_V1.2E2.2E0.5Cvlib.5Capp.5Cgfx_apps.5Csimple_draw_d1l2.5Ctarget.5Cd1lx_mango_ghs.5Cobj.5Cpwr.,1
00000035 01              632 _pwr_NetWhlGNDVelLnonDvnv:	.byte	1
                         633 	.type	_pwr_NetWhlGNDVelLnonDvnv,@object

                                                                      Page 12
                                                              C:\Users\YINGAO~1\AppData\Local\Temp\gh_00007eo1.si
                         634 	.size	_pwr_NetWhlGNDVelLnonDvnv,1
                         635 	.global	_pwr_NetWhlGNDVelRDvnv..D.3A.5CRenesas_Electronics.5CD1x_RGL.5Crgl_ghs_D1Lx_obj_V1.2E2.2E0.5Cvlib.5Capp.5Cgfx_apps.5Csimple_draw_d1l2.5Ctarget.5Cd1lx_mango_ghs.5Cobj.5Cpwr.
                         636 _pwr_NetWhlGNDVelRDvnv..D.3A.5CRenesas_Electronics.5CD1x_RGL.5Crgl_ghs_D1Lx_obj_V1.2E2.2E0.5Cvlib.5Capp.5Cgfx_apps.5Csimple_draw_d1l2.5Ctarget.5Cd1lx_mango_ghs.5Cobj.5Cpwr.:
                         637 	.type	_pwr_NetWhlGNDVelRDvnv..D.3A.5CRenesas_Electronics.5CD1x_RGL.5Crgl_ghs_D1Lx_obj_V1.2E2.2E0.5Cvlib.5Capp.5Cgfx_apps.5Csimple_draw_d1l2.5Ctarget.5Cd1lx_mango_ghs.5Cobj.5Cpwr.,@object
                         638 	.size	_pwr_NetWhlGNDVelRDvnv..D.3A.5CRenesas_Electronics.5CD1x_RGL.5Crgl_ghs_D1Lx_obj_V1.2E2.2E0.5Cvlib.5Capp.5Cgfx_apps.5Csimple_draw_d1l2.5Ctarget.5Cd1lx_mango_ghs.5Cobj.5Cpwr.,1
00000036 01              639 _pwr_NetWhlGNDVelRDvnv:	.byte	1
                         640 	.type	_pwr_NetWhlGNDVelRDvnv,@object
                         641 	.size	_pwr_NetWhlGNDVelRDvnv,1
                         642 	.global	_pwr_NetWhlGNDVelLRnonDvnv..D.3A.5CRenesas_Electronics.5CD1x_RGL.5Crgl_ghs_D1Lx_obj_V1.2E2.2E0.5Cvlib.5Capp.5Cgfx_apps.5Csimple_draw_d1l2.5Ctarget.5Cd1lx_mango_ghs.5Cobj.5Cpwr.
                         643 _pwr_NetWhlGNDVelLRnonDvnv..D.3A.5CRenesas_Electronics.5CD1x_RGL.5Crgl_ghs_D1Lx_obj_V1.2E2.2E0.5Cvlib.5Capp.5Cgfx_apps.5Csimple_draw_d1l2.5Ctarget.5Cd1lx_mango_ghs.5Cobj.5Cpwr.:
                         644 	.type	_pwr_NetWhlGNDVelLRnonDvnv..D.3A.5CRenesas_Electronics.5CD1x_RGL.5Crgl_ghs_D1Lx_obj_V1.2E2.2E0.5Cvlib.5Capp.5Cgfx_apps.5Csimple_draw_d1l2.5Ctarget.5Cd1lx_mango_ghs.5Cobj.5Cpwr.,@object
                         645 	.size	_pwr_NetWhlGNDVelLRnonDvnv..D.3A.5CRenesas_Electronics.5CD1x_RGL.5Crgl_ghs_D1Lx_obj_V1.2E2.2E0.5Cvlib.5Capp.5Cgfx_apps.5Csimple_draw_d1l2.5Ctarget.5Cd1lx_mango_ghs.5Cobj.5Cpwr.,1
00000037 01              646 _pwr_NetWhlGNDVelLRnonDvnv:	.byte	1
                         647 	.type	_pwr_NetWhlGNDVelLRnonDvnv,@object
                         648 	.size	_pwr_NetWhlGNDVelLRnonDvnv,1
                         649 	.global	_pwr_NetVehSpdAvgDrvnV..D.3A.5CRenesas_Electronics.5CD1x_RGL.5Crgl_ghs_D1Lx_obj_V1.2E2.2E0.5Cvlib.5Capp.5Cgfx_apps.5Csimple_draw_d1l2.5Ctarget.5Cd1lx_mango_ghs.5Cobj.5Cpwr.
                         650 _pwr_NetVehSpdAvgDrvnV..D.3A.5CRenesas_Electronics.5CD1x_RGL.5Crgl_ghs_D1Lx_obj_V1.2E2.2E0.5Cvlib.5Capp.5Cgfx_apps.5Csimple_draw_d1l2.5Ctarget.5Cd1lx_mango_ghs.5Cobj.5Cpwr.:
                         651 	.type	_pwr_NetVehSpdAvgDrvnV..D.3A.5CRenesas_Electronics.5CD1x_RGL.5Crgl_ghs_D1Lx_obj_V1.2E2.2E0.5Cvlib.5Capp.5Cgfx_apps.5Csimple_draw_d1l2.5Ctarget.5Cd1lx_mango_ghs.5Cobj.5Cpwr.,@object
                         652 	.size	_pwr_NetVehSpdAvgDrvnV..D.3A.5CRenesas_Electronics.5CD1x_RGL.5Crgl_ghs_D1Lx_obj_V1.2E2.2E0.5Cvlib.5Capp.5Cgfx_apps.5Csimple_draw_d1l2.5Ctarget.5Cd1lx_mango_ghs.5Cobj.5Cpwr.,1
00000038 01              653 _pwr_NetVehSpdAvgDrvnV:	.byte	1
                         654 	.type	_pwr_NetVehSpdAvgDrvnV,@object
                         655 	.size	_pwr_NetVehSpdAvgDrvnV,1
                         656 	.global	_pwr_busoff..D.3A.5CRenesas_Electronics.5CD1x_RGL.5Crgl_ghs_D1Lx_obj_V1.2E2.2E0.5Cvlib.5Capp.5Cgfx_apps.5Csimple_draw_d1l2.5Ctarget.5Cd1lx_mango_ghs.5Cobj.5Cpwr.
                         657 _pwr_busoff..D.3A.5CRenesas_Electronics.5CD1x_RGL.5Crgl_ghs_D1Lx_obj_V1.2E2.2E0.5Cvlib.5Capp.5Cgfx_apps.5Csimple_draw_d1l2.5Ctarget.5Cd1lx_mango_ghs.5Cobj.5Cpwr.:
                         658 	.type	_pwr_busoff..D.3A.5CRenesas_Electronics.5CD1x_RGL.5Crgl_ghs_D1Lx_obj_V1.2E2.2E0.5Cvlib.5Capp.5Cgfx_apps.5Csimple_draw_d1l2.5Ctarget.5Cd1lx_mango_ghs.5Cobj.5Cpwr.,@object
                         659 	.size	_pwr_busoff..D.3A.5CRenesas_Electronics.5CD1x_RGL.5Crgl_ghs_D1Lx_obj_V1.2E2.2E0.5Cvlib.5Capp.5Cgfx_apps.5Csimple_draw_d1l2.5Ctarget.5Cd1lx_mango_ghs.5Cobj.5Cpwr.,1
00000039 00              660 _pwr_busoff:	.byte	0
                         661 	.type	_pwr_busoff,@object
                         662 	.size	_pwr_busoff,1
                         663 	.global	_pwr_lostSCS..D.3A.5CRenesas_Electronics.5CD1x_RGL.5Crgl_ghs_D1Lx_obj_V1.2E2.2E0.5Cvlib.5Capp.5Cgfx_apps.5Csimple_draw_d1l2.5Ctarget.5Cd1lx_mango_ghs.5Cobj.5Cpwr.
                         664 _pwr_lostSCS..D.3A.5CRenesas_Electronics.5CD1x_RGL.5Crgl_ghs_D1Lx_obj_V1.2E2.2E0.5Cvlib.5Capp.5Cgfx_apps.5Csimple_draw_d1l2.5Ctarget.5Cd1lx_mango_ghs.5Cobj.5Cpwr.:
                         665 	.type	_pwr_lostSCS..D.3A.5CRenesas_Electronics.5CD1x_RGL.5Crgl_ghs_D1Lx_obj_V1.2E2.2E0.5Cvlib.5Capp.5Cgfx_apps.5Csimple_draw_d1l2.5Ctarget.5Cd1lx_mango_ghs.5Cobj.5Cpwr.,@object
                         666 	.size	_pwr_lostSCS..D.3A.5CRenesas_Electronics.5CD1x_RGL.5Crgl_ghs_D1Lx_obj_V1.2E2.2E0.5Cvlib.5Capp.5Cgfx_apps.5Csimple_draw_d1l2.5Ctarget.5Cd1lx_mango_ghs.5Cobj.5Cpwr.,1
0000003a 00              667 _pwr_lostSCS:	.byte	0
                         668 	.type	_pwr_lostSCS,@object
                         669 	.size	_pwr_lostSCS,1
                         670 	.global	_pwr_lostECM..D.3A.5CRenesas_Electronics.5CD1x_RGL.5Crgl_ghs_D1Lx_obj_V1.2E2.2E0.5Cvlib.5Capp.5Cgfx_apps.5Csimple_draw_d1l2.5Ctarget.5Cd1lx_mango_ghs.5Cobj.5Cpwr.
                         671 _pwr_lostECM..D.3A.5CRenesas_Electronics.5CD1x_RGL.5Crgl_ghs_D1Lx_obj_V1.2E2.2E0.5Cvlib.5Capp.5Cgfx_apps.5Csimple_draw_d1l2.5Ctarget.5Cd1lx_mango_ghs.5Cobj.5Cpwr.:
                         672 	.type	_pwr_lostECM..D.3A.5CRenesas_Electronics.5CD1x_RGL.5Crgl_ghs_D1Lx_obj_V1.2E2.2E0.5Cvlib.5Capp.5Cgfx_apps.5Csimple_draw_d1l2.5Ctarget.5Cd1lx_mango_ghs.5Cobj.5Cpwr.,@object
                         673 	.size	_pwr_lostECM..D.3A.5CRenesas_Electronics.5CD1x_RGL.5Crgl_ghs_D1Lx_obj_V1.2E2.2E0.5Cvlib.5Capp.5Cgfx_apps.5Csimple_draw_d1l2.5Ctarget.5Cd1lx_mango_ghs.5Cobj.5Cpwr.,1
0000003b 00              674 _pwr_lostECM:	.byte	0
                         675 	.type	_pwr_lostECM,@object
                         676 	.size	_pwr_lostECM,1
                         677 	.section ".bss","awb"
                         678 	.global	_pwr_D001..D.3A.5CRenesas_Electronics.5CD1x_RGL.5Crgl_ghs_D1Lx_obj_V1.2E2.2E0.5Cvlib.5Capp.5Cgfx_apps.5Csimple_draw_d1l2.5Ctarget.5Cd1lx_mango_ghs.5Cobj.5Cpwr.
                         679 _pwr_D001..D.3A.5CRenesas_Electronics.5CD1x_RGL.5Crgl_ghs_D1Lx_obj_V1.2E2.2E0.5Cvlib.5Capp.5Cgfx_apps.5Csimple_draw_d1l2.5Ctarget.5Cd1lx_mango_ghs.5Cobj.5Cpwr.:
                         680 	.type	_pwr_D001..D.3A.5CRenesas_Electronics.5CD1x_RGL.5Crgl_ghs_D1Lx_obj_V1.2E2.2E0.5Cvlib.5Capp.5Cgfx_apps.5Csimple_draw_d1l2.5Ctarget.5Cd1lx_mango_ghs.5Cobj.5Cpwr.,@object
                         681 	.size	_pwr_D001..D.3A.5CRenesas_Electronics.5CD1x_RGL.5Crgl_ghs_D1Lx_obj_V1.2E2.2E0.5Cvlib.5Capp.5Cgfx_apps.5Csimple_draw_d1l2.5Ctarget.5Cd1lx_mango_ghs.5Cobj.5Cpwr.,1
00000004 00              682 _pwr_D001:	.space	1
                         683 	.type	_pwr_D001,@object
                         684 	.size	_pwr_D001,1
                         685 	.data
                         686 	.text
                         687 
                         688 
                         689 --132: /***************************************************
                         690 --133: * Function: PWR_Process_20ms
                         691 --134: * Description: the process of the mom module
                         692 --135: * Parameters:  none
                         693 --136: * Returns: none
                         694 --137: * $Create & Verlog:$

                                                                      Page 13
                                                              C:\Users\YINGAO~1\AppData\Local\Temp\gh_00007eo1.si
                         695 --138: * Author:Xueping.Chen  Date:2016-12-09   Version:V1.0
                         696 --139: ****************************************************/
                         697 --140: void PWR_Process_20ms(void)
                         698 	.align	2
                         699 	.align	2
                         700 	.global	_PWR_Process_20ms
                         701 _PWR_Process_20ms:
00000116 80072100        702 	prepare	{r31},0
0000011a 210600000000*   703 	mov	_pwr_InitSts-1,r1
                         704 --	    .bf
                         705 .LDW31:
                         706 --141: {
                         707 --142:     if (TRUE == pwr_InitSts)
00000120 210600000000*   708 	mov	_pwr_InitSts,r1
00000126 810f0100        709 	ld.bu	0[r1],r1
0000012a 610a            710 	cmp	1,r1
0000012c da05*           711 	bne	.L225
                         712 --143:     {
                         713 --144:        pwr_SSBLongPressDetect_20ms();
                         714 --line144
                         715 ..lin.D.3A.5CRenesas_Electronics.5CD1x_RGL.5Crgl_ghs_D1Lx_obj_V1.2E2.2E0.5Cvlib.5Capp.5Cgfx_apps.5Csimple_draw_d1l2.5Ctarget.5Cd1lx_mango_ghs.5Cobj.5Cpwr.13::
                         716 .LDWlin13:
                         717 	jarl	_pwr_SSBLongPressDetect_20ms,lp
                         717 <EXPANSION BEGIN>
                         717 jarl22 _pwr_SSBLongPressDetect_20ms , lp 
0000012e 80ff0801*       717 <EXPANSION END>
                         718 --145:        pwr_PowerMode_10ms();
                         719 --line145
                         720 ..lin.D.3A.5CRenesas_Electronics.5CD1x_RGL.5Crgl_ghs_D1Lx_obj_V1.2E2.2E0.5Cvlib.5Capp.5Cgfx_apps.5Csimple_draw_d1l2.5Ctarget.5Cd1lx_mango_ghs.5Cobj.5Cpwr.14::
                         721 .LDWlin14:
                         722 	jarl	_pwr_PowerMode_10ms,lp
                         722 <EXPANSION BEGIN>
                         722 jarl22 _pwr_PowerMode_10ms , lp 
00000132 80ff7601*       722 <EXPANSION END>
                         723 .L225:
                         724 --146:     }
                         725 --147:     else
                         726 --148:     {
                         727 --149:     }
                         728 --150: }
                         729 --line150
                         730 ..lin.D.3A.5CRenesas_Electronics.5CD1x_RGL.5Crgl_ghs_D1Lx_obj_V1.2E2.2E0.5Cvlib.5Capp.5Cgfx_apps.5Csimple_draw_d1l2.5Ctarget.5Cd1lx_mango_ghs.5Cobj.5Cpwr.15::
                         731 .LDWlin15:
00000136 0000            732 	nop
                         733 --	    .ef
                         734 .LDW41:
00000138 40063f00        735 	dispose	0,{r31},[lp]
                         736 	.type	_PWR_Process_20ms,@function
                         737 	.size	_PWR_Process_20ms,.-_PWR_Process_20ms
                         738 	.align	2
                         739 .LDW51:
                         740 
                         741 	.data
                         742 	.text
                         743 
                         744 
                         745 --152: /***************************************************
                         746 --153: * Function: PWR_Process_50ms
                         747 --154: * Description: the process of the mom module
                         748 --155: * Parameters:  none
                         749 --156: * Returns: none

                                                                      Page 14
                                                              C:\Users\YINGAO~1\AppData\Local\Temp\gh_00007eo1.si
                         750 --157: * $Create & Verlog:$
                         751 --158: * Author:Xueping.Chen  Date:2016-12-09   Version:V1.0
                         752 --159: ****************************************************/
                         753 --160: void PWR_Process_100ms(void)
                         754 	.align	2
                         755 	.align	2
                         756 	.global	_PWR_Process_100ms
                         757 _PWR_Process_100ms:
0000013c 8007e100        758 	prepare	{r28,r29,r31},0
00000140 3c0600000000*   759 	mov	_pwr_CntCheckPRO,r28
00000146 1ceefdff        760 	addi	-3,r28,r29
                         761 --	    .bf
                         762 .LDW61:
                         763 --161: {
                         764 --162:     if (TRUE == pwr_InitSts)
0000014a bd0f0d00        765 	ld.bu	13[r29],r1
0000014e 610a            766 	cmp	1,r1
00000150 8a15*           767 	bne	.L281
                         768 --163:     {
                         769 --164:         pwr_CntCheckPRO++;
                         770 --line164
                         771 ..lin.D.3A.5CRenesas_Electronics.5CD1x_RGL.5Crgl_ghs_D1Lx_obj_V1.2E2.2E0.5Cvlib.5Capp.5Cgfx_apps.5Csimple_draw_d1l2.5Ctarget.5Cd1lx_mango_ghs.5Cobj.5Cpwr.16::
                         772 .LDWlin16:
00000152 bd0f0300        773 	ld.bu	3[r29],r1
00000156 410a            774 	add	1,r1
00000158 5d0f0300        775 	st.b	r1,3[r29]
                         776 --165:         if (CHECK_PERIOD_CNT <= pwr_CntCheckPRO)
0000015c bd0f0300        777 	ld.bu	3[r29],r1
00000160 610a            778 	cmp	1,r1
00000162 f105*           779 	bl	.L281
                         780 --166:         {
                         781 --167:             pwr_CheckStatus_100ms();
                         782 --line167
                         783 ..lin.D.3A.5CRenesas_Electronics.5CD1x_RGL.5Crgl_ghs_D1Lx_obj_V1.2E2.2E0.5Cvlib.5Capp.5Cgfx_apps.5Csimple_draw_d1l2.5Ctarget.5Cd1lx_mango_ghs.5Cobj.5Cpwr.17::
                         784 .LDWlin17:
                         785 	jarl	_pwr_CheckStatus_100ms,lp
                         785 <EXPANSION BEGIN>
                         785 jarl22 _pwr_CheckStatus_100ms , lp 
00000164 80ffd801*       785 <EXPANSION END>
                         786 --168:             pwr_VehicleStop_100ms();
                         787 --line168
                         788 ..lin.D.3A.5CRenesas_Electronics.5CD1x_RGL.5Crgl_ghs_D1Lx_obj_V1.2E2.2E0.5Cvlib.5Capp.5Cgfx_apps.5Csimple_draw_d1l2.5Ctarget.5Cd1lx_mango_ghs.5Cobj.5Cpwr.18::
                         789 .LDWlin18:
                         790 	jarl	_pwr_VehicleStop_100ms,lp
                         790 <EXPANSION BEGIN>
                         790 jarl22 _pwr_VehicleStop_100ms , lp 
00000168 80ff0e00*       790 <EXPANSION END>
                         791 --169:             pwr_CntCheckPRO = 0;
                         792 --line169
                         793 ..lin.D.3A.5CRenesas_Electronics.5CD1x_RGL.5Crgl_ghs_D1Lx_obj_V1.2E2.2E0.5Cvlib.5Capp.5Cgfx_apps.5Csimple_draw_d1l2.5Ctarget.5Cd1lx_mango_ghs.5Cobj.5Cpwr.19::
                         794 .LDWlin19:
0000016c 5d070300        795 	st.b	zero,3[r29]
                         796 .L281:
                         797 --170:         }
                         798 --171:         else
                         799 --172:         {
                         800 --173:         }
                         801 --174:     }
                         802 --175:     else
                         803 --176:     {
                         804 --177:     }

                                                                      Page 15
                                                              C:\Users\YINGAO~1\AppData\Local\Temp\gh_00007eo1.si
                         805 --178: }
00000170 0000            806 	nop
                         807 --	    .ef
                         808 .LDW71:
00000172 4006ff00        809 	dispose	0,{r28,r29,r31},[lp]
                         810 	.type	_PWR_Process_100ms,@function
                         811 	.size	_PWR_Process_100ms,.-_PWR_Process_100ms
                         812 	.align	2
                         813 .LDW81:
                         814 
                         815 	.data
                         816 	.text
                         817 
                         818 
                         819 --180: /***************************************************
                         820 --181: * Function: pwr_VehicleStop_50ms
                         821 --182: * Description: judge if the Vehicle stop
                         822 --183: * Parameters:  none
                         823 --184: * Returns: none
                         824 --185: * $Create & Verlog:$
                         825 --186: * Author:Xueping.Chen  Date:2016-12-09   Version:V1.0
                         826 --187: ****************************************************/
                         827 --188: static void  pwr_VehicleStop_100ms(void)
                         828 	.align	2
                         829 	.align	2
                         830 	.global	_pwr_VehicleStop_100ms..D.3A.5CRenesas_Electronics.5CD1x_RGL.5Crgl_ghs_D1Lx_obj_V1.2E2.2E0.5Cvlib.5Capp.5Cgfx_apps.5Csimple_draw_d1l2.5Ctarget.5Cd1lx_mango_ghs.5Cobj.5Cpwr.
                         831 _pwr_VehicleStop_100ms..D.3A.5CRenesas_Electronics.5CD1x_RGL.5Crgl_ghs_D1Lx_obj_V1.2E2.2E0.5Cvlib.5Capp.5Cgfx_apps.5Csimple_draw_d1l2.5Ctarget.5Cd1lx_mango_ghs.5Cobj.5Cpwr.:
                         832 _pwr_VehicleStop_100ms:
00000176 8207e130        833 	prepare	{r26,r27,r28,r29,r31},1
0000017a 3c0600000000*   834 	mov	_pwr_VStpFlag,r28
00000180 1ceefeff        835 	addi	-2,r28,r29
00000184 3cde0f00        836 	movea	15,r28,r27
00000188 3cd61000        837 	movea	16,r28,r26
                         838 --	    .bf
                         839 .LDW91:
                         840 --189: {
                         841 --190:     U8 pwr_TrShftLvrPosv = INVALID;
0000018c 010a            842 	mov	1,r1
0000018e 430f0200        843 	st.b	r1,2[sp]
                         844 --191:     U8 pwr_TrShftLvrPos = 0;
00000192 43070300        845 	st.b	zero,3[sp]
                         846 --193:     pwr_WheelStop();
                         847 	jarl	_pwr_WheelStop,lp
                         847 <EXPANSION BEGIN>
                         847 jarl22 _pwr_WheelStop , lp 
00000196 80ff1607*       847 <EXPANSION END>
                         848 --194:     COM_GetSignalValue_8(INDEX_COM_RS_TRSHFTLVRPOS, &pwr_TrShftLvrPos);
                         849 --line194
                         850 ..lin.D.3A.5CRenesas_Electronics.5CD1x_RGL.5Crgl_ghs_D1Lx_obj_V1.2E2.2E0.5Cvlib.5Capp.5Cgfx_apps.5Csimple_draw_d1l2.5Ctarget.5Cd1lx_mango_ghs.5Cobj.5Cpwr.20::
                         851 .LDWlin20:
0000019a 20361200        852 	movea	18,zero,r6
0000019e 233e0300        853 	movea	3,sp,r7
                         854 	jarl	_COM_GetSignalValue_8,lp
                         854 <EXPANSION BEGIN>
                         854 jarl22 _COM_GetSignalValue_8 , lp 
000001a2 80ff0000*       854 <EXPANSION END>
                         855 --195:     COM_GetSignalValue_8(INDEX_COM_RS_TRSHFTLVRPOSV, &pwr_TrShftLvrPosv);
                         856 --line195
                         857 ..lin.D.3A.5CRenesas_Electronics.5CD1x_RGL.5Crgl_ghs_D1Lx_obj_V1.2E2.2E0.5Cvlib.5Capp.5Cgfx_apps.5Csimple_draw_d1l2.5Ctarget.5Cd1lx_mango_ghs.5Cobj.5Cpwr.21::
                         858 .LDWlin21:
000001a6 20361300        859 	movea	19,zero,r6

                                                                      Page 16
                                                              C:\Users\YINGAO~1\AppData\Local\Temp\gh_00007eo1.si
000001aa 233e0200        860 	movea	2,sp,r7
                         861 	jarl	_COM_GetSignalValue_8,lp
                         861 <EXPANSION BEGIN>
                         861 jarl22 _COM_GetSignalValue_8 , lp 
000001ae 80ff0000*       861 <EXPANSION END>
                         862 --197: 	if(TRUE == pwr_ThreeWheelStop)
                         863 --line197
                         864 ..lin.D.3A.5CRenesas_Electronics.5CD1x_RGL.5Crgl_ghs_D1Lx_obj_V1.2E2.2E0.5Cvlib.5Capp.5Cgfx_apps.5Csimple_draw_d1l2.5Ctarget.5Cd1lx_mango_ghs.5Cobj.5Cpwr.22::
                         865 .LDWlin22:
000001b2 9d0f0500        866 	ld.bu	4[r29],r1
000001b6 610a            867 	cmp	1,r1
000001b8 8a15*           868 	bne	.L339
                         869 --198: 	{
                         870 --199: 		if ((FALSE == pwr_busoff)  && (FALSE == pwr_lostSCS))
                         871 --line199
                         872 ..lin.D.3A.5CRenesas_Electronics.5CD1x_RGL.5Crgl_ghs_D1Lx_obj_V1.2E2.2E0.5Cvlib.5Capp.5Cgfx_apps.5Csimple_draw_d1l2.5Ctarget.5Cd1lx_mango_ghs.5Cobj.5Cpwr.23::
                         873 .LDWlin23:
000001ba bd0f1100        874 	ld.bu	17[r29],r1
000001be e009            875 	cmp	zero,r1
000001c0 9a0d*           876 	bne	.L341
000001c2 9d0f1300        877 	ld.bu	18[r29],r1
000001c6 e009            878 	cmp	zero,r1
000001c8 da05*           879 	bne	.L341
                         880 --200: 	    {
                         881 --201: 	        pwr_VStpFlag = TRUE;
                         882 --line201
                         883 ..lin.D.3A.5CRenesas_Electronics.5CD1x_RGL.5Crgl_ghs_D1Lx_obj_V1.2E2.2E0.5Cvlib.5Capp.5Cgfx_apps.5Csimple_draw_d1l2.5Ctarget.5Cd1lx_mango_ghs.5Cobj.5Cpwr.24::
                         884 .LDWlin24:
000001ca 010a            885 	mov	1,r1
000001cc 5d0f0200        886 	st.b	r1,2[r29]
000001d0 e515*           887 	br	.L345
                         888 .L341:
                         889 --202: 	    }
                         890 --203: 		else
                         891 --204: 		{
                         892 --205: 		   pwr_VStpFlag = FALSE;
                         893 --line205
                         894 ..lin.D.3A.5CRenesas_Electronics.5CD1x_RGL.5Crgl_ghs_D1Lx_obj_V1.2E2.2E0.5Cvlib.5Capp.5Cgfx_apps.5Csimple_draw_d1l2.5Ctarget.5Cd1lx_mango_ghs.5Cobj.5Cpwr.25::
                         895 .LDWlin25:
000001d2 5d070200        896 	st.b	zero,2[r29]
000001d6 b515*           897 	br	.L345
                         898 .L339:
                         899 --206: 			
                         900 --207: 		}
                         901 --208: 	}
                         902 --209: 	else
                         903 --210: 	{
                         904 --211: 		if (((VALID == pwr_TrShftLvrPosv) && (TYPE_ACC_GEARLVLP == pwr_TrShftLvrPos))
                         905 --line211
                         906 ..lin.D.3A.5CRenesas_Electronics.5CD1x_RGL.5Crgl_ghs_D1Lx_obj_V1.2E2.2E0.5Cvlib.5Capp.5Cgfx_apps.5Csimple_draw_d1l2.5Ctarget.5Cd1lx_mango_ghs.5Cobj.5Cpwr.26::
                         907 .LDWlin26:
000001d8 830f0300        908 	ld.bu	2[sp],r1
000001dc e009            909 	cmp	zero,r1
000001de da0d*           910 	bne	.L346
000001e0 a30f0300        911 	ld.bu	3[sp],r1
000001e4 610a            912 	cmp	1,r1
000001e6 9a0d*           913 	bne	.L346
000001e8 bd0f1100        914 	ld.bu	17[r29],r1
000001ec e009            915 	cmp	zero,r1
000001ee da05*           916 	bne	.L346
                         917 --212:              && (FALSE == pwr_busoff))

                                                                      Page 17
                                                              C:\Users\YINGAO~1\AppData\Local\Temp\gh_00007eo1.si
                         918 --213: 		{
                         919 --214: 			pwr_VStpFlag = TRUE;
                         920 --line214
                         921 ..lin.D.3A.5CRenesas_Electronics.5CD1x_RGL.5Crgl_ghs_D1Lx_obj_V1.2E2.2E0.5Cvlib.5Capp.5Cgfx_apps.5Csimple_draw_d1l2.5Ctarget.5Cd1lx_mango_ghs.5Cobj.5Cpwr.27::
                         922 .LDWlin27:
000001f0 010a            923 	mov	1,r1
000001f2 5d0f0200        924 	st.b	r1,2[r29]
000001f6 b505*           925 	br	.L345
                         926 .L346:
                         927 --215: 		}
                         928 --216: 		else
                         929 --217: 		{
                         930 --218: 		   pwr_VStpFlag = FALSE;
                         931 --line218
                         932 ..lin.D.3A.5CRenesas_Electronics.5CD1x_RGL.5Crgl_ghs_D1Lx_obj_V1.2E2.2E0.5Cvlib.5Capp.5Cgfx_apps.5Csimple_draw_d1l2.5Ctarget.5Cd1lx_mango_ghs.5Cobj.5Cpwr.28::
                         933 .LDWlin28:
000001f8 5d070200        934 	st.b	zero,2[r29]
                         935 .L345:
                         936 --219: 			
                         937 --220: 		}
                         938 --221: 	}
                         939 --223: 	if(FALSE == pwr_VStpFlag)
000001fc 9d0f0300        940 	ld.bu	2[r29],r1
00000200 e009            941 	cmp	zero,r1
00000202 fa15*           942 	bne	.L359
                         943 --224: 	{
                         944 --225: 		if (((VALID == pwr_TrShftLvrPosv) && (TYPE_ACC_GEARLVLP == pwr_TrShftLvrPos))
                         945 --line225
                         946 ..lin.D.3A.5CRenesas_Electronics.5CD1x_RGL.5Crgl_ghs_D1Lx_obj_V1.2E2.2E0.5Cvlib.5Capp.5Cgfx_apps.5Csimple_draw_d1l2.5Ctarget.5Cd1lx_mango_ghs.5Cobj.5Cpwr.29::
                         947 .LDWlin29:
00000204 830f0300        948 	ld.bu	2[sp],r1
00000208 e009            949 	cmp	zero,r1
0000020a 9a15*           950 	bne	.L353
0000020c a30f0300        951 	ld.bu	3[sp],r1
00000210 610a            952 	cmp	1,r1
00000212 da0d*           953 	bne	.L353
00000214 bd0f1100        954 	ld.bu	17[r29],r1
00000218 e009            955 	cmp	zero,r1
0000021a 9a0d*           956 	bne	.L353
0000021c 9d0f1300        957 	ld.bu	18[r29],r1
00000220 610a            958 	cmp	1,r1
00000222 da05*           959 	bne	.L353
                         960 --226:              && (FALSE == pwr_busoff)
                         961 --227:              && (TRUE == pwr_lostSCS))
                         962 --228:          {
                         963 --229: 		   pwr_VStpFlag = TRUE;
                         964 --line229
                         965 ..lin.D.3A.5CRenesas_Electronics.5CD1x_RGL.5Crgl_ghs_D1Lx_obj_V1.2E2.2E0.5Cvlib.5Capp.5Cgfx_apps.5Csimple_draw_d1l2.5Ctarget.5Cd1lx_mango_ghs.5Cobj.5Cpwr.30::
                         966 .LDWlin30:
00000224 010a            967 	mov	1,r1
00000226 5d0f0200        968 	st.b	r1,2[r29]
0000022a b505*           969 	br	.L359
                         970 .L353:
                         971 --230: 	     }
                         972 --231: 		else
                         973 --232: 		{
                         974 --233: 		   pwr_VStpFlag = FALSE;
                         975 --line233
                         976 ..lin.D.3A.5CRenesas_Electronics.5CD1x_RGL.5Crgl_ghs_D1Lx_obj_V1.2E2.2E0.5Cvlib.5Capp.5Cgfx_apps.5Csimple_draw_d1l2.5Ctarget.5Cd1lx_mango_ghs.5Cobj.5Cpwr.31::
                         977 .LDWlin31:
0000022c 5d070200        978 	st.b	zero,2[r29]

                                                                      Page 18
                                                              C:\Users\YINGAO~1\AppData\Local\Temp\gh_00007eo1.si
                         979 .L359:
                         980 --234: 			
                         981 --235: 		}
                         982 --236: 	}
                         983 --237: 	else
                         984 --238: 	{
                         985 --239: 	}
                         986 --241: 	
                         987 --242: }
00000230 0000            988 	nop
                         989 --	    .ef
                         990 .LDW02:
00000232 4206ff30        991 	dispose	1,{r26,r27,r28,r29,r31},[lp]
                         992 	.type	_pwr_VehicleStop_100ms,@function
                         993 	.size	_pwr_VehicleStop_100ms,.-_pwr_VehicleStop_100ms
                         994 	.type	_pwr_VehicleStop_100ms..D.3A.5CRenesas_Electronics.5CD1x_RGL.5Crgl_ghs_D1Lx_obj_V1.2E2.2E0.5Cvlib.5Capp.5Cgfx_apps.5Csimple_draw_d1l2.5Ctarget.5Cd1lx_mango_ghs.5Cobj.5Cpwr.,@function
                         995 	.size	_pwr_VehicleStop_100ms..D.3A.5CRenesas_Electronics.5CD1x_RGL.5Crgl_ghs_D1Lx_obj_V1.2E2.2E0.5Cvlib.5Capp.5Cgfx_apps.5Csimple_draw_d1l2.5Ctarget.5Cd1lx_mango_ghs.5Cobj.5Cpwr.,.-_pwr_VehicleStop_100ms..D.3A.5CRenesas_Electronics.5CD1x_RGL.5Crgl_ghs_D1Lx_obj_V1.2E2.2E0.5Cvlib.5Capp.5Cgfx_apps.5Csimple_draw_d1l2.5Ctarget.5Cd1lx_mango_ghs.5Cobj.5Cpwr.
                         996 	.align	2
                         997 .LDW12:
                         998 --_pwr_TrShftLvrPosv	2[sp]	local
                         999 --_pwr_TrShftLvrPos	3[sp]	local
                        1000 
                        1001 	.data
                        1002 	.text
                        1003 
                        1004 
                        1005 --243: /***************************************************
                        1006 --244: * Function: pwr_SSBLongPressDetect_20ms
                        1007 --245: * Description: detect if the status of ssb is long press
                        1008 --246: * Parameters:  none
                        1009 --247: * Returns: none
                        1010 --248: * $Create & Verlog:$
                        1011 --249: * Author:Xueping.Chen  Date:2016-12-09   Version:V1.0
                        1012 --250: ****************************************************/
                        1013 --251: static void  pwr_SSBLongPressDetect_20ms(void)
                        1014 	.align	2
                        1015 	.align	2
                        1016 	.global	_pwr_SSBLongPressDetect_20ms..D.3A.5CRenesas_Electronics.5CD1x_RGL.5Crgl_ghs_D1Lx_obj_V1.2E2.2E0.5Cvlib.5Capp.5Cgfx_apps.5Csimple_draw_d1l2.5Ctarget.5Cd1lx_mango_ghs.5Cobj.5Cpwr.
                        1017 _pwr_SSBLongPressDetect_20ms..D.3A.5CRenesas_Electronics.5CD1x_RGL.5Crgl_ghs_D1Lx_obj_V1.2E2.2E0.5Cvlib.5Capp.5Cgfx_apps.5Csimple_draw_d1l2.5Ctarget.5Cd1lx_mango_ghs.5Cobj.5Cpwr.:
                        1018 _pwr_SSBLongPressDetect_20ms:
00000236 8207e170       1019 	prepare	{r25,r26,r27,r28,r29,r31},1
0000023a 3d0600000000*  1020 	mov	_pwr_Cnt2Second,r29
00000240 3dde3000       1021 	movea	48,r29,r27
00000244 1dd0           1022 	mov	r29,r26
00000246 3dce1d00       1023 	movea	29,r29,r25
                        1024 --	    .bf
                        1025 .LDW22:
                        1026 --252: {
                        1027 --253:     SSBData_ST ssbvalue;
                        1028 --254:     U8 res = 0;
0000024a 00e2           1029 	mov	0,r28
                        1030 --256:     static U8 KeySts =FALSE;
                        1031 --258:     res = SSB_GetSSBValue(&ssbvalue);
0000024c 23360200       1032 	movea	2,sp,r6
                        1033 	jarl	_SSB_GetSSBValue,lp
                        1033 <EXPANSION BEGIN>
                        1033 jarl22 _SSB_GetSSBValue , lp 
00000250 80ff0000*      1033 <EXPANSION END>
00000254 0ae0           1034 	mov	r10,r28
                        1035 --259:     if ((RET_OK == res) && (ACTIVE == ssbvalue.status) && (VALID == ssbvalue.valid))
                        1036 --line259

                                                                      Page 19
                                                              C:\Users\YINGAO~1\AppData\Local\Temp\gh_00007eo1.si
                        1037 ..lin.D.3A.5CRenesas_Electronics.5CD1x_RGL.5Crgl_ghs_D1Lx_obj_V1.2E2.2E0.5Cvlib.5Capp.5Cgfx_apps.5Csimple_draw_d1l2.5Ctarget.5Cd1lx_mango_ghs.5Cobj.5Cpwr.32::
                        1038 .LDWlin32:
00000256 61e2           1039 	cmp	1,r28
00000258 fa1d*          1040 	bne	.L499
0000025a 830f0300       1041 	ld.bu	2[sp],r1
0000025e 610a           1042 	cmp	1,r1
00000260 ba1d*          1043 	bne	.L499
00000262 a30f0300       1044 	ld.bu	3[sp],r1
00000266 e009           1045 	cmp	zero,r1
00000268 fa15*          1046 	bne	.L499
                        1047 --260:     {
                        1048 --261:         pwr_Cnt2Second++;
                        1049 --line261
                        1050 ..lin.D.3A.5CRenesas_Electronics.5CD1x_RGL.5Crgl_ghs_D1Lx_obj_V1.2E2.2E0.5Cvlib.5Capp.5Cgfx_apps.5Csimple_draw_d1l2.5Ctarget.5Cd1lx_mango_ghs.5Cobj.5Cpwr.33::
                        1051 .LDWlin33:
0000026a fd0f0100       1052 	ld.hu	0[r29],r1
0000026e 410a           1053 	add	1,r1
00000270 7d0f0000       1054 	st.h	r1,0[r29]
                        1055 --262:         if (pwr_Cnt2Second >= pwr_SSBlongPreCnt)
00000274 fd0f0700       1056 	ld.hu	6[r29],r1
00000278 fd770100       1057 	ld.hu	0[r29],r14
0000027c e171           1058 	cmp	r1,r14
0000027e a115*          1059 	bl	.L509
                        1060 --263:         {
                        1061 --264: 			if (FALSE ==KeySts)
                        1062 --line264
                        1063 ..lin.D.3A.5CRenesas_Electronics.5CD1x_RGL.5Crgl_ghs_D1Lx_obj_V1.2E2.2E0.5Cvlib.5Capp.5Cgfx_apps.5Csimple_draw_d1l2.5Ctarget.5Cd1lx_mango_ghs.5Cobj.5Cpwr.34::
                        1064 .LDWlin34:
00000280 9d0f3100       1065 	ld.bu	48[r29],r1
00000284 e009           1066 	cmp	zero,r1
00000286 ea0d*          1067 	bne	.L509
                        1068 --265: 			{
                        1069 --266: 		            KeySts =TRUE;
                        1070 --line266
                        1071 ..lin.D.3A.5CRenesas_Electronics.5CD1x_RGL.5Crgl_ghs_D1Lx_obj_V1.2E2.2E0.5Cvlib.5Capp.5Cgfx_apps.5Csimple_draw_d1l2.5Ctarget.5Cd1lx_mango_ghs.5Cobj.5Cpwr.35::
                        1072 .LDWlin35:
00000288 010a           1073 	mov	1,r1
0000028a 5d0f3000       1074 	st.b	r1,48[r29]
                        1075 --267: 		            pwr_SsbLongPressedFlag = TRUE;
0000028e 010a           1076 	mov	1,r1
00000290 5d0f1d00       1077 	st.b	r1,29[r29]
00000294 f505*          1078 	br	.L509
                        1079 .L499:
                        1080 --268: 		    }
                        1081 --269: 			else
                        1082 --270: 			{
                        1083 --271: 			}
                        1084 --272: 		}
                        1085 --273: 		else
                        1086 --274: 		{
                        1087 --275: 		}
                        1088 --276:    }
                        1089 --277:    else
                        1090 --278:    {
                        1091 --279:         pwr_Cnt2Second = 0;
                        1092 --line279
                        1093 ..lin.D.3A.5CRenesas_Electronics.5CD1x_RGL.5Crgl_ghs_D1Lx_obj_V1.2E2.2E0.5Cvlib.5Capp.5Cgfx_apps.5Csimple_draw_d1l2.5Ctarget.5Cd1lx_mango_ghs.5Cobj.5Cpwr.36::
                        1094 .LDWlin36:
00000296 7d070000       1095 	st.h	zero,0[r29]
                        1096 --280: 		pwr_SsbLongPressedFlag = FALSE;
0000029a 5d071d00       1097 	st.b	zero,29[r29]

                                                                      Page 20
                                                              C:\Users\YINGAO~1\AppData\Local\Temp\gh_00007eo1.si
                        1098 --281:         KeySts =FALSE;
0000029e 5d073000       1099 	st.b	zero,48[r29]
                        1100 .L509:
                        1101 --282:    }
                        1102 --283: }
000002a2 0000           1103 	nop
                        1104 --	    .ef
                        1105 .LDW32:
000002a4 4206ff70       1106 	dispose	1,{r25,r26,r27,r28,r29,r31},[lp]
                        1107 	.type	_pwr_SSBLongPressDetect_20ms,@function
                        1108 	.size	_pwr_SSBLongPressDetect_20ms,.-_pwr_SSBLongPressDetect_20ms
                        1109 	.type	_pwr_SSBLongPressDetect_20ms..D.3A.5CRenesas_Electronics.5CD1x_RGL.5Crgl_ghs_D1Lx_obj_V1.2E2.2E0.5Cvlib.5Capp.5Cgfx_apps.5Csimple_draw_d1l2.5Ctarget.5Cd1lx_mango_ghs.5Cobj.5Cpwr.,@function
                        1110 	.size	_pwr_SSBLongPressDetect_20ms..D.3A.5CRenesas_Electronics.5CD1x_RGL.5Crgl_ghs_D1Lx_obj_V1.2E2.2E0.5Cvlib.5Capp.5Cgfx_apps.5Csimple_draw_d1l2.5Ctarget.5Cd1lx_mango_ghs.5Cobj.5Cpwr.,.-_pwr_SSBLongPressDetect_20ms..D.3A.5CRenesas_Electronics.5CD1x_RGL.5Crgl_ghs_D1Lx_obj_V1.2E2.2E0.5Cvlib.5Capp.5Cgfx_apps.5Csimple_draw_d1l2.5Ctarget.5Cd1lx_mango_ghs.5Cobj.5Cpwr.
                        1111 	.align	2
                        1112 .LDW42:
                        1113 --_KeySts	.L580	static
                        1114 --_ssbvalue	2[sp]	local
                        1115 --_res	r28	local
                        1116 
                        1117 	.data
                        1118 .L580:
                        1119 	.global	_KeySts.pwr_SSBLongPressDetect_20ms.D.3A.5CRenesas_Electronics.5CD1x_RGL.5Crgl_ghs_D1Lx_obj_V1.2E2.2E0.5Cvlib.5Capp.5Cgfx_apps.5Csimple_draw_d1l2.5Ctarget.5Cd1lx_mango_ghs.5Cobj.5Cpwr..43
                        1120 _KeySts.pwr_SSBLongPressDetect_20ms.D.3A.5CRenesas_Electronics.5CD1x_RGL.5Crgl_ghs_D1Lx_obj_V1.2E2.2E0.5Cvlib.5Capp.5Cgfx_apps.5Csimple_draw_d1l2.5Ctarget.5Cd1lx_mango_ghs.5Cobj.5Cpwr..43:
                        1121 	.type	_KeySts.pwr_SSBLongPressDetect_20ms.D.3A.5CRenesas_Electronics.5CD1x_RGL.5Crgl_ghs_D1Lx_obj_V1.2E2.2E0.5Cvlib.5Capp.5Cgfx_apps.5Csimple_draw_d1l2.5Ctarget.5Cd1lx_mango_ghs.5Cobj.5Cpwr..43,@object
                        1122 	.size	_KeySts.pwr_SSBLongPressDetect_20ms.D.3A.5CRenesas_Electronics.5CD1x_RGL.5Crgl_ghs_D1Lx_obj_V1.2E2.2E0.5Cvlib.5Capp.5Cgfx_apps.5Csimple_draw_d1l2.5Ctarget.5Cd1lx_mango_ghs.5Cobj.5Cpwr..43,1
0000003c 00             1123 	.byte	0
                        1124 	.type	.L580,@object
                        1125 	.size	.L580,1
                        1126 	.text
                        1127 
                        1128 
                        1129 --285: /***************************************************
                        1130 --286: * Function: pwr_PowerMode_10ms
                        1131 --287: * Description: get the mode of power
                        1132 --288: * Parameters:  none
                        1133 --289: * Returns: none
                        1134 --290: * $Create & Verlog:$
                        1135 --291: * Author:Xueping.Chen  Date:2016-12-09   Version:V1.0
                        1136 --292: * Author:LIUYINGYING  Date:2017-06-27    Version:V2.0
                        1137 --293: ****************************************************/
                        1138 --294: static void  pwr_PowerMode_10ms(void)
                        1139 	.align	2
                        1140 	.align	2
                        1141 	.global	_pwr_PowerMode_10ms..D.3A.5CRenesas_Electronics.5CD1x_RGL.5Crgl_ghs_D1Lx_obj_V1.2E2.2E0.5Cvlib.5Capp.5Cgfx_apps.5Csimple_draw_d1l2.5Ctarget.5Cd1lx_mango_ghs.5Cobj.5Cpwr.
                        1142 _pwr_PowerMode_10ms..D.3A.5CRenesas_Electronics.5CD1x_RGL.5Crgl_ghs_D1Lx_obj_V1.2E2.2E0.5Cvlib.5Capp.5Cgfx_apps.5Csimple_draw_d1l2.5Ctarget.5Cd1lx_mango_ghs.5Cobj.5Cpwr.:
                        1143 _pwr_PowerMode_10ms:
000002a8 8207e170       1144 	prepare	{r25,r26,r27,r28,r29,r31},1
000002ac 3d0600000000*  1145 	mov	_pwr_NetBCMPwrMdHwdSta,r29
000002b2 3dce0700       1146 	movea	7,r29,r25
000002b6 3dde0100       1147 	movea	1,r29,r27
000002ba 3dd60400       1148 	movea	4,r29,r26
                        1149 --	    .bf
                        1150 .LDW52:
                        1151 --295: {
                        1152 --296:     U8 res = RET_FAIL;
000002be 00e2           1153 	mov	0,r28
                        1154 --298:     pwr_busoff = NWD_GetBusOffFlt();
                        1155 	jarl	_NWD_GetBusOffFlt,lp
                        1155 <EXPANSION BEGIN>
                        1155 jarl22 _NWD_GetBusOffFlt , lp 
000002c0 80ff0000*      1155 <EXPANSION END>

                                                                      Page 21
                                                              C:\Users\YINGAO~1\AppData\Local\Temp\gh_00007eo1.si
000002c4 5d571500       1156 	st.b	r10,21[r29]
                        1157 --300:     res = NWD_GetNodeMissing(INDEX_BCM_NODE,&pwr_LostIcm);
                        1158 --line300
                        1159 ..lin.D.3A.5CRenesas_Electronics.5CD1x_RGL.5Crgl_ghs_D1Lx_obj_V1.2E2.2E0.5Cvlib.5Capp.5Cgfx_apps.5Csimple_draw_d1l2.5Ctarget.5Cd1lx_mango_ghs.5Cobj.5Cpwr.37::
                        1160 .LDWlin37:
000002c8 1a38           1161 	mov	r26,r7
000002ca 0432           1162 	mov	4,r6
                        1163 	jarl	_NWD_GetNodeMissing,lp
                        1163 <EXPANSION BEGIN>
                        1163 jarl22 _NWD_GetNodeMissing , lp 
000002cc 80ff0000*      1163 <EXPANSION END>
000002d0 0ae0           1164 	mov	r10,r28
                        1165 --301:     res = NWD_GetNodeMissing(INDEX_SCS_NODE,&pwr_lostSCS);
                        1166 --line301
                        1167 ..lin.D.3A.5CRenesas_Electronics.5CD1x_RGL.5Crgl_ghs_D1Lx_obj_V1.2E2.2E0.5Cvlib.5Capp.5Cgfx_apps.5Csimple_draw_d1l2.5Ctarget.5Cd1lx_mango_ghs.5Cobj.5Cpwr.38::
                        1168 .LDWlin38:
000002d2 0a32           1169 	mov	10,r6
000002d4 3d3e1600       1170 	movea	22,r29,r7
                        1171 	jarl	_NWD_GetNodeMissing,lp
                        1171 <EXPANSION BEGIN>
                        1171 jarl22 _NWD_GetNodeMissing , lp 
000002d8 80ff0000*      1171 <EXPANSION END>
000002dc 0ae0           1172 	mov	r10,r28
                        1173 --302:     res = NWD_GetNodeMissing(INDEX_ECM_NODE, &pwr_lostECM);
                        1174 --line302
                        1175 ..lin.D.3A.5CRenesas_Electronics.5CD1x_RGL.5Crgl_ghs_D1Lx_obj_V1.2E2.2E0.5Cvlib.5Capp.5Cgfx_apps.5Csimple_draw_d1l2.5Ctarget.5Cd1lx_mango_ghs.5Cobj.5Cpwr.39::
                        1176 .LDWlin39:
000002de 0032           1177 	mov	0,r6
000002e0 3d3e1700       1178 	movea	23,r29,r7
                        1179 	jarl	_NWD_GetNodeMissing,lp
                        1179 <EXPANSION BEGIN>
                        1179 jarl22 _NWD_GetNodeMissing , lp 
000002e4 80ff0000*      1179 <EXPANSION END>
000002e8 0ae0           1180 	mov	r10,r28
                        1181 --304:     COM_GetSignalValue_8(INDEX_COM_RS_BCMPWRMDHWDSTAV, &pwr_NetBCMPwrMdHwdStaV);
                        1182 --line304
                        1183 ..lin.D.3A.5CRenesas_Electronics.5CD1x_RGL.5Crgl_ghs_D1Lx_obj_V1.2E2.2E0.5Cvlib.5Capp.5Cgfx_apps.5Csimple_draw_d1l2.5Ctarget.5Cd1lx_mango_ghs.5Cobj.5Cpwr.40::
                        1184 .LDWlin40:
000002ea 1b38           1185 	mov	r27,r7
000002ec 0132           1186 	mov	1,r6
                        1187 	jarl	_COM_GetSignalValue_8,lp
                        1187 <EXPANSION BEGIN>
                        1187 jarl22 _COM_GetSignalValue_8 , lp 
000002ee 80ff0000*      1187 <EXPANSION END>
                        1188 --305:     COM_GetSignalValue_8(INDEX_COM_RS_BCMPwrMdHwdSt, &pwr_NetBCMPwrMdHwdSta);
                        1189 --line305
                        1190 ..lin.D.3A.5CRenesas_Electronics.5CD1x_RGL.5Crgl_ghs_D1Lx_obj_V1.2E2.2E0.5Cvlib.5Capp.5Cgfx_apps.5Csimple_draw_d1l2.5Ctarget.5Cd1lx_mango_ghs.5Cobj.5Cpwr.41::
                        1191 .LDWlin41:
000002f2 0032           1192 	mov	0,r6
000002f4 270600000000*  1193 	mov	_pwr_NetBCMPwrMdHwdSta,r7
                        1194 	jarl	_COM_GetSignalValue_8,lp
                        1194 <EXPANSION BEGIN>
                        1194 jarl22 _COM_GetSignalValue_8 , lp 
000002fa 80ff0000*      1194 <EXPANSION END>
                        1195 --306:     COM_GetSignalValue_BOOL(INDEX_COM_RS_ENRUNA, &pwr_NetEnRunA);
                        1196 --line306
                        1197 ..lin.D.3A.5CRenesas_Electronics.5CD1x_RGL.5Crgl_ghs_D1Lx_obj_V1.2E2.2E0.5Cvlib.5Capp.5Cgfx_apps.5Csimple_draw_d1l2.5Ctarget.5Cd1lx_mango_ghs.5Cobj.5Cpwr.42::
                        1198 .LDWlin42:
000002fe 20361000       1199 	movea	16,zero,r6
00000302 3d3e0300       1200 	movea	3,r29,r7
                        1201 	jarl	_COM_GetSignalValue_BOOL,lp

                                                                      Page 22
                                                              C:\Users\YINGAO~1\AppData\Local\Temp\gh_00007eo1.si
                        1201 <EXPANSION BEGIN>
                        1201 jarl22 _COM_GetSignalValue_BOOL , lp 
00000306 80ff0000*      1201 <EXPANSION END>
                        1202 --308:     if ((TRUE == pwr_LostIcm)  ||(TRUE == pwr_busoff) || (INVALID == pwr_NetBCMPwrMdHwdStaV))
                        1203 --line308
                        1204 ..lin.D.3A.5CRenesas_Electronics.5CD1x_RGL.5Crgl_ghs_D1Lx_obj_V1.2E2.2E0.5Cvlib.5Capp.5Cgfx_apps.5Csimple_draw_d1l2.5Ctarget.5Cd1lx_mango_ghs.5Cobj.5Cpwr.43::
                        1205 .LDWlin43:
0000030a 9d0f0500       1206 	ld.bu	4[r29],r1
0000030e 610a           1207 	cmp	1,r1
00000310 920d*          1208 	be	.L600
00000312 bd0f1500       1209 	ld.bu	21[r29],r1
00000316 610a           1210 	cmp	1,r1
00000318 d205*          1211 	be	.L600
0000031a bd0f0100       1212 	ld.bu	1[r29],r1
0000031e 610a           1213 	cmp	1,r1
00000320 da05*          1214 	bne	.L599
                        1215 .L600:
                        1216 --309:     {
                        1217 --310:         pwr_NetSysBPMEnbd = TRUE;
                        1218 --line310
                        1219 ..lin.D.3A.5CRenesas_Electronics.5CD1x_RGL.5Crgl_ghs_D1Lx_obj_V1.2E2.2E0.5Cvlib.5Capp.5Cgfx_apps.5Csimple_draw_d1l2.5Ctarget.5Cd1lx_mango_ghs.5Cobj.5Cpwr.44::
                        1220 .LDWlin44:
00000322 010a           1221 	mov	1,r1
00000324 5d0f0700       1222 	st.b	r1,7[r29]
00000328 b505*          1223 	br	.L603
                        1224 .L599:
                        1225 --311:     }
                        1226 --312:     else
                        1227 --313:     {
                        1228 --314:         pwr_NetSysBPMEnbd = FALSE;
                        1229 --line314
                        1230 ..lin.D.3A.5CRenesas_Electronics.5CD1x_RGL.5Crgl_ghs_D1Lx_obj_V1.2E2.2E0.5Cvlib.5Capp.5Cgfx_apps.5Csimple_draw_d1l2.5Ctarget.5Cd1lx_mango_ghs.5Cobj.5Cpwr.45::
                        1231 .LDWlin45:
0000032a 5d070700       1232 	st.b	zero,7[r29]
                        1233 .L603:
                        1234 --315:     }
                        1235 --316:  
                        1236 --317:     pwr_BackUpPowerMode_Process();
                        1237 	jarl	_pwr_BackUpPowerMode_Process,lp
                        1237 <EXPANSION BEGIN>
                        1237 jarl22 _pwr_BackUpPowerMode_Process , lp 
0000032e 80ffb600*      1237 <EXPANSION END>
                        1238 --318:     pwr_Update_D001_Value();
                        1239 --line318
                        1240 ..lin.D.3A.5CRenesas_Electronics.5CD1x_RGL.5Crgl_ghs_D1Lx_obj_V1.2E2.2E0.5Cvlib.5Capp.5Cgfx_apps.5Csimple_draw_d1l2.5Ctarget.5Cd1lx_mango_ghs.5Cobj.5Cpwr.46::
                        1241 .LDWlin46:
                        1242 	jarl	_pwr_Update_D001_Value,lp
                        1242 <EXPANSION BEGIN>
                        1242 jarl22 _pwr_Update_D001_Value , lp 
00000332 80ffaa06*      1242 <EXPANSION END>
                        1243 --321: }
                        1244 --line321
                        1245 ..lin.D.3A.5CRenesas_Electronics.5CD1x_RGL.5Crgl_ghs_D1Lx_obj_V1.2E2.2E0.5Cvlib.5Capp.5Cgfx_apps.5Csimple_draw_d1l2.5Ctarget.5Cd1lx_mango_ghs.5Cobj.5Cpwr.47::
                        1246 .LDWlin47:
00000336 0000           1247 	nop
                        1248 --	    .ef
                        1249 .LDW62:
00000338 4206ff70       1250 	dispose	1,{r25,r26,r27,r28,r29,r31},[lp]
                        1251 	.type	_pwr_PowerMode_10ms,@function
                        1252 	.size	_pwr_PowerMode_10ms,.-_pwr_PowerMode_10ms
                        1253 	.type	_pwr_PowerMode_10ms..D.3A.5CRenesas_Electronics.5CD1x_RGL.5Crgl_ghs_D1Lx_obj_V1.2E2.2E0.5Cvlib.5Capp.5Cgfx_apps.5Csimple_draw_d1l2.5Ctarget.5Cd1lx_mango_ghs.5Cobj.5Cpwr.,@function

                                                                      Page 23
                                                              C:\Users\YINGAO~1\AppData\Local\Temp\gh_00007eo1.si
                        1254 	.size	_pwr_PowerMode_10ms..D.3A.5CRenesas_Electronics.5CD1x_RGL.5Crgl_ghs_D1Lx_obj_V1.2E2.2E0.5Cvlib.5Capp.5Cgfx_apps.5Csimple_draw_d1l2.5Ctarget.5Cd1lx_mango_ghs.5Cobj.5Cpwr.,.-_pwr_PowerMode_10ms..D.3A.5CRenesas_Electronics.5CD1x_RGL.5Crgl_ghs_D1Lx_obj_V1.2E2.2E0.5Cvlib.5Capp.5Cgfx_apps.5Csimple_draw_d1l2.5Ctarget.5Cd1lx_mango_ghs.5Cobj.5Cpwr.
                        1255 	.align	2
                        1256 .LDW72:
                        1257 --_res	r28	local
                        1258 
                        1259 	.data
                        1260 	.text
                        1261 
                        1262 
                        1263 --323: /***************************************************
                        1264 --324: * Function: pwr_CheckStatus_50ms
                        1265 --325: * Description: the process of the checking
                        1266 --326: * Parameters:  none
                        1267 --327: * Returns: none
                        1268 --328: * $Create & Verlog:$
                        1269 --329: * Author:Xueping.Chen  Date:2016-12-09   Version:V1.0
                        1270 --330: ****************************************************/
                        1271 --331: static void  pwr_CheckStatus_100ms(void)
                        1272 	.align	2
                        1273 	.align	2
                        1274 	.global	_pwr_CheckStatus_100ms..D.3A.5CRenesas_Electronics.5CD1x_RGL.5Crgl_ghs_D1Lx_obj_V1.2E2.2E0.5Cvlib.5Capp.5Cgfx_apps.5Csimple_draw_d1l2.5Ctarget.5Cd1lx_mango_ghs.5Cobj.5Cpwr.
                        1275 _pwr_CheckStatus_100ms..D.3A.5CRenesas_Electronics.5CD1x_RGL.5Crgl_ghs_D1Lx_obj_V1.2E2.2E0.5Cvlib.5Capp.5Cgfx_apps.5Csimple_draw_d1l2.5Ctarget.5Cd1lx_mango_ghs.5Cobj.5Cpwr.:
                        1276 _pwr_CheckStatus_100ms:
0000033c 210600000000*  1277 	mov	_pwr_CheckStatus,r1
00000342 216e0400       1278 	movea	4,r1,r13
00000346 21660800       1279 	movea	8,r1,r12
0000034a 215e0e00       1280 	movea	14,r1,r11
0000034e 0150           1281 	mov	r1,r10
                        1282 --	    .bf
                        1283 .LDW82:
                        1284 --332: {
                        1285 --333:     if ((pwr_NetSysBPM != pwr_CPwrMode))
00000350 21770500       1286 	ld.w	4[r1],r14
00000354 214f0900       1287 	ld.w	8[r1],r9
00000358 ee49           1288 	cmp	r14,r9
0000035a c22d*          1289 	be	.L704
                        1290 --334:     {
                        1291 --335:        if(((PWR_OFF == pwr_NetSysBPM) || (PWR_ACC== pwr_NetSysBPM))
                        1292 --line335
                        1293 ..lin.D.3A.5CRenesas_Electronics.5CD1x_RGL.5Crgl_ghs_D1Lx_obj_V1.2E2.2E0.5Cvlib.5Capp.5Cgfx_apps.5Csimple_draw_d1l2.5Ctarget.5Cd1lx_mango_ghs.5Cobj.5Cpwr.48::
                        1294 .LDWlin48:
0000035c 21770900       1295 	ld.w	8[r1],r14
00000360 e071           1296 	cmp	zero,r14
00000362 d205*          1297 	be	.L708
00000364 21770900       1298 	ld.w	8[r1],r14
00000368 6172           1299 	cmp	1,r14
0000036a ea0d*          1300 	bne	.L706
                        1301 .L708:
0000036c 21770500       1302 	ld.w	4[r1],r14
00000370 6272           1303 	cmp	2,r14
00000372 d205*          1304 	be	.L707
00000374 21770500       1305 	ld.w	4[r1],r14
00000378 6372           1306 	cmp	3,r14
0000037a ea05*          1307 	bne	.L706
                        1308 .L707:
                        1309 --336:         && ((PWR_RUN == pwr_CPwrMode) || (PWR_CRANK== pwr_CPwrMode)))
                        1310 --337:         {            
                        1311 --338:             pwr_CheckStatus = STATUS_SLFCHK_NOT_READY;
                        1312 --line338
                        1313 ..lin.D.3A.5CRenesas_Electronics.5CD1x_RGL.5Crgl_ghs_D1Lx_obj_V1.2E2.2E0.5Cvlib.5Capp.5Cgfx_apps.5Csimple_draw_d1l2.5Ctarget.5Cd1lx_mango_ghs.5Cobj.5Cpwr.49::
                        1314 .LDWlin49:

                                                                      Page 24
                                                              C:\Users\YINGAO~1\AppData\Local\Temp\gh_00007eo1.si
0000037c 61070100       1315 	st.w	zero,0[r1]
                        1316 --339: 			pwr_Cnt5Second = 0;
00000380 61070e00       1317 	st.h	zero,14[r1]
00000384 a52d*          1318 	br	.L718
                        1319 .L706:
                        1320 --340:         }
                        1321 --341:        else  if(((PWR_RUN == pwr_NetSysBPM) || (PWR_CRANK== pwr_NetSysBPM))
                        1322 --line341
                        1323 ..lin.D.3A.5CRenesas_Electronics.5CD1x_RGL.5Crgl_ghs_D1Lx_obj_V1.2E2.2E0.5Cvlib.5Capp.5Cgfx_apps.5Csimple_draw_d1l2.5Ctarget.5Cd1lx_mango_ghs.5Cobj.5Cpwr.50::
                        1324 .LDWlin50:
00000386 21770900       1325 	ld.w	8[r1],r14
0000038a 6272           1326 	cmp	2,r14
0000038c d205*          1327 	be	.L714
0000038e 21770900       1328 	ld.w	8[r1],r14
00000392 6372           1329 	cmp	3,r14
00000394 aa25*          1330 	bne	.L718
                        1331 .L714:
00000396 21770500       1332 	ld.w	4[r1],r14
0000039a e071           1333 	cmp	zero,r14
0000039c d205*          1334 	be	.L713
0000039e 21770500       1335 	ld.w	4[r1],r14
000003a2 6172           1336 	cmp	1,r14
000003a4 aa1d*          1337 	bne	.L718
                        1338 .L713:
                        1339 --342:         && ((PWR_OFF == pwr_CPwrMode) || (PWR_ACC== pwr_CPwrMode)))
                        1340 --343:         {            
                        1341 --344:             pwr_CheckStatus = STATUS_SLFCHK_ING;
                        1342 --line344
                        1343 ..lin.D.3A.5CRenesas_Electronics.5CD1x_RGL.5Crgl_ghs_D1Lx_obj_V1.2E2.2E0.5Cvlib.5Capp.5Cgfx_apps.5Csimple_draw_d1l2.5Ctarget.5Cd1lx_mango_ghs.5Cobj.5Cpwr.51::
                        1344 .LDWlin51:
000003a6 0172           1345 	mov	1,r14
000003a8 61770100       1346 	st.w	r14,0[r1]
                        1347 --345: 			pwr_Cnt5Second = 0;
000003ac 61070e00       1348 	st.h	zero,14[r1]
000003b0 c515*          1349 	br	.L718
                        1350 .L704:
                        1351 --346:         }
                        1352 --347:        else
                        1353 --348:         {
                        1354 --349:            
                        1355 --350:         }	   
                        1356 --351: 		
                        1357 --352:     }
                        1358 --353:     else
                        1359 --354:     {
                        1360 --355:         if (STATUS_SLFCHK_ING == pwr_CheckStatus)
                        1361 --line355
                        1362 ..lin.D.3A.5CRenesas_Electronics.5CD1x_RGL.5Crgl_ghs_D1Lx_obj_V1.2E2.2E0.5Cvlib.5Capp.5Cgfx_apps.5Csimple_draw_d1l2.5Ctarget.5Cd1lx_mango_ghs.5Cobj.5Cpwr.52::
                        1363 .LDWlin52:
000003b2 21770100       1364 	ld.w	0[r1],r14
000003b6 6172           1365 	cmp	1,r14
000003b8 8a15*          1366 	bne	.L718
                        1367 --356:         {
                        1368 --357:             pwr_Cnt5Second++;
                        1369 --line357
                        1370 ..lin.D.3A.5CRenesas_Electronics.5CD1x_RGL.5Crgl_ghs_D1Lx_obj_V1.2E2.2E0.5Cvlib.5Capp.5Cgfx_apps.5Csimple_draw_d1l2.5Ctarget.5Cd1lx_mango_ghs.5Cobj.5Cpwr.53::
                        1371 .LDWlin53:
000003ba e1770f00       1372 	ld.hu	14[r1],r14
000003be 4172           1373 	add	1,r14
000003c0 61770e00       1374 	st.h	r14,14[r1]
                        1375 --358:             if (CHECKSTATUS_50MSPERIOD_MAXCOUNT <= pwr_Cnt5Second)

                                                                      Page 25
                                                              C:\Users\YINGAO~1\AppData\Local\Temp\gh_00007eo1.si
000003c4 e1770f00       1376 	ld.hu	14[r1],r14
000003c8 0e06ceff       1377 	addi	-50,r14,zero
000003cc e905*          1378 	bnl	.L718
                        1379 --359:             {
                        1380 --360:                 pwr_Cnt5Second = 0;
                        1381 --line360
                        1382 ..lin.D.3A.5CRenesas_Electronics.5CD1x_RGL.5Crgl_ghs_D1Lx_obj_V1.2E2.2E0.5Cvlib.5Capp.5Cgfx_apps.5Csimple_draw_d1l2.5Ctarget.5Cd1lx_mango_ghs.5Cobj.5Cpwr.54::
                        1383 .LDWlin54:
000003ce 61070e00       1384 	st.h	zero,14[r1]
                        1385 --361:                 pwr_CheckStatus = STATUS_SLFCHK_FINISH;
000003d2 0272           1386 	mov	2,r14
000003d4 61770100       1387 	st.w	r14,0[r1]
                        1388 .L718:
                        1389 --362:             }
                        1390 --363:             else
                        1391 --364:             {
                        1392 --365:             }
                        1393 --366:         }
                        1394 --367:         else
                        1395 --368:         {            
                        1396 --369:         }
                        1397 --370:     }
                        1398 --372:     pwr_CPwrMode = pwr_NetSysBPM;
000003d8 21770900       1399 	ld.w	8[r1],r14
000003dc 61770500       1400 	st.w	r14,4[r1]
                        1401 --374:    
                        1402 --375: }
000003e0 0000           1403 	nop
                        1404 --	    .ef
                        1405 .LDW92:
000003e2 7f00           1406 	jmp	[lp]
                        1407 	.type	_pwr_CheckStatus_100ms,@function
                        1408 	.size	_pwr_CheckStatus_100ms,.-_pwr_CheckStatus_100ms
                        1409 	.type	_pwr_CheckStatus_100ms..D.3A.5CRenesas_Electronics.5CD1x_RGL.5Crgl_ghs_D1Lx_obj_V1.2E2.2E0.5Cvlib.5Capp.5Cgfx_apps.5Csimple_draw_d1l2.5Ctarget.5Cd1lx_mango_ghs.5Cobj.5Cpwr.,@function
                        1410 	.size	_pwr_CheckStatus_100ms..D.3A.5CRenesas_Electronics.5CD1x_RGL.5Crgl_ghs_D1Lx_obj_V1.2E2.2E0.5Cvlib.5Capp.5Cgfx_apps.5Csimple_draw_d1l2.5Ctarget.5Cd1lx_mango_ghs.5Cobj.5Cpwr.,.-_pwr_CheckStatus_100ms..D.3A.5CRenesas_Electronics.5CD1x_RGL.5Crgl_ghs_D1Lx_obj_V1.2E2.2E0.5Cvlib.5Capp.5Cgfx_apps.5Csimple_draw_d1l2.5Ctarget.5Cd1lx_mango_ghs.5Cobj.5Cpwr.
                        1411 	.align	2
                        1412 .LDW03:
                        1413 
                        1414 	.data
                        1415 	.text
                        1416 
                        1417 
                        1418 --377: /***************************************************
                        1419 --378: * Function: pwr_BackUpPowerMode_Process
                        1420 --379: * Description: the process of backup power
                        1421 --380: * Parameters:  none
                        1422 --381: * Returns: none
                        1423 --382: * $Create & Verlog:$
                        1424 --383: * Author:Xueping.Chen  Date:2016-12-09   Version:V1.0
                        1425 --384: ****************************************************/
                        1426 --385: static void pwr_BackUpPowerMode_Process(void)
                        1427 	.align	2
                        1428 	.align	2
                        1429 	.global	_pwr_BackUpPowerMode_Process..D.3A.5CRenesas_Electronics.5CD1x_RGL.5Crgl_ghs_D1Lx_obj_V1.2E2.2E0.5Cvlib.5Capp.5Cgfx_apps.5Csimple_draw_d1l2.5Ctarget.5Cd1lx_mango_ghs.5Cobj.5Cpwr.
                        1430 _pwr_BackUpPowerMode_Process..D.3A.5CRenesas_Electronics.5CD1x_RGL.5Crgl_ghs_D1Lx_obj_V1.2E2.2E0.5Cvlib.5Capp.5Cgfx_apps.5Csimple_draw_d1l2.5Ctarget.5Cd1lx_mango_ghs.5Cobj.5Cpwr.:
                        1431 _pwr_BackUpPowerMode_Process:
000003e4 80072100       1432 	prepare	{r31},0
000003e8 210600000000*  1433 	mov	_pwr_NetSysBPM,r1
                        1434 --	    .bf
                        1435 .LDW13:
                        1436 --386: {

                                                                      Page 26
                                                              C:\Users\YINGAO~1\AppData\Local\Temp\gh_00007eo1.si
                        1437 --387:     switch (pwr_NetSysBPM)
000003ee 210600000000*  1438 	mov	_pwr_NetSysBPM,r1
000003f4 210f0100       1439 	ld.w	0[r1],r1
000003f8 620a           1440 	cmp	2,r1
000003fa c905*          1441 	bnl	.L895
000003fc 610a           1442 	cmp	1,r1
000003fe 810d*          1443 	bl	.L854
00000400 a50d*          1444 	br	.L855
                        1445 .L895:
00000402 630a           1446 	cmp	3,r1
00000404 b10d*          1447 	bl	.L856
00000406 d20d*          1448 	be	.L857
00000408 640a           1449 	cmp	4,r1
0000040a fa0d*          1450 	bne	.L859
0000040c d50d*          1451 	br	.L858
                        1452 .L854:
                        1453 --388:     {
                        1454 --389:         case PWR_OFF:
                        1455 --390:             pwr_OffModeTrans();
                        1456 --line390
                        1457 ..lin.D.3A.5CRenesas_Electronics.5CD1x_RGL.5Crgl_ghs_D1Lx_obj_V1.2E2.2E0.5Cvlib.5Capp.5Cgfx_apps.5Csimple_draw_d1l2.5Ctarget.5Cd1lx_mango_ghs.5Cobj.5Cpwr.55::
                        1458 .LDWlin55:
                        1459 	jarl	_pwr_OffModeTrans,lp
                        1459 <EXPANSION BEGIN>
                        1459 jarl22 _pwr_OffModeTrans , lp 
0000040e 80ff2200*      1459 <EXPANSION END>
                        1460 --line391
                        1461 ..lin.D.3A.5CRenesas_Electronics.5CD1x_RGL.5Crgl_ghs_D1Lx_obj_V1.2E2.2E0.5Cvlib.5Capp.5Cgfx_apps.5Csimple_draw_d1l2.5Ctarget.5Cd1lx_mango_ghs.5Cobj.5Cpwr.56::
                        1462 .LDWlin56:
00000412 c50d*          1463 	br	.L852
                        1464 .L855:
                        1465 --391:             break;
                        1466 --392:         case PWR_ACC:
                        1467 --393:             pwr_AccModeTrans();
                        1468 --line393
                        1469 ..lin.D.3A.5CRenesas_Electronics.5CD1x_RGL.5Crgl_ghs_D1Lx_obj_V1.2E2.2E0.5Cvlib.5Capp.5Cgfx_apps.5Csimple_draw_d1l2.5Ctarget.5Cd1lx_mango_ghs.5Cobj.5Cpwr.57::
                        1470 .LDWlin57:
                        1471 	jarl	_pwr_AccModeTrans,lp
                        1471 <EXPANSION BEGIN>
                        1471 jarl22 _pwr_AccModeTrans , lp 
00000414 80ff5801*      1471 <EXPANSION END>
                        1472 --line394
                        1473 ..lin.D.3A.5CRenesas_Electronics.5CD1x_RGL.5Crgl_ghs_D1Lx_obj_V1.2E2.2E0.5Cvlib.5Capp.5Cgfx_apps.5Csimple_draw_d1l2.5Ctarget.5Cd1lx_mango_ghs.5Cobj.5Cpwr.58::
                        1474 .LDWlin58:
00000418 950d*          1475 	br	.L852
                        1476 .L856:
                        1477 --394:             break;
                        1478 --395:         case PWR_RUN:
                        1479 --396:             pwr_RunModeTrans();
                        1480 --line396
                        1481 ..lin.D.3A.5CRenesas_Electronics.5CD1x_RGL.5Crgl_ghs_D1Lx_obj_V1.2E2.2E0.5Cvlib.5Capp.5Cgfx_apps.5Csimple_draw_d1l2.5Ctarget.5Cd1lx_mango_ghs.5Cobj.5Cpwr.59::
                        1482 .LDWlin59:
                        1483 	jarl	_pwr_RunModeTrans,lp
                        1483 <EXPANSION BEGIN>
                        1483 jarl22 _pwr_RunModeTrans , lp 
0000041a 80ff4402*      1483 <EXPANSION END>
                        1484 --line397
                        1485 ..lin.D.3A.5CRenesas_Electronics.5CD1x_RGL.5Crgl_ghs_D1Lx_obj_V1.2E2.2E0.5Cvlib.5Capp.5Cgfx_apps.5Csimple_draw_d1l2.5Ctarget.5Cd1lx_mango_ghs.5Cobj.5Cpwr.60::
                        1486 .LDWlin60:
0000041e e505*          1487 	br	.L852
                        1488 .L857:

                                                                      Page 27
                                                              C:\Users\YINGAO~1\AppData\Local\Temp\gh_00007eo1.si
                        1489 --397:             break;
                        1490 --398:         case PWR_CRANK:
                        1491 --399:             pwr_CrankModeTrans();
                        1492 --line399
                        1493 ..lin.D.3A.5CRenesas_Electronics.5CD1x_RGL.5Crgl_ghs_D1Lx_obj_V1.2E2.2E0.5Cvlib.5Capp.5Cgfx_apps.5Csimple_draw_d1l2.5Ctarget.5Cd1lx_mango_ghs.5Cobj.5Cpwr.61::
                        1494 .LDWlin61:
                        1495 	jarl	_pwr_CrankModeTrans,lp
                        1495 <EXPANSION BEGIN>
                        1495 jarl22 _pwr_CrankModeTrans , lp 
00000420 80ffb003*      1495 <EXPANSION END>
                        1496 --line400
                        1497 ..lin.D.3A.5CRenesas_Electronics.5CD1x_RGL.5Crgl_ghs_D1Lx_obj_V1.2E2.2E0.5Cvlib.5Capp.5Cgfx_apps.5Csimple_draw_d1l2.5Ctarget.5Cd1lx_mango_ghs.5Cobj.5Cpwr.62::
                        1498 .LDWlin62:
00000424 b505*          1499 	br	.L852
                        1500 .L858:
                        1501 --line402
                        1502 ..lin.D.3A.5CRenesas_Electronics.5CD1x_RGL.5Crgl_ghs_D1Lx_obj_V1.2E2.2E0.5Cvlib.5Capp.5Cgfx_apps.5Csimple_draw_d1l2.5Ctarget.5Cd1lx_mango_ghs.5Cobj.5Cpwr.63::
                        1503 .LDWlin63:
00000426 a505*          1504 	br	.L852
                        1505 .L859:
                        1506 --line404
                        1507 ..lin.D.3A.5CRenesas_Electronics.5CD1x_RGL.5Crgl_ghs_D1Lx_obj_V1.2E2.2E0.5Cvlib.5Capp.5Cgfx_apps.5Csimple_draw_d1l2.5Ctarget.5Cd1lx_mango_ghs.5Cobj.5Cpwr.64::
                        1508 .LDWlin64:
00000428 0000           1509 	nop
                        1510 .L852:
                        1511 --400:             break;
                        1512 --401:         case PWR_UNKNOWN:
                        1513 --402:             break;
                        1514 --403:         default:
                        1515 --404:             break;
                        1516 --405:     }
                        1517 --406: }
0000042a 0000           1518 	nop
                        1519 --	    .ef
                        1520 .LDW23:
0000042c 40063f00       1521 	dispose	0,{r31},[lp]
                        1522 	.type	_pwr_BackUpPowerMode_Process,@function
                        1523 	.size	_pwr_BackUpPowerMode_Process,.-_pwr_BackUpPowerMode_Process
                        1524 	.type	_pwr_BackUpPowerMode_Process..D.3A.5CRenesas_Electronics.5CD1x_RGL.5Crgl_ghs_D1Lx_obj_V1.2E2.2E0.5Cvlib.5Capp.5Cgfx_apps.5Csimple_draw_d1l2.5Ctarget.5Cd1lx_mango_ghs.5Cobj.5Cpwr.,@function
                        1525 	.size	_pwr_BackUpPowerMode_Process..D.3A.5CRenesas_Electronics.5CD1x_RGL.5Crgl_ghs_D1Lx_obj_V1.2E2.2E0.5Cvlib.5Capp.5Cgfx_apps.5Csimple_draw_d1l2.5Ctarget.5Cd1lx_mango_ghs.5Cobj.5Cpwr.,.-_pwr_BackUpPowerMode_Process..D.3A.5CRenesas_Electronics.5CD1x_RGL.5Crgl_ghs_D1Lx_obj_V1.2E2.2E0.5Cvlib.5Capp.5Cgfx_apps.5Csimple_draw_d1l2.5Ctarget.5Cd1lx_mango_ghs.5Cobj.5Cpwr.
                        1526 	.align	2
                        1527 .LDW33:
                        1528 
                        1529 	.data
                        1530 	.text
                        1531 
                        1532 
                        1533 --408: /***************************************************
                        1534 --409: * Function: pwr_OffModeTrans
                        1535 --410: * Description: the mode of power from off to other
                        1536 --411: * Parameters:  none
                        1537 --412: * Returns: none
                        1538 --413: * $Create & Verlog:$
                        1539 --414: * Author:Xueping.Chen  Date:2016-12-09   Version:V1.0
                        1540 --415: ****************************************************/
                        1541 --416: static void pwr_OffModeTrans(void)
                        1542 	.align	2
                        1543 	.align	2
                        1544 	.global	_pwr_OffModeTrans..D.3A.5CRenesas_Electronics.5CD1x_RGL.5Crgl_ghs_D1Lx_obj_V1.2E2.2E0.5Cvlib.5Capp.5Cgfx_apps.5Csimple_draw_d1l2.5Ctarget.5Cd1lx_mango_ghs.5Cobj.5Cpwr.
                        1545 _pwr_OffModeTrans..D.3A.5CRenesas_Electronics.5CD1x_RGL.5Crgl_ghs_D1Lx_obj_V1.2E2.2E0.5Cvlib.5Capp.5Cgfx_apps.5Csimple_draw_d1l2.5Ctarget.5Cd1lx_mango_ghs.5Cobj.5Cpwr.:
                        1546 _pwr_OffModeTrans:

                                                                      Page 28
                                                              C:\Users\YINGAO~1\AppData\Local\Temp\gh_00007eo1.si
00000430 8807e170       1547 	prepare	{r25,r26,r27,r28,r29,r31},4
00000434 3d0600000000*  1548 	mov	_pwr_NetSysBPM,r29
0000043a 1dd8           1549 	mov	r29,r27
0000043c 3dce1d00       1550 	movea	29,r29,r25
00000440 3dd61800       1551 	movea	24,r29,r26
                        1552 --	    .bf
                        1553 .LDW43:
                        1554 --417: {
                        1555 --419:     U8 SCSNodeLost =  FALSE;
00000444 43070200       1556 	st.b	zero,2[sp]
                        1557 --420:     U8 ECMNodeLost = FALSE;
00000448 43070300       1558 	st.b	zero,3[sp]
                        1559 --422:     U8 res = RET_FAIL;
0000044c 00e2           1560 	mov	0,r28
                        1561 --424:     res = NWD_GetNodeMissing(INDEX_SCS_NODE, &SCSNodeLost);
0000044e 0a32           1562 	mov	10,r6
00000450 233e0200       1563 	movea	2,sp,r7
                        1564 	jarl	_NWD_GetNodeMissing,lp
                        1564 <EXPANSION BEGIN>
                        1564 jarl22 _NWD_GetNodeMissing , lp 
00000454 80ff0000*      1564 <EXPANSION END>
00000458 0ae0           1565 	mov	r10,r28
                        1566 --425:     res = NWD_GetNodeMissing(INDEX_ECM_NODE, &ECMNodeLost);
                        1567 --line425
                        1568 ..lin.D.3A.5CRenesas_Electronics.5CD1x_RGL.5Crgl_ghs_D1Lx_obj_V1.2E2.2E0.5Cvlib.5Capp.5Cgfx_apps.5Csimple_draw_d1l2.5Ctarget.5Cd1lx_mango_ghs.5Cobj.5Cpwr.65::
                        1569 .LDWlin65:
0000045a 0032           1570 	mov	0,r6
0000045c 233e0300       1571 	movea	3,sp,r7
                        1572 	jarl	_NWD_GetNodeMissing,lp
                        1572 <EXPANSION BEGIN>
                        1572 jarl22 _NWD_GetNodeMissing , lp 
00000460 80ff0000*      1572 <EXPANSION END>
00000464 0ae0           1573 	mov	r10,r28
                        1574 --427:     COM_GetSignalValue_8(INDEX_COM_RS_VEHSPDAVGDRVNV, &pwr_NetVehSpdAvgDrvnV); /*车速有效性*/
                        1575 --line427
                        1576 ..lin.D.3A.5CRenesas_Electronics.5CD1x_RGL.5Crgl_ghs_D1Lx_obj_V1.2E2.2E0.5Cvlib.5Capp.5Cgfx_apps.5Csimple_draw_d1l2.5Ctarget.5Cd1lx_mango_ghs.5Cobj.5Cpwr.66::
                        1577 .LDWlin66:
00000466 20361b00       1578 	movea	27,zero,r6
0000046a 3d3e3000       1579 	movea	48,r29,r7
                        1580 	jarl	_COM_GetSignalValue_8,lp
                        1580 <EXPANSION BEGIN>
                        1580 jarl22 _COM_GetSignalValue_8 , lp 
0000046e 80ff0000*      1580 <EXPANSION END>
                        1581 --428:     COM_GetSignalValue_16(INDEX_COM_RS_VEHSPDAVGDRVN, &pwr_NetVehSpdAvgDrvn);      /*车速*/
                        1582 --line428
                        1583 ..lin.D.3A.5CRenesas_Electronics.5CD1x_RGL.5Crgl_ghs_D1Lx_obj_V1.2E2.2E0.5Cvlib.5Capp.5Cgfx_apps.5Csimple_draw_d1l2.5Ctarget.5Cd1lx_mango_ghs.5Cobj.5Cpwr.67::
                        1584 .LDWlin67:
00000472 1a38           1585 	mov	r26,r7
00000474 20361a00       1586 	movea	26,zero,r6
                        1587 	jarl	_COM_GetSignalValue_16,lp
                        1587 <EXPANSION BEGIN>
                        1587 jarl22 _COM_GetSignalValue_16 , lp 
00000478 80ff0000*      1587 <EXPANSION END>
                        1588 --430:     if ((FALSE == pwr_LostIcm)/*FLOW 2*/
                        1589 --line430
                        1590 ..lin.D.3A.5CRenesas_Electronics.5CD1x_RGL.5Crgl_ghs_D1Lx_obj_V1.2E2.2E0.5Cvlib.5Capp.5Cgfx_apps.5Csimple_draw_d1l2.5Ctarget.5Cd1lx_mango_ghs.5Cobj.5Cpwr.68::
                        1591 .LDWlin68:
0000047c 9d0f2100       1592 	ld.bu	32[r29],r1
00000480 e009           1593 	cmp	zero,r1
00000482 9a15*          1594 	bne	.L957
00000484 bd0f1d00       1595 	ld.bu	29[r29],r1

                                                                      Page 29
                                                              C:\Users\YINGAO~1\AppData\Local\Temp\gh_00007eo1.si
00000488 e009           1596 	cmp	zero,r1
0000048a da0d*          1597 	bne	.L957
0000048c 9d0f1d00       1598 	ld.bu	28[r29],r1
00000490 610a           1599 	cmp	1,r1
00000492 9a0d*          1600 	bne	.L957
                        1601 	jarl	_NWD_GetBusOffFlt,lp
                        1601 <EXPANSION BEGIN>
                        1601 jarl22 _NWD_GetBusOffFlt , lp 
00000494 80ff0000*      1601 <EXPANSION END>
00000498 e051           1602 	cmp	zero,r10
0000049a da05*          1603 	bne	.L957
                        1604 --431:         && (VALID == pwr_NetBCMPwrMdHwdStaV)
                        1605 --432:         && (PWR_ACC == pwr_NetBCMPwrMdHwdSta)
                        1606 --433:         && (FALSE == NWD_GetBusOffFlt()))
                        1607 --434:     {
                        1608 --435:         pwr_NetSysBPM = PWR_ACC;
                        1609 --line435
                        1610 ..lin.D.3A.5CRenesas_Electronics.5CD1x_RGL.5Crgl_ghs_D1Lx_obj_V1.2E2.2E0.5Cvlib.5Capp.5Cgfx_apps.5Csimple_draw_d1l2.5Ctarget.5Cd1lx_mango_ghs.5Cobj.5Cpwr.69::
                        1611 .LDWlin69:
0000049c 010a           1612 	mov	1,r1
0000049e 7d0f0100       1613 	st.w	r1,0[r29]
000004a2 a565*          1614 	br	.L962
                        1615 .L957:
                        1616 --436:     }
                        1617 --437:     else if ((FALSE == pwr_LostIcm)/*FLOW 16*/
                        1618 --line437
                        1619 ..lin.D.3A.5CRenesas_Electronics.5CD1x_RGL.5Crgl_ghs_D1Lx_obj_V1.2E2.2E0.5Cvlib.5Capp.5Cgfx_apps.5Csimple_draw_d1l2.5Ctarget.5Cd1lx_mango_ghs.5Cobj.5Cpwr.70::
                        1620 .LDWlin70:
000004a4 9d0f2100       1621 	ld.bu	32[r29],r1
000004a8 e009           1622 	cmp	zero,r1
000004aa da15*          1623 	bne	.L963
000004ac bd0f3100       1624 	ld.bu	49[r29],r1
000004b0 e009           1625 	cmp	zero,r1
000004b2 9a15*          1626 	bne	.L963
000004b4 bd0f1d00       1627 	ld.bu	29[r29],r1
000004b8 e009           1628 	cmp	zero,r1
000004ba da0d*          1629 	bne	.L963
000004bc 9d0f1d00       1630 	ld.bu	28[r29],r1
000004c0 630a           1631 	cmp	3,r1
000004c2 9a0d*          1632 	bne	.L963
000004c4 9d0f2b00       1633 	ld.bu	42[r29],r1
000004c8 610a           1634 	cmp	1,r1
000004ca da05*          1635 	bne	.L963
                        1636 --438:         && (FALSE == pwr_busoff)
                        1637 --439:         && (VALID == pwr_NetBCMPwrMdHwdStaV)
                        1638 --440:         && (PWR_CRANK == pwr_NetBCMPwrMdHwdSta)
                        1639 --441:         && (NORMAL_MODE == pmOperationalMode))
                        1640 --442:     {
                        1641 --443:         pwr_NetSysBPM = PWR_CRANK;
                        1642 --line443
                        1643 ..lin.D.3A.5CRenesas_Electronics.5CD1x_RGL.5Crgl_ghs_D1Lx_obj_V1.2E2.2E0.5Cvlib.5Capp.5Cgfx_apps.5Csimple_draw_d1l2.5Ctarget.5Cd1lx_mango_ghs.5Cobj.5Cpwr.71::
                        1644 .LDWlin71:
000004cc 030a           1645 	mov	3,r1
000004ce 7d0f0100       1646 	st.w	r1,0[r29]
000004d2 a54d*          1647 	br	.L962
                        1648 .L963:
                        1649 --444:     }
                        1650 --445:     else
                        1651 --446: 	{
                        1652 --447: 	    if ((MANUFACTURE_MODE == pmOperationalMode)/*FLOW 18*/
                        1653 --line447

                                                                      Page 30
                                                              C:\Users\YINGAO~1\AppData\Local\Temp\gh_00007eo1.si
                        1654 ..lin.D.3A.5CRenesas_Electronics.5CD1x_RGL.5Crgl_ghs_D1Lx_obj_V1.2E2.2E0.5Cvlib.5Capp.5Cgfx_apps.5Csimple_draw_d1l2.5Ctarget.5Cd1lx_mango_ghs.5Cobj.5Cpwr.72::
                        1655 .LDWlin72:
000004d4 9d0f2b00       1656 	ld.bu	42[r29],r1
000004d8 e009           1657 	cmp	zero,r1
000004da 9a15*          1658 	bne	.L970
000004dc bd0f2100       1659 	ld.bu	33[r29],r1
000004e0 610a           1660 	cmp	1,r1
000004e2 da0d*          1661 	bne	.L970
                        1662 --448: 	        && (TRUE== pwr_SsbLongPressedFlag))
                        1663 --449: 	    {
                        1664 --450: 	        pwr_SsbLongPressedFlag = FALSE;
                        1665 --line450
                        1666 ..lin.D.3A.5CRenesas_Electronics.5CD1x_RGL.5Crgl_ghs_D1Lx_obj_V1.2E2.2E0.5Cvlib.5Capp.5Cgfx_apps.5Csimple_draw_d1l2.5Ctarget.5Cd1lx_mango_ghs.5Cobj.5Cpwr.73::
                        1667 .LDWlin73:
000004e4 5d072100       1668 	st.b	zero,33[r29]
                        1669 --451: 	        pwr_NetSysBPM = PWR_RUN;
000004e8 020a           1670 	mov	2,r1
000004ea 7d0f0100       1671 	st.w	r1,0[r29]
                        1672 --453: 	            NVM_SetParas(INDEX_NVM_RUNKEEP,&pwr_NetSysBPM,1);
000004ee 1b38           1673 	mov	r27,r7
000004f0 20369700       1674 	movea	151,zero,r6
000004f4 0142           1675 	mov	1,r8
                        1676 	jarl	_NVM_SetParas,lp
                        1676 <EXPANSION BEGIN>
                        1676 jarl22 _NVM_SetParas , lp 
000004f6 80ff0000*      1676 <EXPANSION END>
000004fa e535*          1677 	br	.L962
                        1678 .L970:
                        1679 --454: 	    }
                        1680 --455: 	    else if ((FALSE == pwr_LostIcm)/*FLOW 17-1*/
                        1681 --line455
                        1682 ..lin.D.3A.5CRenesas_Electronics.5CD1x_RGL.5Crgl_ghs_D1Lx_obj_V1.2E2.2E0.5Cvlib.5Capp.5Cgfx_apps.5Csimple_draw_d1l2.5Ctarget.5Cd1lx_mango_ghs.5Cobj.5Cpwr.74::
                        1683 .LDWlin74:
000004fc 9d0f2100       1684 	ld.bu	32[r29],r1
00000500 e009           1685 	cmp	zero,r1
00000502 9a15*          1686 	bne	.L974
00000504 bd0f1d00       1687 	ld.bu	29[r29],r1
00000508 e009           1688 	cmp	zero,r1
0000050a da0d*          1689 	bne	.L974
0000050c 9d0f1d00       1690 	ld.bu	28[r29],r1
00000510 620a           1691 	cmp	2,r1
00000512 9a0d*          1692 	bne	.L974
                        1693 	jarl	_NWD_GetBusOffFlt,lp
                        1693 <EXPANSION BEGIN>
                        1693 jarl22 _NWD_GetBusOffFlt , lp 
00000514 80ff0000*      1693 <EXPANSION END>
00000518 e051           1694 	cmp	zero,r10
0000051a da05*          1695 	bne	.L974
                        1696 --456: 	        && (VALID == pwr_NetBCMPwrMdHwdStaV)
                        1697 --457: 	        && (PWR_RUN == pwr_NetBCMPwrMdHwdSta)
                        1698 --458: 	        && (FALSE == NWD_GetBusOffFlt()))
                        1699 --459: 	    {
                        1700 --460: 	        pwr_NetSysBPM = PWR_RUN;
                        1701 --line460
                        1702 ..lin.D.3A.5CRenesas_Electronics.5CD1x_RGL.5Crgl_ghs_D1Lx_obj_V1.2E2.2E0.5Cvlib.5Capp.5Cgfx_apps.5Csimple_draw_d1l2.5Ctarget.5Cd1lx_mango_ghs.5Cobj.5Cpwr.75::
                        1703 .LDWlin75:
0000051c 020a           1704 	mov	2,r1
0000051e 7d0f0100       1705 	st.w	r1,0[r29]
00000522 a525*          1706 	br	.L962
                        1707 .L974:
                        1708 --461: 	    }

                                                                      Page 31
                                                              C:\Users\YINGAO~1\AppData\Local\Temp\gh_00007eo1.si
                        1709 --462: 	    else if (((TRUE == pwr_LostIcm) || (INVALID == pwr_NetBCMPwrMdHwdStaV))/*FLOW 17-2 NEED CD CONFIRM*/
                        1710 --line462
                        1711 ..lin.D.3A.5CRenesas_Electronics.5CD1x_RGL.5Crgl_ghs_D1Lx_obj_V1.2E2.2E0.5Cvlib.5Capp.5Cgfx_apps.5Csimple_draw_d1l2.5Ctarget.5Cd1lx_mango_ghs.5Cobj.5Cpwr.76::
                        1712 .LDWlin76:
00000524 9d0f2100       1713 	ld.bu	32[r29],r1
00000528 610a           1714 	cmp	1,r1
0000052a d205*          1715 	be	.L983
0000052c bd0f1d00       1716 	ld.bu	29[r29],r1
00000530 610a           1717 	cmp	1,r1
00000532 aa1d*          1718 	bne	.L962
                        1719 .L983:
00000534 bd0f1f00       1720 	ld.bu	31[r29],r1
00000538 e009           1721 	cmp	zero,r1
0000053a e215*          1722 	be	.L962
0000053c 9d0f3100       1723 	ld.bu	48[r29],r1
00000540 e009           1724 	cmp	zero,r1
00000542 aa15*          1725 	bne	.L962
00000544 9d0f2900       1726 	ld.bu	40[r29],r1
00000548 fd771900       1727 	ld.hu	24[r29],r14
0000054c e171           1728 	cmp	r1,r14
0000054e c10d*          1729 	bl	.L962
00000550 9d0f3300       1730 	ld.bu	50[r29],r1
00000554 e009           1731 	cmp	zero,r1
00000556 8a0d*          1732 	bne	.L962
00000558 bd0f3300       1733 	ld.bu	51[r29],r1
0000055c e009           1734 	cmp	zero,r1
0000055e ca05*          1735 	bne	.L962
                        1736 --463: 	       && (FALSE != pwr_NetEnRunA)
                        1737 --464: 	       && ((VALID == pwr_NetVehSpdAvgDrvnV)
                        1738 --465: 	       && (pwr_NetVehSpdAvgDrvn >= gloVehMovingThresholdPrm)
                        1739 --466: 	       && (FALSE == pwr_lostSCS)
                        1740 --467: 	       && (FALSE == pwr_lostECM)))
                        1741 --468: 	    {
                        1742 --469: 	        pwr_NetSysBPM = PWR_RUN;
                        1743 --line469
                        1744 ..lin.D.3A.5CRenesas_Electronics.5CD1x_RGL.5Crgl_ghs_D1Lx_obj_V1.2E2.2E0.5Cvlib.5Capp.5Cgfx_apps.5Csimple_draw_d1l2.5Ctarget.5Cd1lx_mango_ghs.5Cobj.5Cpwr.77::
                        1745 .LDWlin77:
00000560 020a           1746 	mov	2,r1
00000562 7d0f0100       1747 	st.w	r1,0[r29]
                        1748 .L962:
                        1749 --470: 	    }
                        1750 --471: 	    else
                        1751 --472: 	    {
                        1752 --473: 	    }
                        1753 --474:     }
                        1754 --475: }
00000566 0000           1755 	nop
                        1756 --	    .ef
                        1757 .LDW53:
00000568 4806ff70       1758 	dispose	4,{r25,r26,r27,r28,r29,r31},[lp]
                        1759 	.type	_pwr_OffModeTrans,@function
                        1760 	.size	_pwr_OffModeTrans,.-_pwr_OffModeTrans
                        1761 	.type	_pwr_OffModeTrans..D.3A.5CRenesas_Electronics.5CD1x_RGL.5Crgl_ghs_D1Lx_obj_V1.2E2.2E0.5Cvlib.5Capp.5Cgfx_apps.5Csimple_draw_d1l2.5Ctarget.5Cd1lx_mango_ghs.5Cobj.5Cpwr.,@function
                        1762 	.size	_pwr_OffModeTrans..D.3A.5CRenesas_Electronics.5CD1x_RGL.5Crgl_ghs_D1Lx_obj_V1.2E2.2E0.5Cvlib.5Capp.5Cgfx_apps.5Csimple_draw_d1l2.5Ctarget.5Cd1lx_mango_ghs.5Cobj.5Cpwr.,.-_pwr_OffModeTrans..D.3A.5CRenesas_Electronics.5CD1x_RGL.5Crgl_ghs_D1Lx_obj_V1.2E2.2E0.5Cvlib.5Capp.5Cgfx_apps.5Csimple_draw_d1l2.5Ctarget.5Cd1lx_mango_ghs.5Cobj.5Cpwr.
                        1763 	.align	2
                        1764 .LDW63:
                        1765 --_SCSNodeLost	2[sp]	local
                        1766 --_ECMNodeLost	3[sp]	local
                        1767 --_res	r28	local
                        1768 
                        1769 	.data

                                                                      Page 32
                                                              C:\Users\YINGAO~1\AppData\Local\Temp\gh_00007eo1.si
                        1770 	.text
                        1771 
                        1772 
                        1773 --477: /***************************************************
                        1774 --478: * Function: pwr_AccModeTrans
                        1775 --479: * Description: the mode of power from acc to other
                        1776 --480: * Parameters:  none
                        1777 --481: * Returns: none
                        1778 --482: * $Create & Verlog:$
                        1779 --483: * Author:Xueping.Chen  Date:2016-12-09   Version:V1.0
                        1780 --484: ****************************************************/
                        1781 --485: static void pwr_AccModeTrans(void)
                        1782 	.align	2
                        1783 	.align	2
                        1784 	.global	_pwr_AccModeTrans..D.3A.5CRenesas_Electronics.5CD1x_RGL.5Crgl_ghs_D1Lx_obj_V1.2E2.2E0.5Cvlib.5Capp.5Cgfx_apps.5Csimple_draw_d1l2.5Ctarget.5Cd1lx_mango_ghs.5Cobj.5Cpwr.
                        1785 _pwr_AccModeTrans..D.3A.5CRenesas_Electronics.5CD1x_RGL.5Crgl_ghs_D1Lx_obj_V1.2E2.2E0.5Cvlib.5Capp.5Cgfx_apps.5Csimple_draw_d1l2.5Ctarget.5Cd1lx_mango_ghs.5Cobj.5Cpwr.:
                        1786 _pwr_AccModeTrans:
0000056c 8407e170       1787 	prepare	{r25,r26,r27,r28,r29,r31},2
00000570 3d0600000000*  1788 	mov	_pwr_NetSysBPM,r29
00000576 1dd0           1789 	mov	r29,r26
00000578 3de61d00       1790 	movea	29,r29,r28
0000057c 3dce1c00       1791 	movea	28,r29,r25
00000580 3dde1800       1792 	movea	24,r29,r27
                        1793 --	    .bf
                        1794 .LDW73:
                        1795 --486: {
                        1796 --487:     SSBData_ST ssbvalue;
                        1797 --489:     COM_GetSignalValue_8(INDEX_COM_RS_VEHSPDAVGDRVNV, &pwr_NetVehSpdAvgDrvnV); /*车速有效性*/
00000584 20361b00       1798 	movea	27,zero,r6
00000588 3d3e3000       1799 	movea	48,r29,r7
                        1800 	jarl	_COM_GetSignalValue_8,lp
                        1800 <EXPANSION BEGIN>
                        1800 jarl22 _COM_GetSignalValue_8 , lp 
0000058c 80ff0000*      1800 <EXPANSION END>
                        1801 --490:     COM_GetSignalValue_16(INDEX_COM_RS_VEHSPDAVGDRVN, &pwr_NetVehSpdAvgDrvn);      /*车速*/
                        1802 --line490
                        1803 ..lin.D.3A.5CRenesas_Electronics.5CD1x_RGL.5Crgl_ghs_D1Lx_obj_V1.2E2.2E0.5Cvlib.5Capp.5Cgfx_apps.5Csimple_draw_d1l2.5Ctarget.5Cd1lx_mango_ghs.5Cobj.5Cpwr.78::
                        1804 .LDWlin78:
00000590 1b38           1805 	mov	r27,r7
00000592 20361a00       1806 	movea	26,zero,r6
                        1807 	jarl	_COM_GetSignalValue_16,lp
                        1807 <EXPANSION BEGIN>
                        1807 jarl22 _COM_GetSignalValue_16 , lp 
00000596 80ff0000*      1807 <EXPANSION END>
                        1808 --491:     COM_GetSignalValue_8(INDEX_COM_RS_BCMPWRMDHWDSTAV, &pwr_NetBCMPwrMdHwdStaV);
                        1809 --line491
                        1810 ..lin.D.3A.5CRenesas_Electronics.5CD1x_RGL.5Crgl_ghs_D1Lx_obj_V1.2E2.2E0.5Cvlib.5Capp.5Cgfx_apps.5Csimple_draw_d1l2.5Ctarget.5Cd1lx_mango_ghs.5Cobj.5Cpwr.79::
                        1811 .LDWlin79:
0000059a 1c38           1812 	mov	r28,r7
0000059c 0132           1813 	mov	1,r6
                        1814 	jarl	_COM_GetSignalValue_8,lp
                        1814 <EXPANSION BEGIN>
                        1814 jarl22 _COM_GetSignalValue_8 , lp 
0000059e 80ff0000*      1814 <EXPANSION END>
                        1815 --493:     if ((TRUE == pwr_busoff) || (TRUE == pwr_LostIcm))/*FLOW 4*/
                        1816 --line493
                        1817 ..lin.D.3A.5CRenesas_Electronics.5CD1x_RGL.5Crgl_ghs_D1Lx_obj_V1.2E2.2E0.5Cvlib.5Capp.5Cgfx_apps.5Csimple_draw_d1l2.5Ctarget.5Cd1lx_mango_ghs.5Cobj.5Cpwr.80::
                        1818 .LDWlin80:
000005a2 bd0f3100       1819 	ld.bu	49[r29],r1
000005a6 610a           1820 	cmp	1,r1
000005a8 d205*          1821 	be	.L1194

                                                                      Page 33
                                                              C:\Users\YINGAO~1\AppData\Local\Temp\gh_00007eo1.si
000005aa 9d0f2100       1822 	ld.bu	32[r29],r1
000005ae 610a           1823 	cmp	1,r1
000005b0 ca05*          1824 	bne	.L1193
                        1825 .L1194:
                        1826 --494:     {
                        1827 --495:         pwr_NetSysBPM = PWR_OFF;
                        1828 --line495
                        1829 ..lin.D.3A.5CRenesas_Electronics.5CD1x_RGL.5Crgl_ghs_D1Lx_obj_V1.2E2.2E0.5Cvlib.5Capp.5Cgfx_apps.5Csimple_draw_d1l2.5Ctarget.5Cd1lx_mango_ghs.5Cobj.5Cpwr.81::
                        1830 .LDWlin81:
000005b2 7d070100       1831 	st.w	zero,0[r29]
000005b6 9555*          1832 	br	.L1196
                        1833 .L1193:
                        1834 --496:     }
                        1835 --497:     else /*(BUS OFF = FALSE) && (FALSE == pwr_LostIcm )*/
                        1836 --498:     {
                        1837 --499:         if( (VALID == pwr_NetBCMPwrMdHwdStaV)/*FLOW 3*/
                        1838 --line499
                        1839 ..lin.D.3A.5CRenesas_Electronics.5CD1x_RGL.5Crgl_ghs_D1Lx_obj_V1.2E2.2E0.5Cvlib.5Capp.5Cgfx_apps.5Csimple_draw_d1l2.5Ctarget.5Cd1lx_mango_ghs.5Cobj.5Cpwr.82::
                        1840 .LDWlin82:
000005b8 bd0f1d00       1841 	ld.bu	29[r29],r1
000005bc e009           1842 	cmp	zero,r1
000005be 8a0d*          1843 	bne	.L1197
000005c0 9d0f1d00       1844 	ld.bu	28[r29],r1
000005c4 e009           1845 	cmp	zero,r1
000005c6 ca05*          1846 	bne	.L1197
                        1847 --500:             && (PWR_OFF == pwr_NetBCMPwrMdHwdSta))
                        1848 --501:         {
                        1849 --502:             pwr_NetSysBPM = PWR_OFF;
                        1850 --line502
                        1851 ..lin.D.3A.5CRenesas_Electronics.5CD1x_RGL.5Crgl_ghs_D1Lx_obj_V1.2E2.2E0.5Cvlib.5Capp.5Cgfx_apps.5Csimple_draw_d1l2.5Ctarget.5Cd1lx_mango_ghs.5Cobj.5Cpwr.83::
                        1852 .LDWlin83:
000005c8 7d070100       1853 	st.w	zero,0[r29]
000005cc e545*          1854 	br	.L1196
                        1855 .L1197:
                        1856 --503:         }
                        1857 --504:         else if ((VALID == pwr_NetBCMPwrMdHwdStaV)/*FLOW17-1*/
                        1858 --line504
                        1859 ..lin.D.3A.5CRenesas_Electronics.5CD1x_RGL.5Crgl_ghs_D1Lx_obj_V1.2E2.2E0.5Cvlib.5Capp.5Cgfx_apps.5Csimple_draw_d1l2.5Ctarget.5Cd1lx_mango_ghs.5Cobj.5Cpwr.84::
                        1860 .LDWlin84:
000005ce bd0f1d00       1861 	ld.bu	29[r29],r1
000005d2 e009           1862 	cmp	zero,r1
000005d4 9a0d*          1863 	bne	.L1201
000005d6 9d0f1d00       1864 	ld.bu	28[r29],r1
000005da 620a           1865 	cmp	2,r1
000005dc da05*          1866 	bne	.L1201
                        1867 --505:         && (PWR_RUN == pwr_NetBCMPwrMdHwdSta))
                        1868 --506:         {
                        1869 --507:             pwr_NetSysBPM = PWR_RUN;
                        1870 --line507
                        1871 ..lin.D.3A.5CRenesas_Electronics.5CD1x_RGL.5Crgl_ghs_D1Lx_obj_V1.2E2.2E0.5Cvlib.5Capp.5Cgfx_apps.5Csimple_draw_d1l2.5Ctarget.5Cd1lx_mango_ghs.5Cobj.5Cpwr.85::
                        1872 .LDWlin85:
000005de 020a           1873 	mov	2,r1
000005e0 7d0f0100       1874 	st.w	r1,0[r29]
000005e4 a53d*          1875 	br	.L1196
                        1876 .L1201:
                        1877 --508:         }
                        1878 --509:         else if (((TRUE == pwr_LostIcm) || (INVALID == pwr_NetBCMPwrMdHwdStaV))/*FLOW 17-2 NEED CD CONFIRM*/
                        1879 --line509
                        1880 ..lin.D.3A.5CRenesas_Electronics.5CD1x_RGL.5Crgl_ghs_D1Lx_obj_V1.2E2.2E0.5Cvlib.5Capp.5Cgfx_apps.5Csimple_draw_d1l2.5Ctarget.5Cd1lx_mango_ghs.5Cobj.5Cpwr.86::
                        1881 .LDWlin86:
000005e6 9d0f2100       1882 	ld.bu	32[r29],r1

                                                                      Page 34
                                                              C:\Users\YINGAO~1\AppData\Local\Temp\gh_00007eo1.si
000005ea 610a           1883 	cmp	1,r1
000005ec d205*          1884 	be	.L1208
000005ee bd0f1d00       1885 	ld.bu	29[r29],r1
000005f2 610a           1886 	cmp	1,r1
000005f4 ba1d*          1887 	bne	.L1205
                        1888 .L1208:
000005f6 bd0f1f00       1889 	ld.bu	31[r29],r1
000005fa e009           1890 	cmp	zero,r1
000005fc f215*          1891 	be	.L1205
000005fe 9d0f3100       1892 	ld.bu	48[r29],r1
00000602 e009           1893 	cmp	zero,r1
00000604 ba15*          1894 	bne	.L1205
00000606 9d0f2900       1895 	ld.bu	40[r29],r1
0000060a fd771900       1896 	ld.hu	24[r29],r14
0000060e e171           1897 	cmp	r1,r14
00000610 d10d*          1898 	bl	.L1205
00000612 9d0f3300       1899 	ld.bu	50[r29],r1
00000616 e009           1900 	cmp	zero,r1
00000618 9a0d*          1901 	bne	.L1205
0000061a bd0f3300       1902 	ld.bu	51[r29],r1
0000061e e009           1903 	cmp	zero,r1
00000620 da05*          1904 	bne	.L1205
                        1905 --510:            && (FALSE != pwr_NetEnRunA)
                        1906 --511:            && ((VALID == pwr_NetVehSpdAvgDrvnV)
                        1907 --512:            && (pwr_NetVehSpdAvgDrvn >= gloVehMovingThresholdPrm)
                        1908 --513:            && (FALSE == pwr_lostSCS)
                        1909 --514:            && (FALSE == pwr_lostECM)))
                        1910 --515:         {
                        1911 --516:             pwr_NetSysBPM = PWR_RUN;
                        1912 --line516
                        1913 ..lin.D.3A.5CRenesas_Electronics.5CD1x_RGL.5Crgl_ghs_D1Lx_obj_V1.2E2.2E0.5Cvlib.5Capp.5Cgfx_apps.5Csimple_draw_d1l2.5Ctarget.5Cd1lx_mango_ghs.5Cobj.5Cpwr.87::
                        1914 .LDWlin87:
00000622 020a           1915 	mov	2,r1
00000624 7d0f0100       1916 	st.w	r1,0[r29]
00000628 851d*          1917 	br	.L1196
                        1918 .L1205:
                        1919 --517:         }
                        1920 --518:         else if (
                        1921 --line518
                        1922 ..lin.D.3A.5CRenesas_Electronics.5CD1x_RGL.5Crgl_ghs_D1Lx_obj_V1.2E2.2E0.5Cvlib.5Capp.5Cgfx_apps.5Csimple_draw_d1l2.5Ctarget.5Cd1lx_mango_ghs.5Cobj.5Cpwr.88::
                        1923 .LDWlin88:
0000062a 9d0f2100       1924 	ld.bu	32[r29],r1
0000062e e009           1925 	cmp	zero,r1
00000630 ca15*          1926 	bne	.L1196
00000632 bd0f3100       1927 	ld.bu	49[r29],r1
00000636 e009           1928 	cmp	zero,r1
00000638 8a15*          1929 	bne	.L1196
0000063a bd0f1d00       1930 	ld.bu	29[r29],r1
0000063e e009           1931 	cmp	zero,r1
00000640 ca0d*          1932 	bne	.L1196
00000642 9d0f1d00       1933 	ld.bu	28[r29],r1
00000646 630a           1934 	cmp	3,r1
00000648 8a0d*          1935 	bne	.L1196
0000064a 9d0f2b00       1936 	ld.bu	42[r29],r1
0000064e 610a           1937 	cmp	1,r1
00000650 ca05*          1938 	bne	.L1196
                        1939 --519:         (FALSE == pwr_LostIcm) /*16*/
                        1940 --520:         && (FALSE == pwr_busoff)
                        1941 --521:         &&(VALID == pwr_NetBCMPwrMdHwdStaV)/*FLOW 16*/
                        1942 --522:         && (PWR_CRANK == pwr_NetBCMPwrMdHwdSta)
                        1943 --523:         && (NORMAL_MODE == pmOperationalMode))

                                                                      Page 35
                                                              C:\Users\YINGAO~1\AppData\Local\Temp\gh_00007eo1.si
                        1944 --524:         {
                        1945 --525:             pwr_NetSysBPM = PWR_CRANK;
                        1946 --line525
                        1947 ..lin.D.3A.5CRenesas_Electronics.5CD1x_RGL.5Crgl_ghs_D1Lx_obj_V1.2E2.2E0.5Cvlib.5Capp.5Cgfx_apps.5Csimple_draw_d1l2.5Ctarget.5Cd1lx_mango_ghs.5Cobj.5Cpwr.89::
                        1948 .LDWlin89:
00000652 030a           1949 	mov	3,r1
00000654 7d0f0100       1950 	st.w	r1,0[r29]
                        1951 .L1196:
                        1952 --526:         }
                        1953 --527:         else
                        1954 --528:         {
                        1955 --529:         }
                        1956 --530:     }
                        1957 --531: }
00000658 0000           1958 	nop
                        1959 --	    .ef
                        1960 .LDW83:
0000065a 4406ff70       1961 	dispose	2,{r25,r26,r27,r28,r29,r31},[lp]
                        1962 	.type	_pwr_AccModeTrans,@function
                        1963 	.size	_pwr_AccModeTrans,.-_pwr_AccModeTrans
                        1964 	.type	_pwr_AccModeTrans..D.3A.5CRenesas_Electronics.5CD1x_RGL.5Crgl_ghs_D1Lx_obj_V1.2E2.2E0.5Cvlib.5Capp.5Cgfx_apps.5Csimple_draw_d1l2.5Ctarget.5Cd1lx_mango_ghs.5Cobj.5Cpwr.,@function
                        1965 	.size	_pwr_AccModeTrans..D.3A.5CRenesas_Electronics.5CD1x_RGL.5Crgl_ghs_D1Lx_obj_V1.2E2.2E0.5Cvlib.5Capp.5Cgfx_apps.5Csimple_draw_d1l2.5Ctarget.5Cd1lx_mango_ghs.5Cobj.5Cpwr.,.-_pwr_AccModeTrans..D.3A.5CRenesas_Electronics.5CD1x_RGL.5Crgl_ghs_D1Lx_obj_V1.2E2.2E0.5Cvlib.5Capp.5Cgfx_apps.5Csimple_draw_d1l2.5Ctarget.5Cd1lx_mango_ghs.5Cobj.5Cpwr.
                        1966 	.align	2
                        1967 .LDW93:
                        1968 
                        1969 	.data
                        1970 	.text
                        1971 
                        1972 
                        1973 --533: /***************************************************
                        1974 --534: * Function: pwr_RunModeTrans
                        1975 --535: * Description: the mode of power from run to other
                        1976 --536: * Parameters:  none
                        1977 --537: * Returns: none
                        1978 --538: * $Create & Verlog:$
                        1979 --539: * Author:Xueping.Chen  Date:2016-12-09   Version:V1.0
                        1980 --540: ****************************************************/
                        1981 --541: static void pwr_RunModeTrans(void)
                        1982 	.align	2
                        1983 	.align	2
                        1984 	.global	_pwr_RunModeTrans..D.3A.5CRenesas_Electronics.5CD1x_RGL.5Crgl_ghs_D1Lx_obj_V1.2E2.2E0.5Cvlib.5Capp.5Cgfx_apps.5Csimple_draw_d1l2.5Ctarget.5Cd1lx_mango_ghs.5Cobj.5Cpwr.
                        1985 _pwr_RunModeTrans..D.3A.5CRenesas_Electronics.5CD1x_RGL.5Crgl_ghs_D1Lx_obj_V1.2E2.2E0.5Cvlib.5Capp.5Cgfx_apps.5Csimple_draw_d1l2.5Ctarget.5Cd1lx_mango_ghs.5Cobj.5Cpwr.:
                        1986 _pwr_RunModeTrans:
0000065e 8807e170       1987 	prepare	{r25,r26,r27,r28,r29,r31},4
00000662 3d0600000000*  1988 	mov	_pwr_NetSysBPM,r29
00000668 1dd8           1989 	mov	r29,r27
0000066a 3dd62a00       1990 	movea	42,r29,r26
0000066e 3dce3100       1991 	movea	49,r29,r25
                        1992 --	    .bf
                        1993 .LDW04:
                        1994 --542: {
                        1995 --543:     SSBData_ST ssbvalue;
                        1996 --544:     U8 res;
                        1997 --546:     COM_GetSignalValue_BOOL(INDEX_COM_RS_BCMEMGCSP, &pwr_NetBCMEmgcSp);
00000672 0732           1998 	mov	7,r6
00000674 3d3e1e00       1999 	movea	30,r29,r7
                        2000 	jarl	_COM_GetSignalValue_BOOL,lp
                        2000 <EXPANSION BEGIN>
                        2000 jarl22 _COM_GetSignalValue_BOOL , lp 
00000678 80ff0000*      2000 <EXPANSION END>
                        2001 --548:     res = SSB_GetSSBValue(&ssbvalue);

                                                                      Page 36
                                                              C:\Users\YINGAO~1\AppData\Local\Temp\gh_00007eo1.si
                        2002 --line548
                        2003 ..lin.D.3A.5CRenesas_Electronics.5CD1x_RGL.5Crgl_ghs_D1Lx_obj_V1.2E2.2E0.5Cvlib.5Capp.5Cgfx_apps.5Csimple_draw_d1l2.5Ctarget.5Cd1lx_mango_ghs.5Cobj.5Cpwr.90::
                        2004 .LDWlin90:
0000067c 23360200       2005 	movea	2,sp,r6
                        2006 	jarl	_SSB_GetSSBValue,lp
                        2006 <EXPANSION BEGIN>
                        2006 jarl22 _SSB_GetSSBValue , lp 
00000680 80ff0000*      2006 <EXPANSION END>
00000684 0ae0           2007 	mov	r10,r28
                        2008 --549:     if ((MANUFACTURE_MODE == pmOperationalMode)/*FLOW 19*/
                        2009 --line549
                        2010 ..lin.D.3A.5CRenesas_Electronics.5CD1x_RGL.5Crgl_ghs_D1Lx_obj_V1.2E2.2E0.5Cvlib.5Capp.5Cgfx_apps.5Csimple_draw_d1l2.5Ctarget.5Cd1lx_mango_ghs.5Cobj.5Cpwr.91::
                        2011 .LDWlin91:
00000686 9d0f2b00       2012 	ld.bu	42[r29],r1
0000068a e009           2013 	cmp	zero,r1
0000068c ba0d*          2014 	bne	.L1383
0000068e bd0f2100       2015 	ld.bu	33[r29],r1
00000692 610a           2016 	cmp	1,r1
00000694 fa05*          2017 	bne	.L1383
                        2018 --550:         && (TRUE== pwr_SsbLongPressedFlag))
                        2019 --551:     {
                        2020 --552:         pwr_SsbLongPressedFlag = FALSE;
                        2021 --line552
                        2022 ..lin.D.3A.5CRenesas_Electronics.5CD1x_RGL.5Crgl_ghs_D1Lx_obj_V1.2E2.2E0.5Cvlib.5Capp.5Cgfx_apps.5Csimple_draw_d1l2.5Ctarget.5Cd1lx_mango_ghs.5Cobj.5Cpwr.92::
                        2023 .LDWlin92:
00000696 5d072100       2024 	st.b	zero,33[r29]
                        2025 --553:         pwr_NetSysBPM = PWR_OFF;
0000069a 7d070100       2026 	st.w	zero,0[r29]
0000069e 80072c01*      2027 	br	.L1386
                        2028 .L1383:
                        2029 --554:     }
                        2030 --555:     else if ((FALSE == pwr_VStpFlag)/*FLOW 11 +8*/
                        2031 --line555
                        2032 ..lin.D.3A.5CRenesas_Electronics.5CD1x_RGL.5Crgl_ghs_D1Lx_obj_V1.2E2.2E0.5Cvlib.5Capp.5Cgfx_apps.5Csimple_draw_d1l2.5Ctarget.5Cd1lx_mango_ghs.5Cobj.5Cpwr.93::
                        2033 .LDWlin93:
000006a2 9d0f2300       2034 	ld.bu	34[r29],r1
000006a6 e009           2035 	cmp	zero,r1
000006a8 fa0d*          2036 	bne	.L1387
000006aa 9d0f2b00       2037 	ld.bu	42[r29],r1
000006ae 610a           2038 	cmp	1,r1
000006b0 ba0d*          2039 	bne	.L1387
000006b2 bd0f2100       2040 	ld.bu	33[r29],r1
000006b6 610a           2041 	cmp	1,r1
000006b8 fa05*          2042 	bne	.L1387
                        2043 --556:         && (NORMAL_MODE == pmOperationalMode)
                        2044 --557:         && (TRUE== pwr_SsbLongPressedFlag))
                        2045 --558:     {
                        2046 --559:         pwr_SsbLongPressedFlag = FALSE;
                        2047 --line559
                        2048 ..lin.D.3A.5CRenesas_Electronics.5CD1x_RGL.5Crgl_ghs_D1Lx_obj_V1.2E2.2E0.5Cvlib.5Capp.5Cgfx_apps.5Csimple_draw_d1l2.5Ctarget.5Cd1lx_mango_ghs.5Cobj.5Cpwr.94::
                        2049 .LDWlin94:
000006ba 5d072100       2050 	st.b	zero,33[r29]
                        2051 --560:         pwr_NetSysBPM = PWR_OFF;
000006be 7d070100       2052 	st.w	zero,0[r29]
000006c2 80070801*      2053 	br	.L1386
                        2054 .L1387:
                        2055 --561:     }
                        2056 --562:     else if ((FALSE == pwr_LostIcm)/*FLOW 10 +8*/
                        2057 --line562
                        2058 ..lin.D.3A.5CRenesas_Electronics.5CD1x_RGL.5Crgl_ghs_D1Lx_obj_V1.2E2.2E0.5Cvlib.5Capp.5Cgfx_apps.5Csimple_draw_d1l2.5Ctarget.5Cd1lx_mango_ghs.5Cobj.5Cpwr.95::
                        2059 .LDWlin95:

                                                                      Page 37
                                                              C:\Users\YINGAO~1\AppData\Local\Temp\gh_00007eo1.si
000006c6 9d0f2100       2060 	ld.bu	32[r29],r1
000006ca e009           2061 	cmp	zero,r1
000006cc ca15*          2062 	bne	.L1392
000006ce bd0f3100       2063 	ld.bu	49[r29],r1
000006d2 e009           2064 	cmp	zero,r1
000006d4 8a15*          2065 	bne	.L1392
000006d6 9d0f2300       2066 	ld.bu	34[r29],r1
000006da e009           2067 	cmp	zero,r1
000006dc ca0d*          2068 	bne	.L1392
000006de 9d0f2b00       2069 	ld.bu	42[r29],r1
000006e2 610a           2070 	cmp	1,r1
000006e4 8a0d*          2071 	bne	.L1392
000006e6 9d0f1f00       2072 	ld.bu	30[r29],r1
000006ea e009           2073 	cmp	zero,r1
000006ec c205*          2074 	be	.L1392
                        2075 --563:         && (FALSE == pwr_busoff)
                        2076 --564:         && (FALSE == pwr_VStpFlag)
                        2077 --565:         && (NORMAL_MODE == pmOperationalMode)
                        2078 --566:         && (FALSE != pwr_NetBCMEmgcSp))
                        2079 --567:     {
                        2080 --568:         pwr_NetSysBPM = PWR_OFF;
                        2081 --line568
                        2082 ..lin.D.3A.5CRenesas_Electronics.5CD1x_RGL.5Crgl_ghs_D1Lx_obj_V1.2E2.2E0.5Cvlib.5Capp.5Cgfx_apps.5Csimple_draw_d1l2.5Ctarget.5Cd1lx_mango_ghs.5Cobj.5Cpwr.96::
                        2083 .LDWlin96:
000006ee 7d070100       2084 	st.w	zero,0[r29]
000006f2 c56d*          2085 	br	.L1386
                        2086 .L1392:
                        2087 --569:     }
                        2088 --570:     else if ((NORMAL_MODE == pmOperationalMode)/*FLOW 12+20 CONFLICT CD CONFIRM*/
                        2089 --line570
                        2090 ..lin.D.3A.5CRenesas_Electronics.5CD1x_RGL.5Crgl_ghs_D1Lx_obj_V1.2E2.2E0.5Cvlib.5Capp.5Cgfx_apps.5Csimple_draw_d1l2.5Ctarget.5Cd1lx_mango_ghs.5Cobj.5Cpwr.97::
                        2091 .LDWlin97:
000006f4 9d0f2b00       2092 	ld.bu	42[r29],r1
000006f8 610a           2093 	cmp	1,r1
000006fa aa1d*          2094 	bne	.L1399
000006fc bd0f3100       2095 	ld.bu	49[r29],r1
00000700 e009           2096 	cmp	zero,r1
00000702 ea15*          2097 	bne	.L1399
00000704 9d0f2100       2098 	ld.bu	32[r29],r1
00000708 610a           2099 	cmp	1,r1
0000070a aa15*          2100 	bne	.L1399
0000070c 9d0f2300       2101 	ld.bu	34[r29],r1
00000710 610a           2102 	cmp	1,r1
00000712 ea0d*          2103 	bne	.L1399
00000714 61e2           2104 	cmp	1,r28
00000716 ca0d*          2105 	bne	.L1399
00000718 830f0300       2106 	ld.bu	2[sp],r1
0000071c 610a           2107 	cmp	1,r1
0000071e 8a0d*          2108 	bne	.L1399
00000720 a30f0300       2109 	ld.bu	3[sp],r1
00000724 e009           2110 	cmp	zero,r1
00000726 ca05*          2111 	bne	.L1399
                        2112 --571:         && (FALSE == pwr_busoff)
                        2113 --572:         && (TRUE == pwr_LostIcm)
                        2114 --573:         && (TRUE == pwr_VStpFlag)
                        2115 --574:         && ((RET_OK == res)
                        2116 --575:         && (ACTIVE == ssbvalue.status)
                        2117 --576:         && (VALID== ssbvalue.valid)))
                        2118 --577:     {
                        2119 --578:         pwr_NetSysBPM = PWR_OFF;
                        2120 --line578

                                                                      Page 38
                                                              C:\Users\YINGAO~1\AppData\Local\Temp\gh_00007eo1.si
                        2121 ..lin.D.3A.5CRenesas_Electronics.5CD1x_RGL.5Crgl_ghs_D1Lx_obj_V1.2E2.2E0.5Cvlib.5Capp.5Cgfx_apps.5Csimple_draw_d1l2.5Ctarget.5Cd1lx_mango_ghs.5Cobj.5Cpwr.98::
                        2122 .LDWlin98:
00000728 7d070100       2123 	st.w	zero,0[r29]
0000072c f54d*          2124 	br	.L1386
                        2125 .L1399:
                        2126 --579:     }
                        2127 --580:     else if ((FALSE == pwr_LostIcm)/*FLOW 15*/
                        2128 --line580
                        2129 ..lin.D.3A.5CRenesas_Electronics.5CD1x_RGL.5Crgl_ghs_D1Lx_obj_V1.2E2.2E0.5Cvlib.5Capp.5Cgfx_apps.5Csimple_draw_d1l2.5Ctarget.5Cd1lx_mango_ghs.5Cobj.5Cpwr.99::
                        2130 .LDWlin99:
0000072e 9d0f2100       2131 	ld.bu	32[r29],r1
00000732 e009           2132 	cmp	zero,r1
00000734 8a1d*          2133 	bne	.L1408
00000736 bd0f3100       2134 	ld.bu	49[r29],r1
0000073a e009           2135 	cmp	zero,r1
0000073c ca15*          2136 	bne	.L1408
0000073e 9d0f2b00       2137 	ld.bu	42[r29],r1
00000742 610a           2138 	cmp	1,r1
00000744 8a15*          2139 	bne	.L1408
00000746 9d0f2300       2140 	ld.bu	34[r29],r1
0000074a 610a           2141 	cmp	1,r1
0000074c ca0d*          2142 	bne	.L1408
0000074e 9d0f1d00       2143 	ld.bu	28[r29],r1
00000752 e009           2144 	cmp	zero,r1
00000754 8a0d*          2145 	bne	.L1408
00000756 bd0f1d00       2146 	ld.bu	29[r29],r1
0000075a e009           2147 	cmp	zero,r1
0000075c ca05*          2148 	bne	.L1408
                        2149 --581:         && (FALSE == pwr_busoff)
                        2150 --582:         && (NORMAL_MODE == pmOperationalMode)
                        2151 --583:         && (TRUE == pwr_VStpFlag)
                        2152 --584:         && (PWR_OFF == pwr_NetBCMPwrMdHwdSta)
                        2153 --585:         && (VALID == pwr_NetBCMPwrMdHwdStaV))
                        2154 --586:     {
                        2155 --587:         pwr_NetSysBPM = PWR_OFF;
                        2156 --line587
                        2157 ..lin.D.3A.5CRenesas_Electronics.5CD1x_RGL.5Crgl_ghs_D1Lx_obj_V1.2E2.2E0.5Cvlib.5Capp.5Cgfx_apps.5Csimple_draw_d1l2.5Ctarget.5Cd1lx_mango_ghs.5Cobj.5Cpwr.100::
                        2158 .LDWlin100:
0000075e 7d070100       2159 	st.w	zero,0[r29]
00000762 c535*          2160 	br	.L1386
                        2161 .L1408:
                        2162 --588:     }
                        2163 --589:     else if ((FALSE == pwr_LostIcm)/*FLOW 5*/
                        2164 --line589
                        2165 ..lin.D.3A.5CRenesas_Electronics.5CD1x_RGL.5Crgl_ghs_D1Lx_obj_V1.2E2.2E0.5Cvlib.5Capp.5Cgfx_apps.5Csimple_draw_d1l2.5Ctarget.5Cd1lx_mango_ghs.5Cobj.5Cpwr.101::
                        2166 .LDWlin101:
00000764 9d0f2100       2167 	ld.bu	32[r29],r1
00000768 e009           2168 	cmp	zero,r1
0000076a 9a1d*          2169 	bne	.L1416
0000076c bd0f3100       2170 	ld.bu	49[r29],r1
00000770 e009           2171 	cmp	zero,r1
00000772 da15*          2172 	bne	.L1416
00000774 9d0f1d00       2173 	ld.bu	28[r29],r1
00000778 610a           2174 	cmp	1,r1
0000077a 9a15*          2175 	bne	.L1416
0000077c bd0f1d00       2176 	ld.bu	29[r29],r1
00000780 e009           2177 	cmp	zero,r1
00000782 da0d*          2178 	bne	.L1416
00000784 9d0f2300       2179 	ld.bu	34[r29],r1
00000788 610a           2180 	cmp	1,r1
0000078a 9a0d*          2181 	bne	.L1416

                                                                      Page 39
                                                              C:\Users\YINGAO~1\AppData\Local\Temp\gh_00007eo1.si
0000078c 9d0f2b00       2182 	ld.bu	42[r29],r1
00000790 610a           2183 	cmp	1,r1
00000792 da05*          2184 	bne	.L1416
                        2185 --590:         && (FALSE == pwr_busoff)
                        2186 --591:         && (PWR_ACC == pwr_NetBCMPwrMdHwdSta)
                        2187 --592:         && (VALID == pwr_NetBCMPwrMdHwdStaV)
                        2188 --593:         && (TRUE == pwr_VStpFlag)
                        2189 --594:         && (NORMAL_MODE == pmOperationalMode))
                        2190 --595:     {
                        2191 --596:         pwr_NetSysBPM = PWR_ACC;
                        2192 --line596
                        2193 ..lin.D.3A.5CRenesas_Electronics.5CD1x_RGL.5Crgl_ghs_D1Lx_obj_V1.2E2.2E0.5Cvlib.5Capp.5Cgfx_apps.5Csimple_draw_d1l2.5Ctarget.5Cd1lx_mango_ghs.5Cobj.5Cpwr.102::
                        2194 .LDWlin102:
00000794 010a           2195 	mov	1,r1
00000796 7d0f0100       2196 	st.w	r1,0[r29]
0000079a 851d*          2197 	br	.L1386
                        2198 .L1416:
                        2199 --597:     }
                        2200 --598:     else if ((FALSE == pwr_LostIcm) /*FLOW 16*/
                        2201 --line598
                        2202 ..lin.D.3A.5CRenesas_Electronics.5CD1x_RGL.5Crgl_ghs_D1Lx_obj_V1.2E2.2E0.5Cvlib.5Capp.5Cgfx_apps.5Csimple_draw_d1l2.5Ctarget.5Cd1lx_mango_ghs.5Cobj.5Cpwr.103::
                        2203 .LDWlin103:
0000079c 9d0f2100       2204 	ld.bu	32[r29],r1
000007a0 e009           2205 	cmp	zero,r1
000007a2 ca15*          2206 	bne	.L1386
000007a4 bd0f3100       2207 	ld.bu	49[r29],r1
000007a8 e009           2208 	cmp	zero,r1
000007aa 8a15*          2209 	bne	.L1386
000007ac 9d0f1d00       2210 	ld.bu	28[r29],r1
000007b0 630a           2211 	cmp	3,r1
000007b2 ca0d*          2212 	bne	.L1386
000007b4 bd0f1d00       2213 	ld.bu	29[r29],r1
000007b8 e009           2214 	cmp	zero,r1
000007ba 8a0d*          2215 	bne	.L1386
000007bc 9d0f2b00       2216 	ld.bu	42[r29],r1
000007c0 610a           2217 	cmp	1,r1
000007c2 ca05*          2218 	bne	.L1386
                        2219 --599:         && (FALSE == pwr_busoff)
                        2220 --600:         && (PWR_CRANK == pwr_NetBCMPwrMdHwdSta)
                        2221 --601:         && (VALID == pwr_NetBCMPwrMdHwdStaV)
                        2222 --602:         && (NORMAL_MODE == pmOperationalMode))
                        2223 --603:     {
                        2224 --604:         pwr_NetSysBPM = PWR_CRANK;
                        2225 --line604
                        2226 ..lin.D.3A.5CRenesas_Electronics.5CD1x_RGL.5Crgl_ghs_D1Lx_obj_V1.2E2.2E0.5Cvlib.5Capp.5Cgfx_apps.5Csimple_draw_d1l2.5Ctarget.5Cd1lx_mango_ghs.5Cobj.5Cpwr.104::
                        2227 .LDWlin104:
000007c4 030a           2228 	mov	3,r1
000007c6 7d0f0100       2229 	st.w	r1,0[r29]
                        2230 .L1386:
                        2231 --605:     }
                        2232 --606:     else
                        2233 --607:     {
                        2234 --608:     }
                        2235 --609: }
000007ca 0000           2236 	nop
                        2237 --	    .ef
                        2238 .LDW14:
000007cc 4806ff70       2239 	dispose	4,{r25,r26,r27,r28,r29,r31},[lp]
                        2240 	.type	_pwr_RunModeTrans,@function
                        2241 	.size	_pwr_RunModeTrans,.-_pwr_RunModeTrans
                        2242 	.type	_pwr_RunModeTrans..D.3A.5CRenesas_Electronics.5CD1x_RGL.5Crgl_ghs_D1Lx_obj_V1.2E2.2E0.5Cvlib.5Capp.5Cgfx_apps.5Csimple_draw_d1l2.5Ctarget.5Cd1lx_mango_ghs.5Cobj.5Cpwr.,@function

                                                                      Page 40
                                                              C:\Users\YINGAO~1\AppData\Local\Temp\gh_00007eo1.si
                        2243 	.size	_pwr_RunModeTrans..D.3A.5CRenesas_Electronics.5CD1x_RGL.5Crgl_ghs_D1Lx_obj_V1.2E2.2E0.5Cvlib.5Capp.5Cgfx_apps.5Csimple_draw_d1l2.5Ctarget.5Cd1lx_mango_ghs.5Cobj.5Cpwr.,.-_pwr_RunModeTrans..D.3A.5CRenesas_Electronics.5CD1x_RGL.5Crgl_ghs_D1Lx_obj_V1.2E2.2E0.5Cvlib.5Capp.5Cgfx_apps.5Csimple_draw_d1l2.5Ctarget.5Cd1lx_mango_ghs.5Cobj.5Cpwr.
                        2244 	.align	2
                        2245 .LDW24:
                        2246 --_ssbvalue	2[sp]	local
                        2247 --_res	r28	local
                        2248 
                        2249 	.data
                        2250 	.text
                        2251 
                        2252 
                        2253 --611: /***************************************************
                        2254 --612: * Function: pwr_CrankModeTrans
                        2255 --613: * Description: the mode of power from crank to other
                        2256 --614: * Parameters:  none
                        2257 --615: * Returns: none
                        2258 --616: * $Create & Verlog:$
                        2259 --617: * Author:Xueping.Chen  Date:2016-12-09   Version:V1.0
                        2260 --618: ****************************************************/
                        2261 --619: static void pwr_CrankModeTrans(void)
                        2262 	.align	2
                        2263 	.align	2
                        2264 	.global	_pwr_CrankModeTrans..D.3A.5CRenesas_Electronics.5CD1x_RGL.5Crgl_ghs_D1Lx_obj_V1.2E2.2E0.5Cvlib.5Capp.5Cgfx_apps.5Csimple_draw_d1l2.5Ctarget.5Cd1lx_mango_ghs.5Cobj.5Cpwr.
                        2265 _pwr_CrankModeTrans..D.3A.5CRenesas_Electronics.5CD1x_RGL.5Crgl_ghs_D1Lx_obj_V1.2E2.2E0.5Cvlib.5Capp.5Cgfx_apps.5Csimple_draw_d1l2.5Ctarget.5Cd1lx_mango_ghs.5Cobj.5Cpwr.:
                        2266 _pwr_CrankModeTrans:
000007d0 8407e170       2267 	prepare	{r25,r26,r27,r28,r29,r31},2
000007d4 3d0600000000*  2268 	mov	_pwr_NetSysBPM,r29
000007da 1dc8           2269 	mov	r29,r25
000007dc 3dde1800       2270 	movea	24,r29,r27
000007e0 3dd63000       2271 	movea	48,r29,r26
                        2272 --	    .bf
                        2273 .LDW34:
                        2274 --620: {
                        2275 --621:     SSBData_ST ssbvalue;
                        2276 --622:     U8 res = RET_FAIL;
000007e4 00e2           2277 	mov	0,r28
                        2278 --624:     COM_GetSignalValue_8(INDEX_COM_RS_VEHSPDAVGDRVNV, &pwr_NetVehSpdAvgDrvnV); /*车速有效性*/
000007e6 1a38           2279 	mov	r26,r7
000007e8 20361b00       2280 	movea	27,zero,r6
                        2281 	jarl	_COM_GetSignalValue_8,lp
                        2281 <EXPANSION BEGIN>
                        2281 jarl22 _COM_GetSignalValue_8 , lp 
000007ec 80ff0000*      2281 <EXPANSION END>
                        2282 --625:     COM_GetSignalValue_16(INDEX_COM_RS_VEHSPDAVGDRVN, &pwr_NetVehSpdAvgDrvn);      /*车速*/
                        2283 --line625
                        2284 ..lin.D.3A.5CRenesas_Electronics.5CD1x_RGL.5Crgl_ghs_D1Lx_obj_V1.2E2.2E0.5Cvlib.5Capp.5Cgfx_apps.5Csimple_draw_d1l2.5Ctarget.5Cd1lx_mango_ghs.5Cobj.5Cpwr.105::
                        2285 .LDWlin105:
000007f0 1b38           2286 	mov	r27,r7
000007f2 20361a00       2287 	movea	26,zero,r6
                        2288 	jarl	_COM_GetSignalValue_16,lp
                        2288 <EXPANSION BEGIN>
                        2288 jarl22 _COM_GetSignalValue_16 , lp 
000007f6 80ff0000*      2288 <EXPANSION END>
                        2289 --626:  
                        2290 --628:     res = SSB_GetSSBValue(&ssbvalue);
                        2291 --line628
                        2292 ..lin.D.3A.5CRenesas_Electronics.5CD1x_RGL.5Crgl_ghs_D1Lx_obj_V1.2E2.2E0.5Cvlib.5Capp.5Cgfx_apps.5Csimple_draw_d1l2.5Ctarget.5Cd1lx_mango_ghs.5Cobj.5Cpwr.106::
                        2293 .LDWlin106:
000007fa 23360200       2294 	movea	2,sp,r6
                        2295 	jarl	_SSB_GetSSBValue,lp
                        2295 <EXPANSION BEGIN>
                        2295 jarl22 _SSB_GetSSBValue , lp 

                                                                      Page 41
                                                              C:\Users\YINGAO~1\AppData\Local\Temp\gh_00007eo1.si
000007fe 80ff0000*      2295 <EXPANSION END>
00000802 0ae0           2296 	mov	r10,r28
                        2297 --629:      if ((VALID == pwr_NetBCMPwrMdHwdStaV)/*FLOW17-1*/
                        2298 --line629
                        2299 ..lin.D.3A.5CRenesas_Electronics.5CD1x_RGL.5Crgl_ghs_D1Lx_obj_V1.2E2.2E0.5Cvlib.5Capp.5Cgfx_apps.5Csimple_draw_d1l2.5Ctarget.5Cd1lx_mango_ghs.5Cobj.5Cpwr.107::
                        2300 .LDWlin107:
00000804 bd0f1d00       2301 	ld.bu	29[r29],r1
00000808 e009           2302 	cmp	zero,r1
0000080a 9a0d*          2303 	bne	.L1686
0000080c 9d0f1d00       2304 	ld.bu	28[r29],r1
00000810 620a           2305 	cmp	2,r1
00000812 da05*          2306 	bne	.L1686
                        2307 --630:         && (PWR_RUN == pwr_NetBCMPwrMdHwdSta))
                        2308 --631:         {
                        2309 --632:             pwr_NetSysBPM = PWR_RUN;
                        2310 --line632
                        2311 ..lin.D.3A.5CRenesas_Electronics.5CD1x_RGL.5Crgl_ghs_D1Lx_obj_V1.2E2.2E0.5Cvlib.5Capp.5Cgfx_apps.5Csimple_draw_d1l2.5Ctarget.5Cd1lx_mango_ghs.5Cobj.5Cpwr.108::
                        2312 .LDWlin108:
00000814 020a           2313 	mov	2,r1
00000816 7d0f0100       2314 	st.w	r1,0[r29]
0000081a 8535*          2315 	br	.L1689
                        2316 .L1686:
                        2317 --633:         }
                        2318 --634:         else if (((TRUE == pwr_LostIcm) || (INVALID == pwr_NetBCMPwrMdHwdStaV))/*FLOW 17-2 NEED CD CONFIRM*/
                        2319 --line634
                        2320 ..lin.D.3A.5CRenesas_Electronics.5CD1x_RGL.5Crgl_ghs_D1Lx_obj_V1.2E2.2E0.5Cvlib.5Capp.5Cgfx_apps.5Csimple_draw_d1l2.5Ctarget.5Cd1lx_mango_ghs.5Cobj.5Cpwr.109::
                        2321 .LDWlin109:
0000081c 9d0f2100       2322 	ld.bu	32[r29],r1
00000820 610a           2323 	cmp	1,r1
00000822 d205*          2324 	be	.L1693
00000824 bd0f1d00       2325 	ld.bu	29[r29],r1
00000828 610a           2326 	cmp	1,r1
0000082a ba1d*          2327 	bne	.L1690
                        2328 .L1693:
0000082c bd0f1f00       2329 	ld.bu	31[r29],r1
00000830 e009           2330 	cmp	zero,r1
00000832 f215*          2331 	be	.L1690
00000834 9d0f3100       2332 	ld.bu	48[r29],r1
00000838 e009           2333 	cmp	zero,r1
0000083a ba15*          2334 	bne	.L1690
0000083c 9d0f2900       2335 	ld.bu	40[r29],r1
00000840 fd771900       2336 	ld.hu	24[r29],r14
00000844 e171           2337 	cmp	r1,r14
00000846 d10d*          2338 	bl	.L1690
00000848 9d0f3300       2339 	ld.bu	50[r29],r1
0000084c e009           2340 	cmp	zero,r1
0000084e 9a0d*          2341 	bne	.L1690
00000850 bd0f3300       2342 	ld.bu	51[r29],r1
00000854 e009           2343 	cmp	zero,r1
00000856 da05*          2344 	bne	.L1690
                        2345 --635:            && (FALSE != pwr_NetEnRunA)
                        2346 --636:            && ((VALID == pwr_NetVehSpdAvgDrvnV)
                        2347 --637:            && (pwr_NetVehSpdAvgDrvn >= gloVehMovingThresholdPrm)
                        2348 --638:            && (FALSE == pwr_lostSCS)
                        2349 --639:            && (FALSE == pwr_lostECM)))
                        2350 --640:         {
                        2351 --641:             pwr_NetSysBPM = PWR_RUN;
                        2352 --line641
                        2353 ..lin.D.3A.5CRenesas_Electronics.5CD1x_RGL.5Crgl_ghs_D1Lx_obj_V1.2E2.2E0.5Cvlib.5Capp.5Cgfx_apps.5Csimple_draw_d1l2.5Ctarget.5Cd1lx_mango_ghs.5Cobj.5Cpwr.110::
                        2354 .LDWlin110:
00000858 020a           2355 	mov	2,r1

                                                                      Page 42
                                                              C:\Users\YINGAO~1\AppData\Local\Temp\gh_00007eo1.si
0000085a 7d0f0100       2356 	st.w	r1,0[r29]
0000085e e50d*          2357 	br	.L1689
                        2358 .L1690:
                        2359 --642:         }
                        2360 --644:     else if ((RET_OK == res)/*FLOW 21*/
                        2361 --line644
                        2362 ..lin.D.3A.5CRenesas_Electronics.5CD1x_RGL.5Crgl_ghs_D1Lx_obj_V1.2E2.2E0.5Cvlib.5Capp.5Cgfx_apps.5Csimple_draw_d1l2.5Ctarget.5Cd1lx_mango_ghs.5Cobj.5Cpwr.111::
                        2363 .LDWlin111:
00000860 61e2           2364 	cmp	1,r28
00000862 ca0d*          2365 	bne	.L1689
00000864 830f0300       2366 	ld.bu	2[sp],r1
00000868 610a           2367 	cmp	1,r1
0000086a 8a0d*          2368 	bne	.L1689
0000086c a30f0300       2369 	ld.bu	3[sp],r1
00000870 e009           2370 	cmp	zero,r1
00000872 ca05*          2371 	bne	.L1689
                        2372 --645:                 && (ACTIVE == ssbvalue.status)
                        2373 --646:                 && (VALID== ssbvalue.valid))
                        2374 --647:     {
                        2375 --649:             pwr_NetSysBPM = PWR_RUN;
                        2376 --line649
                        2377 ..lin.D.3A.5CRenesas_Electronics.5CD1x_RGL.5Crgl_ghs_D1Lx_obj_V1.2E2.2E0.5Cvlib.5Capp.5Cgfx_apps.5Csimple_draw_d1l2.5Ctarget.5Cd1lx_mango_ghs.5Cobj.5Cpwr.112::
                        2378 .LDWlin112:
00000874 020a           2379 	mov	2,r1
00000876 7d0f0100       2380 	st.w	r1,0[r29]
                        2381 .L1689:
                        2382 --650:     }
                        2383 --651:     else
                        2384 --652:     {
                        2385 --654:     }
                        2386 --655: }
0000087a 0000           2387 	nop
                        2388 --	    .ef
                        2389 .LDW44:
0000087c 4406ff70       2390 	dispose	2,{r25,r26,r27,r28,r29,r31},[lp]
                        2391 	.type	_pwr_CrankModeTrans,@function
                        2392 	.size	_pwr_CrankModeTrans,.-_pwr_CrankModeTrans
                        2393 	.type	_pwr_CrankModeTrans..D.3A.5CRenesas_Electronics.5CD1x_RGL.5Crgl_ghs_D1Lx_obj_V1.2E2.2E0.5Cvlib.5Capp.5Cgfx_apps.5Csimple_draw_d1l2.5Ctarget.5Cd1lx_mango_ghs.5Cobj.5Cpwr.,@function
                        2394 	.size	_pwr_CrankModeTrans..D.3A.5CRenesas_Electronics.5CD1x_RGL.5Crgl_ghs_D1Lx_obj_V1.2E2.2E0.5Cvlib.5Capp.5Cgfx_apps.5Csimple_draw_d1l2.5Ctarget.5Cd1lx_mango_ghs.5Cobj.5Cpwr.,.-_pwr_CrankModeTrans..D.3A.5CRenesas_Electronics.5CD1x_RGL.5Crgl_ghs_D1Lx_obj_V1.2E2.2E0.5Cvlib.5Capp.5Cgfx_apps.5Csimple_draw_d1l2.5Ctarget.5Cd1lx_mango_ghs.5Cobj.5Cpwr.
                        2395 	.align	2
                        2396 .LDW54:
                        2397 --_ssbvalue	2[sp]	local
                        2398 --_res	r28	local
                        2399 
                        2400 	.data
                        2401 	.text
                        2402 
                        2403 
                        2404 --657: /***************************************************
                        2405 --658: * Function: PWR_SendNetSignal_10ms
                        2406 --659: * Description: send net signal
                        2407 --660: * Parameters:  none
                        2408 --661: * Returns: none
                        2409 --662: * $Create & Verlog:$
                        2410 --663: * Author:Xueping.Chen  Date:2016-12-09   Version:V1.0
                        2411 --664: ****************************************************/
                        2412 --665: void  PWR_SendNetSignal_10ms(void)
                        2413 	.align	2
                        2414 	.align	2
                        2415 	.global	_PWR_SendNetSignal_10ms
                        2416 _PWR_SendNetSignal_10ms:

                                                                      Page 43
                                                              C:\Users\YINGAO~1\AppData\Local\Temp\gh_00007eo1.si
00000880 80076100       2417 	prepare	{r29,r31},0
00000884 3d0600000000*  2418 	mov	_pwr_NetSysBPM,r29
                        2419 --	    .bf
                        2420 .LDW64:
                        2421 --666: {
                        2422 --667:     v_wr_bool(SysBPMEnbd_handle, pwr_NetSysBPMEnbd);
0000088a bd3f2300       2423 	ld.bu	35[r29],r7
0000088e 2606f4363f00   2424 	mov	4142836,r6
                        2425 	jarl	_v_wr_bool,lp
                        2425 <EXPANSION BEGIN>
                        2425 jarl22 _v_wr_bool , lp 
00000894 80ff0000*      2425 <EXPANSION END>
                        2426 --668:     v_wr_8(SysBPM_handle, pwr_NetSysBPM);
                        2427 --line668
                        2428 ..lin.D.3A.5CRenesas_Electronics.5CD1x_RGL.5Crgl_ghs_D1Lx_obj_V1.2E2.2E0.5Cvlib.5Capp.5Cgfx_apps.5Csimple_draw_d1l2.5Ctarget.5Cd1lx_mango_ghs.5Cobj.5Cpwr.113::
                        2429 .LDWlin113:
00000898 9d3f0100       2430 	ld.bu	0[r29],r7
0000089c 2606d0363f00   2431 	mov	4142800,r6
                        2432 	jarl	_v_wr_8,lp
                        2432 <EXPANSION BEGIN>
                        2432 jarl22 _v_wr_8 , lp 
000008a2 80ff0000*      2432 <EXPANSION END>
                        2433 --669: }
                        2434 --line669
                        2435 ..lin.D.3A.5CRenesas_Electronics.5CD1x_RGL.5Crgl_ghs_D1Lx_obj_V1.2E2.2E0.5Cvlib.5Capp.5Cgfx_apps.5Csimple_draw_d1l2.5Ctarget.5Cd1lx_mango_ghs.5Cobj.5Cpwr.114::
                        2436 .LDWlin114:
000008a6 0000           2437 	nop
                        2438 --	    .ef
                        2439 .LDW74:
000008a8 40067f00       2440 	dispose	0,{r29,r31},[lp]
                        2441 	.type	_PWR_SendNetSignal_10ms,@function
                        2442 	.size	_PWR_SendNetSignal_10ms,.-_PWR_SendNetSignal_10ms
                        2443 	.align	2
                        2444 .LDW84:
                        2445 
                        2446 	.data
                        2447 	.text
                        2448 
                        2449 
                        2450 --671: /***************************************************
                        2451 --672: * Function: pwr_WheelStop
                        2452 --673: * Description: judge if the wheel stop
                        2453 --674: * Parameters:  none
                        2454 --675: * Returns: none
                        2455 --676: * $Create & Verlog:$
                        2456 --677: * Author:Xueping.Chen  Date:2016-12-09   Version:V1.0
                        2457 --678: ****************************************************/
                        2458 --679: static void  pwr_WheelStop(void)
                        2459 	.align	2
                        2460 	.align	2
                        2461 	.global	_pwr_WheelStop..D.3A.5CRenesas_Electronics.5CD1x_RGL.5Crgl_ghs_D1Lx_obj_V1.2E2.2E0.5Cvlib.5Capp.5Cgfx_apps.5Csimple_draw_d1l2.5Ctarget.5Cd1lx_mango_ghs.5Cobj.5Cpwr.
                        2462 _pwr_WheelStop..D.3A.5CRenesas_Electronics.5CD1x_RGL.5Crgl_ghs_D1Lx_obj_V1.2E2.2E0.5Cvlib.5Capp.5Cgfx_apps.5Csimple_draw_d1l2.5Ctarget.5Cd1lx_mango_ghs.5Cobj.5Cpwr.:
                        2463 _pwr_WheelStop:
000008ac 8e07e170       2464 	prepare	{r25,r26,r27,r28,r29,r31},7
000008b0 3d0600000000*  2465 	mov	_pwr_NetWhlGNDVelLDvn,r29
000008b6 3dd62500       2466 	movea	37,r29,r26
000008ba 3dce1f00       2467 	movea	31,r29,r25
                        2468 --	    .bf
                        2469 .LDW94:
                        2470 --680: {
                        2471 --681:     U8 num = 0;

                                                                      Page 44
                                                              C:\Users\YINGAO~1\AppData\Local\Temp\gh_00007eo1.si
000008be 00da           2472 	mov	0,r27
                        2473 --682:     U8 i = 0;
000008c0 00e2           2474 	mov	0,r28
                        2475 --683:     U16 pwr_Wheeldata[PWR_WHEEL_NUM];
                        2476 --684:     U8 pwr_WheelVaild[PWR_WHEEL_NUM];
                        2477 --685:     static BOOL pwr_whl_stop[PWR_WHEEL_NUM]={FALSE};
                        2478 --687:     COM_GetSignalValue_16(INDEX_COM_RS_WHLGNDVELLDRVN, &pwr_NetWhlGNDVelLDvn);
000008c2 0832           2479 	mov	8,r6
000008c4 270600000000*  2480 	mov	_pwr_NetWhlGNDVelLDvn,r7
                        2481 	jarl	_COM_GetSignalValue_16,lp
                        2481 <EXPANSION BEGIN>
                        2481 jarl22 _COM_GetSignalValue_16 , lp 
000008ca 80ff0000*      2481 <EXPANSION END>
                        2482 --688:     COM_GetSignalValue_8(INDEX_COM_RS_WHLGNDVELLDRVNV, &pwr_NetWhlGNDVelLDvnv);
                        2483 --line688
                        2484 ..lin.D.3A.5CRenesas_Electronics.5CD1x_RGL.5Crgl_ghs_D1Lx_obj_V1.2E2.2E0.5Cvlib.5Capp.5Cgfx_apps.5Csimple_draw_d1l2.5Ctarget.5Cd1lx_mango_ghs.5Cobj.5Cpwr.115::
                        2485 .LDWlin115:
000008ce 270600000000*  2486 	mov	_pwr_NetWhlGNDVelLDvnv,r7
000008d4 0932           2487 	mov	9,r6
                        2488 	jarl	_COM_GetSignalValue_8,lp
                        2488 <EXPANSION BEGIN>
                        2488 jarl22 _COM_GetSignalValue_8 , lp 
000008d6 80ff0000*      2488 <EXPANSION END>
                        2489 --689:     COM_GetSignalValue_16(INDEX_COM_RS_WHLGNDVELLNONDRVN, &pwr_NetWhlGNDVelLnonDvn);
                        2490 --line689
                        2491 ..lin.D.3A.5CRenesas_Electronics.5CD1x_RGL.5Crgl_ghs_D1Lx_obj_V1.2E2.2E0.5Cvlib.5Capp.5Cgfx_apps.5Csimple_draw_d1l2.5Ctarget.5Cd1lx_mango_ghs.5Cobj.5Cpwr.116::
                        2492 .LDWlin116:
000008da 0a32           2493 	mov	10,r6
000008dc 3d3e0200       2494 	movea	2,r29,r7
                        2495 	jarl	_COM_GetSignalValue_16,lp
                        2495 <EXPANSION BEGIN>
                        2495 jarl22 _COM_GetSignalValue_16 , lp 
000008e0 80ff0000*      2495 <EXPANSION END>
                        2496 --690:     COM_GetSignalValue_8(INDEX_COM_RS_WHLGNDVELLNONDRVNV, &pwr_NetWhlGNDVelLnonDvnv);
                        2497 --line690
                        2498 ..lin.D.3A.5CRenesas_Electronics.5CD1x_RGL.5Crgl_ghs_D1Lx_obj_V1.2E2.2E0.5Cvlib.5Capp.5Cgfx_apps.5Csimple_draw_d1l2.5Ctarget.5Cd1lx_mango_ghs.5Cobj.5Cpwr.117::
                        2499 .LDWlin117:
000008e4 270600000000*  2500 	mov	_pwr_NetWhlGNDVelLnonDvnv,r7
000008ea 0b32           2501 	mov	11,r6
                        2502 	jarl	_COM_GetSignalValue_8,lp
                        2502 <EXPANSION BEGIN>
                        2502 jarl22 _COM_GetSignalValue_8 , lp 
000008ec 80ff0000*      2502 <EXPANSION END>
                        2503 --691:     COM_GetSignalValue_16(INDEX_COM_RS_WhlGndVelRDrvn, &pwr_NetWhlGNDVelRDvn);
                        2504 --line691
                        2505 ..lin.D.3A.5CRenesas_Electronics.5CD1x_RGL.5Crgl_ghs_D1Lx_obj_V1.2E2.2E0.5Cvlib.5Capp.5Cgfx_apps.5Csimple_draw_d1l2.5Ctarget.5Cd1lx_mango_ghs.5Cobj.5Cpwr.118::
                        2506 .LDWlin118:
000008f0 0c32           2507 	mov	12,r6
000008f2 3d3e0400       2508 	movea	4,r29,r7
                        2509 	jarl	_COM_GetSignalValue_16,lp
                        2509 <EXPANSION BEGIN>
                        2509 jarl22 _COM_GetSignalValue_16 , lp 
000008f6 80ff0000*      2509 <EXPANSION END>
                        2510 --692:     COM_GetSignalValue_8(INDEX_COM_RS_WHLGNDVELRDRVNV, &pwr_NetWhlGNDVelRDvnv);
                        2511 --line692
                        2512 ..lin.D.3A.5CRenesas_Electronics.5CD1x_RGL.5Crgl_ghs_D1Lx_obj_V1.2E2.2E0.5Cvlib.5Capp.5Cgfx_apps.5Csimple_draw_d1l2.5Ctarget.5Cd1lx_mango_ghs.5Cobj.5Cpwr.119::
                        2513 .LDWlin119:
000008fa 270600000000*  2514 	mov	_pwr_NetWhlGNDVelRDvnv,r7
00000900 0d32           2515 	mov	13,r6
                        2516 	jarl	_COM_GetSignalValue_8,lp
                        2516 <EXPANSION BEGIN>

                                                                      Page 45
                                                              C:\Users\YINGAO~1\AppData\Local\Temp\gh_00007eo1.si
                        2516 jarl22 _COM_GetSignalValue_8 , lp 
00000902 80ff0000*      2516 <EXPANSION END>
                        2517 --693:     COM_GetSignalValue_16(INDEX_COM_RS_WHLGNDVELRNONDRVN, &pwr_NetWhlGNDVelRnonDvn);
                        2518 --line693
                        2519 ..lin.D.3A.5CRenesas_Electronics.5CD1x_RGL.5Crgl_ghs_D1Lx_obj_V1.2E2.2E0.5Cvlib.5Capp.5Cgfx_apps.5Csimple_draw_d1l2.5Ctarget.5Cd1lx_mango_ghs.5Cobj.5Cpwr.120::
                        2520 .LDWlin120:
00000906 0e32           2521 	mov	14,r6
00000908 3d3e0600       2522 	movea	6,r29,r7
                        2523 	jarl	_COM_GetSignalValue_16,lp
                        2523 <EXPANSION BEGIN>
                        2523 jarl22 _COM_GetSignalValue_16 , lp 
0000090c 80ff0000*      2523 <EXPANSION END>
                        2524 --694:     COM_GetSignalValue_8(INDEX_COM_RS_WHLGNDVELRNONDRVNV, &pwr_NetWhlGNDVelLRnonDvnv);
                        2525 --line694
                        2526 ..lin.D.3A.5CRenesas_Electronics.5CD1x_RGL.5Crgl_ghs_D1Lx_obj_V1.2E2.2E0.5Cvlib.5Capp.5Cgfx_apps.5Csimple_draw_d1l2.5Ctarget.5Cd1lx_mango_ghs.5Cobj.5Cpwr.121::
                        2527 .LDWlin121:
00000910 1938           2528 	mov	r25,r7
00000912 0f32           2529 	mov	15,r6
                        2530 	jarl	_COM_GetSignalValue_8,lp
                        2530 <EXPANSION BEGIN>
                        2530 jarl22 _COM_GetSignalValue_8 , lp 
00000914 80ff0000*      2530 <EXPANSION END>
                        2531 --696:     pwr_Wheeldata[0] = pwr_NetWhlGNDVelLDvn;
                        2532 --line696
                        2533 ..lin.D.3A.5CRenesas_Electronics.5CD1x_RGL.5Crgl_ghs_D1Lx_obj_V1.2E2.2E0.5Cvlib.5Capp.5Cgfx_apps.5Csimple_draw_d1l2.5Ctarget.5Cd1lx_mango_ghs.5Cobj.5Cpwr.122::
                        2534 .LDWlin122:
00000918 210600000000*  2535 	mov	_pwr_NetWhlGNDVelLDvn,r1
0000091e e10f0100       2536 	ld.hu	0[r1],r1
00000922 630f1400       2537 	st.h	r1,20[sp]
                        2538 --697:     pwr_Wheeldata[1] = pwr_NetWhlGNDVelLnonDvn;
00000926 fd0f0300       2539 	ld.hu	2[r29],r1
0000092a 630f1600       2540 	st.h	r1,22[sp]
                        2541 --698:     pwr_Wheeldata[2] = pwr_NetWhlGNDVelRDvn;
0000092e fd0f0500       2542 	ld.hu	4[r29],r1
00000932 630f1800       2543 	st.h	r1,24[sp]
                        2544 --699:     pwr_Wheeldata[3] = pwr_NetWhlGNDVelRnonDvn;
00000936 fd0f0700       2545 	ld.hu	6[r29],r1
0000093a 630f1a00       2546 	st.h	r1,26[sp]
                        2547 --700:     pwr_WheelVaild[0] = pwr_NetWhlGNDVelLDvnv;
0000093e 9d0f1d00       2548 	ld.bu	28[r29],r1
00000942 430f0000       2549 	st.b	r1,0[sp]
                        2550 --701:     pwr_WheelVaild[1] = pwr_NetWhlGNDVelLnonDvnv;
00000946 bd0f1d00       2551 	ld.bu	29[r29],r1
0000094a 430f0100       2552 	st.b	r1,1[sp]
                        2553 --702:     pwr_WheelVaild[2] = pwr_NetWhlGNDVelRDvnv;
0000094e 9d0f1f00       2554 	ld.bu	30[r29],r1
00000952 430f0200       2555 	st.b	r1,2[sp]
                        2556 --703:     pwr_WheelVaild[3] = pwr_NetWhlGNDVelLRnonDvnv;
00000956 bd0f1f00       2557 	ld.bu	31[r29],r1
0000095a 430f0300       2558 	st.b	r1,3[sp]
                        2559 --704:     for (i = 0; i < PWR_WHEEL_NUM; i++)
0000095e 00e2           2560 	mov	0,r28
00000960 0000           2561 	nop
                        2562 .L1873:
                        2563 --705:     {
                        2564 --706:         if (VALID == pwr_WheelVaild[i])
00000962 03f0           2565 	mov	sp,ep
00000964 dcf1           2566 	add	r28,ep
00000966 6008           2567 	sld.bu	0[ep],r1
00000968 e009           2568 	cmp	zero,r1
0000096a da1d*          2569 	bne	.L1881

                                                                      Page 46
                                                              C:\Users\YINGAO~1\AppData\Local\Temp\gh_00007eo1.si
                        2570 --707:         {
                        2571 --708:             if(pwr_Wheeldata[i] <= gloVehStoppedThresholdPrm)
                        2572 --line708
                        2573 ..lin.D.3A.5CRenesas_Electronics.5CD1x_RGL.5Crgl_ghs_D1Lx_obj_V1.2E2.2E0.5Cvlib.5Capp.5Cgfx_apps.5Csimple_draw_d1l2.5Ctarget.5Cd1lx_mango_ghs.5Cobj.5Cpwr.123::
                        2574 .LDWlin123:
0000096c 1cf0           2575 	mov	r28,ep
0000096e c1f2           2576 	shl	1,ep
00000970 bd0f1900       2577 	ld.bu	25[r29],r1
00000974 23761400       2578 	movea	20,sp,r14
00000978 cef1           2579 	add	r14,ep
0000097a 7070           2580 	sld.hu	0[ep],r14
0000097c e171           2581 	cmp	r1,r14
0000097e eb05*          2582 	bh	.L1876
                        2583 --709:             {
                        2584 --710:                pwr_whl_stop[i] = TRUE;
                        2585 --line710
                        2586 ..lin.D.3A.5CRenesas_Electronics.5CD1x_RGL.5Crgl_ghs_D1Lx_obj_V1.2E2.2E0.5Cvlib.5Capp.5Cgfx_apps.5Csimple_draw_d1l2.5Ctarget.5Cd1lx_mango_ghs.5Cobj.5Cpwr.124::
                        2587 .LDWlin124:
00000980 1cf0           2588 	mov	r28,ep
00000982 daf1           2589 	add	r26,ep
00000984 010a           2590 	mov	1,r1
00000986 800b           2591 	sst.b	r1,0[ep]
00000988 e50d*          2592 	br	.L1881
                        2593 .L1876:
                        2594 --711:             }
                        2595 --712:             else if(pwr_Wheeldata[i] >= gloVehMovingThresholdPrm)
                        2596 --line712
                        2597 ..lin.D.3A.5CRenesas_Electronics.5CD1x_RGL.5Crgl_ghs_D1Lx_obj_V1.2E2.2E0.5Cvlib.5Capp.5Cgfx_apps.5Csimple_draw_d1l2.5Ctarget.5Cd1lx_mango_ghs.5Cobj.5Cpwr.125::
                        2598 .LDWlin125:
0000098a 1cf0           2599 	mov	r28,ep
0000098c c1f2           2600 	shl	1,ep
0000098e 9d0f1900       2601 	ld.bu	24[r29],r1
00000992 23761400       2602 	movea	20,sp,r14
00000996 cef1           2603 	add	r14,ep
00000998 7070           2604 	sld.hu	0[ep],r14
0000099a e171           2605 	cmp	r1,r14
0000099c c105*          2606 	bl	.L1881
                        2607 --713:             {
                        2608 --714:                 pwr_whl_stop[i] = FALSE;
                        2609 --line714
                        2610 ..lin.D.3A.5CRenesas_Electronics.5CD1x_RGL.5Crgl_ghs_D1Lx_obj_V1.2E2.2E0.5Cvlib.5Capp.5Cgfx_apps.5Csimple_draw_d1l2.5Ctarget.5Cd1lx_mango_ghs.5Cobj.5Cpwr.126::
                        2611 .LDWlin126:
0000099e 1cf0           2612 	mov	r28,ep
000009a0 daf1           2613 	add	r26,ep
000009a2 8003           2614 	sst.b	zero,0[ep]
                        2615 .L1881:
                        2616 --715:             }
                        2617 --716:         }
                        2618 --717:         else
                        2619 --718:         {
000009a4 41e2           2620 	add	1,r28
000009a6 9c00           2621 	zxb	r28
000009a8 64e2           2622 	cmp	4,r28
000009aa c1dd*          2623 	bl	.L1873
                        2624 --719:         }
                        2625 --720:     }
                        2626 --722:     for (i = 0; i < PWR_WHEEL_NUM; i++)
                        2627 --line722
                        2628 ..lin.D.3A.5CRenesas_Electronics.5CD1x_RGL.5Crgl_ghs_D1Lx_obj_V1.2E2.2E0.5Cvlib.5Capp.5Cgfx_apps.5Csimple_draw_d1l2.5Ctarget.5Cd1lx_mango_ghs.5Cobj.5Cpwr.127::
                        2629 .LDWlin127:
000009ac 00e2           2630 	mov	0,r28

                                                                      Page 47
                                                              C:\Users\YINGAO~1\AppData\Local\Temp\gh_00007eo1.si
000009ae 0000           2631 	nop
                        2632 .L1884:
                        2633 --723:     {
                        2634 --724:        if(TRUE == pwr_whl_stop[i])
000009b0 1cf0           2635 	mov	r28,ep
000009b2 daf1           2636 	add	r26,ep
000009b4 6008           2637 	sld.bu	0[ep],r1
000009b6 610a           2638 	cmp	1,r1
000009b8 ba05*          2639 	bne	.L1887
                        2640 --725:         {
                        2641 --726:         	num ++;
                        2642 --line726
                        2643 ..lin.D.3A.5CRenesas_Electronics.5CD1x_RGL.5Crgl_ghs_D1Lx_obj_V1.2E2.2E0.5Cvlib.5Capp.5Cgfx_apps.5Csimple_draw_d1l2.5Ctarget.5Cd1lx_mango_ghs.5Cobj.5Cpwr.128::
                        2644 .LDWlin128:
000009ba 41da           2645 	add	1,r27
000009bc 9b00           2646 	zxb	r27
                        2647 .L1887:
                        2648 --727:        	}
                        2649 --728: 	   else
                        2650 --729: 	   	{
000009be 41e2           2651 	add	1,r28
000009c0 9c00           2652 	zxb	r28
000009c2 64e2           2653 	cmp	4,r28
000009c4 e1f5*          2654 	bl	.L1884
                        2655 --730: 	   	}   	
                        2656 --731:     }
                        2657 --732:     if(PWR_WHEEL_THREASHOLD <= num)
                        2658 --line732
                        2659 ..lin.D.3A.5CRenesas_Electronics.5CD1x_RGL.5Crgl_ghs_D1Lx_obj_V1.2E2.2E0.5Cvlib.5Capp.5Cgfx_apps.5Csimple_draw_d1l2.5Ctarget.5Cd1lx_mango_ghs.5Cobj.5Cpwr.129::
                        2660 .LDWlin129:
000009c6 63da           2661 	cmp	3,r27
000009c8 d105*          2662 	bl	.L1888
                        2663 --733:     {
                        2664 --734:         pwr_ThreeWheelStop = TRUE;
                        2665 --line734
                        2666 ..lin.D.3A.5CRenesas_Electronics.5CD1x_RGL.5Crgl_ghs_D1Lx_obj_V1.2E2.2E0.5Cvlib.5Capp.5Cgfx_apps.5Csimple_draw_d1l2.5Ctarget.5Cd1lx_mango_ghs.5Cobj.5Cpwr.130::
                        2667 .LDWlin130:
000009ca 010a           2668 	mov	1,r1
000009cc 5d0f1400       2669 	st.b	r1,20[r29]
000009d0 b505*          2670 	br	.L1890
                        2671 .L1888:
                        2672 --735:     }
                        2673 --736:     else
                        2674 --737:     {
                        2675 --738:         pwr_ThreeWheelStop = FALSE;
                        2676 --line738
                        2677 ..lin.D.3A.5CRenesas_Electronics.5CD1x_RGL.5Crgl_ghs_D1Lx_obj_V1.2E2.2E0.5Cvlib.5Capp.5Cgfx_apps.5Csimple_draw_d1l2.5Ctarget.5Cd1lx_mango_ghs.5Cobj.5Cpwr.131::
                        2678 .LDWlin131:
000009d2 5d071400       2679 	st.b	zero,20[r29]
                        2680 .L1890:
                        2681 --739:     }
                        2682 --740: }
000009d6 0000           2683 	nop
                        2684 --	    .ef
                        2685 .LDW05:
000009d8 4e06ff70       2686 	dispose	7,{r25,r26,r27,r28,r29,r31},[lp]
                        2687 	.type	_pwr_WheelStop,@function
                        2688 	.size	_pwr_WheelStop,.-_pwr_WheelStop
                        2689 	.type	_pwr_WheelStop..D.3A.5CRenesas_Electronics.5CD1x_RGL.5Crgl_ghs_D1Lx_obj_V1.2E2.2E0.5Cvlib.5Capp.5Cgfx_apps.5Csimple_draw_d1l2.5Ctarget.5Cd1lx_mango_ghs.5Cobj.5Cpwr.,@function
                        2690 	.size	_pwr_WheelStop..D.3A.5CRenesas_Electronics.5CD1x_RGL.5Crgl_ghs_D1Lx_obj_V1.2E2.2E0.5Cvlib.5Capp.5Cgfx_apps.5Csimple_draw_d1l2.5Ctarget.5Cd1lx_mango_ghs.5Cobj.5Cpwr.,.-_pwr_WheelStop..D.3A.5CRenesas_Electronics.5CD1x_RGL.5Crgl_ghs_D1Lx_obj_V1.2E2.2E0.5Cvlib.5Capp.5Cgfx_apps.5Csimple_draw_d1l2.5Ctarget.5Cd1lx_mango_ghs.5Cobj.5Cpwr.
                        2691 	.align	2

                                                                      Page 48
                                                              C:\Users\YINGAO~1\AppData\Local\Temp\gh_00007eo1.si
                        2692 .LDW15:
                        2693 --_pwr_whl_stop	.L2064	static
                        2694 --_num	r27	local
                        2695 --_i	r28	local
                        2696 --_pwr_Wheeldata	20[sp]	local
                        2697 --_pwr_WheelVaild	0[sp]	local
                        2698 
                        2699 	.data
                        2700 .L2064:
                        2701 	.global	_pwr_whl_stop.pwr_WheelStop.D.3A.5CRenesas_Electronics.5CD1x_RGL.5Crgl_ghs_D1Lx_obj_V1.2E2.2E0.5Cvlib.5Capp.5Cgfx_apps.5Csimple_draw_d1l2.5Ctarget.5Cd1lx_mango_ghs.5Cobj.5Cpwr..44
                        2702 _pwr_whl_stop.pwr_WheelStop.D.3A.5CRenesas_Electronics.5CD1x_RGL.5Crgl_ghs_D1Lx_obj_V1.2E2.2E0.5Cvlib.5Capp.5Cgfx_apps.5Csimple_draw_d1l2.5Ctarget.5Cd1lx_mango_ghs.5Cobj.5Cpwr..44:
                        2703 	.type	_pwr_whl_stop.pwr_WheelStop.D.3A.5CRenesas_Electronics.5CD1x_RGL.5Crgl_ghs_D1Lx_obj_V1.2E2.2E0.5Cvlib.5Capp.5Cgfx_apps.5Csimple_draw_d1l2.5Ctarget.5Cd1lx_mango_ghs.5Cobj.5Cpwr..44,@object
                        2704 	.size	_pwr_whl_stop.pwr_WheelStop.D.3A.5CRenesas_Electronics.5CD1x_RGL.5Crgl_ghs_D1Lx_obj_V1.2E2.2E0.5Cvlib.5Capp.5Cgfx_apps.5Csimple_draw_d1l2.5Ctarget.5Cd1lx_mango_ghs.5Cobj.5Cpwr..44,4
0000003d 00             2705 	.space	1
0000003e 000000         2706 	.space	3
                        2707 	.type	.L2064,@object
                        2708 	.size	.L2064,4
                        2709 	.text
                        2710 
                        2711 
                        2712 --742: /***************************************************
                        2713 --743: * Function: pwr_Process_D001_Value
                        2714 --744: * Description: update D001
                        2715 --745: * Parameters:  none
                        2716 --746: * Returns: D001 Value
                        2717 --747: * $Create & Verlog:$
                        2718 --748: * Author:liuyingying  Date:2017-07-11  Version:V2.0
                        2719 --749: ****************************************************/
                        2720 --750: static  void pwr_Update_D001_Value(void)
                        2721 	.align	2
                        2722 	.align	2
                        2723 	.global	_pwr_Update_D001_Value..D.3A.5CRenesas_Electronics.5CD1x_RGL.5Crgl_ghs_D1Lx_obj_V1.2E2.2E0.5Cvlib.5Capp.5Cgfx_apps.5Csimple_draw_d1l2.5Ctarget.5Cd1lx_mango_ghs.5Cobj.5Cpwr.
                        2724 _pwr_Update_D001_Value..D.3A.5CRenesas_Electronics.5CD1x_RGL.5Crgl_ghs_D1Lx_obj_V1.2E2.2E0.5Cvlib.5Capp.5Cgfx_apps.5Csimple_draw_d1l2.5Ctarget.5Cd1lx_mango_ghs.5Cobj.5Cpwr.:
                        2725 _pwr_Update_D001_Value:
000009dc 8207e100       2726 	prepare	{r28,r29,r31},1
000009e0 3d0600000000*  2727 	mov	_pwr_D001,r29
000009e6 1de0           2728 	mov	r29,r28
                        2729 --	    .bf
                        2730 .LDW25:
                        2731 --751: {
                        2732 --752:     U8 Value;
                        2733 --754:     COM_GetSignalValue_8(INDEX_COM_RS_SYSPWRMD,&Value);
000009e8 2036a900       2734 	movea	169,zero,r6
000009ec 233e0300       2735 	movea	3,sp,r7
                        2736 	jarl	_COM_GetSignalValue_8,lp
                        2736 <EXPANSION BEGIN>
                        2736 jarl22 _COM_GetSignalValue_8 , lp 
000009f0 80ff0000*      2736 <EXPANSION END>
                        2737 --755:     pwr_D001.pwr_u.gCrkSts = ((Value != 0)? TRUE:FALSE);
                        2738 --line755
                        2739 ..lin.D.3A.5CRenesas_Electronics.5CD1x_RGL.5Crgl_ghs_D1Lx_obj_V1.2E2.2E0.5Cvlib.5Capp.5Cgfx_apps.5Csimple_draw_d1l2.5Ctarget.5Cd1lx_mango_ghs.5Cobj.5Cpwr.132::
                        2740 .LDWlin132:
000009f4 a30f0300       2741 	ld.bu	3[sp],r1
000009f8 e009           2742 	cmp	zero,r1
000009fa 9d0f0100       2743 	ld.bu	0[r29],r1
000009fe ea770000       2744 	setfne	r14
00000a02 ce760100       2745 	andi	1,r14,r14
00000a06 c772           2746 	shl	7,r14
00000a08 c10e7f00       2747 	andi	127,r1,r1
00000a0c 0e09           2748 	or	r14,r1
00000a0e 5d0f0000       2749 	st.b	r1,0[r29]

                                                                      Page 49
                                                              C:\Users\YINGAO~1\AppData\Local\Temp\gh_00007eo1.si
                        2750 --756:     pwr_D001.pwr_u.gEnginerunA = ((pwr_NetEnRunA != 0)? TRUE:FALSE);
00000a12 210600000000*  2751 	mov	_pwr_NetEnRunA,r1
00000a18 810f0100       2752 	ld.bu	0[r1],r1
00000a1c e009           2753 	cmp	zero,r1
00000a1e 9d0f0100       2754 	ld.bu	0[r29],r1
00000a22 ea770000       2755 	setfne	r14
00000a26 ce760100       2756 	andi	1,r14,r14
00000a2a c672           2757 	shl	6,r14
00000a2c c10ebf00       2758 	andi	191,r1,r1
00000a30 0e09           2759 	or	r14,r1
00000a32 5d0f0000       2760 	st.b	r1,0[r29]
                        2761 --757:     COM_GetSignalValue_8(INDEX_COM_RS_PWRMDMSTRRUNCRKA,&Value);
00000a36 0332           2762 	mov	3,r6
00000a38 233e0300       2763 	movea	3,sp,r7
                        2764 	jarl	_COM_GetSignalValue_8,lp
                        2764 <EXPANSION BEGIN>
                        2764 jarl22 _COM_GetSignalValue_8 , lp 
00000a3c 80ff0000*      2764 <EXPANSION END>
                        2765 --758:     pwr_D001.pwr_u.gRunSts = ((Value != 0)? TRUE:FALSE);
                        2766 --line758
                        2767 ..lin.D.3A.5CRenesas_Electronics.5CD1x_RGL.5Crgl_ghs_D1Lx_obj_V1.2E2.2E0.5Cvlib.5Capp.5Cgfx_apps.5Csimple_draw_d1l2.5Ctarget.5Cd1lx_mango_ghs.5Cobj.5Cpwr.133::
                        2768 .LDWlin133:
00000a40 a30f0300       2769 	ld.bu	3[sp],r1
00000a44 e009           2770 	cmp	zero,r1
00000a46 9d0f0100       2771 	ld.bu	0[r29],r1
00000a4a ea770000       2772 	setfne	r14
00000a4e ce760100       2773 	andi	1,r14,r14
00000a52 c572           2774 	shl	5,r14
00000a54 c10edf00       2775 	andi	223,r1,r1
00000a58 0e09           2776 	or	r14,r1
00000a5a 5d0f0000       2777 	st.b	r1,0[r29]
                        2778 --759:     COM_GetSignalValue_8(INDEX_COM_RS_PWRMDMSTRACCRYA,&Value);
00000a5e 0232           2779 	mov	2,r6
00000a60 233e0300       2780 	movea	3,sp,r7
                        2781 	jarl	_COM_GetSignalValue_8,lp
                        2781 <EXPANSION BEGIN>
                        2781 jarl22 _COM_GetSignalValue_8 , lp 
00000a64 80ff0000*      2781 <EXPANSION END>
                        2782 --760:     pwr_D001.pwr_u.gAccSts = ((Value != 0)? TRUE:FALSE);
                        2783 --line760
                        2784 ..lin.D.3A.5CRenesas_Electronics.5CD1x_RGL.5Crgl_ghs_D1Lx_obj_V1.2E2.2E0.5Cvlib.5Capp.5Cgfx_apps.5Csimple_draw_d1l2.5Ctarget.5Cd1lx_mango_ghs.5Cobj.5Cpwr.134::
                        2785 .LDWlin134:
00000a68 a30f0300       2786 	ld.bu	3[sp],r1
00000a6c e009           2787 	cmp	zero,r1
00000a6e 9d0f0100       2788 	ld.bu	0[r29],r1
00000a72 ea770000       2789 	setfne	r14
00000a76 ce760100       2790 	andi	1,r14,r14
00000a7a c472           2791 	shl	4,r14
00000a7c c10eef00       2792 	andi	239,r1,r1
00000a80 0e09           2793 	or	r14,r1
00000a82 5d0f0000       2794 	st.b	r1,0[r29]
                        2795 --762:     pwr_D001.pwr_u.sCrkSts = pwr_D001.pwr_u.gCrkSts;
00000a86 9d0f0100       2796 	ld.bu	0[r29],r1
00000a8a 0170           2797 	mov	r1,r14
00000a8c d80a           2798 	shl	24,r1
00000a8e ce76f700       2799 	andi	247,r14,r14
00000a92 9f0a           2800 	shr	31,r1
00000a94 c10e0100       2801 	andi	1,r1,r1
00000a98 c30a           2802 	shl	3,r1
00000a9a 0171           2803 	or	r1,r14
00000a9c 5d770000       2804 	st.b	r14,0[r29]

                                                                      Page 50
                                                              C:\Users\YINGAO~1\AppData\Local\Temp\gh_00007eo1.si
                        2805 --763:     pwr_D001.pwr_u.sEnginerunA =pwr_D001.pwr_u.gEnginerunA;
00000aa0 9d0f0100       2806 	ld.bu	0[r29],r1
00000aa4 0170           2807 	mov	r1,r14
00000aa6 d90a           2808 	shl	25,r1
00000aa8 ce76fb00       2809 	andi	251,r14,r14
00000aac 9f0a           2810 	shr	31,r1
00000aae c10e0100       2811 	andi	1,r1,r1
00000ab2 c20a           2812 	shl	2,r1
00000ab4 0171           2813 	or	r1,r14
00000ab6 5d770000       2814 	st.b	r14,0[r29]
                        2815 --764:     pwr_D001.pwr_u.sRunSts = pwr_D001.pwr_u.gRunSts;
00000aba 9d0f0100       2816 	ld.bu	0[r29],r1
00000abe 0170           2817 	mov	r1,r14
00000ac0 da0a           2818 	shl	26,r1
00000ac2 ce76fd00       2819 	andi	253,r14,r14
00000ac6 9f0a           2820 	shr	31,r1
00000ac8 c10e0100       2821 	andi	1,r1,r1
00000acc c10a           2822 	shl	1,r1
00000ace 0171           2823 	or	r1,r14
00000ad0 5d770000       2824 	st.b	r14,0[r29]
                        2825 --765:     pwr_D001.pwr_u.sAccSts = pwr_D001.pwr_u.gAccSts;
00000ad4 9d0f0100       2826 	ld.bu	0[r29],r1
00000ad8 0170           2827 	mov	r1,r14
00000ada db0a           2828 	shl	27,r1
00000adc ce76fe00       2829 	andi	254,r14,r14
00000ae0 9f0a           2830 	shr	31,r1
00000ae2 c10e0100       2831 	andi	1,r1,r1
00000ae6 0171           2832 	or	r1,r14
00000ae8 5d770000       2833 	st.b	r14,0[r29]
                        2834 --767: }
00000aec 0000           2835 	nop
                        2836 --	    .ef
                        2837 .LDW35:
00000aee 4206ff00       2838 	dispose	1,{r28,r29,r31},[lp]
                        2839 	.type	_pwr_Update_D001_Value,@function
                        2840 	.size	_pwr_Update_D001_Value,.-_pwr_Update_D001_Value
                        2841 	.type	_pwr_Update_D001_Value..D.3A.5CRenesas_Electronics.5CD1x_RGL.5Crgl_ghs_D1Lx_obj_V1.2E2.2E0.5Cvlib.5Capp.5Cgfx_apps.5Csimple_draw_d1l2.5Ctarget.5Cd1lx_mango_ghs.5Cobj.5Cpwr.,@function
                        2842 	.size	_pwr_Update_D001_Value..D.3A.5CRenesas_Electronics.5CD1x_RGL.5Crgl_ghs_D1Lx_obj_V1.2E2.2E0.5Cvlib.5Capp.5Cgfx_apps.5Csimple_draw_d1l2.5Ctarget.5Cd1lx_mango_ghs.5Cobj.5Cpwr.,.-_pwr_Update_D001_Value..D.3A.5CRenesas_Electronics.5CD1x_RGL.5Crgl_ghs_D1Lx_obj_V1.2E2.2E0.5Cvlib.5Capp.5Cgfx_apps.5Csimple_draw_d1l2.5Ctarget.5Cd1lx_mango_ghs.5Cobj.5Cpwr.
                        2843 	.align	2
                        2844 .LDW45:
                        2845 --_Value	3[sp]	local
                        2846 
                        2847 	.data
                        2848 	.text
                        2849 
                        2850 
                        2851 --768: /***************************************************
                        2852 --769: * Function: PWR_GetPwrMode
                        2853 --770: * Description: get the working mode of the power
                        2854 --771: * Parameters:  none
                        2855 --772: * Returns:  RET_FAIL
                        2856 --773:                     RET_INVALID
                        2857 --774:                     RET_OK
                        2858 --775: * $Create & Verlog:$
                        2859 --776: * Author:Xueping.Chen  Date:2016-12-09   Version:V1.0
                        2860 --777: ****************************************************/
                        2861 --778: U8 PWR_GetPwrMode(PU8 mode)
                        2862 	.align	2
                        2863 	.align	2
                        2864 	.global	_PWR_GetPwrMode
                        2865 _PWR_GetPwrMode:

                                                                      Page 51
                                                              C:\Users\YINGAO~1\AppData\Local\Temp\gh_00007eo1.si
00000af2 06f0           2866 	mov	r6,ep
00000af4 210600000000*  2867 	mov	_pwr_NetSysBPM,r1
                        2868 --	    .bf
                        2869 .LDW55:
                        2870 --779: {
                        2871 --780:     U8 res = RET_OK;
00000afa 0172           2872 	mov	1,r14
                        2873 --782:    if (FALSE == pwr_InitSts)
00000afc a16f2500       2874 	ld.bu	37[r1],r13
00000b00 e069           2875 	cmp	zero,r13
00000b02 ba05*          2876 	bne	.L2188
                        2877 --783:    {
                        2878 --784:         res = RET_FAIL;
                        2879 --line784
                        2880 ..lin.D.3A.5CRenesas_Electronics.5CD1x_RGL.5Crgl_ghs_D1Lx_obj_V1.2E2.2E0.5Cvlib.5Capp.5Cgfx_apps.5Csimple_draw_d1l2.5Ctarget.5Cd1lx_mango_ghs.5Cobj.5Cpwr.135::
                        2881 .LDWlin135:
00000b04 0072           2882 	mov	0,r14
00000b06 b50d*          2883 	br	.L2190
                        2884 .L2188:
                        2885 --785:    }
                        2886 --786:    else if (NULL_PTR == mode)
                        2887 --line786
                        2888 ..lin.D.3A.5CRenesas_Electronics.5CD1x_RGL.5Crgl_ghs_D1Lx_obj_V1.2E2.2E0.5Cvlib.5Capp.5Cgfx_apps.5Csimple_draw_d1l2.5Ctarget.5Cd1lx_mango_ghs.5Cobj.5Cpwr.136::
                        2889 .LDWlin136:
00000b08 e0f1           2890 	cmp	zero,ep
00000b0a ba05*          2891 	bne	.L2191
                        2892 --787:     {
                        2893 --788:         res = RET_INVALID;
                        2894 --line788
                        2895 ..lin.D.3A.5CRenesas_Electronics.5CD1x_RGL.5Crgl_ghs_D1Lx_obj_V1.2E2.2E0.5Cvlib.5Capp.5Cgfx_apps.5Csimple_draw_d1l2.5Ctarget.5Cd1lx_mango_ghs.5Cobj.5Cpwr.137::
                        2896 .LDWlin137:
00000b0c 0272           2897 	mov	2,r14
00000b0e f505*          2898 	br	.L2190
                        2899 .L2191:
                        2900 --789:     }
                        2901 --790:     else
                        2902 --791:     {
                        2903 --792:         *mode = pwr_NetSysBPM;
                        2904 --line792
                        2905 ..lin.D.3A.5CRenesas_Electronics.5CD1x_RGL.5Crgl_ghs_D1Lx_obj_V1.2E2.2E0.5Cvlib.5Capp.5Cgfx_apps.5Csimple_draw_d1l2.5Ctarget.5Cd1lx_mango_ghs.5Cobj.5Cpwr.138::
                        2906 .LDWlin138:
00000b10 210600000000*  2907 	mov	_pwr_NetSysBPM,r1
00000b16 210f0100       2908 	ld.w	0[r1],r1
00000b1a 800b           2909 	sst.b	r1,0[ep]
                        2910 .L2190:
                        2911 --793:     }
                        2912 --794:     return res;
00000b1c 0e50           2913 	mov	r14,r10
                        2914 --	    .ef
                        2915 .LDW65:
00000b1e 7f00           2916 	jmp	[lp]
                        2917 	.type	_PWR_GetPwrMode,@function
                        2918 	.size	_PWR_GetPwrMode,.-_PWR_GetPwrMode
                        2919 	.align	2
                        2920 .LDW75:
                        2921 --_res	r14	local
                        2922 
                        2923 --_mode	ep	param
                        2924 
                        2925 	.data
                        2926 	.text

                                                                      Page 52
                                                              C:\Users\YINGAO~1\AppData\Local\Temp\gh_00007eo1.si
                        2927 
                        2928 --795: }
                        2929 
                        2930 --798: /***************************************************
                        2931 --799: * Function: PWR_GetChkStatus
                        2932 --800: * Description: get the status of checking
                        2933 --801: * Parameters:  none
                        2934 --802: * Returns: RET_FAIL
                        2935 --803:                     RET_INVALID
                        2936 --804:                     RET_OK
                        2937 --805: * $Create & Verlog:$
                        2938 --806: * Author:Xueping.Chen  Date:2016-12-09   Version:V1.0
                        2939 --807: ****************************************************/
                        2940 --808: U8 PWR_GetChkStatus(PU8 chkstatus)
                        2941 	.align	2
                        2942 	.align	2
                        2943 	.global	_PWR_GetChkStatus
                        2944 _PWR_GetChkStatus:
00000b20 06f0           2945 	mov	r6,ep
00000b22 210600000000*  2946 	mov	_pwr_CheckStatus,r1
                        2947 --	    .bf
                        2948 .LDW85:
                        2949 --809: {
                        2950 --810:     U8 res = RET_OK;
00000b28 0172           2951 	mov	1,r14
                        2952 --812:     if (FALSE == pwr_InitSts)
00000b2a a16f2d00       2953 	ld.bu	45[r1],r13
00000b2e e069           2954 	cmp	zero,r13
00000b30 ba05*          2955 	bne	.L2259
                        2956 --813:     {
                        2957 --814:         res = RET_FAIL;
                        2958 --line814
                        2959 ..lin.D.3A.5CRenesas_Electronics.5CD1x_RGL.5Crgl_ghs_D1Lx_obj_V1.2E2.2E0.5Cvlib.5Capp.5Cgfx_apps.5Csimple_draw_d1l2.5Ctarget.5Cd1lx_mango_ghs.5Cobj.5Cpwr.139::
                        2960 .LDWlin139:
00000b32 0072           2961 	mov	0,r14
00000b34 b50d*          2962 	br	.L2261
                        2963 .L2259:
                        2964 --815:     }
                        2965 --816:     else if (NULL_PTR == chkstatus)
                        2966 --line816
                        2967 ..lin.D.3A.5CRenesas_Electronics.5CD1x_RGL.5Crgl_ghs_D1Lx_obj_V1.2E2.2E0.5Cvlib.5Capp.5Cgfx_apps.5Csimple_draw_d1l2.5Ctarget.5Cd1lx_mango_ghs.5Cobj.5Cpwr.140::
                        2968 .LDWlin140:
00000b36 e0f1           2969 	cmp	zero,ep
00000b38 ba05*          2970 	bne	.L2262
                        2971 --817:     {
                        2972 --818:         res = RET_INVALID;
                        2973 --line818
                        2974 ..lin.D.3A.5CRenesas_Electronics.5CD1x_RGL.5Crgl_ghs_D1Lx_obj_V1.2E2.2E0.5Cvlib.5Capp.5Cgfx_apps.5Csimple_draw_d1l2.5Ctarget.5Cd1lx_mango_ghs.5Cobj.5Cpwr.141::
                        2975 .LDWlin141:
00000b3a 0272           2976 	mov	2,r14
00000b3c f505*          2977 	br	.L2261
                        2978 .L2262:
                        2979 --819:     }
                        2980 --820:     else
                        2981 --821:     {
                        2982 --822:         *chkstatus = pwr_CheckStatus;
                        2983 --line822
                        2984 ..lin.D.3A.5CRenesas_Electronics.5CD1x_RGL.5Crgl_ghs_D1Lx_obj_V1.2E2.2E0.5Cvlib.5Capp.5Cgfx_apps.5Csimple_draw_d1l2.5Ctarget.5Cd1lx_mango_ghs.5Cobj.5Cpwr.142::
                        2985 .LDWlin142:
00000b3e 210600000000*  2986 	mov	_pwr_CheckStatus,r1
00000b44 210f0100       2987 	ld.w	0[r1],r1

                                                                      Page 53
                                                              C:\Users\YINGAO~1\AppData\Local\Temp\gh_00007eo1.si
00000b48 800b           2988 	sst.b	r1,0[ep]
                        2989 .L2261:
                        2990 --823:     }
                        2991 --824:     return res;
00000b4a 0e50           2992 	mov	r14,r10
                        2993 --	    .ef
                        2994 .LDW95:
00000b4c 7f00           2995 	jmp	[lp]
                        2996 	.type	_PWR_GetChkStatus,@function
                        2997 	.size	_PWR_GetChkStatus,.-_PWR_GetChkStatus
                        2998 	.align	2
                        2999 .LDW06:
                        3000 --_res	r14	local
                        3001 
                        3002 --_chkstatus	ep	param
                        3003 
                        3004 	.data
                        3005 	.text
                        3006 
                        3007 --825: }
                        3008 
                        3009 --827: /***************************************************
                        3010 --828: * Function: PWR_Get_D001_Value
                        3011 --829: * Description: get the status of checking
                        3012 --830: * Parameters:  none
                        3013 --831: * Returns: D001 Value
                        3014 --832: * $Create & Verlog:$
                        3015 --833: * Author:liuyingying  Date:2017-07-11  Version:V2.0
                        3016 --834: ****************************************************/
                        3017 --835: U8 PWR_Get_D001_Value(void)
                        3018 	.align	2
                        3019 	.align	2
                        3020 	.global	_PWR_Get_D001_Value
                        3021 _PWR_Get_D001_Value:
                        3022 --	    .bf
                        3023 .LDW16:
                        3024 --836: {
                        3025 --837:     return pwr_D001.Value;
00000b4e 2a0600000000*  3026 	mov	_pwr_D001,r10
00000b54 8a570100       3027 	ld.bu	0[r10],r10
                        3028 --	    .ef
                        3029 .LDW26:
00000b58 7f00           3030 	jmp	[lp]
                        3031 	.type	_PWR_Get_D001_Value,@function
                        3032 	.size	_PWR_Get_D001_Value,.-_PWR_Get_D001_Value
                        3033 	.align	2
                        3034 .LDW36:
                        3035 
                        3036 	.data
                        3037 	.text
                        3038 
                        3039 --838: }
                        3040 	.align	2
                        3041 --_pwr_CntSSBlongPressPRO	_pwr_CntSSBlongPressPRO	static
                        3042 --_pwr_CntCheckPRO	_pwr_CntCheckPRO	static
                        3043 --_pwr_Cnt2Second	_pwr_Cnt2Second	static
                        3044 --_pwr_Cnt5Second	_pwr_Cnt5Second	static
                        3045 --_pwr_CntLostNet	_pwr_CntLostNet	static
                        3046 --_pwr_NetBCMPwrMdHwdSta	_pwr_NetBCMPwrMdHwdSta	static
                        3047 --_pwr_NetBCMPwrMdHwdStaV	_pwr_NetBCMPwrMdHwdStaV	static
                        3048 --_pwr_NetBCMEmgcSp	_pwr_NetBCMEmgcSp	static

                                                                      Page 54
                                                              C:\Users\YINGAO~1\AppData\Local\Temp\gh_00007eo1.si
                        3049 --_pwr_NetEnRunA	_pwr_NetEnRunA	static
                        3050 --_pwr_CheckStatus	_pwr_CheckStatus	static
                        3051 --_pwr_LostIcm	_pwr_LostIcm	static
                        3052 --_pwr_SsbLongPressedFlag	_pwr_SsbLongPressedFlag	static
                        3053 --_pwr_VStpFlag	_pwr_VStpFlag	static
                        3054 --_pwr_NetSysBPMEnbd	_pwr_NetSysBPMEnbd	static
                        3055 --_pwr_CPwrMode	_pwr_CPwrMode	static
                        3056 --_pwr_NetSysBPM	_pwr_NetSysBPM	static
                        3057 --_pwr_SSBlongPreCnt	_pwr_SSBlongPreCnt	static
                        3058 --_pwr_SSBShortPrsCnt	_pwr_SSBShortPrsCnt	static
                        3059 --_pwr_ThreeWheelStop	_pwr_ThreeWheelStop	static
                        3060 --_pwr_InitSts	_pwr_InitSts	static
                        3061 --_pmACCToOFFDelayprm	_pmACCToOFFDelayprm	static
                        3062 --_insLampCheckTimePrm	_insLampCheckTimePrm	static
                        3063 --_gloVehMovingThresholdPrm	_gloVehMovingThresholdPrm	static
                        3064 --_gloVehStoppedThresholdPrm	_gloVehStoppedThresholdPrm	static
                        3065 --_pmOperationalMode	_pmOperationalMode	static
                        3066 --_pmMultiPressEnPRm	_pmMultiPressEnPRm	static
                        3067 --_pmSSBPressTimeToTurnOffprm	_pmSSBPressTimeToTurnOffprm	static
                        3068 --_PmSSBActivePressTimePrm	_PmSSBActivePressTimePrm	static
                        3069 --_pmManuSSBPressTimeToTurnOFFPrm	_pmManuSSBPressTimeToTurnOFFPrm	static
                        3070 --_pwr_NetWhlGNDVelLDvn	_pwr_NetWhlGNDVelLDvn	static
                        3071 --_pwr_NetWhlGNDVelLDvnv	_pwr_NetWhlGNDVelLDvnv	static
                        3072 --_pwr_NetWhlGNDVelLnonDvn	_pwr_NetWhlGNDVelLnonDvn	static
                        3073 --_pwr_NetWhlGNDVelLnonDvnv	_pwr_NetWhlGNDVelLnonDvnv	static
                        3074 --_pwr_NetWhlGNDVelRDvn	_pwr_NetWhlGNDVelRDvn	static
                        3075 --_pwr_NetWhlGNDVelRDvnv	_pwr_NetWhlGNDVelRDvnv	static
                        3076 --_pwr_NetWhlGNDVelRnonDvn	_pwr_NetWhlGNDVelRnonDvn	static
                        3077 --_pwr_NetWhlGNDVelLRnonDvnv	_pwr_NetWhlGNDVelLRnonDvnv	static
                        3078 --_pwr_NetVehSpdAvgDrvn	_pwr_NetVehSpdAvgDrvn	static
                        3079 --_pwr_NetVehSpdAvgDrvnV	_pwr_NetVehSpdAvgDrvnV	static
                        3080 --_pwr_busoff	_pwr_busoff	static
                        3081 --_pwr_lostSCS	_pwr_lostSCS	static
                        3082 --_pwr_lostECM	_pwr_lostECM	static
                        3083 --_pwr_D001	_pwr_D001	static
                        3084 
                        3085 	.data
                        3086 	.ghsnote version,14
                        3087 	.ghsnote tools,3
                        3088 	.ghsnote options,144
                        3089 	.text
                        3090 	.align	2
                        3091 ..eof.D.3A.5CRenesas_Electronics.5CD1x_RGL.5Crgl_ghs_D1Lx_obj_V1.2E2.2E0.5Cvlib.5Capp.5Cgfx_apps.5Csimple_draw_d1l2.5Ctarget.5Cd1lx_mango_ghs.5Cobj.5Cpwr...44.3A.5CRenesas_Electronics.5CD1x_RGL.5Crgl_ghs_D1Lx_obj_V1.2E2.2E0.5Cvlib.5Capp.5Cgfx_apps.5Csimple_draw_d1l2.5Ctarget.5Cd1lx_mango_ghs..5A74036F..0::
                        3092 .rh850_flags REGMODE22,DATA_ALIGN8,GP_FIX,EP_NONFIX,TP_FIX,REG2_RESERVE,G3M
