                                                                      Page 1
                                                              C:\Users\YINGAO~1\AppData\Local\Temp\gh_00008201.si
Command Line: C:\ghs\comp_201355\ease850.exe -w -elf -b0 -I../../../../../Device -I../../../../../Driver/ADCE -I../../../../../Driver/CLOCK -I../../../../../Driver/DIO -I../../../../../Driver/DSPI -I../../../../../Driver/Interrupt -I../../../../../Driver/ISM -I../../../../../Driver/OSTM -I../../../../../Driver/PWM -I../../../../../Driver/RSTC -I../../../../../Driver/RTCA -I../../../../../Driver/STBC -I../../../../../Driver/TAUB -I../../../../../Driver/WDT -I../../../../../middleware\ADM -I../../../../../middleware\BPM -I../../../../../middleware\EED -I../../../../../middleware\IOM -I../../../../../middleware\LRM -I../../../../../middleware\MOM -I../../../../../middleware\PWMM -I../../../../../Common -I../../../../../Applayer\DSM -I../../../../../Applayer\FM -I../../../../../Applayer\TPM -I../../../../../Applayer\ACC -I../../../../../Applayer\ASS -I../../../../../Applayer\BAT -I../../../../../Applayer\COM -I../../../../../Applayer\COM\vtp -I../../../../../Applayer\COM\vtp\lib -I../../../../../Applayer\CRUS -I../../../../../Applayer\DIAG -I../../../../../Applayer\FC -I../../../../../Applayer\FL -I../../../../../Applayer\HSD -I../../../../../Applayer\IDLE -I../../../../../Applayer\ILLU -I../../../../../Applayer\LED -I../../../../../Applayer\MSG -I../../../../../Applayer\NVM -I../../../../../Applayer\ODO -I../../../../../Applayer\PWR -I../../../../../Applayer\RANG -I../../../../../Applayer\RST -I../../../../../Applayer\RTC -I../../../../../Applayer\SCS -I../../../../../Applayer\SSB -I../../../../../Applayer\ST -I../../../../../Applayer\STSMG -I../../../../../Applayer\SYS -I../../../../../Applayer\TIP -I../../../../../Applayer\TRIP -I../../../../../Applayer\CHM -I../../../../../Applayer\DM -I../../../../../Applayer\EVT -I../../../../../Applayer\FTR -I../../../../../Applayer\SLF -I../../../../../Applayer\NWD -I../../../../../Applayer\TPMS -I../../../../../Applayer\WFM -I../../../../../Applayer\NZM -I../../../../../app/gfx_apps/simple_draw_d1l2/src -I../../../../../bsp/board//config -I../../../../../bsp/board//src/gfx -I../../../../../bsp/board//src/hmi -I../../../../../bsp/board//src/stdio -I../../../../../bsp/board/d1lx_mango/config -I../../../../../bsp/board/d1lx_mango/src -I../../../../../bsp/board/d1lx_mango/src/gfx -I../../../../../bsp/board/d1lx_mango/src/hmi -I../../../../../bsp/board/d1lx_mango/src/stdio -I../../../../../bsp/gfx/lib -I../../../../../bsp/gfx/src -I../../../../../bsp/hmi/lib -I../../../../../bsp/hmi/src -I../../../../../bsp/lib -I../../../../../bsp/stdio/lib -I../../../../../bsp/stdio/src -I../../../../../cdi/lib -I../../../../../cdi/src -I../../../../../compiler/rh850_ghs/inc -I../../../../../device/d1lx/lib -I../../../../../device/d1lx/macro_cfg -I../../../../../device/d1lx/src/dev -I../../../../../device/d1lx/src/rh850_ghs -I../../../../../device/d1x_common/macro_cfg -I../../../../../device/d1x_common/src/csisw -I../../../../../device/d1x_common/src/ddb -I../../../../../device/d1x_common/src/dev -I../../../../../device/d1x_common/src/gfxbus -I../../../../../device/d1x_common/src/gpio -I../../../../../device/d1x_common/src/ostm -I../../../../../device/d1x_common/src/pbg -I../../../../../device/d1x_common/src/riic -I../../../../../device/d1x_common/src/sfma -I../../../../../device/d1x_common/src/spea -I../../../../../device/d1x_common/src/tauj -I../../../../../device/d1x_common/src/tick -I../../../../../device/d1x_common/src/vdce -I../../../../../device/d1x_common/src/wm -I../../../../../device/d1x_common/src/xbus -I../../../../../device/lib -I../../../../../macro/bus/pbg/lib -I../../../../../macro/bus/pbg/src -I../../../../../macro/csi/csisw/lib -I../../../../../macro/csi/csisw/src -I../../../../../macro/drw2d/lib -I../../../../../macro/drw2d/platform/cpu -I../../../../../macro/drw2d/platform/os/no_os -I../../../../../macro/drw2d/src -I../../../../../macro/flashc/sfcdb/lib -I../../../../../macro/flashc/sfcdb/src -I../../../../../macro/flashc/sfma/lib -I../../../../../macro/flashc/sfma/src -I../../../../../macro/gfxbus/lib -I../../../../../macro/gfxbus/src -I../../../../../macro/gfxbus/xbus/lib -I../../../../../macro/gfxbus/xbus/src -I../../../../../macro/gpio/lib -I../../../../../macro/gpio/src -I../../../../../macro/i2c/riic/lib -I../../../../../macro/i2c/riic/src -I../../../../../macro/tick/lib -I../../../../../macro/tick/src -I../../../../../macro/timer/ostm/lib -I../../../../../macro/timer/ostm/src -I../../../../../macro/timer/tauj/lib -I../../../../../macro/timer/tauj/src -I../../../../../macro/vdce/lib -I../../../../../macro/vdce/src -I../../../../../macro/vo/ddb/lib -I../../../../../macro/vo/ddb/src -I../../../../../macro/vo/spea/lib -I../../../../../macro/vo/spea/src -I../../../../../macro/wm/lib -I../../../../../macro/wm/src -I../../../../../app/gfx_apps/simple_draw_d1l2/src/QD_HMI -I../../../../../app/gfx_apps/simple_draw_d1l2/src/QD_HMI/HMI_Data -IC:\ghs\comp_201355\lib\rh850_22 -cg_underscore -cpu=rh850g3m -no_v850_simd -nomacro -patch_dbo=D:\Renesas_Electronics\D1x_RGL\rgl_ghs_D1Lx_obj_V1.2.0\vlib\app\gfx_apps\simple_draw_d1l2\target\d1lx_mango_ghs\obj\qlapbismv1_p.dbo -source=qlapbismv1_p.c -o .\obj\gh_00008201.o -list=.\obj\qlapbismv1_p.lst C:\Users\YINGAO~1\AppData\Local\Temp\gh_00008201.si 
Original File: C:\Users\YINGAO~1\AppData\Local\Temp\gh_00008201.si
Source File: qlapbismv1_p.c
Directory: D:\Renesas_Electronics\D1x_RGL\rgl_ghs_D1Lx_obj_V1.2.0\vlib\app\gfx_apps\simple_draw_d1l2\target\d1lx_mango_ghs
Host OS: Windows 7 Service Pack 1
EASE: Copyright (C) 1983-2013 Green Hills Software.  All Rights Reversed.
Release: Compiler v2013.5.5
Build Directory: [Directory] BTOWINBOX:c:/build_2013_5_bto/2013-10-04.1311-2013_5_bto/win32-comp-ecom
Revision: [VCInfo] http://toolsvc/branches/release-branch-2013-5-bto/src@496240 (built by build)
Revision Date: Sat Oct 05 04:54:43 2013

Release Date: Sat Oct 05 05:20:49 2013

                           1 --Driver Command: ccv850 -c -MD -I../../../../../Device
                           2 --		-I../../../../../Driver/ADCE -I../../../../../Driver/CLOCK
                           3 --		-I../../../../../Driver/DIO -I../../../../../Driver/DSPI
                           4 --		-I../../../../../Driver/Interrupt -I../../../../../Driver/ISM
                           5 --		-I../../../../../Driver/OSTM -I../../../../../Driver/PWM
                           6 --		-I../../../../../Driver/RSTC -I../../../../../Driver/RTCA
                           7 --		-I../../../../../Driver/STBC -I../../../../../Driver/TAUB
                           8 --		-I../../../../../Driver/WDT -I../../../../../middleware\ADM
                           9 --		-I../../../../../middleware\BPM -I../../../../../middleware\EED
                          10 --		-I../../../../../middleware\IOM -I../../../../../middleware\LRM
                          11 --		-I../../../../../middleware\MOM -I../../../../../middleware\PWMM
                          12 --		-I../../../../../Common -I../../../../../Applayer\DSM
                          13 --		-I../../../../../Applayer\FM -I../../../../../Applayer\TPM
                          14 --		-I../../../../../Applayer\ACC -I../../../../../Applayer\ASS
                          15 --		-I../../../../../Applayer\BAT -I../../../../../Applayer\COM
                          16 --		-I../../../../../Applayer\COM\vtp
                          17 --		-I../../../../../Applayer\COM\vtp\lib
                          18 --		-I../../../../../Applayer\CRUS -I../../../../../Applayer\DIAG
                          19 --		-I../../../../../Applayer\FC -I../../../../../Applayer\FL
                          20 --		-I../../../../../Applayer\HSD -I../../../../../Applayer\IDLE
                          21 --		-I../../../../../Applayer\ILLU -I../../../../../Applayer\LED
                          22 --		-I../../../../../Applayer\MSG -I../../../../../Applayer\NVM
                          23 --		-I../../../../../Applayer\ODO -I../../../../../Applayer\PWR
                          24 --		-I../../../../../Applayer\RANG -I../../../../../Applayer\RST
                          25 --		-I../../../../../Applayer\RTC -I../../../../../Applayer\SCS
                          26 --		-I../../../../../Applayer\SSB -I../../../../../Applayer\ST
                          27 --		-I../../../../../Applayer\STSMG -I../../../../../Applayer\SYS
                          28 --		-I../../../../../Applayer\TIP -I../../../../../Applayer\TRIP
                          29 --		-I../../../../../Applayer\CHM -I../../../../../Applayer\DM
                          30 --		-I../../../../../Applayer\EVT -I../../../../../Applayer\FTR
                          31 --		-I../../../../../Applayer\SLF -I../../../../../Applayer\NWD
                          32 --		-I../../../../../Applayer\TPMS -I../../../../../Applayer\WFM
                          33 --		-I../../../../../Applayer\NZM
                          34 --		-I../../../../../app/gfx_apps/simple_draw_d1l2/src
                          35 --		-I../../../../../bsp/board//config
                          36 --		-I../../../../../bsp/board//src/gfx
                          37 --		-I../../../../../bsp/board//src/hmi
                          38 --		-I../../../../../bsp/board//src/stdio
                          39 --		-I../../../../../bsp/board/d1lx_mango/config
                          40 --		-I../../../../../bsp/board/d1lx_mango/src
                          41 --		-I../../../../../bsp/board/d1lx_mango/src/gfx
                          42 --		-I../../../../../bsp/board/d1lx_mango/src/hmi
                          43 --		-I../../../../../bsp/board/d1lx_mango/src/stdio
                          44 --		-I../../../../../bsp/gfx/lib -I../../../../../bsp/gfx/src
                          45 --		-I../../../../../bsp/hmi/lib -I../../../../../bsp/hmi/src
                          46 --		-I../../../../../bsp/lib -I../../../../../bsp/stdio/lib
                          47 --		-I../../../../../bsp/stdio/src -I../../../../../cdi/lib
                          48 --		-I../../../../../cdi/src -I../../../../../compiler/rh850_ghs/inc
                          49 --		-I../../../../../device/d1lx/lib
                          50 --		-I../../../../../device/d1lx/macro_cfg

                                                                      Page 2
                                                              C:\Users\YINGAO~1\AppData\Local\Temp\gh_00008201.si
                          51 --		-I../../../../../device/d1lx/src/dev
                          52 --		-I../../../../../device/d1lx/src/rh850_ghs
                          53 --		-I../../../../../device/d1x_common/macro_cfg
                          54 --		-I../../../../../device/d1x_common/src/csisw
                          55 --		-I../../../../../device/d1x_common/src/ddb
                          56 --		-I../../../../../device/d1x_common/src/dev
                          57 --		-I../../../../../device/d1x_common/src/gfxbus
                          58 --		-I../../../../../device/d1x_common/src/gpio
                          59 --		-I../../../../../device/d1x_common/src/ostm
                          60 --		-I../../../../../device/d1x_common/src/pbg
                          61 --		-I../../../../../device/d1x_common/src/riic
                          62 --		-I../../../../../device/d1x_common/src/sfma
                          63 --		-I../../../../../device/d1x_common/src/spea
                          64 --		-I../../../../../device/d1x_common/src/tauj
                          65 --		-I../../../../../device/d1x_common/src/tick
                          66 --		-I../../../../../device/d1x_common/src/vdce
                          67 --		-I../../../../../device/d1x_common/src/wm
                          68 --		-I../../../../../device/d1x_common/src/xbus
                          69 --		-I../../../../../device/lib -I../../../../../macro/bus/pbg/lib
                          70 --		-I../../../../../macro/bus/pbg/src
                          71 --		-I../../../../../macro/csi/csisw/lib
                          72 --		-I../../../../../macro/csi/csisw/src
                          73 --		-I../../../../../macro/drw2d/lib
                          74 --		-I../../../../../macro/drw2d/platform/cpu
                          75 --		-I../../../../../macro/drw2d/platform/os/no_os
                          76 --		-I../../../../../macro/drw2d/src
                          77 --		-I../../../../../macro/flashc/sfcdb/lib
                          78 --		-I../../../../../macro/flashc/sfcdb/src
                          79 --		-I../../../../../macro/flashc/sfma/lib
                          80 --		-I../../../../../macro/flashc/sfma/src
                          81 --		-I../../../../../macro/gfxbus/lib
                          82 --		-I../../../../../macro/gfxbus/src
                          83 --		-I../../../../../macro/gfxbus/xbus/lib
                          84 --		-I../../../../../macro/gfxbus/xbus/src
                          85 --		-I../../../../../macro/gpio/lib -I../../../../../macro/gpio/src
                          86 --		-I../../../../../macro/i2c/riic/lib
                          87 --		-I../../../../../macro/i2c/riic/src
                          88 --		-I../../../../../macro/tick/lib -I../../../../../macro/tick/src
                          89 --		-I../../../../../macro/timer/ostm/lib
                          90 --		-I../../../../../macro/timer/ostm/src
                          91 --		-I../../../../../macro/timer/tauj/lib
                          92 --		-I../../../../../macro/timer/tauj/src
                          93 --		-I../../../../../macro/vdce/lib -I../../../../../macro/vdce/src
                          94 --		-I../../../../../macro/vo/ddb/lib
                          95 --		-I../../../../../macro/vo/ddb/src
                          96 --		-I../../../../../macro/vo/spea/lib
                          97 --		-I../../../../../macro/vo/spea/src -I../../../../../macro/wm/lib
                          98 --		-I../../../../../macro/wm/src
                          99 --		-I../../../../../app/gfx_apps/simple_draw_d1l2/src/QD_HMI
                         100 --		-I../../../../../app/gfx_apps/simple_draw_d1l2/src/QD_HMI/HMI_Data
                         101 --		-G --no_commons --no_implicit_include --prototype_errors
                         102 --		-DR_DRW2D_OS_NO_OS -DR_DRW2D_SYS_CPU -DUSED_CPU=RH850G3M
                         103 --		-DUSE_BSP_GFX -DUSE_BSP_HMI -DUSE_BSP_STDIO -DUSE_CDI -DUSE_CSISW
                         104 --		-DUSE_DDB -DUSE_DRW2D -DUSE_GFXBUS -DUSE_GPIO -DUSE_OSTM
                         105 --		-DUSE_PBG -DUSE_RIIC -DUSE_SFCDB -DUSE_SFMA -DUSE_SPEA -DUSE_TAUJ
                         106 --		-DUSE_TICK -DUSE_VDCE -DUSE_WM -DUSE_XBUS -MD -Mn -Mx -Zuse1bit
                         107 --		-allocate_ep -cpu=rh850g3m -entry=_RESET -large_sda -list
                         108 --		-no_callt -notda -passsource -preprocess_assembly_files
                         109 --		-registermode=22 -reserve_r2 --diag_warning 1 -object_dir=./obj
                         110 --		-filetype.c
                         111 --		D:\Renesas_Electronics\D1x_RGL\rgl_ghs_D1Lx_obj_V1.2.0\vlib\Driver\ISM\qlapbismv1_p.c

                                                                      Page 3
                                                              C:\Users\YINGAO~1\AppData\Local\Temp\gh_00008201.si
                         112 --		-o .\obj\qlapbismv1_p.o
                         113 --Source File:   D:\Renesas_Electronics\D1x_RGL\rgl_ghs_D1Lx_obj_V1.2.0\vlib\Driver\ISM\qlapbismv1_p.c
                         114 --Directory:     
                         115 --		D:\Renesas_Electronics\D1x_RGL\rgl_ghs_D1Lx_obj_V1.2.0\vlib\app\gfx_apps\simple_draw_d1l2\target\d1lx_mango_ghs
                         116 --Compile Date:  Fri Feb 02 14:21:19 2018
                         117 --Host OS:       Win32
                         118 --Version:       C-RH850 2013.5.5 DEVELOPMENT VERSION
                         119 --Release:       Compiler v2013.5.5
                         120 --Revision Date: Sat Oct 05 05:01:20 2013
                         121 --Release Date:  Sat Oct 05 05:22:44 2013
                         122 -- ecom  -g -w
                         123 
                         124 --1: /*============================================================================
                         125 --2:    PROJECT = ISM Type QLAPBISMV1
                         126 --3:    MODULE  = $Source$
                         127 --4:    VERSION = $Revision: 4975 $
                         128 --5:    DATE    = $Date: 2015-03-27 17:22:34 +0100 (Fr, 27 Mrz 2015) $
                         129 --6: ==============================================================================*/
                         130 --8: /*============================================================================*/
                         131 --9: /* C O P Y R I G H T                                                          */
                         132 --10: /*============================================================================*/
                         133 --11: /* Copyright (c) 2002 by NEC Electronics (EUROPE) GmbH. All rights reserved.  */
                         134 --12: /* Kanzlerstrasse 2                                                           */
                         135 --13: /* D-40472 Duesseldorf                                                        */
                         136 --14: /*============================================================================*/
                         137 --15: /* Purpose: ISM Low Level Driver */
                         138 --17: /* Warranty Disclaimer */
                         139 --19: /* Because the Product(s) is licensed free of charge, there is no warranty    */
                         140 --20: /* of any kind whatsoever and expressly disclaimed and excluded by NEC,       */
                         141 --21: /* either expressed or implied, including but not limited to those for        */
                         142 --22: /* non-infringement of intellectual property, merchantability and/or          */
                         143 --23: /* fitness for the particular purpose.                                        */
                         144 --24: /* NEC shall not have any obligation to maintain, service or provide bug      */
                         145 --25: /* fixes for the supplied Product(s) and/or the Application.                  */
                         146 --27: /* Each User is solely responsible for determining the appropriateness of     */
                         147 --28: /* using the Product(s) and assumes all risks associated with its exercise    */
                         148 --29: /* of rights under this Agreement, including, but not limited to the risks    */
                         149 --30: /* and costs of program errors, compliance with applicable laws, damage to    */
                         150 --31: /* or loss of data, programs or equipment, and unavailability or              */
                         151 --32: /* interruption of operations.                                                */
                         152 --34: /* Limitation of Liability */
                         153 --36: /* In no event shall NEC be liable to the User for any incidental,            */
                         154 --37: /* consequential, indirect, or punitive damage (including but not limited     */
                         155 --38: /* to lost profits) regardless of whether such liability is based on breach   */
                         156 --39: /* of contract, tort, strict liability, breach of warranties, failure of      */
                         157 --40: /* essential purpose or otherwise and even if advised of the possibility of   */
                         158 --41: /* such damages. NEC shall not be liable for any services or products         */
                         159 --42: /* provided by third party vendors, developers or consultants identified or   */
                         160 --43: /* referred to the User by NEC in connection with the Product(s) and/or the   */
                         161 --44: /* Application.                                                               */
                         162 --46: /*============================================================================
                         163 --47:    Environment: Devices:          All featuring QLAPBISMV1
                         164 --48:                 Assembler:        GHS MULTI 2000
                         165 --49:                 C-Compiler:       GHS MULTI 2000
                         166 --50:                 Linker:           GHS MULTI 2000
                         167 --51:                 Debugger:         GHS MULTI 2000
                         168 --52: ==============================================================================*/
                         169 --54: #define DRIVER_LOCAL
                         170 --56: #include <stddef.h>
                         171 --57: // $$$: TODO cleanup !!!!!!
                         172 --58: #include "r_typedefs.h"

                                                                      Page 4
                                                              C:\Users\YINGAO~1\AppData\Local\Temp\gh_00008201.si
                         173 --60: #include "r_config_ism.h"
                         174 --61: #include "r_ism_api.h"
                         175 --62: #include "r_ism_sys.h"
                         176 --63: #include "standardports_p.h"
                         177 --65: #include "qlapbismv1.h"
                         178 --66: #include "qlapbismv1_p.h"
                         179 --68: #include <stddef.h>
                         180 --70: #if( R_ISM_MACRO_NUM > 1 )
                         181 --71: #error "NUMBER OF UNITS NOT SUPPORTED"
                         182 --72: #endif
                         183 --74: /*
                         184 --75:  * CreateInterrupt() Jump Vector Table
                         185 --76:  */
                         186 --78: #if( R_ISM_MACRO_NUM == 1 )
                         187 --79: static void ( *R_ISM_CIVector [ R_ISM_INT_PERUNIT ] )( );
                         188 --80: #endif
                         189 --82: /*
                         190 --83:  * Global Variables
                         191 --84:  */
                         192 --86: #if( R_ISM_MACRO_NUM == 1 )
                         193 --87: uint8_t* R_ISM_Interrupt_DONE_bit                  = { R_ISM_NOIRQ };
                         194 --88: uint8_t R_ISM_Interrupt_REACHED_u08[1]               = { 0x00 };
                         195 --89: uint8_t R_ISM_Interrupt_REACHED_ACK_u08[1]           = { 0x00 };
                         196 --90: uint8_t* R_ISM_Interrupt_ZPDAD_bit                 = { R_ISM_NOIRQ };
                         197 --91: uint8_t* R_ISM_Interrupt_ZPD_bit                   = { R_ISM_NOIRQ };
                         198 --92: #endif
                         199 --94: /***********************************************************
                         200 --95:   Section: Local Statics
                         201 --96: */
                         202 --98: /* The ISM Memory Mapping */
                         203 --100: static struct r_ism_t *rism_p[ R_ISM_MACRO_NUM ] =
                         204 --101: {
                         205 --102:   ( r_ism_t * )( R_ISM_MACRO_BASE0 )
                         206 --103: };
                         207 --105: static union rism_pwm_t *rism_pwm_p[ R_ISM_MACRO_NUM ] =
                         208 --106:   {
                         209 --107:     ( rism_pwm_t * )( R_ISM_MACRO_BASE0 + R_ISM_PWMTABLEOFFSET )  /* unit 0 */
                         210 --108:   };
                         211 --110: static struct r_ism_zpd_t *rism_zpd_p[ R_ISM_MACRO_NUM ] =
                         212 --111:   {
                         213 --112:     ( r_ism_zpd_t * )( R_ISM_MACRO_BASE0 + R_ISM_ZPDTABLEOFFSET )  /* unit 0 */
                         214 --113:   };
                         215 --116: /*
                         216 --117:  * Internal Support Functions
                         217 --118:  */
                         218 --122: /*
                         219 --123:  * The API functions (Init / DeInit)
                         220 --124:  */
                         221 --126: r_ism_Error_t R_ISM_Init(uint32_t Unit)
                         222 	.text
                         223 ..bof.D.3A.5CRenesas_Electronics.5CD1x_RGL.5Crgl_ghs_D1Lx_obj_V1.2E2.2E0.5Cvlib.5Capp.5Cgfx_apps.5Csimple_draw_d1l2.5Ctarget.5Cd1lx_mango_ghs.5Cobj.5Cqlapbismv1_p...44.3A.5CRenesas_Electronics.5CD1x_RGL.5Crgl_ghs_D1Lx_obj_V1.2E2.2E0.5Cvlib.5Capp.5Cgfx_apps.5Csimple_draw_d1l2.5Ctarget.5Cd1lx_mango_ghs..5A74035F..0::
                         224 	.align	2
                         225 	.global	_R_ISM_Init
                         226 _R_ISM_Init:
00000000 8007e100        227 	prepare	{r28,r29,r31},0
00000004 06e8            228 	mov	r6,r29
                         229 --	    .bf
                         230 .LDW01:
                         231 --127: {
                         232 --128:     uint32_t pclk_Hz;
                         233 --130:     /* initialize the ISM PCLK clock */

                                                                      Page 5
                                                              C:\Users\YINGAO~1\AppData\Local\Temp\gh_00008201.si
                         234 --131:     pclk_Hz = R_SYS_ISM_SysSetClockHz(Unit, (80 * 1000 * 1000));
00000006 1d30            235 	mov	r29,r6
00000008 270600b4c404    236 	mov	80000000,r7
                         237 	jarl	_R_SYS_ISM_SysSetClockHz,lp
                         237 <EXPANSION BEGIN>
                         237 jarl22 _R_SYS_ISM_SysSetClockHz , lp 
0000000e 80ff0000*       237 <EXPANSION END>
00000012 0ae0            238 	mov	r10,r28
                         239 --132:     if (pclk_Hz != (80 * 1000 * 1000))
                         240 --line132
                         241 ..lin.D.3A.5CRenesas_Electronics.5CD1x_RGL.5Crgl_ghs_D1Lx_obj_V1.2E2.2E0.5Cvlib.5Capp.5Cgfx_apps.5Csimple_draw_d1l2.5Ctarget.5Cd1lx_mango_ghs.5Cobj.5Cqlapbismv1_p.1::
                         242 .LDWlin1:
00000014 210600b4c404    243 	mov	80000000,r1
0000001a e1e1            244 	cmp	r1,r28
0000001c b205*           245 	be	.L4
                         246 --133:     {
                         247 --134:         /* error wrong pclk frequency */
                         248 --135:         return R_ISM_ERR_NG;
                         249 --line135
                         250 ..lin.D.3A.5CRenesas_Electronics.5CD1x_RGL.5Crgl_ghs_D1Lx_obj_V1.2E2.2E0.5Cvlib.5Capp.5Cgfx_apps.5Csimple_draw_d1l2.5Ctarget.5Cd1lx_mango_ghs.5Cobj.5Cqlapbismv1_p.2::
                         251 .LDWlin2:
0000001e 0052            252 	mov	0,r10
00000020 950d*           253 	br	.L2
                         254 .L4:
                         255 --136:     }
                         256 --138:     /* initialize the ports */
                         257 --139:     R_SYS_ISM_SetPort(Unit);
                         258 --line139
                         259 ..lin.D.3A.5CRenesas_Electronics.5CD1x_RGL.5Crgl_ghs_D1Lx_obj_V1.2E2.2E0.5Cvlib.5Capp.5Cgfx_apps.5Csimple_draw_d1l2.5Ctarget.5Cd1lx_mango_ghs.5Cobj.5Cqlapbismv1_p.3::
                         260 .LDWlin3:
00000022 1d30            261 	mov	r29,r6
                         262 	jarl	_R_SYS_ISM_SetPort,lp
                         262 <EXPANSION BEGIN>
                         262 jarl22 _R_SYS_ISM_SetPort , lp 
00000024 80ff0000*       262 <EXPANSION END>
                         263 --141:     /* initialize the interrupts */
                         264 --142:     R_SYS_ISM_EnableInt(Unit, R_ISM_INT_ISM_ALL);
                         265 --line142
                         266 ..lin.D.3A.5CRenesas_Electronics.5CD1x_RGL.5Crgl_ghs_D1Lx_obj_V1.2E2.2E0.5Cvlib.5Capp.5Cgfx_apps.5Csimple_draw_d1l2.5Ctarget.5Cd1lx_mango_ghs.5Cobj.5Cqlapbismv1_p.4::
                         267 .LDWlin4:
00000028 1d30            268 	mov	r29,r6
0000002a 0f3a            269 	mov	15,r7
                         270 	jarl	_R_SYS_ISM_EnableInt,lp
                         270 <EXPANSION BEGIN>
                         270 jarl22 _R_SYS_ISM_EnableInt , lp 
0000002c 80ff0000*       270 <EXPANSION END>
                         271 --144:     return R_ISM_ERR_OK;
                         272 --line144
                         273 ..lin.D.3A.5CRenesas_Electronics.5CD1x_RGL.5Crgl_ghs_D1Lx_obj_V1.2E2.2E0.5Cvlib.5Capp.5Cgfx_apps.5Csimple_draw_d1l2.5Ctarget.5Cd1lx_mango_ghs.5Cobj.5Cqlapbismv1_p.5::
                         274 .LDWlin5:
00000030 0152            275 	mov	1,r10
                         276 .L2:
                         277 --	    .ef
                         278 .LDW11:
00000032 4006ff00        279 	dispose	0,{r28,r29,r31},[lp]
                         280 	.type	_R_ISM_Init,@function
                         281 	.size	_R_ISM_Init,.-_R_ISM_Init
                         282 	.align	2
                         283 .LDW21:
                         284 --_pclk_Hz	r28	local
                         285 

                                                                      Page 6
                                                              C:\Users\YINGAO~1\AppData\Local\Temp\gh_00008201.si
                         286 --_Unit	r29	param
                         287 
                         288 	.section ".bss","awb"
                         289 .L34:
                         290 	.type	.L34,@object
                         291 	.size	.L34,0
                         292 	.data
                         293 	.text
                         294 
                         295 --145: }
                         296 
                         297 --148: r_ism_Error_t R_ISM_DeInit(uint32_t Unit)
                         298 	.align	2
                         299 	.align	2
                         300 	.global	_R_ISM_DeInit
                         301 _R_ISM_DeInit:
00000036 80076100        302 	prepare	{r29,r31},0
0000003a 06e8            303 	mov	r6,r29
                         304 --	    .bf
                         305 .LDW31:
                         306 --149: {
                         307 --150:     /* De-Initialize the interrupts */
                         308 --151:     R_SYS_ISM_DisableInt(Unit, R_ISM_INT_ISM_ALL);
0000003c 1d30            309 	mov	r29,r6
0000003e 0f3a            310 	mov	15,r7
                         311 	jarl	_R_SYS_ISM_DisableInt,lp
                         311 <EXPANSION BEGIN>
                         311 jarl22 _R_SYS_ISM_DisableInt , lp 
00000040 80ff0000*       311 <EXPANSION END>
                         312 --153:     /* De-Initialize the ports */
                         313 --154:     R_SYS_ISM_ReleasePort(Unit);
                         314 --line154
                         315 ..lin.D.3A.5CRenesas_Electronics.5CD1x_RGL.5Crgl_ghs_D1Lx_obj_V1.2E2.2E0.5Cvlib.5Capp.5Cgfx_apps.5Csimple_draw_d1l2.5Ctarget.5Cd1lx_mango_ghs.5Cobj.5Cqlapbismv1_p.6::
                         316 .LDWlin6:
00000044 1d30            317 	mov	r29,r6
                         318 	jarl	_R_SYS_ISM_ReleasePort,lp
                         318 <EXPANSION BEGIN>
                         318 jarl22 _R_SYS_ISM_ReleasePort , lp 
00000046 80ff0000*       318 <EXPANSION END>
                         319 --156:     return R_ISM_ERR_OK;
                         320 --line156
                         321 ..lin.D.3A.5CRenesas_Electronics.5CD1x_RGL.5Crgl_ghs_D1Lx_obj_V1.2E2.2E0.5Cvlib.5Capp.5Cgfx_apps.5Csimple_draw_d1l2.5Ctarget.5Cd1lx_mango_ghs.5Cobj.5Cqlapbismv1_p.7::
                         322 .LDWlin7:
0000004a 0152            323 	mov	1,r10
                         324 --	    .ef
                         325 .LDW41:
0000004c 40067f00        326 	dispose	0,{r29,r31},[lp]
                         327 	.type	_R_ISM_DeInit,@function
                         328 	.size	_R_ISM_DeInit,.-_R_ISM_DeInit
                         329 	.align	2
                         330 .LDW51:
                         331 
                         332 --_Unit	r29	param
                         333 
                         334 	.section ".bss","awb"
                         335 .L76:
                         336 	.type	.L76,@object
                         337 	.size	.L76,0
                         338 	.data
                         339 	.text
                         340 

                                                                      Page 7
                                                              C:\Users\YINGAO~1\AppData\Local\Temp\gh_00008201.si
                         341 --157: }
                         342 
                         343 --160: /*
                         344 --161:  * The interrupt Functions
                         345 --162:  */
                         346 --164: /*=============================================================================
                         347 --165:  FunctionName: R_ISM_Interrupt_xxxx
                         348 --166:  IN  :         -
                         349 --167:  OUT :         -
                         350 --168:  Description : Central Interrupt Entry, clears pending bits and stores status
                         351 --170:  =============================================================================*/
                         352 --171: void R_ISM_IsrDone(uint32_t Unit)
                         353 	.align	2
                         354 	.align	2
                         355 	.align	2
                         356 	.global	_R_ISM_IsrDone
                         357 _R_ISM_IsrDone:
00000050 8207e170        358 	prepare	{r25,r26,r27,r28,r29,r31},1
00000054 3d0600000000*   359 	mov	.L132,r29
0000005a 06c8            360 	mov	r6,r25
0000005c 1dd0            361 	mov	r29,r26
0000005e 3c0600000000*   362 	mov	_R_ISM_Interrupt_DONE_bit,r28
00000064 3b0600000000*   363 	mov	_R_ISM_CIVector,r27
                         364 --	    .bf
                         365 .LDW61:
                         366 --172: {
                         367 --173:   if( rism_p[ 0 ]->gip.ssdo )
0000006a 3df70100        368 	ld.w	0[r29],ep
0000006e 0a0d            369 	sld.w	20[ep],r1
00000070 870a            370 	shr	7,r1
00000072 e915*           371 	bnl	.L96
                         372 --174:     {
                         373 --175:       rism_p[ 0 ]->gstc.cldo = 1;
                         374 --line175
                         375 ..lin.D.3A.5CRenesas_Electronics.5CD1x_RGL.5Crgl_ghs_D1Lx_obj_V1.2E2.2E0.5Cvlib.5Capp.5Cgfx_apps.5Csimple_draw_d1l2.5Ctarget.5Cd1lx_mango_ghs.5Cobj.5Cqlapbismv1_p.8::
                         376 .LDWlin8:
00000074 3df70100        377 	ld.w	0[r29],ep
00000078 0c0d            378 	sld.w	24[ep],r1
0000007a 810e4000        379 	ori	64,r1,r1
0000007e 0d0d            380 	sst.w	r1,24[ep]
                         381 --176:       R_ISM_Interrupt_DONE_bit[ 0 ] = R_ISM_IRQ;
00000080 3cf70100        382 	ld.w	0[r28],ep
00000084 010a            383 	mov	1,r1
00000086 800b            384 	sst.b	r1,0[ep]
                         385 --177:       if( R_ISM_CIVector[ 0 ] != NULL ) R_ISM_CIVector[ 0 ]( );
00000088 3b0f0100        386 	ld.w	0[r27],r1
0000008c e009            387 	cmp	zero,r1
0000008e d205*           388 	be	.L98
                         389 --line177
                         390 ..lin.D.3A.5CRenesas_Electronics.5CD1x_RGL.5Crgl_ghs_D1Lx_obj_V1.2E2.2E0.5Cvlib.5Capp.5Cgfx_apps.5Csimple_draw_d1l2.5Ctarget.5Cd1lx_mango_ghs.5Cobj.5Cqlapbismv1_p.9::
                         391 .LDWlin9:
00000090 3b670100        392 	ld.w	0[r27],r12
00000094 ecc760f9        393 	jarl	[r12],lp
                         394 .L98:
                         395 --178:       R_ISM_Interrupt_DONE_bit[ 0 ] = R_ISM_NOIRQ;
                         396 --line178
                         397 ..lin.D.3A.5CRenesas_Electronics.5CD1x_RGL.5Crgl_ghs_D1Lx_obj_V1.2E2.2E0.5Cvlib.5Capp.5Cgfx_apps.5Csimple_draw_d1l2.5Ctarget.5Cd1lx_mango_ghs.5Cobj.5Cqlapbismv1_p.10::
                         398 .LDWlin10:
00000098 3cf70100        399 	ld.w	0[r28],ep
0000009c 8003            400 	sst.b	zero,0[ep]
                         401 .L96:

                                                                      Page 8
                                                              C:\Users\YINGAO~1\AppData\Local\Temp\gh_00008201.si
                         402 --179:     }
                         403 --180: }
0000009e 0000            404 	nop
                         405 --	    .ef
                         406 .LDW71:
000000a0 4206ff70        407 	dispose	1,{r25,r26,r27,r28,r29,r31},[lp]
                         408 	.type	_R_ISM_IsrDone,@function
                         409 	.size	_R_ISM_IsrDone,.-_R_ISM_IsrDone
                         410 	.align	2
                         411 .LDW81:
                         412 
                         413 --_Unit	r25	param
                         414 
                         415 	.data
                         416 	.align	4
                         417 .L132:
                         418 	.type	.L132,@object
                         419 	.size	.L132,0
                         420 	.global	_rism_p..D.3A.5CRenesas_Electronics.5CD1x_RGL.5Crgl_ghs_D1Lx_obj_V1.2E2.2E0.5Cvlib.5Capp.5Cgfx_apps.5Csimple_draw_d1l2.5Ctarget.5Cd1lx_mango_ghs.5Cobj.5Cqlapbismv1_p.
                         421 _rism_p..D.3A.5CRenesas_Electronics.5CD1x_RGL.5Crgl_ghs_D1Lx_obj_V1.2E2.2E0.5Cvlib.5Capp.5Cgfx_apps.5Csimple_draw_d1l2.5Ctarget.5Cd1lx_mango_ghs.5Cobj.5Cqlapbismv1_p.:
                         422 	.type	_rism_p..D.3A.5CRenesas_Electronics.5CD1x_RGL.5Crgl_ghs_D1Lx_obj_V1.2E2.2E0.5Cvlib.5Capp.5Cgfx_apps.5Csimple_draw_d1l2.5Ctarget.5Cd1lx_mango_ghs.5Cobj.5Cqlapbismv1_p.,@object
                         423 	.size	_rism_p..D.3A.5CRenesas_Electronics.5CD1x_RGL.5Crgl_ghs_D1Lx_obj_V1.2E2.2E0.5Cvlib.5Capp.5Cgfx_apps.5Csimple_draw_d1l2.5Ctarget.5Cd1lx_mango_ghs.5Cobj.5Cqlapbismv1_p.,4
00000000 0000f0ff        424 _rism_p:	.byte	0,0,240,255
                         425 	.type	_rism_p,@object
                         426 	.size	_rism_p,4
                         427 	.global	_rism_pwm_p..D.3A.5CRenesas_Electronics.5CD1x_RGL.5Crgl_ghs_D1Lx_obj_V1.2E2.2E0.5Cvlib.5Capp.5Cgfx_apps.5Csimple_draw_d1l2.5Ctarget.5Cd1lx_mango_ghs.5Cobj.5Cqlapbismv1_p.
                         428 _rism_pwm_p..D.3A.5CRenesas_Electronics.5CD1x_RGL.5Crgl_ghs_D1Lx_obj_V1.2E2.2E0.5Cvlib.5Capp.5Cgfx_apps.5Csimple_draw_d1l2.5Ctarget.5Cd1lx_mango_ghs.5Cobj.5Cqlapbismv1_p.:
                         429 	.type	_rism_pwm_p..D.3A.5CRenesas_Electronics.5CD1x_RGL.5Crgl_ghs_D1Lx_obj_V1.2E2.2E0.5Cvlib.5Capp.5Cgfx_apps.5Csimple_draw_d1l2.5Ctarget.5Cd1lx_mango_ghs.5Cobj.5Cqlapbismv1_p.,@object
                         430 	.size	_rism_pwm_p..D.3A.5CRenesas_Electronics.5CD1x_RGL.5Crgl_ghs_D1Lx_obj_V1.2E2.2E0.5Cvlib.5Capp.5Cgfx_apps.5Csimple_draw_d1l2.5Ctarget.5Cd1lx_mango_ghs.5Cobj.5Cqlapbismv1_p.,4
00000004 0040f0ff        431 _rism_pwm_p:	.byte	0,64,240,255
                         432 	.type	_rism_pwm_p,@object
                         433 	.size	_rism_pwm_p,4
                         434 	.global	_rism_zpd_p..D.3A.5CRenesas_Electronics.5CD1x_RGL.5Crgl_ghs_D1Lx_obj_V1.2E2.2E0.5Cvlib.5Capp.5Cgfx_apps.5Csimple_draw_d1l2.5Ctarget.5Cd1lx_mango_ghs.5Cobj.5Cqlapbismv1_p.
                         435 _rism_zpd_p..D.3A.5CRenesas_Electronics.5CD1x_RGL.5Crgl_ghs_D1Lx_obj_V1.2E2.2E0.5Cvlib.5Capp.5Cgfx_apps.5Csimple_draw_d1l2.5Ctarget.5Cd1lx_mango_ghs.5Cobj.5Cqlapbismv1_p.:
                         436 	.type	_rism_zpd_p..D.3A.5CRenesas_Electronics.5CD1x_RGL.5Crgl_ghs_D1Lx_obj_V1.2E2.2E0.5Cvlib.5Capp.5Cgfx_apps.5Csimple_draw_d1l2.5Ctarget.5Cd1lx_mango_ghs.5Cobj.5Cqlapbismv1_p.,@object
                         437 	.size	_rism_zpd_p..D.3A.5CRenesas_Electronics.5CD1x_RGL.5Crgl_ghs_D1Lx_obj_V1.2E2.2E0.5Cvlib.5Capp.5Cgfx_apps.5Csimple_draw_d1l2.5Ctarget.5Cd1lx_mango_ghs.5Cobj.5Cqlapbismv1_p.,4
00000008 0070f0ff        438 _rism_zpd_p:	.byte	0,112,240,255
                         439 	.type	_rism_zpd_p,@object
                         440 	.size	_rism_zpd_p,4
                         441 	.section ".bss","awb"
                         442 	.align	4
                         443 	.global	_R_ISM_CIVector..D.3A.5CRenesas_Electronics.5CD1x_RGL.5Crgl_ghs_D1Lx_obj_V1.2E2.2E0.5Cvlib.5Capp.5Cgfx_apps.5Csimple_draw_d1l2.5Ctarget.5Cd1lx_mango_ghs.5Cobj.5Cqlapbismv1_p.
                         444 _R_ISM_CIVector..D.3A.5CRenesas_Electronics.5CD1x_RGL.5Crgl_ghs_D1Lx_obj_V1.2E2.2E0.5Cvlib.5Capp.5Cgfx_apps.5Csimple_draw_d1l2.5Ctarget.5Cd1lx_mango_ghs.5Cobj.5Cqlapbismv1_p.:
                         445 	.type	_R_ISM_CIVector..D.3A.5CRenesas_Electronics.5CD1x_RGL.5Crgl_ghs_D1Lx_obj_V1.2E2.2E0.5Cvlib.5Capp.5Cgfx_apps.5Csimple_draw_d1l2.5Ctarget.5Cd1lx_mango_ghs.5Cobj.5Cqlapbismv1_p.,@object
                         446 	.size	_R_ISM_CIVector..D.3A.5CRenesas_Electronics.5CD1x_RGL.5Crgl_ghs_D1Lx_obj_V1.2E2.2E0.5Cvlib.5Capp.5Cgfx_apps.5Csimple_draw_d1l2.5Ctarget.5Cd1lx_mango_ghs.5Cobj.5Cqlapbismv1_p.,36
00000000 000000000000    447 _R_ISM_CIVector:	.space	36
00000006 000000000000 
0000000c 000000000000 
00000012 000000000000 
00000018 000000000000 
0000001e 000000000000 
                         448 	.type	_R_ISM_CIVector,@object
                         449 	.size	_R_ISM_CIVector,36
                         450 	.data
                         451 	.text
                         452 
                         453 
                         454 --182: void R_ISM_IsrReached(uint32_t Unit)
                         455 	.align	2
                         456 	.align	2
                         457 	.global	_R_ISM_IsrReached

                                                                      Page 9
                                                              C:\Users\YINGAO~1\AppData\Local\Temp\gh_00008201.si
                         458 _R_ISM_IsrReached:
000000a4 8007e130        459 	prepare	{r26,r27,r28,r29,r31},0
000000a8 3d0600000000*   460 	mov	_R_ISM_CIVector,r29
000000ae 06d8            461 	mov	r6,r27
000000b0 1de0            462 	mov	r29,r28
                         463 --	    .bf
                         464 .LDW91:
                         465 --183: {
                         466 --184:   R_ISM_Interrupt_REACHED_u08[ 0 ] = ( uint8_t )rism_p[ 0 ]->gip.ssre;
000000b2 3e0600000000*   467 	mov	_rism_p,ep
000000b8 00f5            468 	sld.w	0[ep],ep
000000ba 2c0600000000*   469 	mov	_R_ISM_Interrupt_REACHED_u08,r12
000000c0 0a0d            470 	sld.w	20[ep],r1
000000c2 c10e3f00        471 	andi	63,r1,r1
000000c6 4c0f0000        472 	st.b	r1,0[r12]
                         473 --185:   if( R_ISM_CIVector[ 1 ] != NULL ) R_ISM_CIVector[ 1 ]( );
000000ca 3d0f0500        474 	ld.w	4[r29],r1
000000ce e009            475 	cmp	zero,r1
000000d0 d205*           476 	be	.L164
                         477 --line185
                         478 ..lin.D.3A.5CRenesas_Electronics.5CD1x_RGL.5Crgl_ghs_D1Lx_obj_V1.2E2.2E0.5Cvlib.5Capp.5Cgfx_apps.5Csimple_draw_d1l2.5Ctarget.5Cd1lx_mango_ghs.5Cobj.5Cqlapbismv1_p.11::
                         479 .LDWlin11:
000000d2 3dd70500        480 	ld.w	4[r29],r26
000000d6 fac760f9        481 	jarl	[r26],lp
                         482 .L164:
                         483 --186: }
                         484 --line186
                         485 ..lin.D.3A.5CRenesas_Electronics.5CD1x_RGL.5Crgl_ghs_D1Lx_obj_V1.2E2.2E0.5Cvlib.5Capp.5Cgfx_apps.5Csimple_draw_d1l2.5Ctarget.5Cd1lx_mango_ghs.5Cobj.5Cqlapbismv1_p.12::
                         486 .LDWlin12:
000000da 0000            487 	nop
                         488 --	    .ef
                         489 .LDW02:
000000dc 4006ff30        490 	dispose	0,{r26,r27,r28,r29,r31},[lp]
                         491 	.type	_R_ISM_IsrReached,@function
                         492 	.size	_R_ISM_IsrReached,.-_R_ISM_IsrReached
                         493 	.align	2
                         494 .LDW12:
                         495 
                         496 --_Unit	r27	param
                         497 
                         498 	.data
                         499 	.text
                         500 
                         501 
                         502 --188: void R_ISM_IsrZpdad(uint32_t Unit)
                         503 	.align	2
                         504 	.align	2
                         505 	.global	_R_ISM_IsrZpdad
                         506 _R_ISM_IsrZpdad:
000000e0 8207e170        507 	prepare	{r25,r26,r27,r28,r29,r31},1
000000e4 3d0600000000*   508 	mov	_R_ISM_CIVector,r29
000000ea 06c8            509 	mov	r6,r25
000000ec 1dd0            510 	mov	r29,r26
000000ee 3c0600000000*   511 	mov	_R_ISM_Interrupt_ZPDAD_bit,r28
000000f4 3b0600000000*   512 	mov	_rism_p,r27
                         513 --	    .bf
                         514 .LDW22:
                         515 --189: {
                         516 --190:   if( rism_p[ 0 ]->gip.ssad )
000000fa 3bf70100        517 	ld.w	0[r27],ep
000000fe 0a0d            518 	sld.w	20[ep],r1

                                                                      Page 10
                                                              C:\Users\YINGAO~1\AppData\Local\Temp\gh_00008201.si
00000100 880a            519 	shr	8,r1
00000102 e915*           520 	bnl	.L212
                         521 --191:     {
                         522 --192:       rism_p[ 0 ]->gstc.clad = 1;
                         523 --line192
                         524 ..lin.D.3A.5CRenesas_Electronics.5CD1x_RGL.5Crgl_ghs_D1Lx_obj_V1.2E2.2E0.5Cvlib.5Capp.5Cgfx_apps.5Csimple_draw_d1l2.5Ctarget.5Cd1lx_mango_ghs.5Cobj.5Cqlapbismv1_p.13::
                         525 .LDWlin13:
00000104 3bf70100        526 	ld.w	0[r27],ep
00000108 0c0d            527 	sld.w	24[ep],r1
0000010a 810e8000        528 	ori	128,r1,r1
0000010e 0d0d            529 	sst.w	r1,24[ep]
                         530 --193:       R_ISM_Interrupt_ZPDAD_bit[ 0 ] = R_ISM_IRQ;
00000110 3cf70100        531 	ld.w	0[r28],ep
00000114 010a            532 	mov	1,r1
00000116 800b            533 	sst.b	r1,0[ep]
                         534 --194:       if( R_ISM_CIVector[ 2 ] != NULL ) R_ISM_CIVector[ 2 ]( );
00000118 3d0f0900        535 	ld.w	8[r29],r1
0000011c e009            536 	cmp	zero,r1
0000011e d205*           537 	be	.L214
                         538 --line194
                         539 ..lin.D.3A.5CRenesas_Electronics.5CD1x_RGL.5Crgl_ghs_D1Lx_obj_V1.2E2.2E0.5Cvlib.5Capp.5Cgfx_apps.5Csimple_draw_d1l2.5Ctarget.5Cd1lx_mango_ghs.5Cobj.5Cqlapbismv1_p.14::
                         540 .LDWlin14:
00000120 3d670900        541 	ld.w	8[r29],r12
00000124 ecc760f9        542 	jarl	[r12],lp
                         543 .L214:
                         544 --195:       R_ISM_Interrupt_ZPDAD_bit[ 0 ] = R_ISM_NOIRQ;
                         545 --line195
                         546 ..lin.D.3A.5CRenesas_Electronics.5CD1x_RGL.5Crgl_ghs_D1Lx_obj_V1.2E2.2E0.5Cvlib.5Capp.5Cgfx_apps.5Csimple_draw_d1l2.5Ctarget.5Cd1lx_mango_ghs.5Cobj.5Cqlapbismv1_p.15::
                         547 .LDWlin15:
00000128 3cf70100        548 	ld.w	0[r28],ep
0000012c 8003            549 	sst.b	zero,0[ep]
                         550 .L212:
                         551 --196:     }
                         552 --197: }
0000012e 0000            553 	nop
                         554 --	    .ef
                         555 .LDW32:
00000130 4206ff70        556 	dispose	1,{r25,r26,r27,r28,r29,r31},[lp]
                         557 	.type	_R_ISM_IsrZpdad,@function
                         558 	.size	_R_ISM_IsrZpdad,.-_R_ISM_IsrZpdad
                         559 	.align	2
                         560 .LDW42:
                         561 
                         562 --_Unit	r25	param
                         563 
                         564 	.data
                         565 	.text
                         566 
                         567 
                         568 --199: void R_ISM_IsrZpd(uint32_t Unit)
                         569 	.align	2
                         570 	.align	2
                         571 	.global	_R_ISM_IsrZpd
                         572 _R_ISM_IsrZpd:
00000134 8007e170        573 	prepare	{r25,r26,r27,r28,r29,r31},0
00000138 3d0600000000*   574 	mov	_R_ISM_CIVector,r29
0000013e 06d0            575 	mov	r6,r26
00000140 1dd8            576 	mov	r29,r27
00000142 3c0600000000*   577 	mov	_R_ISM_Interrupt_ZPD_bit,r28
                         578 --	    .bf
                         579 .LDW52:

                                                                      Page 11
                                                              C:\Users\YINGAO~1\AppData\Local\Temp\gh_00008201.si
                         580 --200: {
                         581 --201:   R_ISM_Interrupt_ZPD_bit[ 0 ] = R_ISM_IRQ;
00000148 3cf70100        582 	ld.w	0[r28],ep
0000014c 010a            583 	mov	1,r1
0000014e 800b            584 	sst.b	r1,0[ep]
                         585 --202:   if( R_ISM_CIVector[ 3 ] != NULL ) R_ISM_CIVector[ 3 ]( );
00000150 3d0f0d00        586 	ld.w	12[r29],r1
00000154 e009            587 	cmp	zero,r1
00000156 d205*           588 	be	.L275
                         589 --line202
                         590 ..lin.D.3A.5CRenesas_Electronics.5CD1x_RGL.5Crgl_ghs_D1Lx_obj_V1.2E2.2E0.5Cvlib.5Capp.5Cgfx_apps.5Csimple_draw_d1l2.5Ctarget.5Cd1lx_mango_ghs.5Cobj.5Cqlapbismv1_p.16::
                         591 .LDWlin16:
00000158 3dcf0d00        592 	ld.w	12[r29],r25
0000015c f9c760f9        593 	jarl	[r25],lp
                         594 .L275:
                         595 --203:   rism_p[ 0 ]->clzp = R_ISM_CHANNEL_ENALL;
                         596 --line203
                         597 ..lin.D.3A.5CRenesas_Electronics.5CD1x_RGL.5Crgl_ghs_D1Lx_obj_V1.2E2.2E0.5Cvlib.5Capp.5Cgfx_apps.5Csimple_draw_d1l2.5Ctarget.5Cd1lx_mango_ghs.5Cobj.5Cqlapbismv1_p.17::
                         598 .LDWlin17:
00000160 3e0600000000*   599 	mov	_rism_p,ep
00000166 00f5            600 	sld.w	0[ep],ep
00000168 200e3f00        601 	movea	63,zero,r1
0000016c 550d            602 	sst.w	r1,168[ep]
                         603 --204:   R_ISM_Interrupt_ZPD_bit[ 0 ] = R_ISM_NOIRQ;
0000016e 3cf70100        604 	ld.w	0[r28],ep
00000172 8003            605 	sst.b	zero,0[ep]
                         606 --205: }
00000174 0000            607 	nop
                         608 --	    .ef
                         609 .LDW62:
00000176 4006ff70        610 	dispose	0,{r25,r26,r27,r28,r29,r31},[lp]
                         611 	.type	_R_ISM_IsrZpd,@function
                         612 	.size	_R_ISM_IsrZpd,.-_R_ISM_IsrZpd
                         613 	.align	2
                         614 .LDW72:
                         615 
                         616 --_Unit	r26	param
                         617 
                         618 	.data
                         619 	.text
                         620 
                         621 
                         622 --207: /*
                         623 --208:  * The peripheral Support Functions
                         624 --209:  */
                         625 --211: /*=============================================================================
                         626 --212:   FunctionName: R_ISM_PortEnable
                         627 --213:   IN  : UnitNumber: Selected Macro
                         628 --214:   OUT : Error Flag
                         629 --215:   Description :
                         630 --216:   Enable ISM I/O ports
                         631 --217:   =============================================================================*/
                         632 --218: uint32_t R_ISM_PortEnable( uint8_t UnitNumber_u08,
                         633 	.align	2
                         634 	.align	2
                         635 	.global	_R_ISM_PortEnable
                         636 _R_ISM_PortEnable:
0000017a 8207e100        637 	prepare	{r28,r29,r31},1
0000017e c6eeff00        638 	andi	255,r6,r29
00000182 c7e6ff00        639 	andi	255,r7,r28
                         640 --	    .bf

                                                                      Page 12
                                                              C:\Users\YINGAO~1\AppData\Local\Temp\gh_00008201.si
                         641 .LDW82:
                         642 --219:                          uint8_t ChannelNumber_u08 )
                         643 --220: {
                         644 --221:   if( UnitNumber_u08 >= R_ISM_MACRO_NUM ) return( R_ISM_ERR_NG );
00000186 61ea            645 	cmp	1,r29
00000188 c105*           646 	bl	.L334
                         647 --line221
                         648 ..lin.D.3A.5CRenesas_Electronics.5CD1x_RGL.5Crgl_ghs_D1Lx_obj_V1.2E2.2E0.5Cvlib.5Capp.5Cgfx_apps.5Csimple_draw_d1l2.5Ctarget.5Cd1lx_mango_ghs.5Cobj.5Cqlapbismv1_p.18::
                         649 .LDWlin18:
0000018a 0052            650 	mov	0,r10
0000018c 80071e02*       651 	br	.L332
                         652 .L334:
                         653 --222:   if( ChannelNumber_u08 >= R_ISM_CHANNELS ) return( R_ISM_ERR_NG );
                         654 --line222
                         655 ..lin.D.3A.5CRenesas_Electronics.5CD1x_RGL.5Crgl_ghs_D1Lx_obj_V1.2E2.2E0.5Cvlib.5Capp.5Cgfx_apps.5Csimple_draw_d1l2.5Ctarget.5Cd1lx_mango_ghs.5Cobj.5Cqlapbismv1_p.19::
                         656 .LDWlin19:
00000190 66e2            657 	cmp	6,r28
00000192 c105*           658 	bl	.L337
                         659 --line222
                         660 ..lin.D.3A.5CRenesas_Electronics.5CD1x_RGL.5Crgl_ghs_D1Lx_obj_V1.2E2.2E0.5Cvlib.5Capp.5Cgfx_apps.5Csimple_draw_d1l2.5Ctarget.5Cd1lx_mango_ghs.5Cobj.5Cqlapbismv1_p.20::
                         661 .LDWlin20:
00000194 0052            662 	mov	0,r10
00000196 80071402*       663 	br	.L332
                         664 .L337:
                         665 --224:   switch( UnitNumber_u08 ) {
                         666 --line224
                         667 ..lin.D.3A.5CRenesas_Electronics.5CD1x_RGL.5Crgl_ghs_D1Lx_obj_V1.2E2.2E0.5Cvlib.5Capp.5Cgfx_apps.5Csimple_draw_d1l2.5Ctarget.5Cd1lx_mango_ghs.5Cobj.5Cqlapbismv1_p.21::
                         668 .LDWlin21:
0000019a e0e9            669 	cmp	zero,r29
0000019c ea070b02*       670 	bne	.L355
                         671 --226:   case R_ISM_UNIT:
                         672 --227:     {
                         673 --228:       switch( ChannelNumber_u08 )
                         674 --line228
                         675 ..lin.D.3A.5CRenesas_Electronics.5CD1x_RGL.5Crgl_ghs_D1Lx_obj_V1.2E2.2E0.5Cvlib.5Capp.5Cgfx_apps.5Csimple_draw_d1l2.5Ctarget.5Cd1lx_mango_ghs.5Cobj.5Cqlapbismv1_p.22::
                         676 .LDWlin22:
000001a0 1c08            677 	mov	r28,r1
000001a2 630a            678 	cmp	3,r1
000001a4 d905*           679 	bnl	.L457
000001a6 610a            680 	cmp	1,r1
000001a8 d10d*           681 	bl	.L345
000001aa bb5d*           682 	bh	.L347
000001ac 9535*           683 	br	.L346
                         684 .L457:
000001ae 640a            685 	cmp	4,r1
000001b0 e1070301*       686 	bl	.L348
000001b4 e2075101*       687 	be	.L349
000001b8 650a            688 	cmp	5,r1
000001ba ea07e701*       689 	bne	.L343
000001be 80079801*       690 	br	.L350
                         691 .L345:
                         692 --229:         {
                         693 --231:         case R_ISM_CHANNEL0:
                         694 --232:             #if 1
                         695 --233: #ifdef R_ISM_PORT_SINPFB0
                         696 --234:           PORT_Enable( R_ISM_PORT_SINPFB0, R_ISM_PORT_BIT_SINPFB0,
                         697 --line234
                         698 ..lin.D.3A.5CRenesas_Electronics.5CD1x_RGL.5Crgl_ghs_D1Lx_obj_V1.2E2.2E0.5Cvlib.5Capp.5Cgfx_apps.5Csimple_draw_d1l2.5Ctarget.5Cd1lx_mango_ghs.5Cobj.5Cqlapbismv1_p.23::
                         699 .LDWlin23:
000001c2 013a            700 	mov	1,r7
000001c4 633f0100        701 	st.w	r7,0[sp]

                                                                      Page 13
                                                              C:\Users\YINGAO~1\AppData\Local\Temp\gh_00008201.si
000001c8 20361000        702 	movea	16,zero,r6
000001cc 0142            703 	mov	1,r8
000001ce 014a            704 	mov	1,r9
                         705 	jarl	_PORT_Enable,lp
                         705 <EXPANSION BEGIN>
                         705 jarl22 _PORT_Enable , lp 
000001d0 80ff0000*       705 <EXPANSION END>
                         706 --235:                        PORT_DIR_INPUT, PORT_MODE_PERIPHERAL,
                         707 --236:                        R_ISM_PORT_FUNC_SINPFB0 );
                         708 --237: #endif
                         709 --238: #ifdef R_ISM_PORT_SINMFB0
                         710 --239:           PORT_Enable( R_ISM_PORT_SINMFB0, R_ISM_PORT_BIT_SINMFB0,
                         711 --line239
                         712 ..lin.D.3A.5CRenesas_Electronics.5CD1x_RGL.5Crgl_ghs_D1Lx_obj_V1.2E2.2E0.5Cvlib.5Capp.5Cgfx_apps.5Csimple_draw_d1l2.5Ctarget.5Cd1lx_mango_ghs.5Cobj.5Cqlapbismv1_p.24::
                         713 .LDWlin24:
000001d4 0142            714 	mov	1,r8
000001d6 63470100        715 	st.w	r8,0[sp]
000001da 20361000        716 	movea	16,zero,r6
000001de 023a            717 	mov	2,r7
000001e0 014a            718 	mov	1,r9
                         719 	jarl	_PORT_Enable,lp
                         719 <EXPANSION BEGIN>
                         719 jarl22 _PORT_Enable , lp 
000001e2 80ff0000*       719 <EXPANSION END>
                         720 --240:                        PORT_DIR_INPUT, PORT_MODE_PERIPHERAL,
                         721 --241:                        R_ISM_PORT_FUNC_SINMFB0 );
                         722 --242: #endif
                         723 --243: #ifdef R_ISM_PORT_COSPFB0
                         724 --244:           PORT_Enable( R_ISM_PORT_COSPFB0, R_ISM_PORT_BIT_COSPFB0,
                         725 --line244
                         726 ..lin.D.3A.5CRenesas_Electronics.5CD1x_RGL.5Crgl_ghs_D1Lx_obj_V1.2E2.2E0.5Cvlib.5Capp.5Cgfx_apps.5Csimple_draw_d1l2.5Ctarget.5Cd1lx_mango_ghs.5Cobj.5Cqlapbismv1_p.25::
                         727 .LDWlin25:
000001e6 0142            728 	mov	1,r8
000001e8 63470100        729 	st.w	r8,0[sp]
000001ec 20361000        730 	movea	16,zero,r6
000001f0 043a            731 	mov	4,r7
000001f2 014a            732 	mov	1,r9
                         733 	jarl	_PORT_Enable,lp
                         733 <EXPANSION BEGIN>
                         733 jarl22 _PORT_Enable , lp 
000001f4 80ff0000*       733 <EXPANSION END>
                         734 --245:                        PORT_DIR_INPUT, PORT_MODE_PERIPHERAL,
                         735 --246:                        R_ISM_PORT_FUNC_COSPFB0 );
                         736 --247: #endif
                         737 --248: #ifdef R_ISM_PORT_COSMFB0
                         738 --249:           PORT_Enable( R_ISM_PORT_COSMFB0, R_ISM_PORT_BIT_COSMFB0,
                         739 --line249
                         740 ..lin.D.3A.5CRenesas_Electronics.5CD1x_RGL.5Crgl_ghs_D1Lx_obj_V1.2E2.2E0.5Cvlib.5Capp.5Cgfx_apps.5Csimple_draw_d1l2.5Ctarget.5Cd1lx_mango_ghs.5Cobj.5Cqlapbismv1_p.26::
                         741 .LDWlin26:
000001f8 0142            742 	mov	1,r8
000001fa 63470100        743 	st.w	r8,0[sp]
000001fe 20361000        744 	movea	16,zero,r6
00000202 083a            745 	mov	8,r7
00000204 014a            746 	mov	1,r9
                         747 	jarl	_PORT_Enable,lp
                         747 <EXPANSION BEGIN>
                         747 jarl22 _PORT_Enable , lp 
00000206 80ff0000*       747 <EXPANSION END>
                         748 --line254
                         749 ..lin.D.3A.5CRenesas_Electronics.5CD1x_RGL.5Crgl_ghs_D1Lx_obj_V1.2E2.2E0.5Cvlib.5Capp.5Cgfx_apps.5Csimple_draw_d1l2.5Ctarget.5Cd1lx_mango_ghs.5Cobj.5Cqlapbismv1_p.27::
                         750 .LDWlin27:

                                                                      Page 14
                                                              C:\Users\YINGAO~1\AppData\Local\Temp\gh_00008201.si
0000020a 80079601*       751 	br	.L343
                         752 .L346:
                         753 --250:                        PORT_DIR_INPUT, PORT_MODE_PERIPHERAL,
                         754 --251:                        R_ISM_PORT_FUNC_COSMFB0 );
                         755 --252: #endif
                         756 --253: #endif
                         757 --254:           break;
                         758 --256:         case R_ISM_CHANNEL1:
                         759 --257: #ifdef R_ISM_PORT_SINPFB1
                         760 --258:           PORT_Enable( R_ISM_PORT_SINPFB1, R_ISM_PORT_BIT_SINPFB1,
                         761 --line258
                         762 ..lin.D.3A.5CRenesas_Electronics.5CD1x_RGL.5Crgl_ghs_D1Lx_obj_V1.2E2.2E0.5Cvlib.5Capp.5Cgfx_apps.5Csimple_draw_d1l2.5Ctarget.5Cd1lx_mango_ghs.5Cobj.5Cqlapbismv1_p.28::
                         763 .LDWlin28:
0000020e 0142            764 	mov	1,r8
00000210 20361000        765 	movea	16,zero,r6
00000214 63470100        766 	st.w	r8,0[sp]
00000218 0638            767 	mov	r6,r7
0000021a 014a            768 	mov	1,r9
                         769 	jarl	_PORT_Enable,lp
                         769 <EXPANSION BEGIN>
                         769 jarl22 _PORT_Enable , lp 
0000021c 80ff0000*       769 <EXPANSION END>
                         770 --259:                        PORT_DIR_INPUT, PORT_MODE_PERIPHERAL,
                         771 --260:                        R_ISM_PORT_FUNC_SINPFB1 );
                         772 --261: #endif
                         773 --262: #ifdef R_ISM_PORT_SINMFB1
                         774 --263:           PORT_Enable( R_ISM_PORT_SINMFB1, R_ISM_PORT_BIT_SINMFB1,
                         775 --line263
                         776 ..lin.D.3A.5CRenesas_Electronics.5CD1x_RGL.5Crgl_ghs_D1Lx_obj_V1.2E2.2E0.5Cvlib.5Capp.5Cgfx_apps.5Csimple_draw_d1l2.5Ctarget.5Cd1lx_mango_ghs.5Cobj.5Cqlapbismv1_p.29::
                         777 .LDWlin29:
00000220 0142            778 	mov	1,r8
00000222 63470100        779 	st.w	r8,0[sp]
00000226 20361000        780 	movea	16,zero,r6
0000022a 203e2000        781 	movea	32,zero,r7
0000022e 014a            782 	mov	1,r9
                         783 	jarl	_PORT_Enable,lp
                         783 <EXPANSION BEGIN>
                         783 jarl22 _PORT_Enable , lp 
00000230 80ff0000*       783 <EXPANSION END>
                         784 --264:                        PORT_DIR_INPUT, PORT_MODE_PERIPHERAL,
                         785 --265:                        R_ISM_PORT_FUNC_SINMFB1 );
                         786 --266: #endif
                         787 --267: #ifdef R_ISM_PORT_COSPFB1
                         788 --268:           PORT_Enable( R_ISM_PORT_COSPFB1, R_ISM_PORT_BIT_COSPFB1,
                         789 --line268
                         790 ..lin.D.3A.5CRenesas_Electronics.5CD1x_RGL.5Crgl_ghs_D1Lx_obj_V1.2E2.2E0.5Cvlib.5Capp.5Cgfx_apps.5Csimple_draw_d1l2.5Ctarget.5Cd1lx_mango_ghs.5Cobj.5Cqlapbismv1_p.30::
                         791 .LDWlin30:
00000234 0142            792 	mov	1,r8
00000236 63470100        793 	st.w	r8,0[sp]
0000023a 20361000        794 	movea	16,zero,r6
0000023e 203e4000        795 	movea	64,zero,r7
00000242 014a            796 	mov	1,r9
                         797 	jarl	_PORT_Enable,lp
                         797 <EXPANSION BEGIN>
                         797 jarl22 _PORT_Enable , lp 
00000244 80ff0000*       797 <EXPANSION END>
                         798 --269:                        PORT_DIR_INPUT, PORT_MODE_PERIPHERAL,
                         799 --270:                        R_ISM_PORT_FUNC_COSPFB1 );
                         800 --271: #endif
                         801 --272: #ifdef R_ISM_PORT_COSMFB1
                         802 --273:           PORT_Enable( R_ISM_PORT_COSMFB1, R_ISM_PORT_BIT_COSMFB1,

                                                                      Page 15
                                                              C:\Users\YINGAO~1\AppData\Local\Temp\gh_00008201.si
                         803 --line273
                         804 ..lin.D.3A.5CRenesas_Electronics.5CD1x_RGL.5Crgl_ghs_D1Lx_obj_V1.2E2.2E0.5Cvlib.5Capp.5Cgfx_apps.5Csimple_draw_d1l2.5Ctarget.5Cd1lx_mango_ghs.5Cobj.5Cqlapbismv1_p.31::
                         805 .LDWlin31:
00000248 0142            806 	mov	1,r8
0000024a 63470100        807 	st.w	r8,0[sp]
0000024e 20361000        808 	movea	16,zero,r6
00000252 203e8000        809 	movea	128,zero,r7
00000256 014a            810 	mov	1,r9
                         811 	jarl	_PORT_Enable,lp
                         811 <EXPANSION BEGIN>
                         811 jarl22 _PORT_Enable , lp 
00000258 80ff0000*       811 <EXPANSION END>
                         812 --line277
                         813 ..lin.D.3A.5CRenesas_Electronics.5CD1x_RGL.5Crgl_ghs_D1Lx_obj_V1.2E2.2E0.5Cvlib.5Capp.5Cgfx_apps.5Csimple_draw_d1l2.5Ctarget.5Cd1lx_mango_ghs.5Cobj.5Cqlapbismv1_p.32::
                         814 .LDWlin32:
0000025c 80074401*       815 	br	.L343
                         816 .L347:
                         817 --274:                        PORT_DIR_INPUT, PORT_MODE_PERIPHERAL,
                         818 --275:                        R_ISM_PORT_FUNC_COSMFB1 );
                         819 --276: #endif
                         820 --277:           break;
                         821 --279:         case R_ISM_CHANNEL2:
                         822 --280: #ifdef R_ISM_PORT_SINPFB2
                         823 --281:           PORT_Enable( R_ISM_PORT_SINPFB2, R_ISM_PORT_BIT_SINPFB2,
                         824 --line281
                         825 ..lin.D.3A.5CRenesas_Electronics.5CD1x_RGL.5Crgl_ghs_D1Lx_obj_V1.2E2.2E0.5Cvlib.5Capp.5Cgfx_apps.5Csimple_draw_d1l2.5Ctarget.5Cd1lx_mango_ghs.5Cobj.5Cqlapbismv1_p.33::
                         826 .LDWlin33:
00000260 0142            827 	mov	1,r8
00000262 63470100        828 	st.w	r8,0[sp]
00000266 20361100        829 	movea	17,zero,r6
0000026a 203e1000        830 	movea	16,zero,r7
0000026e 014a            831 	mov	1,r9
                         832 	jarl	_PORT_Enable,lp
                         832 <EXPANSION BEGIN>
                         832 jarl22 _PORT_Enable , lp 
00000270 80ff0000*       832 <EXPANSION END>
                         833 --282:                        PORT_DIR_INPUT, PORT_MODE_PERIPHERAL,
                         834 --283:                        R_ISM_PORT_FUNC_SINPFB2 );
                         835 --284: #endif
                         836 --285: #ifdef R_ISM_PORT_SINMFB2
                         837 --286:           PORT_Enable( R_ISM_PORT_SINMFB2, R_ISM_PORT_BIT_SINMFB2,
                         838 --line286
                         839 ..lin.D.3A.5CRenesas_Electronics.5CD1x_RGL.5Crgl_ghs_D1Lx_obj_V1.2E2.2E0.5Cvlib.5Capp.5Cgfx_apps.5Csimple_draw_d1l2.5Ctarget.5Cd1lx_mango_ghs.5Cobj.5Cqlapbismv1_p.34::
                         840 .LDWlin34:
00000274 0142            841 	mov	1,r8
00000276 63470100        842 	st.w	r8,0[sp]
0000027a 20361100        843 	movea	17,zero,r6
0000027e 203e2000        844 	movea	32,zero,r7
00000282 014a            845 	mov	1,r9
                         846 	jarl	_PORT_Enable,lp
                         846 <EXPANSION BEGIN>
                         846 jarl22 _PORT_Enable , lp 
00000284 80ff0000*       846 <EXPANSION END>
                         847 --287:                        PORT_DIR_INPUT, PORT_MODE_PERIPHERAL,
                         848 --288:                        R_ISM_PORT_FUNC_SINMFB2 );
                         849 --289: #endif
                         850 --290: #ifdef R_ISM_PORT_COSPFB2
                         851 --291:           PORT_Enable( R_ISM_PORT_COSPFB2, R_ISM_PORT_BIT_COSPFB2,
                         852 --line291
                         853 ..lin.D.3A.5CRenesas_Electronics.5CD1x_RGL.5Crgl_ghs_D1Lx_obj_V1.2E2.2E0.5Cvlib.5Capp.5Cgfx_apps.5Csimple_draw_d1l2.5Ctarget.5Cd1lx_mango_ghs.5Cobj.5Cqlapbismv1_p.35::
                         854 .LDWlin35:

                                                                      Page 16
                                                              C:\Users\YINGAO~1\AppData\Local\Temp\gh_00008201.si
00000288 0142            855 	mov	1,r8
0000028a 63470100        856 	st.w	r8,0[sp]
0000028e 20361100        857 	movea	17,zero,r6
00000292 203e4000        858 	movea	64,zero,r7
00000296 014a            859 	mov	1,r9
                         860 	jarl	_PORT_Enable,lp
                         860 <EXPANSION BEGIN>
                         860 jarl22 _PORT_Enable , lp 
00000298 80ff0000*       860 <EXPANSION END>
                         861 --292:                        PORT_DIR_INPUT, PORT_MODE_PERIPHERAL,
                         862 --293:                        R_ISM_PORT_FUNC_COSPFB2 );
                         863 --294: #endif
                         864 --295: #ifdef R_ISM_PORT_COSMFB2
                         865 --296:           PORT_Enable( R_ISM_PORT_COSMFB2, R_ISM_PORT_BIT_COSMFB2,
                         866 --line296
                         867 ..lin.D.3A.5CRenesas_Electronics.5CD1x_RGL.5Crgl_ghs_D1Lx_obj_V1.2E2.2E0.5Cvlib.5Capp.5Cgfx_apps.5Csimple_draw_d1l2.5Ctarget.5Cd1lx_mango_ghs.5Cobj.5Cqlapbismv1_p.36::
                         868 .LDWlin36:
0000029c 0142            869 	mov	1,r8
0000029e 63470100        870 	st.w	r8,0[sp]
000002a2 20361100        871 	movea	17,zero,r6
000002a6 203e8000        872 	movea	128,zero,r7
000002aa 014a            873 	mov	1,r9
                         874 	jarl	_PORT_Enable,lp
                         874 <EXPANSION BEGIN>
                         874 jarl22 _PORT_Enable , lp 
000002ac 80ff0000*       874 <EXPANSION END>
                         875 --line300
                         876 ..lin.D.3A.5CRenesas_Electronics.5CD1x_RGL.5Crgl_ghs_D1Lx_obj_V1.2E2.2E0.5Cvlib.5Capp.5Cgfx_apps.5Csimple_draw_d1l2.5Ctarget.5Cd1lx_mango_ghs.5Cobj.5Cqlapbismv1_p.37::
                         877 .LDWlin37:
000002b0 857d*           878 	br	.L343
                         879 .L348:
                         880 --297:                        PORT_DIR_INPUT, PORT_MODE_PERIPHERAL,
                         881 --298:                        R_ISM_PORT_FUNC_COSMFB2 );
                         882 --299: #endif
                         883 --300:           break;
                         884 --302:         case R_ISM_CHANNEL3:
                         885 --303: #ifdef R_ISM_PORT_SINPFB3
                         886 --304:           PORT_Enable( R_ISM_PORT_SINPFB3, R_ISM_PORT_BIT_SINPFB3,
                         887 --line304
                         888 ..lin.D.3A.5CRenesas_Electronics.5CD1x_RGL.5Crgl_ghs_D1Lx_obj_V1.2E2.2E0.5Cvlib.5Capp.5Cgfx_apps.5Csimple_draw_d1l2.5Ctarget.5Cd1lx_mango_ghs.5Cobj.5Cqlapbismv1_p.38::
                         889 .LDWlin38:
000002b2 0142            890 	mov	1,r8
000002b4 63470100        891 	st.w	r8,0[sp]
000002b8 20361100        892 	movea	17,zero,r6
000002bc 203e0001        893 	movea	256,zero,r7
000002c0 014a            894 	mov	1,r9
                         895 	jarl	_PORT_Enable,lp
                         895 <EXPANSION BEGIN>
                         895 jarl22 _PORT_Enable , lp 
000002c2 80ff0000*       895 <EXPANSION END>
                         896 --305:                        PORT_DIR_INPUT, PORT_MODE_PERIPHERAL,
                         897 --306:                        R_ISM_PORT_FUNC_SINPFB3 );
                         898 --307: #endif
                         899 --308: #ifdef R_ISM_PORT_SINMFB3
                         900 --309:           PORT_Enable( R_ISM_PORT_SINMFB3, R_ISM_PORT_BIT_SINMFB3,
                         901 --line309
                         902 ..lin.D.3A.5CRenesas_Electronics.5CD1x_RGL.5Crgl_ghs_D1Lx_obj_V1.2E2.2E0.5Cvlib.5Capp.5Cgfx_apps.5Csimple_draw_d1l2.5Ctarget.5Cd1lx_mango_ghs.5Cobj.5Cqlapbismv1_p.39::
                         903 .LDWlin39:
000002c6 0142            904 	mov	1,r8
000002c8 63470100        905 	st.w	r8,0[sp]
000002cc 20361100        906 	movea	17,zero,r6

                                                                      Page 17
                                                              C:\Users\YINGAO~1\AppData\Local\Temp\gh_00008201.si
000002d0 203e0002        907 	movea	512,zero,r7
000002d4 014a            908 	mov	1,r9
                         909 	jarl	_PORT_Enable,lp
                         909 <EXPANSION BEGIN>
                         909 jarl22 _PORT_Enable , lp 
000002d6 80ff0000*       909 <EXPANSION END>
                         910 --310:                        PORT_DIR_INPUT, PORT_MODE_PERIPHERAL,
                         911 --311:                        R_ISM_PORT_FUNC_SINMFB3 );
                         912 --312: #endif
                         913 --313: #ifdef R_ISM_PORT_COSPFB3
                         914 --314:           PORT_Enable( R_ISM_PORT_COSPFB3, R_ISM_PORT_BIT_COSPFB3,
                         915 --line314
                         916 ..lin.D.3A.5CRenesas_Electronics.5CD1x_RGL.5Crgl_ghs_D1Lx_obj_V1.2E2.2E0.5Cvlib.5Capp.5Cgfx_apps.5Csimple_draw_d1l2.5Ctarget.5Cd1lx_mango_ghs.5Cobj.5Cqlapbismv1_p.40::
                         917 .LDWlin40:
000002da 0142            918 	mov	1,r8
000002dc 63470100        919 	st.w	r8,0[sp]
000002e0 20361100        920 	movea	17,zero,r6
000002e4 203e0004        921 	movea	1024,zero,r7
000002e8 014a            922 	mov	1,r9
                         923 	jarl	_PORT_Enable,lp
                         923 <EXPANSION BEGIN>
                         923 jarl22 _PORT_Enable , lp 
000002ea 80ff0000*       923 <EXPANSION END>
                         924 --315:                        PORT_DIR_INPUT, PORT_MODE_PERIPHERAL,
                         925 --316:                        R_ISM_PORT_FUNC_COSPFB3 );
                         926 --317: #endif
                         927 --318: #ifdef R_ISM_PORT_COSMFB3
                         928 --319:           PORT_Enable( R_ISM_PORT_COSMFB3, R_ISM_PORT_BIT_COSMFB3,
                         929 --line319
                         930 ..lin.D.3A.5CRenesas_Electronics.5CD1x_RGL.5Crgl_ghs_D1Lx_obj_V1.2E2.2E0.5Cvlib.5Capp.5Cgfx_apps.5Csimple_draw_d1l2.5Ctarget.5Cd1lx_mango_ghs.5Cobj.5Cqlapbismv1_p.41::
                         931 .LDWlin41:
000002ee 0142            932 	mov	1,r8
000002f0 63470100        933 	st.w	r8,0[sp]
000002f4 20361100        934 	movea	17,zero,r6
000002f8 203e0008        935 	movea	2048,zero,r7
000002fc 014a            936 	mov	1,r9
                         937 	jarl	_PORT_Enable,lp
                         937 <EXPANSION BEGIN>
                         937 jarl22 _PORT_Enable , lp 
000002fe 80ff0000*       937 <EXPANSION END>
                         938 --line323
                         939 ..lin.D.3A.5CRenesas_Electronics.5CD1x_RGL.5Crgl_ghs_D1Lx_obj_V1.2E2.2E0.5Cvlib.5Capp.5Cgfx_apps.5Csimple_draw_d1l2.5Ctarget.5Cd1lx_mango_ghs.5Cobj.5Cqlapbismv1_p.42::
                         940 .LDWlin42:
00000302 f54d*           941 	br	.L343
                         942 .L349:
                         943 --320:                        PORT_DIR_INPUT, PORT_MODE_PERIPHERAL,
                         944 --321:                        R_ISM_PORT_FUNC_COSMFB3 );
                         945 --322: #endif
                         946 --323:           break;
                         947 --325:         case R_ISM_CHANNEL4:
                         948 --326: #ifdef R_ISM_PORT_SINPFB4
                         949 --327:           PORT_Enable( R_ISM_PORT_SINPFB4, R_ISM_PORT_BIT_SINPFB4,
                         950 --line327
                         951 ..lin.D.3A.5CRenesas_Electronics.5CD1x_RGL.5Crgl_ghs_D1Lx_obj_V1.2E2.2E0.5Cvlib.5Capp.5Cgfx_apps.5Csimple_draw_d1l2.5Ctarget.5Cd1lx_mango_ghs.5Cobj.5Cqlapbismv1_p.43::
                         952 .LDWlin43:
00000304 0142            953 	mov	1,r8
00000306 63470100        954 	st.w	r8,0[sp]
0000030a 20361000        955 	movea	16,zero,r6
0000030e 203e0001        956 	movea	256,zero,r7
00000312 014a            957 	mov	1,r9
                         958 	jarl	_PORT_Enable,lp

                                                                      Page 18
                                                              C:\Users\YINGAO~1\AppData\Local\Temp\gh_00008201.si
                         958 <EXPANSION BEGIN>
                         958 jarl22 _PORT_Enable , lp 
00000314 80ff0000*       958 <EXPANSION END>
                         959 --328:                        PORT_DIR_INPUT, PORT_MODE_PERIPHERAL,
                         960 --329:                        R_ISM_PORT_FUNC_SINPFB4 );
                         961 --330: #endif
                         962 --331: #ifdef R_ISM_PORT_SINMFB4
                         963 --332:           PORT_Enable( R_ISM_PORT_SINMFB4, R_ISM_PORT_BIT_SINMFB4,
                         964 --line332
                         965 ..lin.D.3A.5CRenesas_Electronics.5CD1x_RGL.5Crgl_ghs_D1Lx_obj_V1.2E2.2E0.5Cvlib.5Capp.5Cgfx_apps.5Csimple_draw_d1l2.5Ctarget.5Cd1lx_mango_ghs.5Cobj.5Cqlapbismv1_p.44::
                         966 .LDWlin44:
00000318 0142            967 	mov	1,r8
0000031a 63470100        968 	st.w	r8,0[sp]
0000031e 20361000        969 	movea	16,zero,r6
00000322 203e0002        970 	movea	512,zero,r7
00000326 014a            971 	mov	1,r9
                         972 	jarl	_PORT_Enable,lp
                         972 <EXPANSION BEGIN>
                         972 jarl22 _PORT_Enable , lp 
00000328 80ff0000*       972 <EXPANSION END>
                         973 --333:                        PORT_DIR_INPUT, PORT_MODE_PERIPHERAL,
                         974 --334:                        R_ISM_PORT_FUNC_SINMFB4 );
                         975 --335: #endif
                         976 --336: #ifdef R_ISM_PORT_COSPFB4
                         977 --337:           PORT_Enable( R_ISM_PORT_COSPFB4, R_ISM_PORT_BIT_COSPFB4,
                         978 --line337
                         979 ..lin.D.3A.5CRenesas_Electronics.5CD1x_RGL.5Crgl_ghs_D1Lx_obj_V1.2E2.2E0.5Cvlib.5Capp.5Cgfx_apps.5Csimple_draw_d1l2.5Ctarget.5Cd1lx_mango_ghs.5Cobj.5Cqlapbismv1_p.45::
                         980 .LDWlin45:
0000032c 0142            981 	mov	1,r8
0000032e 63470100        982 	st.w	r8,0[sp]
00000332 20361000        983 	movea	16,zero,r6
00000336 203e0004        984 	movea	1024,zero,r7
0000033a 014a            985 	mov	1,r9
                         986 	jarl	_PORT_Enable,lp
                         986 <EXPANSION BEGIN>
                         986 jarl22 _PORT_Enable , lp 
0000033c 80ff0000*       986 <EXPANSION END>
                         987 --338:                        PORT_DIR_INPUT, PORT_MODE_PERIPHERAL,
                         988 --339:                        R_ISM_PORT_FUNC_COSPFB4 );
                         989 --340: #endif
                         990 --341: #ifdef R_ISM_PORT_COSMFB4
                         991 --342:           PORT_Enable( R_ISM_PORT_COSMFB4, R_ISM_PORT_BIT_COSMFB4,
                         992 --line342
                         993 ..lin.D.3A.5CRenesas_Electronics.5CD1x_RGL.5Crgl_ghs_D1Lx_obj_V1.2E2.2E0.5Cvlib.5Capp.5Cgfx_apps.5Csimple_draw_d1l2.5Ctarget.5Cd1lx_mango_ghs.5Cobj.5Cqlapbismv1_p.46::
                         994 .LDWlin46:
00000340 0142            995 	mov	1,r8
00000342 63470100        996 	st.w	r8,0[sp]
00000346 20361000        997 	movea	16,zero,r6
0000034a 203e0008        998 	movea	2048,zero,r7
0000034e 014a            999 	mov	1,r9
                        1000 	jarl	_PORT_Enable,lp
                        1000 <EXPANSION BEGIN>
                        1000 jarl22 _PORT_Enable , lp 
00000350 80ff0000*      1000 <EXPANSION END>
                        1001 --line346
                        1002 ..lin.D.3A.5CRenesas_Electronics.5CD1x_RGL.5Crgl_ghs_D1Lx_obj_V1.2E2.2E0.5Cvlib.5Capp.5Cgfx_apps.5Csimple_draw_d1l2.5Ctarget.5Cd1lx_mango_ghs.5Cobj.5Cqlapbismv1_p.47::
                        1003 .LDWlin47:
00000354 e525*          1004 	br	.L343
                        1005 .L350:
                        1006 --343:                        PORT_DIR_INPUT, PORT_MODE_PERIPHERAL,
                        1007 --344:                        R_ISM_PORT_FUNC_COSMFB4 );

                                                                      Page 19
                                                              C:\Users\YINGAO~1\AppData\Local\Temp\gh_00008201.si
                        1008 --345: #endif
                        1009 --346:           break;
                        1010 --348:         case R_ISM_CHANNEL5:
                        1011 --349: #ifdef R_ISM_PORT_SINPFB5
                        1012 --350:           PORT_Enable( R_ISM_PORT_SINPFB5, R_ISM_PORT_BIT_SINPFB5,
                        1013 --line350
                        1014 ..lin.D.3A.5CRenesas_Electronics.5CD1x_RGL.5Crgl_ghs_D1Lx_obj_V1.2E2.2E0.5Cvlib.5Capp.5Cgfx_apps.5Csimple_draw_d1l2.5Ctarget.5Cd1lx_mango_ghs.5Cobj.5Cqlapbismv1_p.48::
                        1015 .LDWlin48:
00000356 013a           1016 	mov	1,r7
00000358 633f0100       1017 	st.w	r7,0[sp]
0000035c 20361100       1018 	movea	17,zero,r6
00000360 0142           1019 	mov	1,r8
00000362 014a           1020 	mov	1,r9
                        1021 	jarl	_PORT_Enable,lp
                        1021 <EXPANSION BEGIN>
                        1021 jarl22 _PORT_Enable , lp 
00000364 80ff0000*      1021 <EXPANSION END>
                        1022 --351:                        PORT_DIR_INPUT, PORT_MODE_PERIPHERAL,
                        1023 --352:                        R_ISM_PORT_FUNC_SINPFB5 );
                        1024 --353: #endif
                        1025 --354: #ifdef R_ISM_PORT_SINMFB5
                        1026 --355:           PORT_Enable( R_ISM_PORT_SINMFB5, R_ISM_PORT_BIT_SINMFB5,
                        1027 --line355
                        1028 ..lin.D.3A.5CRenesas_Electronics.5CD1x_RGL.5Crgl_ghs_D1Lx_obj_V1.2E2.2E0.5Cvlib.5Capp.5Cgfx_apps.5Csimple_draw_d1l2.5Ctarget.5Cd1lx_mango_ghs.5Cobj.5Cqlapbismv1_p.49::
                        1029 .LDWlin49:
00000368 0142           1030 	mov	1,r8
0000036a 63470100       1031 	st.w	r8,0[sp]
0000036e 20361100       1032 	movea	17,zero,r6
00000372 023a           1033 	mov	2,r7
00000374 014a           1034 	mov	1,r9
                        1035 	jarl	_PORT_Enable,lp
                        1035 <EXPANSION BEGIN>
                        1035 jarl22 _PORT_Enable , lp 
00000376 80ff0000*      1035 <EXPANSION END>
                        1036 --356:                        PORT_DIR_INPUT, PORT_MODE_PERIPHERAL,
                        1037 --357:                        R_ISM_PORT_FUNC_SINMFB5 );
                        1038 --358: #endif
                        1039 --359: #ifdef R_ISM_PORT_COSPFB5
                        1040 --360:           PORT_Enable( R_ISM_PORT_COSPFB5, R_ISM_PORT_BIT_COSPFB5,
                        1041 --line360
                        1042 ..lin.D.3A.5CRenesas_Electronics.5CD1x_RGL.5Crgl_ghs_D1Lx_obj_V1.2E2.2E0.5Cvlib.5Capp.5Cgfx_apps.5Csimple_draw_d1l2.5Ctarget.5Cd1lx_mango_ghs.5Cobj.5Cqlapbismv1_p.50::
                        1043 .LDWlin50:
0000037a 0142           1044 	mov	1,r8
0000037c 63470100       1045 	st.w	r8,0[sp]
00000380 20361100       1046 	movea	17,zero,r6
00000384 043a           1047 	mov	4,r7
00000386 014a           1048 	mov	1,r9
                        1049 	jarl	_PORT_Enable,lp
                        1049 <EXPANSION BEGIN>
                        1049 jarl22 _PORT_Enable , lp 
00000388 80ff0000*      1049 <EXPANSION END>
                        1050 --361:                        PORT_DIR_INPUT, PORT_MODE_PERIPHERAL,
                        1051 --362:                        R_ISM_PORT_FUNC_COSPFB5 );
                        1052 --363: #endif
                        1053 --364: #ifdef R_ISM_PORT_COSMFB5
                        1054 --365:           PORT_Enable( R_ISM_PORT_COSMFB5, R_ISM_PORT_BIT_COSMFB5,
                        1055 --line365
                        1056 ..lin.D.3A.5CRenesas_Electronics.5CD1x_RGL.5Crgl_ghs_D1Lx_obj_V1.2E2.2E0.5Cvlib.5Capp.5Cgfx_apps.5Csimple_draw_d1l2.5Ctarget.5Cd1lx_mango_ghs.5Cobj.5Cqlapbismv1_p.51::
                        1057 .LDWlin51:
0000038c 0142           1058 	mov	1,r8
0000038e 63470100       1059 	st.w	r8,0[sp]

                                                                      Page 20
                                                              C:\Users\YINGAO~1\AppData\Local\Temp\gh_00008201.si
00000392 20361100       1060 	movea	17,zero,r6
00000396 083a           1061 	mov	8,r7
00000398 014a           1062 	mov	1,r9
                        1063 	jarl	_PORT_Enable,lp
                        1063 <EXPANSION BEGIN>
                        1063 jarl22 _PORT_Enable , lp 
0000039a 80ff0000*      1063 <EXPANSION END>
                        1064 --line369
                        1065 ..lin.D.3A.5CRenesas_Electronics.5CD1x_RGL.5Crgl_ghs_D1Lx_obj_V1.2E2.2E0.5Cvlib.5Capp.5Cgfx_apps.5Csimple_draw_d1l2.5Ctarget.5Cd1lx_mango_ghs.5Cobj.5Cqlapbismv1_p.52::
                        1066 .LDWlin52:
0000039e 0000           1067 	nop
                        1068 .L343:
                        1069 --366:                        PORT_DIR_INPUT, PORT_MODE_PERIPHERAL,
                        1070 --367:                        R_ISM_PORT_FUNC_COSMFB5 );
                        1071 --368: #endif
                        1072 --369:           break;
                        1073 --370:         }
                        1074 --371:       break;
000003a0 c505*          1075 	br	.L351
                        1076 .L353:
                        1077 --373:   default:
                        1078 --374:     return( R_ISM_ERR_NG );
                        1079 --line374
                        1080 ..lin.D.3A.5CRenesas_Electronics.5CD1x_RGL.5Crgl_ghs_D1Lx_obj_V1.2E2.2E0.5Cvlib.5Capp.5Cgfx_apps.5Csimple_draw_d1l2.5Ctarget.5Cd1lx_mango_ghs.5Cobj.5Cqlapbismv1_p.53::
                        1081 .LDWlin53:
000003a2 0052           1082 	mov	0,r10
000003a4 b505*          1083 	br	.L332
                        1084 .L355:
                        1085 --line373
                        1086 ..lin.D.3A.5CRenesas_Electronics.5CD1x_RGL.5Crgl_ghs_D1Lx_obj_V1.2E2.2E0.5Cvlib.5Capp.5Cgfx_apps.5Csimple_draw_d1l2.5Ctarget.5Cd1lx_mango_ghs.5Cobj.5Cqlapbismv1_p.54::
                        1087 .LDWlin54:
000003a6 e5fd*          1088 	br	.L353
                        1089 .L351:
                        1090 --375:     }
                        1091 --377:   } // switch( UnitNumber )
                        1092 --379:   return( R_ISM_ERR_OK );
                        1093 --line379
                        1094 ..lin.D.3A.5CRenesas_Electronics.5CD1x_RGL.5Crgl_ghs_D1Lx_obj_V1.2E2.2E0.5Cvlib.5Capp.5Cgfx_apps.5Csimple_draw_d1l2.5Ctarget.5Cd1lx_mango_ghs.5Cobj.5Cqlapbismv1_p.55::
                        1095 .LDWlin55:
000003a8 0152           1096 	mov	1,r10
                        1097 .L332:
                        1098 --	    .ef
                        1099 .LDW92:
000003aa 4206ff00       1100 	dispose	1,{r28,r29,r31},[lp]
                        1101 	.type	_R_ISM_PortEnable,@function
                        1102 	.size	_R_ISM_PortEnable,.-_R_ISM_PortEnable
                        1103 	.align	2
                        1104 .LDW03:
                        1105 
                        1106 --_UnitNumber_u08	r29	param
                        1107 --_ChannelNumber_u08	r28	param
                        1108 
                        1109 	.section ".bss","awb"
                        1110 .L454:
                        1111 	.type	.L454,@object
                        1112 	.size	.L454,0
                        1113 	.data
                        1114 	.text
                        1115 
                        1116 --380: }
                        1117 

                                                                      Page 21
                                                              C:\Users\YINGAO~1\AppData\Local\Temp\gh_00008201.si
                        1118 --382: /*=============================================================================
                        1119 --383:   FunctionName: R_ISM_PortDisable
                        1120 --384:   IN  : UnitNumber: Selected Macro
                        1121 --385:   OUT : Error Flag
                        1122 --386:   Description :
                        1123 --387:   Release ISM I/O ports to normal port function
                        1124 --388:   =============================================================================*/
                        1125 --389: uint32_t R_ISM_PortDisable( uint8_t UnitNumber_u08,
                        1126 	.align	2
                        1127 	.align	2
                        1128 	.global	_R_ISM_PortDisable
                        1129 _R_ISM_PortDisable:
000003ae 8007e100       1130 	prepare	{r28,r29,r31},0
000003b2 c6eeff00       1131 	andi	255,r6,r29
000003b6 c7e6ff00       1132 	andi	255,r7,r28
                        1133 --	    .bf
                        1134 .LDW13:
                        1135 --390:                           uint8_t ChannelNumber_u08 )
                        1136 --391: {
                        1137 --392:   if( UnitNumber_u08 >= R_ISM_MACRO_NUM ) return( R_ISM_ERR_NG );
000003ba 61ea           1138 	cmp	1,r29
000003bc c105*          1139 	bl	.L607
                        1140 --line392
                        1141 ..lin.D.3A.5CRenesas_Electronics.5CD1x_RGL.5Crgl_ghs_D1Lx_obj_V1.2E2.2E0.5Cvlib.5Capp.5Cgfx_apps.5Csimple_draw_d1l2.5Ctarget.5Cd1lx_mango_ghs.5Cobj.5Cqlapbismv1_p.56::
                        1142 .LDWlin56:
000003be 0052           1143 	mov	0,r10
000003c0 80075401*      1144 	br	.L605
                        1145 .L607:
                        1146 --393:   if( ChannelNumber_u08 >= R_ISM_CHANNELS ) return( R_ISM_ERR_NG );
                        1147 --line393
                        1148 ..lin.D.3A.5CRenesas_Electronics.5CD1x_RGL.5Crgl_ghs_D1Lx_obj_V1.2E2.2E0.5Cvlib.5Capp.5Cgfx_apps.5Csimple_draw_d1l2.5Ctarget.5Cd1lx_mango_ghs.5Cobj.5Cqlapbismv1_p.57::
                        1149 .LDWlin57:
000003c4 66e2           1150 	cmp	6,r28
000003c6 c105*          1151 	bl	.L610
                        1152 --line393
                        1153 ..lin.D.3A.5CRenesas_Electronics.5CD1x_RGL.5Crgl_ghs_D1Lx_obj_V1.2E2.2E0.5Cvlib.5Capp.5Cgfx_apps.5Csimple_draw_d1l2.5Ctarget.5Cd1lx_mango_ghs.5Cobj.5Cqlapbismv1_p.58::
                        1154 .LDWlin58:
000003c8 0052           1155 	mov	0,r10
000003ca 80074a01*      1156 	br	.L605
                        1157 .L610:
                        1158 --395:   switch( UnitNumber_u08 ) {
                        1159 --line395
                        1160 ..lin.D.3A.5CRenesas_Electronics.5CD1x_RGL.5Crgl_ghs_D1Lx_obj_V1.2E2.2E0.5Cvlib.5Capp.5Cgfx_apps.5Csimple_draw_d1l2.5Ctarget.5Cd1lx_mango_ghs.5Cobj.5Cqlapbismv1_p.59::
                        1161 .LDWlin59:
000003ce e0e9           1162 	cmp	zero,r29
000003d0 ea074101*      1163 	bne	.L628
                        1164 --397:   case R_ISM_UNIT:
                        1165 --398:     {
                        1166 --399:       switch( ChannelNumber_u08 )
                        1167 --line399
                        1168 ..lin.D.3A.5CRenesas_Electronics.5CD1x_RGL.5Crgl_ghs_D1Lx_obj_V1.2E2.2E0.5Cvlib.5Capp.5Cgfx_apps.5Csimple_draw_d1l2.5Ctarget.5Cd1lx_mango_ghs.5Cobj.5Cqlapbismv1_p.60::
                        1169 .LDWlin60:
000003d4 1c08           1170 	mov	r28,r1
000003d6 630a           1171 	cmp	3,r1
000003d8 d905*          1172 	bnl	.L729
000003da 610a           1173 	cmp	1,r1
000003dc a10d*          1174 	bl	.L618
000003de eb35*          1175 	bh	.L620
000003e0 d51d*          1176 	br	.L619
                        1177 .L729:
000003e2 640a           1178 	cmp	4,r1

                                                                      Page 22
                                                              C:\Users\YINGAO~1\AppData\Local\Temp\gh_00008201.si
000003e4 c14d*          1179 	bl	.L621
000003e6 c265*          1180 	be	.L622
000003e8 650a           1181 	cmp	5,r1
000003ea ea072101*      1182 	bne	.L616
000003ee 957d*          1183 	br	.L623
                        1184 .L618:
                        1185 --400:         {
                        1186 --402:         case R_ISM_CHANNEL0:
                        1187 --403:  
                        1188 --404: #ifdef R_ISM_PORT_SINPFB0
                        1189 --405:           PORT_Disable( R_ISM_PORT_SINPFB0, R_ISM_PORT_BIT_SINPFB0 );
                        1190 --line405
                        1191 ..lin.D.3A.5CRenesas_Electronics.5CD1x_RGL.5Crgl_ghs_D1Lx_obj_V1.2E2.2E0.5Cvlib.5Capp.5Cgfx_apps.5Csimple_draw_d1l2.5Ctarget.5Cd1lx_mango_ghs.5Cobj.5Cqlapbismv1_p.61::
                        1192 .LDWlin61:
000003f0 20361000       1193 	movea	16,zero,r6
000003f4 013a           1194 	mov	1,r7
                        1195 	jarl	_PORT_Disable,lp
                        1195 <EXPANSION BEGIN>
                        1195 jarl22 _PORT_Disable , lp 
000003f6 80ff0000*      1195 <EXPANSION END>
                        1196 --406: #endif
                        1197 --407: #ifdef R_ISM_PORT_SINMFB0
                        1198 --408:           PORT_Disable( R_ISM_PORT_SINMFB0, R_ISM_PORT_BIT_SINMFB0 );
                        1199 --line408
                        1200 ..lin.D.3A.5CRenesas_Electronics.5CD1x_RGL.5Crgl_ghs_D1Lx_obj_V1.2E2.2E0.5Cvlib.5Capp.5Cgfx_apps.5Csimple_draw_d1l2.5Ctarget.5Cd1lx_mango_ghs.5Cobj.5Cqlapbismv1_p.62::
                        1201 .LDWlin62:
000003fa 20361000       1202 	movea	16,zero,r6
000003fe 023a           1203 	mov	2,r7
                        1204 	jarl	_PORT_Disable,lp
                        1204 <EXPANSION BEGIN>
                        1204 jarl22 _PORT_Disable , lp 
00000400 80ff0000*      1204 <EXPANSION END>
                        1205 --409: #endif
                        1206 --410: #ifdef R_ISM_PORT_COSPFB0
                        1207 --411:           PORT_Disable( R_ISM_PORT_COSPFB0, R_ISM_PORT_BIT_COSPFB0 );
                        1208 --line411
                        1209 ..lin.D.3A.5CRenesas_Electronics.5CD1x_RGL.5Crgl_ghs_D1Lx_obj_V1.2E2.2E0.5Cvlib.5Capp.5Cgfx_apps.5Csimple_draw_d1l2.5Ctarget.5Cd1lx_mango_ghs.5Cobj.5Cqlapbismv1_p.63::
                        1210 .LDWlin63:
00000404 20361000       1211 	movea	16,zero,r6
00000408 043a           1212 	mov	4,r7
                        1213 	jarl	_PORT_Disable,lp
                        1213 <EXPANSION BEGIN>
                        1213 jarl22 _PORT_Disable , lp 
0000040a 80ff0000*      1213 <EXPANSION END>
                        1214 --412: #endif
                        1215 --413: #ifdef R_ISM_PORT_COSMFB0
                        1216 --414:           PORT_Disable( R_ISM_PORT_COSMFB0, R_ISM_PORT_BIT_COSMFB0 );
                        1217 --line414
                        1218 ..lin.D.3A.5CRenesas_Electronics.5CD1x_RGL.5Crgl_ghs_D1Lx_obj_V1.2E2.2E0.5Cvlib.5Capp.5Cgfx_apps.5Csimple_draw_d1l2.5Ctarget.5Cd1lx_mango_ghs.5Cobj.5Cqlapbismv1_p.64::
                        1219 .LDWlin64:
0000040e 20361000       1220 	movea	16,zero,r6
00000412 083a           1221 	mov	8,r7
                        1222 	jarl	_PORT_Disable,lp
                        1222 <EXPANSION BEGIN>
                        1222 jarl22 _PORT_Disable , lp 
00000414 80ff0000*      1222 <EXPANSION END>
                        1223 --line417
                        1224 ..lin.D.3A.5CRenesas_Electronics.5CD1x_RGL.5Crgl_ghs_D1Lx_obj_V1.2E2.2E0.5Cvlib.5Capp.5Cgfx_apps.5Csimple_draw_d1l2.5Ctarget.5Cd1lx_mango_ghs.5Cobj.5Cqlapbismv1_p.65::
                        1225 .LDWlin65:
00000418 957d*          1226 	br	.L616
                        1227 .L619:

                                                                      Page 23
                                                              C:\Users\YINGAO~1\AppData\Local\Temp\gh_00008201.si
                        1228 --415: #endif
                        1229 --417:           break;
                        1230 --419:         case R_ISM_CHANNEL1:
                        1231 --420: #ifdef R_ISM_PORT_SINPFB1
                        1232 --421:           PORT_Disable( R_ISM_PORT_SINPFB1, R_ISM_PORT_BIT_SINPFB1 );
                        1233 --line421
                        1234 ..lin.D.3A.5CRenesas_Electronics.5CD1x_RGL.5Crgl_ghs_D1Lx_obj_V1.2E2.2E0.5Cvlib.5Capp.5Cgfx_apps.5Csimple_draw_d1l2.5Ctarget.5Cd1lx_mango_ghs.5Cobj.5Cqlapbismv1_p.66::
                        1235 .LDWlin66:
0000041a 20361000       1236 	movea	16,zero,r6
0000041e 0638           1237 	mov	r6,r7
                        1238 	jarl	_PORT_Disable,lp
                        1238 <EXPANSION BEGIN>
                        1238 jarl22 _PORT_Disable , lp 
00000420 80ff0000*      1238 <EXPANSION END>
                        1239 --422: #endif
                        1240 --423: #ifdef R_ISM_PORT_SINMFB1
                        1241 --424:           PORT_Disable( R_ISM_PORT_SINMFB1, R_ISM_PORT_BIT_SINMFB1 );
                        1242 --line424
                        1243 ..lin.D.3A.5CRenesas_Electronics.5CD1x_RGL.5Crgl_ghs_D1Lx_obj_V1.2E2.2E0.5Cvlib.5Capp.5Cgfx_apps.5Csimple_draw_d1l2.5Ctarget.5Cd1lx_mango_ghs.5Cobj.5Cqlapbismv1_p.67::
                        1244 .LDWlin67:
00000424 20361000       1245 	movea	16,zero,r6
00000428 203e2000       1246 	movea	32,zero,r7
                        1247 	jarl	_PORT_Disable,lp
                        1247 <EXPANSION BEGIN>
                        1247 jarl22 _PORT_Disable , lp 
0000042c 80ff0000*      1247 <EXPANSION END>
                        1248 --425: #endif
                        1249 --426: #ifdef R_ISM_PORT_COSPFB1
                        1250 --427:           PORT_Disable( R_ISM_PORT_COSPFB1, R_ISM_PORT_BIT_COSPFB1 );
                        1251 --line427
                        1252 ..lin.D.3A.5CRenesas_Electronics.5CD1x_RGL.5Crgl_ghs_D1Lx_obj_V1.2E2.2E0.5Cvlib.5Capp.5Cgfx_apps.5Csimple_draw_d1l2.5Ctarget.5Cd1lx_mango_ghs.5Cobj.5Cqlapbismv1_p.68::
                        1253 .LDWlin68:
00000430 20361000       1254 	movea	16,zero,r6
00000434 203e4000       1255 	movea	64,zero,r7
                        1256 	jarl	_PORT_Disable,lp
                        1256 <EXPANSION BEGIN>
                        1256 jarl22 _PORT_Disable , lp 
00000438 80ff0000*      1256 <EXPANSION END>
                        1257 --428: #endif
                        1258 --429: #ifdef R_ISM_PORT_COSMFB1
                        1259 --430:           PORT_Disable( R_ISM_PORT_COSMFB1, R_ISM_PORT_BIT_COSMFB1 );
                        1260 --line430
                        1261 ..lin.D.3A.5CRenesas_Electronics.5CD1x_RGL.5Crgl_ghs_D1Lx_obj_V1.2E2.2E0.5Cvlib.5Capp.5Cgfx_apps.5Csimple_draw_d1l2.5Ctarget.5Cd1lx_mango_ghs.5Cobj.5Cqlapbismv1_p.69::
                        1262 .LDWlin69:
0000043c 20361000       1263 	movea	16,zero,r6
00000440 203e8000       1264 	movea	128,zero,r7
                        1265 	jarl	_PORT_Disable,lp
                        1265 <EXPANSION BEGIN>
                        1265 jarl22 _PORT_Disable , lp 
00000444 80ff0000*      1265 <EXPANSION END>
                        1266 --line432
                        1267 ..lin.D.3A.5CRenesas_Electronics.5CD1x_RGL.5Crgl_ghs_D1Lx_obj_V1.2E2.2E0.5Cvlib.5Capp.5Cgfx_apps.5Csimple_draw_d1l2.5Ctarget.5Cd1lx_mango_ghs.5Cobj.5Cqlapbismv1_p.70::
                        1268 .LDWlin70:
00000448 9565*          1269 	br	.L616
                        1270 .L620:
                        1271 --431: #endif
                        1272 --432:           break;
                        1273 --434:         case R_ISM_CHANNEL2:
                        1274 --435: #ifdef R_ISM_PORT_SINPFB2
                        1275 --436:           PORT_Disable( R_ISM_PORT_SINPFB2, R_ISM_PORT_BIT_SINPFB2 );
                        1276 --line436

                                                                      Page 24
                                                              C:\Users\YINGAO~1\AppData\Local\Temp\gh_00008201.si
                        1277 ..lin.D.3A.5CRenesas_Electronics.5CD1x_RGL.5Crgl_ghs_D1Lx_obj_V1.2E2.2E0.5Cvlib.5Capp.5Cgfx_apps.5Csimple_draw_d1l2.5Ctarget.5Cd1lx_mango_ghs.5Cobj.5Cqlapbismv1_p.71::
                        1278 .LDWlin71:
0000044a 20361100       1279 	movea	17,zero,r6
0000044e 203e1000       1280 	movea	16,zero,r7
                        1281 	jarl	_PORT_Disable,lp
                        1281 <EXPANSION BEGIN>
                        1281 jarl22 _PORT_Disable , lp 
00000452 80ff0000*      1281 <EXPANSION END>
                        1282 --437: #endif
                        1283 --438: #ifdef R_ISM_PORT_SINMFB2
                        1284 --439:           PORT_Disable( R_ISM_PORT_SINMFB2, R_ISM_PORT_BIT_SINMFB2 );
                        1285 --line439
                        1286 ..lin.D.3A.5CRenesas_Electronics.5CD1x_RGL.5Crgl_ghs_D1Lx_obj_V1.2E2.2E0.5Cvlib.5Capp.5Cgfx_apps.5Csimple_draw_d1l2.5Ctarget.5Cd1lx_mango_ghs.5Cobj.5Cqlapbismv1_p.72::
                        1287 .LDWlin72:
00000456 20361100       1288 	movea	17,zero,r6
0000045a 203e2000       1289 	movea	32,zero,r7
                        1290 	jarl	_PORT_Disable,lp
                        1290 <EXPANSION BEGIN>
                        1290 jarl22 _PORT_Disable , lp 
0000045e 80ff0000*      1290 <EXPANSION END>
                        1291 --440: #endif
                        1292 --441: #ifdef R_ISM_PORT_COSPFB2
                        1293 --442:           PORT_Disable( R_ISM_PORT_COSPFB2, R_ISM_PORT_BIT_COSPFB2 );
                        1294 --line442
                        1295 ..lin.D.3A.5CRenesas_Electronics.5CD1x_RGL.5Crgl_ghs_D1Lx_obj_V1.2E2.2E0.5Cvlib.5Capp.5Cgfx_apps.5Csimple_draw_d1l2.5Ctarget.5Cd1lx_mango_ghs.5Cobj.5Cqlapbismv1_p.73::
                        1296 .LDWlin73:
00000462 20361100       1297 	movea	17,zero,r6
00000466 203e4000       1298 	movea	64,zero,r7
                        1299 	jarl	_PORT_Disable,lp
                        1299 <EXPANSION BEGIN>
                        1299 jarl22 _PORT_Disable , lp 
0000046a 80ff0000*      1299 <EXPANSION END>
                        1300 --443: #endif
                        1301 --444: #ifdef R_ISM_PORT_COSMFB2
                        1302 --445:           PORT_Disable( R_ISM_PORT_COSMFB2, R_ISM_PORT_BIT_COSMFB2 );
                        1303 --line445
                        1304 ..lin.D.3A.5CRenesas_Electronics.5CD1x_RGL.5Crgl_ghs_D1Lx_obj_V1.2E2.2E0.5Cvlib.5Capp.5Cgfx_apps.5Csimple_draw_d1l2.5Ctarget.5Cd1lx_mango_ghs.5Cobj.5Cqlapbismv1_p.74::
                        1305 .LDWlin74:
0000046e 20361100       1306 	movea	17,zero,r6
00000472 203e8000       1307 	movea	128,zero,r7
                        1308 	jarl	_PORT_Disable,lp
                        1308 <EXPANSION BEGIN>
                        1308 jarl22 _PORT_Disable , lp 
00000476 80ff0000*      1308 <EXPANSION END>
                        1309 --line447
                        1310 ..lin.D.3A.5CRenesas_Electronics.5CD1x_RGL.5Crgl_ghs_D1Lx_obj_V1.2E2.2E0.5Cvlib.5Capp.5Cgfx_apps.5Csimple_draw_d1l2.5Ctarget.5Cd1lx_mango_ghs.5Cobj.5Cqlapbismv1_p.75::
                        1311 .LDWlin75:
0000047a 854d*          1312 	br	.L616
                        1313 .L621:
                        1314 --446: #endif
                        1315 --447:           break;
                        1316 --449:         case R_ISM_CHANNEL3:
                        1317 --450: #ifdef R_ISM_PORT_SINPFB3
                        1318 --451:           PORT_Disable( R_ISM_PORT_SINPFB3, R_ISM_PORT_BIT_SINPFB3 );
                        1319 --line451
                        1320 ..lin.D.3A.5CRenesas_Electronics.5CD1x_RGL.5Crgl_ghs_D1Lx_obj_V1.2E2.2E0.5Cvlib.5Capp.5Cgfx_apps.5Csimple_draw_d1l2.5Ctarget.5Cd1lx_mango_ghs.5Cobj.5Cqlapbismv1_p.76::
                        1321 .LDWlin76:
0000047c 20361100       1322 	movea	17,zero,r6
00000480 203e0001       1323 	movea	256,zero,r7
                        1324 	jarl	_PORT_Disable,lp
                        1324 <EXPANSION BEGIN>

                                                                      Page 25
                                                              C:\Users\YINGAO~1\AppData\Local\Temp\gh_00008201.si
                        1324 jarl22 _PORT_Disable , lp 
00000484 80ff0000*      1324 <EXPANSION END>
                        1325 --452: #endif
                        1326 --453: #ifdef R_ISM_PORT_SINMFB3
                        1327 --454:           PORT_Disable( R_ISM_PORT_SINMFB3, R_ISM_PORT_BIT_SINMFB3 );
                        1328 --line454
                        1329 ..lin.D.3A.5CRenesas_Electronics.5CD1x_RGL.5Crgl_ghs_D1Lx_obj_V1.2E2.2E0.5Cvlib.5Capp.5Cgfx_apps.5Csimple_draw_d1l2.5Ctarget.5Cd1lx_mango_ghs.5Cobj.5Cqlapbismv1_p.77::
                        1330 .LDWlin77:
00000488 20361100       1331 	movea	17,zero,r6
0000048c 203e0002       1332 	movea	512,zero,r7
                        1333 	jarl	_PORT_Disable,lp
                        1333 <EXPANSION BEGIN>
                        1333 jarl22 _PORT_Disable , lp 
00000490 80ff0000*      1333 <EXPANSION END>
                        1334 --455: #endif
                        1335 --456: #ifdef R_ISM_PORT_COSPFB3
                        1336 --457:           PORT_Disable( R_ISM_PORT_COSPFB3, R_ISM_PORT_BIT_COSPFB3 );
                        1337 --line457
                        1338 ..lin.D.3A.5CRenesas_Electronics.5CD1x_RGL.5Crgl_ghs_D1Lx_obj_V1.2E2.2E0.5Cvlib.5Capp.5Cgfx_apps.5Csimple_draw_d1l2.5Ctarget.5Cd1lx_mango_ghs.5Cobj.5Cqlapbismv1_p.78::
                        1339 .LDWlin78:
00000494 20361100       1340 	movea	17,zero,r6
00000498 203e0004       1341 	movea	1024,zero,r7
                        1342 	jarl	_PORT_Disable,lp
                        1342 <EXPANSION BEGIN>
                        1342 jarl22 _PORT_Disable , lp 
0000049c 80ff0000*      1342 <EXPANSION END>
                        1343 --458: #endif
                        1344 --459: #ifdef R_ISM_PORT_COSMFB3
                        1345 --460:           PORT_Disable( R_ISM_PORT_COSMFB3, R_ISM_PORT_BIT_COSMFB3 );
                        1346 --line460
                        1347 ..lin.D.3A.5CRenesas_Electronics.5CD1x_RGL.5Crgl_ghs_D1Lx_obj_V1.2E2.2E0.5Cvlib.5Capp.5Cgfx_apps.5Csimple_draw_d1l2.5Ctarget.5Cd1lx_mango_ghs.5Cobj.5Cqlapbismv1_p.79::
                        1348 .LDWlin79:
000004a0 20361100       1349 	movea	17,zero,r6
000004a4 203e0008       1350 	movea	2048,zero,r7
                        1351 	jarl	_PORT_Disable,lp
                        1351 <EXPANSION BEGIN>
                        1351 jarl22 _PORT_Disable , lp 
000004a8 80ff0000*      1351 <EXPANSION END>
                        1352 --line462
                        1353 ..lin.D.3A.5CRenesas_Electronics.5CD1x_RGL.5Crgl_ghs_D1Lx_obj_V1.2E2.2E0.5Cvlib.5Capp.5Cgfx_apps.5Csimple_draw_d1l2.5Ctarget.5Cd1lx_mango_ghs.5Cobj.5Cqlapbismv1_p.80::
                        1354 .LDWlin80:
000004ac f52d*          1355 	br	.L616
                        1356 .L622:
                        1357 --461: #endif
                        1358 --462:           break;
                        1359 --464:         case R_ISM_CHANNEL4:
                        1360 --465: #ifdef R_ISM_PORT_SINPFB4
                        1361 --466:           PORT_Disable( R_ISM_PORT_SINPFB4, R_ISM_PORT_BIT_SINPFB4 );
                        1362 --line466
                        1363 ..lin.D.3A.5CRenesas_Electronics.5CD1x_RGL.5Crgl_ghs_D1Lx_obj_V1.2E2.2E0.5Cvlib.5Capp.5Cgfx_apps.5Csimple_draw_d1l2.5Ctarget.5Cd1lx_mango_ghs.5Cobj.5Cqlapbismv1_p.81::
                        1364 .LDWlin81:
000004ae 20361000       1365 	movea	16,zero,r6
000004b2 203e0001       1366 	movea	256,zero,r7
                        1367 	jarl	_PORT_Disable,lp
                        1367 <EXPANSION BEGIN>
                        1367 jarl22 _PORT_Disable , lp 
000004b6 80ff0000*      1367 <EXPANSION END>
                        1368 --467: #endif
                        1369 --468: #ifdef R_ISM_PORT_SINMFB4
                        1370 --469:           PORT_Disable( R_ISM_PORT_SINMFB4, R_ISM_PORT_BIT_SINMFB4 );
                        1371 --line469

                                                                      Page 26
                                                              C:\Users\YINGAO~1\AppData\Local\Temp\gh_00008201.si
                        1372 ..lin.D.3A.5CRenesas_Electronics.5CD1x_RGL.5Crgl_ghs_D1Lx_obj_V1.2E2.2E0.5Cvlib.5Capp.5Cgfx_apps.5Csimple_draw_d1l2.5Ctarget.5Cd1lx_mango_ghs.5Cobj.5Cqlapbismv1_p.82::
                        1373 .LDWlin82:
000004ba 20361000       1374 	movea	16,zero,r6
000004be 203e0002       1375 	movea	512,zero,r7
                        1376 	jarl	_PORT_Disable,lp
                        1376 <EXPANSION BEGIN>
                        1376 jarl22 _PORT_Disable , lp 
000004c2 80ff0000*      1376 <EXPANSION END>
                        1377 --470: #endif
                        1378 --471: #ifdef R_ISM_PORT_COSPFB4
                        1379 --472:           PORT_Disable( R_ISM_PORT_COSPFB4, R_ISM_PORT_BIT_COSPFB4 );
                        1380 --line472
                        1381 ..lin.D.3A.5CRenesas_Electronics.5CD1x_RGL.5Crgl_ghs_D1Lx_obj_V1.2E2.2E0.5Cvlib.5Capp.5Cgfx_apps.5Csimple_draw_d1l2.5Ctarget.5Cd1lx_mango_ghs.5Cobj.5Cqlapbismv1_p.83::
                        1382 .LDWlin83:
000004c6 20361000       1383 	movea	16,zero,r6
000004ca 203e0004       1384 	movea	1024,zero,r7
                        1385 	jarl	_PORT_Disable,lp
                        1385 <EXPANSION BEGIN>
                        1385 jarl22 _PORT_Disable , lp 
000004ce 80ff0000*      1385 <EXPANSION END>
                        1386 --473: #endif
                        1387 --474: #ifdef R_ISM_PORT_COSMFB4
                        1388 --475:           PORT_Disable( R_ISM_PORT_COSMFB4, R_ISM_PORT_BIT_COSMFB4 );
                        1389 --line475
                        1390 ..lin.D.3A.5CRenesas_Electronics.5CD1x_RGL.5Crgl_ghs_D1Lx_obj_V1.2E2.2E0.5Cvlib.5Capp.5Cgfx_apps.5Csimple_draw_d1l2.5Ctarget.5Cd1lx_mango_ghs.5Cobj.5Cqlapbismv1_p.84::
                        1391 .LDWlin84:
000004d2 20361000       1392 	movea	16,zero,r6
000004d6 203e0008       1393 	movea	2048,zero,r7
                        1394 	jarl	_PORT_Disable,lp
                        1394 <EXPANSION BEGIN>
                        1394 jarl22 _PORT_Disable , lp 
000004da 80ff0000*      1394 <EXPANSION END>
                        1395 --line477
                        1396 ..lin.D.3A.5CRenesas_Electronics.5CD1x_RGL.5Crgl_ghs_D1Lx_obj_V1.2E2.2E0.5Cvlib.5Capp.5Cgfx_apps.5Csimple_draw_d1l2.5Ctarget.5Cd1lx_mango_ghs.5Cobj.5Cqlapbismv1_p.85::
                        1397 .LDWlin85:
000004de e515*          1398 	br	.L616
                        1399 .L623:
                        1400 --476: #endif
                        1401 --477:           break;
                        1402 --479:         case R_ISM_CHANNEL5:
                        1403 --480: #ifdef R_ISM_PORT_SINPFB5
                        1404 --481:           PORT_Disable( R_ISM_PORT_SINPFB5, R_ISM_PORT_BIT_SINPFB5 );
                        1405 --line481
                        1406 ..lin.D.3A.5CRenesas_Electronics.5CD1x_RGL.5Crgl_ghs_D1Lx_obj_V1.2E2.2E0.5Cvlib.5Capp.5Cgfx_apps.5Csimple_draw_d1l2.5Ctarget.5Cd1lx_mango_ghs.5Cobj.5Cqlapbismv1_p.86::
                        1407 .LDWlin86:
000004e0 20361100       1408 	movea	17,zero,r6
000004e4 013a           1409 	mov	1,r7
                        1410 	jarl	_PORT_Disable,lp
                        1410 <EXPANSION BEGIN>
                        1410 jarl22 _PORT_Disable , lp 
000004e6 80ff0000*      1410 <EXPANSION END>
                        1411 --482: #endif
                        1412 --483: #ifdef R_ISM_PORT_SINMFB5
                        1413 --484:           PORT_Disable( R_ISM_PORT_SINMFB5, R_ISM_PORT_BIT_SINMFB5 );
                        1414 --line484
                        1415 ..lin.D.3A.5CRenesas_Electronics.5CD1x_RGL.5Crgl_ghs_D1Lx_obj_V1.2E2.2E0.5Cvlib.5Capp.5Cgfx_apps.5Csimple_draw_d1l2.5Ctarget.5Cd1lx_mango_ghs.5Cobj.5Cqlapbismv1_p.87::
                        1416 .LDWlin87:
000004ea 20361100       1417 	movea	17,zero,r6
000004ee 023a           1418 	mov	2,r7
                        1419 	jarl	_PORT_Disable,lp
                        1419 <EXPANSION BEGIN>

                                                                      Page 27
                                                              C:\Users\YINGAO~1\AppData\Local\Temp\gh_00008201.si
                        1419 jarl22 _PORT_Disable , lp 
000004f0 80ff0000*      1419 <EXPANSION END>
                        1420 --485: #endif
                        1421 --486: #ifdef R_ISM_PORT_COSPFB5
                        1422 --487:           PORT_Disable( R_ISM_PORT_COSPFB5, R_ISM_PORT_BIT_COSPFB5 );
                        1423 --line487
                        1424 ..lin.D.3A.5CRenesas_Electronics.5CD1x_RGL.5Crgl_ghs_D1Lx_obj_V1.2E2.2E0.5Cvlib.5Capp.5Cgfx_apps.5Csimple_draw_d1l2.5Ctarget.5Cd1lx_mango_ghs.5Cobj.5Cqlapbismv1_p.88::
                        1425 .LDWlin88:
000004f4 20361100       1426 	movea	17,zero,r6
000004f8 043a           1427 	mov	4,r7
                        1428 	jarl	_PORT_Disable,lp
                        1428 <EXPANSION BEGIN>
                        1428 jarl22 _PORT_Disable , lp 
000004fa 80ff0000*      1428 <EXPANSION END>
                        1429 --488: #endif
                        1430 --489: #ifdef R_ISM_PORT_COSMFB5
                        1431 --490:           PORT_Disable( R_ISM_PORT_COSMFB5, R_ISM_PORT_BIT_COSMFB5 );
                        1432 --line490
                        1433 ..lin.D.3A.5CRenesas_Electronics.5CD1x_RGL.5Crgl_ghs_D1Lx_obj_V1.2E2.2E0.5Cvlib.5Capp.5Cgfx_apps.5Csimple_draw_d1l2.5Ctarget.5Cd1lx_mango_ghs.5Cobj.5Cqlapbismv1_p.89::
                        1434 .LDWlin89:
000004fe 20361100       1435 	movea	17,zero,r6
00000502 083a           1436 	mov	8,r7
                        1437 	jarl	_PORT_Disable,lp
                        1437 <EXPANSION BEGIN>
                        1437 jarl22 _PORT_Disable , lp 
00000504 80ff0000*      1437 <EXPANSION END>
                        1438 --line492
                        1439 ..lin.D.3A.5CRenesas_Electronics.5CD1x_RGL.5Crgl_ghs_D1Lx_obj_V1.2E2.2E0.5Cvlib.5Capp.5Cgfx_apps.5Csimple_draw_d1l2.5Ctarget.5Cd1lx_mango_ghs.5Cobj.5Cqlapbismv1_p.90::
                        1440 .LDWlin90:
00000508 0000           1441 	nop
                        1442 .L616:
                        1443 --491: #endif
                        1444 --492:           break;
                        1445 --493:         }
                        1446 --494:       break;
0000050a c505*          1447 	br	.L624
                        1448 .L626:
                        1449 --496:     default:
                        1450 --497:       return( R_ISM_ERR_NG );
                        1451 --line497
                        1452 ..lin.D.3A.5CRenesas_Electronics.5CD1x_RGL.5Crgl_ghs_D1Lx_obj_V1.2E2.2E0.5Cvlib.5Capp.5Cgfx_apps.5Csimple_draw_d1l2.5Ctarget.5Cd1lx_mango_ghs.5Cobj.5Cqlapbismv1_p.91::
                        1453 .LDWlin91:
0000050c 0052           1454 	mov	0,r10
0000050e b505*          1455 	br	.L605
                        1456 .L628:
                        1457 --line496
                        1458 ..lin.D.3A.5CRenesas_Electronics.5CD1x_RGL.5Crgl_ghs_D1Lx_obj_V1.2E2.2E0.5Cvlib.5Capp.5Cgfx_apps.5Csimple_draw_d1l2.5Ctarget.5Cd1lx_mango_ghs.5Cobj.5Cqlapbismv1_p.92::
                        1459 .LDWlin92:
00000510 e5fd*          1460 	br	.L626
                        1461 .L624:
                        1462 --498:     }
                        1463 --500:   } // switch( UnitNumber )
                        1464 --502:   return( R_ISM_ERR_OK );
                        1465 --line502
                        1466 ..lin.D.3A.5CRenesas_Electronics.5CD1x_RGL.5Crgl_ghs_D1Lx_obj_V1.2E2.2E0.5Cvlib.5Capp.5Cgfx_apps.5Csimple_draw_d1l2.5Ctarget.5Cd1lx_mango_ghs.5Cobj.5Cqlapbismv1_p.93::
                        1467 .LDWlin93:
00000512 0152           1468 	mov	1,r10
                        1469 .L605:
                        1470 --	    .ef
                        1471 .LDW23:
00000514 4006ff00       1472 	dispose	0,{r28,r29,r31},[lp]

                                                                      Page 28
                                                              C:\Users\YINGAO~1\AppData\Local\Temp\gh_00008201.si
                        1473 	.type	_R_ISM_PortDisable,@function
                        1474 	.size	_R_ISM_PortDisable,.-_R_ISM_PortDisable
                        1475 	.align	2
                        1476 .LDW33:
                        1477 
                        1478 --_UnitNumber_u08	r29	param
                        1479 --_ChannelNumber_u08	r28	param
                        1480 
                        1481 	.section ".bss","awb"
                        1482 .L726:
                        1483 	.type	.L726,@object
                        1484 	.size	.L726,0
                        1485 	.data
                        1486 	.text
                        1487 
                        1488 --503: }
                        1489 
                        1490 --505: /*=============================================================================
                        1491 --506:   FunctionName: R_ISM_CreateInterrupt
                        1492 --507:   IN  :         Unit Number, Int Number, Int Level,
                        1493 --508:                 Int Function Vector
                        1494 --509:   OUT :         Success Status
                        1495 --510:   Description : Enables and Sets Interrupt Vector to given Function
                        1496 --512:   =============================================================================*/
                        1497 --513: uint32_t R_ISM_CreateInterrupt( uint8_t  UnitNumber_u08,
                        1498 	.align	2
                        1499 	.align	2
                        1500 	.global	_R_ISM_CreateInterrupt
                        1501 _R_ISM_CreateInterrupt:
00000518 80074100       1502 	prepare	{r29},0
0000051c c676ff00       1503 	andi	255,r6,r14
00000520 c76eff00       1504 	andi	255,r7,r13
00000524 c85effff       1505 	andi	65535,r8,r11
00000528 0960           1506 	mov	r9,r12
                        1507 --	    .bf
                        1508 .LDW43:
                        1509 --514:                               uint8_t  IntNumber_u08,
                        1510 --515:                               uint16_t  SetIntLevel_u16,
                        1511 --516:                               void ( *FunctionVector )( ) )
                        1512 --517: {
                        1513 --518:   uint16_t IntLevel_u16 = SetIntLevel_u16;
0000052a 0b08           1514 	mov	r11,r1
                        1515 --520:   if( FunctionVector == NULL ) IntLevel_u16 = R_ISM_INTCLEAR;
0000052c e061           1516 	cmp	zero,r12
0000052e ba05*          1517 	bne	.L879
                        1518 --line520
                        1519 ..lin.D.3A.5CRenesas_Electronics.5CD1x_RGL.5Crgl_ghs_D1Lx_obj_V1.2E2.2E0.5Cvlib.5Capp.5Cgfx_apps.5Csimple_draw_d1l2.5Ctarget.5Cd1lx_mango_ghs.5Cobj.5Cqlapbismv1_p.94::
                        1520 .LDWlin94:
00000530 200e8f00       1521 	movea	143,zero,r1
                        1522 .L879:
                        1523 --522:   R_ISM_CIVector[ ( UnitNumber_u08 *  R_ISM_INT_PERUNIT )
00000534 ee560900       1524 	mulhi	9,r14,r10
00000538 3e0600000000*  1525 	mov	_R_ISM_CIVector,ep
0000053e cd51           1526 	add	r13,r10
00000540 c252           1527 	shl	2,r10
00000542 caf1           1528 	add	r10,ep
00000544 0165           1529 	sst.w	r12,0[ep]
                        1530 --523:                    + IntNumber_u08 ] = FunctionVector;
                        1531 --525:   switch( UnitNumber_u08 )
00000546 e071           1532 	cmp	zero,r14
00000548 ea25*          1533 	bne	.L892

                                                                      Page 29
                                                              C:\Users\YINGAO~1\AppData\Local\Temp\gh_00008201.si
                        1534 --526:     {
                        1535 --527:     case 0:
                        1536 --528:       switch( IntNumber_u08 ) {
                        1537 --line528
                        1538 ..lin.D.3A.5CRenesas_Electronics.5CD1x_RGL.5Crgl_ghs_D1Lx_obj_V1.2E2.2E0.5Cvlib.5Capp.5Cgfx_apps.5Csimple_draw_d1l2.5Ctarget.5Cd1lx_mango_ghs.5Cobj.5Cqlapbismv1_p.95::
                        1539 .LDWlin95:
0000054a 0d50           1540 	mov	r13,r10
0000054c 6152           1541 	cmp	1,r10
0000054e e105*          1542 	bl	.L886
00000550 920d*          1543 	be	.L887
00000552 6352           1544 	cmp	3,r10
00000554 b10d*          1545 	bl	.L888
00000556 cb1d*          1546 	bh	.L890
00000558 d50d*          1547 	br	.L889
                        1548 .L886:
                        1549 --530: #if( defined( R_ISM_INTM0DONE ) )
                        1550 --531:       case ( R_ISM_INT_DONE ):
                        1551 --532:         R_ISM_INTM0DONE = IntLevel_u16;
                        1552 --line532
                        1553 ..lin.D.3A.5CRenesas_Electronics.5CD1x_RGL.5Crgl_ghs_D1Lx_obj_V1.2E2.2E0.5Cvlib.5Capp.5Cgfx_apps.5Csimple_draw_d1l2.5Ctarget.5Cd1lx_mango_ghs.5Cobj.5Cqlapbismv1_p.96::
                        1554 .LDWlin96:
0000055a a007cd0cc2fe   1555 	st.h	r1,4294926668[zero]
00000560 951d*          1556 	br	.L884
                        1557 .L887:
                        1558 --533:         break;
                        1559 --534: #endif
                        1560 --536: #if( defined( R_ISM_INTM0REACHED ) )
                        1561 --537:       case ( R_ISM_INT_REACHED ):
                        1562 --538:         R_ISM_INTM0REACHED = IntLevel_u16;
                        1563 --line538
                        1564 ..lin.D.3A.5CRenesas_Electronics.5CD1x_RGL.5Crgl_ghs_D1Lx_obj_V1.2E2.2E0.5Cvlib.5Capp.5Cgfx_apps.5Csimple_draw_d1l2.5Ctarget.5Cd1lx_mango_ghs.5Cobj.5Cqlapbismv1_p.97::
                        1565 .LDWlin97:
00000562 a007ad0cc2fe   1566 	st.h	r1,4294926666[zero]
00000568 d515*          1567 	br	.L884
                        1568 .L888:
                        1569 --539:         break;
                        1570 --540: #endif
                        1571 --542: #if( defined( R_ISM_INTM0ZPDAD ) )
                        1572 --543:       case ( R_ISM_INT_ZPDAD ):
                        1573 --544:         R_ISM_INTM0ZPDAD = IntLevel_u16;
                        1574 --line544
                        1575 ..lin.D.3A.5CRenesas_Electronics.5CD1x_RGL.5Crgl_ghs_D1Lx_obj_V1.2E2.2E0.5Cvlib.5Capp.5Cgfx_apps.5Csimple_draw_d1l2.5Ctarget.5Cd1lx_mango_ghs.5Cobj.5Cqlapbismv1_p.98::
                        1576 .LDWlin98:
0000056a a007ed0cc2fe   1577 	st.h	r1,4294926670[zero]
00000570 9515*          1578 	br	.L884
                        1579 .L889:
                        1580 --545:         break;
                        1581 --546: #endif
                        1582 --548: #if( defined( R_ISM_INTM0ZPD ) )
                        1583 --549:       case ( R_ISM_INT_ZPD ):
                        1584 --550:         R_ISM_INTM0ZPD = IntLevel_u16;
                        1585 --line550
                        1586 ..lin.D.3A.5CRenesas_Electronics.5CD1x_RGL.5Crgl_ghs_D1Lx_obj_V1.2E2.2E0.5Cvlib.5Capp.5Cgfx_apps.5Csimple_draw_d1l2.5Ctarget.5Cd1lx_mango_ghs.5Cobj.5Cqlapbismv1_p.99::
                        1587 .LDWlin99:
00000572 a0070d0dc2fe   1588 	st.h	r1,4294926672[zero]
                        1589 --551:         rism_p[ UnitNumber_u08 ]->clzp = R_ISM_CHANNEL_ENALL;
00000578 0ef0           1590 	mov	r14,ep
0000057a c2f2           1591 	shl	2,ep
0000057c 3d0600000000*  1592 	mov	_rism_p,r29
00000582 ddf1           1593 	add	r29,ep
00000584 20563f00       1594 	movea	63,zero,r10

                                                                      Page 30
                                                              C:\Users\YINGAO~1\AppData\Local\Temp\gh_00008201.si
00000588 00f5           1595 	sld.w	0[ep],ep
0000058a 5555           1596 	sst.w	r10,168[ep]
0000058c b505*          1597 	br	.L884
                        1598 .L890:
                        1599 --552:         break;
                        1600 --553: #endif
                        1601 --554:       default:
                        1602 --555:         return( R_ISM_ERR_NG );
                        1603 --line555
                        1604 ..lin.D.3A.5CRenesas_Electronics.5CD1x_RGL.5Crgl_ghs_D1Lx_obj_V1.2E2.2E0.5Cvlib.5Capp.5Cgfx_apps.5Csimple_draw_d1l2.5Ctarget.5Cd1lx_mango_ghs.5Cobj.5Cqlapbismv1_p.100::
                        1605 .LDWlin100:
0000058e 0052           1606 	mov	0,r10
00000590 d505*          1607 	br	.L877
                        1608 .L884:
                        1609 --line558
                        1610 ..lin.D.3A.5CRenesas_Electronics.5CD1x_RGL.5Crgl_ghs_D1Lx_obj_V1.2E2.2E0.5Cvlib.5Capp.5Cgfx_apps.5Csimple_draw_d1l2.5Ctarget.5Cd1lx_mango_ghs.5Cobj.5Cqlapbismv1_p.101::
                        1611 .LDWlin101:
00000592 b505*          1612 	br	.L881
                        1613 .L892:
                        1614 --557:       }    /* switch( IntNumber ) */
                        1615 --558:       break;
                        1616 --560:     default:
                        1617 --561:       return( R_ISM_ERR_NG );
                        1618 --line561
                        1619 ..lin.D.3A.5CRenesas_Electronics.5CD1x_RGL.5Crgl_ghs_D1Lx_obj_V1.2E2.2E0.5Cvlib.5Capp.5Cgfx_apps.5Csimple_draw_d1l2.5Ctarget.5Cd1lx_mango_ghs.5Cobj.5Cqlapbismv1_p.102::
                        1620 .LDWlin102:
00000594 0052           1621 	mov	0,r10
00000596 a505*          1622 	br	.L877
                        1623 .L881:
                        1624 --563:     }   /* switch( UnitNumber_u08 ) */
                        1625 --565:   return( R_ISM_ERR_OK );
                        1626 --line565
                        1627 ..lin.D.3A.5CRenesas_Electronics.5CD1x_RGL.5Crgl_ghs_D1Lx_obj_V1.2E2.2E0.5Cvlib.5Capp.5Cgfx_apps.5Csimple_draw_d1l2.5Ctarget.5Cd1lx_mango_ghs.5Cobj.5Cqlapbismv1_p.103::
                        1628 .LDWlin103:
00000598 0152           1629 	mov	1,r10
                        1630 .L877:
                        1631 --	    .ef
                        1632 .LDW53:
0000059a 40065f00       1633 	dispose	0,{r29},[lp]
                        1634 	.type	_R_ISM_CreateInterrupt,@function
                        1635 	.size	_R_ISM_CreateInterrupt,.-_R_ISM_CreateInterrupt
                        1636 	.align	2
                        1637 .LDW63:
                        1638 --_IntLevel_u16	r1	local
                        1639 
                        1640 --_UnitNumber_u08	r14	param
                        1641 --_IntNumber_u08	r13	param
                        1642 --_SetIntLevel_u16	r11	param
                        1643 --_FunctionVector	r12	param
                        1644 
                        1645 	.data
                        1646 	.text
                        1647 
                        1648 --566: }
                        1649 
                        1650 --568: /*=============================================================================
                        1651 --569:   FunctionName: R_ISM_SetZPDGlobals
                        1652 --570:   IN  : UnitNumber: Selected Macro
                        1653 --571:         Global Parameters of ZPD Unit
                        1654 --572:   OUT : Error Flag
                        1655 --573:   Description :

                                                                      Page 31
                                                              C:\Users\YINGAO~1\AppData\Local\Temp\gh_00008201.si
                        1656 --574:   Set global settings of ZPD
                        1657 --575:   =============================================================================*/
                        1658 --579: uint32_t R_ISM_SetZPDGlobals( uint8_t UnitNumber_u08,
                        1659 	.align	2
                        1660 	.align	2
                        1661 	.global	_R_ISM_SetZPDGlobals
                        1662 _R_ISM_SetZPDGlobals:
0000059e 8207e170       1663 	prepare	{r25,r26,r27,r28,r29,r31},1
000005a2 c95eff00       1664 	andi	255,r9,r11
000005a6 c6e6ff00       1665 	andi	255,r6,r28
000005aa 07d0           1666 	mov	r7,r26
000005ac c8ceff00       1667 	andi	255,r8,r25
000005b0 435f0300       1668 	st.b	r11,3[sp]
000005b4 3b0600000000*  1669 	mov	_rism_p,r27
                        1670 --	    .bf
                        1671 .LDW73:
                        1672 --580:                             float ZPDPeriod_flt,
                        1673 --581:                             uint8_t ZPDSuspendClocks_u08,
                        1674 --582:                             uint8_t ZPDFilterLength_u08,
                        1675 --583:                             uint8_t ZPDFilterDepth_u08,
                        1676 --584:                             uint8_t ZPDAnalogLevel_u08,
                        1677 --585:                             uint8_t ZPDAnalogSelection_u08,
                        1678 --586:                             uint8_t ZPDADConnect_u08 )
                        1679 --587: {
                        1680 --588:   uint32_t ZPDFactor_u32;
                        1681 --589:   uint32_t ZPDDivider_u32;
                        1682 --591:   if( UnitNumber_u08 >= R_ISM_MACRO_NUM ) return( R_ISM_ERR_NG );
000005ba 61e2           1683 	cmp	1,r28
000005bc c105*          1684 	bl	.L1017
                        1685 --line591
                        1686 ..lin.D.3A.5CRenesas_Electronics.5CD1x_RGL.5Crgl_ghs_D1Lx_obj_V1.2E2.2E0.5Cvlib.5Capp.5Cgfx_apps.5Csimple_draw_d1l2.5Ctarget.5Cd1lx_mango_ghs.5Cobj.5Cqlapbismv1_p.104::
                        1687 .LDWlin104:
000005be 0052           1688 	mov	0,r10
000005c0 80073601*      1689 	br	.L1015
                        1690 .L1017:
                        1691 --593:   ZPDFactor_u32 = ( uint32_t )( ( float )R_ISM_CLOCK_HZ * ZPDPeriod_flt );
                        1692 --line593
                        1693 ..lin.D.3A.5CRenesas_Electronics.5CD1x_RGL.5Crgl_ghs_D1Lx_obj_V1.2E2.2E0.5Cvlib.5Capp.5Cgfx_apps.5Csimple_draw_d1l2.5Ctarget.5Cd1lx_mango_ghs.5Cobj.5Cqlapbismv1_p.105::
                        1694 .LDWlin105:
000005c4 0032           1695 	mov	0,r6
                        1696 	jarl	_R_SYS_ISM_SysGetClockHz,lp
                        1696 <EXPANSION BEGIN>
                        1696 jarl22 _R_SYS_ISM_SysGetClockHz , lp 
000005c6 80ff0000*      1696 <EXPANSION END>
000005ca f057420c       1697 	cvtf.uws	r10,r1
000005ce fa0f640c       1698 	mulf.s	r26,r1,r1
000005d2 f10f400c       1699 	trncf.suw	r1,r1
000005d6 01e8           1700 	mov	r1,r29
                        1701 --595:   if( ZPDFactor_u32 <     4L ) ZPDDivider_u32 = 0L;
                        1702 --line595
                        1703 ..lin.D.3A.5CRenesas_Electronics.5CD1x_RGL.5Crgl_ghs_D1Lx_obj_V1.2E2.2E0.5Cvlib.5Capp.5Cgfx_apps.5Csimple_draw_d1l2.5Ctarget.5Cd1lx_mango_ghs.5Cobj.5Cqlapbismv1_p.106::
                        1704 .LDWlin106:
000005d8 64ea           1705 	cmp	4,r29
000005da a905*          1706 	bnl	.L1020
                        1707 --line595
                        1708 ..lin.D.3A.5CRenesas_Electronics.5CD1x_RGL.5Crgl_ghs_D1Lx_obj_V1.2E2.2E0.5Cvlib.5Capp.5Cgfx_apps.5Csimple_draw_d1l2.5Ctarget.5Cd1lx_mango_ghs.5Cobj.5Cqlapbismv1_p.107::
                        1709 .LDWlin107:
000005dc 000a           1710 	mov	0,r1
                        1711 .L1020:
                        1712 --596:   if( ZPDFactor_u32 >=    4L ) ZPDDivider_u32 = 0L;
000005de 64ea           1713 	cmp	4,r29

                                                                      Page 32
                                                              C:\Users\YINGAO~1\AppData\Local\Temp\gh_00008201.si
000005e0 a105*          1714 	bl	.L1022
                        1715 --line596
                        1716 ..lin.D.3A.5CRenesas_Electronics.5CD1x_RGL.5Crgl_ghs_D1Lx_obj_V1.2E2.2E0.5Cvlib.5Capp.5Cgfx_apps.5Csimple_draw_d1l2.5Ctarget.5Cd1lx_mango_ghs.5Cobj.5Cqlapbismv1_p.108::
                        1717 .LDWlin108:
000005e2 000a           1718 	mov	0,r1
                        1719 .L1022:
                        1720 --597:   if( ZPDFactor_u32 >=    5L ) ZPDDivider_u32 = 1L;
000005e4 65ea           1721 	cmp	5,r29
000005e6 a105*          1722 	bl	.L1024
                        1723 --line597
                        1724 ..lin.D.3A.5CRenesas_Electronics.5CD1x_RGL.5Crgl_ghs_D1Lx_obj_V1.2E2.2E0.5Cvlib.5Capp.5Cgfx_apps.5Csimple_draw_d1l2.5Ctarget.5Cd1lx_mango_ghs.5Cobj.5Cqlapbismv1_p.109::
                        1725 .LDWlin109:
000005e8 010a           1726 	mov	1,r1
                        1727 .L1024:
                        1728 --598:   if( ZPDFactor_u32 >=    6L ) ZPDDivider_u32 = 2L;
000005ea 66ea           1729 	cmp	6,r29
000005ec a105*          1730 	bl	.L1026
                        1731 --line598
                        1732 ..lin.D.3A.5CRenesas_Electronics.5CD1x_RGL.5Crgl_ghs_D1Lx_obj_V1.2E2.2E0.5Cvlib.5Capp.5Cgfx_apps.5Csimple_draw_d1l2.5Ctarget.5Cd1lx_mango_ghs.5Cobj.5Cqlapbismv1_p.110::
                        1733 .LDWlin110:
000005ee 020a           1734 	mov	2,r1
                        1735 .L1026:
                        1736 --599:   if( ZPDFactor_u32 >=    7L ) ZPDDivider_u32 = 3L;
000005f0 67ea           1737 	cmp	7,r29
000005f2 a105*          1738 	bl	.L1028
                        1739 --line599
                        1740 ..lin.D.3A.5CRenesas_Electronics.5CD1x_RGL.5Crgl_ghs_D1Lx_obj_V1.2E2.2E0.5Cvlib.5Capp.5Cgfx_apps.5Csimple_draw_d1l2.5Ctarget.5Cd1lx_mango_ghs.5Cobj.5Cqlapbismv1_p.111::
                        1741 .LDWlin111:
000005f4 030a           1742 	mov	3,r1
                        1743 .L1028:
                        1744 --600:   if( ZPDFactor_u32 >=    8L ) ZPDDivider_u32 = 4L;
000005f6 68ea           1745 	cmp	8,r29
000005f8 a105*          1746 	bl	.L1030
                        1747 --line600
                        1748 ..lin.D.3A.5CRenesas_Electronics.5CD1x_RGL.5Crgl_ghs_D1Lx_obj_V1.2E2.2E0.5Cvlib.5Capp.5Cgfx_apps.5Csimple_draw_d1l2.5Ctarget.5Cd1lx_mango_ghs.5Cobj.5Cqlapbismv1_p.112::
                        1749 .LDWlin112:
000005fa 040a           1750 	mov	4,r1
                        1751 .L1030:
                        1752 --601:   if( ZPDFactor_u32 >=    9L ) ZPDDivider_u32 = 5L;
000005fc 69ea           1753 	cmp	9,r29
000005fe a105*          1754 	bl	.L1032
                        1755 --line601
                        1756 ..lin.D.3A.5CRenesas_Electronics.5CD1x_RGL.5Crgl_ghs_D1Lx_obj_V1.2E2.2E0.5Cvlib.5Capp.5Cgfx_apps.5Csimple_draw_d1l2.5Ctarget.5Cd1lx_mango_ghs.5Cobj.5Cqlapbismv1_p.113::
                        1757 .LDWlin113:
00000600 050a           1758 	mov	5,r1
                        1759 .L1032:
                        1760 --602:   if( ZPDFactor_u32 >=   10L ) ZPDDivider_u32 = 6L;
00000602 6aea           1761 	cmp	10,r29
00000604 a105*          1762 	bl	.L1034
                        1763 --line602
                        1764 ..lin.D.3A.5CRenesas_Electronics.5CD1x_RGL.5Crgl_ghs_D1Lx_obj_V1.2E2.2E0.5Cvlib.5Capp.5Cgfx_apps.5Csimple_draw_d1l2.5Ctarget.5Cd1lx_mango_ghs.5Cobj.5Cqlapbismv1_p.114::
                        1765 .LDWlin114:
00000606 060a           1766 	mov	6,r1
                        1767 .L1034:
                        1768 --603:   if( ZPDFactor_u32 >=   11L ) ZPDDivider_u32 = 7L;
00000608 6bea           1769 	cmp	11,r29
0000060a a105*          1770 	bl	.L1036
                        1771 --line603
                        1772 ..lin.D.3A.5CRenesas_Electronics.5CD1x_RGL.5Crgl_ghs_D1Lx_obj_V1.2E2.2E0.5Cvlib.5Capp.5Cgfx_apps.5Csimple_draw_d1l2.5Ctarget.5Cd1lx_mango_ghs.5Cobj.5Cqlapbismv1_p.115::
                        1773 .LDWlin115:
0000060c 070a           1774 	mov	7,r1

                                                                      Page 33
                                                              C:\Users\YINGAO~1\AppData\Local\Temp\gh_00008201.si
                        1775 .L1036:
                        1776 --604:   if( ZPDFactor_u32 >=   12L ) ZPDDivider_u32 = 8L;
0000060e 6cea           1777 	cmp	12,r29
00000610 a105*          1778 	bl	.L1038
                        1779 --line604
                        1780 ..lin.D.3A.5CRenesas_Electronics.5CD1x_RGL.5Crgl_ghs_D1Lx_obj_V1.2E2.2E0.5Cvlib.5Capp.5Cgfx_apps.5Csimple_draw_d1l2.5Ctarget.5Cd1lx_mango_ghs.5Cobj.5Cqlapbismv1_p.116::
                        1781 .LDWlin116:
00000612 080a           1782 	mov	8,r1
                        1783 .L1038:
                        1784 --605:   if( ZPDFactor_u32 >=   16L ) ZPDDivider_u32 = 9L;
00000614 1d06f0ff       1785 	addi	-16,r29,zero
00000618 a905*          1786 	bnl	.L1040
                        1787 --line605
                        1788 ..lin.D.3A.5CRenesas_Electronics.5CD1x_RGL.5Crgl_ghs_D1Lx_obj_V1.2E2.2E0.5Cvlib.5Capp.5Cgfx_apps.5Csimple_draw_d1l2.5Ctarget.5Cd1lx_mango_ghs.5Cobj.5Cqlapbismv1_p.117::
                        1789 .LDWlin117:
0000061a 090a           1790 	mov	9,r1
                        1791 .L1040:
                        1792 --606:   if( ZPDFactor_u32 >=   32L ) ZPDDivider_u32 = 10L;
0000061c 1d06e0ff       1793 	addi	-32,r29,zero
00000620 a905*          1794 	bnl	.L1042
                        1795 --line606
                        1796 ..lin.D.3A.5CRenesas_Electronics.5CD1x_RGL.5Crgl_ghs_D1Lx_obj_V1.2E2.2E0.5Cvlib.5Capp.5Cgfx_apps.5Csimple_draw_d1l2.5Ctarget.5Cd1lx_mango_ghs.5Cobj.5Cqlapbismv1_p.118::
                        1797 .LDWlin118:
00000622 0a0a           1798 	mov	10,r1
                        1799 .L1042:
                        1800 --607:   if( ZPDFactor_u32 >=   64L ) ZPDDivider_u32 = 11L;
00000624 1d06c0ff       1801 	addi	-64,r29,zero
00000628 a905*          1802 	bnl	.L1044
                        1803 --line607
                        1804 ..lin.D.3A.5CRenesas_Electronics.5CD1x_RGL.5Crgl_ghs_D1Lx_obj_V1.2E2.2E0.5Cvlib.5Capp.5Cgfx_apps.5Csimple_draw_d1l2.5Ctarget.5Cd1lx_mango_ghs.5Cobj.5Cqlapbismv1_p.119::
                        1805 .LDWlin119:
0000062a 0b0a           1806 	mov	11,r1
                        1807 .L1044:
                        1808 --608:   if( ZPDFactor_u32 >=  128L ) ZPDDivider_u32 = 12L;
0000062c 1d0680ff       1809 	addi	-128,r29,zero
00000630 a905*          1810 	bnl	.L1046
                        1811 --line608
                        1812 ..lin.D.3A.5CRenesas_Electronics.5CD1x_RGL.5Crgl_ghs_D1Lx_obj_V1.2E2.2E0.5Cvlib.5Capp.5Cgfx_apps.5Csimple_draw_d1l2.5Ctarget.5Cd1lx_mango_ghs.5Cobj.5Cqlapbismv1_p.120::
                        1813 .LDWlin120:
00000632 0c0a           1814 	mov	12,r1
                        1815 .L1046:
                        1816 --609:   if( ZPDFactor_u32 >=  256L ) ZPDDivider_u32 = 13L;
00000634 1d0600ff       1817 	addi	-256,r29,zero
00000638 a905*          1818 	bnl	.L1048
                        1819 --line609
                        1820 ..lin.D.3A.5CRenesas_Electronics.5CD1x_RGL.5Crgl_ghs_D1Lx_obj_V1.2E2.2E0.5Cvlib.5Capp.5Cgfx_apps.5Csimple_draw_d1l2.5Ctarget.5Cd1lx_mango_ghs.5Cobj.5Cqlapbismv1_p.121::
                        1821 .LDWlin121:
0000063a 0d0a           1822 	mov	13,r1
                        1823 .L1048:
                        1824 --610:   if( ZPDFactor_u32 >=  512L ) ZPDDivider_u32 = 14L;
0000063c 1d0600fe       1825 	addi	-512,r29,zero
00000640 a905*          1826 	bnl	.L1050
                        1827 --line610
                        1828 ..lin.D.3A.5CRenesas_Electronics.5CD1x_RGL.5Crgl_ghs_D1Lx_obj_V1.2E2.2E0.5Cvlib.5Capp.5Cgfx_apps.5Csimple_draw_d1l2.5Ctarget.5Cd1lx_mango_ghs.5Cobj.5Cqlapbismv1_p.122::
                        1829 .LDWlin122:
00000642 0e0a           1830 	mov	14,r1
                        1831 .L1050:
                        1832 --611:   if( ZPDFactor_u32 >= 1024L ) ZPDDivider_u32 = 15L;
00000644 1d0600fc       1833 	addi	-1024,r29,zero
00000648 a905*          1834 	bnl	.L1052
                        1835 --line611

                                                                      Page 34
                                                              C:\Users\YINGAO~1\AppData\Local\Temp\gh_00008201.si
                        1836 ..lin.D.3A.5CRenesas_Electronics.5CD1x_RGL.5Crgl_ghs_D1Lx_obj_V1.2E2.2E0.5Cvlib.5Capp.5Cgfx_apps.5Csimple_draw_d1l2.5Ctarget.5Cd1lx_mango_ghs.5Cobj.5Cqlapbismv1_p.123::
                        1837 .LDWlin123:
0000064a 0f0a           1838 	mov	15,r1
                        1839 .L1052:
                        1840 --613:   rism_p[ UnitNumber_u08 ]->gzpdctl.gcs  = ( uint32_t )ZPDSuspendClocks_u08;
0000064c 1cf0           1841 	mov	r28,ep
0000064e c2f2           1842 	shl	2,ep
00000650 dbf1           1843 	add	r27,ep
00000652 186a           1844 	mov	-8,r13
00000654 00f5           1845 	sld.w	0[ep],ep
00000656 0875           1846 	sld.w	16[ep],r14
00000658 4d71           1847 	and	r13,r14
0000065a d96e0700       1848 	andi	7,r25,r13
0000065e 0d71           1849 	or	r13,r14
00000660 0975           1850 	sst.w	r14,16[ep]
                        1851 --614:   rism_p[ UnitNumber_u08 ]->gzpdctl.gzf  = ( uint32_t )ZPDDivider_u32;
00000662 1cf0           1852 	mov	r28,ep
00000664 c2f2           1853 	shl	2,ep
00000666 dbf1           1854 	add	r27,ep
00000668 00f5           1855 	sld.w	0[ep],ep
0000066a 0875           1856 	sld.w	16[ep],r14
0000066c e177d660       1857 	bins	r1,3,4,r14
00000670 0975           1858 	sst.w	r14,16[ep]
                        1859 --615:   rism_p[ UnitNumber_u08 ]->gzpdctl.gfd  = ( uint32_t )ZPDFilterDepth_u08;
00000672 1cf0           1860 	mov	r28,ep
00000674 c2f2           1861 	shl	2,ep
00000676 836f1d00       1862 	ld.bu	28[sp],r13
0000067a dbf1           1863 	add	r27,ep
0000067c 00f5           1864 	sld.w	0[ep],ep
0000067e 0875           1865 	sld.w	16[ep],r14
00000680 ed779030       1866 	bins	r13,16,4,r14
00000684 0975           1867 	sst.w	r14,16[ep]
                        1868 --616:   rism_p[ UnitNumber_u08 ]->gzpdctl.gfl  = ( uint32_t )ZPDFilterLength_u08;
00000686 1cf0           1869 	mov	r28,ep
00000688 c2f2           1870 	shl	2,ep
0000068a a35f0300       1871 	ld.bu	3[sp],r11
0000068e dbf1           1872 	add	r27,ep
00000690 00f5           1873 	sld.w	0[ep],ep
00000692 2d06ffff0fff   1874 	mov	-15728641,r13
00000698 0875           1875 	sld.w	16[ep],r14
0000069a 4d71           1876 	and	r13,r14
0000069c cb6e0f00       1877 	andi	15,r11,r13
000006a0 d46a           1878 	shl	20,r13
000006a2 0d71           1879 	or	r13,r14
000006a4 0975           1880 	sst.w	r14,16[ep]
                        1881 --617:   rism_p[ UnitNumber_u08 ]->gzpdctl.gzo  = ( uint32_t )ZPDADConnect_u08;
000006a6 1cf0           1882 	mov	r28,ep
000006a8 c2f2           1883 	shl	2,ep
000006aa 836f2900       1884 	ld.bu	40[sp],r13
000006ae dbf1           1885 	add	r27,ep
000006b0 00f5           1886 	sld.w	0[ep],ep
000006b2 0875           1887 	sld.w	16[ep],r14
000006b4 ed779088       1888 	bins	r13,24,1,r14
000006b8 0975           1889 	sst.w	r14,16[ep]
                        1890 --619:   switch( ZPDAnalogSelection_u08 )
000006ba 83772500       1891 	ld.bu	36[sp],r14
000006be 6172           1892 	cmp	1,r14
000006c0 8b1d*          1893 	bh	.L1058
000006c2 c90d*          1894 	bnl	.L1057
                        1895 --620:     {
                        1896 --621:     case R_ISM_ANALOGLEVEL0:

                                                                      Page 35
                                                              C:\Users\YINGAO~1\AppData\Local\Temp\gh_00008201.si
                        1897 --622:       rism_p[ UnitNumber_u08 ]->gzpdctl.grv1 = ( uint32_t )ZPDAnalogLevel_u08;
                        1898 --line622
                        1899 ..lin.D.3A.5CRenesas_Electronics.5CD1x_RGL.5Crgl_ghs_D1Lx_obj_V1.2E2.2E0.5Cvlib.5Capp.5Cgfx_apps.5Csimple_draw_d1l2.5Ctarget.5Cd1lx_mango_ghs.5Cobj.5Cqlapbismv1_p.124::
                        1900 .LDWlin124:
000006c4 1cf0           1901 	mov	r28,ep
000006c6 c2f2           1902 	shl	2,ep
000006c8 836f2100       1903 	ld.bu	32[sp],r13
000006cc dbf1           1904 	add	r27,ep
000006ce 00f5           1905 	sld.w	0[ep],ep
000006d0 0875           1906 	sld.w	16[ep],r14
000006d2 ed77d0b8       1907 	bins	r13,8,4,r14
000006d6 0975           1908 	sst.w	r14,16[ep]
000006d8 e50d*          1909 	br	.L1054
                        1910 .L1057:
                        1911 --623:       break;
                        1912 --625:     case R_ISM_ANALOGLEVEL1:
                        1913 --626:       rism_p[ UnitNumber_u08 ]->gzpdctl.grv2 = ( uint32_t )ZPDAnalogLevel_u08;
                        1914 --line626
                        1915 ..lin.D.3A.5CRenesas_Electronics.5CD1x_RGL.5Crgl_ghs_D1Lx_obj_V1.2E2.2E0.5Cvlib.5Capp.5Cgfx_apps.5Csimple_draw_d1l2.5Ctarget.5Cd1lx_mango_ghs.5Cobj.5Cqlapbismv1_p.125::
                        1916 .LDWlin125:
000006da 1cf0           1917 	mov	r28,ep
000006dc c2f2           1918 	shl	2,ep
000006de 836f2100       1919 	ld.bu	32[sp],r13
000006e2 dbf1           1920 	add	r27,ep
000006e4 00f5           1921 	sld.w	0[ep],ep
000006e6 0875           1922 	sld.w	16[ep],r14
000006e8 ed77d8f8       1923 	bins	r13,12,4,r14
000006ec 0975           1924 	sst.w	r14,16[ep]
000006ee b505*          1925 	br	.L1054
                        1926 .L1058:
                        1927 --627:       break;
                        1928 --629:     default:
                        1929 --630:       return( R_ISM_ERR_NG );
                        1930 --line630
                        1931 ..lin.D.3A.5CRenesas_Electronics.5CD1x_RGL.5Crgl_ghs_D1Lx_obj_V1.2E2.2E0.5Cvlib.5Capp.5Cgfx_apps.5Csimple_draw_d1l2.5Ctarget.5Cd1lx_mango_ghs.5Cobj.5Cqlapbismv1_p.126::
                        1932 .LDWlin126:
000006f0 0052           1933 	mov	0,r10
000006f2 a505*          1934 	br	.L1015
                        1935 .L1054:
                        1936 --631:     }
                        1937 --632:   return( R_ISM_ERR_OK );
                        1938 --line632
                        1939 ..lin.D.3A.5CRenesas_Electronics.5CD1x_RGL.5Crgl_ghs_D1Lx_obj_V1.2E2.2E0.5Cvlib.5Capp.5Cgfx_apps.5Csimple_draw_d1l2.5Ctarget.5Cd1lx_mango_ghs.5Cobj.5Cqlapbismv1_p.127::
                        1940 .LDWlin127:
000006f4 0152           1941 	mov	1,r10
                        1942 .L1015:
                        1943 --	    .ef
                        1944 .LDW83:
000006f6 4206ff70       1945 	dispose	1,{r25,r26,r27,r28,r29,r31},[lp]
                        1946 	.type	_R_ISM_SetZPDGlobals,@function
                        1947 	.size	_R_ISM_SetZPDGlobals,.-_R_ISM_SetZPDGlobals
                        1948 	.align	2
                        1949 .LDW93:
                        1950 --_ZPDFactor_u32	r29	local
                        1951 --_ZPDDivider_u32	r1	local
                        1952 
                        1953 --_UnitNumber_u08	r28	param
                        1954 --_ZPDPeriod_flt	r26	param
                        1955 --_ZPDSuspendClocks_u08	r25	param
                        1956 --_ZPDFilterLength_u08	3[sp]	param
                        1957 --_ZPDFilterDepth_u08	28[sp]	param

                                                                      Page 36
                                                              C:\Users\YINGAO~1\AppData\Local\Temp\gh_00008201.si
                        1958 --_ZPDAnalogLevel_u08	32[sp]	param
                        1959 --_ZPDAnalogSelection_u08	36[sp]	param
                        1960 --_ZPDADConnect_u08	40[sp]	param
                        1961 
                        1962 	.section ".bss","awb"
                        1963 .L1176:
                        1964 	.type	.L1176,@object
                        1965 	.size	.L1176,0
                        1966 	.data
                        1967 	.text
                        1968 
                        1969 --633: }
                        1970 
                        1971 --635: /*=============================================================================
                        1972 --636:   FunctionName: R_ISM_GetZPDGlobals
                        1973 --637:   IN  : UnitNumber: Selected Macro
                        1974 --638:   OUT : Error Flag
                        1975 --639:         Global Parameters of ZPD Unit
                        1976 --640:   Description :
                        1977 --641:   Get global settings of ZPD
                        1978 --642:   =============================================================================*/
                        1979 --643: uint32_t R_ISM_GetZPDGlobals( uint8_t  UnitNumber_u08,
                        1980 	.align	2
                        1981 	.align	2
                        1982 	.global	_R_ISM_GetZPDGlobals
                        1983 _R_ISM_GetZPDGlobals:
000006fa 8407e170       1984 	prepare	{r25,r26,r27,r28,r29,r31},2
000006fe c6deff00       1985 	andi	255,r6,r27
00000702 c7ceff00       1986 	andi	255,r7,r25
00000706 63470100       1987 	st.w	r8,0[sp]
0000070a 634f0500       1988 	st.w	r9,4[sp]
0000070e 3a0600000000*  1989 	mov	_rism_p,r26
                        1990 --	    .bf
                        1991 .LDW04:
                        1992 --644:                             uint8_t  ZPDAnalogSelection_u08,
                        1993 --645:                             uint32_t* ZPDPeriod_pu32,
                        1994 --646:                             uint8_t* ZPDSuspendClocks_pu08,
                        1995 --647:                             uint8_t* ZPDFilterLength_pu08,
                        1996 --648:                             uint8_t* ZPDFilterDepth_pu08,
                        1997 --649:                             uint8_t* ZPDAnalogLevel_pu08,
                        1998 --650:                             uint8_t* ZPDADConnect_pu08 )
                        1999 --651: {
                        2000 --652:   uint32_t ZPDFactor_u32;
                        2001 --653:   uint32_t ZPDDivider_u32;
                        2002 --655:   if( UnitNumber_u08 >= R_ISM_MACRO_NUM ) return( R_ISM_ERR_NG );
00000714 61da           2003 	cmp	1,r27
00000716 c105*          2004 	bl	.L1337
                        2005 --line655
                        2006 ..lin.D.3A.5CRenesas_Electronics.5CD1x_RGL.5Crgl_ghs_D1Lx_obj_V1.2E2.2E0.5Cvlib.5Capp.5Cgfx_apps.5Csimple_draw_d1l2.5Ctarget.5Cd1lx_mango_ghs.5Cobj.5Cqlapbismv1_p.128::
                        2007 .LDWlin128:
00000718 0052           2008 	mov	0,r10
0000071a 80077801*      2009 	br	.L1335
                        2010 .L1337:
                        2011 --657:   ZPDDivider_u32 = rism_p[ UnitNumber_u08 ]->gzpdctl.gzf;
                        2012 --line657
                        2013 ..lin.D.3A.5CRenesas_Electronics.5CD1x_RGL.5Crgl_ghs_D1Lx_obj_V1.2E2.2E0.5Cvlib.5Capp.5Cgfx_apps.5Csimple_draw_d1l2.5Ctarget.5Cd1lx_mango_ghs.5Cobj.5Cqlapbismv1_p.129::
                        2014 .LDWlin129:
0000071e 1bf0           2015 	mov	r27,ep
00000720 c2f2           2016 	shl	2,ep
00000722 daf1           2017 	add	r26,ep
00000724 00f5           2018 	sld.w	0[ep],ep

                                                                      Page 37
                                                              C:\Users\YINGAO~1\AppData\Local\Temp\gh_00008201.si
00000726 08e5           2019 	sld.w	16[ep],r28
00000728 d9e2           2020 	shl	25,r28
0000072a 9ce2           2021 	shr	28,r28
                        2022 --659:   switch( ZPDDivider_u32 )
0000072c 1c08           2023 	mov	r28,r1
0000072e 6f0a           2024 	cmp	15,r1
00000730 cb4d*          2025 	bh	.L1358
00000732 c20a           2026 	shl	2,r1
00000734 e10600000000*  2027 	jmp	.L1482[r1]
                        2028 .L1482:
0000073a 80074000*      2029 	jr	.L1342
0000073e 80074000*      2030 	jr	.L1343
00000742 80074000*      2031 	jr	.L1344
00000746 80074000*      2032 	jr	.L1345
0000074a 80074000*      2033 	jr	.L1346
0000074e 80074000*      2034 	jr	.L1347
00000752 80074000*      2035 	jr	.L1348
00000756 80074000*      2036 	jr	.L1349
0000075a 80074000*      2037 	jr	.L1350
0000075e 80074000*      2038 	jr	.L1351
00000762 80074200*      2039 	jr	.L1352
00000766 80074400*      2040 	jr	.L1353
0000076a 80074600*      2041 	jr	.L1354
0000076e 80074800*      2042 	jr	.L1355
00000772 80074a00*      2043 	jr	.L1356
00000776 80074c00*      2044 	jr	.L1357
                        2045 .L1342:
                        2046 --660:     {
                        2047 --661:     case 0L:  ZPDFactor_u32 = 4L;    break;
                        2048 --line661
                        2049 ..lin.D.3A.5CRenesas_Electronics.5CD1x_RGL.5Crgl_ghs_D1Lx_obj_V1.2E2.2E0.5Cvlib.5Capp.5Cgfx_apps.5Csimple_draw_d1l2.5Ctarget.5Cd1lx_mango_ghs.5Cobj.5Cqlapbismv1_p.130::
                        2050 .LDWlin130:
0000077a 04ea           2051 	mov	4,r29
0000077c 852d*          2052 	br	.L1340
                        2053 .L1343:
                        2054 --662:     case 1L:  ZPDFactor_u32 = 5L;    break;
                        2055 --line662
                        2056 ..lin.D.3A.5CRenesas_Electronics.5CD1x_RGL.5Crgl_ghs_D1Lx_obj_V1.2E2.2E0.5Cvlib.5Capp.5Cgfx_apps.5Csimple_draw_d1l2.5Ctarget.5Cd1lx_mango_ghs.5Cobj.5Cqlapbismv1_p.131::
                        2057 .LDWlin131:
0000077e 05ea           2058 	mov	5,r29
00000780 e525*          2059 	br	.L1340
                        2060 .L1344:
                        2061 --663:     case 2L:  ZPDFactor_u32 = 6L;    break;
                        2062 --line663
                        2063 ..lin.D.3A.5CRenesas_Electronics.5CD1x_RGL.5Crgl_ghs_D1Lx_obj_V1.2E2.2E0.5Cvlib.5Capp.5Cgfx_apps.5Csimple_draw_d1l2.5Ctarget.5Cd1lx_mango_ghs.5Cobj.5Cqlapbismv1_p.132::
                        2064 .LDWlin132:
00000782 06ea           2065 	mov	6,r29
00000784 c525*          2066 	br	.L1340
                        2067 .L1345:
                        2068 --664:     case 3L:  ZPDFactor_u32 = 7L;    break;
                        2069 --line664
                        2070 ..lin.D.3A.5CRenesas_Electronics.5CD1x_RGL.5Crgl_ghs_D1Lx_obj_V1.2E2.2E0.5Cvlib.5Capp.5Cgfx_apps.5Csimple_draw_d1l2.5Ctarget.5Cd1lx_mango_ghs.5Cobj.5Cqlapbismv1_p.133::
                        2071 .LDWlin133:
00000786 07ea           2072 	mov	7,r29
00000788 a525*          2073 	br	.L1340
                        2074 .L1346:
                        2075 --665:     case 4L:  ZPDFactor_u32 = 8L;    break;
                        2076 --line665
                        2077 ..lin.D.3A.5CRenesas_Electronics.5CD1x_RGL.5Crgl_ghs_D1Lx_obj_V1.2E2.2E0.5Cvlib.5Capp.5Cgfx_apps.5Csimple_draw_d1l2.5Ctarget.5Cd1lx_mango_ghs.5Cobj.5Cqlapbismv1_p.134::
                        2078 .LDWlin134:
0000078a 08ea           2079 	mov	8,r29

                                                                      Page 38
                                                              C:\Users\YINGAO~1\AppData\Local\Temp\gh_00008201.si
0000078c 8525*          2080 	br	.L1340
                        2081 .L1347:
                        2082 --666:     case 5L:  ZPDFactor_u32 = 9L;    break;
                        2083 --line666
                        2084 ..lin.D.3A.5CRenesas_Electronics.5CD1x_RGL.5Crgl_ghs_D1Lx_obj_V1.2E2.2E0.5Cvlib.5Capp.5Cgfx_apps.5Csimple_draw_d1l2.5Ctarget.5Cd1lx_mango_ghs.5Cobj.5Cqlapbismv1_p.135::
                        2085 .LDWlin135:
0000078e 09ea           2086 	mov	9,r29
00000790 e51d*          2087 	br	.L1340
                        2088 .L1348:
                        2089 --667:     case 6L:  ZPDFactor_u32 = 10L;   break;
                        2090 --line667
                        2091 ..lin.D.3A.5CRenesas_Electronics.5CD1x_RGL.5Crgl_ghs_D1Lx_obj_V1.2E2.2E0.5Cvlib.5Capp.5Cgfx_apps.5Csimple_draw_d1l2.5Ctarget.5Cd1lx_mango_ghs.5Cobj.5Cqlapbismv1_p.136::
                        2092 .LDWlin136:
00000792 0aea           2093 	mov	10,r29
00000794 c51d*          2094 	br	.L1340
                        2095 .L1349:
                        2096 --668:     case 7L:  ZPDFactor_u32 = 11L;   break;
                        2097 --line668
                        2098 ..lin.D.3A.5CRenesas_Electronics.5CD1x_RGL.5Crgl_ghs_D1Lx_obj_V1.2E2.2E0.5Cvlib.5Capp.5Cgfx_apps.5Csimple_draw_d1l2.5Ctarget.5Cd1lx_mango_ghs.5Cobj.5Cqlapbismv1_p.137::
                        2099 .LDWlin137:
00000796 0bea           2100 	mov	11,r29
00000798 a51d*          2101 	br	.L1340
                        2102 .L1350:
                        2103 --669:     case 8L:  ZPDFactor_u32 = 12L;   break;
                        2104 --line669
                        2105 ..lin.D.3A.5CRenesas_Electronics.5CD1x_RGL.5Crgl_ghs_D1Lx_obj_V1.2E2.2E0.5Cvlib.5Capp.5Cgfx_apps.5Csimple_draw_d1l2.5Ctarget.5Cd1lx_mango_ghs.5Cobj.5Cqlapbismv1_p.138::
                        2106 .LDWlin138:
0000079a 0cea           2107 	mov	12,r29
0000079c 851d*          2108 	br	.L1340
                        2109 .L1351:
                        2110 --670:     case 9L:  ZPDFactor_u32 = 16L;   break;
                        2111 --line670
                        2112 ..lin.D.3A.5CRenesas_Electronics.5CD1x_RGL.5Crgl_ghs_D1Lx_obj_V1.2E2.2E0.5Cvlib.5Capp.5Cgfx_apps.5Csimple_draw_d1l2.5Ctarget.5Cd1lx_mango_ghs.5Cobj.5Cqlapbismv1_p.139::
                        2113 .LDWlin139:
0000079e 20ee1000       2114 	movea	16,zero,r29
000007a2 d515*          2115 	br	.L1340
                        2116 .L1352:
                        2117 --671:     case 10L: ZPDFactor_u32 = 32L;   break;
                        2118 --line671
                        2119 ..lin.D.3A.5CRenesas_Electronics.5CD1x_RGL.5Crgl_ghs_D1Lx_obj_V1.2E2.2E0.5Cvlib.5Capp.5Cgfx_apps.5Csimple_draw_d1l2.5Ctarget.5Cd1lx_mango_ghs.5Cobj.5Cqlapbismv1_p.140::
                        2120 .LDWlin140:
000007a4 20ee2000       2121 	movea	32,zero,r29
000007a8 a515*          2122 	br	.L1340
                        2123 .L1353:
                        2124 --672:     case 11L: ZPDFactor_u32 = 64L;   break;
                        2125 --line672
                        2126 ..lin.D.3A.5CRenesas_Electronics.5CD1x_RGL.5Crgl_ghs_D1Lx_obj_V1.2E2.2E0.5Cvlib.5Capp.5Cgfx_apps.5Csimple_draw_d1l2.5Ctarget.5Cd1lx_mango_ghs.5Cobj.5Cqlapbismv1_p.141::
                        2127 .LDWlin141:
000007aa 20ee4000       2128 	movea	64,zero,r29
000007ae f50d*          2129 	br	.L1340
                        2130 .L1354:
                        2131 --673:     case 12L: ZPDFactor_u32 = 128L;  break;
                        2132 --line673
                        2133 ..lin.D.3A.5CRenesas_Electronics.5CD1x_RGL.5Crgl_ghs_D1Lx_obj_V1.2E2.2E0.5Cvlib.5Capp.5Cgfx_apps.5Csimple_draw_d1l2.5Ctarget.5Cd1lx_mango_ghs.5Cobj.5Cqlapbismv1_p.142::
                        2134 .LDWlin142:
000007b0 20ee8000       2135 	movea	128,zero,r29
000007b4 c50d*          2136 	br	.L1340
                        2137 .L1355:
                        2138 --674:     case 13L: ZPDFactor_u32 = 256L;  break;
                        2139 --line674
                        2140 ..lin.D.3A.5CRenesas_Electronics.5CD1x_RGL.5Crgl_ghs_D1Lx_obj_V1.2E2.2E0.5Cvlib.5Capp.5Cgfx_apps.5Csimple_draw_d1l2.5Ctarget.5Cd1lx_mango_ghs.5Cobj.5Cqlapbismv1_p.143::

                                                                      Page 39
                                                              C:\Users\YINGAO~1\AppData\Local\Temp\gh_00008201.si
                        2141 .LDWlin143:
000007b6 20ee0001       2142 	movea	256,zero,r29
000007ba 950d*          2143 	br	.L1340
                        2144 .L1356:
                        2145 --675:     case 14L: ZPDFactor_u32 = 512L;  break;
                        2146 --line675
                        2147 ..lin.D.3A.5CRenesas_Electronics.5CD1x_RGL.5Crgl_ghs_D1Lx_obj_V1.2E2.2E0.5Cvlib.5Capp.5Cgfx_apps.5Csimple_draw_d1l2.5Ctarget.5Cd1lx_mango_ghs.5Cobj.5Cqlapbismv1_p.144::
                        2148 .LDWlin144:
000007bc 20ee0002       2149 	movea	512,zero,r29
000007c0 e505*          2150 	br	.L1340
                        2151 .L1357:
                        2152 --676:     case 15L: ZPDFactor_u32 = 1024L; break;
                        2153 --line676
                        2154 ..lin.D.3A.5CRenesas_Electronics.5CD1x_RGL.5Crgl_ghs_D1Lx_obj_V1.2E2.2E0.5Cvlib.5Capp.5Cgfx_apps.5Csimple_draw_d1l2.5Ctarget.5Cd1lx_mango_ghs.5Cobj.5Cqlapbismv1_p.145::
                        2155 .LDWlin145:
000007c2 20ee0004       2156 	movea	1024,zero,r29
000007c6 b505*          2157 	br	.L1340
                        2158 .L1358:
                        2159 --677:     default:  return( R_ISM_ERR_NG );
                        2160 --line677
                        2161 ..lin.D.3A.5CRenesas_Electronics.5CD1x_RGL.5Crgl_ghs_D1Lx_obj_V1.2E2.2E0.5Cvlib.5Capp.5Cgfx_apps.5Csimple_draw_d1l2.5Ctarget.5Cd1lx_mango_ghs.5Cobj.5Cqlapbismv1_p.146::
                        2162 .LDWlin146:
000007c8 0052           2163 	mov	0,r10
000007ca c565*          2164 	br	.L1335
                        2165 .L1340:
                        2166 --678:     }
                        2167 --680:   *ZPDPeriod_pu32 = ( uint32_t )( 1.0E6 / ( float )R_ISM_CLOCK_HZ *
                        2168 --line680
                        2169 ..lin.D.3A.5CRenesas_Electronics.5CD1x_RGL.5Crgl_ghs_D1Lx_obj_V1.2E2.2E0.5Cvlib.5Capp.5Cgfx_apps.5Csimple_draw_d1l2.5Ctarget.5Cd1lx_mango_ghs.5Cobj.5Cqlapbismv1_p.147::
                        2170 .LDWlin147:
000007cc 0032           2171 	mov	0,r6
                        2172 	jarl	_R_SYS_ISM_SysGetClockHz,lp
                        2172 <EXPANSION BEGIN>
                        2172 jarl22 _R_SYS_ISM_SysGetClockHz , lp 
000007ce 80ff0000*      2172 <EXPANSION END>
000007d2 f057420c       2173 	cvtf.uws	r10,r1
000007d6 2b0680842e41   2174 	mov	1093567616,r11
000007dc 0052           2175 	mov	0,r10
000007de e20f5264       2176 	cvtf.sd	r1,r12
000007e2 f0ef420c       2177 	cvtf.uws	r29,r1
000007e6 ec577e64       2178 	divf.d	r12,r10,r12
000007ea e20f5254       2179 	cvtf.sd	r1,r10
000007ee ea677464       2180 	mulf.d	r10,r12,r12
000007f2 235f0100       2181 	ld.w	0[sp],r11
000007f6 f167500c       2182 	trncf.duw	r12,r1
000007fa 6b0f0100       2183 	st.w	r1,0[r11]
                        2184 --681:                                ( float )ZPDFactor_u32 );
                        2185 --683:   *ZPDSuspendClocks_pu08 = ( uint8_t )rism_p[ UnitNumber_u08 ]->gzpdctl.gcs;
                        2186 --line683
                        2187 ..lin.D.3A.5CRenesas_Electronics.5CD1x_RGL.5Crgl_ghs_D1Lx_obj_V1.2E2.2E0.5Cvlib.5Capp.5Cgfx_apps.5Csimple_draw_d1l2.5Ctarget.5Cd1lx_mango_ghs.5Cobj.5Cqlapbismv1_p.148::
                        2188 .LDWlin148:
000007fe 1bf0           2189 	mov	r27,ep
00000800 c2f2           2190 	shl	2,ep
00000802 235f0500       2191 	ld.w	4[sp],r11
00000806 daf1           2192 	add	r26,ep
00000808 00f5           2193 	sld.w	0[ep],ep
0000080a 080d           2194 	sld.w	16[ep],r1
0000080c c10e0700       2195 	andi	7,r1,r1
00000810 4b0f0000       2196 	st.b	r1,0[r11]
                        2197 --684:   *ZPDFilterDepth_pu08   = ( uint8_t )rism_p[ UnitNumber_u08 ]->gzpdctl.gfd;
00000814 1bf0           2198 	mov	r27,ep

                                                                      Page 40
                                                              C:\Users\YINGAO~1\AppData\Local\Temp\gh_00008201.si
00000816 c2f2           2199 	shl	2,ep
00000818 23772500       2200 	ld.w	36[sp],r14
0000081c daf1           2201 	add	r26,ep
0000081e 00f5           2202 	sld.w	0[ep],ep
00000820 080d           2203 	sld.w	16[ep],r1
00000822 cc0a           2204 	shl	12,r1
00000824 9c0a           2205 	shr	28,r1
00000826 4e0f0000       2206 	st.b	r1,0[r14]
                        2207 --685:   *ZPDFilterLength_pu08  = ( uint8_t )rism_p[ UnitNumber_u08 ]->gzpdctl.gfl;
0000082a 1bf0           2208 	mov	r27,ep
0000082c c2f2           2209 	shl	2,ep
0000082e 23772100       2210 	ld.w	32[sp],r14
00000832 daf1           2211 	add	r26,ep
00000834 00f5           2212 	sld.w	0[ep],ep
00000836 080d           2213 	sld.w	16[ep],r1
00000838 c80a           2214 	shl	8,r1
0000083a 9c0a           2215 	shr	28,r1
0000083c 4e0f0000       2216 	st.b	r1,0[r14]
                        2217 --686:   *ZPDADConnect_pu08     = ( uint8_t )rism_p[ UnitNumber_u08 ]->gzpdctl.gzo;
00000840 1bf0           2218 	mov	r27,ep
00000842 c2f2           2219 	shl	2,ep
00000844 23772d00       2220 	ld.w	44[sp],r14
00000848 daf1           2221 	add	r26,ep
0000084a 00f5           2222 	sld.w	0[ep],ep
0000084c 080d           2223 	sld.w	16[ep],r1
0000084e c70a           2224 	shl	7,r1
00000850 9f0a           2225 	shr	31,r1
00000852 4e0f0000       2226 	st.b	r1,0[r14]
                        2227 --688:   switch( ZPDAnalogSelection_u08 )
00000856 61ca           2228 	cmp	1,r25
00000858 ab1d*          2229 	bh	.L1364
0000085a d90d*          2230 	bnl	.L1363
                        2231 --689:     {
                        2232 --690:     case R_ISM_ANALOGLEVEL0:
                        2233 --691:       *ZPDAnalogLevel_pu08  = ( uint8_t )rism_p[ UnitNumber_u08 ]->gzpdctl.grv1;
                        2234 --line691
                        2235 ..lin.D.3A.5CRenesas_Electronics.5CD1x_RGL.5Crgl_ghs_D1Lx_obj_V1.2E2.2E0.5Cvlib.5Capp.5Cgfx_apps.5Csimple_draw_d1l2.5Ctarget.5Cd1lx_mango_ghs.5Cobj.5Cqlapbismv1_p.149::
                        2236 .LDWlin149:
0000085c 1bf0           2237 	mov	r27,ep
0000085e c2f2           2238 	shl	2,ep
00000860 23772900       2239 	ld.w	40[sp],r14
00000864 daf1           2240 	add	r26,ep
00000866 00f5           2241 	sld.w	0[ep],ep
00000868 080d           2242 	sld.w	16[ep],r1
0000086a d40a           2243 	shl	20,r1
0000086c 9c0a           2244 	shr	28,r1
0000086e 4e0f0000       2245 	st.b	r1,0[r14]
00000872 f50d*          2246 	br	.L1360
                        2247 .L1363:
                        2248 --692:       break;
                        2249 --694:     case R_ISM_ANALOGLEVEL1:
                        2250 --695:       *ZPDAnalogLevel_pu08  = ( uint8_t )rism_p[ UnitNumber_u08 ]->gzpdctl.grv2;
                        2251 --line695
                        2252 ..lin.D.3A.5CRenesas_Electronics.5CD1x_RGL.5Crgl_ghs_D1Lx_obj_V1.2E2.2E0.5Cvlib.5Capp.5Cgfx_apps.5Csimple_draw_d1l2.5Ctarget.5Cd1lx_mango_ghs.5Cobj.5Cqlapbismv1_p.150::
                        2253 .LDWlin150:
00000874 1bf0           2254 	mov	r27,ep
00000876 c2f2           2255 	shl	2,ep
00000878 23772900       2256 	ld.w	40[sp],r14
0000087c daf1           2257 	add	r26,ep
0000087e 00f5           2258 	sld.w	0[ep],ep
00000880 080d           2259 	sld.w	16[ep],r1

                                                                      Page 41
                                                              C:\Users\YINGAO~1\AppData\Local\Temp\gh_00008201.si
00000882 d00a           2260 	shl	16,r1
00000884 9c0a           2261 	shr	28,r1
00000886 4e0f0000       2262 	st.b	r1,0[r14]
0000088a b505*          2263 	br	.L1360
                        2264 .L1364:
                        2265 --696:       break;
                        2266 --698:     default:
                        2267 --699:       return( R_ISM_ERR_NG );
                        2268 --line699
                        2269 ..lin.D.3A.5CRenesas_Electronics.5CD1x_RGL.5Crgl_ghs_D1Lx_obj_V1.2E2.2E0.5Cvlib.5Capp.5Cgfx_apps.5Csimple_draw_d1l2.5Ctarget.5Cd1lx_mango_ghs.5Cobj.5Cqlapbismv1_p.151::
                        2270 .LDWlin151:
0000088c 0052           2271 	mov	0,r10
0000088e a505*          2272 	br	.L1335
                        2273 .L1360:
                        2274 --700:     }
                        2275 --702:   return( R_ISM_ERR_OK );
                        2276 --line702
                        2277 ..lin.D.3A.5CRenesas_Electronics.5CD1x_RGL.5Crgl_ghs_D1Lx_obj_V1.2E2.2E0.5Cvlib.5Capp.5Cgfx_apps.5Csimple_draw_d1l2.5Ctarget.5Cd1lx_mango_ghs.5Cobj.5Cqlapbismv1_p.152::
                        2278 .LDWlin152:
00000890 0152           2279 	mov	1,r10
                        2280 .L1335:
                        2281 --	    .ef
                        2282 .LDW14:
00000892 4406ff70       2283 	dispose	2,{r25,r26,r27,r28,r29,r31},[lp]
                        2284 	.type	_R_ISM_GetZPDGlobals,@function
                        2285 	.size	_R_ISM_GetZPDGlobals,.-_R_ISM_GetZPDGlobals
                        2286 	.align	2
                        2287 .LDW24:
                        2288 --_ZPDFactor_u32	r29	local
                        2289 --_ZPDDivider_u32	r28	local
                        2290 
                        2291 --_UnitNumber_u08	r27	param
                        2292 --_ZPDAnalogSelection_u08	r25	param
                        2293 --_ZPDPeriod_pu32	0[sp]	param
                        2294 --_ZPDSuspendClocks_pu08	4[sp]	param
                        2295 --_ZPDFilterLength_pu08	32[sp]	param
                        2296 --_ZPDFilterDepth_pu08	36[sp]	param
                        2297 --_ZPDAnalogLevel_pu08	40[sp]	param
                        2298 --_ZPDADConnect_pu08	44[sp]	param
                        2299 
                        2300 	.section ".bss","awb"
                        2301 .L1480:
                        2302 	.type	.L1480,@object
                        2303 	.size	.L1480,0
                        2304 	.data
                        2305 	.ghsnote jtable,2097156,.L1482,.L1482,.L1482,16
                        2306 	.text
                        2307 
                        2308 --703: }
                        2309 
                        2310 --705: /*=============================================================================
                        2311 --706:   FunctionName: R_ISM_SetTimebase
                        2312 --707:   IN  : UnitNumber: Selected Macro
                        2313 --708:         PWMFrequency: PWM Frequency to be set
                        2314 --709:         CMFrequency: Channel Management Frequency (START) to be set
                        2315 --710:   OUT : Error Flag
                        2316 --711:   Description :
                        2317 --712:   Set Timebase of ISM
                        2318 --713:   =============================================================================*/
                        2319 --714: uint32_t R_ISM_SetTimebase( uint8_t UnitNumber_u08,
                        2320 	.align	2

                                                                      Page 42
                                                              C:\Users\YINGAO~1\AppData\Local\Temp\gh_00008201.si
                        2321 	.align	2
                        2322 	.global	_R_ISM_SetTimebase
                        2323 _R_ISM_SetTimebase:
00000896 8407e170       2324 	prepare	{r25,r26,r27,r28,r29,r31},2
0000089a 633f0100       2325 	st.w	r7,0[sp]
0000089e c6deff00       2326 	andi	255,r6,r27
000008a2 63470500       2327 	st.w	r8,4[sp]
000008a6 3a0600c07f44   2328 	mov	1149222912,r26
000008ac 390600000000*  2329 	mov	_rism_p,r25
                        2330 --	    .bf
                        2331 .LDW34:
                        2332 --715:                           float PWMFrequency_flt,
                        2333 --716:                           float CMFrequency_flt )
                        2334 --717: {
                        2335 --718:   uint32_t PWMFactor_u32;
                        2336 --719:   uint32_t CMFactor_u32;
                        2337 --721:   if( UnitNumber_u08 >= R_ISM_MACRO_NUM ) return( R_ISM_ERR_NG );
000008b2 61da           2338 	cmp	1,r27
000008b4 b105*          2339 	bl	.L1646
                        2340 --line721
                        2341 ..lin.D.3A.5CRenesas_Electronics.5CD1x_RGL.5Crgl_ghs_D1Lx_obj_V1.2E2.2E0.5Cvlib.5Capp.5Cgfx_apps.5Csimple_draw_d1l2.5Ctarget.5Cd1lx_mango_ghs.5Cobj.5Cqlapbismv1_p.153::
                        2342 .LDWlin153:
000008b6 0052           2343 	mov	0,r10
000008b8 b54d*          2344 	br	.L1644
                        2345 .L1646:
                        2346 --723:   PWMFactor_u32 = ( uint32_t )( ( float )R_ISM_CLOCK_HZ /
                        2347 --line723
                        2348 ..lin.D.3A.5CRenesas_Electronics.5CD1x_RGL.5Crgl_ghs_D1Lx_obj_V1.2E2.2E0.5Cvlib.5Capp.5Cgfx_apps.5Csimple_draw_d1l2.5Ctarget.5Cd1lx_mango_ghs.5Cobj.5Cqlapbismv1_p.154::
                        2349 .LDWlin154:
000008ba 0032           2350 	mov	0,r6
                        2351 	jarl	_R_SYS_ISM_SysGetClockHz,lp
                        2351 <EXPANSION BEGIN>
                        2351 jarl22 _R_SYS_ISM_SysGetClockHz , lp 
000008bc 80ff0000*      2351 <EXPANSION END>
000008c0 235f0100       2352 	ld.w	0[sp],r11
000008c4 f057420c       2353 	cvtf.uws	r10,r1
000008c8 fa5f6474       2354 	mulf.s	r26,r11,r14
000008cc ee0f6e0c       2355 	divf.s	r14,r1,r1
000008d0 f10f400c       2356 	trncf.suw	r1,r1
000008d4 01e8           2357 	mov	r1,r29
                        2358 --724:                              ( PWMFrequency_flt * ( float )R_ISM_TB_COUNTS ) );
                        2359 --725:   if( PWMFactor_u32 > R_ISM_PWMDIV_MAX ) return( R_ISM_ERR_NG );
                        2360 --line725
                        2361 ..lin.D.3A.5CRenesas_Electronics.5CD1x_RGL.5Crgl_ghs_D1Lx_obj_V1.2E2.2E0.5Cvlib.5Capp.5Cgfx_apps.5Csimple_draw_d1l2.5Ctarget.5Cd1lx_mango_ghs.5Cobj.5Cqlapbismv1_p.155::
                        2362 .LDWlin155:
000008d6 1d06efff       2363 	addi	-17,r29,zero
000008da b905*          2364 	bnl	.L1649
                        2365 --line725
                        2366 ..lin.D.3A.5CRenesas_Electronics.5CD1x_RGL.5Crgl_ghs_D1Lx_obj_V1.2E2.2E0.5Cvlib.5Capp.5Cgfx_apps.5Csimple_draw_d1l2.5Ctarget.5Cd1lx_mango_ghs.5Cobj.5Cqlapbismv1_p.156::
                        2367 .LDWlin156:
000008dc 0052           2368 	mov	0,r10
000008de 853d*          2369 	br	.L1644
                        2370 .L1649:
                        2371 --726:   if( PWMFactor_u32 < 1 ) return( R_ISM_ERR_NG );
                        2372 --line726
                        2373 ..lin.D.3A.5CRenesas_Electronics.5CD1x_RGL.5Crgl_ghs_D1Lx_obj_V1.2E2.2E0.5Cvlib.5Capp.5Cgfx_apps.5Csimple_draw_d1l2.5Ctarget.5Cd1lx_mango_ghs.5Cobj.5Cqlapbismv1_p.157::
                        2374 .LDWlin157:
000008e0 61ea           2375 	cmp	1,r29
000008e2 b905*          2376 	bnl	.L1652
                        2377 --line726
                        2378 ..lin.D.3A.5CRenesas_Electronics.5CD1x_RGL.5Crgl_ghs_D1Lx_obj_V1.2E2.2E0.5Cvlib.5Capp.5Cgfx_apps.5Csimple_draw_d1l2.5Ctarget.5Cd1lx_mango_ghs.5Cobj.5Cqlapbismv1_p.158::

                                                                      Page 43
                                                              C:\Users\YINGAO~1\AppData\Local\Temp\gh_00008201.si
                        2379 .LDWlin158:
000008e4 0052           2380 	mov	0,r10
000008e6 c535*          2381 	br	.L1644
                        2382 .L1652:
                        2383 --728:   CMFactor_u32 = ( uint32_t )( ( float )R_ISM_CLOCK_HZ /
                        2384 --line728
                        2385 ..lin.D.3A.5CRenesas_Electronics.5CD1x_RGL.5Crgl_ghs_D1Lx_obj_V1.2E2.2E0.5Cvlib.5Capp.5Cgfx_apps.5Csimple_draw_d1l2.5Ctarget.5Cd1lx_mango_ghs.5Cobj.5Cqlapbismv1_p.159::
                        2386 .LDWlin159:
000008e8 0032           2387 	mov	0,r6
                        2388 	jarl	_R_SYS_ISM_SysGetClockHz,lp
                        2388 <EXPANSION BEGIN>
                        2388 jarl22 _R_SYS_ISM_SysGetClockHz , lp 
000008ea 80ff0000*      2388 <EXPANSION END>
000008ee 235f0500       2389 	ld.w	4[sp],r11
000008f2 f0ef4274       2390 	cvtf.uws	r29,r14
000008f6 f057420c       2391 	cvtf.uws	r10,r1
000008fa eed76474       2392 	mulf.s	r14,r26,r14
000008fe eb776474       2393 	mulf.s	r11,r14,r14
00000902 ee0f6e0c       2394 	divf.s	r14,r1,r1
00000906 f10f400c       2395 	trncf.suw	r1,r1
0000090a 01e0           2396 	mov	r1,r28
                        2397 --729:                             ( ( float )R_ISM_TB_COUNTS *
                        2398 --730:                               ( float )PWMFactor_u32 * CMFrequency_flt ) );
                        2399 --731:   if( CMFactor_u32 > R_ISM_CMDIV_MAX ) return( R_ISM_ERR_NG );
                        2400 --line731
                        2401 ..lin.D.3A.5CRenesas_Electronics.5CD1x_RGL.5Crgl_ghs_D1Lx_obj_V1.2E2.2E0.5Cvlib.5Capp.5Cgfx_apps.5Csimple_draw_d1l2.5Ctarget.5Cd1lx_mango_ghs.5Cobj.5Cqlapbismv1_p.160::
                        2402 .LDWlin160:
0000090c 1c06fffe       2403 	addi	-257,r28,zero
00000910 b905*          2404 	bnl	.L1655
                        2405 --line731
                        2406 ..lin.D.3A.5CRenesas_Electronics.5CD1x_RGL.5Crgl_ghs_D1Lx_obj_V1.2E2.2E0.5Cvlib.5Capp.5Cgfx_apps.5Csimple_draw_d1l2.5Ctarget.5Cd1lx_mango_ghs.5Cobj.5Cqlapbismv1_p.161::
                        2407 .LDWlin161:
00000912 0052           2408 	mov	0,r10
00000914 d51d*          2409 	br	.L1644
                        2410 .L1655:
                        2411 --732:   if( CMFactor_u32 < 1 ) return( R_ISM_ERR_NG );
                        2412 --line732
                        2413 ..lin.D.3A.5CRenesas_Electronics.5CD1x_RGL.5Crgl_ghs_D1Lx_obj_V1.2E2.2E0.5Cvlib.5Capp.5Cgfx_apps.5Csimple_draw_d1l2.5Ctarget.5Cd1lx_mango_ghs.5Cobj.5Cqlapbismv1_p.162::
                        2414 .LDWlin162:
00000916 61e2           2415 	cmp	1,r28
00000918 b905*          2416 	bnl	.L1658
                        2417 --line732
                        2418 ..lin.D.3A.5CRenesas_Electronics.5CD1x_RGL.5Crgl_ghs_D1Lx_obj_V1.2E2.2E0.5Cvlib.5Capp.5Cgfx_apps.5Csimple_draw_d1l2.5Ctarget.5Cd1lx_mango_ghs.5Cobj.5Cqlapbismv1_p.163::
                        2419 .LDWlin163:
0000091a 0052           2420 	mov	0,r10
0000091c 951d*          2421 	br	.L1644
                        2422 .L1658:
                        2423 --734:   rism_p[ UnitNumber_u08 ]->gcfg.gtb = PWMFactor_u32-1;
                        2424 --line734
                        2425 ..lin.D.3A.5CRenesas_Electronics.5CD1x_RGL.5Crgl_ghs_D1Lx_obj_V1.2E2.2E0.5Cvlib.5Capp.5Cgfx_apps.5Csimple_draw_d1l2.5Ctarget.5Cd1lx_mango_ghs.5Cobj.5Cqlapbismv1_p.164::
                        2426 .LDWlin164:
0000091e 1bf0           2427 	mov	r27,ep
00000920 c2f2           2428 	shl	2,ep
00000922 d9f1           2429 	add	r25,ep
00000924 1d76ffff       2430 	addi	-1,r29,r14
00000928 00f5           2431 	sld.w	0[ep],ep
0000092a 040d           2432 	sld.w	8[ep],r1
0000092c ee0f9030       2433 	bins	r14,16,4,r1
00000930 050d           2434 	sst.w	r1,8[ep]
                        2435 --735:   rism_p[ UnitNumber_u08 ]->gcfg.gud = CMFactor_u32-1;
00000932 1bf0           2436 	mov	r27,ep

                                                                      Page 44
                                                              C:\Users\YINGAO~1\AppData\Local\Temp\gh_00008201.si
00000934 c2f2           2437 	shl	2,ep
00000936 d9f1           2438 	add	r25,ep
00000938 1c76ffff       2439 	addi	-1,r28,r14
0000093c 00f5           2440 	sld.w	0[ep],ep
0000093e 206e00ff       2441 	movea	-256,zero,r13
00000942 8e00           2442 	zxb	r14
00000944 040d           2443 	sld.w	8[ep],r1
00000946 4d09           2444 	and	r13,r1
00000948 0e09           2445 	or	r14,r1
0000094a 050d           2446 	sst.w	r1,8[ep]
                        2447 --737:   return( R_ISM_ERR_OK );
0000094c 0152           2448 	mov	1,r10
                        2449 .L1644:
                        2450 --	    .ef
                        2451 .LDW44:
0000094e 4406ff70       2452 	dispose	2,{r25,r26,r27,r28,r29,r31},[lp]
                        2453 	.type	_R_ISM_SetTimebase,@function
                        2454 	.size	_R_ISM_SetTimebase,.-_R_ISM_SetTimebase
                        2455 	.align	2
                        2456 .LDW54:
                        2457 --_PWMFactor_u32	r29	local
                        2458 --_CMFactor_u32	r28	local
                        2459 
                        2460 --_UnitNumber_u08	r27	param
                        2461 --_PWMFrequency_flt	0[sp]	param
                        2462 --_CMFrequency_flt	4[sp]	param
                        2463 
                        2464 	.section ".bss","awb"
                        2465 .L1700:
                        2466 	.type	.L1700,@object
                        2467 	.size	.L1700,0
                        2468 	.data
                        2469 	.text
                        2470 
                        2471 --738: }
                        2472 
                        2473 --740: /*=============================================================================
                        2474 --741:   FunctionName: R_ISM_GetTimebase
                        2475 --742:   IN  : UnitNumber: Selected Macro
                        2476 --743:   OUT : Error Flag
                        2477 --744:         PWMFrequency: PWM Frequency set
                        2478 --745:         CMFrequency: Channel Management Frequency (START)  set
                        2479 --746:   Description :
                        2480 --747:   Get Timebase settings of ISM
                        2481 --748:   =============================================================================*/
                        2482 --749: uint32_t R_ISM_GetTimebase( uint8_t  UnitNumber_u08,
                        2483 	.align	2
                        2484 	.align	2
                        2485 	.global	_R_ISM_GetTimebase
                        2486 _R_ISM_GetTimebase:
00000952 8007e170       2487 	prepare	{r25,r26,r27,r28,r29,r31},0
00000956 3d0600000000*  2488 	mov	_rism_p,r29
0000095c c6e6ff00       2489 	andi	255,r6,r28
00000960 07d8           2490 	mov	r7,r27
00000962 08c8           2491 	mov	r8,r25
00000964 1dd0           2492 	mov	r29,r26
                        2493 --	    .bf
                        2494 .LDW64:
                        2495 --750:                           uint32_t* PWMFrequency_pu32,
                        2496 --751:                           uint32_t* CMFrequency_pu32 )
                        2497 --752: {

                                                                      Page 45
                                                              C:\Users\YINGAO~1\AppData\Local\Temp\gh_00008201.si
                        2498 --753:   if( UnitNumber_u08 >= R_ISM_MACRO_NUM ) return( R_ISM_ERR_NG );
00000966 61e2           2499 	cmp	1,r28
00000968 b105*          2500 	bl	.L1756
                        2501 --line753
                        2502 ..lin.D.3A.5CRenesas_Electronics.5CD1x_RGL.5Crgl_ghs_D1Lx_obj_V1.2E2.2E0.5Cvlib.5Capp.5Cgfx_apps.5Csimple_draw_d1l2.5Ctarget.5Cd1lx_mango_ghs.5Cobj.5Cqlapbismv1_p.165::
                        2503 .LDWlin165:
0000096a 0052           2504 	mov	0,r10
0000096c d525*          2505 	br	.L1754
                        2506 .L1756:
                        2507 --755:   *PWMFrequency_pu32 = R_ISM_CLOCK_HZ / ( R_ISM_TB_COUNTS *
                        2508 --line755
                        2509 ..lin.D.3A.5CRenesas_Electronics.5CD1x_RGL.5Crgl_ghs_D1Lx_obj_V1.2E2.2E0.5Cvlib.5Capp.5Cgfx_apps.5Csimple_draw_d1l2.5Ctarget.5Cd1lx_mango_ghs.5Cobj.5Cqlapbismv1_p.166::
                        2510 .LDWlin166:
0000096e 0032           2511 	mov	0,r6
                        2512 	jarl	_R_SYS_ISM_SysGetClockHz,lp
                        2512 <EXPANSION BEGIN>
                        2512 jarl22 _R_SYS_ISM_SysGetClockHz , lp 
00000970 80ff0000*      2512 <EXPANSION END>
00000974 1cf0           2513 	mov	r28,ep
00000976 c2f2           2514 	shl	2,ep
00000978 daf1           2515 	add	r26,ep
0000097a 00f5           2516 	sld.w	0[ep],ep
0000097c 040d           2517 	sld.w	8[ep],r1
0000097e cc0a           2518 	shl	12,r1
00000980 9c0a           2519 	shr	28,r1
00000982 01760100       2520 	addi	1,r1,r14
00000986 200eff03       2521 	movea	1023,zero,r1
0000098a e1772202       2522 	mulu	r1,r14,zero
0000098e 0a08           2523 	mov	r10,r1
00000990 ee0ffe02       2524 	divqu	r14,r1,zero
00000994 7b0f0100       2525 	st.w	r1,0[r27]
                        2526 --756:                                         ( rism_p[ UnitNumber_u08 ]->gcfg.gtb+1 ) );
                        2527 --757:   *CMFrequency_pu32 = *PWMFrequency_pu32 / ( rism_p[ UnitNumber_u08 ]->gcfg.gud+1 );
                        2528 --line757
                        2529 ..lin.D.3A.5CRenesas_Electronics.5CD1x_RGL.5Crgl_ghs_D1Lx_obj_V1.2E2.2E0.5Cvlib.5Capp.5Cgfx_apps.5Csimple_draw_d1l2.5Ctarget.5Cd1lx_mango_ghs.5Cobj.5Cqlapbismv1_p.167::
                        2530 .LDWlin167:
00000998 1cf0           2531 	mov	r28,ep
0000099a c2f2           2532 	shl	2,ep
0000099c daf1           2533 	add	r26,ep
0000099e 00f5           2534 	sld.w	0[ep],ep
000009a0 040d           2535 	sld.w	8[ep],r1
000009a2 8100           2536 	zxb	r1
000009a4 01760100       2537 	addi	1,r1,r14
000009a8 3b0f0100       2538 	ld.w	0[r27],r1
000009ac ee0ffe02       2539 	divqu	r14,r1,zero
000009b0 790f0100       2540 	st.w	r1,0[r25]
                        2541 --759:   return( R_ISM_ERR_OK );
000009b4 0152           2542 	mov	1,r10
                        2543 .L1754:
                        2544 --	    .ef
                        2545 .LDW74:
000009b6 4006ff70       2546 	dispose	0,{r25,r26,r27,r28,r29,r31},[lp]
                        2547 	.type	_R_ISM_GetTimebase,@function
                        2548 	.size	_R_ISM_GetTimebase,.-_R_ISM_GetTimebase
                        2549 	.align	2
                        2550 .LDW84:
                        2551 
                        2552 --_UnitNumber_u08	r28	param
                        2553 --_PWMFrequency_pu32	r27	param
                        2554 --_CMFrequency_pu32	r25	param
                        2555 

                                                                      Page 46
                                                              C:\Users\YINGAO~1\AppData\Local\Temp\gh_00008201.si
                        2556 	.data
                        2557 	.text
                        2558 
                        2559 --760: }
                        2560 
                        2561 --762: /*=============================================================================
                        2562 --763:   FunctionName: R_ISM_ReadTimebase
                        2563 --764:   IN  : UnitNumber: Selected Macro
                        2564 --765:   OUT : Error Flag
                        2565 --766:         TimeBaseValue: Read current TB count value
                        2566 --767:   Description :
                        2567 --768:   Get common Timebase count of ISM
                        2568 --769:   =============================================================================*/
                        2569 --770: uint32_t R_ISM_ReadTimebase( uint8_t  UnitNumber_u08,
                        2570 	.align	2
                        2571 	.align	2
                        2572 	.global	_R_ISM_ReadTimebase
                        2573 _R_ISM_ReadTimebase:
000009ba c676ff00       2574 	andi	255,r6,r14
000009be 0768           2575 	mov	r7,r13
000009c0 210600000000*  2576 	mov	_rism_p,r1
                        2577 --	    .bf
                        2578 .LDW94:
                        2579 --771:                            uint32_t* TimeBaseValue_pu32 )
                        2580 --772: {
                        2581 --773:   if( UnitNumber_u08 >= R_ISM_MACRO_NUM ) return( R_ISM_ERR_NG );
000009c6 6172           2582 	cmp	1,r14
000009c8 b105*          2583 	bl	.L1801
                        2584 --line773
                        2585 ..lin.D.3A.5CRenesas_Electronics.5CD1x_RGL.5Crgl_ghs_D1Lx_obj_V1.2E2.2E0.5Cvlib.5Capp.5Cgfx_apps.5Csimple_draw_d1l2.5Ctarget.5Cd1lx_mango_ghs.5Cobj.5Cqlapbismv1_p.168::
                        2586 .LDWlin168:
000009ca 0052           2587 	mov	0,r10
000009cc c50d*          2588 	br	.L1799
                        2589 .L1801:
                        2590 --775:   *TimeBaseValue_pu32 = rism_p[ UnitNumber_u08 ]->gcnt;
                        2591 --line775
                        2592 ..lin.D.3A.5CRenesas_Electronics.5CD1x_RGL.5Crgl_ghs_D1Lx_obj_V1.2E2.2E0.5Cvlib.5Capp.5Cgfx_apps.5Csimple_draw_d1l2.5Ctarget.5Cd1lx_mango_ghs.5Cobj.5Cqlapbismv1_p.169::
                        2593 .LDWlin169:
000009ce 0ef0           2594 	mov	r14,ep
000009d0 c2f2           2595 	shl	2,ep
000009d2 210600000000*  2596 	mov	_rism_p,r1
000009d8 c1f1           2597 	add	r1,ep
000009da 00f5           2598 	sld.w	0[ep],ep
000009dc 060d           2599 	sld.w	12[ep],r1
000009de 6d0f0100       2600 	st.w	r1,0[r13]
                        2601 --777:   return( R_ISM_ERR_OK );
000009e2 0152           2602 	mov	1,r10
                        2603 .L1799:
                        2604 --	    .ef
                        2605 .LDW05:
000009e4 7f00           2606 	jmp	[lp]
                        2607 	.type	_R_ISM_ReadTimebase,@function
                        2608 	.size	_R_ISM_ReadTimebase,.-_R_ISM_ReadTimebase
                        2609 	.align	2
                        2610 .LDW15:
                        2611 
                        2612 --_UnitNumber_u08	r14	param
                        2613 --_TimeBaseValue_pu32	r13	param
                        2614 
                        2615 	.data
                        2616 	.text

                                                                      Page 47
                                                              C:\Users\YINGAO~1\AppData\Local\Temp\gh_00008201.si
                        2617 
                        2618 --778: }
                        2619 
                        2620 --780: /*=============================================================================
                        2621 --781:   FunctionName: R_ISM_SetEnableZPD
                        2622 --782:   IN  : UnitNumber: Selected Macro
                        2623 --783:         Global ZPD Enable, Global ZPD Power Saving
                        2624 --784:   OUT : Error Flag
                        2625 --785:   Description :
                        2626 --786:   Enable ZPD Operation, set Power Save Mode of ZPD
                        2627 --787:   =============================================================================*/
                        2628 --788: uint32_t R_ISM_SetEnableZPD( uint8_t UnitNumber_u08,
                        2629 	.align	2
                        2630 	.align	2
                        2631 	.global	_R_ISM_SetEnableZPD
                        2632 _R_ISM_SetEnableZPD:
000009e6 210600000000*  2633 	mov	_rism_p,r1
000009ec c676ff00       2634 	andi	255,r6,r14
000009f0 c766ff00       2635 	andi	255,r7,r12
000009f4 c85eff00       2636 	andi	255,r8,r11
000009f8 0168           2637 	mov	r1,r13
                        2638 --	    .bf
                        2639 .LDW25:
                        2640 --789:                            uint8_t ZPDEnable_u08,
                        2641 --790:                            uint8_t ZPDPowerSave_u08 )
                        2642 --791: {
                        2643 --792:   if( UnitNumber_u08 >= R_ISM_MACRO_NUM ) return( R_ISM_ERR_NG );
000009fa 6172           2644 	cmp	1,r14
000009fc b105*          2645 	bl	.L1844
                        2646 --line792
                        2647 ..lin.D.3A.5CRenesas_Electronics.5CD1x_RGL.5Crgl_ghs_D1Lx_obj_V1.2E2.2E0.5Cvlib.5Capp.5Cgfx_apps.5Csimple_draw_d1l2.5Ctarget.5Cd1lx_mango_ghs.5Cobj.5Cqlapbismv1_p.170::
                        2648 .LDWlin170:
000009fe 0052           2649 	mov	0,r10
00000a00 d525*          2650 	br	.L1842
                        2651 .L1844:
                        2652 --793:   if( ZPDPowerSave_u08 & ZPDEnable_u08 ) return( R_ISM_ERR_NG );
                        2653 --line793
                        2654 ..lin.D.3A.5CRenesas_Electronics.5CD1x_RGL.5Crgl_ghs_D1Lx_obj_V1.2E2.2E0.5Cvlib.5Capp.5Cgfx_apps.5Csimple_draw_d1l2.5Ctarget.5Cd1lx_mango_ghs.5Cobj.5Cqlapbismv1_p.171::
                        2655 .LDWlin171:
00000a02 0c50           2656 	mov	r12,r10
00000a04 4b51           2657 	and	r11,r10
00000a06 b205*          2658 	be	.L1847
                        2659 --line793
                        2660 ..lin.D.3A.5CRenesas_Electronics.5CD1x_RGL.5Crgl_ghs_D1Lx_obj_V1.2E2.2E0.5Cvlib.5Capp.5Cgfx_apps.5Csimple_draw_d1l2.5Ctarget.5Cd1lx_mango_ghs.5Cobj.5Cqlapbismv1_p.172::
                        2661 .LDWlin172:
00000a08 0052           2662 	mov	0,r10
00000a0a 8525*          2663 	br	.L1842
                        2664 .L1847:
                        2665 --795:   rism_p[ UnitNumber_u08 ]->gctl.gzl    = 1L;   /* Link ISM with ZPD analogue */
                        2666 --line795
                        2667 ..lin.D.3A.5CRenesas_Electronics.5CD1x_RGL.5Crgl_ghs_D1Lx_obj_V1.2E2.2E0.5Cvlib.5Capp.5Cgfx_apps.5Csimple_draw_d1l2.5Ctarget.5Cd1lx_mango_ghs.5Cobj.5Cqlapbismv1_p.173::
                        2668 .LDWlin173:
00000a0c 0ef0           2669 	mov	r14,ep
00000a0e c2f2           2670 	shl	2,ep
00000a10 cdf1           2671 	add	r13,ep
00000a12 00f5           2672 	sld.w	0[ep],ep
00000a14 0055           2673 	sld.w	0[ep],r10
00000a16 8a560100       2674 	ori	1,r10,r10
00000a1a 0155           2675 	sst.w	r10,0[ep]
                        2676 --797:   rism_p[ UnitNumber_u08 ]->gzpdctl.gzp = ( uint32_t )ZPDPowerSave_u08;
00000a1c 0ef0           2677 	mov	r14,ep

                                                                      Page 48
                                                              C:\Users\YINGAO~1\AppData\Local\Temp\gh_00008201.si
00000a1e c2f2           2678 	shl	2,ep
00000a20 cdf1           2679 	add	r13,ep
00000a22 00f5           2680 	sld.w	0[ep],ep
00000a24 0855           2681 	sld.w	16[ep],r10
00000a26 eb579ce8       2682 	bins	r11,30,1,r10
00000a2a 0955           2683 	sst.w	r10,16[ep]
                        2684 --798:   rism_p[ UnitNumber_u08 ]->gzpdctl.gze = ( uint32_t )ZPDEnable_u08;
00000a2c 0ef0           2685 	mov	r14,ep
00000a2e c2f2           2686 	shl	2,ep
00000a30 cdf1           2687 	add	r13,ep
00000a32 00f5           2688 	sld.w	0[ep],ep
00000a34 2906ffffff7f   2689 	mov	2147483647,r9
00000a3a 0855           2690 	sld.w	16[ep],r10
00000a3c 4951           2691 	and	r9,r10
00000a3e cc4e0100       2692 	andi	1,r12,r9
00000a42 df4a           2693 	shl	31,r9
00000a44 0951           2694 	or	r9,r10
00000a46 0955           2695 	sst.w	r10,16[ep]
                        2696 --800:   return( R_ISM_ERR_OK );
00000a48 0152           2697 	mov	1,r10
                        2698 .L1842:
                        2699 --	    .ef
                        2700 .LDW35:
00000a4a 7f00           2701 	jmp	[lp]
                        2702 	.type	_R_ISM_SetEnableZPD,@function
                        2703 	.size	_R_ISM_SetEnableZPD,.-_R_ISM_SetEnableZPD
                        2704 	.align	2
                        2705 .LDW45:
                        2706 
                        2707 --_UnitNumber_u08	r14	param
                        2708 --_ZPDEnable_u08	r12	param
                        2709 --_ZPDPowerSave_u08	r11	param
                        2710 
                        2711 	.data
                        2712 	.text
                        2713 
                        2714 --801: }
                        2715 
                        2716 --803: /*=============================================================================
                        2717 --804:   FunctionName: R_ISM_GetEnableZPD
                        2718 --805:   IN  : UnitNumber: Selected Macro
                        2719 --806:   OUT : Error Flag
                        2720 --807:         Global ZPD Enable, Global ZPD Power Saving
                        2721 --808:   Description :
                        2722 --809:   Check Enabled ZPD Operation, get Power Save Mode of ZPD
                        2723 --810:   =============================================================================*/
                        2724 --811: uint32_t R_ISM_GetEnableZPD( uint8_t  UnitNumber_u08,
                        2725 	.align	2
                        2726 	.align	2
                        2727 	.global	_R_ISM_GetEnableZPD
                        2728 _R_ISM_GetEnableZPD:
00000a4c 210600000000*  2729 	mov	_rism_p,r1
00000a52 c66eff00       2730 	andi	255,r6,r13
00000a56 0758           2731 	mov	r7,r11
00000a58 0850           2732 	mov	r8,r10
00000a5a 0160           2733 	mov	r1,r12
                        2734 --	    .bf
                        2735 .LDW55:
                        2736 --812:                            uint8_t* ZPDEnable_pu08,
                        2737 --813:                            uint8_t* ZPDPowerSave_pu08 )
                        2738 --814: {

                                                                      Page 49
                                                              C:\Users\YINGAO~1\AppData\Local\Temp\gh_00008201.si
                        2739 --815:   if( UnitNumber_u08 >= R_ISM_MACRO_NUM ) return( R_ISM_ERR_NG );
00000a5c 616a           2740 	cmp	1,r13
00000a5e b105*          2741 	bl	.L1912
                        2742 --line815
                        2743 ..lin.D.3A.5CRenesas_Electronics.5CD1x_RGL.5Crgl_ghs_D1Lx_obj_V1.2E2.2E0.5Cvlib.5Capp.5Cgfx_apps.5Csimple_draw_d1l2.5Ctarget.5Cd1lx_mango_ghs.5Cobj.5Cqlapbismv1_p.174::
                        2744 .LDWlin174:
00000a60 0072           2745 	mov	0,r14
00000a62 e515*          2746 	br	.L1910
                        2747 .L1912:
                        2748 --817:   /* Workaround: GZP is coded inversely */
                        2749 --819:   *ZPDPowerSave_pu08 = ( uint8_t )( ( ~rism_p[ UnitNumber_u08 ]->gzpdctl.gzp ) & 0x01 );
                        2750 --line819
                        2751 ..lin.D.3A.5CRenesas_Electronics.5CD1x_RGL.5Crgl_ghs_D1Lx_obj_V1.2E2.2E0.5Cvlib.5Capp.5Cgfx_apps.5Csimple_draw_d1l2.5Ctarget.5Cd1lx_mango_ghs.5Cobj.5Cqlapbismv1_p.175::
                        2752 .LDWlin175:
00000a64 0df0           2753 	mov	r13,ep
00000a66 c2f2           2754 	shl	2,ep
00000a68 ccf1           2755 	add	r12,ep
00000a6a 00f5           2756 	sld.w	0[ep],ep
00000a6c 0875           2757 	sld.w	16[ep],r14
00000a6e c172           2758 	shl	1,r14
00000a70 9f72           2759 	shr	31,r14
00000a72 2e70           2760 	not	r14,r14
00000a74 ce760100       2761 	andi	1,r14,r14
00000a78 4a770000       2762 	st.b	r14,0[r10]
                        2763 --820: /*   *ZPDPowerSave_pu08 = ( uint8_t )eeism_p[ UnitNumber_u08 ]->gzpdctl.gzp; */
                        2764 --821:   *ZPDEnable_pu08    = ( uint8_t )rism_p[ UnitNumber_u08 ]->gzpdctl.gze;
00000a7c 0df0           2765 	mov	r13,ep
00000a7e c2f2           2766 	shl	2,ep
00000a80 ccf1           2767 	add	r12,ep
00000a82 00f5           2768 	sld.w	0[ep],ep
00000a84 0875           2769 	sld.w	16[ep],r14
00000a86 9f72           2770 	shr	31,r14
00000a88 4b770000       2771 	st.b	r14,0[r11]
                        2772 --823:   return( R_ISM_ERR_OK );
00000a8c 0172           2773 	mov	1,r14
                        2774 .L1910:
                        2775 --	    .ef
                        2776 .LDW65:
00000a8e 0e50           2777 	mov	r14,r10
00000a90 7f00           2778 	jmp	[lp]
                        2779 	.type	_R_ISM_GetEnableZPD,@function
                        2780 	.size	_R_ISM_GetEnableZPD,.-_R_ISM_GetEnableZPD
                        2781 	.align	2
                        2782 .LDW75:
                        2783 
                        2784 --_UnitNumber_u08	r13	param
                        2785 --_ZPDEnable_pu08	r11	param
                        2786 --_ZPDPowerSave_pu08	r10	param
                        2787 
                        2788 	.data
                        2789 	.text
                        2790 
                        2791 --824: }
                        2792 
                        2793 --826: /*=============================================================================
                        2794 --827:   FunctionName: R_ISM_StartZPD
                        2795 --828:   IN  : UnitNumber: Selected Macro
                        2796 --829:         ChannelNumber: Selected Channel
                        2797 --830:   OUT : Error Flag
                        2798 --831:   Description :
                        2799 --832:   Start ZPD Operation with CM

                                                                      Page 50
                                                              C:\Users\YINGAO~1\AppData\Local\Temp\gh_00008201.si
                        2800 --833:   =============================================================================*/
                        2801 --834: uint32_t R_ISM_StartZPD( uint8_t UnitNumber_u08,
                        2802 	.align	2
                        2803 	.align	2
                        2804 	.global	_R_ISM_StartZPD
                        2805 _R_ISM_StartZPD:
00000a92 c676ff00       2806 	andi	255,r6,r14
00000a96 c76eff00       2807 	andi	255,r7,r13
00000a9a 210600000000*  2808 	mov	_rism_p,r1
                        2809 --	    .bf
                        2810 .LDW85:
                        2811 --835:                        uint8_t ChannelNumber_u08 )
                        2812 --836: {
                        2813 --837:   if( UnitNumber_u08 >= R_ISM_MACRO_NUM ) return( R_ISM_ERR_NG );
00000aa0 6172           2814 	cmp	1,r14
00000aa2 b105*          2815 	bl	.L1961
                        2816 --line837
                        2817 ..lin.D.3A.5CRenesas_Electronics.5CD1x_RGL.5Crgl_ghs_D1Lx_obj_V1.2E2.2E0.5Cvlib.5Capp.5Cgfx_apps.5Csimple_draw_d1l2.5Ctarget.5Cd1lx_mango_ghs.5Cobj.5Cqlapbismv1_p.176::
                        2818 .LDWlin176:
00000aa4 0052           2819 	mov	0,r10
00000aa6 e515*          2820 	br	.L1959
                        2821 .L1961:
                        2822 --838:   if( ChannelNumber_u08 >= R_ISM_CHANNELS ) return( R_ISM_ERR_NG );
                        2823 --line838
                        2824 ..lin.D.3A.5CRenesas_Electronics.5CD1x_RGL.5Crgl_ghs_D1Lx_obj_V1.2E2.2E0.5Cvlib.5Capp.5Cgfx_apps.5Csimple_draw_d1l2.5Ctarget.5Cd1lx_mango_ghs.5Cobj.5Cqlapbismv1_p.177::
                        2825 .LDWlin177:
00000aa8 666a           2826 	cmp	6,r13
00000aaa b105*          2827 	bl	.L1964
                        2828 --line838
                        2829 ..lin.D.3A.5CRenesas_Electronics.5CD1x_RGL.5Crgl_ghs_D1Lx_obj_V1.2E2.2E0.5Cvlib.5Capp.5Cgfx_apps.5Csimple_draw_d1l2.5Ctarget.5Cd1lx_mango_ghs.5Cobj.5Cqlapbismv1_p.178::
                        2830 .LDWlin178:
00000aac 0052           2831 	mov	0,r10
00000aae a515*          2832 	br	.L1959
                        2833 .L1964:
                        2834 --840:   rism_p[ UnitNumber_u08 ]->ccmr[ ChannelNumber_u08 ].czp = 1L;
                        2835 --line840
                        2836 ..lin.D.3A.5CRenesas_Electronics.5CD1x_RGL.5Crgl_ghs_D1Lx_obj_V1.2E2.2E0.5Cvlib.5Capp.5Cgfx_apps.5Csimple_draw_d1l2.5Ctarget.5Cd1lx_mango_ghs.5Cobj.5Cqlapbismv1_p.179::
                        2837 .LDWlin179:
00000ab0 0ef0           2838 	mov	r14,ep
00000ab2 c2f2           2839 	shl	2,ep
00000ab4 210600000000*  2840 	mov	_rism_p,r1
00000aba c1f1           2841 	add	r1,ep
00000abc 0065           2842 	sld.w	0[ep],r12
00000abe 0df0           2843 	mov	r13,ep
00000ac0 c2f2           2844 	shl	2,ep
00000ac2 0c661c00       2845 	addi	28,r12,r12
00000ac6 ccf1           2846 	add	r12,ep
00000ac8 000d           2847 	sld.w	0[ep],r1
00000aca 810e4000       2848 	ori	64,r1,r1
00000ace 010d           2849 	sst.w	r1,0[ep]
                        2850 --842:   return( R_ISM_ERR_OK );
00000ad0 0152           2851 	mov	1,r10
                        2852 .L1959:
                        2853 --	    .ef
                        2854 .LDW95:
00000ad2 7f00           2855 	jmp	[lp]
                        2856 	.type	_R_ISM_StartZPD,@function
                        2857 	.size	_R_ISM_StartZPD,.-_R_ISM_StartZPD
                        2858 	.align	2
                        2859 .LDW06:
                        2860 

                                                                      Page 51
                                                              C:\Users\YINGAO~1\AppData\Local\Temp\gh_00008201.si
                        2861 --_UnitNumber_u08	r14	param
                        2862 --_ChannelNumber_u08	r13	param
                        2863 
                        2864 	.data
                        2865 	.text
                        2866 
                        2867 --843: }
                        2868 
                        2869 --845: /*=============================================================================
                        2870 --846:   FunctionName: R_ISM_OperateZPDDirect
                        2871 --847:   IN  : UnitNumber: Selected Macro
                        2872 --848:         ChannelMask: Selected Channels to start/stop ZPD measurement simultaneously
                        2873 --849:         Input Selection of selected channels
                        2874 --850:         Start / Stop Flag
                        2875 --851:   OUT : Error Flag
                        2876 --852:   Description :
                        2877 --853:   Start ZPD Operation with CM
                        2878 --854:   =============================================================================*/
                        2879 --855: uint32_t R_ISM_OperateZPDDirect( uint8_t UnitNumber_u08,
                        2880 	.align	2
                        2881 	.align	2
                        2882 	.global	_R_ISM_OperateZPDDirect
                        2883 _R_ISM_OperateZPDDirect:
00000ad4 8007c130       2884 	prepare	{r26,r27,r28,r29},0
00000ad8 210600000000*  2885 	mov	_rism_p,r1
00000ade c666ff00       2886 	andi	255,r6,r12
00000ae2 c7eeff00       2887 	andi	255,r7,r29
00000ae6 c856ff00       2888 	andi	255,r8,r10
00000aea c9e6ff00       2889 	andi	255,r9,r28
00000aee 0158           2890 	mov	r1,r11
                        2891 --	    .bf
                        2892 .LDW16:
                        2893 --856:                                uint8_t ChannelMask_u08,
                        2894 --857:                                uint8_t InputSelection_u08,
                        2895 --858:                                uint8_t StartStopFlag_u08 )
                        2896 --859: {
                        2897 --860:   uint8_t CurrentChannel_u08;
                        2898 --861:   uint32_t Trigger_u32;
                        2899 --863:   if( UnitNumber_u08 >= R_ISM_MACRO_NUM ) return( R_ISM_ERR_NG );
00000af0 6162           2900 	cmp	1,r12
00000af2 c105*          2901 	bl	.L2014
                        2902 --line863
                        2903 ..lin.D.3A.5CRenesas_Electronics.5CD1x_RGL.5Crgl_ghs_D1Lx_obj_V1.2E2.2E0.5Cvlib.5Capp.5Cgfx_apps.5Csimple_draw_d1l2.5Ctarget.5Cd1lx_mango_ghs.5Cobj.5Cqlapbismv1_p.180::
                        2904 .LDWlin180:
00000af4 00da           2905 	mov	0,r27
00000af6 80071401*      2906 	br	.L2012
                        2907 .L2014:
                        2908 --865:   Trigger_u32 = rism_p[ UnitNumber_u08 ]->zpdctl.zmt;
                        2909 --line865
                        2910 ..lin.D.3A.5CRenesas_Electronics.5CD1x_RGL.5Crgl_ghs_D1Lx_obj_V1.2E2.2E0.5Cvlib.5Capp.5Cgfx_apps.5Csimple_draw_d1l2.5Ctarget.5Cd1lx_mango_ghs.5Cobj.5Cqlapbismv1_p.181::
                        2911 .LDWlin181:
00000afa 0cf0           2912 	mov	r12,ep
00000afc c2f2           2913 	shl	2,ep
00000afe cbf1           2914 	add	r11,ep
00000b00 00f5           2915 	sld.w	0[ep],ep
00000b02 4c6d           2916 	sld.w	152[ep],r13
00000b04 cd6e3f00       2917 	andi	63,r13,r13
                        2918 --867:   /* First, stop ZPD of selected channels */
                        2919 --869:   for( CurrentChannel_u08 = R_ISM_CHANNEL0;
00000b08 0072           2920 	mov	0,r14
00000b0a 0000           2921 	nop

                                                                      Page 52
                                                              C:\Users\YINGAO~1\AppData\Local\Temp\gh_00008201.si
                        2922 .L2019:
                        2923 --870:        CurrentChannel_u08 < R_ISM_CHANNELS;
                        2924 --871:        CurrentChannel_u08++ )
                        2925 --872:     {
                        2926 --873:       if( ( 1 << CurrentChannel_u08 ) & ChannelMask_u08 )
00000b0c 01da           2927 	mov	1,r27
00000b0e eedfc000       2928 	shl	r14,r27
00000b12 5dd9           2929 	and	r29,r27
00000b14 820d*          2930 	be	.L2020
                        2931 --874:         {
                        2932 --875:           if( !StartStopFlag_u08 )
                        2933 --line875
                        2934 ..lin.D.3A.5CRenesas_Electronics.5CD1x_RGL.5Crgl_ghs_D1Lx_obj_V1.2E2.2E0.5Cvlib.5Capp.5Cgfx_apps.5Csimple_draw_d1l2.5Ctarget.5Cd1lx_mango_ghs.5Cobj.5Cqlapbismv1_p.182::
                        2935 .LDWlin182:
00000b16 e0e1           2936 	cmp	zero,r28
00000b18 ea05*          2937 	bne	.L2020
                        2938 --876:             Trigger_u32 &= ( uint32_t )( ~( 1 << CurrentChannel_u08 ) );
                        2939 --line876
                        2940 ..lin.D.3A.5CRenesas_Electronics.5CD1x_RGL.5Crgl_ghs_D1Lx_obj_V1.2E2.2E0.5Cvlib.5Capp.5Cgfx_apps.5Csimple_draw_d1l2.5Ctarget.5Cd1lx_mango_ghs.5Cobj.5Cqlapbismv1_p.183::
                        2941 .LDWlin183:
00000b1a 01da           2942 	mov	1,r27
00000b1c eedfc2d8       2943 	shl	r14,r27,r27
00000b20 3bd8           2944 	not	r27,r27
00000b22 5b69           2945 	and	r27,r13
                        2946 .L2020:
00000b24 4172           2947 	add	1,r14
00000b26 8e00           2948 	zxb	r14
00000b28 6672           2949 	cmp	6,r14
00000b2a 91f5*          2950 	bl	.L2019
                        2951 --877:         }
                        2952 --878:     }
                        2953 --880:   rism_p[ UnitNumber_u08 ]->zpdctl.zmt = Trigger_u32;
                        2954 --line880
                        2955 ..lin.D.3A.5CRenesas_Electronics.5CD1x_RGL.5Crgl_ghs_D1Lx_obj_V1.2E2.2E0.5Cvlib.5Capp.5Cgfx_apps.5Csimple_draw_d1l2.5Ctarget.5Cd1lx_mango_ghs.5Cobj.5Cqlapbismv1_p.184::
                        2956 .LDWlin184:
00000b2c 0cf0           2957 	mov	r12,ep
00000b2e c2f2           2958 	shl	2,ep
00000b30 cbf1           2959 	add	r11,ep
00000b32 20d6c0ff       2960 	movea	-64,zero,r26
00000b36 00f5           2961 	sld.w	0[ep],ep
00000b38 4cdd           2962 	sld.w	152[ep],r27
00000b3a 5ad9           2963 	and	r26,r27
00000b3c cdd63f00       2964 	andi	63,r13,r26
00000b40 1ad9           2965 	or	r26,r27
00000b42 4ddd           2966 	sst.w	r27,152[ep]
                        2967 --882:   /* Modify the input selections */
                        2968 --884:   for( CurrentChannel_u08 = R_ISM_CHANNEL0;
00000b44 0072           2969 	mov	0,r14
00000b46 0000           2970 	nop
                        2971 .L2026:
                        2972 --885:        CurrentChannel_u08 < R_ISM_CHANNELS;
                        2973 --886:        CurrentChannel_u08++ )
                        2974 --887:     {
                        2975 --888:       if( ( 1 << CurrentChannel_u08 ) & ChannelMask_u08 )
00000b48 01da           2976 	mov	1,r27
00000b4a eedfc000       2977 	shl	r14,r27
00000b4e 5dd9           2978 	and	r29,r27
00000b50 c24d*          2979 	be	.L2027
                        2980 --889:         {
                        2981 --890:           switch( CurrentChannel_u08 )
                        2982 --line890

                                                                      Page 53
                                                              C:\Users\YINGAO~1\AppData\Local\Temp\gh_00008201.si
                        2983 ..lin.D.3A.5CRenesas_Electronics.5CD1x_RGL.5Crgl_ghs_D1Lx_obj_V1.2E2.2E0.5Cvlib.5Capp.5Cgfx_apps.5Csimple_draw_d1l2.5Ctarget.5Cd1lx_mango_ghs.5Cobj.5Cqlapbismv1_p.185::
                        2984 .LDWlin185:
00000b52 0ed8           2985 	mov	r14,r27
00000b54 63da           2986 	cmp	3,r27
00000b56 d905*          2987 	bnl	.L2123
00000b58 61da           2988 	cmp	1,r27
00000b5a 910d*          2989 	bl	.L2031
00000b5c ab1d*          2990 	bh	.L2033
00000b5e 8515*          2991 	br	.L2032
                        2992 .L2123:
00000b60 64da           2993 	cmp	4,r27
00000b62 8125*          2994 	bl	.L2034
00000b64 822d*          2995 	be	.L2035
00000b66 65da           2996 	cmp	5,r27
00000b68 8a3d*          2997 	bne	.L2037
00000b6a e52d*          2998 	br	.L2036
                        2999 .L2031:
                        3000 --891:             {
                        3001 --892:             case R_ISM_CHANNEL0:
                        3002 --893:               rism_p[ UnitNumber_u08 ]->zpdctl.zis0 = ( uint32_t )InputSelection_u08;
                        3003 --line893
                        3004 ..lin.D.3A.5CRenesas_Electronics.5CD1x_RGL.5Crgl_ghs_D1Lx_obj_V1.2E2.2E0.5Cvlib.5Capp.5Cgfx_apps.5Csimple_draw_d1l2.5Ctarget.5Cd1lx_mango_ghs.5Cobj.5Cqlapbismv1_p.186::
                        3005 .LDWlin186:
00000b6c 0cf0           3006 	mov	r12,ep
00000b6e c2f2           3007 	shl	2,ep
00000b70 cbf1           3008 	add	r11,ep
00000b72 00f5           3009 	sld.w	0[ep],ep
00000b74 4cdd           3010 	sld.w	152[ep],r27
00000b76 eadfd098       3011 	bins	r10,8,2,r27
00000b7a 4ddd           3012 	sst.w	r27,152[ep]
00000b7c 8535*          3013 	br	.L2029
                        3014 .L2032:
                        3015 --894:               break;
                        3016 --895:             case R_ISM_CHANNEL1:
                        3017 --896:               rism_p[ UnitNumber_u08 ]->zpdctl.zis1 = ( uint32_t )InputSelection_u08;
                        3018 --line896
                        3019 ..lin.D.3A.5CRenesas_Electronics.5CD1x_RGL.5Crgl_ghs_D1Lx_obj_V1.2E2.2E0.5Cvlib.5Capp.5Cgfx_apps.5Csimple_draw_d1l2.5Ctarget.5Cd1lx_mango_ghs.5Cobj.5Cqlapbismv1_p.187::
                        3020 .LDWlin187:
00000b7e 0cf0           3021 	mov	r12,ep
00000b80 c2f2           3022 	shl	2,ep
00000b82 cbf1           3023 	add	r11,ep
00000b84 00f5           3024 	sld.w	0[ep],ep
00000b86 4cdd           3025 	sld.w	152[ep],r27
00000b88 eadfd8d8       3026 	bins	r10,12,2,r27
00000b8c 4ddd           3027 	sst.w	r27,152[ep]
00000b8e f525*          3028 	br	.L2029
                        3029 .L2033:
                        3030 --897:               break;
                        3031 --898:             case R_ISM_CHANNEL2:
                        3032 --899:               rism_p[ UnitNumber_u08 ]->zpdctl.zis2 = ( uint32_t )InputSelection_u08;
                        3033 --line899
                        3034 ..lin.D.3A.5CRenesas_Electronics.5CD1x_RGL.5Crgl_ghs_D1Lx_obj_V1.2E2.2E0.5Cvlib.5Capp.5Cgfx_apps.5Csimple_draw_d1l2.5Ctarget.5Cd1lx_mango_ghs.5Cobj.5Cqlapbismv1_p.188::
                        3035 .LDWlin188:
00000b90 0cf0           3036 	mov	r12,ep
00000b92 c2f2           3037 	shl	2,ep
00000b94 cbf1           3038 	add	r11,ep
00000b96 00f5           3039 	sld.w	0[ep],ep
00000b98 4cdd           3040 	sld.w	152[ep],r27
00000b9a eadf9010       3041 	bins	r10,16,2,r27
00000b9e 4ddd           3042 	sst.w	r27,152[ep]
00000ba0 e51d*          3043 	br	.L2029

                                                                      Page 54
                                                              C:\Users\YINGAO~1\AppData\Local\Temp\gh_00008201.si
                        3044 .L2034:
                        3045 --900:               break;
                        3046 --901:             case R_ISM_CHANNEL3:
                        3047 --902:               rism_p[ UnitNumber_u08 ]->zpdctl.zis3 = ( uint32_t )InputSelection_u08;
                        3048 --line902
                        3049 ..lin.D.3A.5CRenesas_Electronics.5CD1x_RGL.5Crgl_ghs_D1Lx_obj_V1.2E2.2E0.5Cvlib.5Capp.5Cgfx_apps.5Csimple_draw_d1l2.5Ctarget.5Cd1lx_mango_ghs.5Cobj.5Cqlapbismv1_p.189::
                        3050 .LDWlin189:
00000ba2 0cf0           3051 	mov	r12,ep
00000ba4 c2f2           3052 	shl	2,ep
00000ba6 cbf1           3053 	add	r11,ep
00000ba8 00f5           3054 	sld.w	0[ep],ep
00000baa 4cdd           3055 	sld.w	152[ep],r27
00000bac eadf9850       3056 	bins	r10,20,2,r27
00000bb0 4ddd           3057 	sst.w	r27,152[ep]
00000bb2 d515*          3058 	br	.L2029
                        3059 .L2035:
                        3060 --903:               break;
                        3061 --904:             case R_ISM_CHANNEL4:
                        3062 --905:               rism_p[ UnitNumber_u08 ]->zpdctl.zis4 = ( uint32_t )InputSelection_u08;
                        3063 --line905
                        3064 ..lin.D.3A.5CRenesas_Electronics.5CD1x_RGL.5Crgl_ghs_D1Lx_obj_V1.2E2.2E0.5Cvlib.5Capp.5Cgfx_apps.5Csimple_draw_d1l2.5Ctarget.5Cd1lx_mango_ghs.5Cobj.5Cqlapbismv1_p.190::
                        3065 .LDWlin190:
00000bb4 0cf0           3066 	mov	r12,ep
00000bb6 c2f2           3067 	shl	2,ep
00000bb8 cbf1           3068 	add	r11,ep
00000bba 00f5           3069 	sld.w	0[ep],ep
00000bbc 4cdd           3070 	sld.w	152[ep],r27
00000bbe eadf9098       3071 	bins	r10,24,2,r27
00000bc2 4ddd           3072 	sst.w	r27,152[ep]
00000bc4 c50d*          3073 	br	.L2029
                        3074 .L2036:
                        3075 --906:               break;
                        3076 --907:             case R_ISM_CHANNEL5:
                        3077 --908:               rism_p[ UnitNumber_u08 ]->zpdctl.zis5 = ( uint32_t )InputSelection_u08;
                        3078 --line908
                        3079 ..lin.D.3A.5CRenesas_Electronics.5CD1x_RGL.5Crgl_ghs_D1Lx_obj_V1.2E2.2E0.5Cvlib.5Capp.5Cgfx_apps.5Csimple_draw_d1l2.5Ctarget.5Cd1lx_mango_ghs.5Cobj.5Cqlapbismv1_p.191::
                        3080 .LDWlin191:
00000bc6 0cf0           3081 	mov	r12,ep
00000bc8 c2f2           3082 	shl	2,ep
00000bca cbf1           3083 	add	r11,ep
00000bcc 00f5           3084 	sld.w	0[ep],ep
00000bce 4cdd           3085 	sld.w	152[ep],r27
00000bd0 eadf98d8       3086 	bins	r10,28,2,r27
00000bd4 4ddd           3087 	sst.w	r27,152[ep]
00000bd6 b505*          3088 	br	.L2029
                        3089 .L2037:
                        3090 --909:               break;
                        3091 --910:             default:
                        3092 --911:               return( R_ISM_ERR_NG );
                        3093 --line911
                        3094 ..lin.D.3A.5CRenesas_Electronics.5CD1x_RGL.5Crgl_ghs_D1Lx_obj_V1.2E2.2E0.5Cvlib.5Capp.5Cgfx_apps.5Csimple_draw_d1l2.5Ctarget.5Cd1lx_mango_ghs.5Cobj.5Cqlapbismv1_p.192::
                        3095 .LDWlin192:
00000bd8 00da           3096 	mov	0,r27
00000bda 851d*          3097 	br	.L2012
                        3098 .L2029:
                        3099 --912:             }
                        3100 --914:           if( StartStopFlag_u08 )
                        3101 --line914
                        3102 ..lin.D.3A.5CRenesas_Electronics.5CD1x_RGL.5Crgl_ghs_D1Lx_obj_V1.2E2.2E0.5Cvlib.5Capp.5Cgfx_apps.5Csimple_draw_d1l2.5Ctarget.5Cd1lx_mango_ghs.5Cobj.5Cqlapbismv1_p.193::
                        3103 .LDWlin193:
00000bdc e0e1           3104 	cmp	zero,r28

                                                                      Page 55
                                                              C:\Users\YINGAO~1\AppData\Local\Temp\gh_00008201.si
00000bde d205*          3105 	be	.L2027
                        3106 --915:             Trigger_u32 |= ( uint32_t )( 1 << CurrentChannel_u08 );
                        3107 --line915
                        3108 ..lin.D.3A.5CRenesas_Electronics.5CD1x_RGL.5Crgl_ghs_D1Lx_obj_V1.2E2.2E0.5Cvlib.5Capp.5Cgfx_apps.5Csimple_draw_d1l2.5Ctarget.5Cd1lx_mango_ghs.5Cobj.5Cqlapbismv1_p.194::
                        3109 .LDWlin194:
00000be0 01da           3110 	mov	1,r27
00000be2 eedfc2d8       3111 	shl	r14,r27,r27
00000be6 1b69           3112 	or	r27,r13
                        3113 .L2027:
00000be8 4172           3114 	add	1,r14
00000bea 8e00           3115 	zxb	r14
00000bec 6672           3116 	cmp	6,r14
00000bee d1ad*          3117 	bl	.L2026
                        3118 --916:         }
                        3119 --917:     }
                        3120 --919:   /* Finally, start the newly activated ZPD channels */
                        3121 --921:   rism_p[ UnitNumber_u08 ]->zpdctl.zmt = Trigger_u32;
                        3122 --line921
                        3123 ..lin.D.3A.5CRenesas_Electronics.5CD1x_RGL.5Crgl_ghs_D1Lx_obj_V1.2E2.2E0.5Cvlib.5Capp.5Cgfx_apps.5Csimple_draw_d1l2.5Ctarget.5Cd1lx_mango_ghs.5Cobj.5Cqlapbismv1_p.195::
                        3124 .LDWlin195:
00000bf0 0cf0           3125 	mov	r12,ep
00000bf2 c2f2           3126 	shl	2,ep
00000bf4 cbf1           3127 	add	r11,ep
00000bf6 20d6c0ff       3128 	movea	-64,zero,r26
00000bfa 00f5           3129 	sld.w	0[ep],ep
00000bfc 4cdd           3130 	sld.w	152[ep],r27
00000bfe 5ad9           3131 	and	r26,r27
00000c00 cdd63f00       3132 	andi	63,r13,r26
00000c04 1ad9           3133 	or	r26,r27
00000c06 4ddd           3134 	sst.w	r27,152[ep]
                        3135 --923:   return( R_ISM_ERR_OK );
00000c08 01da           3136 	mov	1,r27
                        3137 .L2012:
                        3138 --	    .ef
                        3139 .LDW26:
00000c0a 1b50           3140 	mov	r27,r10
00000c0c 4006df30       3141 	dispose	0,{r26,r27,r28,r29},[lp]
                        3142 	.type	_R_ISM_OperateZPDDirect,@function
                        3143 	.size	_R_ISM_OperateZPDDirect,.-_R_ISM_OperateZPDDirect
                        3144 	.align	2
                        3145 .LDW36:
                        3146 --_CurrentChannel_u08	r14	local
                        3147 --_Trigger_u32	r13	local
                        3148 
                        3149 --_UnitNumber_u08	r12	param
                        3150 --_ChannelMask_u08	r29	param
                        3151 --_InputSelection_u08	r10	param
                        3152 --_StartStopFlag_u08	r28	param
                        3153 
                        3154 	.data
                        3155 	.text
                        3156 
                        3157 --924: }
                        3158 
                        3159 --926: /*=============================================================================
                        3160 --927:   FunctionName: R_ISM_ResetZPD
                        3161 --928:   IN  : UnitNumber: Selected Macro
                        3162 --929:         ChannelNumber: Selected Channel
                        3163 --930:   OUT : Error Flag
                        3164 --931:   Description :
                        3165 --932:   Stop and Reset ZPD Operation with CM

                                                                      Page 56
                                                              C:\Users\YINGAO~1\AppData\Local\Temp\gh_00008201.si
                        3166 --933:   =============================================================================*/
                        3167 --934: uint32_t R_ISM_ResetZPD( uint8_t UnitNumber_u08,
                        3168 	.align	2
                        3169 	.align	2
                        3170 	.global	_R_ISM_ResetZPD
                        3171 _R_ISM_ResetZPD:
00000c10 210600000000*  3172 	mov	_rism_p,r1
00000c16 c676ff00       3173 	andi	255,r6,r14
00000c1a c766ff00       3174 	andi	255,r7,r12
00000c1e 0168           3175 	mov	r1,r13
                        3176 --	    .bf
                        3177 .LDW46:
                        3178 --935:                        uint8_t ChannelNumber_u08 )
                        3179 --936: {
                        3180 --937:   if( UnitNumber_u08 >= R_ISM_MACRO_NUM ) return( R_ISM_ERR_NG );
00000c20 6172           3181 	cmp	1,r14
00000c22 b105*          3182 	bl	.L2253
                        3183 --line937
                        3184 ..lin.D.3A.5CRenesas_Electronics.5CD1x_RGL.5Crgl_ghs_D1Lx_obj_V1.2E2.2E0.5Cvlib.5Capp.5Cgfx_apps.5Csimple_draw_d1l2.5Ctarget.5Cd1lx_mango_ghs.5Cobj.5Cqlapbismv1_p.196::
                        3185 .LDWlin196:
00000c24 0052           3186 	mov	0,r10
00000c26 b53d*          3187 	br	.L2251
                        3188 .L2253:
                        3189 --938:   if( ChannelNumber_u08 >= R_ISM_CHANNELS ) return( R_ISM_ERR_NG );
                        3190 --line938
                        3191 ..lin.D.3A.5CRenesas_Electronics.5CD1x_RGL.5Crgl_ghs_D1Lx_obj_V1.2E2.2E0.5Cvlib.5Capp.5Cgfx_apps.5Csimple_draw_d1l2.5Ctarget.5Cd1lx_mango_ghs.5Cobj.5Cqlapbismv1_p.197::
                        3192 .LDWlin197:
00000c28 6662           3193 	cmp	6,r12
00000c2a b105*          3194 	bl	.L2256
                        3195 --line938
                        3196 ..lin.D.3A.5CRenesas_Electronics.5CD1x_RGL.5Crgl_ghs_D1Lx_obj_V1.2E2.2E0.5Cvlib.5Capp.5Cgfx_apps.5Csimple_draw_d1l2.5Ctarget.5Cd1lx_mango_ghs.5Cobj.5Cqlapbismv1_p.198::
                        3197 .LDWlin198:
00000c2c 0052           3198 	mov	0,r10
00000c2e f535*          3199 	br	.L2251
                        3200 .L2256:
                        3201 --940:   rism_p[ UnitNumber_u08 ]->ccmr[ ChannelNumber_u08 ].czp = 0L;
                        3202 --line940
                        3203 ..lin.D.3A.5CRenesas_Electronics.5CD1x_RGL.5Crgl_ghs_D1Lx_obj_V1.2E2.2E0.5Cvlib.5Capp.5Cgfx_apps.5Csimple_draw_d1l2.5Ctarget.5Cd1lx_mango_ghs.5Cobj.5Cqlapbismv1_p.199::
                        3204 .LDWlin199:
00000c30 0ef0           3205 	mov	r14,ep
00000c32 c2f2           3206 	shl	2,ep
00000c34 cdf1           3207 	add	r13,ep
00000c36 0055           3208 	sld.w	0[ep],r10
00000c38 0cf0           3209 	mov	r12,ep
00000c3a c2f2           3210 	shl	2,ep
00000c3c 0a561c00       3211 	addi	28,r10,r10
00000c40 caf1           3212 	add	r10,ep
00000c42 005d           3213 	sld.w	0[ep],r11
00000c44 2056bfff       3214 	movea	-65,zero,r10
00000c48 4a59           3215 	and	r10,r11
00000c4a 015d           3216 	sst.w	r11,0[ep]
                        3217 --941:   rism_p[ UnitNumber_u08 ]->clzp = ( 1 << ChannelNumber_u08 );
00000c4c 0ef0           3218 	mov	r14,ep
00000c4e c2f2           3219 	shl	2,ep
00000c50 cdf1           3220 	add	r13,ep
00000c52 015a           3221 	mov	1,r11
00000c54 00f5           3222 	sld.w	0[ep],ep
00000c56 ec5fc258       3223 	shl	r12,r11,r11
00000c5a 555d           3224 	sst.w	r11,168[ep]
                        3225 --943:   /* clear the ISMnGIP (Global Interrupt Pending) status GIP.SSRE using the
                        3226 --944:      ISMnGSTC, incase this reports the position has already been reached by a

                                                                      Page 57
                                                              C:\Users\YINGAO~1\AppData\Local\Temp\gh_00008201.si
                        3227 --945:      previous operation.
                        3228 --946:   */
                        3229 --947:   rism_p[ UnitNumber_u08 ]->gstc.clre   = ( 1 << ChannelNumber_u08 );
00000c5c 0ef0           3230 	mov	r14,ep
00000c5e c2f2           3231 	shl	2,ep
00000c60 cdf1           3232 	add	r13,ep
00000c62 015a           3233 	mov	1,r11
00000c64 00f5           3234 	sld.w	0[ep],ep
00000c66 ec5fc250       3235 	shl	r12,r11,r10
00000c6a 204ec0ff       3236 	movea	-64,zero,r9
00000c6e ca563f00       3237 	andi	63,r10,r10
00000c72 0c5d           3238 	sld.w	24[ep],r11
00000c74 4959           3239 	and	r9,r11
00000c76 0a59           3240 	or	r10,r11
00000c78 0d5d           3241 	sst.w	r11,24[ep]
                        3242 --948:   rism_p[ UnitNumber_u08 ]->gstc.cldo   = 1;
00000c7a 0ef0           3243 	mov	r14,ep
00000c7c c2f2           3244 	shl	2,ep
00000c7e cdf1           3245 	add	r13,ep
00000c80 00f5           3246 	sld.w	0[ep],ep
00000c82 0c5d           3247 	sld.w	24[ep],r11
00000c84 8b5e4000       3248 	ori	64,r11,r11
00000c88 0d5d           3249 	sst.w	r11,24[ep]
                        3250 --949:   rism_p[ UnitNumber_u08 ]->gstc.clad   = 1;
00000c8a 0ef0           3251 	mov	r14,ep
00000c8c c2f2           3252 	shl	2,ep
00000c8e cdf1           3253 	add	r13,ep
00000c90 00f5           3254 	sld.w	0[ep],ep
00000c92 0c5d           3255 	sld.w	24[ep],r11
00000c94 8b5e8000       3256 	ori	128,r11,r11
00000c98 0d5d           3257 	sst.w	r11,24[ep]
                        3258 --951:   return( R_ISM_ERR_OK );
00000c9a 0152           3259 	mov	1,r10
                        3260 .L2251:
                        3261 --	    .ef
                        3262 .LDW56:
00000c9c 7f00           3263 	jmp	[lp]
                        3264 	.type	_R_ISM_ResetZPD,@function
                        3265 	.size	_R_ISM_ResetZPD,.-_R_ISM_ResetZPD
                        3266 	.align	2
                        3267 .LDW66:
                        3268 
                        3269 --_UnitNumber_u08	r14	param
                        3270 --_ChannelNumber_u08	r12	param
                        3271 
                        3272 	.data
                        3273 	.text
                        3274 
                        3275 --952: }
                        3276 
                        3277 --954: /*=============================================================================
                        3278 --955:   FunctionName: R_ISM_SetZPDChannels
                        3279 --956:   IN  : UnitNumber: Selected Macro
                        3280 --957:         ChannelNumber: Selected Channel
                        3281 --958:         Channel specific ZPD Parameters
                        3282 --959:   OUT : Error Flag
                        3283 --960:   Description :
                        3284 --961:   Set Channel specifc settings of ZPD
                        3285 --962:   =============================================================================*/
                        3286 --963: uint32_t R_ISM_SetZPDChannels( uint8_t UnitNumber_u08,
                        3287 	.align	2

                                                                      Page 58
                                                              C:\Users\YINGAO~1\AppData\Local\Temp\gh_00008201.si
                        3288 	.align	2
                        3289 	.global	_R_ISM_SetZPDChannels
                        3290 _R_ISM_SetZPDChannels:
00000c9e 8007c110       3291 	prepare	{r27,r28,r29},0
00000ca2 210600000000*  3292 	mov	_rism_p,r1
00000ca8 c676ff00       3293 	andi	255,r6,r14
00000cac c76eff00       3294 	andi	255,r7,r13
00000cb0 c856ff00       3295 	andi	255,r8,r10
00000cb4 c9eeffff       3296 	andi	65535,r9,r29
00000cb8 0160           3297 	mov	r1,r12
                        3298 --	    .bf
                        3299 .LDW76:
                        3300 --964:                              uint8_t ChannelNumber_u08,
                        3301 --965:                              uint8_t AnalogLevelSelection_u08,
                        3302 --966:                              uint16_t BlankingDelay_u16,
                        3303 --967:                              uint8_t VibrationDamping_u08 )
                        3304 --968: {
                        3305 --969:   if( UnitNumber_u08 >= R_ISM_MACRO_NUM ) return( R_ISM_ERR_NG );
00000cba 6172           3306 	cmp	1,r14
00000cbc b105*          3307 	bl	.L2338
                        3308 --line969
                        3309 ..lin.D.3A.5CRenesas_Electronics.5CD1x_RGL.5Crgl_ghs_D1Lx_obj_V1.2E2.2E0.5Cvlib.5Capp.5Cgfx_apps.5Csimple_draw_d1l2.5Ctarget.5Cd1lx_mango_ghs.5Cobj.5Cqlapbismv1_p.200::
                        3310 .LDWlin200:
00000cbe 005a           3311 	mov	0,r11
00000cc0 c545*          3312 	br	.L2336
                        3313 .L2338:
                        3314 --970:   if( ChannelNumber_u08 >= R_ISM_CHANNELS ) return( R_ISM_ERR_NG );
                        3315 --line970
                        3316 ..lin.D.3A.5CRenesas_Electronics.5CD1x_RGL.5Crgl_ghs_D1Lx_obj_V1.2E2.2E0.5Cvlib.5Capp.5Cgfx_apps.5Csimple_draw_d1l2.5Ctarget.5Cd1lx_mango_ghs.5Cobj.5Cqlapbismv1_p.201::
                        3317 .LDWlin201:
00000cc2 666a           3318 	cmp	6,r13
00000cc4 b105*          3319 	bl	.L2341
                        3320 --line970
                        3321 ..lin.D.3A.5CRenesas_Electronics.5CD1x_RGL.5Crgl_ghs_D1Lx_obj_V1.2E2.2E0.5Cvlib.5Capp.5Cgfx_apps.5Csimple_draw_d1l2.5Ctarget.5Cd1lx_mango_ghs.5Cobj.5Cqlapbismv1_p.202::
                        3322 .LDWlin202:
00000cc6 005a           3323 	mov	0,r11
00000cc8 8545*          3324 	br	.L2336
                        3325 .L2341:
                        3326 --972:   if( AnalogLevelSelection_u08 )
                        3327 --line972
                        3328 ..lin.D.3A.5CRenesas_Electronics.5CD1x_RGL.5Crgl_ghs_D1Lx_obj_V1.2E2.2E0.5Cvlib.5Capp.5Cgfx_apps.5Csimple_draw_d1l2.5Ctarget.5Cd1lx_mango_ghs.5Cobj.5Cqlapbismv1_p.203::
                        3329 .LDWlin203:
00000cca e051           3330 	cmp	zero,r10
00000ccc c20d*          3331 	be	.L2344
                        3332 --973:     rism_p[ UnitNumber_u08 ]->zrs |= ( 1 << ChannelNumber_u08 );
                        3333 --line973
                        3334 ..lin.D.3A.5CRenesas_Electronics.5CD1x_RGL.5Crgl_ghs_D1Lx_obj_V1.2E2.2E0.5Cvlib.5Capp.5Cgfx_apps.5Csimple_draw_d1l2.5Ctarget.5Cd1lx_mango_ghs.5Cobj.5Cqlapbismv1_p.204::
                        3335 .LDWlin204:
00000cce 0ef0           3336 	mov	r14,ep
00000cd0 c2f2           3337 	shl	2,ep
00000cd2 ccf1           3338 	add	r12,ep
00000cd4 015a           3339 	mov	1,r11
00000cd6 00f5           3340 	sld.w	0[ep],ep
00000cd8 ed5fc2e0       3341 	shl	r13,r11,r28
00000cdc 4e5d           3342 	sld.w	156[ep],r11
00000cde 1c59           3343 	or	r28,r11
00000ce0 4f5d           3344 	sst.w	r11,156[ep]
00000ce2 c50d*          3345 	br	.L2346
                        3346 .L2344:
                        3347 --974:   else
                        3348 --975:     rism_p[ UnitNumber_u08 ]->zrs &= ( ~( 1 << ChannelNumber_u08 ) );

                                                                      Page 59
                                                              C:\Users\YINGAO~1\AppData\Local\Temp\gh_00008201.si
                        3349 --line975
                        3350 ..lin.D.3A.5CRenesas_Electronics.5CD1x_RGL.5Crgl_ghs_D1Lx_obj_V1.2E2.2E0.5Cvlib.5Capp.5Cgfx_apps.5Csimple_draw_d1l2.5Ctarget.5Cd1lx_mango_ghs.5Cobj.5Cqlapbismv1_p.205::
                        3351 .LDWlin205:
00000ce4 0ef0           3352 	mov	r14,ep
00000ce6 c2f2           3353 	shl	2,ep
00000ce8 ccf1           3354 	add	r12,ep
00000cea 015a           3355 	mov	1,r11
00000cec 00f5           3356 	sld.w	0[ep],ep
00000cee ed5fc258       3357 	shl	r13,r11,r11
00000cf2 2be0           3358 	not	r11,r28
00000cf4 4e5d           3359 	sld.w	156[ep],r11
00000cf6 5c59           3360 	and	r28,r11
00000cf8 4f5d           3361 	sst.w	r11,156[ep]
                        3362 .L2346:
                        3363 --976:   rism_p[ UnitNumber_u08 ]->zpdcmp[ ChannelNumber_u08 ].zbt =
00000cfa 0ef0           3364 	mov	r14,ep
00000cfc c2f2           3365 	shl	2,ep
00000cfe ccf1           3366 	add	r12,ep
00000d00 00e5           3367 	sld.w	0[ep],r28
00000d02 0df0           3368 	mov	r13,ep
00000d04 c2f2           3369 	shl	2,ep
00000d06 1ce6ac00       3370 	addi	172,r28,r28
00000d0a dcf1           3371 	add	r28,ep
00000d0c 005d           3372 	sld.w	0[ep],r11
00000d0e 40e6ffff       3373 	movhi	hi(-65536),zero,r28
00000d12 5c59           3374 	and	r28,r11
00000d14 1de0           3375 	mov	r29,r28
00000d16 dc00           3376 	zxh	r28
00000d18 1c59           3377 	or	r28,r11
00000d1a 015d           3378 	sst.w	r11,0[ep]
                        3379 --977:     ( uint32_t )BlankingDelay_u16;
                        3380 --978:     rism_p[ UnitNumber_u08 ]->zpdcmp[ ChannelNumber_u08 ].zss =
00000d1c 0ef0           3381 	mov	r14,ep
00000d1e c2f2           3382 	shl	2,ep
00000d20 ccf1           3383 	add	r12,ep
00000d22 00e5           3384 	sld.w	0[ep],r28
00000d24 1ce6ac00       3385 	addi	172,r28,r28
00000d28 0df0           3386 	mov	r13,ep
00000d2a c2f2           3387 	shl	2,ep
00000d2c dcf1           3388 	add	r28,ep
00000d2e 83e70d00       3389 	ld.bu	12[sp],r28
00000d32 005d           3390 	sld.w	0[ep],r11
00000d34 3b06ffffff7f   3391 	mov	2147483647,r27
00000d3a dce60100       3392 	andi	1,r28,r28
00000d3e dfe2           3393 	shl	31,r28
00000d40 5b59           3394 	and	r27,r11
00000d42 1c59           3395 	or	r28,r11
00000d44 015d           3396 	sst.w	r11,0[ep]
                        3397 --979:         ( uint32_t )VibrationDamping_u08;
                        3398 --982:   return( R_ISM_ERR_OK );
00000d46 015a           3399 	mov	1,r11
                        3400 .L2336:
                        3401 --	    .ef
                        3402 .LDW86:
00000d48 0b50           3403 	mov	r11,r10
00000d4a 4006df10       3404 	dispose	0,{r27,r28,r29},[lp]
                        3405 	.type	_R_ISM_SetZPDChannels,@function
                        3406 	.size	_R_ISM_SetZPDChannels,.-_R_ISM_SetZPDChannels
                        3407 	.align	2
                        3408 .LDW96:
                        3409 

                                                                      Page 60
                                                              C:\Users\YINGAO~1\AppData\Local\Temp\gh_00008201.si
                        3410 --_UnitNumber_u08	r14	param
                        3411 --_ChannelNumber_u08	r13	param
                        3412 --_AnalogLevelSelection_u08	r10	param
                        3413 --_BlankingDelay_u16	r29	param
                        3414 --_VibrationDamping_u08	12[sp]	param
                        3415 
                        3416 	.data
                        3417 	.text
                        3418 
                        3419 --983: }
                        3420 
                        3421 --985: /*=============================================================================
                        3422 --986:   FunctionName: R_ISM_GetZPDChannels
                        3423 --987:   IN  : UnitNumber: Selected Macro
                        3424 --988:         ChannelNumber: Selected Channel
                        3425 --989:   OUT : Error Flag
                        3426 --990:         Channel specific ZPD Parameters
                        3427 --991:   Description :
                        3428 --992:   Get Channel specifc settings of ZPD
                        3429 --993:   =============================================================================*/
                        3430 --994: uint32_t R_ISM_GetZPDChannels( uint8_t  UnitNumber_u08,
                        3431 	.align	2
                        3432 	.align	2
                        3433 	.global	_R_ISM_GetZPDChannels
                        3434 _R_ISM_GetZPDChannels:
00000d4e 8007c110       3435 	prepare	{r27,r28,r29},0
00000d52 210600000000*  3436 	mov	_rism_p,r1
00000d58 c676ff00       3437 	andi	255,r6,r14
00000d5c c76eff00       3438 	andi	255,r7,r13
00000d60 0858           3439 	mov	r8,r11
00000d62 0950           3440 	mov	r9,r10
00000d64 0160           3441 	mov	r1,r12
                        3442 --	    .bf
                        3443 .LDW07:
                        3444 --995:                              uint8_t  ChannelNumber_u08,
                        3445 --996:                              uint8_t* AnalogLevelSelection_pu08,
                        3446 --997:                              uint16_t* BlankingDelay_pu16,
                        3447 --998:                              uint8_t* VibrationDamping_pu08 )
                        3448 --999: {
                        3449 --1000:   if( UnitNumber_u08 >= R_ISM_MACRO_NUM ) return( R_ISM_ERR_NG );
00000d66 6172           3450 	cmp	1,r14
00000d68 b105*          3451 	bl	.L2418
                        3452 --line1000
                        3453 ..lin.D.3A.5CRenesas_Electronics.5CD1x_RGL.5Crgl_ghs_D1Lx_obj_V1.2E2.2E0.5Cvlib.5Capp.5Cgfx_apps.5Csimple_draw_d1l2.5Ctarget.5Cd1lx_mango_ghs.5Cobj.5Cqlapbismv1_p.206::
                        3454 .LDWlin206:
00000d6a 00ea           3455 	mov	0,r29
00000d6c d52d*          3456 	br	.L2416
                        3457 .L2418:
                        3458 --1001:   if( ChannelNumber_u08 >= R_ISM_CHANNELS ) return( R_ISM_ERR_NG );
                        3459 --line1001
                        3460 ..lin.D.3A.5CRenesas_Electronics.5CD1x_RGL.5Crgl_ghs_D1Lx_obj_V1.2E2.2E0.5Cvlib.5Capp.5Cgfx_apps.5Csimple_draw_d1l2.5Ctarget.5Cd1lx_mango_ghs.5Cobj.5Cqlapbismv1_p.207::
                        3461 .LDWlin207:
00000d6e 666a           3462 	cmp	6,r13
00000d70 b105*          3463 	bl	.L2421
                        3464 --line1001
                        3465 ..lin.D.3A.5CRenesas_Electronics.5CD1x_RGL.5Crgl_ghs_D1Lx_obj_V1.2E2.2E0.5Cvlib.5Capp.5Cgfx_apps.5Csimple_draw_d1l2.5Ctarget.5Cd1lx_mango_ghs.5Cobj.5Cqlapbismv1_p.208::
                        3466 .LDWlin208:
00000d72 00ea           3467 	mov	0,r29
00000d74 952d*          3468 	br	.L2416
                        3469 .L2421:
                        3470 --1003:   *AnalogLevelSelection_pu08 = ( uint8_t )( ( rism_p[ UnitNumber_u08 ]->zrs

                                                                      Page 61
                                                              C:\Users\YINGAO~1\AppData\Local\Temp\gh_00008201.si
                        3471 --line1003
                        3472 ..lin.D.3A.5CRenesas_Electronics.5CD1x_RGL.5Crgl_ghs_D1Lx_obj_V1.2E2.2E0.5Cvlib.5Capp.5Cgfx_apps.5Csimple_draw_d1l2.5Ctarget.5Cd1lx_mango_ghs.5Cobj.5Cqlapbismv1_p.209::
                        3473 .LDWlin209:
00000d76 0ef0           3474 	mov	r14,ep
00000d78 c2f2           3475 	shl	2,ep
00000d7a ccf1           3476 	add	r12,ep
00000d7c 00f5           3477 	sld.w	0[ep],ep
00000d7e 4eed           3478 	sld.w	156[ep],r29
00000d80 edef82e8       3479 	shr	r13,r29,r29
00000d84 ddee0100       3480 	andi	1,r29,r29
00000d88 4bef0000       3481 	st.b	r29,0[r11]
                        3482 --1004:                                             >> ChannelNumber_u08 ) & 0x01 );
                        3483 --1005:   *BlankingDelay_pu16        = ( uint16_t )( rism_p[ UnitNumber_u08 ]->zpdcmp
00000d8c 0ef0           3484 	mov	r14,ep
00000d8e c2f2           3485 	shl	2,ep
00000d90 ccf1           3486 	add	r12,ep
00000d92 00e5           3487 	sld.w	0[ep],r28
00000d94 0df0           3488 	mov	r13,ep
00000d96 c2f2           3489 	shl	2,ep
00000d98 1ce6ac00       3490 	addi	172,r28,r28
00000d9c dcf1           3491 	add	r28,ep
00000d9e 00ed           3492 	sld.w	0[ep],r29
00000da0 dd00           3493 	zxh	r29
00000da2 6aef0000       3494 	st.h	r29,0[r10]
                        3495 --1006:                                           [ ChannelNumber_u08 ].zbt );
                        3496 --1007:   *VibrationDamping_pu08     = ( uint8_t )( rism_p[ UnitNumber_u08 ]->zpdcmp
00000da6 0ef0           3497 	mov	r14,ep
00000da8 c2f2           3498 	shl	2,ep
00000daa 23df0d00       3499 	ld.w	12[sp],r27
00000dae ccf1           3500 	add	r12,ep
00000db0 00e5           3501 	sld.w	0[ep],r28
00000db2 0df0           3502 	mov	r13,ep
00000db4 c2f2           3503 	shl	2,ep
00000db6 1ce6ac00       3504 	addi	172,r28,r28
00000dba dcf1           3505 	add	r28,ep
00000dbc 00ed           3506 	sld.w	0[ep],r29
00000dbe 9fea           3507 	shr	31,r29
00000dc0 5bef0000       3508 	st.b	r29,0[r27]
                        3509 --1008:                                           [ ChannelNumber_u08 ].zss );
                        3510 --1010:   return( R_ISM_ERR_OK );
00000dc4 01ea           3511 	mov	1,r29
                        3512 .L2416:
                        3513 --	    .ef
                        3514 .LDW17:
00000dc6 1d50           3515 	mov	r29,r10
00000dc8 4006df10       3516 	dispose	0,{r27,r28,r29},[lp]
                        3517 	.type	_R_ISM_GetZPDChannels,@function
                        3518 	.size	_R_ISM_GetZPDChannels,.-_R_ISM_GetZPDChannels
                        3519 	.align	2
                        3520 .LDW27:
                        3521 
                        3522 --_UnitNumber_u08	r14	param
                        3523 --_ChannelNumber_u08	r13	param
                        3524 --_AnalogLevelSelection_pu08	r11	param
                        3525 --_BlankingDelay_pu16	r10	param
                        3526 --_VibrationDamping_pu08	12[sp]	param
                        3527 
                        3528 	.data
                        3529 	.text
                        3530 
                        3531 --1011: }

                                                                      Page 62
                                                              C:\Users\YINGAO~1\AppData\Local\Temp\gh_00008201.si
                        3532 
                        3533 --1013: /*=============================================================================
                        3534 --1014:   FunctionName: R_ISM_ReadZPDStatus
                        3535 --1015:   IN  : UnitNumber: Selected Macro
                        3536 --1016:         ChannelNumber: Selected Channel
                        3537 --1017:   OUT : Error Flag
                        3538 --1018:         Channel specific ZPD Status Information
                        3539 --1019:   Description :
                        3540 --1020:   Get Channel specifc ZPD Status Information
                        3541 --1021:   =============================================================================*/
                        3542 --1022: uint32_t R_ISM_ReadZPDStatus( uint8_t  UnitNumber_u08,
                        3543 	.align	2
                        3544 	.align	2
                        3545 	.global	_R_ISM_ReadZPDStatus
                        3546 _R_ISM_ReadZPDStatus:
00000dcc 8007c110       3547 	prepare	{r27,r28,r29},0
00000dd0 210600000000*  3548 	mov	_rism_p,r1
00000dd6 c676ff00       3549 	andi	255,r6,r14
00000dda c76eff00       3550 	andi	255,r7,r13
00000dde 0850           3551 	mov	r8,r10
00000de0 09e8           3552 	mov	r9,r29
00000de2 0160           3553 	mov	r1,r12
                        3554 --	    .bf
                        3555 .LDW37:
                        3556 --1023:                             uint8_t  ChannelNumber_u08,
                        3557 --1024:                             uint8_t* ZPDActive_pu08,
                        3558 --1025:                             uint8_t* ZPDDelayState_pu08,
                        3559 --1026:                             uint8_t* ZPDTableIndex_pu08,
                        3560 --1027:                             uint8_t* ZPDMeasureActive_pu08,
                        3561 --1028:                             uint8_t* ZPDCurrentResult_pu08,
                        3562 --1029:                             uint8_t* ZPDAccumulatedResult_pu08 )
                        3563 --1030: {
                        3564 --1031:   if( UnitNumber_u08 >= R_ISM_MACRO_NUM ) return( R_ISM_ERR_NG );
00000de4 6172           3565 	cmp	1,r14
00000de6 b105*          3566 	bl	.L2488
                        3567 --line1031
                        3568 ..lin.D.3A.5CRenesas_Electronics.5CD1x_RGL.5Crgl_ghs_D1Lx_obj_V1.2E2.2E0.5Cvlib.5Capp.5Cgfx_apps.5Csimple_draw_d1l2.5Ctarget.5Cd1lx_mango_ghs.5Cobj.5Cqlapbismv1_p.210::
                        3569 .LDWlin210:
00000de8 005a           3570 	mov	0,r11
00000dea a55d*          3571 	br	.L2486
                        3572 .L2488:
                        3573 --1032:   if( ChannelNumber_u08 >= R_ISM_CHANNELS ) return( R_ISM_ERR_NG );
                        3574 --line1032
                        3575 ..lin.D.3A.5CRenesas_Electronics.5CD1x_RGL.5Crgl_ghs_D1Lx_obj_V1.2E2.2E0.5Cvlib.5Capp.5Cgfx_apps.5Csimple_draw_d1l2.5Ctarget.5Cd1lx_mango_ghs.5Cobj.5Cqlapbismv1_p.211::
                        3576 .LDWlin211:
00000dec 666a           3577 	cmp	6,r13
00000dee b105*          3578 	bl	.L2491
                        3579 --line1032
                        3580 ..lin.D.3A.5CRenesas_Electronics.5CD1x_RGL.5Crgl_ghs_D1Lx_obj_V1.2E2.2E0.5Cvlib.5Capp.5Cgfx_apps.5Csimple_draw_d1l2.5Ctarget.5Cd1lx_mango_ghs.5Cobj.5Cqlapbismv1_p.212::
                        3581 .LDWlin212:
00000df0 005a           3582 	mov	0,r11
00000df2 e555*          3583 	br	.L2486
                        3584 .L2491:
                        3585 --1034:   *ZPDActive_pu08     = ( uint8_t )rism_p[ UnitNumber_u08 ]->ccmr[ ChannelNumber_u08 ].czp;
                        3586 --line1034
                        3587 ..lin.D.3A.5CRenesas_Electronics.5CD1x_RGL.5Crgl_ghs_D1Lx_obj_V1.2E2.2E0.5Cvlib.5Capp.5Cgfx_apps.5Csimple_draw_d1l2.5Ctarget.5Cd1lx_mango_ghs.5Cobj.5Cqlapbismv1_p.213::
                        3588 .LDWlin213:
00000df4 0ef0           3589 	mov	r14,ep
00000df6 c2f2           3590 	shl	2,ep
00000df8 ccf1           3591 	add	r12,ep
00000dfa 00e5           3592 	sld.w	0[ep],r28

                                                                      Page 63
                                                              C:\Users\YINGAO~1\AppData\Local\Temp\gh_00008201.si
00000dfc 0df0           3593 	mov	r13,ep
00000dfe c2f2           3594 	shl	2,ep
00000e00 1ce61c00       3595 	addi	28,r28,r28
00000e04 dcf1           3596 	add	r28,ep
00000e06 005d           3597 	sld.w	0[ep],r11
00000e08 d95a           3598 	shl	25,r11
00000e0a 9f5a           3599 	shr	31,r11
00000e0c 4a5f0000       3600 	st.b	r11,0[r10]
                        3601 --1035:   *ZPDDelayState_pu08 = ( uint8_t )rism_p[ UnitNumber_u08 ]->czd[ ChannelNumber_u08 ];
00000e10 0ef0           3602 	mov	r14,ep
00000e12 c2f2           3603 	shl	2,ep
00000e14 ccf1           3604 	add	r12,ep
00000e16 00e5           3605 	sld.w	0[ep],r28
00000e18 0df0           3606 	mov	r13,ep
00000e1a c2f2           3607 	shl	2,ep
00000e1c 1ce66400       3608 	addi	100,r28,r28
00000e20 dcf1           3609 	add	r28,ep
00000e22 005d           3610 	sld.w	0[ep],r11
00000e24 5d5f0000       3611 	st.b	r11,0[r29]
                        3612 --1036:   *ZPDTableIndex_pu08 = ( uint8_t )rism_p[ UnitNumber_u08 ]->czc[ ChannelNumber_u08 ];
00000e28 0ef0           3613 	mov	r14,ep
00000e2a c2f2           3614 	shl	2,ep
00000e2c 23df0d00       3615 	ld.w	12[sp],r27
00000e30 ccf1           3616 	add	r12,ep
00000e32 00e5           3617 	sld.w	0[ep],r28
00000e34 0df0           3618 	mov	r13,ep
00000e36 c2f2           3619 	shl	2,ep
00000e38 1ce63400       3620 	addi	52,r28,r28
00000e3c dcf1           3621 	add	r28,ep
00000e3e 005d           3622 	sld.w	0[ep],r11
00000e40 5b5f0000       3623 	st.b	r11,0[r27]
                        3624 --1038:   *ZPDMeasureActive_pu08     = ( uint8_t )( rism_p[ UnitNumber_u08 ]->zpdctl.zmt
00000e44 0ef0           3625 	mov	r14,ep
00000e46 c2f2           3626 	shl	2,ep
00000e48 23e71100       3627 	ld.w	16[sp],r28
00000e4c ccf1           3628 	add	r12,ep
00000e4e 00f5           3629 	sld.w	0[ep],ep
00000e50 4c5d           3630 	sld.w	152[ep],r11
00000e52 cb5e3f00       3631 	andi	63,r11,r11
00000e56 ed5fa258       3632 	sar	r13,r11,r11
00000e5a 8b00           3633 	zxb	r11
00000e5c cb5e0100       3634 	andi	1,r11,r11
00000e60 5c5f0000       3635 	st.b	r11,0[r28]
                        3636 --1039:                                           >> ChannelNumber_u08 ) & 0x01;
                        3637 --1040:   *ZPDCurrentResult_pu08     = ( uint8_t )( rism_p[ UnitNumber_u08 ]->zdr
00000e64 0ef0           3638 	mov	r14,ep
00000e66 c2f2           3639 	shl	2,ep
00000e68 23e71500       3640 	ld.w	20[sp],r28
00000e6c ccf1           3641 	add	r12,ep
00000e6e 00f5           3642 	sld.w	0[ep],ep
00000e70 505d           3643 	sld.w	160[ep],r11
00000e72 ed5f8258       3644 	shr	r13,r11,r11
00000e76 8b00           3645 	zxb	r11
00000e78 cb5e0100       3646 	andi	1,r11,r11
00000e7c 5c5f0000       3647 	st.b	r11,0[r28]
                        3648 --1041:                                           >> ChannelNumber_u08 ) & 0x01;
                        3649 --1042:   *ZPDAccumulatedResult_pu08 = ( uint8_t )( rism_p[ UnitNumber_u08 ]->zip
00000e80 0ef0           3650 	mov	r14,ep
00000e82 c2f2           3651 	shl	2,ep
00000e84 23e71900       3652 	ld.w	24[sp],r28
00000e88 ccf1           3653 	add	r12,ep

                                                                      Page 64
                                                              C:\Users\YINGAO~1\AppData\Local\Temp\gh_00008201.si
00000e8a 00f5           3654 	sld.w	0[ep],ep
00000e8c 525d           3655 	sld.w	164[ep],r11
00000e8e ed5f8258       3656 	shr	r13,r11,r11
00000e92 8b00           3657 	zxb	r11
00000e94 cb5e0100       3658 	andi	1,r11,r11
00000e98 5c5f0000       3659 	st.b	r11,0[r28]
                        3660 --1043:                                           >> ChannelNumber_u08 ) & 0x01;
                        3661 --1045:   return( R_ISM_ERR_OK );
00000e9c 015a           3662 	mov	1,r11
                        3663 .L2486:
                        3664 --	    .ef
                        3665 .LDW47:
00000e9e 0b50           3666 	mov	r11,r10
00000ea0 4006df10       3667 	dispose	0,{r27,r28,r29},[lp]
                        3668 	.type	_R_ISM_ReadZPDStatus,@function
                        3669 	.size	_R_ISM_ReadZPDStatus,.-_R_ISM_ReadZPDStatus
                        3670 	.align	2
                        3671 .LDW57:
                        3672 
                        3673 --_UnitNumber_u08	r14	param
                        3674 --_ChannelNumber_u08	r13	param
                        3675 --_ZPDActive_pu08	r10	param
                        3676 --_ZPDDelayState_pu08	r29	param
                        3677 --_ZPDTableIndex_pu08	12[sp]	param
                        3678 --_ZPDMeasureActive_pu08	16[sp]	param
                        3679 --_ZPDCurrentResult_pu08	20[sp]	param
                        3680 --_ZPDAccumulatedResult_pu08	24[sp]	param
                        3681 
                        3682 	.data
                        3683 	.text
                        3684 
                        3685 --1046: }
                        3686 
                        3687 --1048: /*=============================================================================
                        3688 --1049:   FunctionName: R_ISM_SetChannelDelay
                        3689 --1050:   IN  : UnitNumber: Selected Macro
                        3690 --1051:         ChannelNumber: Selected Channel
                        3691 --1052:         HorizontalDelay: Horizontal PWM Delay in Timebase Clocks
                        3692 --1053:         VerticalDelay: Vertical PWM Delay in Timebase Clocks
                        3693 --1054:   OUT : Error Flag
                        3694 --1055:   Description :
                        3695 --1056:   Set Channel Delay of PWM Channels
                        3696 --1057:   =============================================================================*/
                        3697 --1058: uint32_t R_ISM_SetChannelDelay( uint8_t UnitNumber_u08,
                        3698 	.align	2
                        3699 	.align	2
                        3700 	.global	_R_ISM_SetChannelDelay
                        3701 _R_ISM_SetChannelDelay:
00000ea4 8007c100       3702 	prepare	{r28,r29},0
00000ea8 210600000000*  3703 	mov	_rism_p,r1
00000eae c676ff00       3704 	andi	255,r6,r14
00000eb2 c76eff00       3705 	andi	255,r7,r13
00000eb6 c856ff00       3706 	andi	255,r8,r10
00000eba c9eeff00       3707 	andi	255,r9,r29
00000ebe 0158           3708 	mov	r1,r11
                        3709 --	    .bf
                        3710 .LDW67:
                        3711 --1059:                               uint8_t ChannelNumber_u08,
                        3712 --1060:                               uint8_t HorizontalDelay_u08,
                        3713 --1061:                               uint8_t VerticalDelay_u08 )
                        3714 --1062: {

                                                                      Page 65
                                                              C:\Users\YINGAO~1\AppData\Local\Temp\gh_00008201.si
                        3715 --1063:   if( UnitNumber_u08 >= R_ISM_MACRO_NUM ) return( R_ISM_ERR_NG );
00000ec0 6172           3716 	cmp	1,r14
00000ec2 b105*          3717 	bl	.L2567
                        3718 --line1063
                        3719 ..lin.D.3A.5CRenesas_Electronics.5CD1x_RGL.5Crgl_ghs_D1Lx_obj_V1.2E2.2E0.5Cvlib.5Capp.5Cgfx_apps.5Csimple_draw_d1l2.5Ctarget.5Cd1lx_mango_ghs.5Cobj.5Cqlapbismv1_p.214::
                        3720 .LDWlin214:
00000ec4 0062           3721 	mov	0,r12
00000ec6 8525*          3722 	br	.L2565
                        3723 .L2567:
                        3724 --1064:   if( ChannelNumber_u08 >= R_ISM_CHANNELS ) return( R_ISM_ERR_NG );
                        3725 --line1064
                        3726 ..lin.D.3A.5CRenesas_Electronics.5CD1x_RGL.5Crgl_ghs_D1Lx_obj_V1.2E2.2E0.5Cvlib.5Capp.5Cgfx_apps.5Csimple_draw_d1l2.5Ctarget.5Cd1lx_mango_ghs.5Cobj.5Cqlapbismv1_p.215::
                        3727 .LDWlin215:
00000ec8 666a           3728 	cmp	6,r13
00000eca b105*          3729 	bl	.L2570
                        3730 --line1064
                        3731 ..lin.D.3A.5CRenesas_Electronics.5CD1x_RGL.5Crgl_ghs_D1Lx_obj_V1.2E2.2E0.5Cvlib.5Capp.5Cgfx_apps.5Csimple_draw_d1l2.5Ctarget.5Cd1lx_mango_ghs.5Cobj.5Cqlapbismv1_p.216::
                        3732 .LDWlin216:
00000ecc 0062           3733 	mov	0,r12
00000ece c51d*          3734 	br	.L2565
                        3735 .L2570:
                        3736 --1066:   rism_p[ UnitNumber_u08 ]->ccmr[ ChannelNumber_u08 ].cdh = ( uint32_t )HorizontalDelay_u08;
                        3737 --line1066
                        3738 ..lin.D.3A.5CRenesas_Electronics.5CD1x_RGL.5Crgl_ghs_D1Lx_obj_V1.2E2.2E0.5Cvlib.5Capp.5Cgfx_apps.5Csimple_draw_d1l2.5Ctarget.5Cd1lx_mango_ghs.5Cobj.5Cqlapbismv1_p.217::
                        3739 .LDWlin217:
00000ed0 0ef0           3740 	mov	r14,ep
00000ed2 c2f2           3741 	shl	2,ep
00000ed4 cbf1           3742 	add	r11,ep
00000ed6 00e5           3743 	sld.w	0[ep],r28
00000ed8 0df0           3744 	mov	r13,ep
00000eda c2f2           3745 	shl	2,ep
00000edc 1ce61c00       3746 	addi	28,r28,r28
00000ee0 dcf1           3747 	add	r28,ep
00000ee2 0065           3748 	sld.w	0[ep],r12
00000ee4 ea67d0b8       3749 	bins	r10,8,4,r12
00000ee8 0165           3750 	sst.w	r12,0[ep]
                        3751 --1067:   rism_p[ UnitNumber_u08 ]->ccmr[ ChannelNumber_u08 ].cdv = ( uint32_t )VerticalDelay_u08;
00000eea 0ef0           3752 	mov	r14,ep
00000eec c2f2           3753 	shl	2,ep
00000eee cbf1           3754 	add	r11,ep
00000ef0 00e5           3755 	sld.w	0[ep],r28
00000ef2 0df0           3756 	mov	r13,ep
00000ef4 c2f2           3757 	shl	2,ep
00000ef6 1ce61c00       3758 	addi	28,r28,r28
00000efa dcf1           3759 	add	r28,ep
00000efc 0065           3760 	sld.w	0[ep],r12
00000efe fd67d8f8       3761 	bins	r29,12,4,r12
00000f02 0165           3762 	sst.w	r12,0[ep]
                        3763 --1069:   return( R_ISM_ERR_OK );
00000f04 0162           3764 	mov	1,r12
                        3765 .L2565:
                        3766 --	    .ef
                        3767 .LDW77:
00000f06 0c50           3768 	mov	r12,r10
00000f08 4006df00       3769 	dispose	0,{r28,r29},[lp]
                        3770 	.type	_R_ISM_SetChannelDelay,@function
                        3771 	.size	_R_ISM_SetChannelDelay,.-_R_ISM_SetChannelDelay
                        3772 	.align	2
                        3773 .LDW87:
                        3774 
                        3775 --_UnitNumber_u08	r14	param

                                                                      Page 66
                                                              C:\Users\YINGAO~1\AppData\Local\Temp\gh_00008201.si
                        3776 --_ChannelNumber_u08	r13	param
                        3777 --_HorizontalDelay_u08	r10	param
                        3778 --_VerticalDelay_u08	r29	param
                        3779 
                        3780 	.data
                        3781 	.text
                        3782 
                        3783 --1070: }
                        3784 
                        3785 --1072: /*=============================================================================
                        3786 --1073:   FunctionName: R_ISM_SetChannelType
                        3787 --1074:   IN  : UnitNumber: Selected Macro
                        3788 --1075:         ChannelNumber: Selected Channel
                        3789 --1076:         ChannelType, ChannelPrecision: Properties of Channel
                        3790 --1077:   OUT : Error Flag
                        3791 --1078:   Description :
                        3792 --1079:   Set Channel Type of PWM Channels
                        3793 --1080:   =============================================================================*/
                        3794 --1082: uint32_t R_ISM_SetChannelType( uint8_t UnitNumber_u08,
                        3795 	.align	2
                        3796 	.align	2
                        3797 	.global	_R_ISM_SetChannelType
                        3798 _R_ISM_SetChannelType:
00000f0c 8007c100       3799 	prepare	{r28,r29},0
00000f10 210600000000*  3800 	mov	_rism_p,r1
00000f16 c676ff00       3801 	andi	255,r6,r14
00000f1a c76eff00       3802 	andi	255,r7,r13
00000f1e c856ff00       3803 	andi	255,r8,r10
00000f22 c9eeff00       3804 	andi	255,r9,r29
00000f26 0158           3805 	mov	r1,r11
                        3806 --	    .bf
                        3807 .LDW97:
                        3808 --1083:                              uint8_t ChannelNumber_u08,
                        3809 --1084:                              uint8_t ChannelType_u08,
                        3810 --1085:                              uint8_t ChannelPrecision_u08 )
                        3811 --1086: {
                        3812 --1087:   if( UnitNumber_u08 >= R_ISM_MACRO_NUM ) return( R_ISM_ERR_NG );
00000f28 6172           3813 	cmp	1,r14
00000f2a b105*          3814 	bl	.L2627
                        3815 --line1087
                        3816 ..lin.D.3A.5CRenesas_Electronics.5CD1x_RGL.5Crgl_ghs_D1Lx_obj_V1.2E2.2E0.5Cvlib.5Capp.5Cgfx_apps.5Csimple_draw_d1l2.5Ctarget.5Cd1lx_mango_ghs.5Cobj.5Cqlapbismv1_p.218::
                        3817 .LDWlin218:
00000f2c 0062           3818 	mov	0,r12
00000f2e b525*          3819 	br	.L2625
                        3820 .L2627:
                        3821 --1088:   if( ChannelNumber_u08 >= R_ISM_CHANNELS ) return( R_ISM_ERR_NG );
                        3822 --line1088
                        3823 ..lin.D.3A.5CRenesas_Electronics.5CD1x_RGL.5Crgl_ghs_D1Lx_obj_V1.2E2.2E0.5Cvlib.5Capp.5Cgfx_apps.5Csimple_draw_d1l2.5Ctarget.5Cd1lx_mango_ghs.5Cobj.5Cqlapbismv1_p.219::
                        3824 .LDWlin219:
00000f30 666a           3825 	cmp	6,r13
00000f32 b105*          3826 	bl	.L2630
                        3827 --line1088
                        3828 ..lin.D.3A.5CRenesas_Electronics.5CD1x_RGL.5Crgl_ghs_D1Lx_obj_V1.2E2.2E0.5Cvlib.5Capp.5Cgfx_apps.5Csimple_draw_d1l2.5Ctarget.5Cd1lx_mango_ghs.5Cobj.5Cqlapbismv1_p.220::
                        3829 .LDWlin220:
00000f34 0062           3830 	mov	0,r12
00000f36 f51d*          3831 	br	.L2625
                        3832 .L2630:
                        3833 --1090:   rism_p[ UnitNumber_u08 ]->ccmr[ ChannelNumber_u08 ].cct =( uint32_t )ChannelType_u08;
                        3834 --line1090
                        3835 ..lin.D.3A.5CRenesas_Electronics.5CD1x_RGL.5Crgl_ghs_D1Lx_obj_V1.2E2.2E0.5Cvlib.5Capp.5Cgfx_apps.5Csimple_draw_d1l2.5Ctarget.5Cd1lx_mango_ghs.5Cobj.5Cqlapbismv1_p.221::
                        3836 .LDWlin221:

                                                                      Page 67
                                                              C:\Users\YINGAO~1\AppData\Local\Temp\gh_00008201.si
00000f38 0ef0           3837 	mov	r14,ep
00000f3a c2f2           3838 	shl	2,ep
00000f3c cbf1           3839 	add	r11,ep
00000f3e 00e5           3840 	sld.w	0[ep],r28
00000f40 0df0           3841 	mov	r13,ep
00000f42 c2f2           3842 	shl	2,ep
00000f44 1ce61c00       3843 	addi	28,r28,r28
00000f48 dcf1           3844 	add	r28,ep
00000f4a 0065           3845 	sld.w	0[ep],r12
00000f4c 18e2           3846 	mov	-8,r28
00000f4e 5c61           3847 	and	r28,r12
00000f50 cae60700       3848 	andi	7,r10,r28
00000f54 1c61           3849 	or	r28,r12
00000f56 0165           3850 	sst.w	r12,0[ep]
                        3851 --1091:   rism_p[ UnitNumber_u08 ]->ccmr[ ChannelNumber_u08 ].ccp = ( uint32_t )ChannelPrecision_u08;
00000f58 0ef0           3852 	mov	r14,ep
00000f5a c2f2           3853 	shl	2,ep
00000f5c cbf1           3854 	add	r11,ep
00000f5e 00e5           3855 	sld.w	0[ep],r28
00000f60 0df0           3856 	mov	r13,ep
00000f62 c2f2           3857 	shl	2,ep
00000f64 1ce61c00       3858 	addi	28,r28,r28
00000f68 dcf1           3859 	add	r28,ep
00000f6a 0065           3860 	sld.w	0[ep],r12
00000f6c fd67da50       3861 	bins	r29,5,1,r12
00000f70 0165           3862 	sst.w	r12,0[ep]
                        3863 --1093:   return( R_ISM_ERR_OK );
00000f72 0162           3864 	mov	1,r12
                        3865 .L2625:
                        3866 --	    .ef
                        3867 .LDW08:
00000f74 0c50           3868 	mov	r12,r10
00000f76 4006df00       3869 	dispose	0,{r28,r29},[lp]
                        3870 	.type	_R_ISM_SetChannelType,@function
                        3871 	.size	_R_ISM_SetChannelType,.-_R_ISM_SetChannelType
                        3872 	.align	2
                        3873 .LDW18:
                        3874 
                        3875 --_UnitNumber_u08	r14	param
                        3876 --_ChannelNumber_u08	r13	param
                        3877 --_ChannelType_u08	r10	param
                        3878 --_ChannelPrecision_u08	r29	param
                        3879 
                        3880 	.data
                        3881 	.text
                        3882 
                        3883 --1094: }
                        3884 
                        3885 --1096: /*=============================================================================
                        3886 --1097:   FunctionName: R_ISM_GetChannelControl
                        3887 --1098:   IN  : UnitNumber: Selected Macro
                        3888 --1099:         ChannelNumber: Selected Channel
                        3889 --1100:   OUT : Error Flag
                        3890 --1101:         Contents of Channel Control Register
                        3891 --1102:   Description :
                        3892 --1103:   Get Channel Control Register content
                        3893 --1104:   =============================================================================*/
                        3894 --1105: uint32_t R_ISM_GetChannelControl( uint8_t  UnitNumber_u08,
                        3895 	.align	2
                        3896 	.align	2
                        3897 	.global	_R_ISM_GetChannelControl

                                                                      Page 68
                                                              C:\Users\YINGAO~1\AppData\Local\Temp\gh_00008201.si
                        3898 _R_ISM_GetChannelControl:
00000f7a 8007c110       3899 	prepare	{r27,r28,r29},0
00000f7e 210600000000*  3900 	mov	_rism_p,r1
00000f84 c676ff00       3901 	andi	255,r6,r14
00000f88 c76eff00       3902 	andi	255,r7,r13
00000f8c 0850           3903 	mov	r8,r10
00000f8e 09e8           3904 	mov	r9,r29
00000f90 0158           3905 	mov	r1,r11
                        3906 --	    .bf
                        3907 .LDW28:
                        3908 --1106:                                 uint8_t  ChannelNumber_u08,
                        3909 --1107:                                 uint8_t* ChannelType_pu08,
                        3910 --1108:                                 uint8_t* ChannelPrecision_pu08,
                        3911 --1109:                                 uint8_t* HorizontalDelay_pu08,
                        3912 --1110:                                 uint8_t* VerticalDelay_pu08 )
                        3913 --1111: {
                        3914 --1112:   if( UnitNumber_u08 >= R_ISM_MACRO_NUM ) return( R_ISM_ERR_NG );
00000f92 6172           3915 	cmp	1,r14
00000f94 b105*          3916 	bl	.L2691
                        3917 --line1112
                        3918 ..lin.D.3A.5CRenesas_Electronics.5CD1x_RGL.5Crgl_ghs_D1Lx_obj_V1.2E2.2E0.5Cvlib.5Capp.5Cgfx_apps.5Csimple_draw_d1l2.5Ctarget.5Cd1lx_mango_ghs.5Cobj.5Cqlapbismv1_p.222::
                        3919 .LDWlin222:
00000f96 0062           3920 	mov	0,r12
00000f98 a545*          3921 	br	.L2689
                        3922 .L2691:
                        3923 --1113:   if( ChannelNumber_u08 >= R_ISM_CHANNELS ) return( R_ISM_ERR_NG );
                        3924 --line1113
                        3925 ..lin.D.3A.5CRenesas_Electronics.5CD1x_RGL.5Crgl_ghs_D1Lx_obj_V1.2E2.2E0.5Cvlib.5Capp.5Cgfx_apps.5Csimple_draw_d1l2.5Ctarget.5Cd1lx_mango_ghs.5Cobj.5Cqlapbismv1_p.223::
                        3926 .LDWlin223:
00000f9a 666a           3927 	cmp	6,r13
00000f9c b105*          3928 	bl	.L2694
                        3929 --line1113
                        3930 ..lin.D.3A.5CRenesas_Electronics.5CD1x_RGL.5Crgl_ghs_D1Lx_obj_V1.2E2.2E0.5Cvlib.5Capp.5Cgfx_apps.5Csimple_draw_d1l2.5Ctarget.5Cd1lx_mango_ghs.5Cobj.5Cqlapbismv1_p.224::
                        3931 .LDWlin224:
00000f9e 0062           3932 	mov	0,r12
00000fa0 e53d*          3933 	br	.L2689
                        3934 .L2694:
                        3935 --1115:   *ChannelType_pu08      = ( uint8_t )rism_p[ UnitNumber_u08 ]->ccmr[ ChannelNumber_u08 ].cct;
                        3936 --line1115
                        3937 ..lin.D.3A.5CRenesas_Electronics.5CD1x_RGL.5Crgl_ghs_D1Lx_obj_V1.2E2.2E0.5Cvlib.5Capp.5Cgfx_apps.5Csimple_draw_d1l2.5Ctarget.5Cd1lx_mango_ghs.5Cobj.5Cqlapbismv1_p.225::
                        3938 .LDWlin225:
00000fa2 0ef0           3939 	mov	r14,ep
00000fa4 c2f2           3940 	shl	2,ep
00000fa6 cbf1           3941 	add	r11,ep
00000fa8 00e5           3942 	sld.w	0[ep],r28
00000faa 0df0           3943 	mov	r13,ep
00000fac c2f2           3944 	shl	2,ep
00000fae 1ce61c00       3945 	addi	28,r28,r28
00000fb2 dcf1           3946 	add	r28,ep
00000fb4 0065           3947 	sld.w	0[ep],r12
00000fb6 cc660700       3948 	andi	7,r12,r12
00000fba 4a670000       3949 	st.b	r12,0[r10]
                        3950 --1116:   *ChannelPrecision_pu08 = ( uint8_t )rism_p[ UnitNumber_u08 ]->ccmr[ ChannelNumber_u08 ].ccp;
00000fbe 0ef0           3951 	mov	r14,ep
00000fc0 c2f2           3952 	shl	2,ep
00000fc2 cbf1           3953 	add	r11,ep
00000fc4 00e5           3954 	sld.w	0[ep],r28
00000fc6 0df0           3955 	mov	r13,ep
00000fc8 c2f2           3956 	shl	2,ep
00000fca 1ce61c00       3957 	addi	28,r28,r28
00000fce dcf1           3958 	add	r28,ep

                                                                      Page 69
                                                              C:\Users\YINGAO~1\AppData\Local\Temp\gh_00008201.si
00000fd0 0065           3959 	sld.w	0[ep],r12
00000fd2 da62           3960 	shl	26,r12
00000fd4 9f62           3961 	shr	31,r12
00000fd6 5d670000       3962 	st.b	r12,0[r29]
                        3963 --1117:   *HorizontalDelay_pu08  = ( uint8_t )rism_p[ UnitNumber_u08 ]->ccmr[ ChannelNumber_u08 ].cdh;
00000fda 0ef0           3964 	mov	r14,ep
00000fdc c2f2           3965 	shl	2,ep
00000fde 23df0d00       3966 	ld.w	12[sp],r27
00000fe2 cbf1           3967 	add	r11,ep
00000fe4 00e5           3968 	sld.w	0[ep],r28
00000fe6 0df0           3969 	mov	r13,ep
00000fe8 c2f2           3970 	shl	2,ep
00000fea 1ce61c00       3971 	addi	28,r28,r28
00000fee dcf1           3972 	add	r28,ep
00000ff0 0065           3973 	sld.w	0[ep],r12
00000ff2 d462           3974 	shl	20,r12
00000ff4 9c62           3975 	shr	28,r12
00000ff6 5b670000       3976 	st.b	r12,0[r27]
                        3977 --1118:   *VerticalDelay_pu08    = ( uint8_t )rism_p[ UnitNumber_u08 ]->ccmr[ ChannelNumber_u08 ].cdv;
00000ffa 0ef0           3978 	mov	r14,ep
00000ffc c2f2           3979 	shl	2,ep
00000ffe 23df1100       3980 	ld.w	16[sp],r27
00001002 cbf1           3981 	add	r11,ep
00001004 00e5           3982 	sld.w	0[ep],r28
00001006 0df0           3983 	mov	r13,ep
00001008 c2f2           3984 	shl	2,ep
0000100a 1ce61c00       3985 	addi	28,r28,r28
0000100e dcf1           3986 	add	r28,ep
00001010 0065           3987 	sld.w	0[ep],r12
00001012 d062           3988 	shl	16,r12
00001014 9c62           3989 	shr	28,r12
00001016 5b670000       3990 	st.b	r12,0[r27]
                        3991 --1120:   return( R_ISM_ERR_OK );
0000101a 0162           3992 	mov	1,r12
                        3993 .L2689:
                        3994 --	    .ef
                        3995 .LDW38:
0000101c 0c50           3996 	mov	r12,r10
0000101e 4006df10       3997 	dispose	0,{r27,r28,r29},[lp]
                        3998 	.type	_R_ISM_GetChannelControl,@function
                        3999 	.size	_R_ISM_GetChannelControl,.-_R_ISM_GetChannelControl
                        4000 	.align	2
                        4001 .LDW48:
                        4002 
                        4003 --_UnitNumber_u08	r14	param
                        4004 --_ChannelNumber_u08	r13	param
                        4005 --_ChannelType_pu08	r10	param
                        4006 --_ChannelPrecision_pu08	r29	param
                        4007 --_HorizontalDelay_pu08	12[sp]	param
                        4008 --_VerticalDelay_pu08	16[sp]	param
                        4009 
                        4010 	.data
                        4011 	.text
                        4012 
                        4013 --1121: }
                        4014 
                        4015 --1123: /*=============================================================================
                        4016 --1124:   FunctionName: R_ISM_SetPWM
                        4017 --1125:   IN  : UnitNumber: Selected Macro
                        4018 --1126:         ChannelNumber: Selected Channel
                        4019 --1127:         Horizontal & Vertical PWM Duty Cycle Level, Quadrant Information

                                                                      Page 70
                                                              C:\Users\YINGAO~1\AppData\Local\Temp\gh_00008201.si
                        4020 --1128:   OUT : Error Flag
                        4021 --1129:   Description :
                        4022 --1130:   Set Channel PWM Output for control without CM
                        4023 --1131:   =============================================================================*/
                        4024 --1132: uint32_t R_ISM_SetPWM( uint8_t UnitNumber_u08,
                        4025 	.align	2
                        4026 	.align	2
                        4027 	.global	_R_ISM_SetPWM
                        4028 _R_ISM_SetPWM:
00001022 8007c110       4029 	prepare	{r27,r28,r29},0
00001026 210600000000*  4030 	mov	_rism_p,r1
0000102c c676ff00       4031 	andi	255,r6,r14
00001030 c76eff00       4032 	andi	255,r7,r13
00001034 c856ffff       4033 	andi	65535,r8,r10
00001038 c9eeffff       4034 	andi	65535,r9,r29
0000103c 0160           4035 	mov	r1,r12
                        4036 --	    .bf
                        4037 .LDW58:
                        4038 --1133:                      uint8_t ChannelNumber_u08,
                        4039 --1134:                      uint16_t HorizontalDutyCycle_u16,
                        4040 --1135:                      uint16_t VerticalDutyCycle_u16,
                        4041 --1136:                      uint8_t QuadrantInfo_u08 )
                        4042 --1137: {
                        4043 --1138:   if( UnitNumber_u08 >= R_ISM_MACRO_NUM ) return( R_ISM_ERR_NG );
0000103e 6172           4044 	cmp	1,r14
00001040 b105*          4045 	bl	.L2765
                        4046 --line1138
                        4047 ..lin.D.3A.5CRenesas_Electronics.5CD1x_RGL.5Crgl_ghs_D1Lx_obj_V1.2E2.2E0.5Cvlib.5Capp.5Cgfx_apps.5Csimple_draw_d1l2.5Ctarget.5Cd1lx_mango_ghs.5Cobj.5Cqlapbismv1_p.226::
                        4048 .LDWlin226:
00001042 005a           4049 	mov	0,r11
00001044 b535*          4050 	br	.L2763
                        4051 .L2765:
                        4052 --1139:   if( ChannelNumber_u08 >= R_ISM_CHANNELS ) return( R_ISM_ERR_NG );
                        4053 --line1139
                        4054 ..lin.D.3A.5CRenesas_Electronics.5CD1x_RGL.5Crgl_ghs_D1Lx_obj_V1.2E2.2E0.5Cvlib.5Capp.5Cgfx_apps.5Csimple_draw_d1l2.5Ctarget.5Cd1lx_mango_ghs.5Cobj.5Cqlapbismv1_p.227::
                        4055 .LDWlin227:
00001046 666a           4056 	cmp	6,r13
00001048 b105*          4057 	bl	.L2768
                        4058 --line1139
                        4059 ..lin.D.3A.5CRenesas_Electronics.5CD1x_RGL.5Crgl_ghs_D1Lx_obj_V1.2E2.2E0.5Cvlib.5Capp.5Cgfx_apps.5Csimple_draw_d1l2.5Ctarget.5Cd1lx_mango_ghs.5Cobj.5Cqlapbismv1_p.228::
                        4060 .LDWlin228:
0000104a 005a           4061 	mov	0,r11
0000104c f52d*          4062 	br	.L2763
                        4063 .L2768:
                        4064 --1141:   rism_p[ UnitNumber_u08 ]->ccmp[ ChannelNumber_u08 ].chp = ( uint32_t )HorizontalDutyCycle_u16;
                        4065 --line1141
                        4066 ..lin.D.3A.5CRenesas_Electronics.5CD1x_RGL.5Crgl_ghs_D1Lx_obj_V1.2E2.2E0.5Cvlib.5Capp.5Cgfx_apps.5Csimple_draw_d1l2.5Ctarget.5Cd1lx_mango_ghs.5Cobj.5Cqlapbismv1_p.229::
                        4067 .LDWlin229:
0000104e 0ef0           4068 	mov	r14,ep
00001050 c2f2           4069 	shl	2,ep
00001052 ccf1           4070 	add	r12,ep
00001054 00e5           4071 	sld.w	0[ep],r28
00001056 0df0           4072 	mov	r13,ep
00001058 c2f2           4073 	shl	2,ep
0000105a 1ce64c00       4074 	addi	76,r28,r28
0000105e dcf1           4075 	add	r28,ep
00001060 005d           4076 	sld.w	0[ep],r11
00001062 ea5fb438       4077 	bins	r10,10,10,r11
00001066 015d           4078 	sst.w	r11,0[ep]
                        4079 --1142:   rism_p[ UnitNumber_u08 ]->ccmp[ ChannelNumber_u08 ].cvp = ( uint32_t )VerticalDutyCycle_u16;
00001068 0ef0           4080 	mov	r14,ep

                                                                      Page 71
                                                              C:\Users\YINGAO~1\AppData\Local\Temp\gh_00008201.si
0000106a c2f2           4081 	shl	2,ep
0000106c ccf1           4082 	add	r12,ep
0000106e 00e5           4083 	sld.w	0[ep],r28
00001070 0df0           4084 	mov	r13,ep
00001072 c2f2           4085 	shl	2,ep
00001074 1ce64c00       4086 	addi	76,r28,r28
00001078 dcf1           4087 	add	r28,ep
0000107a 005d           4088 	sld.w	0[ep],r11
0000107c 20e600fc       4089 	movea	-1024,zero,r28
00001080 5c59           4090 	and	r28,r11
00001082 dde6ff03       4091 	andi	1023,r29,r28
00001086 1c59           4092 	or	r28,r11
00001088 015d           4093 	sst.w	r11,0[ep]
                        4094 --1143:   rism_p[ UnitNumber_u08 ]->ccmp[ ChannelNumber_u08 ].cqi = ( uint32_t )QuadrantInfo_u08;
0000108a 0ef0           4095 	mov	r14,ep
0000108c c2f2           4096 	shl	2,ep
0000108e ccf1           4097 	add	r12,ep
00001090 00e5           4098 	sld.w	0[ep],r28
00001092 0df0           4099 	mov	r13,ep
00001094 c2f2           4100 	shl	2,ep
00001096 1ce64c00       4101 	addi	76,r28,r28
0000109a dcf1           4102 	add	r28,ep
0000109c 83e70d00       4103 	ld.bu	12[sp],r28
000010a0 005d           4104 	sld.w	0[ep],r11
000010a2 fc5f9850       4105 	bins	r28,20,2,r11
000010a6 015d           4106 	sst.w	r11,0[ep]
                        4107 --1145:   return( R_ISM_ERR_OK );
000010a8 015a           4108 	mov	1,r11
                        4109 .L2763:
                        4110 --	    .ef
                        4111 .LDW68:
000010aa 0b50           4112 	mov	r11,r10
000010ac 4006df10       4113 	dispose	0,{r27,r28,r29},[lp]
                        4114 	.type	_R_ISM_SetPWM,@function
                        4115 	.size	_R_ISM_SetPWM,.-_R_ISM_SetPWM
                        4116 	.align	2
                        4117 .LDW78:
                        4118 
                        4119 --_UnitNumber_u08	r14	param
                        4120 --_ChannelNumber_u08	r13	param
                        4121 --_HorizontalDutyCycle_u16	r10	param
                        4122 --_VerticalDutyCycle_u16	r29	param
                        4123 --_QuadrantInfo_u08	12[sp]	param
                        4124 
                        4125 	.data
                        4126 	.text
                        4127 
                        4128 --1146: }
                        4129 
                        4130 --1148: /*=============================================================================
                        4131 --1149:   FunctionName: R_ISM_GetPWM
                        4132 --1150:   IN  : UnitNumber: Selected Macro
                        4133 --1151:         ChannelNumber: Selected Channel
                        4134 --1152:   OUT : Error Flag
                        4135 --1153:         Horizontal & Vertical PWM Duty Cycle Level, Quadrant Information
                        4136 --1154:   Description :
                        4137 --1155:   Get Channel PWM Output Settings
                        4138 --1156:   =============================================================================*/
                        4139 --1157: uint32_t R_ISM_GetPWM( uint8_t  UnitNumber_u08,
                        4140 	.align	2
                        4141 	.align	2

                                                                      Page 72
                                                              C:\Users\YINGAO~1\AppData\Local\Temp\gh_00008201.si
                        4142 	.global	_R_ISM_GetPWM
                        4143 _R_ISM_GetPWM:
000010b0 8007c110       4144 	prepare	{r27,r28,r29},0
000010b4 210600000000*  4145 	mov	_rism_p,r1
000010ba c676ff00       4146 	andi	255,r6,r14
000010be c76eff00       4147 	andi	255,r7,r13
000010c2 0850           4148 	mov	r8,r10
000010c4 09e8           4149 	mov	r9,r29
000010c6 0158           4150 	mov	r1,r11
                        4151 --	    .bf
                        4152 .LDW88:
                        4153 --1158:                      uint8_t  ChannelNumber_u08,
                        4154 --1159:                      uint16_t* HorizontalDutyCycle_pu16,
                        4155 --1160:                      uint16_t* VerticalDutyCycle_pu16,
                        4156 --1161:                      uint8_t* QuadrantInfo_pu08 )
                        4157 --1162: {
                        4158 --1163:   if( UnitNumber_u08 >= R_ISM_MACRO_NUM ) return( R_ISM_ERR_NG );
000010c8 6172           4159 	cmp	1,r14
000010ca b105*          4160 	bl	.L2840
                        4161 --line1163
                        4162 ..lin.D.3A.5CRenesas_Electronics.5CD1x_RGL.5Crgl_ghs_D1Lx_obj_V1.2E2.2E0.5Cvlib.5Capp.5Cgfx_apps.5Csimple_draw_d1l2.5Ctarget.5Cd1lx_mango_ghs.5Cobj.5Cqlapbismv1_p.230::
                        4163 .LDWlin230:
000010cc 0062           4164 	mov	0,r12
000010ce a535*          4165 	br	.L2838
                        4166 .L2840:
                        4167 --1164:   if( ChannelNumber_u08 >= R_ISM_CHANNELS ) return( R_ISM_ERR_NG );
                        4168 --line1164
                        4169 ..lin.D.3A.5CRenesas_Electronics.5CD1x_RGL.5Crgl_ghs_D1Lx_obj_V1.2E2.2E0.5Cvlib.5Capp.5Cgfx_apps.5Csimple_draw_d1l2.5Ctarget.5Cd1lx_mango_ghs.5Cobj.5Cqlapbismv1_p.231::
                        4170 .LDWlin231:
000010d0 666a           4171 	cmp	6,r13
000010d2 b105*          4172 	bl	.L2843
                        4173 --line1164
                        4174 ..lin.D.3A.5CRenesas_Electronics.5CD1x_RGL.5Crgl_ghs_D1Lx_obj_V1.2E2.2E0.5Cvlib.5Capp.5Cgfx_apps.5Csimple_draw_d1l2.5Ctarget.5Cd1lx_mango_ghs.5Cobj.5Cqlapbismv1_p.232::
                        4175 .LDWlin232:
000010d4 0062           4176 	mov	0,r12
000010d6 e52d*          4177 	br	.L2838
                        4178 .L2843:
                        4179 --1166:   *HorizontalDutyCycle_pu16 = ( uint16_t )rism_p[ UnitNumber_u08 ]->ccmp[ ChannelNumber_u08 ].chp;
                        4180 --line1166
                        4181 ..lin.D.3A.5CRenesas_Electronics.5CD1x_RGL.5Crgl_ghs_D1Lx_obj_V1.2E2.2E0.5Cvlib.5Capp.5Cgfx_apps.5Csimple_draw_d1l2.5Ctarget.5Cd1lx_mango_ghs.5Cobj.5Cqlapbismv1_p.233::
                        4182 .LDWlin233:
000010d8 0ef0           4183 	mov	r14,ep
000010da c2f2           4184 	shl	2,ep
000010dc cbf1           4185 	add	r11,ep
000010de 00e5           4186 	sld.w	0[ep],r28
000010e0 0df0           4187 	mov	r13,ep
000010e2 c2f2           4188 	shl	2,ep
000010e4 1ce64c00       4189 	addi	76,r28,r28
000010e8 dcf1           4190 	add	r28,ep
000010ea 0065           4191 	sld.w	0[ep],r12
000010ec cc62           4192 	shl	12,r12
000010ee 9662           4193 	shr	22,r12
000010f0 6a670000       4194 	st.h	r12,0[r10]
                        4195 --1167:   *VerticalDutyCycle_pu16   = ( uint16_t )rism_p[ UnitNumber_u08 ]->ccmp[ ChannelNumber_u08 ].cvp;
000010f4 0ef0           4196 	mov	r14,ep
000010f6 c2f2           4197 	shl	2,ep
000010f8 cbf1           4198 	add	r11,ep
000010fa 00e5           4199 	sld.w	0[ep],r28
000010fc 0df0           4200 	mov	r13,ep
000010fe c2f2           4201 	shl	2,ep
00001100 1ce64c00       4202 	addi	76,r28,r28

                                                                      Page 73
                                                              C:\Users\YINGAO~1\AppData\Local\Temp\gh_00008201.si
00001104 dcf1           4203 	add	r28,ep
00001106 0065           4204 	sld.w	0[ep],r12
00001108 cc66ff03       4205 	andi	1023,r12,r12
0000110c 7d670000       4206 	st.h	r12,0[r29]
                        4207 --1168:   *QuadrantInfo_pu08        = ( uint8_t )rism_p[ UnitNumber_u08 ]->ccmp[ ChannelNumber_u08 ].cqi;
00001110 0ef0           4208 	mov	r14,ep
00001112 c2f2           4209 	shl	2,ep
00001114 23df0d00       4210 	ld.w	12[sp],r27
00001118 cbf1           4211 	add	r11,ep
0000111a 00e5           4212 	sld.w	0[ep],r28
0000111c 0df0           4213 	mov	r13,ep
0000111e c2f2           4214 	shl	2,ep
00001120 1ce64c00       4215 	addi	76,r28,r28
00001124 dcf1           4216 	add	r28,ep
00001126 0065           4217 	sld.w	0[ep],r12
00001128 ca62           4218 	shl	10,r12
0000112a 9e62           4219 	shr	30,r12
0000112c 5b670000       4220 	st.b	r12,0[r27]
                        4221 --1170:   return( R_ISM_ERR_OK );
00001130 0162           4222 	mov	1,r12
                        4223 .L2838:
                        4224 --	    .ef
                        4225 .LDW98:
00001132 0c50           4226 	mov	r12,r10
00001134 4006df10       4227 	dispose	0,{r27,r28,r29},[lp]
                        4228 	.type	_R_ISM_GetPWM,@function
                        4229 	.size	_R_ISM_GetPWM,.-_R_ISM_GetPWM
                        4230 	.align	2
                        4231 .LDW09:
                        4232 
                        4233 --_UnitNumber_u08	r14	param
                        4234 --_ChannelNumber_u08	r13	param
                        4235 --_HorizontalDutyCycle_pu16	r10	param
                        4236 --_VerticalDutyCycle_pu16	r29	param
                        4237 --_QuadrantInfo_pu08	12[sp]	param
                        4238 
                        4239 	.data
                        4240 	.text
                        4241 
                        4242 --1171: }
                        4243 
                        4244 --1173: /*=============================================================================
                        4245 --1174:   FunctionName: R_ISM_SetRecirculation
                        4246 --1175:   IN  : UnitNumber: Selected Macro
                        4247 --1176:         ChannelNumber: Selected Channel
                        4248 --1177:         Recirculation Enable, Recirculation Side - Horizontal & Vertical
                        4249 --1178:   OUT : Error Flag
                        4250 --1179:   Description :
                        4251 --1180:   Set Channel Output Recirculation Configuration
                        4252 --1181:   =============================================================================*/
                        4253 --1182: uint32_t R_ISM_SetRecirculation( uint8_t UnitNumber_u08,
                        4254 	.align	2
                        4255 	.align	2
                        4256 	.global	_R_ISM_SetRecirculation
                        4257 _R_ISM_SetRecirculation:
00001138 8007c110       4258 	prepare	{r27,r28,r29},0
0000113c 210600000000*  4259 	mov	_rism_p,r1
00001142 c676ff00       4260 	andi	255,r6,r14
00001146 c76eff00       4261 	andi	255,r7,r13
0000114a c85eff00       4262 	andi	255,r8,r11
0000114e c956ff00       4263 	andi	255,r9,r10

                                                                      Page 74
                                                              C:\Users\YINGAO~1\AppData\Local\Temp\gh_00008201.si
00001152 0160           4264 	mov	r1,r12
                        4265 --	    .bf
                        4266 .LDW19:
                        4267 --1183:                                uint8_t ChannelNumber_u08,
                        4268 --1184:                                uint8_t RecirculationEnableHorizontal_u08,
                        4269 --1185:                                uint8_t RecirculationEnableVertical_u08,
                        4270 --1186:                                uint8_t RecirculationSide_u08 )
                        4271 --1187: {
                        4272 --1188:   if( UnitNumber_u08 >= R_ISM_MACRO_NUM ) return( R_ISM_ERR_NG );
00001154 6172           4273 	cmp	1,r14
00001156 b105*          4274 	bl	.L2904
                        4275 --line1188
                        4276 ..lin.D.3A.5CRenesas_Electronics.5CD1x_RGL.5Crgl_ghs_D1Lx_obj_V1.2E2.2E0.5Cvlib.5Capp.5Cgfx_apps.5Csimple_draw_d1l2.5Ctarget.5Cd1lx_mango_ghs.5Cobj.5Cqlapbismv1_p.234::
                        4277 .LDWlin234:
00001158 00ea           4278 	mov	0,r29
0000115a 9565*          4279 	br	.L2902
                        4280 .L2904:
                        4281 --1189:   if( ChannelNumber_u08 >= R_ISM_CHANNELS ) return( R_ISM_ERR_NG );
                        4282 --line1189
                        4283 ..lin.D.3A.5CRenesas_Electronics.5CD1x_RGL.5Crgl_ghs_D1Lx_obj_V1.2E2.2E0.5Cvlib.5Capp.5Cgfx_apps.5Csimple_draw_d1l2.5Ctarget.5Cd1lx_mango_ghs.5Cobj.5Cqlapbismv1_p.235::
                        4284 .LDWlin235:
0000115c 666a           4285 	cmp	6,r13
0000115e b105*          4286 	bl	.L2907
                        4287 --line1189
                        4288 ..lin.D.3A.5CRenesas_Electronics.5CD1x_RGL.5Crgl_ghs_D1Lx_obj_V1.2E2.2E0.5Cvlib.5Capp.5Cgfx_apps.5Csimple_draw_d1l2.5Ctarget.5Cd1lx_mango_ghs.5Cobj.5Cqlapbismv1_p.236::
                        4289 .LDWlin236:
00001160 00ea           4290 	mov	0,r29
00001162 d55d*          4291 	br	.L2902
                        4292 .L2907:
                        4293 --1191:   if( !RecirculationEnableHorizontal_u08 )
                        4294 --line1191
                        4295 ..lin.D.3A.5CRenesas_Electronics.5CD1x_RGL.5Crgl_ghs_D1Lx_obj_V1.2E2.2E0.5Cvlib.5Capp.5Cgfx_apps.5Csimple_draw_d1l2.5Ctarget.5Cd1lx_mango_ghs.5Cobj.5Cqlapbismv1_p.237::
                        4296 .LDWlin237:
00001164 e059           4297 	cmp	zero,r11
00001166 8a15*          4298 	bne	.L2910
                        4299 --1192:     rism_p[ UnitNumber_u08 ]->cioc[ ChannelNumber_u08 ] &= ~R_ISM_RECIRC_H;
                        4300 --line1192
                        4301 ..lin.D.3A.5CRenesas_Electronics.5CD1x_RGL.5Crgl_ghs_D1Lx_obj_V1.2E2.2E0.5Cvlib.5Capp.5Cgfx_apps.5Csimple_draw_d1l2.5Ctarget.5Cd1lx_mango_ghs.5Cobj.5Cqlapbismv1_p.238::
                        4302 .LDWlin238:
00001168 0ef0           4303 	mov	r14,ep
0000116a c2f2           4304 	shl	2,ep
0000116c ccf1           4305 	add	r12,ep
0000116e 00e5           4306 	sld.w	0[ep],r28
00001170 0df0           4307 	mov	r13,ep
00001172 c2f2           4308 	shl	2,ep
00001174 1ce67c00       4309 	addi	124,r28,r28
00001178 dcf1           4310 	add	r28,ep
0000117a 00ed           4311 	sld.w	0[ep],r29
0000117c 3c06ffff7fff   4312 	mov	-8388609,r28
00001182 5ce9           4313 	and	r28,r29
00001184 01ed           4314 	sst.w	r29,0[ep]
                        4315 .L2910:
                        4316 --1193:   if( !RecirculationEnableVertical_u08 )
00001186 e051           4317 	cmp	zero,r10
00001188 8a15*          4318 	bne	.L2912
                        4319 --1194:     rism_p[ UnitNumber_u08 ]->cioc[ ChannelNumber_u08 ] &= ~R_ISM_RECIRC_V;
                        4320 --line1194
                        4321 ..lin.D.3A.5CRenesas_Electronics.5CD1x_RGL.5Crgl_ghs_D1Lx_obj_V1.2E2.2E0.5Cvlib.5Capp.5Cgfx_apps.5Csimple_draw_d1l2.5Ctarget.5Cd1lx_mango_ghs.5Cobj.5Cqlapbismv1_p.239::
                        4322 .LDWlin239:
0000118a 0ef0           4323 	mov	r14,ep
0000118c c2f2           4324 	shl	2,ep

                                                                      Page 75
                                                              C:\Users\YINGAO~1\AppData\Local\Temp\gh_00008201.si
0000118e ccf1           4325 	add	r12,ep
00001190 00e5           4326 	sld.w	0[ep],r28
00001192 0df0           4327 	mov	r13,ep
00001194 c2f2           4328 	shl	2,ep
00001196 1ce67c00       4329 	addi	124,r28,r28
0000119a dcf1           4330 	add	r28,ep
0000119c 00ed           4331 	sld.w	0[ep],r29
0000119e 3c06ffffbfff   4332 	mov	-4194305,r28
000011a4 5ce9           4333 	and	r28,r29
000011a6 01ed           4334 	sst.w	r29,0[ep]
                        4335 .L2912:
                        4336 --1196:   if( RecirculationSide_u08 != 0 )
000011a8 83ef0d00       4337 	ld.bu	12[sp],r29
000011ac e0e9           4338 	cmp	zero,r29
000011ae d20d*          4339 	be	.L2914
                        4340 --1197:     rism_p[ UnitNumber_u08 ]->irs |= ( uint32_t )( RecirculationSide_u08 << ChannelNumber_u08 );
                        4341 --line1197
                        4342 ..lin.D.3A.5CRenesas_Electronics.5CD1x_RGL.5Crgl_ghs_D1Lx_obj_V1.2E2.2E0.5Cvlib.5Capp.5Cgfx_apps.5Csimple_draw_d1l2.5Ctarget.5Cd1lx_mango_ghs.5Cobj.5Cqlapbismv1_p.240::
                        4343 .LDWlin240:
000011b0 83ef0d00       4344 	ld.bu	12[sp],r29
000011b4 0ef0           4345 	mov	r14,ep
000011b6 c2f2           4346 	shl	2,ep
000011b8 ccf1           4347 	add	r12,ep
000011ba 00f5           4348 	sld.w	0[ep],ep
000011bc edefc2e0       4349 	shl	r13,r29,r28
000011c0 4aed           4350 	sld.w	148[ep],r29
000011c2 1ce9           4351 	or	r28,r29
000011c4 4bed           4352 	sst.w	r29,148[ep]
000011c6 c50d*          4353 	br	.L2916
                        4354 .L2914:
                        4355 --1198:   else
                        4356 --1199:     rism_p[ UnitNumber_u08 ]->irs &= ( uint32_t )( ~( 1 << ChannelNumber_u08 ) );
                        4357 --line1199
                        4358 ..lin.D.3A.5CRenesas_Electronics.5CD1x_RGL.5Crgl_ghs_D1Lx_obj_V1.2E2.2E0.5Cvlib.5Capp.5Cgfx_apps.5Csimple_draw_d1l2.5Ctarget.5Cd1lx_mango_ghs.5Cobj.5Cqlapbismv1_p.241::
                        4359 .LDWlin241:
000011c8 0ef0           4360 	mov	r14,ep
000011ca c2f2           4361 	shl	2,ep
000011cc ccf1           4362 	add	r12,ep
000011ce 01ea           4363 	mov	1,r29
000011d0 00f5           4364 	sld.w	0[ep],ep
000011d2 edefc2e8       4365 	shl	r13,r29,r29
000011d6 3de0           4366 	not	r29,r28
000011d8 4aed           4367 	sld.w	148[ep],r29
000011da 5ce9           4368 	and	r28,r29
000011dc 4bed           4369 	sst.w	r29,148[ep]
                        4370 .L2916:
                        4371 --1201:   rism_p[ UnitNumber_u08 ]->cioc[ ChannelNumber_u08 ] |=
000011de 0ef0           4372 	mov	r14,ep
000011e0 c2f2           4373 	shl	2,ep
000011e2 ccf1           4374 	add	r12,ep
000011e4 cbee0100       4375 	andi	1,r11,r29
000011e8 00dd           4376 	sld.w	0[ep],r27
000011ea d7ea           4377 	shl	23,r29
000011ec 0df0           4378 	mov	r13,ep
000011ee c2f2           4379 	shl	2,ep
000011f0 1bde7c00       4380 	addi	124,r27,r27
000011f4 dbf1           4381 	add	r27,ep
000011f6 00e5           4382 	sld.w	0[ep],r28
000011f8 1de1           4383 	or	r29,r28
000011fa 01e5           4384 	sst.w	r28,0[ep]
                        4385 --1202:     ( ( RecirculationEnableHorizontal_u08 & 0x01 ) << R_ISM_RECIRC_H_P );

                                                                      Page 76
                                                              C:\Users\YINGAO~1\AppData\Local\Temp\gh_00008201.si
                        4386 --1203:   rism_p[ UnitNumber_u08 ]->cioc[ ChannelNumber_u08 ] |=
000011fc 0ef0           4387 	mov	r14,ep
000011fe c2f2           4388 	shl	2,ep
00001200 ccf1           4389 	add	r12,ep
00001202 caee0100       4390 	andi	1,r10,r29
00001206 00dd           4391 	sld.w	0[ep],r27
00001208 d6ea           4392 	shl	22,r29
0000120a 0df0           4393 	mov	r13,ep
0000120c c2f2           4394 	shl	2,ep
0000120e 1bde7c00       4395 	addi	124,r27,r27
00001212 dbf1           4396 	add	r27,ep
00001214 00e5           4397 	sld.w	0[ep],r28
00001216 1de1           4398 	or	r29,r28
00001218 01e5           4399 	sst.w	r28,0[ep]
                        4400 --1204:     ( ( RecirculationEnableVertical_u08 & 0x01 ) << R_ISM_RECIRC_V_P );
                        4401 --1206:   return( R_ISM_ERR_OK );
0000121a 01ea           4402 	mov	1,r29
                        4403 .L2902:
                        4404 --	    .ef
                        4405 .LDW29:
0000121c 1d50           4406 	mov	r29,r10
0000121e 4006df10       4407 	dispose	0,{r27,r28,r29},[lp]
                        4408 	.type	_R_ISM_SetRecirculation,@function
                        4409 	.size	_R_ISM_SetRecirculation,.-_R_ISM_SetRecirculation
                        4410 	.align	2
                        4411 .LDW39:
                        4412 
                        4413 --_UnitNumber_u08	r14	param
                        4414 --_ChannelNumber_u08	r13	param
                        4415 --_RecirculationEnableHorizontal_u08	r11	param
                        4416 --_RecirculationEnableVertical_u08	r10	param
                        4417 --_RecirculationSide_u08	12[sp]	param
                        4418 
                        4419 	.data
                        4420 	.text
                        4421 
                        4422 --1207: }
                        4423 
                        4424 --1209: /*=============================================================================
                        4425 --1210:   FunctionName: R_ISM_GetRecirculation
                        4426 --1211:   IN  : UnitNumber: Selected Macro
                        4427 --1212:         ChannelNumber: Selected Channel
                        4428 --1213:         Recirculation Enable, Recirculation Side - Horizontal & Vertical
                        4429 --1214:   OUT : Error Flag
                        4430 --1215:         Recirculation Enable, Recirculation Side - Horizontal & Vertical
                        4431 --1216:   Description :
                        4432 --1217:   Get Channel Output Recirculation Configuration
                        4433 --1218:   =============================================================================*/
                        4434 --1219: uint32_t R_ISM_GetRecirculation( uint8_t  UnitNumber_u08,
                        4435 	.align	2
                        4436 	.align	2
                        4437 	.global	_R_ISM_GetRecirculation
                        4438 _R_ISM_GetRecirculation:
00001222 8007c100       4439 	prepare	{r28,r29},0
00001226 210600000000*  4440 	mov	_rism_p,r1
0000122c c676ff00       4441 	andi	255,r6,r14
00001230 c76eff00       4442 	andi	255,r7,r13
00001234 0858           4443 	mov	r8,r11
00001236 0950           4444 	mov	r9,r10
00001238 0160           4445 	mov	r1,r12
                        4446 --	    .bf

                                                                      Page 77
                                                              C:\Users\YINGAO~1\AppData\Local\Temp\gh_00008201.si
                        4447 .LDW49:
                        4448 --1220:                                uint8_t  ChannelNumber_u08,
                        4449 --1221:                                uint8_t* RecirculationEnableHorizontal_pu08,
                        4450 --1222:                                uint8_t* RecirculationEnableVertical_pu08,
                        4451 --1223:                                uint8_t* RecirculationSide_pu08 )
                        4452 --1224: {
                        4453 --1225:   if( UnitNumber_u08 >= R_ISM_MACRO_NUM ) return( R_ISM_ERR_NG );
0000123a 6172           4454 	cmp	1,r14
0000123c b105*          4455 	bl	.L3014
                        4456 --line1225
                        4457 ..lin.D.3A.5CRenesas_Electronics.5CD1x_RGL.5Crgl_ghs_D1Lx_obj_V1.2E2.2E0.5Cvlib.5Capp.5Cgfx_apps.5Csimple_draw_d1l2.5Ctarget.5Cd1lx_mango_ghs.5Cobj.5Cqlapbismv1_p.242::
                        4458 .LDWlin242:
0000123e 00ea           4459 	mov	0,r29
00001240 c535*          4460 	br	.L3012
                        4461 .L3014:
                        4462 --1226:   if( ChannelNumber_u08 >= R_ISM_CHANNELS ) return( R_ISM_ERR_NG );
                        4463 --line1226
                        4464 ..lin.D.3A.5CRenesas_Electronics.5CD1x_RGL.5Crgl_ghs_D1Lx_obj_V1.2E2.2E0.5Cvlib.5Capp.5Cgfx_apps.5Csimple_draw_d1l2.5Ctarget.5Cd1lx_mango_ghs.5Cobj.5Cqlapbismv1_p.243::
                        4465 .LDWlin243:
00001242 666a           4466 	cmp	6,r13
00001244 b105*          4467 	bl	.L3017
                        4468 --line1226
                        4469 ..lin.D.3A.5CRenesas_Electronics.5CD1x_RGL.5Crgl_ghs_D1Lx_obj_V1.2E2.2E0.5Cvlib.5Capp.5Cgfx_apps.5Csimple_draw_d1l2.5Ctarget.5Cd1lx_mango_ghs.5Cobj.5Cqlapbismv1_p.244::
                        4470 .LDWlin244:
00001246 00ea           4471 	mov	0,r29
00001248 8535*          4472 	br	.L3012
                        4473 .L3017:
                        4474 --1228:   *RecirculationEnableHorizontal_pu08 =
                        4475 --line1228
                        4476 ..lin.D.3A.5CRenesas_Electronics.5CD1x_RGL.5Crgl_ghs_D1Lx_obj_V1.2E2.2E0.5Cvlib.5Capp.5Cgfx_apps.5Csimple_draw_d1l2.5Ctarget.5Cd1lx_mango_ghs.5Cobj.5Cqlapbismv1_p.245::
                        4477 .LDWlin245:
0000124a 0ef0           4478 	mov	r14,ep
0000124c c2f2           4479 	shl	2,ep
0000124e ccf1           4480 	add	r12,ep
00001250 00e5           4481 	sld.w	0[ep],r28
00001252 0df0           4482 	mov	r13,ep
00001254 c2f2           4483 	shl	2,ep
00001256 1ce67c00       4484 	addi	124,r28,r28
0000125a dcf1           4485 	add	r28,ep
0000125c 00ed           4486 	sld.w	0[ep],r29
0000125e 40e68000       4487 	movhi	hi(8388608),zero,r28
00001262 5ce9           4488 	and	r28,r29
00001264 97ea           4489 	shr	23,r29
00001266 4bef0000       4490 	st.b	r29,0[r11]
                        4491 --1229:     ( uint8_t )( ( rism_p[ UnitNumber_u08 ]->cioc[ ChannelNumber_u08 ] & R_ISM_RECIRC_H ) >> R_ISM_RECIRC_H_P );
                        4492 --1230:   *RecirculationEnableVertical_pu08   =
0000126a 0ef0           4493 	mov	r14,ep
0000126c c2f2           4494 	shl	2,ep
0000126e ccf1           4495 	add	r12,ep
00001270 00e5           4496 	sld.w	0[ep],r28
00001272 0df0           4497 	mov	r13,ep
00001274 c2f2           4498 	shl	2,ep
00001276 1ce67c00       4499 	addi	124,r28,r28
0000127a dcf1           4500 	add	r28,ep
0000127c 00ed           4501 	sld.w	0[ep],r29
0000127e 40e64000       4502 	movhi	hi(4194304),zero,r28
00001282 5ce9           4503 	and	r28,r29
00001284 96ea           4504 	shr	22,r29
00001286 4aef0000       4505 	st.b	r29,0[r10]
                        4506 --1231:     ( uint8_t )( ( rism_p[ UnitNumber_u08 ]->cioc[ ChannelNumber_u08 ] & R_ISM_RECIRC_V ) >> R_ISM_RECIRC_V_P );
                        4507 --1232:   *RecirculationSide_pu08             = ( ( ( uint8_t )rism_p[ UnitNumber_u08 ]->irs ) >> ChannelNumber_u08 ) & 0x01;

                                                                      Page 78
                                                              C:\Users\YINGAO~1\AppData\Local\Temp\gh_00008201.si
0000128a 0ef0           4508 	mov	r14,ep
0000128c c2f2           4509 	shl	2,ep
0000128e 23e70900       4510 	ld.w	8[sp],r28
00001292 ccf1           4511 	add	r12,ep
00001294 00f5           4512 	sld.w	0[ep],ep
00001296 4aed           4513 	sld.w	148[ep],r29
00001298 9d00           4514 	zxb	r29
0000129a edefa2e8       4515 	sar	r13,r29,r29
0000129e ddee0100       4516 	andi	1,r29,r29
000012a2 5cef0000       4517 	st.b	r29,0[r28]
                        4518 --1234:   return( R_ISM_ERR_OK );
000012a6 01ea           4519 	mov	1,r29
                        4520 .L3012:
                        4521 --	    .ef
                        4522 .LDW59:
000012a8 1d50           4523 	mov	r29,r10
000012aa 4006df00       4524 	dispose	0,{r28,r29},[lp]
                        4525 	.type	_R_ISM_GetRecirculation,@function
                        4526 	.size	_R_ISM_GetRecirculation,.-_R_ISM_GetRecirculation
                        4527 	.align	2
                        4528 .LDW69:
                        4529 
                        4530 --_UnitNumber_u08	r14	param
                        4531 --_ChannelNumber_u08	r13	param
                        4532 --_RecirculationEnableHorizontal_pu08	r11	param
                        4533 --_RecirculationEnableVertical_pu08	r10	param
                        4534 --_RecirculationSide_pu08	8[sp]	param
                        4535 
                        4536 	.data
                        4537 	.text
                        4538 
                        4539 --1235: }
                        4540 
                        4541 --1237: /*=============================================================================
                        4542 --1238:   FunctionName: R_ISM_SetDirectIO
                        4543 --1239:   IN  : UnitNumber: Selected Macro
                        4544 --1240:         ChannelNumber: Selected Channel
                        4545 --1241:         Direct Transistor Control Codes
                        4546 --1242:   OUT : Error Flag
                        4547 --1243:   Description :
                        4548 --1244:   Set Channel Output Levels constantly and directly for control without CM
                        4549 --1245:   =============================================================================*/
                        4550 --1246: uint32_t R_ISM_SetDirectIO( uint8_t UnitNumber_u08,
                        4551 	.align	2
                        4552 	.align	2
                        4553 	.global	_R_ISM_SetDirectIO
                        4554 _R_ISM_SetDirectIO:
000012ae 8007c130       4555 	prepare	{r26,r27,r28,r29},0
000012b2 210600000000*  4556 	mov	_rism_p,r1
000012b8 c66eff00       4557 	andi	255,r6,r13
000012bc c766ff00       4558 	andi	255,r7,r12
000012c0 c856ff00       4559 	andi	255,r8,r10
000012c4 c9eeff00       4560 	andi	255,r9,r29
000012c8 0158           4561 	mov	r1,r11
                        4562 --	    .bf
                        4563 .LDW79:
                        4564 --1247:                           uint8_t ChannelNumber_u08,
                        4565 --1248:                           uint8_t HorizontalDirect_u08,
                        4566 --1249:                           uint8_t VerticalDirect_u08 )
                        4567 --1250: {
                        4568 --1251:   uint32_t CurrentSetting_u32;

                                                                      Page 79
                                                              C:\Users\YINGAO~1\AppData\Local\Temp\gh_00008201.si
                        4569 --1253:   if( UnitNumber_u08 >= R_ISM_MACRO_NUM ) return( R_ISM_ERR_NG );
000012ca 616a           4570 	cmp	1,r13
000012cc b105*          4571 	bl	.L3080
                        4572 --line1253
                        4573 ..lin.D.3A.5CRenesas_Electronics.5CD1x_RGL.5Crgl_ghs_D1Lx_obj_V1.2E2.2E0.5Cvlib.5Capp.5Cgfx_apps.5Csimple_draw_d1l2.5Ctarget.5Cd1lx_mango_ghs.5Cobj.5Cqlapbismv1_p.246::
                        4574 .LDWlin246:
000012ce 00e2           4575 	mov	0,r28
000012d0 a535*          4576 	br	.L3078
                        4577 .L3080:
                        4578 --1254:   if( ChannelNumber_u08 >= R_ISM_CHANNELS ) return( R_ISM_ERR_NG );
                        4579 --line1254
                        4580 ..lin.D.3A.5CRenesas_Electronics.5CD1x_RGL.5Crgl_ghs_D1Lx_obj_V1.2E2.2E0.5Cvlib.5Capp.5Cgfx_apps.5Csimple_draw_d1l2.5Ctarget.5Cd1lx_mango_ghs.5Cobj.5Cqlapbismv1_p.247::
                        4581 .LDWlin247:
000012d2 6662           4582 	cmp	6,r12
000012d4 b105*          4583 	bl	.L3083
                        4584 --line1254
                        4585 ..lin.D.3A.5CRenesas_Electronics.5CD1x_RGL.5Crgl_ghs_D1Lx_obj_V1.2E2.2E0.5Cvlib.5Capp.5Cgfx_apps.5Csimple_draw_d1l2.5Ctarget.5Cd1lx_mango_ghs.5Cobj.5Cqlapbismv1_p.248::
                        4586 .LDWlin248:
000012d6 00e2           4587 	mov	0,r28
000012d8 e52d*          4588 	br	.L3078
                        4589 .L3083:
                        4590 --1256:   CurrentSetting_u32  = rism_p[ UnitNumber_u08 ]->cioc[ ChannelNumber_u08 ];
                        4591 --line1256
                        4592 ..lin.D.3A.5CRenesas_Electronics.5CD1x_RGL.5Crgl_ghs_D1Lx_obj_V1.2E2.2E0.5Cvlib.5Capp.5Cgfx_apps.5Csimple_draw_d1l2.5Ctarget.5Cd1lx_mango_ghs.5Cobj.5Cqlapbismv1_p.249::
                        4593 .LDWlin249:
000012da 0df0           4594 	mov	r13,ep
000012dc c2f2           4595 	shl	2,ep
000012de cbf1           4596 	add	r11,ep
000012e0 00dd           4597 	sld.w	0[ep],r27
000012e2 0cf0           4598 	mov	r12,ep
000012e4 c2f2           4599 	shl	2,ep
000012e6 1bde7c00       4600 	addi	124,r27,r27
000012ea dbf1           4601 	add	r27,ep
000012ec 0075           4602 	sld.w	0[ep],r14
                        4603 --1257:   CurrentSetting_u32 &= ( ~( R_ISM_DIRECT_EN |
000012ee 3c06f0c3fffc   4604 	mov	-50347024,r28
000012f4 5c71           4605 	and	r28,r14
                        4606 --1258:                              ( R_ISM_DIRECT_MASK << R_ISM_DIRECT_H_P ) |
                        4607 --1259:                              ( R_ISM_DIRECT_MASK << R_ISM_DIRECT_V_P ) ) );
                        4608 --1260:   CurrentSetting_u32 |= ( ( ( uint32_t )HorizontalDirect_u08 << R_ISM_DIRECT_H_P ) |
000012f6 0ae0           4609 	mov	r10,r28
000012f8 cae2           4610 	shl	10,r28
000012fa 1de1           4611 	or	r29,r28
000012fc 40d60003       4612 	movhi	hi(50331648),zero,r26
00001300 1ae1           4613 	or	r26,r28
00001302 1c71           4614 	or	r28,r14
                        4615 --1261:                           ( ( uint32_t )VerticalDirect_u08   << R_ISM_DIRECT_V_P ) |
                        4616 --1262:                           R_ISM_DIRECT_EN );
                        4617 --1264:   /* set the channel in ZPD mode, in order to enable direct I/O */
                        4618 --1266:   rism_p[ UnitNumber_u08 ]->ccmr[ ChannelNumber_u08 ].czp = 1L;
00001304 0df0           4619 	mov	r13,ep
00001306 c2f2           4620 	shl	2,ep
00001308 cbf1           4621 	add	r11,ep
0000130a 00dd           4622 	sld.w	0[ep],r27
0000130c 0cf0           4623 	mov	r12,ep
0000130e c2f2           4624 	shl	2,ep
00001310 1bde1c00       4625 	addi	28,r27,r27
00001314 dbf1           4626 	add	r27,ep
00001316 00e5           4627 	sld.w	0[ep],r28
00001318 9ce64000       4628 	ori	64,r28,r28
0000131c 01e5           4629 	sst.w	r28,0[ep]

                                                                      Page 80
                                                              C:\Users\YINGAO~1\AppData\Local\Temp\gh_00008201.si
                        4630 --1267:   rism_p[ UnitNumber_u08 ]->cioc[ ChannelNumber_u08 ] = CurrentSetting_u32;
0000131e 0df0           4631 	mov	r13,ep
00001320 c2f2           4632 	shl	2,ep
00001322 cbf1           4633 	add	r11,ep
00001324 00dd           4634 	sld.w	0[ep],r27
00001326 0cf0           4635 	mov	r12,ep
00001328 c2f2           4636 	shl	2,ep
0000132a 1bde7c00       4637 	addi	124,r27,r27
0000132e dbf1           4638 	add	r27,ep
00001330 0175           4639 	sst.w	r14,0[ep]
                        4640 --1269:   return( R_ISM_ERR_OK );
00001332 01e2           4641 	mov	1,r28
                        4642 .L3078:
                        4643 --	    .ef
                        4644 .LDW89:
00001334 1c50           4645 	mov	r28,r10
00001336 4006df30       4646 	dispose	0,{r26,r27,r28,r29},[lp]
                        4647 	.type	_R_ISM_SetDirectIO,@function
                        4648 	.size	_R_ISM_SetDirectIO,.-_R_ISM_SetDirectIO
                        4649 	.align	2
                        4650 .LDW99:
                        4651 --_CurrentSetting_u32	r14	local
                        4652 
                        4653 --_UnitNumber_u08	r13	param
                        4654 --_ChannelNumber_u08	r12	param
                        4655 --_HorizontalDirect_u08	r10	param
                        4656 --_VerticalDirect_u08	r29	param
                        4657 
                        4658 	.data
                        4659 	.text
                        4660 
                        4661 --1270: }
                        4662 
                        4663 --1272: /*=============================================================================
                        4664 --1273:   FunctionName: R_ISM_GetDirectIO
                        4665 --1274:   IN  : UnitNumber: Selected Macro
                        4666 --1275:         ChannelNumber: Selected Channel
                        4667 --1276:   OUT : Error Flag
                        4668 --1277:         Direct Transistor Control Codes
                        4669 --1278:   Description :
                        4670 --1279:   Get Channel Output Levels Control Codes
                        4671 --1280:   =============================================================================*/
                        4672 --1281: uint32_t R_ISM_GetDirectIO( uint8_t UnitNumber_u08,
                        4673 	.align	2
                        4674 	.align	2
                        4675 	.global	_R_ISM_GetDirectIO
                        4676 _R_ISM_GetDirectIO:
0000133a 8007c110       4677 	prepare	{r27,r28,r29},0
0000133e 210600000000*  4678 	mov	_rism_p,r1
00001344 c676ff00       4679 	andi	255,r6,r14
00001348 c76eff00       4680 	andi	255,r7,r13
0000134c 0858           4681 	mov	r8,r11
0000134e 0950           4682 	mov	r9,r10
00001350 0160           4683 	mov	r1,r12
                        4684 --	    .bf
                        4685 .LDW001:
                        4686 --1282:                           uint8_t ChannelNumber_u08,
                        4687 --1283:                           uint8_t* HorizontalDirectEnable_pu08,
                        4688 --1284:                           uint8_t* HorizontalDirect_pu08,
                        4689 --1285:                           uint8_t* VerticalDirectEnable_pu08,
                        4690 --1286:                           uint8_t* VerticalDirect_pu08 )

                                                                      Page 81
                                                              C:\Users\YINGAO~1\AppData\Local\Temp\gh_00008201.si
                        4691 --1287: {
                        4692 --1288:   if( UnitNumber_u08 >= R_ISM_MACRO_NUM ) return( R_ISM_ERR_NG );
00001352 6172           4693 	cmp	1,r14
00001354 b105*          4694 	bl	.L3154
                        4695 --line1288
                        4696 ..lin.D.3A.5CRenesas_Electronics.5CD1x_RGL.5Crgl_ghs_D1Lx_obj_V1.2E2.2E0.5Cvlib.5Capp.5Cgfx_apps.5Csimple_draw_d1l2.5Ctarget.5Cd1lx_mango_ghs.5Cobj.5Cqlapbismv1_p.250::
                        4697 .LDWlin250:
00001356 00ea           4698 	mov	0,r29
00001358 954d*          4699 	br	.L3152
                        4700 .L3154:
                        4701 --1289:   if( ChannelNumber_u08 >= R_ISM_CHANNELS ) return( R_ISM_ERR_NG );
                        4702 --line1289
                        4703 ..lin.D.3A.5CRenesas_Electronics.5CD1x_RGL.5Crgl_ghs_D1Lx_obj_V1.2E2.2E0.5Cvlib.5Capp.5Cgfx_apps.5Csimple_draw_d1l2.5Ctarget.5Cd1lx_mango_ghs.5Cobj.5Cqlapbismv1_p.251::
                        4704 .LDWlin251:
0000135a 666a           4705 	cmp	6,r13
0000135c b105*          4706 	bl	.L3157
                        4707 --line1289
                        4708 ..lin.D.3A.5CRenesas_Electronics.5CD1x_RGL.5Crgl_ghs_D1Lx_obj_V1.2E2.2E0.5Cvlib.5Capp.5Cgfx_apps.5Csimple_draw_d1l2.5Ctarget.5Cd1lx_mango_ghs.5Cobj.5Cqlapbismv1_p.252::
                        4709 .LDWlin252:
0000135e 00ea           4710 	mov	0,r29
00001360 d545*          4711 	br	.L3152
                        4712 .L3157:
                        4713 --1291:   *HorizontalDirectEnable_pu08 =
                        4714 --line1291
                        4715 ..lin.D.3A.5CRenesas_Electronics.5CD1x_RGL.5Crgl_ghs_D1Lx_obj_V1.2E2.2E0.5Cvlib.5Capp.5Cgfx_apps.5Csimple_draw_d1l2.5Ctarget.5Cd1lx_mango_ghs.5Cobj.5Cqlapbismv1_p.253::
                        4716 .LDWlin253:
00001362 0ef0           4717 	mov	r14,ep
00001364 c2f2           4718 	shl	2,ep
00001366 ccf1           4719 	add	r12,ep
00001368 00e5           4720 	sld.w	0[ep],r28
0000136a 0df0           4721 	mov	r13,ep
0000136c c2f2           4722 	shl	2,ep
0000136e 1ce67c00       4723 	addi	124,r28,r28
00001372 dcf1           4724 	add	r28,ep
00001374 00ed           4725 	sld.w	0[ep],r29
00001376 40e60002       4726 	movhi	hi(33554432),zero,r28
0000137a 5ce9           4727 	and	r28,r29
0000137c 99ea           4728 	shr	25,r29
0000137e 4bef0000       4729 	st.b	r29,0[r11]
                        4730 --1292:     ( uint8_t )( ( rism_p[ UnitNumber_u08 ]->cioc[ ChannelNumber_u08 ] &
                        4731 --1293:                R_ISM_DIRECT_H_EN ) >> R_ISM_DIRECT_H_EN_P );
                        4732 --1294:   *VerticalDirectEnable_pu08   =
00001382 0ef0           4733 	mov	r14,ep
00001384 c2f2           4734 	shl	2,ep
00001386 23df0d00       4735 	ld.w	12[sp],r27
0000138a ccf1           4736 	add	r12,ep
0000138c 00e5           4737 	sld.w	0[ep],r28
0000138e 0df0           4738 	mov	r13,ep
00001390 c2f2           4739 	shl	2,ep
00001392 1ce67c00       4740 	addi	124,r28,r28
00001396 dcf1           4741 	add	r28,ep
00001398 00ed           4742 	sld.w	0[ep],r29
0000139a 40e60001       4743 	movhi	hi(16777216),zero,r28
0000139e 5ce9           4744 	and	r28,r29
000013a0 98ea           4745 	shr	24,r29
000013a2 5bef0000       4746 	st.b	r29,0[r27]
                        4747 --1295:     ( uint8_t )( ( rism_p[ UnitNumber_u08 ]->cioc[ ChannelNumber_u08 ] &
                        4748 --1296:                R_ISM_DIRECT_V_EN ) >> R_ISM_DIRECT_V_EN_P );
                        4749 --1297:   *HorizontalDirect_pu08       =
000013a6 0ef0           4750 	mov	r14,ep
000013a8 c2f2           4751 	shl	2,ep

                                                                      Page 82
                                                              C:\Users\YINGAO~1\AppData\Local\Temp\gh_00008201.si
000013aa ccf1           4752 	add	r12,ep
000013ac 00e5           4753 	sld.w	0[ep],r28
000013ae 0df0           4754 	mov	r13,ep
000013b0 c2f2           4755 	shl	2,ep
000013b2 1ce67c00       4756 	addi	124,r28,r28
000013b6 dcf1           4757 	add	r28,ep
000013b8 00ed           4758 	sld.w	0[ep],r29
000013ba 8aea           4759 	shr	10,r29
000013bc 9d00           4760 	zxb	r29
000013be ddee0f00       4761 	andi	15,r29,r29
000013c2 4aef0000       4762 	st.b	r29,0[r10]
                        4763 --1298:     ( ( uint8_t )( rism_p[ UnitNumber_u08 ]->cioc[ ChannelNumber_u08 ] >>
                        4764 --1299:                R_ISM_DIRECT_H_P ) ) & R_ISM_DIRECT_MASK;
                        4765 --1300:   *VerticalDirect_pu08         =
000013c6 0ef0           4766 	mov	r14,ep
000013c8 c2f2           4767 	shl	2,ep
000013ca 23df1100       4768 	ld.w	16[sp],r27
000013ce ccf1           4769 	add	r12,ep
000013d0 00e5           4770 	sld.w	0[ep],r28
000013d2 0df0           4771 	mov	r13,ep
000013d4 c2f2           4772 	shl	2,ep
000013d6 1ce67c00       4773 	addi	124,r28,r28
000013da dcf1           4774 	add	r28,ep
000013dc 00ed           4775 	sld.w	0[ep],r29
000013de 9d00           4776 	zxb	r29
000013e0 ddee0f00       4777 	andi	15,r29,r29
000013e4 5bef0000       4778 	st.b	r29,0[r27]
                        4779 --1301:     ( ( uint8_t )( rism_p[ UnitNumber_u08 ]->cioc[ ChannelNumber_u08 ] >>
                        4780 --1302:                R_ISM_DIRECT_V_P ) ) & R_ISM_DIRECT_MASK;
                        4781 --1304:   return( R_ISM_ERR_OK );
000013e8 01ea           4782 	mov	1,r29
                        4783 .L3152:
                        4784 --	    .ef
                        4785 .LDW101:
000013ea 1d50           4786 	mov	r29,r10
000013ec 4006df10       4787 	dispose	0,{r27,r28,r29},[lp]
                        4788 	.type	_R_ISM_GetDirectIO,@function
                        4789 	.size	_R_ISM_GetDirectIO,.-_R_ISM_GetDirectIO
                        4790 	.align	2
                        4791 .LDW201:
                        4792 
                        4793 --_UnitNumber_u08	r14	param
                        4794 --_ChannelNumber_u08	r13	param
                        4795 --_HorizontalDirectEnable_pu08	r11	param
                        4796 --_HorizontalDirect_pu08	r10	param
                        4797 --_VerticalDirectEnable_pu08	12[sp]	param
                        4798 --_VerticalDirect_pu08	16[sp]	param
                        4799 
                        4800 	.data
                        4801 	.text
                        4802 
                        4803 --1305: }
                        4804 
                        4805 --1307: /*=============================================================================
                        4806 --1308:   FunctionName: R_ISM_ReleaseDirectIO
                        4807 --1309:   IN  : UnitNumber: Selected Macro
                        4808 --1310:         ChannelNumber: Selected Channel
                        4809 --1311:   OUT : Error Flag
                        4810 --1312:   Description :
                        4811 --1313:   Release Channel constant Output Levels (Revert to PWM)
                        4812 --1314:   =============================================================================*/

                                                                      Page 83
                                                              C:\Users\YINGAO~1\AppData\Local\Temp\gh_00008201.si
                        4813 --1315: uint32_t R_ISM_ReleaseDirectIO( uint8_t UnitNumber_u08,
                        4814 	.align	2
                        4815 	.align	2
                        4816 	.global	_R_ISM_ReleaseDirectIO
                        4817 _R_ISM_ReleaseDirectIO:
000013f0 210600000000*  4818 	mov	_rism_p,r1
000013f6 c676ff00       4819 	andi	255,r6,r14
000013fa c76eff00       4820 	andi	255,r7,r13
000013fe 0160           4821 	mov	r1,r12
                        4822 --	    .bf
                        4823 .LDW301:
                        4824 --1316:                               uint8_t ChannelNumber_u08 )
                        4825 --1317: {
                        4826 --1318:   if( UnitNumber_u08 >= R_ISM_MACRO_NUM ) return( R_ISM_ERR_NG );
00001400 6172           4827 	cmp	1,r14
00001402 b105*          4828 	bl	.L3229
                        4829 --line1318
                        4830 ..lin.D.3A.5CRenesas_Electronics.5CD1x_RGL.5Crgl_ghs_D1Lx_obj_V1.2E2.2E0.5Cvlib.5Capp.5Cgfx_apps.5Csimple_draw_d1l2.5Ctarget.5Cd1lx_mango_ghs.5Cobj.5Cqlapbismv1_p.254::
                        4831 .LDWlin254:
00001404 0052           4832 	mov	0,r10
00001406 b525*          4833 	br	.L3227
                        4834 .L3229:
                        4835 --1319:   if( ChannelNumber_u08 >= R_ISM_CHANNELS ) return( R_ISM_ERR_NG );
                        4836 --line1319
                        4837 ..lin.D.3A.5CRenesas_Electronics.5CD1x_RGL.5Crgl_ghs_D1Lx_obj_V1.2E2.2E0.5Cvlib.5Capp.5Cgfx_apps.5Csimple_draw_d1l2.5Ctarget.5Cd1lx_mango_ghs.5Cobj.5Cqlapbismv1_p.255::
                        4838 .LDWlin255:
00001408 666a           4839 	cmp	6,r13
0000140a b105*          4840 	bl	.L3232
                        4841 --line1319
                        4842 ..lin.D.3A.5CRenesas_Electronics.5CD1x_RGL.5Crgl_ghs_D1Lx_obj_V1.2E2.2E0.5Cvlib.5Capp.5Cgfx_apps.5Csimple_draw_d1l2.5Ctarget.5Cd1lx_mango_ghs.5Cobj.5Cqlapbismv1_p.256::
                        4843 .LDWlin256:
0000140c 0052           4844 	mov	0,r10
0000140e f51d*          4845 	br	.L3227
                        4846 .L3232:
                        4847 --1321:   rism_p[ UnitNumber_u08 ]->cioc[ ChannelNumber_u08 ] &= ( ~R_ISM_DIRECT_EN );
                        4848 --line1321
                        4849 ..lin.D.3A.5CRenesas_Electronics.5CD1x_RGL.5Crgl_ghs_D1Lx_obj_V1.2E2.2E0.5Cvlib.5Capp.5Cgfx_apps.5Csimple_draw_d1l2.5Ctarget.5Cd1lx_mango_ghs.5Cobj.5Cqlapbismv1_p.257::
                        4850 .LDWlin257:
00001410 0ef0           4851 	mov	r14,ep
00001412 c2f2           4852 	shl	2,ep
00001414 ccf1           4853 	add	r12,ep
00001416 0055           4854 	sld.w	0[ep],r10
00001418 0df0           4855 	mov	r13,ep
0000141a c2f2           4856 	shl	2,ep
0000141c 0a567c00       4857 	addi	124,r10,r10
00001420 caf1           4858 	add	r10,ep
00001422 005d           4859 	sld.w	0[ep],r11
00001424 2a06fffffffc   4860 	mov	-50331649,r10
0000142a 4a59           4861 	and	r10,r11
0000142c 015d           4862 	sst.w	r11,0[ep]
                        4863 --1323:   /* release ZPD mode for the selected channel, in order to restore PWM */
                        4864 --1325:   rism_p[ UnitNumber_u08 ]->ccmr[ ChannelNumber_u08 ].czp = 0L;
0000142e 0ef0           4865 	mov	r14,ep
00001430 c2f2           4866 	shl	2,ep
00001432 ccf1           4867 	add	r12,ep
00001434 0055           4868 	sld.w	0[ep],r10
00001436 0df0           4869 	mov	r13,ep
00001438 c2f2           4870 	shl	2,ep
0000143a 0a561c00       4871 	addi	28,r10,r10
0000143e caf1           4872 	add	r10,ep
00001440 005d           4873 	sld.w	0[ep],r11

                                                                      Page 84
                                                              C:\Users\YINGAO~1\AppData\Local\Temp\gh_00008201.si
00001442 2056bfff       4874 	movea	-65,zero,r10
00001446 4a59           4875 	and	r10,r11
00001448 015d           4876 	sst.w	r11,0[ep]
                        4877 --1327:   return( R_ISM_ERR_OK );
0000144a 0152           4878 	mov	1,r10
                        4879 .L3227:
                        4880 --	    .ef
                        4881 .LDW401:
0000144c 7f00           4882 	jmp	[lp]
                        4883 	.type	_R_ISM_ReleaseDirectIO,@function
                        4884 	.size	_R_ISM_ReleaseDirectIO,.-_R_ISM_ReleaseDirectIO
                        4885 	.align	2
                        4886 .LDW501:
                        4887 
                        4888 --_UnitNumber_u08	r14	param
                        4889 --_ChannelNumber_u08	r13	param
                        4890 
                        4891 	.data
                        4892 	.text
                        4893 
                        4894 --1328: }
                        4895 
                        4896 --1330: /*=============================================================================
                        4897 --1331:   FunctionName: R_ISM_SetCMEnable
                        4898 --1332:   IN  : UnitNumber: Selected Macro
                        4899 --1333:         ChannelNumber: Selected Channel
                        4900 --1334:   OUT : Error Flag
                        4901 --1335:   Description :
                        4902 --1336:   Set or Clear the global and channel specific enable flags
                        4903 --1337:   =============================================================================*/
                        4904 --1338: uint32_t R_ISM_SetCMEnable( uint8_t UnitNumber_u08,
                        4905 	.align	2
                        4906 	.align	2
                        4907 	.global	_R_ISM_SetCMEnable
                        4908 _R_ISM_SetCMEnable:
0000144e 80074100       4909 	prepare	{r29},0
00001452 210600000000*  4910 	mov	_rism_p,r1
00001458 c66eff00       4911 	andi	255,r6,r13
0000145c c75eff00       4912 	andi	255,r7,r11
00001460 c856ff00       4913 	andi	255,r8,r10
00001464 0160           4914 	mov	r1,r12
                        4915 --	    .bf
                        4916 .LDW601:
                        4917 --1339:                           uint8_t ChannelMask_u08,
                        4918 --1340:                           uint8_t EnableFlag_u08 )
                        4919 --1341: {
                        4920 --1342:   uint32_t ChannelFlags_u32;
                        4921 --1344:   if( UnitNumber_u08 >= R_ISM_MACRO_NUM ) return( R_ISM_ERR_NG );
00001466 616a           4922 	cmp	1,r13
00001468 b105*          4923 	bl	.L3299
                        4924 --line1344
                        4925 ..lin.D.3A.5CRenesas_Electronics.5CD1x_RGL.5Crgl_ghs_D1Lx_obj_V1.2E2.2E0.5Cvlib.5Capp.5Cgfx_apps.5Csimple_draw_d1l2.5Ctarget.5Cd1lx_mango_ghs.5Cobj.5Cqlapbismv1_p.258::
                        4926 .LDWlin258:
0000146a 004a           4927 	mov	0,r9
0000146c a53d*          4928 	br	.L3297
                        4929 .L3299:
                        4930 --1346:   ChannelFlags_u32 = rism_p[ UnitNumber_u08 ]->gstr.cen;
                        4931 --line1346
                        4932 ..lin.D.3A.5CRenesas_Electronics.5CD1x_RGL.5Crgl_ghs_D1Lx_obj_V1.2E2.2E0.5Cvlib.5Capp.5Cgfx_apps.5Csimple_draw_d1l2.5Ctarget.5Cd1lx_mango_ghs.5Cobj.5Cqlapbismv1_p.259::
                        4933 .LDWlin259:
0000146e 0df0           4934 	mov	r13,ep

                                                                      Page 85
                                                              C:\Users\YINGAO~1\AppData\Local\Temp\gh_00008201.si
00001470 c2f2           4935 	shl	2,ep
00001472 ccf1           4936 	add	r12,ep
00001474 00f5           4937 	sld.w	0[ep],ep
00001476 0275           4938 	sld.w	4[ep],r14
00001478 ce763f00       4939 	andi	63,r14,r14
                        4940 --1347:   if( EnableFlag_u08 )
0000147c e051           4941 	cmp	zero,r10
0000147e b205*          4942 	be	.L3302
                        4943 --1348:     {
                        4944 --1349:       ChannelFlags_u32 |= ( uint32_t )ChannelMask_u08;
                        4945 --line1349
                        4946 ..lin.D.3A.5CRenesas_Electronics.5CD1x_RGL.5Crgl_ghs_D1Lx_obj_V1.2E2.2E0.5Cvlib.5Capp.5Cgfx_apps.5Csimple_draw_d1l2.5Ctarget.5Cd1lx_mango_ghs.5Cobj.5Cqlapbismv1_p.260::
                        4947 .LDWlin260:
00001480 0b71           4948 	or	r11,r14
00001482 b505*          4949 	br	.L3304
                        4950 .L3302:
                        4951 --1350:     }
                        4952 --1351:   else
                        4953 --1352:     {
                        4954 --1353:       ChannelFlags_u32 &= ( uint32_t )( ~ChannelMask_u08 );
                        4955 --line1353
                        4956 ..lin.D.3A.5CRenesas_Electronics.5CD1x_RGL.5Crgl_ghs_D1Lx_obj_V1.2E2.2E0.5Cvlib.5Capp.5Cgfx_apps.5Csimple_draw_d1l2.5Ctarget.5Cd1lx_mango_ghs.5Cobj.5Cqlapbismv1_p.261::
                        4957 .LDWlin261:
00001484 2b48           4958 	not	r11,r9
00001486 4971           4959 	and	r9,r14
                        4960 .L3304:
                        4961 --1354:     }
                        4962 --1356:   switch( ChannelMask_u08 )
00001488 0b0601ff       4963 	addi	-255,r11,zero
0000148c aa0d*          4964 	bne	.L3308
                        4965 --1357:     {
                        4966 --1358:     case R_ISM_GLOBAL_EN:   /* switch on or off CM in general */
                        4967 --1359:       rism_p[ UnitNumber_u08 ]->gctl.gce = ( uint32_t )EnableFlag_u08;
                        4968 --line1359
                        4969 ..lin.D.3A.5CRenesas_Electronics.5CD1x_RGL.5Crgl_ghs_D1Lx_obj_V1.2E2.2E0.5Cvlib.5Capp.5Cgfx_apps.5Csimple_draw_d1l2.5Ctarget.5Cd1lx_mango_ghs.5Cobj.5Cqlapbismv1_p.262::
                        4970 .LDWlin262:
0000148e 0df0           4971 	mov	r13,ep
00001490 c2f2           4972 	shl	2,ep
00001492 ccf1           4973 	add	r12,ep
00001494 00f5           4974 	sld.w	0[ep],ep
00001496 004d           4975 	sld.w	0[ep],r9
00001498 ea4fd088       4976 	bins	r10,8,1,r9
0000149c 014d           4977 	sst.w	r9,0[ep]
0000149e 8525*          4978 	br	.L3305
                        4979 .L3308:
                        4980 --1360:       break;
                        4981 --1362:     default:                 /* handle channels according to mask */
                        4982 --1363:       do
                        4983 --line1363
                        4984 ..lin.D.3A.5CRenesas_Electronics.5CD1x_RGL.5Crgl_ghs_D1Lx_obj_V1.2E2.2E0.5Cvlib.5Capp.5Cgfx_apps.5Csimple_draw_d1l2.5Ctarget.5Cd1lx_mango_ghs.5Cobj.5Cqlapbismv1_p.263::
                        4985 .LDWlin263:
000014a0 0000           4986 	nop
                        4987 .L3311:
                        4988 --1364:         {
                        4989 --1365:           while( rism_p[ UnitNumber_u08 ]->gstr.gcb );
000014a2 0000           4990 	nop
                        4991 .L3312:
000014a4 0df0           4992 	mov	r13,ep
000014a6 c2f2           4993 	shl	2,ep
000014a8 ccf1           4994 	add	r12,ep
000014aa 00f5           4995 	sld.w	0[ep],ep

                                                                      Page 86
                                                              C:\Users\YINGAO~1\AppData\Local\Temp\gh_00008201.si
000014ac 024d           4996 	sld.w	4[ep],r9
000014ae 884a           4997 	shr	8,r9
000014b0 a1fd*          4998 	bl	.L3312
                        4999 --1366:           rism_p[ UnitNumber_u08 ]->gstr.cen = ChannelFlags_u32;
                        5000 --line1366
                        5001 ..lin.D.3A.5CRenesas_Electronics.5CD1x_RGL.5Crgl_ghs_D1Lx_obj_V1.2E2.2E0.5Cvlib.5Capp.5Cgfx_apps.5Csimple_draw_d1l2.5Ctarget.5Cd1lx_mango_ghs.5Cobj.5Cqlapbismv1_p.264::
                        5002 .LDWlin264:
000014b2 0df0           5003 	mov	r13,ep
000014b4 c2f2           5004 	shl	2,ep
000014b6 ccf1           5005 	add	r12,ep
000014b8 20eec0ff       5006 	movea	-64,zero,r29
000014bc 00f5           5007 	sld.w	0[ep],ep
000014be 024d           5008 	sld.w	4[ep],r9
000014c0 5d49           5009 	and	r29,r9
000014c2 ceee3f00       5010 	andi	63,r14,r29
000014c6 1d49           5011 	or	r29,r9
000014c8 034d           5012 	sst.w	r9,4[ep]
000014ca 0df0           5013 	mov	r13,ep
000014cc c2f2           5014 	shl	2,ep
000014ce ccf1           5015 	add	r12,ep
000014d0 00f5           5016 	sld.w	0[ep],ep
000014d2 024d           5017 	sld.w	4[ep],r9
000014d4 c94e3f00       5018 	andi	63,r9,r9
000014d8 ee49           5019 	cmp	r14,r9
000014da cae5*          5020 	bne	.L3311
                        5021 --line1369
                        5022 ..lin.D.3A.5CRenesas_Electronics.5CD1x_RGL.5Crgl_ghs_D1Lx_obj_V1.2E2.2E0.5Cvlib.5Capp.5Cgfx_apps.5Csimple_draw_d1l2.5Ctarget.5Cd1lx_mango_ghs.5Cobj.5Cqlapbismv1_p.265::
                        5023 .LDWlin265:
000014dc 0000           5024 	nop
                        5025 .L3305:
                        5026 --1368:         } while( rism_p[ UnitNumber_u08 ]->gstr.cen != ChannelFlags_u32 );
                        5027 --1369:       break;
                        5028 --1370:     }
                        5029 --1372:   return( R_ISM_ERR_OK );
000014de 014a           5030 	mov	1,r9
                        5031 .L3297:
                        5032 --	    .ef
                        5033 .LDW701:
000014e0 0950           5034 	mov	r9,r10
000014e2 40065f00       5035 	dispose	0,{r29},[lp]
                        5036 	.type	_R_ISM_SetCMEnable,@function
                        5037 	.size	_R_ISM_SetCMEnable,.-_R_ISM_SetCMEnable
                        5038 	.align	2
                        5039 .LDW801:
                        5040 --_ChannelFlags_u32	r14	local
                        5041 
                        5042 --_UnitNumber_u08	r13	param
                        5043 --_ChannelMask_u08	r11	param
                        5044 --_EnableFlag_u08	r10	param
                        5045 
                        5046 	.data
                        5047 	.text
                        5048 
                        5049 --1373: }
                        5050 
                        5051 --1375: /*=============================================================================
                        5052 --1376:   FunctionName: R_ISM_SetInterrupt
                        5053 --1377:   IN  : UnitNumber: Selected Macro
                        5054 --1378:         ChannelNumber: Selected Channel
                        5055 --1379:   OUT : Error Flag
                        5056 --1380:   Description :

                                                                      Page 87
                                                              C:\Users\YINGAO~1\AppData\Local\Temp\gh_00008201.si
                        5057 --1381:   Set or Clear the global and channel specific interrupt enable flags
                        5058 --1382:   =============================================================================*/
                        5059 --1383: uint32_t R_ISM_SetInterrupt( uint8_t UnitNumber_u08,
                        5060 	.align	2
                        5061 	.align	2
                        5062 	.global	_R_ISM_SetInterrupt
                        5063 _R_ISM_SetInterrupt:
000014e6 8007c130       5064 	prepare	{r26,r27,r28,r29},0
000014ea 210600000000*  5065 	mov	_rism_p,r1
000014f0 c66eff00       5066 	andi	255,r6,r13
000014f4 c75eff00       5067 	andi	255,r7,r11
000014f8 c8eeff00       5068 	andi	255,r8,r29
000014fc c9e6ff00       5069 	andi	255,r9,r28
00001500 0160           5070 	mov	r1,r12
                        5071 --	    .bf
                        5072 .LDW901:
                        5073 --1384:                            uint8_t ChannelMask_u08,
                        5074 --1385:                            uint8_t GlobalMask_u08,
                        5075 --1386:                            uint8_t ZPDADMask_u08,
                        5076 --1387:                            uint8_t EnableFlag_u08 )
                        5077 --1388: {
                        5078 --1389:   uint32_t ChannelFlags_u32;
                        5079 --1391:   if( UnitNumber_u08 >= R_ISM_MACRO_NUM ) return( R_ISM_ERR_NG );
00001502 616a           5080 	cmp	1,r13
00001504 b105*          5081 	bl	.L3427
                        5082 --line1391
                        5083 ..lin.D.3A.5CRenesas_Electronics.5CD1x_RGL.5Crgl_ghs_D1Lx_obj_V1.2E2.2E0.5Cvlib.5Capp.5Cgfx_apps.5Csimple_draw_d1l2.5Ctarget.5Cd1lx_mango_ghs.5Cobj.5Cqlapbismv1_p.266::
                        5084 .LDWlin266:
00001506 0052           5085 	mov	0,r10
00001508 d535*          5086 	br	.L3425
                        5087 .L3427:
                        5088 --1393:   ChannelFlags_u32 = rism_p[ UnitNumber_u08 ]->gctl.iere;
                        5089 --line1393
                        5090 ..lin.D.3A.5CRenesas_Electronics.5CD1x_RGL.5Crgl_ghs_D1Lx_obj_V1.2E2.2E0.5Cvlib.5Capp.5Cgfx_apps.5Csimple_draw_d1l2.5Ctarget.5Cd1lx_mango_ghs.5Cobj.5Cqlapbismv1_p.267::
                        5091 .LDWlin267:
0000150a 0df0           5092 	mov	r13,ep
0000150c c2f2           5093 	shl	2,ep
0000150e ccf1           5094 	add	r12,ep
00001510 00f5           5095 	sld.w	0[ep],ep
00001512 0075           5096 	sld.w	0[ep],r14
00001514 c272           5097 	shl	2,r14
00001516 9a72           5098 	shr	26,r14
                        5099 --1394:   if( EnableFlag_u08 )
00001518 83571100       5100 	ld.bu	16[sp],r10
0000151c e051           5101 	cmp	zero,r10
0000151e b205*          5102 	be	.L3430
                        5103 --1395:     {
                        5104 --1396:       ChannelFlags_u32 |= ( uint32_t )ChannelMask_u08;
                        5105 --line1396
                        5106 ..lin.D.3A.5CRenesas_Electronics.5CD1x_RGL.5Crgl_ghs_D1Lx_obj_V1.2E2.2E0.5Cvlib.5Capp.5Cgfx_apps.5Csimple_draw_d1l2.5Ctarget.5Cd1lx_mango_ghs.5Cobj.5Cqlapbismv1_p.268::
                        5107 .LDWlin268:
00001520 0b71           5108 	or	r11,r14
00001522 b505*          5109 	br	.L3432
                        5110 .L3430:
                        5111 --1397:     }
                        5112 --1398:   else
                        5113 --1399:     {
                        5114 --1400:       ChannelFlags_u32 &= ( uint32_t )( ~ChannelMask_u08 );
                        5115 --line1400
                        5116 ..lin.D.3A.5CRenesas_Electronics.5CD1x_RGL.5Crgl_ghs_D1Lx_obj_V1.2E2.2E0.5Cvlib.5Capp.5Cgfx_apps.5Csimple_draw_d1l2.5Ctarget.5Cd1lx_mango_ghs.5Cobj.5Cqlapbismv1_p.269::
                        5117 .LDWlin269:

                                                                      Page 88
                                                              C:\Users\YINGAO~1\AppData\Local\Temp\gh_00008201.si
00001524 2b50           5118 	not	r11,r10
00001526 4a71           5119 	and	r10,r14
                        5120 .L3432:
                        5121 --1401:     }
                        5122 --1403:   rism_p[ UnitNumber_u08 ]->gctl.iere = ChannelFlags_u32;
00001528 0df0           5123 	mov	r13,ep
0000152a c2f2           5124 	shl	2,ep
0000152c ccf1           5125 	add	r12,ep
0000152e 00f5           5126 	sld.w	0[ep],ep
00001530 0055           5127 	sld.w	0[ep],r10
00001532 ee5790d8       5128 	bins	r14,24,6,r10
00001536 0155           5129 	sst.w	r10,0[ep]
                        5130 --1404:   rism_p[ UnitNumber_u08 ]->gctl.iedo = ( uint32_t )( GlobalMask_u08 & EnableFlag_u08 );
00001538 0df0           5131 	mov	r13,ep
0000153a c2f2           5132 	shl	2,ep
0000153c 83df1100       5133 	ld.bu	16[sp],r27
00001540 ccf1           5134 	add	r12,ep
00001542 00f5           5135 	sld.w	0[ep],ep
00001544 0055           5136 	sld.w	0[ep],r10
00001546 5dd9           5137 	and	r29,r27
00001548 fb579ce8       5138 	bins	r27,30,1,r10
0000154c 0155           5139 	sst.w	r10,0[ep]
                        5140 --1405:   rism_p[ UnitNumber_u08 ]->gctl.iead = ( uint32_t )( ZPDADMask_u08 & EnableFlag_u08 );
0000154e 0df0           5141 	mov	r13,ep
00001550 c2f2           5142 	shl	2,ep
00001552 83df1100       5143 	ld.bu	16[sp],r27
00001556 ccf1           5144 	add	r12,ep
00001558 00f5           5145 	sld.w	0[ep],ep
0000155a 3a06ffffff7f   5146 	mov	2147483647,r26
00001560 5cd9           5147 	and	r28,r27
00001562 dbde0100       5148 	andi	1,r27,r27
00001566 0055           5149 	sld.w	0[ep],r10
00001568 dfda           5150 	shl	31,r27
0000156a 5a51           5151 	and	r26,r10
0000156c 1b51           5152 	or	r27,r10
0000156e 0155           5153 	sst.w	r10,0[ep]
                        5154 --1407:   return( R_ISM_ERR_OK );
00001570 0152           5155 	mov	1,r10
                        5156 .L3425:
                        5157 --	    .ef
                        5158 .LDW011:
00001572 4006df30       5159 	dispose	0,{r26,r27,r28,r29},[lp]
                        5160 	.type	_R_ISM_SetInterrupt,@function
                        5161 	.size	_R_ISM_SetInterrupt,.-_R_ISM_SetInterrupt
                        5162 	.align	2
                        5163 .LDW111:
                        5164 --_ChannelFlags_u32	r14	local
                        5165 
                        5166 --_UnitNumber_u08	r13	param
                        5167 --_ChannelMask_u08	r11	param
                        5168 --_GlobalMask_u08	r29	param
                        5169 --_ZPDADMask_u08	r28	param
                        5170 --_EnableFlag_u08	16[sp]	param
                        5171 
                        5172 	.data
                        5173 	.text
                        5174 
                        5175 --1408: }
                        5176 
                        5177 --1410: /*=============================================================================
                        5178 --1411:   FunctionName: R_ISM_GetInterrupt

                                                                      Page 89
                                                              C:\Users\YINGAO~1\AppData\Local\Temp\gh_00008201.si
                        5179 --1412:   IN  : UnitNumber: Selected Macro
                        5180 --1413:         ChannelNumber: Selected Channel
                        5181 --1414:   OUT : Error Flag
                        5182 --1415:   Description :
                        5183 --1416:   Get the global and channel specific interrupt enable flags
                        5184 --1417:   =============================================================================*/
                        5185 --1418: uint32_t R_ISM_GetInterrupt( uint8_t  UnitNumber_u08,
                        5186 	.align	2
                        5187 	.align	2
                        5188 	.global	_R_ISM_GetInterrupt
                        5189 _R_ISM_GetInterrupt:
00001576 80074100       5190 	prepare	{r29},0
0000157a 210600000000*  5191 	mov	_rism_p,r1
00001580 c676ff00       5192 	andi	255,r6,r14
00001584 0758           5193 	mov	r7,r11
00001586 0850           5194 	mov	r8,r10
00001588 09e8           5195 	mov	r9,r29
0000158a 0160           5196 	mov	r1,r12
                        5197 --	    .bf
                        5198 .LDW211:
                        5199 --1419:                            uint8_t* ChannelFlags_pu08,
                        5200 --1420:                            uint8_t* GlobalEnableFlag_pu08,
                        5201 --1421:                            uint8_t* ZPDADEnableFlag_pu08 )
                        5202 --1422: {
                        5203 --1423:   if( UnitNumber_u08 >= R_ISM_MACRO_NUM ) return( R_ISM_ERR_NG );
0000158c 6172           5204 	cmp	1,r14
0000158e b105*          5205 	bl	.L3506
                        5206 --line1423
                        5207 ..lin.D.3A.5CRenesas_Electronics.5CD1x_RGL.5Crgl_ghs_D1Lx_obj_V1.2E2.2E0.5Cvlib.5Capp.5Cgfx_apps.5Csimple_draw_d1l2.5Ctarget.5Cd1lx_mango_ghs.5Cobj.5Cqlapbismv1_p.270::
                        5208 .LDWlin270:
00001590 006a           5209 	mov	0,r13
00001592 c51d*          5210 	br	.L3504
                        5211 .L3506:
                        5212 --1425:   *ChannelFlags_pu08     = ( uint8_t )rism_p[ UnitNumber_u08 ]->gctl.iere;
                        5213 --line1425
                        5214 ..lin.D.3A.5CRenesas_Electronics.5CD1x_RGL.5Crgl_ghs_D1Lx_obj_V1.2E2.2E0.5Cvlib.5Capp.5Cgfx_apps.5Csimple_draw_d1l2.5Ctarget.5Cd1lx_mango_ghs.5Cobj.5Cqlapbismv1_p.271::
                        5215 .LDWlin271:
00001594 0ef0           5216 	mov	r14,ep
00001596 c2f2           5217 	shl	2,ep
00001598 ccf1           5218 	add	r12,ep
0000159a 00f5           5219 	sld.w	0[ep],ep
0000159c 006d           5220 	sld.w	0[ep],r13
0000159e c26a           5221 	shl	2,r13
000015a0 9a6a           5222 	shr	26,r13
000015a2 4b6f0000       5223 	st.b	r13,0[r11]
                        5224 --1426:   *GlobalEnableFlag_pu08 = ( uint8_t )rism_p[ UnitNumber_u08 ]->gctl.iedo;
000015a6 0ef0           5225 	mov	r14,ep
000015a8 c2f2           5226 	shl	2,ep
000015aa ccf1           5227 	add	r12,ep
000015ac 00f5           5228 	sld.w	0[ep],ep
000015ae 006d           5229 	sld.w	0[ep],r13
000015b0 c16a           5230 	shl	1,r13
000015b2 9f6a           5231 	shr	31,r13
000015b4 4a6f0000       5232 	st.b	r13,0[r10]
                        5233 --1427:   *ZPDADEnableFlag_pu08  = ( uint8_t )rism_p[ UnitNumber_u08 ]->gctl.iead;
000015b8 0ef0           5234 	mov	r14,ep
000015ba c2f2           5235 	shl	2,ep
000015bc ccf1           5236 	add	r12,ep
000015be 00f5           5237 	sld.w	0[ep],ep
000015c0 006d           5238 	sld.w	0[ep],r13
000015c2 9f6a           5239 	shr	31,r13

                                                                      Page 90
                                                              C:\Users\YINGAO~1\AppData\Local\Temp\gh_00008201.si
000015c4 5d6f0000       5240 	st.b	r13,0[r29]
                        5241 --1429:   return( R_ISM_ERR_OK );
000015c8 016a           5242 	mov	1,r13
                        5243 .L3504:
                        5244 --	    .ef
                        5245 .LDW311:
000015ca 0d50           5246 	mov	r13,r10
000015cc 40065f00       5247 	dispose	0,{r29},[lp]
                        5248 	.type	_R_ISM_GetInterrupt,@function
                        5249 	.size	_R_ISM_GetInterrupt,.-_R_ISM_GetInterrupt
                        5250 	.align	2
                        5251 .LDW411:
                        5252 
                        5253 --_UnitNumber_u08	r14	param
                        5254 --_ChannelFlags_pu08	r11	param
                        5255 --_GlobalEnableFlag_pu08	r10	param
                        5256 --_ZPDADEnableFlag_pu08	r29	param
                        5257 
                        5258 	.data
                        5259 	.text
                        5260 
                        5261 --1430: }
                        5262 
                        5263 --1432: /*=============================================================================
                        5264 --1433:   FunctionName: R_ISM_GetCMEnable
                        5265 --1434:   IN  : UnitNumber: Selected Macro
                        5266 --1435:         ChannelNumber: Selected Channel
                        5267 --1436:   OUT : Error Flag
                        5268 --1437:   Description :
                        5269 --1438:   Get the global and channel specific enable flags
                        5270 --1439:   =============================================================================*/
                        5271 --1440: uint32_t R_ISM_GetCMEnable( uint8_t  UnitNumber_u08,
                        5272 	.align	2
                        5273 	.align	2
                        5274 	.global	_R_ISM_GetCMEnable
                        5275 _R_ISM_GetCMEnable:
000015d0 210600000000*  5276 	mov	_rism_p,r1
000015d6 c66eff00       5277 	andi	255,r6,r13
000015da 0758           5278 	mov	r7,r11
000015dc 0850           5279 	mov	r8,r10
000015de 0160           5280 	mov	r1,r12
                        5281 --	    .bf
                        5282 .LDW511:
                        5283 --1441:                           uint8_t* ChannelFlags_pu08,
                        5284 --1442:                           uint8_t* GlobalEnableFlag_pu08 )
                        5285 --1443: {
                        5286 --1444:   if( UnitNumber_u08 >= R_ISM_MACRO_NUM ) return( R_ISM_ERR_NG );
000015e0 616a           5287 	cmp	1,r13
000015e2 b105*          5288 	bl	.L3566
                        5289 --line1444
                        5290 ..lin.D.3A.5CRenesas_Electronics.5CD1x_RGL.5Crgl_ghs_D1Lx_obj_V1.2E2.2E0.5Cvlib.5Capp.5Cgfx_apps.5Csimple_draw_d1l2.5Ctarget.5Cd1lx_mango_ghs.5Cobj.5Cqlapbismv1_p.272::
                        5291 .LDWlin272:
000015e4 0072           5292 	mov	0,r14
000015e6 c515*          5293 	br	.L3564
                        5294 .L3566:
                        5295 --1446:   *ChannelFlags_pu08     = ( uint8_t )rism_p[ UnitNumber_u08 ]->gstr.cen;
                        5296 --line1446
                        5297 ..lin.D.3A.5CRenesas_Electronics.5CD1x_RGL.5Crgl_ghs_D1Lx_obj_V1.2E2.2E0.5Cvlib.5Capp.5Cgfx_apps.5Csimple_draw_d1l2.5Ctarget.5Cd1lx_mango_ghs.5Cobj.5Cqlapbismv1_p.273::
                        5298 .LDWlin273:
000015e8 0df0           5299 	mov	r13,ep
000015ea c2f2           5300 	shl	2,ep

                                                                      Page 91
                                                              C:\Users\YINGAO~1\AppData\Local\Temp\gh_00008201.si
000015ec ccf1           5301 	add	r12,ep
000015ee 00f5           5302 	sld.w	0[ep],ep
000015f0 0275           5303 	sld.w	4[ep],r14
000015f2 ce763f00       5304 	andi	63,r14,r14
000015f6 4b770000       5305 	st.b	r14,0[r11]
                        5306 --1447:   *GlobalEnableFlag_pu08 = ( uint8_t )rism_p[ UnitNumber_u08 ]->gctl.gce;
000015fa 0df0           5307 	mov	r13,ep
000015fc c2f2           5308 	shl	2,ep
000015fe ccf1           5309 	add	r12,ep
00001600 00f5           5310 	sld.w	0[ep],ep
00001602 0075           5311 	sld.w	0[ep],r14
00001604 d772           5312 	shl	23,r14
00001606 9f72           5313 	shr	31,r14
00001608 4a770000       5314 	st.b	r14,0[r10]
                        5315 --1449:   return( R_ISM_ERR_OK );
0000160c 0172           5316 	mov	1,r14
                        5317 .L3564:
                        5318 --	    .ef
                        5319 .LDW611:
0000160e 0e50           5320 	mov	r14,r10
00001610 7f00           5321 	jmp	[lp]
                        5322 	.type	_R_ISM_GetCMEnable,@function
                        5323 	.size	_R_ISM_GetCMEnable,.-_R_ISM_GetCMEnable
                        5324 	.align	2
                        5325 .LDW711:
                        5326 
                        5327 --_UnitNumber_u08	r13	param
                        5328 --_ChannelFlags_pu08	r11	param
                        5329 --_GlobalEnableFlag_pu08	r10	param
                        5330 
                        5331 	.data
                        5332 	.text
                        5333 
                        5334 --1450: }
                        5335 
                        5336 --1452: /*=============================================================================
                        5337 --1453:   FunctionName: R_ISM_GetCMBusy
                        5338 --1454:   IN  : UnitNumber: Selected Macro
                        5339 --1455:         ChannelNumber: Selected Channel
                        5340 --1456:   OUT : Error Flag
                        5341 --1457:   Description :
                        5342 --1458:   Get the CM busy flag
                        5343 --1459:   =============================================================================*/
                        5344 --1460: uint32_t R_ISM_GetCMBusy( uint8_t  UnitNumber_u08,
                        5345 	.align	2
                        5346 	.align	2
                        5347 	.global	_R_ISM_GetCMBusy
                        5348 _R_ISM_GetCMBusy:
00001612 c676ff00       5349 	andi	255,r6,r14
00001616 0768           5350 	mov	r7,r13
00001618 210600000000*  5351 	mov	_rism_p,r1
                        5352 --	    .bf
                        5353 .LDW811:
                        5354 --1461:                         uint8_t* CMBusyFlag_pu08 )
                        5355 --1462: {
                        5356 --1463:   if( UnitNumber_u08 >= R_ISM_MACRO_NUM ) return( R_ISM_ERR_NG );
0000161e 6172           5357 	cmp	1,r14
00001620 b105*          5358 	bl	.L3609
                        5359 --line1463
                        5360 ..lin.D.3A.5CRenesas_Electronics.5CD1x_RGL.5Crgl_ghs_D1Lx_obj_V1.2E2.2E0.5Cvlib.5Capp.5Cgfx_apps.5Csimple_draw_d1l2.5Ctarget.5Cd1lx_mango_ghs.5Cobj.5Cqlapbismv1_p.274::
                        5361 .LDWlin274:

                                                                      Page 92
                                                              C:\Users\YINGAO~1\AppData\Local\Temp\gh_00008201.si
00001622 0052           5362 	mov	0,r10
00001624 e50d*          5363 	br	.L3607
                        5364 .L3609:
                        5365 --1465:   *CMBusyFlag_pu08 = ( uint8_t )rism_p[ UnitNumber_u08 ]->gstr.gcb;
                        5366 --line1465
                        5367 ..lin.D.3A.5CRenesas_Electronics.5CD1x_RGL.5Crgl_ghs_D1Lx_obj_V1.2E2.2E0.5Cvlib.5Capp.5Cgfx_apps.5Csimple_draw_d1l2.5Ctarget.5Cd1lx_mango_ghs.5Cobj.5Cqlapbismv1_p.275::
                        5368 .LDWlin275:
00001626 0ef0           5369 	mov	r14,ep
00001628 c2f2           5370 	shl	2,ep
0000162a 210600000000*  5371 	mov	_rism_p,r1
00001630 c1f1           5372 	add	r1,ep
00001632 00f5           5373 	sld.w	0[ep],ep
00001634 020d           5374 	sld.w	4[ep],r1
00001636 d80a           5375 	shl	24,r1
00001638 9f0a           5376 	shr	31,r1
0000163a 4d0f0000       5377 	st.b	r1,0[r13]
                        5378 --1467:   return( R_ISM_ERR_OK );
0000163e 0152           5379 	mov	1,r10
                        5380 .L3607:
                        5381 --	    .ef
                        5382 .LDW911:
00001640 7f00           5383 	jmp	[lp]
                        5384 	.type	_R_ISM_GetCMBusy,@function
                        5385 	.size	_R_ISM_GetCMBusy,.-_R_ISM_GetCMBusy
                        5386 	.align	2
                        5387 .LDW021:
                        5388 
                        5389 --_UnitNumber_u08	r14	param
                        5390 --_CMBusyFlag_pu08	r13	param
                        5391 
                        5392 	.data
                        5393 	.text
                        5394 
                        5395 --1468: }
                        5396 
                        5397 --1470: /*=============================================================================
                        5398 --1471:   FunctionName: R_ISM_SetCMVariables
                        5399 --1472:   IN  : UnitNumber: Selected Macro
                        5400 --1473:         ChannelNumber: Selected Channel
                        5401 --1474:   OUT : Error Flag
                        5402 --1475:   Description :
                        5403 --1476:   Set Variables of a channel under CM
                        5404 --1477:   =============================================================================*/
                        5405 --1478: uint32_t R_ISM_SetCMVariables( uint8_t               UnitNumber_u08,
                        5406 	.align	2
                        5407 	.align	2
                        5408 	.global	_R_ISM_SetCMVariables
                        5409 _R_ISM_SetCMVariables:
00001642 8007c110       5410 	prepare	{r27,r28,r29},0
00001646 210600000000*  5411 	mov	_rism_p,r1
0000164c c676ff00       5412 	andi	255,r6,r14
00001650 c76eff00       5413 	andi	255,r7,r13
00001654 c8eeff00       5414 	andi	255,r8,r29
00001658 09f0           5415 	mov	r9,ep
0000165a 0160           5416 	mov	r1,r12
                        5417 --	    .bf
                        5418 .LDW121:
                        5419 --1479:                              uint8_t               ChannelNumber_u08,
                        5420 --1480:                              uint8_t               ResetAll_bit,
                        5421 --1481:                              struct rism_var_t *CMVars_p )
                        5422 --1482: {

                                                                      Page 93
                                                              C:\Users\YINGAO~1\AppData\Local\Temp\gh_00008201.si
                        5423 --1483:   uint32_t CurrentTargetPos_u32;
                        5424 --1485:   if( UnitNumber_u08 >= R_ISM_MACRO_NUM ) return( R_ISM_ERR_NG );
0000165c 6172           5425 	cmp	1,r14
0000165e c105*          5426 	bl	.L3652
                        5427 --line1485
                        5428 ..lin.D.3A.5CRenesas_Electronics.5CD1x_RGL.5Crgl_ghs_D1Lx_obj_V1.2E2.2E0.5Cvlib.5Capp.5Cgfx_apps.5Csimple_draw_d1l2.5Ctarget.5Cd1lx_mango_ghs.5Cobj.5Cqlapbismv1_p.276::
                        5429 .LDWlin276:
00001660 0052           5430 	mov	0,r10
00001662 80070801*      5431 	br	.L3650
                        5432 .L3652:
                        5433 --1486:   if( ChannelNumber_u08 >= R_ISM_CHANNELS ) return( R_ISM_ERR_NG );
                        5434 --line1486
                        5435 ..lin.D.3A.5CRenesas_Electronics.5CD1x_RGL.5Crgl_ghs_D1Lx_obj_V1.2E2.2E0.5Cvlib.5Capp.5Cgfx_apps.5Csimple_draw_d1l2.5Ctarget.5Cd1lx_mango_ghs.5Cobj.5Cqlapbismv1_p.277::
                        5436 .LDWlin277:
00001666 666a           5437 	cmp	6,r13
00001668 b105*          5438 	bl	.L3655
                        5439 --line1486
                        5440 ..lin.D.3A.5CRenesas_Electronics.5CD1x_RGL.5Crgl_ghs_D1Lx_obj_V1.2E2.2E0.5Cvlib.5Capp.5Cgfx_apps.5Csimple_draw_d1l2.5Ctarget.5Cd1lx_mango_ghs.5Cobj.5Cqlapbismv1_p.278::
                        5441 .LDWlin278:
0000166a 0052           5442 	mov	0,r10
0000166c f57d*          5443 	br	.L3650
                        5444 .L3655:
                        5445 --1488:   /* Variable changes are only allowed, when CEN is cleared for that channel */
                        5446 --1490:   if( ( ( ( rism_p[ UnitNumber_u08 ]->gstr.cen ) >> ChannelNumber_u08 ) & 0x01 ) &&
                        5447 --line1490
                        5448 ..lin.D.3A.5CRenesas_Electronics.5CD1x_RGL.5Crgl_ghs_D1Lx_obj_V1.2E2.2E0.5Cvlib.5Capp.5Cgfx_apps.5Csimple_draw_d1l2.5Ctarget.5Cd1lx_mango_ghs.5Cobj.5Cqlapbismv1_p.279::
                        5449 .LDWlin279:
0000166e 0e58           5450 	mov	r14,r11
00001670 c25a           5451 	shl	2,r11
00001672 cc59           5452 	add	r12,r11
00001674 2b5f0100       5453 	ld.w	0[r11],r11
00001678 2b5f0500       5454 	ld.w	4[r11],r11
0000167c cb5e3f00       5455 	andi	63,r11,r11
00001680 ed5fa258       5456 	sar	r13,r11,r11
00001684 815a           5457 	shr	1,r11
00001686 c90d*          5458 	bnl	.L3658
00001688 0e58           5459 	mov	r14,r11
0000168a c25a           5460 	shl	2,r11
0000168c cc59           5461 	add	r12,r11
0000168e 2b5f0100       5462 	ld.w	0[r11],r11
00001692 2b5f0100       5463 	ld.w	0[r11],r11
00001696 895a           5464 	shr	9,r11
00001698 b905*          5465 	bnl	.L3658
                        5466 --1491:       ( rism_p[ UnitNumber_u08 ]->gctl.gce ) )
                        5467 --1492:     return( R_ISM_ERR_NG );
                        5468 --line1492
                        5469 ..lin.D.3A.5CRenesas_Electronics.5CD1x_RGL.5Crgl_ghs_D1Lx_obj_V1.2E2.2E0.5Cvlib.5Capp.5Cgfx_apps.5Csimple_draw_d1l2.5Ctarget.5Cd1lx_mango_ghs.5Cobj.5Cqlapbismv1_p.280::
                        5470 .LDWlin280:
0000169a 0052           5471 	mov	0,r10
0000169c f565*          5472 	br	.L3650
                        5473 .L3658:
                        5474 --1494:   if( ResetAll_bit )  /* Clear all variables and set target equal to current */
                        5475 --line1494
                        5476 ..lin.D.3A.5CRenesas_Electronics.5CD1x_RGL.5Crgl_ghs_D1Lx_obj_V1.2E2.2E0.5Cvlib.5Capp.5Cgfx_apps.5Csimple_draw_d1l2.5Ctarget.5Cd1lx_mango_ghs.5Cobj.5Cqlapbismv1_p.281::
                        5477 .LDWlin281:
0000169e e0e9           5478 	cmp	zero,r29
000016a0 920d*          5479 	be	.L3662
                        5480 --1495:     {
                        5481 --1496:    //   CurrentTargetPos_u32 = rism_p[ UnitNumber_u08 ]->set.ch[ ChannelNumber_u08 ]
                        5482 --1497:    //                                                        .target;
                        5483 --1498: 	  CurrentTargetPos_u32 = 0;

                                                                      Page 94
                                                              C:\Users\YINGAO~1\AppData\Local\Temp\gh_00008201.si
                        5484 --line1498
                        5485 ..lin.D.3A.5CRenesas_Electronics.5CD1x_RGL.5Crgl_ghs_D1Lx_obj_V1.2E2.2E0.5Cvlib.5Capp.5Cgfx_apps.5Csimple_draw_d1l2.5Ctarget.5Cd1lx_mango_ghs.5Cobj.5Cqlapbismv1_p.282::
                        5486 .LDWlin282:
000016a2 005a           5487 	mov	0,r11
                        5488 --1499:       CMVars_p->acceleration  = 0L;
000016a4 0105           5489 	sst.w	zero,0[ep]
                        5490 --1500:       CMVars_p->newspeed      = 0L;
000016a6 0305           5491 	sst.w	zero,4[ep]
                        5492 --1501:       CMVars_p->oldspeed      = 0L;
000016a8 0505           5493 	sst.w	zero,8[ep]
                        5494 --1502:       CMVars_p->temporary     = 0L;
000016aa 0705           5495 	sst.w	zero,12[ep]
                        5496 --1503:       CMVars_p->position      = CurrentTargetPos_u32;	  
000016ac 095d           5497 	sst.w	r11,16[ep]
                        5498 --1504:       CMVars_p->virtualpos    = CurrentTargetPos_u32;
000016ae 0b5d           5499 	sst.w	r11,20[ep]
                        5500 --1505:       CMVars_p->dirspeedflags = 0L;
000016b0 0d05           5501 	sst.w	zero,24[ep]
                        5502 .L3662:
                        5503 --1506:     }
                        5504 --1508:   rism_p[ UnitNumber_u08 ]->var[ ChannelNumber_u08 ].acceleration =
000016b2 0e50           5505 	mov	r14,r10
000016b4 c252           5506 	shl	2,r10
000016b6 ede61c00       5507 	mulhi	28,r13,r28
000016ba cc51           5508 	add	r12,r10
000016bc 2a570100       5509 	ld.w	0[r10],r10
000016c0 0a56b801       5510 	addi	440,r10,r10
000016c4 dc51           5511 	add	r28,r10
000016c6 00e5           5512 	sld.w	0[ep],r28
000016c8 6ae70100       5513 	st.w	r28,0[r10]
                        5514 --1509:                                             CMVars_p->acceleration;
                        5515 --1510:   rism_p[ UnitNumber_u08 ]->var[ ChannelNumber_u08 ].newspeed =
000016cc 0e50           5516 	mov	r14,r10
000016ce c252           5517 	shl	2,r10
000016d0 ede61c00       5518 	mulhi	28,r13,r28
000016d4 cc51           5519 	add	r12,r10
000016d6 2a570100       5520 	ld.w	0[r10],r10
000016da 0a56b801       5521 	addi	440,r10,r10
000016de dc51           5522 	add	r28,r10
000016e0 02e5           5523 	sld.w	4[ep],r28
000016e2 6ae70500       5524 	st.w	r28,4[r10]
                        5525 --1511:                                             CMVars_p->newspeed;
                        5526 --1512:   rism_p[ UnitNumber_u08 ]->var[ ChannelNumber_u08 ].oldspeed =
000016e6 0e50           5527 	mov	r14,r10
000016e8 c252           5528 	shl	2,r10
000016ea ede61c00       5529 	mulhi	28,r13,r28
000016ee cc51           5530 	add	r12,r10
000016f0 2a570100       5531 	ld.w	0[r10],r10
000016f4 0a56b801       5532 	addi	440,r10,r10
000016f8 dc51           5533 	add	r28,r10
000016fa 04e5           5534 	sld.w	8[ep],r28
000016fc 6ae70900       5535 	st.w	r28,8[r10]
                        5536 --1513:                                             CMVars_p->oldspeed;
                        5537 --1514:   rism_p[ UnitNumber_u08 ]->var[ ChannelNumber_u08 ].temporary =
00001700 0e50           5538 	mov	r14,r10
00001702 c252           5539 	shl	2,r10
00001704 ede61c00       5540 	mulhi	28,r13,r28
00001708 cc51           5541 	add	r12,r10
0000170a 2a570100       5542 	ld.w	0[r10],r10
0000170e 0a56b801       5543 	addi	440,r10,r10
00001712 dc51           5544 	add	r28,r10

                                                                      Page 95
                                                              C:\Users\YINGAO~1\AppData\Local\Temp\gh_00008201.si
00001714 06e5           5545 	sld.w	12[ep],r28
00001716 6ae70d00       5546 	st.w	r28,12[r10]
                        5547 --1515:                                             CMVars_p->temporary;
                        5548 --1516:   rism_p[ UnitNumber_u08 ]->var[ ChannelNumber_u08 ].position = 
0000171a 0e50           5549 	mov	r14,r10
0000171c c252           5550 	shl	2,r10
0000171e ede61c00       5551 	mulhi	28,r13,r28
00001722 cc51           5552 	add	r12,r10
00001724 2a570100       5553 	ld.w	0[r10],r10
00001728 0a56b801       5554 	addi	440,r10,r10
0000172c dc51           5555 	add	r28,r10
0000172e 08e5           5556 	sld.w	16[ep],r28
00001730 6ae71100       5557 	st.w	r28,16[r10]
                        5558 --1517:                                             CMVars_p->position;
                        5559 --1518:   rism_p[ UnitNumber_u08 ]->var[ ChannelNumber_u08 ].virtualpos = 
00001734 0e50           5560 	mov	r14,r10
00001736 c252           5561 	shl	2,r10
00001738 ede61c00       5562 	mulhi	28,r13,r28
0000173c cc51           5563 	add	r12,r10
0000173e 2a570100       5564 	ld.w	0[r10],r10
00001742 0a56b801       5565 	addi	440,r10,r10
00001746 dc51           5566 	add	r28,r10
00001748 0ae5           5567 	sld.w	20[ep],r28
0000174a 6ae71500       5568 	st.w	r28,20[r10]
                        5569 --1519:                                            CMVars_p->virtualpos;
                        5570 --1520:   rism_p[ UnitNumber_u08 ]->var[ ChannelNumber_u08 ].dirspeedflags =
0000174e 0e50           5571 	mov	r14,r10
00001750 c252           5572 	shl	2,r10
00001752 ede61c00       5573 	mulhi	28,r13,r28
00001756 cc51           5574 	add	r12,r10
00001758 2a570100       5575 	ld.w	0[r10],r10
0000175c 0a56b801       5576 	addi	440,r10,r10
00001760 dc51           5577 	add	r28,r10
00001762 0ce5           5578 	sld.w	24[ep],r28
00001764 6ae71900       5579 	st.w	r28,24[r10]
                        5580 --1521:                                             CMVars_p->dirspeedflags;
                        5581 --1523:   return( R_ISM_ERR_OK );
00001768 0152           5582 	mov	1,r10
                        5583 .L3650:
                        5584 --	    .ef
                        5585 .LDW221:
0000176a 4006df10       5586 	dispose	0,{r27,r28,r29},[lp]
                        5587 	.type	_R_ISM_SetCMVariables,@function
                        5588 	.size	_R_ISM_SetCMVariables,.-_R_ISM_SetCMVariables
                        5589 	.align	2
                        5590 .LDW321:
                        5591 --_CurrentTargetPos_u32	r11	local
                        5592 
                        5593 --_UnitNumber_u08	r14	param
                        5594 --_ChannelNumber_u08	r13	param
                        5595 --_ResetAll_bit	r29	param
                        5596 --_CMVars_p	ep	param
                        5597 
                        5598 	.data
                        5599 	.text
                        5600 
                        5601 --1524: }
                        5602 
                        5603 --1526: /*=============================================================================
                        5604 --1527:   FunctionName: R_ISM_GetCMVariables
                        5605 --1528:   IN  : UnitNumber: Selected Macro

                                                                      Page 96
                                                              C:\Users\YINGAO~1\AppData\Local\Temp\gh_00008201.si
                        5606 --1529:         ChannelNumber: Selected Channel
                        5607 --1530:   OUT : Error Flag
                        5608 --1531:   Description :
                        5609 --1532:   Get Variables of a channel under CM
                        5610 --1533:   =============================================================================*/
                        5611 --1534: uint32_t R_ISM_GetCMVariables( uint8_t               UnitNumber_u08,
                        5612 	.align	2
                        5613 	.align	2
                        5614 	.global	_R_ISM_GetCMVariables
                        5615 _R_ISM_GetCMVariables:
0000176e 210600000000*  5616 	mov	_rism_p,r1
00001774 c676ff00       5617 	andi	255,r6,r14
00001778 c76eff00       5618 	andi	255,r7,r13
0000177c 0860           5619 	mov	r8,r12
0000177e 0158           5620 	mov	r1,r11
                        5621 --	    .bf
                        5622 .LDW421:
                        5623 --1535:                              uint8_t               ChannelNumber_u08,
                        5624 --1536:                              struct rism_var_t *CMVars_p )
                        5625 --1537: {
                        5626 --1538:   if( UnitNumber_u08 >= R_ISM_MACRO_NUM ) return( R_ISM_ERR_NG );
00001780 6172           5627 	cmp	1,r14
00001782 b105*          5628 	bl	.L3800
                        5629 --line1538
                        5630 ..lin.D.3A.5CRenesas_Electronics.5CD1x_RGL.5Crgl_ghs_D1Lx_obj_V1.2E2.2E0.5Cvlib.5Capp.5Cgfx_apps.5Csimple_draw_d1l2.5Ctarget.5Cd1lx_mango_ghs.5Cobj.5Cqlapbismv1_p.283::
                        5631 .LDWlin283:
00001784 0052           5632 	mov	0,r10
00001786 a55d*          5633 	br	.L3798
                        5634 .L3800:
                        5635 --1539:   if( ChannelNumber_u08 >= R_ISM_CHANNELS ) return( R_ISM_ERR_NG );
                        5636 --line1539
                        5637 ..lin.D.3A.5CRenesas_Electronics.5CD1x_RGL.5Crgl_ghs_D1Lx_obj_V1.2E2.2E0.5Cvlib.5Capp.5Cgfx_apps.5Csimple_draw_d1l2.5Ctarget.5Cd1lx_mango_ghs.5Cobj.5Cqlapbismv1_p.284::
                        5638 .LDWlin284:
00001788 666a           5639 	cmp	6,r13
0000178a b105*          5640 	bl	.L3803
                        5641 --line1539
                        5642 ..lin.D.3A.5CRenesas_Electronics.5CD1x_RGL.5Crgl_ghs_D1Lx_obj_V1.2E2.2E0.5Cvlib.5Capp.5Cgfx_apps.5Csimple_draw_d1l2.5Ctarget.5Cd1lx_mango_ghs.5Cobj.5Cqlapbismv1_p.285::
                        5643 .LDWlin285:
0000178c 0052           5644 	mov	0,r10
0000178e e555*          5645 	br	.L3798
                        5646 .L3803:
                        5647 --1541:   CMVars_p->acceleration  = rism_p[ UnitNumber_u08 ]->var[ ChannelNumber_u08 ].acceleration;
                        5648 --line1541
                        5649 ..lin.D.3A.5CRenesas_Electronics.5CD1x_RGL.5Crgl_ghs_D1Lx_obj_V1.2E2.2E0.5Cvlib.5Capp.5Cgfx_apps.5Csimple_draw_d1l2.5Ctarget.5Cd1lx_mango_ghs.5Cobj.5Cqlapbismv1_p.286::
                        5650 .LDWlin286:
00001790 0ef0           5651 	mov	r14,ep
00001792 c2f2           5652 	shl	2,ep
00001794 cbf1           5653 	add	r11,ep
00001796 0055           5654 	sld.w	0[ep],r10
00001798 edf61c00       5655 	mulhi	28,r13,ep
0000179c 0a56b801       5656 	addi	440,r10,r10
000017a0 caf1           5657 	add	r10,ep
000017a2 0055           5658 	sld.w	0[ep],r10
000017a4 6c570100       5659 	st.w	r10,0[r12]
                        5660 --1542:   CMVars_p->newspeed      = rism_p[ UnitNumber_u08 ]->var[ ChannelNumber_u08 ].newspeed;
000017a8 0ef0           5661 	mov	r14,ep
000017aa c2f2           5662 	shl	2,ep
000017ac cbf1           5663 	add	r11,ep
000017ae 0055           5664 	sld.w	0[ep],r10
000017b0 edf61c00       5665 	mulhi	28,r13,ep
000017b4 0a56b801       5666 	addi	440,r10,r10

                                                                      Page 97
                                                              C:\Users\YINGAO~1\AppData\Local\Temp\gh_00008201.si
000017b8 caf1           5667 	add	r10,ep
000017ba 0255           5668 	sld.w	4[ep],r10
000017bc 6c570500       5669 	st.w	r10,4[r12]
                        5670 --1543:   CMVars_p->oldspeed      = rism_p[ UnitNumber_u08 ]->var[ ChannelNumber_u08 ].oldspeed;
000017c0 0ef0           5671 	mov	r14,ep
000017c2 c2f2           5672 	shl	2,ep
000017c4 cbf1           5673 	add	r11,ep
000017c6 0055           5674 	sld.w	0[ep],r10
000017c8 edf61c00       5675 	mulhi	28,r13,ep
000017cc 0a56b801       5676 	addi	440,r10,r10
000017d0 caf1           5677 	add	r10,ep
000017d2 0455           5678 	sld.w	8[ep],r10
000017d4 6c570900       5679 	st.w	r10,8[r12]
                        5680 --1544:   CMVars_p->temporary     = rism_p[ UnitNumber_u08 ]->var[ ChannelNumber_u08 ].temporary;
000017d8 0ef0           5681 	mov	r14,ep
000017da c2f2           5682 	shl	2,ep
000017dc cbf1           5683 	add	r11,ep
000017de 0055           5684 	sld.w	0[ep],r10
000017e0 edf61c00       5685 	mulhi	28,r13,ep
000017e4 0a56b801       5686 	addi	440,r10,r10
000017e8 caf1           5687 	add	r10,ep
000017ea 0655           5688 	sld.w	12[ep],r10
000017ec 6c570d00       5689 	st.w	r10,12[r12]
                        5690 --1545:   CMVars_p->position      = rism_p[ UnitNumber_u08 ]->var[ ChannelNumber_u08 ].position;
000017f0 0ef0           5691 	mov	r14,ep
000017f2 c2f2           5692 	shl	2,ep
000017f4 cbf1           5693 	add	r11,ep
000017f6 0055           5694 	sld.w	0[ep],r10
000017f8 edf61c00       5695 	mulhi	28,r13,ep
000017fc 0a56b801       5696 	addi	440,r10,r10
00001800 caf1           5697 	add	r10,ep
00001802 0855           5698 	sld.w	16[ep],r10
00001804 6c571100       5699 	st.w	r10,16[r12]
                        5700 --1546:   CMVars_p->virtualpos    = rism_p[ UnitNumber_u08 ]->var[ ChannelNumber_u08 ].virtualpos;
00001808 0ef0           5701 	mov	r14,ep
0000180a c2f2           5702 	shl	2,ep
0000180c cbf1           5703 	add	r11,ep
0000180e 0055           5704 	sld.w	0[ep],r10
00001810 edf61c00       5705 	mulhi	28,r13,ep
00001814 0a56b801       5706 	addi	440,r10,r10
00001818 caf1           5707 	add	r10,ep
0000181a 0a55           5708 	sld.w	20[ep],r10
0000181c 6c571500       5709 	st.w	r10,20[r12]
                        5710 --1547:   CMVars_p->dirspeedflags = rism_p[ UnitNumber_u08 ]->var[ ChannelNumber_u08 ].dirspeedflags;
00001820 0ef0           5711 	mov	r14,ep
00001822 c2f2           5712 	shl	2,ep
00001824 cbf1           5713 	add	r11,ep
00001826 0055           5714 	sld.w	0[ep],r10
00001828 edf61c00       5715 	mulhi	28,r13,ep
0000182c 0a56b801       5716 	addi	440,r10,r10
00001830 caf1           5717 	add	r10,ep
00001832 0c55           5718 	sld.w	24[ep],r10
00001834 6c571900       5719 	st.w	r10,24[r12]
                        5720 --1549:   return( R_ISM_ERR_OK );
00001838 0152           5721 	mov	1,r10
                        5722 .L3798:
                        5723 --	    .ef
                        5724 .LDW521:
0000183a 7f00           5725 	jmp	[lp]
                        5726 	.type	_R_ISM_GetCMVariables,@function
                        5727 	.size	_R_ISM_GetCMVariables,.-_R_ISM_GetCMVariables

                                                                      Page 98
                                                              C:\Users\YINGAO~1\AppData\Local\Temp\gh_00008201.si
                        5728 	.align	2
                        5729 .LDW621:
                        5730 
                        5731 --_UnitNumber_u08	r14	param
                        5732 --_ChannelNumber_u08	r13	param
                        5733 --_CMVars_p	r12	param
                        5734 
                        5735 	.data
                        5736 	.text
                        5737 
                        5738 --1550: }
                        5739 
                        5740 --1552: /*=============================================================================
                        5741 --1553:   FunctionName: R_ISM_SetCMParameters
                        5742 --1554:   IN  : UnitNumber: Selected Macro
                        5743 --1555:         ChannelNumber: Selected Channel
                        5744 --1556:   OUT : Error Flag
                        5745 --1557:   Description :
                        5746 --1558:   Set Parameters of a channel under CM
                        5747 --1559:   =============================================================================*/
                        5748 --1560: uint32_t R_ISM_SetCMParameters( uint8_t                 UnitNumber_u08,
                        5749 	.align	2
                        5750 	.align	2
                        5751 	.global	_R_ISM_SetCMParameters
                        5752 _R_ISM_SetCMParameters:
0000183c 210600000000*  5753 	mov	_rism_p,r1
00001842 c676ff00       5754 	andi	255,r6,r14
00001846 c76eff00       5755 	andi	255,r7,r13
0000184a 0858           5756 	mov	r8,r11
0000184c 0160           5757 	mov	r1,r12
                        5758 --	    .bf
                        5759 .LDW721:
                        5760 --1561:                               uint8_t                 ChannelNumber_u08,
                        5761 --1562:                               struct r_ism_motor_t *ConfigSet_p )
                        5762 --1563: {
                        5763 --1564:   if( UnitNumber_u08 >= R_ISM_MACRO_NUM ) return( R_ISM_ERR_NG );
0000184e 6172           5764 	cmp	1,r14
00001850 c105*          5765 	bl	.L3884
                        5766 --line1564
                        5767 ..lin.D.3A.5CRenesas_Electronics.5CD1x_RGL.5Crgl_ghs_D1Lx_obj_V1.2E2.2E0.5Cvlib.5Capp.5Cgfx_apps.5Csimple_draw_d1l2.5Ctarget.5Cd1lx_mango_ghs.5Cobj.5Cqlapbismv1_p.287::
                        5768 .LDWlin287:
00001852 0052           5769 	mov	0,r10
00001854 80071001*      5770 	br	.L3882
                        5771 .L3884:
                        5772 --1565:   if( ChannelNumber_u08 >= R_ISM_CHANNELS ) return( R_ISM_ERR_NG );
                        5773 --line1565
                        5774 ..lin.D.3A.5CRenesas_Electronics.5CD1x_RGL.5Crgl_ghs_D1Lx_obj_V1.2E2.2E0.5Cvlib.5Capp.5Cgfx_apps.5Csimple_draw_d1l2.5Ctarget.5Cd1lx_mango_ghs.5Cobj.5Cqlapbismv1_p.288::
                        5775 .LDWlin288:
00001858 666a           5776 	cmp	6,r13
0000185a c105*          5777 	bl	.L3887
                        5778 --line1565
                        5779 ..lin.D.3A.5CRenesas_Electronics.5CD1x_RGL.5Crgl_ghs_D1Lx_obj_V1.2E2.2E0.5Cvlib.5Capp.5Cgfx_apps.5Csimple_draw_d1l2.5Ctarget.5Cd1lx_mango_ghs.5Cobj.5Cqlapbismv1_p.289::
                        5780 .LDWlin289:
0000185c 0052           5781 	mov	0,r10
0000185e 80070601*      5782 	br	.L3882
                        5783 .L3887:
                        5784 --1567:   /* Parameter changes are only allowed, when CEN is cleared for that channel */
                        5785 --1569:   if( ( ( ( rism_p[ UnitNumber_u08 ]->gstr.cen ) >> ChannelNumber_u08 ) & 0x01 ) &&
                        5786 --line1569
                        5787 ..lin.D.3A.5CRenesas_Electronics.5CD1x_RGL.5Crgl_ghs_D1Lx_obj_V1.2E2.2E0.5Cvlib.5Capp.5Cgfx_apps.5Csimple_draw_d1l2.5Ctarget.5Cd1lx_mango_ghs.5Cobj.5Cqlapbismv1_p.290::
                        5788 .LDWlin290:

                                                                      Page 99
                                                              C:\Users\YINGAO~1\AppData\Local\Temp\gh_00008201.si
00001862 0ef0           5789 	mov	r14,ep
00001864 c2f2           5790 	shl	2,ep
00001866 ccf1           5791 	add	r12,ep
00001868 00f5           5792 	sld.w	0[ep],ep
0000186a 0255           5793 	sld.w	4[ep],r10
0000186c ca563f00       5794 	andi	63,r10,r10
00001870 ed57a250       5795 	sar	r13,r10,r10
00001874 8152           5796 	shr	1,r10
00001876 a90d*          5797 	bnl	.L3890
00001878 0ef0           5798 	mov	r14,ep
0000187a c2f2           5799 	shl	2,ep
0000187c ccf1           5800 	add	r12,ep
0000187e 00f5           5801 	sld.w	0[ep],ep
00001880 0055           5802 	sld.w	0[ep],r10
00001882 8952           5803 	shr	9,r10
00001884 b905*          5804 	bnl	.L3890
                        5805 --1570:       ( rism_p[ UnitNumber_u08 ]->gctl.gce ) )
                        5806 --1571:     return( R_ISM_ERR_NG );
                        5807 --line1571
                        5808 ..lin.D.3A.5CRenesas_Electronics.5CD1x_RGL.5Crgl_ghs_D1Lx_obj_V1.2E2.2E0.5Cvlib.5Capp.5Cgfx_apps.5Csimple_draw_d1l2.5Ctarget.5Cd1lx_mango_ghs.5Cobj.5Cqlapbismv1_p.291::
                        5809 .LDWlin291:
00001886 0052           5810 	mov	0,r10
00001888 e56d*          5811 	br	.L3882
                        5812 .L3890:
                        5813 --1573:   rism_p[ UnitNumber_u08 ]->set.ch[ ChannelNumber_u08 ].pdf = ConfigSet_p->PDF;
                        5814 --line1573
                        5815 ..lin.D.3A.5CRenesas_Electronics.5CD1x_RGL.5Crgl_ghs_D1Lx_obj_V1.2E2.2E0.5Cvlib.5Capp.5Cgfx_apps.5Csimple_draw_d1l2.5Ctarget.5Cd1lx_mango_ghs.5Cobj.5Cqlapbismv1_p.292::
                        5816 .LDWlin292:
0000188a 0ef0           5817 	mov	r14,ep
0000188c c2f2           5818 	shl	2,ep
0000188e ccf1           5819 	add	r12,ep
00001890 0055           5820 	sld.w	0[ep],r10
00001892 edf62800       5821 	mulhi	40,r13,ep
00001896 0a56c800       5822 	addi	200,r10,r10
0000189a caf1           5823 	add	r10,ep
0000189c 2b570100       5824 	ld.w	0[r11],r10
000018a0 0355           5825 	sst.w	r10,4[ep]
                        5826 --1574:   rism_p[ UnitNumber_u08 ]->set.ch[ ChannelNumber_u08 ].pal = ConfigSet_p->PAL;
000018a2 0ef0           5827 	mov	r14,ep
000018a4 c2f2           5828 	shl	2,ep
000018a6 ccf1           5829 	add	r12,ep
000018a8 0055           5830 	sld.w	0[ep],r10
000018aa edf62800       5831 	mulhi	40,r13,ep
000018ae 0a56c800       5832 	addi	200,r10,r10
000018b2 caf1           5833 	add	r10,ep
000018b4 2b570500       5834 	ld.w	4[r11],r10
000018b8 0555           5835 	sst.w	r10,8[ep]
                        5836 --1575:   rism_p[ UnitNumber_u08 ]->set.ch[ ChannelNumber_u08 ].pdl = ConfigSet_p->PDL;
000018ba 0ef0           5837 	mov	r14,ep
000018bc c2f2           5838 	shl	2,ep
000018be ccf1           5839 	add	r12,ep
000018c0 0055           5840 	sld.w	0[ep],r10
000018c2 edf62800       5841 	mulhi	40,r13,ep
000018c6 0a56c800       5842 	addi	200,r10,r10
000018ca caf1           5843 	add	r10,ep
000018cc 2b570900       5844 	ld.w	8[r11],r10
000018d0 0755           5845 	sst.w	r10,12[ep]
                        5846 --1576:   rism_p[ UnitNumber_u08 ]->set.ch[ ChannelNumber_u08 ].pms = ConfigSet_p->PMS;
000018d2 0ef0           5847 	mov	r14,ep
000018d4 c2f2           5848 	shl	2,ep
000018d6 ccf1           5849 	add	r12,ep

                                                                      Page 100
                                                              C:\Users\YINGAO~1\AppData\Local\Temp\gh_00008201.si
000018d8 0055           5850 	sld.w	0[ep],r10
000018da edf62800       5851 	mulhi	40,r13,ep
000018de 0a56c800       5852 	addi	200,r10,r10
000018e2 caf1           5853 	add	r10,ep
000018e4 2b570d00       5854 	ld.w	12[r11],r10
000018e8 0955           5855 	sst.w	r10,16[ep]
                        5856 --1577:   rism_p[ UnitNumber_u08 ]->set.ch[ ChannelNumber_u08 ].phc = ConfigSet_p->PHC;
000018ea 0ef0           5857 	mov	r14,ep
000018ec c2f2           5858 	shl	2,ep
000018ee ccf1           5859 	add	r12,ep
000018f0 0055           5860 	sld.w	0[ep],r10
000018f2 edf62800       5861 	mulhi	40,r13,ep
000018f6 0a56c800       5862 	addi	200,r10,r10
000018fa caf1           5863 	add	r10,ep
000018fc 2b571100       5864 	ld.w	16[r11],r10
00001900 0b55           5865 	sst.w	r10,20[ep]
                        5866 --1578:   rism_p[ UnitNumber_u08 ]->set.ch[ ChannelNumber_u08 ].ps1 = ConfigSet_p->PS1;
00001902 0ef0           5867 	mov	r14,ep
00001904 c2f2           5868 	shl	2,ep
00001906 ccf1           5869 	add	r12,ep
00001908 0055           5870 	sld.w	0[ep],r10
0000190a edf62800       5871 	mulhi	40,r13,ep
0000190e 0a56c800       5872 	addi	200,r10,r10
00001912 caf1           5873 	add	r10,ep
00001914 2b571500       5874 	ld.w	20[r11],r10
00001918 0d55           5875 	sst.w	r10,24[ep]
                        5876 --1579:   rism_p[ UnitNumber_u08 ]->set.ch[ ChannelNumber_u08 ].ps2 = ConfigSet_p->PS2;
0000191a 0ef0           5877 	mov	r14,ep
0000191c c2f2           5878 	shl	2,ep
0000191e ccf1           5879 	add	r12,ep
00001920 0055           5880 	sld.w	0[ep],r10
00001922 edf62800       5881 	mulhi	40,r13,ep
00001926 0a56c800       5882 	addi	200,r10,r10
0000192a caf1           5883 	add	r10,ep
0000192c 2b571900       5884 	ld.w	24[r11],r10
00001930 0f55           5885 	sst.w	r10,28[ep]
                        5886 --1580:   rism_p[ UnitNumber_u08 ]->set.ch[ ChannelNumber_u08 ].ps3 = ConfigSet_p->PS3;
00001932 0ef0           5887 	mov	r14,ep
00001934 c2f2           5888 	shl	2,ep
00001936 ccf1           5889 	add	r12,ep
00001938 0055           5890 	sld.w	0[ep],r10
0000193a edf62800       5891 	mulhi	40,r13,ep
0000193e 0a56c800       5892 	addi	200,r10,r10
00001942 caf1           5893 	add	r10,ep
00001944 2b571d00       5894 	ld.w	28[r11],r10
00001948 1155           5895 	sst.w	r10,32[ep]
                        5896 --1581:   rism_p[ UnitNumber_u08 ]->set.ch[ ChannelNumber_u08 ].ps4 = ConfigSet_p->PS4;
0000194a 0ef0           5897 	mov	r14,ep
0000194c c2f2           5898 	shl	2,ep
0000194e ccf1           5899 	add	r12,ep
00001950 0055           5900 	sld.w	0[ep],r10
00001952 edf62800       5901 	mulhi	40,r13,ep
00001956 0a56c800       5902 	addi	200,r10,r10
0000195a caf1           5903 	add	r10,ep
0000195c 2b572100       5904 	ld.w	32[r11],r10
00001960 1355           5905 	sst.w	r10,36[ep]
                        5906 --1583:   return( R_ISM_ERR_OK );
00001962 0152           5907 	mov	1,r10
                        5908 .L3882:
                        5909 --	    .ef
                        5910 .LDW821:

                                                                      Page 101
                                                              C:\Users\YINGAO~1\AppData\Local\Temp\gh_00008201.si
00001964 7f00           5911 	jmp	[lp]
                        5912 	.type	_R_ISM_SetCMParameters,@function
                        5913 	.size	_R_ISM_SetCMParameters,.-_R_ISM_SetCMParameters
                        5914 	.align	2
                        5915 .LDW921:
                        5916 
                        5917 --_UnitNumber_u08	r14	param
                        5918 --_ChannelNumber_u08	r13	param
                        5919 --_ConfigSet_p	r11	param
                        5920 
                        5921 	.data
                        5922 	.text
                        5923 
                        5924 --1584: }
                        5925 
                        5926 --1586: /*=============================================================================
                        5927 --1587:   FunctionName: R_ISM_SetCMZPDTable
                        5928 --1588:   IN  : UnitNumber: Selected Macro
                        5929 --1589:         ChannelNumber: Selected Channel
                        5930 --1590:         Pointer to array of ZPD table entries
                        5931 --1591:   OUT : Error Flag
                        5932 --1592:   Description :
                        5933 --1593:   Set ZPD table of a channel type under CM into memory and set channel's table
                        5934 --1594:   length
                        5935 --1595:   =============================================================================*/
                        5936 --1596: uint32_t R_ISM_SetCMZPDTable( uint8_t                         UnitNumber_u08,
                        5937 	.align	2
                        5938 	.align	2
                        5939 	.global	_R_ISM_SetCMZPDTable
                        5940 _R_ISM_SetCMZPDTable:
00001966 8007c110       5941 	prepare	{r27,r28,r29},0
0000196a 210600000000*  5942 	mov	_rism_p,r1
00001970 c66eff00       5943 	andi	255,r6,r13
00001974 c75eff00       5944 	andi	255,r7,r11
00001978 0860           5945 	mov	r8,r12
0000197a 0150           5946 	mov	r1,r10
                        5947 --	    .bf
                        5948 .LDW031:
                        5949 --1597:                             uint8_t                         ChannelNumber_u08,
                        5950 --1598:                             const struct rism_zpdtcfg_t *ZPDCmdSet_p )
                        5951 --1599: {
                        5952 --1600:   uint8_t ChannelType_u08;
                        5953 --1601:   uint16_t ZPDTableIndex_u16;
                        5954 --1603:   if( UnitNumber_u08 >= R_ISM_MACRO_NUM ) return( R_ISM_ERR_NG );
0000197c 616a           5955 	cmp	1,r13
0000197e b105*          5956 	bl	.L4005
                        5957 --line1603
                        5958 ..lin.D.3A.5CRenesas_Electronics.5CD1x_RGL.5Crgl_ghs_D1Lx_obj_V1.2E2.2E0.5Cvlib.5Capp.5Cgfx_apps.5Csimple_draw_d1l2.5Ctarget.5Cd1lx_mango_ghs.5Cobj.5Cqlapbismv1_p.293::
                        5959 .LDWlin293:
00001980 004a           5960 	mov	0,r9
00001982 e545*          5961 	br	.L4003
                        5962 .L4005:
                        5963 --1604:   if( ChannelNumber_u08 >= R_ISM_CHANNELS ) return( R_ISM_ERR_NG );
                        5964 --line1604
                        5965 ..lin.D.3A.5CRenesas_Electronics.5CD1x_RGL.5Crgl_ghs_D1Lx_obj_V1.2E2.2E0.5Cvlib.5Capp.5Cgfx_apps.5Csimple_draw_d1l2.5Ctarget.5Cd1lx_mango_ghs.5Cobj.5Cqlapbismv1_p.294::
                        5966 .LDWlin294:
00001984 665a           5967 	cmp	6,r11
00001986 b105*          5968 	bl	.L4008
                        5969 --line1604
                        5970 ..lin.D.3A.5CRenesas_Electronics.5CD1x_RGL.5Crgl_ghs_D1Lx_obj_V1.2E2.2E0.5Cvlib.5Capp.5Cgfx_apps.5Csimple_draw_d1l2.5Ctarget.5Cd1lx_mango_ghs.5Cobj.5Cqlapbismv1_p.295::
                        5971 .LDWlin295:

                                                                      Page 102
                                                              C:\Users\YINGAO~1\AppData\Local\Temp\gh_00008201.si
00001988 004a           5972 	mov	0,r9
0000198a a545*          5973 	br	.L4003
                        5974 .L4008:
                        5975 --1606:   /* ZPD Table changes are only allowed, when GCE is cleared */
                        5976 --1608:   if( rism_p[ UnitNumber_u08 ]->gctl.gce ) return( R_ISM_ERR_NG );
                        5977 --line1608
                        5978 ..lin.D.3A.5CRenesas_Electronics.5CD1x_RGL.5Crgl_ghs_D1Lx_obj_V1.2E2.2E0.5Cvlib.5Capp.5Cgfx_apps.5Csimple_draw_d1l2.5Ctarget.5Cd1lx_mango_ghs.5Cobj.5Cqlapbismv1_p.296::
                        5979 .LDWlin296:
0000198c 0df0           5980 	mov	r13,ep
0000198e c2f2           5981 	shl	2,ep
00001990 caf1           5982 	add	r10,ep
00001992 00f5           5983 	sld.w	0[ep],ep
00001994 0075           5984 	sld.w	0[ep],r14
00001996 8972           5985 	shr	9,r14
00001998 b905*          5986 	bnl	.L4011
                        5987 --line1608
                        5988 ..lin.D.3A.5CRenesas_Electronics.5CD1x_RGL.5Crgl_ghs_D1Lx_obj_V1.2E2.2E0.5Cvlib.5Capp.5Cgfx_apps.5Csimple_draw_d1l2.5Ctarget.5Cd1lx_mango_ghs.5Cobj.5Cqlapbismv1_p.297::
                        5989 .LDWlin297:
0000199a 004a           5990 	mov	0,r9
0000199c 953d*          5991 	br	.L4003
                        5992 .L4011:
                        5993 --1610:   ChannelType_u08 = ( uint8_t )rism_p[ UnitNumber_u08 ]->
                        5994 --line1610
                        5995 ..lin.D.3A.5CRenesas_Electronics.5CD1x_RGL.5Crgl_ghs_D1Lx_obj_V1.2E2.2E0.5Cvlib.5Capp.5Cgfx_apps.5Csimple_draw_d1l2.5Ctarget.5Cd1lx_mango_ghs.5Cobj.5Cqlapbismv1_p.298::
                        5996 .LDWlin298:
0000199e 0df0           5997 	mov	r13,ep
000019a0 c2f2           5998 	shl	2,ep
000019a2 caf1           5999 	add	r10,ep
000019a4 004d           6000 	sld.w	0[ep],r9
000019a6 0bf0           6001 	mov	r11,ep
000019a8 c2f2           6002 	shl	2,ep
000019aa 094e1c00       6003 	addi	28,r9,r9
000019ae c9f1           6004 	add	r9,ep
000019b0 0075           6005 	sld.w	0[ep],r14
000019b2 ceee0700       6006 	andi	7,r14,r29
                        6007 --1611:                              ccmr[ ChannelNumber_u08 ].cct;
                        6008 --1613:   for( ZPDTableIndex_u16 = 0;
000019b6 0072           6009 	mov	0,r14
000019b8 f515*          6010 	br	.L4017
                        6011 .L4016:
                        6012 --1614:        ZPDTableIndex_u16 <= ( ZPDCmdSet_p->TableLength );
                        6013 --1615:        ZPDTableIndex_u16++ )
                        6014 --1616:     {
                        6015 --1617:       rism_zpd_p[ UnitNumber_u08 ]->cmd[ ChannelType_u08 ]
                        6016 --line1617
                        6017 ..lin.D.3A.5CRenesas_Electronics.5CD1x_RGL.5Crgl_ghs_D1Lx_obj_V1.2E2.2E0.5Cvlib.5Capp.5Cgfx_apps.5Csimple_draw_d1l2.5Ctarget.5Cd1lx_mango_ghs.5Cobj.5Cqlapbismv1_p.299::
                        6018 .LDWlin299:
000019ba 0df0           6019 	mov	r13,ep
000019bc c2f2           6020 	shl	2,ep
000019be 21e60800       6021 	movea	8,r1,r28
000019c2 1dd8           6022 	mov	r29,r27
000019c4 dcf1           6023 	add	r28,ep
000019c6 c7da           6024 	shl	7,r27
000019c8 00f5           6025 	sld.w	0[ep],ep
000019ca 0e48           6026 	mov	r14,r9
000019cc db49           6027 	add	r27,r9
000019ce 0ce60400       6028 	addi	4,r12,r28
000019d2 c24a           6029 	shl	2,r9
000019d4 c9f1           6030 	add	r9,ep
000019d6 0e48           6031 	mov	r14,r9
000019d8 c24a           6032 	shl	2,r9

                                                                      Page 103
                                                              C:\Users\YINGAO~1\AppData\Local\Temp\gh_00008201.si
000019da dc49           6033 	add	r28,r9
000019dc 294f0100       6034 	ld.w	0[r9],r9
000019e0 014d           6035 	sst.w	r9,0[ep]
000019e2 4172           6036 	add	1,r14
000019e4 ce00           6037 	zxh	r14
                        6038 .L4017:
000019e6 8c4f0100       6039 	ld.bu	0[r12],r9
000019ea e971           6040 	cmp	r9,r14
000019ec f3e5*          6041 	bnh	.L4016
                        6042 --1618:         [ ZPDTableIndex_u16 ] = ZPDCmdSet_p->Table[ ZPDTableIndex_u16 ];
                        6043 --1619:     }
                        6044 --1621:   rism_p[ UnitNumber_u08 ]->ccmr[ ChannelNumber_u08 ].ctl =
                        6045 --line1621
                        6046 ..lin.D.3A.5CRenesas_Electronics.5CD1x_RGL.5Crgl_ghs_D1Lx_obj_V1.2E2.2E0.5Cvlib.5Capp.5Cgfx_apps.5Csimple_draw_d1l2.5Ctarget.5Cd1lx_mango_ghs.5Cobj.5Cqlapbismv1_p.300::
                        6047 .LDWlin300:
000019ee 0df0           6048 	mov	r13,ep
000019f0 c2f2           6049 	shl	2,ep
000019f2 caf1           6050 	add	r10,ep
000019f4 00e5           6051 	sld.w	0[ep],r28
000019f6 0bf0           6052 	mov	r11,ep
000019f8 c2f2           6053 	shl	2,ep
000019fa 1ce61c00       6054 	addi	28,r28,r28
000019fe dcf1           6055 	add	r28,ep
00001a00 8ce70100       6056 	ld.bu	0[r12],r28
00001a04 004d           6057 	sld.w	0[ep],r9
00001a06 fc4f9060       6058 	bins	r28,16,7,r9
00001a0a 014d           6059 	sst.w	r9,0[ep]
                        6060 --1622:     ZPDCmdSet_p->TableLength;
                        6061 --1624:   return( R_ISM_ERR_OK );
00001a0c 014a           6062 	mov	1,r9
                        6063 .L4003:
                        6064 --	    .ef
                        6065 .LDW131:
00001a0e 0950           6066 	mov	r9,r10
00001a10 4006df10       6067 	dispose	0,{r27,r28,r29},[lp]
                        6068 	.type	_R_ISM_SetCMZPDTable,@function
                        6069 	.size	_R_ISM_SetCMZPDTable,.-_R_ISM_SetCMZPDTable
                        6070 	.align	2
                        6071 .LDW231:
                        6072 --_ChannelType_u08	r29	local
                        6073 --_ZPDTableIndex_u16	r14	local
                        6074 
                        6075 --_UnitNumber_u08	r13	param
                        6076 --_ChannelNumber_u08	r11	param
                        6077 --_ZPDCmdSet_p	r12	param
                        6078 
                        6079 	.data
                        6080 	.text
                        6081 
                        6082 --1625: }
                        6083 
                        6084 --1627: //==========================================================================
                        6085 --1628: extern const struct rism_zpdtcfg_t R_ISM_A_STDZPDTABLE1;
                        6086 --1629: extern const struct rism_zpdtcfg_t R_ISM_A_STDZPDTABLE2;
                        6087 --1630: extern const struct rism_zpdtcfg_t R_ISM_A_STDZPDTABLE3;
                        6088 --1632: const struct rism_zpdtcfg_t*  zpdtbl[3] = {
                        6089 --1633: 	&R_ISM_A_STDZPDTABLE1,
                        6090 --1634: 	&R_ISM_A_STDZPDTABLE2,
                        6091 --1635: 	&R_ISM_A_STDZPDTABLE3,
                        6092 --1636: };
                        6093 --1638: //==========================================================================

                                                                      Page 104
                                                              C:\Users\YINGAO~1\AppData\Local\Temp\gh_00008201.si
                        6094 --1640: uint32_t R_ISM_SetCMZPDTable2( uint8_t                         UnitNumber_u08,
                        6095 	.align	2
                        6096 	.align	2
                        6097 	.global	_R_ISM_SetCMZPDTable2
                        6098 _R_ISM_SetCMZPDTable2:
00001a14 80074100       6099 	prepare	{r29},0
00001a18 c666ff00       6100 	andi	255,r6,r12
00001a1c c76eff00       6101 	andi	255,r7,r13
00001a20 0858           6102 	mov	r8,r11
00001a22 210600000000*  6103 	mov	_rism_p,r1
                        6104 --	    .bf
                        6105 .LDW331:
                        6106 --1641:                             uint8_t                         ChannelNumber_u08,
                        6107 --1642:                             const struct rism_zpdtcfg_t *ZPDCmdSet_p )
                        6108 --1643: {
                        6109 --1644:   uint8_t ChannelType_u08;
                        6110 --1645:   uint16_t ZPDTableIndex_u16;
                        6111 --1648: 	if(ChannelNumber_u08 <= 2){
00001a28 626a           6112 	cmp	2,r13
00001a2a bb25*          6113 	bh	.L4118
                        6114 --1649:   for( ZPDTableIndex_u16 = 0;
                        6115 --line1649
                        6116 ..lin.D.3A.5CRenesas_Electronics.5CD1x_RGL.5Crgl_ghs_D1Lx_obj_V1.2E2.2E0.5Cvlib.5Capp.5Cgfx_apps.5Csimple_draw_d1l2.5Ctarget.5Cd1lx_mango_ghs.5Cobj.5Cqlapbismv1_p.301::
                        6117 .LDWlin301:
00001a2c 0072           6118 	mov	0,r14
00001a2e d51d*          6119 	br	.L4123
                        6120 .L4122:
                        6121 --1650:        ZPDTableIndex_u16 <= ( ZPDCmdSet_p->TableLength );
                        6122 --1651:        ZPDTableIndex_u16++ )
                        6123 --1652:     {
                        6124 --1653: //      rism_zpd_p[ UnitNumber_u08 ]->cmd[ ChannelNumber_u08 ]
                        6125 --1654:  //       [ ZPDTableIndex_u16 ] = ZPDCmdSet_p->Table[ ZPDTableIndex_u16 ];
                        6126 --1655: 	  rism_zpd_p[ UnitNumber_u08 ]->cmd[ ChannelNumber_u08 ]
                        6127 --line1655
                        6128 ..lin.D.3A.5CRenesas_Electronics.5CD1x_RGL.5Crgl_ghs_D1Lx_obj_V1.2E2.2E0.5Cvlib.5Capp.5Cgfx_apps.5Csimple_draw_d1l2.5Ctarget.5Cd1lx_mango_ghs.5Cobj.5Cqlapbismv1_p.302::
                        6129 .LDWlin302:
00001a30 0cf0           6130 	mov	r12,ep
00001a32 c2f2           6131 	shl	2,ep
00001a34 214e0800       6132 	movea	8,r1,r9
00001a38 0de8           6133 	mov	r13,r29
00001a3a c9f1           6134 	add	r9,ep
00001a3c c7ea           6135 	shl	7,r29
00001a3e 004d           6136 	sld.w	0[ep],r9
00001a40 0e50           6137 	mov	r14,r10
00001a42 dd51           6138 	add	r29,r10
00001a44 0df0           6139 	mov	r13,ep
00001a46 c2f2           6140 	shl	2,ep
00001a48 3d0600000000*  6141 	mov	_zpdtbl,r29
00001a4e ddf1           6142 	add	r29,ep
00001a50 c252           6143 	shl	2,r10
00001a52 00ed           6144 	sld.w	0[ep],r29
00001a54 c951           6145 	add	r9,r10
00001a56 0ef0           6146 	mov	r14,ep
00001a58 c2f2           6147 	shl	2,ep
00001a5a 44ea           6148 	add	4,r29
00001a5c ddf1           6149 	add	r29,ep
00001a5e 004d           6150 	sld.w	0[ep],r9
00001a60 6a4f0100       6151 	st.w	r9,0[r10]
00001a64 4172           6152 	add	1,r14
00001a66 ce00           6153 	zxh	r14
                        6154 .L4123:

                                                                      Page 105
                                                              C:\Users\YINGAO~1\AppData\Local\Temp\gh_00008201.si
00001a68 8b570100       6155 	ld.bu	0[r11],r10
00001a6c ea71           6156 	cmp	r10,r14
00001a6e 93e5*          6157 	bnh	.L4122
                        6158 .L4118:
                        6159 --1656:         [ ZPDTableIndex_u16 ] = zpdtbl[ChannelNumber_u08]->Table[ ZPDTableIndex_u16 ];
                        6160 --1657:     } 
                        6161 --1658: 		}
                        6162 --1659:   rism_p[ UnitNumber_u08 ]->ccmr[ ChannelNumber_u08 ].ctl =
                        6163 --line1659
                        6164 ..lin.D.3A.5CRenesas_Electronics.5CD1x_RGL.5Crgl_ghs_D1Lx_obj_V1.2E2.2E0.5Cvlib.5Capp.5Cgfx_apps.5Csimple_draw_d1l2.5Ctarget.5Cd1lx_mango_ghs.5Cobj.5Cqlapbismv1_p.303::
                        6165 .LDWlin303:
00001a70 0cf0           6166 	mov	r12,ep
00001a72 c2f2           6167 	shl	2,ep
00001a74 210600000000*  6168 	mov	_rism_p,r1
00001a7a c1f1           6169 	add	r1,ep
00001a7c 0055           6170 	sld.w	0[ep],r10
00001a7e 0df0           6171 	mov	r13,ep
00001a80 c2f2           6172 	shl	2,ep
00001a82 0a561c00       6173 	addi	28,r10,r10
00001a86 caf1           6174 	add	r10,ep
00001a88 8b570100       6175 	ld.bu	0[r11],r10
00001a8c 000d           6176 	sld.w	0[ep],r1
00001a8e ea0f9060       6177 	bins	r10,16,7,r1
00001a92 010d           6178 	sst.w	r1,0[ep]
                        6179 --1660:     ZPDCmdSet_p->TableLength;
                        6180 --1662:   return( R_ISM_ERR_OK );
00001a94 0152           6181 	mov	1,r10
                        6182 --	    .ef
                        6183 .LDW431:
00001a96 40065f00       6184 	dispose	0,{r29},[lp]
                        6185 	.type	_R_ISM_SetCMZPDTable2,@function
                        6186 	.size	_R_ISM_SetCMZPDTable2,.-_R_ISM_SetCMZPDTable2
                        6187 	.align	2
                        6188 .LDW531:
                        6189 --_ZPDTableIndex_u16	r14	local
                        6190 
                        6191 --_UnitNumber_u08	r12	param
                        6192 --_ChannelNumber_u08	r13	param
                        6193 --_ZPDCmdSet_p	r11	param
                        6194 
                        6195 	.data
                        6196 	.text
                        6197 
                        6198 --1663: }
                        6199 
                        6200 --1666: /*=============================================================================
                        6201 --1667:   FunctionName: R_ISM_SetCMPWMTable
                        6202 --1668:   IN  : UnitNumber: Selected Macro
                        6203 --1669:         ChannelNumber: Selected Channel
                        6204 --1670:         Pointer to array of PWM table entries
                        6205 --1671:         (only one of the two pointers is used at a time, depending on the
                        6206 --1672:          precision of the selected channel)
                        6207 --1673:   OUT : Error Flag
                        6208 --1674:   Description :
                        6209 --1675:   Set PWM table of a channel under CM
                        6210 --1676:   =============================================================================*/
                        6211 --1677: uint32_t R_ISM_SetCMPWMTable( uint8_t                        UnitNumber_u08,
                        6212 	.align	2
                        6213 	.align	2
                        6214 	.global	_R_ISM_SetCMPWMTable
                        6215 _R_ISM_SetCMPWMTable:

                                                                      Page 106
                                                              C:\Users\YINGAO~1\AppData\Local\Temp\gh_00008201.si
00001a9a 8807e170       6216 	prepare	{r25,r26,r27,r28,r29,r31},4
00001a9e 210600000000*  6217 	mov	_rism_p,r1
00001aa4 c66eff00       6218 	andi	255,r6,r13
00001aa8 c7ceff00       6219 	andi	255,r7,r25
00001aac 08f8           6220 	mov	r8,lp
00001aae 09e0           6221 	mov	r9,r28
00001ab0 21de0400       6222 	movea	4,r1,r27
                        6223 --	    .bf
                        6224 .LDW631:
                        6225 --1678:                             uint8_t                        ChannelNumber_u08,
                        6226 --1679:                             const struct rism_pwmstd_t *ConfigSetStd_p,
                        6227 --1680:                             const struct rism_pwmhi_t  *ConfigSetHi_p )
                        6228 --1681: {
                        6229 --1682:   uint8_t ChannelType_u08;
                        6230 --1683:   uint8_t ChannelPrecision_u08;
                        6231 --1684:   uint16_t PWMTableIndex_u16;
                        6232 --1685:   uint8_t DirectionIndex_u08;
                        6233 --1686:   uint8_t SpeedIndex_u08;
                        6234 --1687:   uint32_t *src,*dst;
                        6235 --1689:   if( UnitNumber_u08 >= R_ISM_MACRO_NUM ) return( R_ISM_ERR_NG );
00001ab4 616a           6236 	cmp	1,r13
00001ab6 c105*          6237 	bl	.L4184
                        6238 --line1689
                        6239 ..lin.D.3A.5CRenesas_Electronics.5CD1x_RGL.5Crgl_ghs_D1Lx_obj_V1.2E2.2E0.5Cvlib.5Capp.5Cgfx_apps.5Csimple_draw_d1l2.5Ctarget.5Cd1lx_mango_ghs.5Cobj.5Cqlapbismv1_p.304::
                        6240 .LDWlin304:
00001ab8 00d2           6241 	mov	0,r26
00001aba 80070202*      6242 	br	.L4182
                        6243 .L4184:
                        6244 --1690:   if( ChannelNumber_u08 >= R_ISM_CHANNELS ) return( R_ISM_ERR_NG );
                        6245 --line1690
                        6246 ..lin.D.3A.5CRenesas_Electronics.5CD1x_RGL.5Crgl_ghs_D1Lx_obj_V1.2E2.2E0.5Cvlib.5Capp.5Cgfx_apps.5Csimple_draw_d1l2.5Ctarget.5Cd1lx_mango_ghs.5Cobj.5Cqlapbismv1_p.305::
                        6247 .LDWlin305:
00001abe 66ca           6248 	cmp	6,r25
00001ac0 c105*          6249 	bl	.L4187
                        6250 --line1690
                        6251 ..lin.D.3A.5CRenesas_Electronics.5CD1x_RGL.5Crgl_ghs_D1Lx_obj_V1.2E2.2E0.5Cvlib.5Capp.5Cgfx_apps.5Csimple_draw_d1l2.5Ctarget.5Cd1lx_mango_ghs.5Cobj.5Cqlapbismv1_p.306::
                        6252 .LDWlin306:
00001ac2 00d2           6253 	mov	0,r26
00001ac4 8007f801*      6254 	br	.L4182
                        6255 .L4187:
                        6256 --1692:   /* PWM Table changes are only allowed, when GCE is cleared */
                        6257 --1694:   if( rism_p[ UnitNumber_u08 ]->gctl.gce ) return( R_ISM_ERR_NG );
                        6258 --line1694
                        6259 ..lin.D.3A.5CRenesas_Electronics.5CD1x_RGL.5Crgl_ghs_D1Lx_obj_V1.2E2.2E0.5Cvlib.5Capp.5Cgfx_apps.5Csimple_draw_d1l2.5Ctarget.5Cd1lx_mango_ghs.5Cobj.5Cqlapbismv1_p.307::
                        6260 .LDWlin307:
00001ac8 0df0           6261 	mov	r13,ep
00001aca c2f2           6262 	shl	2,ep
00001acc 2b0600000000*  6263 	mov	_rism_p,r11
00001ad2 cbf1           6264 	add	r11,ep
00001ad4 00f5           6265 	sld.w	0[ep],ep
00001ad6 0075           6266 	sld.w	0[ep],r14
00001ad8 8972           6267 	shr	9,r14
00001ada c905*          6268 	bnl	.L4190
                        6269 --line1694
                        6270 ..lin.D.3A.5CRenesas_Electronics.5CD1x_RGL.5Crgl_ghs_D1Lx_obj_V1.2E2.2E0.5Cvlib.5Capp.5Cgfx_apps.5Csimple_draw_d1l2.5Ctarget.5Cd1lx_mango_ghs.5Cobj.5Cqlapbismv1_p.308::
                        6271 .LDWlin308:
00001adc 00d2           6272 	mov	0,r26
00001ade 8007de01*      6273 	br	.L4182
                        6274 .L4190:
                        6275 --1696:   ChannelType_u08      = ( uint8_t )rism_p[ UnitNumber_u08 ]->
                        6276 --line1696

                                                                      Page 107
                                                              C:\Users\YINGAO~1\AppData\Local\Temp\gh_00008201.si
                        6277 ..lin.D.3A.5CRenesas_Electronics.5CD1x_RGL.5Crgl_ghs_D1Lx_obj_V1.2E2.2E0.5Cvlib.5Capp.5Cgfx_apps.5Csimple_draw_d1l2.5Ctarget.5Cd1lx_mango_ghs.5Cobj.5Cqlapbismv1_p.309::
                        6278 .LDWlin309:
00001ae2 0df0           6279 	mov	r13,ep
00001ae4 c2f2           6280 	shl	2,ep
00001ae6 2b0600000000*  6281 	mov	_rism_p,r11
00001aec cbf1           6282 	add	r11,ep
00001aee 0065           6283 	sld.w	0[ep],r12
00001af0 19f0           6284 	mov	r25,ep
00001af2 c2f2           6285 	shl	2,ep
00001af4 0c661c00       6286 	addi	28,r12,r12
00001af8 ccf1           6287 	add	r12,ep
00001afa 0075           6288 	sld.w	0[ep],r14
00001afc ceee0700       6289 	andi	7,r14,r29
                        6290 --1697:                                      ccmr[ ChannelNumber_u08 ].cct;
                        6291 --1698:   ChannelPrecision_u08 = ( uint8_t )rism_p[ UnitNumber_u08 ]->
00001b00 0df0           6292 	mov	r13,ep
00001b02 c2f2           6293 	shl	2,ep
00001b04 2b0600000000*  6294 	mov	_rism_p,r11
00001b0a cbf1           6295 	add	r11,ep
00001b0c 0065           6296 	sld.w	0[ep],r12
00001b0e 19f0           6297 	mov	r25,ep
00001b10 c2f2           6298 	shl	2,ep
00001b12 0c661c00       6299 	addi	28,r12,r12
00001b16 ccf1           6300 	add	r12,ep
00001b18 0075           6301 	sld.w	0[ep],r14
00001b1a da72           6302 	shl	26,r14
00001b1c 9f72           6303 	shr	31,r14
00001b1e 43770300       6304 	st.b	r14,3[sp]
                        6305 --1699:                                      ccmr[ ChannelNumber_u08 ].ccp;
                        6306 --1701:   switch( ChannelPrecision_u08 )
00001b22 a3770300       6307 	ld.bu	3[sp],r14
00001b26 6172           6308 	cmp	1,r14
00001b28 e1070d01*      6309 	bl	.L4202
00001b2c eb078d01*      6310 	bh	.L4215
                        6311 --1702:     {
                        6312 --1703:     case R_ISM_PRECISION_HI:
                        6313 --1704:       if( ConfigSetHi_p == NULL ) return( R_ISM_ERR_NG );
                        6314 --line1704
                        6315 ..lin.D.3A.5CRenesas_Electronics.5CD1x_RGL.5Crgl_ghs_D1Lx_obj_V1.2E2.2E0.5Cvlib.5Capp.5Cgfx_apps.5Csimple_draw_d1l2.5Ctarget.5Cd1lx_mango_ghs.5Cobj.5Cqlapbismv1_p.310::
                        6316 .LDWlin310:
00001b30 e0e1           6317 	cmp	zero,r28
00001b32 ca05*          6318 	bne	.L4196
                        6319 --line1704
                        6320 ..lin.D.3A.5CRenesas_Electronics.5CD1x_RGL.5Crgl_ghs_D1Lx_obj_V1.2E2.2E0.5Cvlib.5Capp.5Cgfx_apps.5Csimple_draw_d1l2.5Ctarget.5Cd1lx_mango_ghs.5Cobj.5Cqlapbismv1_p.311::
                        6321 .LDWlin311:
00001b34 00d2           6322 	mov	0,r26
00001b36 80078601*      6323 	br	.L4182
                        6324 .L4196:
                        6325 --1705:       for( PWMTableIndex_u16 = 0;
                        6326 --line1705
                        6327 ..lin.D.3A.5CRenesas_Electronics.5CD1x_RGL.5Crgl_ghs_D1Lx_obj_V1.2E2.2E0.5Cvlib.5Capp.5Cgfx_apps.5Csimple_draw_d1l2.5Ctarget.5Cd1lx_mango_ghs.5Cobj.5Cqlapbismv1_p.312::
                        6328 .LDWlin312:
00001b3a 0072           6329 	mov	0,r14
00001b3c 0000           6330 	nop
                        6331 .L4201:
                        6332 --1706:            PWMTableIndex_u16 < R_ISM_TABLESIZE_HI;
                        6333 --1707:            PWMTableIndex_u16++ )
                        6334 --1708:         {
                        6335 --1709:           rism_pwm_p[ UnitNumber_u08 ]->hi[ ChannelType_u08 ]
00001b3e 0df0           6336 	mov	r13,ep
00001b40 c2f2           6337 	shl	2,ep

                                                                      Page 108
                                                              C:\Users\YINGAO~1\AppData\Local\Temp\gh_00008201.si
00001b42 dbf1           6338 	add	r27,ep
00001b44 00f5           6339 	sld.w	0[ep],ep
00001b46 1d50           6340 	mov	r29,r10
00001b48 c952           6341 	shl	9,r10
00001b4a 0e60           6342 	mov	r14,r12
00001b4c ca61           6343 	add	r10,r12
00001b4e c262           6344 	shl	2,r12
00001b50 ccf1           6345 	add	r12,ep
00001b52 0e60           6346 	mov	r14,r12
00001b54 c262           6347 	shl	2,r12
00001b56 dc61           6348 	add	r28,r12
00001b58 2c570100       6349 	ld.w	0[r12],r10
00001b5c 0065           6350 	sld.w	0[ep],r12
00001b5e 205eff03       6351 	movea	1023,zero,r11
00001b62 2b58           6352 	not	r11,r11
00001b64 ca56ff03       6353 	andi	1023,r10,r10
00001b68 4b61           6354 	and	r11,r12
00001b6a 0a61           6355 	or	r10,r12
00001b6c 0165           6356 	sst.w	r12,0[ep]
                        6357 --1710:                                            [ PWMTableIndex_u16 ].cvp =
                        6358 --1711:             ConfigSetHi_p->hi[ PWMTableIndex_u16 ].cvp;
                        6359 --1713:           rism_pwm_p[ UnitNumber_u08 ]->hi[ ChannelType_u08 ]
00001b6e 0df0           6360 	mov	r13,ep
00001b70 c2f2           6361 	shl	2,ep
00001b72 dbf1           6362 	add	r27,ep
00001b74 00f5           6363 	sld.w	0[ep],ep
00001b76 1d50           6364 	mov	r29,r10
00001b78 c952           6365 	shl	9,r10
00001b7a 0e60           6366 	mov	r14,r12
00001b7c ca61           6367 	add	r10,r12
00001b7e c262           6368 	shl	2,r12
00001b80 ccf1           6369 	add	r12,ep
00001b82 0e60           6370 	mov	r14,r12
00001b84 c262           6371 	shl	2,r12
00001b86 dc61           6372 	add	r28,r12
00001b88 2c570100       6373 	ld.w	0[r12],r10
00001b8c 0065           6374 	sld.w	0[ep],r12
00001b8e 2b0600fc0f00   6375 	mov	1047552,r11
00001b94 4b51           6376 	and	r11,r10
00001b96 2b58           6377 	not	r11,r11
00001b98 4b61           6378 	and	r11,r12
00001b9a 0a61           6379 	or	r10,r12
00001b9c 0165           6380 	sst.w	r12,0[ep]
                        6381 --1714:                                            [ PWMTableIndex_u16 ].chp =
                        6382 --1715:             ConfigSetHi_p->hi[ PWMTableIndex_u16 ].chp;
                        6383 --1717:           rism_pwm_p[ UnitNumber_u08 ]->hi[ ChannelType_u08 ]
00001b9e 0df0           6384 	mov	r13,ep
00001ba0 c2f2           6385 	shl	2,ep
00001ba2 dbf1           6386 	add	r27,ep
00001ba4 00f5           6387 	sld.w	0[ep],ep
00001ba6 1d50           6388 	mov	r29,r10
00001ba8 c952           6389 	shl	9,r10
00001baa 0e60           6390 	mov	r14,r12
00001bac ca61           6391 	add	r10,r12
00001bae c262           6392 	shl	2,r12
00001bb0 ccf1           6393 	add	r12,ep
00001bb2 0e60           6394 	mov	r14,r12
00001bb4 c262           6395 	shl	2,r12
00001bb6 dc61           6396 	add	r28,r12
00001bb8 2c570100       6397 	ld.w	0[r12],r10
00001bbc 0065           6398 	sld.w	0[ep],r12

                                                                      Page 109
                                                              C:\Users\YINGAO~1\AppData\Local\Temp\gh_00008201.si
00001bbe 405e3000       6399 	movhi	hi(3145728),zero,r11
00001bc2 4b51           6400 	and	r11,r10
00001bc4 2b58           6401 	not	r11,r11
00001bc6 4b61           6402 	and	r11,r12
00001bc8 0a61           6403 	or	r10,r12
00001bca 0165           6404 	sst.w	r12,0[ep]
                        6405 --1718:                                            [ PWMTableIndex_u16 ].cqi =
                        6406 --1719:             ConfigSetHi_p->hi[ PWMTableIndex_u16 ].cqi;
                        6407 --1721:           rism_pwm_p[ UnitNumber_u08 ]->hi[ ChannelType_u08 ]
00001bcc 0df0           6408 	mov	r13,ep
00001bce c2f2           6409 	shl	2,ep
00001bd0 dbf1           6410 	add	r27,ep
00001bd2 00f5           6411 	sld.w	0[ep],ep
00001bd4 1d50           6412 	mov	r29,r10
00001bd6 c952           6413 	shl	9,r10
00001bd8 0e60           6414 	mov	r14,r12
00001bda ca61           6415 	add	r10,r12
00001bdc c262           6416 	shl	2,r12
00001bde ccf1           6417 	add	r12,ep
00001be0 0e60           6418 	mov	r14,r12
00001be2 c262           6419 	shl	2,r12
00001be4 dc61           6420 	add	r28,r12
00001be6 2c570100       6421 	ld.w	0[r12],r10
00001bea 0065           6422 	sld.w	0[ep],r12
00001bec 405e8000       6423 	movhi	hi(8388608),zero,r11
00001bf0 4b51           6424 	and	r11,r10
00001bf2 2b58           6425 	not	r11,r11
00001bf4 4b61           6426 	and	r11,r12
00001bf6 0a61           6427 	or	r10,r12
00001bf8 0165           6428 	sst.w	r12,0[ep]
                        6429 --1722:                                            [ PWMTableIndex_u16 ].ihr =
                        6430 --1723:             ConfigSetHi_p->hi[ PWMTableIndex_u16 ].ihr;
                        6431 --1725:           rism_pwm_p[ UnitNumber_u08 ]->hi[ ChannelType_u08 ]
00001bfa 0df0           6432 	mov	r13,ep
00001bfc c2f2           6433 	shl	2,ep
00001bfe dbf1           6434 	add	r27,ep
00001c00 00f5           6435 	sld.w	0[ep],ep
00001c02 1d50           6436 	mov	r29,r10
00001c04 c952           6437 	shl	9,r10
00001c06 0e60           6438 	mov	r14,r12
00001c08 ca61           6439 	add	r10,r12
00001c0a c262           6440 	shl	2,r12
00001c0c ccf1           6441 	add	r12,ep
00001c0e 0e60           6442 	mov	r14,r12
00001c10 c262           6443 	shl	2,r12
00001c12 dc61           6444 	add	r28,r12
00001c14 2c570100       6445 	ld.w	0[r12],r10
00001c18 0065           6446 	sld.w	0[ep],r12
00001c1a 405e4000       6447 	movhi	hi(4194304),zero,r11
00001c1e 4b51           6448 	and	r11,r10
00001c20 2b58           6449 	not	r11,r11
00001c22 4b61           6450 	and	r11,r12
00001c24 0a61           6451 	or	r10,r12
00001c26 0165           6452 	sst.w	r12,0[ep]
00001c28 4172           6453 	add	1,r14
00001c2a ce00           6454 	zxh	r14
00001c2c 0e0600fe       6455 	addi	-512,r14,zero
00001c30 f985*          6456 	bnl	.L4201
                        6457 --line1729
                        6458 ..lin.D.3A.5CRenesas_Electronics.5CD1x_RGL.5Crgl_ghs_D1Lx_obj_V1.2E2.2E0.5Cvlib.5Capp.5Cgfx_apps.5Csimple_draw_d1l2.5Ctarget.5Cd1lx_mango_ghs.5Cobj.5Cqlapbismv1_p.313::
                        6459 .LDWlin313:

                                                                      Page 110
                                                              C:\Users\YINGAO~1\AppData\Local\Temp\gh_00008201.si
00001c32 c545*          6460 	br	.L4193
                        6461 .L4202:
                        6462 --1726:                                            [ PWMTableIndex_u16 ].ivr =
                        6463 --1727:             ConfigSetHi_p->hi[ PWMTableIndex_u16 ].ivr;
                        6464 --1728:         }
                        6465 --1729:       break;
                        6466 --1731:     case R_ISM_PRECISION_STD:
                        6467 --1732:       if( ConfigSetStd_p == NULL ) return( R_ISM_ERR_NG );
                        6468 --line1732
                        6469 ..lin.D.3A.5CRenesas_Electronics.5CD1x_RGL.5Crgl_ghs_D1Lx_obj_V1.2E2.2E0.5Cvlib.5Capp.5Cgfx_apps.5Csimple_draw_d1l2.5Ctarget.5Cd1lx_mango_ghs.5Cobj.5Cqlapbismv1_p.314::
                        6470 .LDWlin314:
00001c34 e0f9           6471 	cmp	zero,lp
00001c36 ba05*          6472 	bne	.L4203
                        6473 --line1732
                        6474 ..lin.D.3A.5CRenesas_Electronics.5CD1x_RGL.5Crgl_ghs_D1Lx_obj_V1.2E2.2E0.5Cvlib.5Capp.5Cgfx_apps.5Csimple_draw_d1l2.5Ctarget.5Cd1lx_mango_ghs.5Cobj.5Cqlapbismv1_p.315::
                        6475 .LDWlin315:
00001c38 00d2           6476 	mov	0,r26
00001c3a 9545*          6477 	br	.L4182
                        6478 .L4203:
                        6479 --1733:       for( SpeedIndex_u08 = 0;
                        6480 --line1733
                        6481 ..lin.D.3A.5CRenesas_Electronics.5CD1x_RGL.5Crgl_ghs_D1Lx_obj_V1.2E2.2E0.5Cvlib.5Capp.5Cgfx_apps.5Csimple_draw_d1l2.5Ctarget.5Cd1lx_mango_ghs.5Cobj.5Cqlapbismv1_p.316::
                        6482 .LDWlin316:
00001c3c 005a           6483 	mov	0,r11
00001c3e 0000           6484 	nop
                        6485 .L4208:
                        6486 --1734:            SpeedIndex_u08 < R_ISM_SPEEDS;
                        6487 --1735:            SpeedIndex_u08++ )
                        6488 --1736:         {
                        6489 --1737:           for( DirectionIndex_u08 = 0;
00001c40 0062           6490 	mov	0,r12
00001c42 0000           6491 	nop
                        6492 .L4211:
                        6493 --1738:                DirectionIndex_u08 < R_ISM_DIRECTIONS;
                        6494 --1739:                DirectionIndex_u08++ )
                        6495 --1740:             {
                        6496 --1741:                 dst = (uint32_t*)(&rism_pwm_p[ UnitNumber_u08 ]->std[ ChannelType_u08 ]
00001c44 0dd0           6497 	mov	r13,r26
00001c46 c2d2           6498 	shl	2,r26
00001c48 dbd1           6499 	add	r27,r26
00001c4a 3a570100       6500 	ld.w	0[r26],r10
00001c4e 1dd0           6501 	mov	r29,r26
00001c50 c1d2           6502 	shl	1,r26
00001c52 cbd1           6503 	add	r11,r26
00001c54 c1d2           6504 	shl	1,r26
00001c56 ccd1           6505 	add	r12,r26
00001c58 63570900       6506 	st.w	r10,8[sp]
00001c5c c9d2           6507 	shl	9,r26
00001c5e 1a50           6508 	mov	r26,r10
00001c60 23d70900       6509 	ld.w	8[sp],r26
00001c64 da51           6510 	add	r26,r10
                        6511 --1742:                                                     [ SpeedIndex_u08 ]
                        6512 --1743:                                                     [ DirectionIndex_u08 ][0]);
                        6513 --1744:                 src = (uint32_t*)(&ConfigSetStd_p->std[ SpeedIndex_u08 ]
00001c66 1fd6fc01       6514 	addi	508,lp,r26
00001c6a 63d70900       6515 	st.w	r26,8[sp]
00001c6e 0bd0           6516 	mov	r11,r26
00001c70 c1d2           6517 	shl	1,r26
00001c72 63d70d00       6518 	st.w	r26,12[sp]
00001c76 ff4760f9       6519 	pushsp	lp-lp
00001c7a 23d71100       6520 	ld.w	16[sp],r26

                                                                      Page 111
                                                              C:\Users\YINGAO~1\AppData\Local\Temp\gh_00008201.si
00001c7e ccd1           6521 	add	r12,r26
00001c80 ff6760f9       6522 	popsp	lp-lp
00001c84 c9d2           6523 	shl	9,r26
00001c86 1af0           6524 	mov	r26,ep
00001c88 23d70900       6525 	ld.w	8[sp],r26
00001c8c daf1           6526 	add	r26,ep
                        6527 --1745:                                        [ DirectionIndex_u08 ]
                        6528 --1746:                                        [ R_ISM_TABLESIZE_STD-1 ]);
                        6529 --1747:                 for( PWMTableIndex_u16 = 0;
00001c8e 0072           6530 	mov	0,r14
00001c90 0000           6531 	nop
                        6532 .L4214:
                        6533 --1748:                    PWMTableIndex_u16 < R_ISM_TABLESIZE_STD;
                        6534 --1749:                    PWMTableIndex_u16++ )
                        6535 --1750:                 {
                        6536 --1751:                     *dst = *src;
00001c92 00d5           6537 	sld.w	0[ep],r26
00001c94 6ad70100       6538 	st.w	r26,0[r10]
                        6539 --1752:                     dst++;
00001c98 4452           6540 	add	4,r10
                        6541 --1753:                     src--;
00001c9a 5cf2           6542 	add	-4,ep
00001c9c 4172           6543 	add	1,r14
00001c9e ce00           6544 	zxh	r14
00001ca0 0e0680ff       6545 	addi	-128,r14,zero
00001ca4 f9f5*          6546 	bnl	.L4214
                        6547 --line1737
                        6548 ..lin.D.3A.5CRenesas_Electronics.5CD1x_RGL.5Crgl_ghs_D1Lx_obj_V1.2E2.2E0.5Cvlib.5Capp.5Cgfx_apps.5Csimple_draw_d1l2.5Ctarget.5Cd1lx_mango_ghs.5Cobj.5Cqlapbismv1_p.317::
                        6549 .LDWlin317:
00001ca6 4162           6550 	add	1,r12
00001ca8 8c00           6551 	zxb	r12
00001caa 6262           6552 	cmp	2,r12
00001cac c1cd*          6553 	bl	.L4211
                        6554 --line1733
                        6555 ..lin.D.3A.5CRenesas_Electronics.5CD1x_RGL.5Crgl_ghs_D1Lx_obj_V1.2E2.2E0.5Cvlib.5Capp.5Cgfx_apps.5Csimple_draw_d1l2.5Ctarget.5Cd1lx_mango_ghs.5Cobj.5Cqlapbismv1_p.318::
                        6556 .LDWlin318:
00001cae 415a           6557 	add	1,r11
00001cb0 8b00           6558 	zxb	r11
00001cb2 625a           6559 	cmp	2,r11
00001cb4 e1c5*          6560 	bl	.L4208
                        6561 --line1757
                        6562 ..lin.D.3A.5CRenesas_Electronics.5CD1x_RGL.5Crgl_ghs_D1Lx_obj_V1.2E2.2E0.5Cvlib.5Capp.5Cgfx_apps.5Csimple_draw_d1l2.5Ctarget.5Cd1lx_mango_ghs.5Cobj.5Cqlapbismv1_p.319::
                        6563 .LDWlin319:
00001cb6 a505*          6564 	br	.L4193
                        6565 .L4215:
                        6566 --line1760
                        6567 ..lin.D.3A.5CRenesas_Electronics.5CD1x_RGL.5Crgl_ghs_D1Lx_obj_V1.2E2.2E0.5Cvlib.5Capp.5Cgfx_apps.5Csimple_draw_d1l2.5Ctarget.5Cd1lx_mango_ghs.5Cobj.5Cqlapbismv1_p.320::
                        6568 .LDWlin320:
00001cb8 0000           6569 	nop
                        6570 .L4193:
                        6571 --1754:                 }
                        6572 --1755:             }
                        6573 --1756:         }
                        6574 --1757:       break;
                        6575 --1759:     default:
                        6576 --1760:       break;
                        6577 --1761:     }
                        6578 --1763:   return( R_ISM_ERR_OK );
00001cba 01d2           6579 	mov	1,r26
                        6580 .L4182:
                        6581 --	    .ef

                                                                      Page 112
                                                              C:\Users\YINGAO~1\AppData\Local\Temp\gh_00008201.si
                        6582 .LDW731:
00001cbc 1a50           6583 	mov	r26,r10
00001cbe 4806ff70       6584 	dispose	4,{r25,r26,r27,r28,r29,r31},[lp]
                        6585 	.type	_R_ISM_SetCMPWMTable,@function
                        6586 	.size	_R_ISM_SetCMPWMTable,.-_R_ISM_SetCMPWMTable
                        6587 	.align	2
                        6588 .LDW831:
                        6589 --_ChannelType_u08	r29	local
                        6590 --_ChannelPrecision_u08	3[sp]	local
                        6591 --_PWMTableIndex_u16	r14	local
                        6592 --_DirectionIndex_u08	r12	local
                        6593 --_SpeedIndex_u08	r11	local
                        6594 --_src	ep	local
                        6595 --_dst	r10	local
                        6596 
                        6597 --_UnitNumber_u08	r13	param
                        6598 --_ChannelNumber_u08	r25	param
                        6599 --_ConfigSetStd_p	lp	param
                        6600 --_ConfigSetHi_p	r28	param
                        6601 
                        6602 	.data
                        6603 	.text
                        6604 
                        6605 --1764: }
                        6606 
                        6607 --1766: /*=============================================================================
                        6608 --1767:   FunctionName: R_ISM_SetTargetPos
                        6609 --1768:   IN  : UnitNumber: Selected Macro
                        6610 --1769:         ChannelNumber: Selected Channel
                        6611 --1770:   OUT : Error Flag
                        6612 --1771:   Description :
                        6613 --1772:   Set Target Position of a channel under CM
                        6614 --1773:   =============================================================================*/
                        6615 --1774: uint32_t R_ISM_SetCMTargetPos( uint8_t UnitNumber_u08,
                        6616 	.align	2
                        6617 	.align	2
                        6618 	.global	_R_ISM_SetCMTargetPos
                        6619 _R_ISM_SetCMTargetPos:
00001cc2 8007c100       6620 	prepare	{r28,r29},0
00001cc6 210600000000*  6621 	mov	_rism_p,r1
00001ccc c676ff00       6622 	andi	255,r6,r14
00001cd0 c76eff00       6623 	andi	255,r7,r13
00001cd4 0848           6624 	mov	r8,r9
00001cd6 0150           6625 	mov	r1,r10
00001cd8 2b0600000000*  6626 	mov	_R_ISM_Interrupt_REACHED_ACK_u08,r11
                        6627 --	    .bf
                        6628 .LDW931:
                        6629 --1775:                              uint8_t ChannelNumber_u08,
                        6630 --1776:                              uint32_t TargetPosition_u32 )
                        6631 --1777: {
                        6632 --1778:   if( UnitNumber_u08 >= R_ISM_MACRO_NUM ) return( R_ISM_ERR_NG );
00001cde 6172           6633 	cmp	1,r14
00001ce0 b105*          6634 	bl	.L4458
                        6635 --line1778
                        6636 ..lin.D.3A.5CRenesas_Electronics.5CD1x_RGL.5Crgl_ghs_D1Lx_obj_V1.2E2.2E0.5Cvlib.5Capp.5Cgfx_apps.5Csimple_draw_d1l2.5Ctarget.5Cd1lx_mango_ghs.5Cobj.5Cqlapbismv1_p.321::
                        6637 .LDWlin321:
00001ce2 0062           6638 	mov	0,r12
00001ce4 b525*          6639 	br	.L4456
                        6640 .L4458:
                        6641 --1779:   if( ChannelNumber_u08 >= R_ISM_CHANNELS ) return( R_ISM_ERR_NG );
                        6642 --line1779

                                                                      Page 113
                                                              C:\Users\YINGAO~1\AppData\Local\Temp\gh_00008201.si
                        6643 ..lin.D.3A.5CRenesas_Electronics.5CD1x_RGL.5Crgl_ghs_D1Lx_obj_V1.2E2.2E0.5Cvlib.5Capp.5Cgfx_apps.5Csimple_draw_d1l2.5Ctarget.5Cd1lx_mango_ghs.5Cobj.5Cqlapbismv1_p.322::
                        6644 .LDWlin322:
00001ce6 666a           6645 	cmp	6,r13
00001ce8 b105*          6646 	bl	.L4461
                        6647 --line1779
                        6648 ..lin.D.3A.5CRenesas_Electronics.5CD1x_RGL.5Crgl_ghs_D1Lx_obj_V1.2E2.2E0.5Cvlib.5Capp.5Cgfx_apps.5Csimple_draw_d1l2.5Ctarget.5Cd1lx_mango_ghs.5Cobj.5Cqlapbismv1_p.323::
                        6649 .LDWlin323:
00001cea 0062           6650 	mov	0,r12
00001cec f51d*          6651 	br	.L4456
                        6652 .L4461:
                        6653 --1781:   rism_p[ UnitNumber_u08 ]->set.ch[ ChannelNumber_u08 ].target = TargetPosition_u32;
                        6654 --line1781
                        6655 ..lin.D.3A.5CRenesas_Electronics.5CD1x_RGL.5Crgl_ghs_D1Lx_obj_V1.2E2.2E0.5Cvlib.5Capp.5Cgfx_apps.5Csimple_draw_d1l2.5Ctarget.5Cd1lx_mango_ghs.5Cobj.5Cqlapbismv1_p.324::
                        6656 .LDWlin324:
00001cee 0ef0           6657 	mov	r14,ep
00001cf0 c2f2           6658 	shl	2,ep
00001cf2 caf1           6659 	add	r10,ep
00001cf4 0065           6660 	sld.w	0[ep],r12
00001cf6 edf62800       6661 	mulhi	40,r13,ep
00001cfa 0c66c800       6662 	addi	200,r12,r12
00001cfe ccf1           6663 	add	r12,ep
00001d00 014d           6664 	sst.w	r9,0[ep]
                        6665 --1783:   /* Clear those REACHED IRQ, which have been processed by the application layers */
                        6666 --1785:   rism_p[ UnitNumber_u08 ]->gstc.clre =
00001d02 0ef0           6667 	mov	r14,ep
00001d04 c2f2           6668 	shl	2,ep
00001d06 caf1           6669 	add	r10,ep
00001d08 00f5           6670 	sld.w	0[ep],ep
00001d0a 0e60           6671 	mov	r14,r12
00001d0c cb61           6672 	add	r11,r12
00001d0e 8cef0100       6673 	ld.bu	0[r12],r29
00001d12 0c65           6674 	sld.w	24[ep],r12
00001d14 20e6c0ff       6675 	movea	-64,zero,r28
00001d18 ddee3f00       6676 	andi	63,r29,r29
00001d1c 5c61           6677 	and	r28,r12
00001d1e 1d61           6678 	or	r29,r12
00001d20 0d65           6679 	sst.w	r12,24[ep]
                        6680 --1786:     R_ISM_Interrupt_REACHED_ACK_u08[ UnitNumber_u08 ];
                        6681 --1788:   R_ISM_Interrupt_REACHED_ACK_u08[ UnitNumber_u08 ] = 0x00;
00001d22 0ef0           6682 	mov	r14,ep
00001d24 cbf1           6683 	add	r11,ep
00001d26 8003           6684 	sst.b	zero,0[ep]
                        6685 --1790:   return( R_ISM_ERR_OK );
00001d28 0162           6686 	mov	1,r12
                        6687 .L4456:
                        6688 --	    .ef
                        6689 .LDW041:
00001d2a 0c50           6690 	mov	r12,r10
00001d2c 4006df00       6691 	dispose	0,{r28,r29},[lp]
                        6692 	.type	_R_ISM_SetCMTargetPos,@function
                        6693 	.size	_R_ISM_SetCMTargetPos,.-_R_ISM_SetCMTargetPos
                        6694 	.align	2
                        6695 .LDW141:
                        6696 
                        6697 --_UnitNumber_u08	r14	param
                        6698 --_ChannelNumber_u08	r13	param
                        6699 --_TargetPosition_u32	r9	param
                        6700 
                        6701 	.data
                        6702 	.text
                        6703 

                                                                      Page 114
                                                              C:\Users\YINGAO~1\AppData\Local\Temp\gh_00008201.si
                        6704 --1791: }
                        6705 
                        6706 --1793: /*=============================================================================
                        6707 --1794:   FunctionName: R_ISM_GetTargetPos
                        6708 --1795:   IN  : UnitNumber: Selected Macro
                        6709 --1796:         ChannelNumber: Selected Channel
                        6710 --1797:   OUT : Error Flag
                        6711 --1798:   Description :
                        6712 --1799:   Get Target Position of a channel under CM
                        6713 --1800:   =============================================================================*/
                        6714 --1801: uint32_t R_ISM_GetCMTargetPos( uint8_t  UnitNumber_u08,
                        6715 	.align	2
                        6716 	.align	2
                        6717 	.global	_R_ISM_GetCMTargetPos
                        6718 _R_ISM_GetCMTargetPos:
00001d30 c676ff00       6719 	andi	255,r6,r14
00001d34 c76eff00       6720 	andi	255,r7,r13
00001d38 0860           6721 	mov	r8,r12
00001d3a 210600000000*  6722 	mov	_rism_p,r1
                        6723 --	    .bf
                        6724 .LDW241:
                        6725 --1802:                              uint8_t  ChannelNumber_u08,
                        6726 --1803:                              uint32_t* TargetPosition_pu32 )
                        6727 --1804: {
                        6728 --1805:   if( UnitNumber_u08 >= R_ISM_MACRO_NUM ) return( R_ISM_ERR_NG );
00001d40 6172           6729 	cmp	1,r14
00001d42 b105*          6730 	bl	.L4520
                        6731 --line1805
                        6732 ..lin.D.3A.5CRenesas_Electronics.5CD1x_RGL.5Crgl_ghs_D1Lx_obj_V1.2E2.2E0.5Cvlib.5Capp.5Cgfx_apps.5Csimple_draw_d1l2.5Ctarget.5Cd1lx_mango_ghs.5Cobj.5Cqlapbismv1_p.325::
                        6733 .LDWlin325:
00001d44 0052           6734 	mov	0,r10
00001d46 d515*          6735 	br	.L4518
                        6736 .L4520:
                        6737 --1806:   if( ChannelNumber_u08 >= R_ISM_CHANNELS ) return( R_ISM_ERR_NG );
                        6738 --line1806
                        6739 ..lin.D.3A.5CRenesas_Electronics.5CD1x_RGL.5Crgl_ghs_D1Lx_obj_V1.2E2.2E0.5Cvlib.5Capp.5Cgfx_apps.5Csimple_draw_d1l2.5Ctarget.5Cd1lx_mango_ghs.5Cobj.5Cqlapbismv1_p.326::
                        6740 .LDWlin326:
00001d48 666a           6741 	cmp	6,r13
00001d4a b105*          6742 	bl	.L4523
                        6743 --line1806
                        6744 ..lin.D.3A.5CRenesas_Electronics.5CD1x_RGL.5Crgl_ghs_D1Lx_obj_V1.2E2.2E0.5Cvlib.5Capp.5Cgfx_apps.5Csimple_draw_d1l2.5Ctarget.5Cd1lx_mango_ghs.5Cobj.5Cqlapbismv1_p.327::
                        6745 .LDWlin327:
00001d4c 0052           6746 	mov	0,r10
00001d4e 9515*          6747 	br	.L4518
                        6748 .L4523:
                        6749 --1808:   *TargetPosition_pu32 = rism_p[ UnitNumber_u08 ]->set.ch[ ChannelNumber_u08 ].target;
                        6750 --line1808
                        6751 ..lin.D.3A.5CRenesas_Electronics.5CD1x_RGL.5Crgl_ghs_D1Lx_obj_V1.2E2.2E0.5Cvlib.5Capp.5Cgfx_apps.5Csimple_draw_d1l2.5Ctarget.5Cd1lx_mango_ghs.5Cobj.5Cqlapbismv1_p.328::
                        6752 .LDWlin328:
00001d50 0ef0           6753 	mov	r14,ep
00001d52 c2f2           6754 	shl	2,ep
00001d54 210600000000*  6755 	mov	_rism_p,r1
00001d5a c1f1           6756 	add	r1,ep
00001d5c 000d           6757 	sld.w	0[ep],r1
00001d5e edf62800       6758 	mulhi	40,r13,ep
00001d62 010ec800       6759 	addi	200,r1,r1
00001d66 c1f1           6760 	add	r1,ep
00001d68 000d           6761 	sld.w	0[ep],r1
00001d6a 6c0f0100       6762 	st.w	r1,0[r12]
                        6763 --1810:   return( R_ISM_ERR_OK );
00001d6e 0152           6764 	mov	1,r10

                                                                      Page 115
                                                              C:\Users\YINGAO~1\AppData\Local\Temp\gh_00008201.si
                        6765 .L4518:
                        6766 --	    .ef
                        6767 .LDW341:
00001d70 7f00           6768 	jmp	[lp]
                        6769 	.type	_R_ISM_GetCMTargetPos,@function
                        6770 	.size	_R_ISM_GetCMTargetPos,.-_R_ISM_GetCMTargetPos
                        6771 	.align	2
                        6772 .LDW441:
                        6773 
                        6774 --_UnitNumber_u08	r14	param
                        6775 --_ChannelNumber_u08	r13	param
                        6776 --_TargetPosition_pu32	r12	param
                        6777 
                        6778 	.data
                        6779 	.text
                        6780 
                        6781 --1811: }
                        6782 
                        6783 --1813: /*=============================================================================
                        6784 --1814:   FunctionName: R_ISM_Reset
                        6785 --1815:   IN  : UnitNumber: Selected Macro
                        6786 --1816:         ChannelNumber: Selected Channel
                        6787 --1817:   OUT : Error Flag
                        6788 --1818:   Description :
                        6789 --1819:   Stop ISM by using the Soft Reset Function
                        6790 --1820:   =============================================================================*/
                        6791 --1821: uint32_t R_ISM_Reset( uint8_t UnitNumber_u08 )
                        6792 	.align	2
                        6793 	.align	2
                        6794 	.global	_R_ISM_Reset
                        6795 _R_ISM_Reset:
00001d72 210600000000*  6796 	mov	_rism_p,r1
00001d78 c676ff00       6797 	andi	255,r6,r14
00001d7c 0168           6798 	mov	r1,r13
                        6799 --	    .bf
                        6800 .LDW541:
                        6801 --1822: {
                        6802 --1823:   uint8_t ChannelNumber_u08;
                        6803 --1824:   uint32_t RecoveryDelay_u32;
                        6804 --1826:   if( UnitNumber_u08 >= R_ISM_MACRO_NUM ) return( R_ISM_ERR_NG );
00001d7e 6172           6805 	cmp	1,r14
00001d80 c105*          6806 	bl	.L4574
                        6807 --line1826
                        6808 ..lin.D.3A.5CRenesas_Electronics.5CD1x_RGL.5Crgl_ghs_D1Lx_obj_V1.2E2.2E0.5Cvlib.5Capp.5Cgfx_apps.5Csimple_draw_d1l2.5Ctarget.5Cd1lx_mango_ghs.5Cobj.5Cqlapbismv1_p.329::
                        6809 .LDWlin329:
00001d82 0052           6810 	mov	0,r10
00001d84 80075201*      6811 	br	.L4572
                        6812 .L4574:
                        6813 --1828:   /* Force the soft reset, this causes a recirculation via VDD */
                        6814 --1830:   rism_p[ UnitNumber_u08 ]->gctl.gen = 0;
                        6815 --line1830
                        6816 ..lin.D.3A.5CRenesas_Electronics.5CD1x_RGL.5Crgl_ghs_D1Lx_obj_V1.2E2.2E0.5Cvlib.5Capp.5Cgfx_apps.5Csimple_draw_d1l2.5Ctarget.5Cd1lx_mango_ghs.5Cobj.5Cqlapbismv1_p.330::
                        6817 .LDWlin330:
00001d88 0ef0           6818 	mov	r14,ep
00001d8a c2f2           6819 	shl	2,ep
00001d8c cdf1           6820 	add	r13,ep
00001d8e 00f5           6821 	sld.w	0[ep],ep
00001d90 2b06fffffeff   6822 	mov	-65537,r11
00001d96 0065           6823 	sld.w	0[ep],r12
00001d98 4b61           6824 	and	r11,r12
00001d9a 0165           6825 	sst.w	r12,0[ep]

                                                                      Page 116
                                                              C:\Users\YINGAO~1\AppData\Local\Temp\gh_00008201.si
                        6826 --1832:   /* Clear registers that shall be cleared after a soft reset */
                        6827 --1834:   rism_p[ UnitNumber_u08 ]->gctl.gce    = 0;
00001d9c 0ef0           6828 	mov	r14,ep
00001d9e c2f2           6829 	shl	2,ep
00001da0 cdf1           6830 	add	r13,ep
00001da2 205efffe       6831 	movea	-257,zero,r11
00001da6 00f5           6832 	sld.w	0[ep],ep
00001da8 0065           6833 	sld.w	0[ep],r12
00001daa 4b61           6834 	and	r11,r12
00001dac 0165           6835 	sst.w	r12,0[ep]
                        6836 --1835:   rism_p[ UnitNumber_u08 ]->gstr.cen    = R_ISM_CHANNELS_OFF;
00001dae 0ef0           6837 	mov	r14,ep
00001db0 c2f2           6838 	shl	2,ep
00001db2 cdf1           6839 	add	r13,ep
00001db4 205ec0ff       6840 	movea	-64,zero,r11
00001db8 00f5           6841 	sld.w	0[ep],ep
00001dba 0265           6842 	sld.w	4[ep],r12
00001dbc 4b61           6843 	and	r11,r12
00001dbe 0365           6844 	sst.w	r12,4[ep]
                        6845 --1836:   rism_p[ UnitNumber_u08 ]->gstc.clre   = R_ISM_CHANNEL_ENALL;
00001dc0 0ef0           6846 	mov	r14,ep
00001dc2 c2f2           6847 	shl	2,ep
00001dc4 cdf1           6848 	add	r13,ep
00001dc6 00f5           6849 	sld.w	0[ep],ep
00001dc8 0c65           6850 	sld.w	24[ep],r12
00001dca 8c663f00       6851 	ori	63,r12,r12
00001dce 0d65           6852 	sst.w	r12,24[ep]
                        6853 --1837:   rism_p[ UnitNumber_u08 ]->gstc.cldo   = 1;
00001dd0 0ef0           6854 	mov	r14,ep
00001dd2 c2f2           6855 	shl	2,ep
00001dd4 cdf1           6856 	add	r13,ep
00001dd6 00f5           6857 	sld.w	0[ep],ep
00001dd8 0c65           6858 	sld.w	24[ep],r12
00001dda 8c664000       6859 	ori	64,r12,r12
00001dde 0d65           6860 	sst.w	r12,24[ep]
                        6861 --1838:   rism_p[ UnitNumber_u08 ]->gstc.clad   = 1;
00001de0 0ef0           6862 	mov	r14,ep
00001de2 c2f2           6863 	shl	2,ep
00001de4 cdf1           6864 	add	r13,ep
00001de6 00f5           6865 	sld.w	0[ep],ep
00001de8 0c65           6866 	sld.w	24[ep],r12
00001dea 8c668000       6867 	ori	128,r12,r12
00001dee 0d65           6868 	sst.w	r12,24[ep]
                        6869 --1839:   rism_p[ UnitNumber_u08 ]->zpdctl.zmt  = R_ISM_CHANNELS_OFF;
00001df0 0ef0           6870 	mov	r14,ep
00001df2 c2f2           6871 	shl	2,ep
00001df4 cdf1           6872 	add	r13,ep
00001df6 205ec0ff       6873 	movea	-64,zero,r11
00001dfa 00f5           6874 	sld.w	0[ep],ep
00001dfc 4c65           6875 	sld.w	152[ep],r12
00001dfe 4b61           6876 	and	r11,r12
00001e00 4d65           6877 	sst.w	r12,152[ep]
                        6878 --1840:   rism_p[ UnitNumber_u08 ]->clzp        = R_ISM_CHANNELS_OFF;
00001e02 0ef0           6879 	mov	r14,ep
00001e04 c2f2           6880 	shl	2,ep
00001e06 cdf1           6881 	add	r13,ep
00001e08 00f5           6882 	sld.w	0[ep],ep
00001e0a 5505           6883 	sst.w	zero,168[ep]
                        6884 --1842:   for( ChannelNumber_u08 = 0;
00001e0c 0062           6885 	mov	0,r12
00001e0e 0000           6886 	nop

                                                                      Page 117
                                                              C:\Users\YINGAO~1\AppData\Local\Temp\gh_00008201.si
                        6887 .L4579:
                        6888 --1843:        ChannelNumber_u08 < R_ISM_CHANNELS;
                        6889 --1844:        ChannelNumber_u08++ )
                        6890 --1845:     {
                        6891 --1846:       rism_p[ UnitNumber_u08 ]->ccmr[ ChannelNumber_u08 ].czp =  0;
00001e10 0ef0           6892 	mov	r14,ep
00001e12 c2f2           6893 	shl	2,ep
00001e14 cdf1           6894 	add	r13,ep
00001e16 0055           6895 	sld.w	0[ep],r10
00001e18 0cf0           6896 	mov	r12,ep
00001e1a c2f2           6897 	shl	2,ep
00001e1c 0a561c00       6898 	addi	28,r10,r10
00001e20 caf1           6899 	add	r10,ep
00001e22 005d           6900 	sld.w	0[ep],r11
00001e24 2056bfff       6901 	movea	-65,zero,r10
00001e28 4a59           6902 	and	r10,r11
00001e2a 015d           6903 	sst.w	r11,0[ep]
                        6904 --1847:       rism_p[ UnitNumber_u08 ]->ccmp[ ChannelNumber_u08 ].cqi =  R_ISM_QUADRANT_1;
00001e2c 0ef0           6905 	mov	r14,ep
00001e2e c2f2           6906 	shl	2,ep
00001e30 cdf1           6907 	add	r13,ep
00001e32 0055           6908 	sld.w	0[ep],r10
00001e34 0cf0           6909 	mov	r12,ep
00001e36 c2f2           6910 	shl	2,ep
00001e38 0a564c00       6911 	addi	76,r10,r10
00001e3c caf1           6912 	add	r10,ep
00001e3e 005d           6913 	sld.w	0[ep],r11
00001e40 2a06ffffcfff   6914 	mov	-3145729,r10
00001e46 4a59           6915 	and	r10,r11
00001e48 015d           6916 	sst.w	r11,0[ep]
                        6917 --1848:       rism_p[ UnitNumber_u08 ]->ccmp[ ChannelNumber_u08 ].chp =  R_ISM_PWMDUTY_0;
00001e4a 0ef0           6918 	mov	r14,ep
00001e4c c2f2           6919 	shl	2,ep
00001e4e cdf1           6920 	add	r13,ep
00001e50 0055           6921 	sld.w	0[ep],r10
00001e52 0cf0           6922 	mov	r12,ep
00001e54 c2f2           6923 	shl	2,ep
00001e56 0a564c00       6924 	addi	76,r10,r10
00001e5a caf1           6925 	add	r10,ep
00001e5c 005d           6926 	sld.w	0[ep],r11
00001e5e 2a06ff03f0ff   6927 	mov	-1047553,r10
00001e64 4a59           6928 	and	r10,r11
00001e66 015d           6929 	sst.w	r11,0[ep]
                        6930 --1849:       rism_p[ UnitNumber_u08 ]->ccmp[ ChannelNumber_u08 ].cvp =  R_ISM_PWMDUTY_0;
00001e68 0ef0           6931 	mov	r14,ep
00001e6a c2f2           6932 	shl	2,ep
00001e6c cdf1           6933 	add	r13,ep
00001e6e 0055           6934 	sld.w	0[ep],r10
00001e70 0cf0           6935 	mov	r12,ep
00001e72 c2f2           6936 	shl	2,ep
00001e74 0a564c00       6937 	addi	76,r10,r10
00001e78 caf1           6938 	add	r10,ep
00001e7a 005d           6939 	sld.w	0[ep],r11
00001e7c 205600fc       6940 	movea	-1024,zero,r10
00001e80 4a59           6941 	and	r10,r11
00001e82 015d           6942 	sst.w	r11,0[ep]
                        6943 --1850:       rism_p[ UnitNumber_u08 ]->cioc[ ChannelNumber_u08 ]    &= ~R_ISM_DIRECT_EN;
00001e84 0ef0           6944 	mov	r14,ep
00001e86 c2f2           6945 	shl	2,ep
00001e88 cdf1           6946 	add	r13,ep
00001e8a 0055           6947 	sld.w	0[ep],r10

                                                                      Page 118
                                                              C:\Users\YINGAO~1\AppData\Local\Temp\gh_00008201.si
00001e8c 0cf0           6948 	mov	r12,ep
00001e8e c2f2           6949 	shl	2,ep
00001e90 0a567c00       6950 	addi	124,r10,r10
00001e94 caf1           6951 	add	r10,ep
00001e96 005d           6952 	sld.w	0[ep],r11
00001e98 2a06fffffffc   6953 	mov	-50331649,r10
00001e9e 4a59           6954 	and	r10,r11
00001ea0 015d           6955 	sst.w	r11,0[ep]
00001ea2 4162           6956 	add	1,r12
00001ea4 8c00           6957 	zxb	r12
00001ea6 6662           6958 	cmp	6,r12
00001ea8 c1b5*          6959 	bl	.L4579
                        6960 --1851:     }
                        6961 --1853:   /* SW Delay to allow the recirculation calm down */
                        6962 --1855:   for( RecoveryDelay_u32 = 0;
                        6963 --line1855
                        6964 ..lin.D.3A.5CRenesas_Electronics.5CD1x_RGL.5Crgl_ghs_D1Lx_obj_V1.2E2.2E0.5Cvlib.5Capp.5Cgfx_apps.5Csimple_draw_d1l2.5Ctarget.5Cd1lx_mango_ghs.5Cobj.5Cqlapbismv1_p.331::
                        6965 .LDWlin331:
00001eaa 005a           6966 	mov	0,r11
00001eac a505*          6967 	br	.L4583
                        6968 .L4581:
                        6969 --line1855
                        6970 ..lin.D.3A.5CRenesas_Electronics.5CD1x_RGL.5Crgl_ghs_D1Lx_obj_V1.2E2.2E0.5Cvlib.5Capp.5Cgfx_apps.5Csimple_draw_d1l2.5Ctarget.5Cd1lx_mango_ghs.5Cobj.5Cqlapbismv1_p.332::
                        6971 .LDWlin332:
00001eae 415a           6972 	add	1,r11
                        6973 .L4583:
00001eb0 0b06f0d8       6974 	addi	-10000,r11,zero
00001eb4 d9fd*          6975 	bnl	.L4581
                        6976 --1856:        RecoveryDelay_u32 < R_ISM_RECOVERYDELAY;
                        6977 --1857:        RecoveryDelay_u32++ );
                        6978 --1859:   /* Disable all outputs, after inductive load is discharged */
                        6979 --1860:   /* Requirement for this depends on implementation of drivers */
                        6980 --1862: #if( R_ISM_SWRESET_PDISABLE )
                        6981 --1863:   for( ChannelNumber_u08 = 0;
                        6982 --1864:        ChannelNumber_u08 < R_ISM_CHANNELS;
                        6983 --1865:        ChannelNumber_u08++ )
                        6984 --1866:     {
                        6985 --1867:       R_ISM_PortDisable( UnitNumber_u08, ChannelNumber_u08 );
                        6986 --1868:     }
                        6987 --1869: #endif
                        6988 --1871:   /* Re-Enable ISM */
                        6989 --1873:   rism_p[ UnitNumber_u08 ]->gctl.gen = 1;
                        6990 --line1873
                        6991 ..lin.D.3A.5CRenesas_Electronics.5CD1x_RGL.5Crgl_ghs_D1Lx_obj_V1.2E2.2E0.5Cvlib.5Capp.5Cgfx_apps.5Csimple_draw_d1l2.5Ctarget.5Cd1lx_mango_ghs.5Cobj.5Cqlapbismv1_p.333::
                        6992 .LDWlin333:
00001eb6 0ef0           6993 	mov	r14,ep
00001eb8 c2f2           6994 	shl	2,ep
00001eba cdf1           6995 	add	r13,ep
00001ebc 404e0100       6996 	movhi	hi(65536),zero,r9
00001ec0 00f5           6997 	sld.w	0[ep],ep
00001ec2 0055           6998 	sld.w	0[ep],r10
00001ec4 0951           6999 	or	r9,r10
00001ec6 0155           7000 	sst.w	r10,0[ep]
                        7001 --1875:   /* SW Delay to feed the cleared PWM settings */
                        7002 --1877:   for( RecoveryDelay_u32 = 0;
00001ec8 005a           7003 	mov	0,r11
00001eca a505*          7004 	br	.L4587
                        7005 .L4585:
                        7006 --line1877
                        7007 ..lin.D.3A.5CRenesas_Electronics.5CD1x_RGL.5Crgl_ghs_D1Lx_obj_V1.2E2.2E0.5Cvlib.5Capp.5Cgfx_apps.5Csimple_draw_d1l2.5Ctarget.5Cd1lx_mango_ghs.5Cobj.5Cqlapbismv1_p.334::
                        7008 .LDWlin334:

                                                                      Page 119
                                                              C:\Users\YINGAO~1\AppData\Local\Temp\gh_00008201.si
00001ecc 415a           7009 	add	1,r11
                        7010 .L4587:
00001ece 0b06f0d8       7011 	addi	-10000,r11,zero
00001ed2 d9fd*          7012 	bnl	.L4585
                        7013 --1878:        RecoveryDelay_u32 < R_ISM_RECOVERYDELAY;
                        7014 --1879:        RecoveryDelay_u32++ );
                        7015 --1881:   return( R_ISM_ERR_OK );
                        7016 --line1881
                        7017 ..lin.D.3A.5CRenesas_Electronics.5CD1x_RGL.5Crgl_ghs_D1Lx_obj_V1.2E2.2E0.5Cvlib.5Capp.5Cgfx_apps.5Csimple_draw_d1l2.5Ctarget.5Cd1lx_mango_ghs.5Cobj.5Cqlapbismv1_p.335::
                        7018 .LDWlin335:
00001ed4 0152           7019 	mov	1,r10
                        7020 .L4572:
                        7021 --	    .ef
                        7022 .LDW641:
00001ed6 7f00           7023 	jmp	[lp]
                        7024 	.type	_R_ISM_Reset,@function
                        7025 	.size	_R_ISM_Reset,.-_R_ISM_Reset
                        7026 	.align	2
                        7027 .LDW741:
                        7028 --_ChannelNumber_u08	r12	local
                        7029 --_RecoveryDelay_u32	r11	local
                        7030 
                        7031 --_UnitNumber_u08	r14	param
                        7032 
                        7033 	.data
                        7034 	.text
                        7035 
                        7036 --1882: }
                        7037 	.align	2
                        7038 --_R_ISM_CIVector	_R_ISM_CIVector	static
                        7039 --_rism_p	_rism_p	static
                        7040 --_rism_pwm_p	_rism_pwm_p	static
                        7041 --_rism_zpd_p	_rism_zpd_p	static
                        7042 --_R_ISM_A_STDZPDTABLE1	_R_ISM_A_STDZPDTABLE1	import
                        7043 --_R_ISM_A_STDZPDTABLE2	_R_ISM_A_STDZPDTABLE2	import
                        7044 --_R_ISM_A_STDZPDTABLE3	_R_ISM_A_STDZPDTABLE3	import
                        7045 
                        7046 	.data
                        7047 	.global	_R_ISM_Interrupt_DONE_bit
0000000c 00000000       7048 _R_ISM_Interrupt_DONE_bit:	.byte	0,0,0,0
                        7049 	.type	_R_ISM_Interrupt_DONE_bit,@object
                        7050 	.size	_R_ISM_Interrupt_DONE_bit,4
                        7051 	.global	_R_ISM_Interrupt_ZPDAD_bit
00000010 00000000       7052 _R_ISM_Interrupt_ZPDAD_bit:	.byte	0,0,0,0
                        7053 	.type	_R_ISM_Interrupt_ZPDAD_bit,@object
                        7054 	.size	_R_ISM_Interrupt_ZPDAD_bit,4
                        7055 	.global	_R_ISM_Interrupt_ZPD_bit
00000014 00000000       7056 _R_ISM_Interrupt_ZPD_bit:	.byte	0,0,0,0
                        7057 	.type	_R_ISM_Interrupt_ZPD_bit,@object
                        7058 	.size	_R_ISM_Interrupt_ZPD_bit,4
                        7059 	.global	_R_ISM_Interrupt_REACHED_u08
00000018 00             7060 _R_ISM_Interrupt_REACHED_u08:	.space	1
                        7061 	.type	_R_ISM_Interrupt_REACHED_u08,@object
                        7062 	.size	_R_ISM_Interrupt_REACHED_u08,1
                        7063 	.global	_R_ISM_Interrupt_REACHED_ACK_u08
00000019 00             7064 _R_ISM_Interrupt_REACHED_ACK_u08:	.space	1
                        7065 	.type	_R_ISM_Interrupt_REACHED_ACK_u08,@object
                        7066 	.size	_R_ISM_Interrupt_REACHED_ACK_u08,1
0000001a 0000           7067 	.space	2
                        7068 	.global	_zpdtbl
0000001c 00000000*      7069 _zpdtbl:	.word	_R_ISM_A_STDZPDTABLE1

                                                                      Page 120
                                                              C:\Users\YINGAO~1\AppData\Local\Temp\gh_00008201.si
00000020 00000000*      7070 	.word	_R_ISM_A_STDZPDTABLE2
00000024 00000000*      7071 	.word	_R_ISM_A_STDZPDTABLE3
                        7072 	.type	_zpdtbl,@object
                        7073 	.size	_zpdtbl,12
                        7074 	.ghsnote version,14
                        7075 	.ghsnote tools,3
                        7076 	.ghsnote options,144
                        7077 	.text
                        7078 	.align	2
                        7079 ..eof.D.3A.5CRenesas_Electronics.5CD1x_RGL.5Crgl_ghs_D1Lx_obj_V1.2E2.2E0.5Cvlib.5Capp.5Cgfx_apps.5Csimple_draw_d1l2.5Ctarget.5Cd1lx_mango_ghs.5Cobj.5Cqlapbismv1_p...44.3A.5CRenesas_Electronics.5CD1x_RGL.5Crgl_ghs_D1Lx_obj_V1.2E2.2E0.5Cvlib.5Capp.5Cgfx_apps.5Csimple_draw_d1l2.5Ctarget.5Cd1lx_mango_ghs..5A74035F..0::
                        7080 .rh850_flags DOUBLE,FLOAT,REGMODE22,DATA_ALIGN8,GP_FIX,EP_NONFIX,TP_FIX,REG2_RESERVE,DOUBLE64,G3M
