                                                                      Page 1
                                                              C:\Users\YINGAO~1\AppData\Local\Temp\gh_000010s1.si
Command Line: C:\ghs\comp_201355\ease850.exe -w -elf -b0 -ID:\Renesas_Electronics\D1x_RGL\rgl_ghs_D1Lx_obj_V1.2.0\vlib\macro\flashc\sfma\lib -I../../../../../Device -I../../../../../Driver/ADCE -I../../../../../Driver/CLOCK -I../../../../../Driver/DIO -I../../../../../Driver/DSPI -I../../../../../Driver/Interrupt -I../../../../../Driver/ISM -I../../../../../Driver/OSTM -I../../../../../Driver/PWM -I../../../../../Driver/RSTC -I../../../../../Driver/RTCA -I../../../../../Driver/STBC -I../../../../../Driver/TAUB -I../../../../../Driver/WDT -I../../../../../middleware\ADM -I../../../../../middleware\BPM -I../../../../../middleware\EED -I../../../../../middleware\IOM -I../../../../../middleware\LRM -I../../../../../middleware\MOM -I../../../../../middleware\PWMM -I../../../../../Common -I../../../../../Applayer\DSM -I../../../../../Applayer\FM -I../../../../../Applayer\TPM -I../../../../../Applayer\ACC -I../../../../../Applayer\ASS -I../../../../../Applayer\BAT -I../../../../../Applayer\COM -I../../../../../Applayer\COM\vtp -I../../../../../Applayer\COM\vtp\lib -I../../../../../Applayer\CRUS -I../../../../../Applayer\DIAG -I../../../../../Applayer\FC -I../../../../../Applayer\FL -I../../../../../Applayer\HSD -I../../../../../Applayer\IDLE -I../../../../../Applayer\ILLU -I../../../../../Applayer\LED -I../../../../../Applayer\MSG -I../../../../../Applayer\NVM -I../../../../../Applayer\ODO -I../../../../../Applayer\PWR -I../../../../../Applayer\RANG -I../../../../../Applayer\RST -I../../../../../Applayer\RTC -I../../../../../Applayer\SCS -I../../../../../Applayer\SSB -I../../../../../Applayer\ST -I../../../../../Applayer\STSMG -I../../../../../Applayer\SYS -I../../../../../Applayer\TIP -I../../../../../Applayer\TRIP -I../../../../../Applayer\CHM -I../../../../../Applayer\DM -I../../../../../Applayer\EVT -I../../../../../Applayer\FTR -I../../../../../Applayer\SLF -I../../../../../Applayer\NWD -I../../../../../Applayer\TPMS -I../../../../../Applayer\WFM -I../../../../../Applayer\NZM -I../../../../../app/gfx_apps/simple_draw_d1l2/src -I../../../../../bsp/board//config -I../../../../../bsp/board//src/gfx -I../../../../../bsp/board//src/hmi -I../../../../../bsp/board//src/stdio -I../../../../../bsp/board/d1lx_mango/config -I../../../../../bsp/board/d1lx_mango/src -I../../../../../bsp/board/d1lx_mango/src/gfx -I../../../../../bsp/board/d1lx_mango/src/hmi -I../../../../../bsp/board/d1lx_mango/src/stdio -I../../../../../bsp/gfx/lib -I../../../../../bsp/gfx/src -I../../../../../bsp/hmi/lib -I../../../../../bsp/hmi/src -I../../../../../bsp/lib -I../../../../../bsp/stdio/lib -I../../../../../bsp/stdio/src -I../../../../../cdi/lib -I../../../../../cdi/src -I../../../../../compiler/rh850_ghs/inc -I../../../../../device/d1lx/lib -I../../../../../device/d1lx/macro_cfg -I../../../../../device/d1lx/src/dev -I../../../../../device/d1lx/src/rh850_ghs -I../../../../../device/d1x_common/macro_cfg -I../../../../../device/d1x_common/src/csisw -I../../../../../device/d1x_common/src/ddb -I../../../../../device/d1x_common/src/dev -I../../../../../device/d1x_common/src/gfxbus -I../../../../../device/d1x_common/src/gpio -I../../../../../device/d1x_common/src/ostm -I../../../../../device/d1x_common/src/pbg -I../../../../../device/d1x_common/src/riic -I../../../../../device/d1x_common/src/sfma -I../../../../../device/d1x_common/src/spea -I../../../../../device/d1x_common/src/tauj -I../../../../../device/d1x_common/src/tick -I../../../../../device/d1x_common/src/vdce -I../../../../../device/d1x_common/src/wm -I../../../../../device/d1x_common/src/xbus -I../../../../../device/lib -I../../../../../macro/bus/pbg/lib -I../../../../../macro/bus/pbg/src -I../../../../../macro/csi/csisw/lib -I../../../../../macro/csi/csisw/src -I../../../../../macro/drw2d/lib -I../../../../../macro/drw2d/platform/cpu -I../../../../../macro/drw2d/platform/os/no_os -I../../../../../macro/drw2d/src -I../../../../../macro/flashc/sfcdb/lib -I../../../../../macro/flashc/sfcdb/src -I../../../../../macro/flashc/sfma/lib -I../../../../../macro/flashc/sfma/src -I../../../../../macro/gfxbus/lib -I../../../../../macro/gfxbus/src -I../../../../../macro/gfxbus/xbus/lib -I../../../../../macro/gfxbus/xbus/src -I../../../../../macro/gpio/lib -I../../../../../macro/gpio/src -I../../../../../macro/i2c/riic/lib -I../../../../../macro/i2c/riic/src -I../../../../../macro/tick/lib -I../../../../../macro/tick/src -I../../../../../macro/timer/ostm/lib -I../../../../../macro/timer/ostm/src -I../../../../../macro/timer/tauj/lib -I../../../../../macro/timer/tauj/src -I../../../../../macro/vdce/lib -I../../../../../macro/vdce/src -I../../../../../macro/vo/ddb/lib -I../../../../../macro/vo/ddb/src -I../../../../../macro/vo/spea/lib -I../../../../../macro/vo/spea/src -I../../../../../macro/wm/lib -I../../../../../macro/wm/src -I../../../../../app/gfx_apps/simple_draw_d1l2/src/QD_HMI -I../../../../../app/gfx_apps/simple_draw_d1l2/src/QD_HMI/HMI_Data -IC:\ghs\comp_201355\lib\rh850_22 -cg_underscore -cpu=rh850g3m -no_v850_simd -nomacro -patch_dbo=D:\Renesas_Electronics\D1x_RGL\rgl_ghs_D1Lx_obj_V1.2.0\vlib\app\gfx_apps\simple_draw_d1l2\target\d1lx_mango_ghs\obj\r_bsp_stdio_main.dbo -source=r_bsp_stdio_main.c -o .\obj\gh_000010s1.o -list=.\obj\r_bsp_stdio_main.lst C:\Users\YINGAO~1\AppData\Local\Temp\gh_000010s1.si 
Original File: C:\Users\YINGAO~1\AppData\Local\Temp\gh_000010s1.si
Source File: r_bsp_stdio_main.c
Directory: D:\Renesas_Electronics\D1x_RGL\rgl_ghs_D1Lx_obj_V1.2.0\vlib\app\gfx_apps\simple_draw_d1l2\target\d1lx_mango_ghs
Host OS: Windows 7 Service Pack 1
EASE: Copyright (C) 1983-2013 Green Hills Software.  All Rights Reversed.
Release: Compiler v2013.5.5
Build Directory: [Directory] BTOWINBOX:c:/build_2013_5_bto/2013-10-04.1311-2013_5_bto/win32-comp-ecom
Revision: [VCInfo] http://toolsvc/branches/release-branch-2013-5-bto/src@496240 (built by build)
Revision Date: Sat Oct 05 04:54:43 2013

Release Date: Sat Oct 05 05:20:49 2013

                           1 --Driver Command: ccv850 -c -MD
                           2 --		-ID:\Renesas_Electronics\D1x_RGL\rgl_ghs_D1Lx_obj_V1.2.0\vlib\macro\flashc\sfma\lib
                           3 --		-I../../../../../Device -I../../../../../Driver/ADCE
                           4 --		-I../../../../../Driver/CLOCK -I../../../../../Driver/DIO
                           5 --		-I../../../../../Driver/DSPI -I../../../../../Driver/Interrupt
                           6 --		-I../../../../../Driver/ISM -I../../../../../Driver/OSTM
                           7 --		-I../../../../../Driver/PWM -I../../../../../Driver/RSTC
                           8 --		-I../../../../../Driver/RTCA -I../../../../../Driver/STBC
                           9 --		-I../../../../../Driver/TAUB -I../../../../../Driver/WDT
                          10 --		-I../../../../../middleware\ADM -I../../../../../middleware\BPM
                          11 --		-I../../../../../middleware\EED -I../../../../../middleware\IOM
                          12 --		-I../../../../../middleware\LRM -I../../../../../middleware\MOM
                          13 --		-I../../../../../middleware\PWMM -I../../../../../Common
                          14 --		-I../../../../../Applayer\DSM -I../../../../../Applayer\FM
                          15 --		-I../../../../../Applayer\TPM -I../../../../../Applayer\ACC
                          16 --		-I../../../../../Applayer\ASS -I../../../../../Applayer\BAT
                          17 --		-I../../../../../Applayer\COM -I../../../../../Applayer\COM\vtp
                          18 --		-I../../../../../Applayer\COM\vtp\lib
                          19 --		-I../../../../../Applayer\CRUS -I../../../../../Applayer\DIAG
                          20 --		-I../../../../../Applayer\FC -I../../../../../Applayer\FL
                          21 --		-I../../../../../Applayer\HSD -I../../../../../Applayer\IDLE
                          22 --		-I../../../../../Applayer\ILLU -I../../../../../Applayer\LED
                          23 --		-I../../../../../Applayer\MSG -I../../../../../Applayer\NVM
                          24 --		-I../../../../../Applayer\ODO -I../../../../../Applayer\PWR
                          25 --		-I../../../../../Applayer\RANG -I../../../../../Applayer\RST
                          26 --		-I../../../../../Applayer\RTC -I../../../../../Applayer\SCS
                          27 --		-I../../../../../Applayer\SSB -I../../../../../Applayer\ST
                          28 --		-I../../../../../Applayer\STSMG -I../../../../../Applayer\SYS
                          29 --		-I../../../../../Applayer\TIP -I../../../../../Applayer\TRIP
                          30 --		-I../../../../../Applayer\CHM -I../../../../../Applayer\DM
                          31 --		-I../../../../../Applayer\EVT -I../../../../../Applayer\FTR
                          32 --		-I../../../../../Applayer\SLF -I../../../../../Applayer\NWD
                          33 --		-I../../../../../Applayer\TPMS -I../../../../../Applayer\WFM
                          34 --		-I../../../../../Applayer\NZM
                          35 --		-I../../../../../app/gfx_apps/simple_draw_d1l2/src
                          36 --		-I../../../../../bsp/board//config
                          37 --		-I../../../../../bsp/board//src/gfx
                          38 --		-I../../../../../bsp/board//src/hmi
                          39 --		-I../../../../../bsp/board//src/stdio
                          40 --		-I../../../../../bsp/board/d1lx_mango/config
                          41 --		-I../../../../../bsp/board/d1lx_mango/src
                          42 --		-I../../../../../bsp/board/d1lx_mango/src/gfx
                          43 --		-I../../../../../bsp/board/d1lx_mango/src/hmi
                          44 --		-I../../../../../bsp/board/d1lx_mango/src/stdio
                          45 --		-I../../../../../bsp/gfx/lib -I../../../../../bsp/gfx/src
                          46 --		-I../../../../../bsp/hmi/lib -I../../../../../bsp/hmi/src
                          47 --		-I../../../../../bsp/lib -I../../../../../bsp/stdio/lib
                          48 --		-I../../../../../bsp/stdio/src -I../../../../../cdi/lib
                          49 --		-I../../../../../cdi/src -I../../../../../compiler/rh850_ghs/inc
                          50 --		-I../../../../../device/d1lx/lib

                                                                      Page 2
                                                              C:\Users\YINGAO~1\AppData\Local\Temp\gh_000010s1.si
                          51 --		-I../../../../../device/d1lx/macro_cfg
                          52 --		-I../../../../../device/d1lx/src/dev
                          53 --		-I../../../../../device/d1lx/src/rh850_ghs
                          54 --		-I../../../../../device/d1x_common/macro_cfg
                          55 --		-I../../../../../device/d1x_common/src/csisw
                          56 --		-I../../../../../device/d1x_common/src/ddb
                          57 --		-I../../../../../device/d1x_common/src/dev
                          58 --		-I../../../../../device/d1x_common/src/gfxbus
                          59 --		-I../../../../../device/d1x_common/src/gpio
                          60 --		-I../../../../../device/d1x_common/src/ostm
                          61 --		-I../../../../../device/d1x_common/src/pbg
                          62 --		-I../../../../../device/d1x_common/src/riic
                          63 --		-I../../../../../device/d1x_common/src/sfma
                          64 --		-I../../../../../device/d1x_common/src/spea
                          65 --		-I../../../../../device/d1x_common/src/tauj
                          66 --		-I../../../../../device/d1x_common/src/tick
                          67 --		-I../../../../../device/d1x_common/src/vdce
                          68 --		-I../../../../../device/d1x_common/src/wm
                          69 --		-I../../../../../device/d1x_common/src/xbus
                          70 --		-I../../../../../device/lib -I../../../../../macro/bus/pbg/lib
                          71 --		-I../../../../../macro/bus/pbg/src
                          72 --		-I../../../../../macro/csi/csisw/lib
                          73 --		-I../../../../../macro/csi/csisw/src
                          74 --		-I../../../../../macro/drw2d/lib
                          75 --		-I../../../../../macro/drw2d/platform/cpu
                          76 --		-I../../../../../macro/drw2d/platform/os/no_os
                          77 --		-I../../../../../macro/drw2d/src
                          78 --		-I../../../../../macro/flashc/sfcdb/lib
                          79 --		-I../../../../../macro/flashc/sfcdb/src
                          80 --		-I../../../../../macro/flashc/sfma/lib
                          81 --		-I../../../../../macro/flashc/sfma/src
                          82 --		-I../../../../../macro/gfxbus/lib
                          83 --		-I../../../../../macro/gfxbus/src
                          84 --		-I../../../../../macro/gfxbus/xbus/lib
                          85 --		-I../../../../../macro/gfxbus/xbus/src
                          86 --		-I../../../../../macro/gpio/lib -I../../../../../macro/gpio/src
                          87 --		-I../../../../../macro/i2c/riic/lib
                          88 --		-I../../../../../macro/i2c/riic/src
                          89 --		-I../../../../../macro/tick/lib -I../../../../../macro/tick/src
                          90 --		-I../../../../../macro/timer/ostm/lib
                          91 --		-I../../../../../macro/timer/ostm/src
                          92 --		-I../../../../../macro/timer/tauj/lib
                          93 --		-I../../../../../macro/timer/tauj/src
                          94 --		-I../../../../../macro/vdce/lib -I../../../../../macro/vdce/src
                          95 --		-I../../../../../macro/vo/ddb/lib
                          96 --		-I../../../../../macro/vo/ddb/src
                          97 --		-I../../../../../macro/vo/spea/lib
                          98 --		-I../../../../../macro/vo/spea/src -I../../../../../macro/wm/lib
                          99 --		-I../../../../../macro/wm/src
                         100 --		-I../../../../../app/gfx_apps/simple_draw_d1l2/src/QD_HMI
                         101 --		-I../../../../../app/gfx_apps/simple_draw_d1l2/src/QD_HMI/HMI_Data
                         102 --		-G --no_commons --no_implicit_include --prototype_errors
                         103 --		-DR_DRW2D_OS_NO_OS -DR_DRW2D_SYS_CPU -DUSED_CPU=RH850G3M
                         104 --		-DUSE_BSP_GFX -DUSE_BSP_HMI -DUSE_BSP_STDIO -DUSE_CDI -DUSE_CSISW
                         105 --		-DUSE_DDB -DUSE_DRW2D -DUSE_GFXBUS -DUSE_GPIO -DUSE_OSTM
                         106 --		-DUSE_PBG -DUSE_RIIC -DUSE_SFCDB -DUSE_SFMA -DUSE_SPEA -DUSE_TAUJ
                         107 --		-DUSE_TICK -DUSE_VDCE -DUSE_WM -DUSE_XBUS -MD -Mn -Mx -Zuse1bit
                         108 --		-allocate_ep -cpu=rh850g3m -entry=_RESET -large_sda -list
                         109 --		-no_callt -notda -passsource -preprocess_assembly_files
                         110 --		-registermode=22 -reserve_r2 --diag_warning 1 -object_dir=./obj
                         111 --		-filetype.c ..\..\..\..\..\bsp\stdio\src\r_bsp_stdio_main.c -o

                                                                      Page 3
                                                              C:\Users\YINGAO~1\AppData\Local\Temp\gh_000010s1.si
                         112 --		.\obj\r_bsp_stdio_main.o
                         113 --Source File:   ..\..\..\..\..\bsp\stdio\src\r_bsp_stdio_main.c
                         114 --Directory:     
                         115 --		D:\Renesas_Electronics\D1x_RGL\rgl_ghs_D1Lx_obj_V1.2.0\vlib\app\gfx_apps\simple_draw_d1l2\target\d1lx_mango_ghs
                         116 --Compile Date:  Fri Feb 02 14:21:54 2018
                         117 --Host OS:       Win32
                         118 --Version:       C-RH850 2013.5.5 DEVELOPMENT VERSION
                         119 --Release:       Compiler v2013.5.5
                         120 --Revision Date: Sat Oct 05 05:01:20 2013
                         121 --Release Date:  Sat Oct 05 05:22:44 2013
                         122 -- ecom  -g -w
                         123 
                         124 --1: /*
                         125 --2: ****************************************************************************
                         126 --3: PROJECT : Application test framework
                         127 --4: FILE    : $Id: r_bsp_stdio_main.c 7262 2016-01-15 13:34:37Z michael.golczewski $
                         128 --5: ============================================================================
                         129 --6: DESCRIPTION
                         130 --7: STD I/O handling support
                         131 --8: ============================================================================
                         132 --9:                             C O P Y R I G H T                            
                         133 --10: ============================================================================
                         134 --11:                            Copyright (c) 2014
                         135 --12:                                   by 
                         136 --13:                        Renesas Electronics (Europe) GmbH. 
                         137 --14:                            Arcadiastrasse 10
                         138 --15:                           D-40472 Duesseldorf
                         139 --16:                                Germany
                         140 --17:                           All rights reserved.
                         141 --18: ============================================================================
                         142 --19: Purpose: only for testing
                         143 --21: DISCLAIMER                                                                   
                         144 --22: This software is supplied by Renesas Electronics Corporation and is only     
                         145 --23: intended for use with Renesas products. No other uses are authorized. This   
                         146 --24: software is owned by Renesas Electronics Corporation and is protected under  
                         147 --25: all applicable laws, including copyright laws.                               
                         148 --26: THIS SOFTWARE IS PROVIDED "AS IS" AND RENESAS MAKES NO WARRANTIES REGARDING  
                         149 --27: THIS SOFTWARE, WHETHER EXPRESS, IMPLIED OR STATUTORY, INCLUDING BUT NOT      
                         150 --28: LIMITED TO WARRANTIES OF MERCHANTABILITY, FITNESS FOR A PARTICULAR PURPOSE   
                         151 --29: AND NON-INFRINGEMENT. ALL SUCH WARRANTIES ARE EXPRESSLY DISCLAIMED.          
                         152 --30: TO THE MAXIMUM EXTENT PERMITTED NOT PROHIBITED BY LAW, NEITHER RENESAS       
                         153 --31: ELECTRONICS CORPORATION NOR ANY OF ITS AFFILIATED COMPANIES SHALL BE LIABLE  
                         154 --32: FOR ANY DIRECT, INDIRECT, SPECIAL, INCIDENTAL OR CONSEQUENTIAL DAMAGES FOR   
                         155 --33: ANY REASON RELATED TO THIS SOFTWARE, EVEN IF RENESAS OR ITS AFFILIATES HAVE  
                         156 --34: BEEN ADVISED OF THE POSSIBILITY OF SUCH DAMAGES.                             
                         157 --35: Renesas reserves the right, without notice, to make changes to this software 
                         158 --36: and to discontinue the availability of this software. By using this software,
                         159 --37: you agree to the additional terms and conditions found by accessing the      
                         160 --38: following link:                                                              
                         161 --39: http://www.renesas.com/disclaimer *                                          
                         162 --40: Copyright (C) 2011 Renesas Electronics Corporation. All rights reserved.     
                         163 --42: ****************************************************************************
                         164 --44: */
                         165 --47: /*******************************************************************************
                         166 --48:   Section: Includes
                         167 --49: */
                         168 --51: #include <stdarg.h>
                         169 --52: #include <stdio.h>
                         170 --53: #include <stdlib.h>
                         171 --55: #include "r_typedefs.h"
                         172 --56: #include "r_bsp_stdio_api.h"

                                                                      Page 4
                                                              C:\Users\YINGAO~1\AppData\Local\Temp\gh_000010s1.si
                         173 --57: #include "r_bsp_stdio_sys.h"
                         174 --58: #include "r_bsp_board_config.h"
                         175 --61: /*******************************************************************************
                         176 --62:   Section: Local Constants
                         177 --63: */
                         178 --65: /*******************************************************************************
                         179 --66:   Define: LOC_BUFFER_MAXSIZE
                         180 --68:   Printf buffer max size.
                         181 --69: */
                         182 --70: #define LOC_BUFFER_MAXSIZE 250
                         183 --73: /*******************************************************************************
                         184 --74:   Section: Local Variables
                         185 --75: */
                         186 --77: /*******************************************************************************
                         187 --78:   Variable: loc_Buffer
                         188 --80:   Buffer for String output
                         189 --81: */
                         190 --82: static char loc_Buffer[LOC_BUFFER_MAXSIZE];
                         191 --84: /*******************************************************************************
                         192 --85:   Variable: loc_UsedIo
                         193 --87:   Flag indication if the internall debugger I/O pane should be used, 
                         194 --88:   or any other interface 
                         195 --89: */
                         196 --90: static enum 
                         197 --91: {
                         198 --92:     LOC_EXTERN_IO  =  0u,
                         199 --93:     LOC_DEBUGER_IO =  1
                         200 --94: } loc_UsedIo = LOC_DEBUGER_IO; 
                         201 --97: /*******************************************************************************
                         202 --98:   Section: Local Functions 
                         203 --99: */
                         204 --101: /*******************************************************************************
                         205 --102:   Section: Global Generic IO Functions
                         206 --104:   For comments see file test_api.h
                         207 --105: */
                         208 --107: /*******************************************************************************
                         209 --108:   Function: R_BSP_STDIO_Printf
                         210 --110:     see <r_bsp_stdio_api.h> for details
                         211 --111: */
                         212 --112: /* va_start violates several misra rules - but it's compiler "standard" */
                         213 --113: #if defined (__ghs__)
                         214 --114: #pragma ghs startnomisra
                         215 --115: #endif /* __ghs */
                         216 --117: void R_BSP_STDIO_Printf(char *String, ...)
                         217 	.text
                         218 ..bof.D.3A.5CRenesas_Electronics.5CD1x_RGL.5Crgl_ghs_D1Lx_obj_V1.2E2.2E0.5Cvlib.5Capp.5Cgfx_apps.5Csimple_draw_d1l2.5Ctarget.5Cd1lx_mango_ghs.5Cobj.5Cr_bsp_stdio_main...44.3A.5CRenesas_Electronics.5CD1x_RGL.5Crgl_ghs_D1Lx_obj_V1.2E2.2E0.5Cvlib.5Capp.5Cgfx_apps.5Csimple_draw_d1l2.5Ctarget.5Cd1lx_mango_ghs..5A740382..0::
                         219 	.align	2
                         220 	.global	_R_BSP_STDIO_Printf
                         221 _R_BSP_STDIO_Printf:
00000000 031ed8ff        222 	addi	-40,sp,sp
00000004 634f2500        223 	st.w	r9,36[sp]
00000008 63472100        224 	st.w	r8,32[sp]
0000000c 63ff1500        225 	st.w	lp,20[sp]
00000010 63ef0900        226 	st.w	r29,8[sp]
00000014 63df1100        227 	st.w	r27,16[sp]
00000018 63e70d00        228 	st.w	r28,12[sp]
0000001c 3d0600000000*   229 	mov	.L38,r29
00000022 633f1d00        230 	st.w	r7,28[sp]
00000026 06e0            231 	mov	r6,r28
00000028 1dd8            232 	mov	r29,r27
                         233 --	    .bf

                                                                      Page 5
                                                              C:\Users\YINGAO~1\AppData\Local\Temp\gh_000010s1.si
                         234 .LDW01:
                         235 --118: {
                         236 --119:     va_list ap;
                         237 --121:     va_start(ap, String);
0000002a 230e1c00        238 	movea	28,sp,r1
0000002e 630f0100        239 	st.w	r1,0[sp]
00000032 5c0a            240 	add	-4,r1
00000034 c10e0700        241 	andi	7,r1,r1
00000038 630f0500        242 	st.w	r1,4[sp]
                         243 --122:     if (LOC_EXTERN_IO == loc_UsedIo) 
0000003c 210600000000*   244 	mov	_loc_UsedIo,r1
00000042 210f0100        245 	ld.w	0[r1],r1
00000046 e009            246 	cmp	zero,r1
00000048 ea0d*           247 	bne	.L4
                         248 --123:     {
                         249 --124:         vsprintf(loc_Buffer, String, ap);
                         250 --line124
                         251 ..lin.D.3A.5CRenesas_Electronics.5CD1x_RGL.5Crgl_ghs_D1Lx_obj_V1.2E2.2E0.5Cvlib.5Capp.5Cgfx_apps.5Csimple_draw_d1l2.5Ctarget.5Cd1lx_mango_ghs.5Cobj.5Cr_bsp_stdio_main.1::
                         252 .LDWlin1:
0000004a 23f60000        253 	movea	0,sp,ep
0000004e 1b30            254 	mov	r27,r6
00000050 0045            255 	sld.w	0[ep],r8
00000052 1c38            256 	mov	r28,r7
00000054 024d            257 	sld.w	4[ep],r9
                         258 	jarl	_vsprintf,lp
                         258 <EXPANSION BEGIN>
                         258 jarl22 _vsprintf , lp 
00000056 80ff0000*       258 <EXPANSION END>
                         259 --125:         va_end(ap);
                         260 --line125
                         261 ..lin.D.3A.5CRenesas_Electronics.5CD1x_RGL.5Crgl_ghs_D1Lx_obj_V1.2E2.2E0.5Cvlib.5Capp.5Cgfx_apps.5Csimple_draw_d1l2.5Ctarget.5Cd1lx_mango_ghs.5Cobj.5Cr_bsp_stdio_main.2::
                         262 .LDWlin2:
0000005a 0000            263 	nop
                         264 --126:         R_BSP_STDIO_WriteString(loc_Buffer);
0000005c 1b30            265 	mov	r27,r6
                         266 	jarl	_R_BSP_STDIO_WriteString,lp
                         266 <EXPANSION BEGIN>
                         266 jarl22 _R_BSP_STDIO_WriteString , lp 
0000005e 80ff0201*       266 <EXPANSION END>
00000062 950d*           267 	br	.L6
                         268 .L4:
                         269 --127:     } 
                         270 --128:     else 
                         271 --129:     {
                         272 --130:         vprintf(String, ap);
                         273 --line130
                         274 ..lin.D.3A.5CRenesas_Electronics.5CD1x_RGL.5Crgl_ghs_D1Lx_obj_V1.2E2.2E0.5Cvlib.5Capp.5Cgfx_apps.5Csimple_draw_d1l2.5Ctarget.5Cd1lx_mango_ghs.5Cobj.5Cr_bsp_stdio_main.3::
                         275 .LDWlin3:
00000064 23f60000        276 	movea	0,sp,ep
00000068 1c30            277 	mov	r28,r6
0000006a 003d            278 	sld.w	0[ep],r7
0000006c 0245            279 	sld.w	4[ep],r8
                         280 	jarl	_vprintf,lp
                         280 <EXPANSION BEGIN>
                         280 jarl22 _vprintf , lp 
0000006e 80ff0000*       280 <EXPANSION END>
                         281 --131:         va_end(ap);
                         282 --line131
                         283 ..lin.D.3A.5CRenesas_Electronics.5CD1x_RGL.5Crgl_ghs_D1Lx_obj_V1.2E2.2E0.5Cvlib.5Capp.5Cgfx_apps.5Csimple_draw_d1l2.5Ctarget.5Cd1lx_mango_ghs.5Cobj.5Cr_bsp_stdio_main.4::
                         284 .LDWlin4:
00000072 0000            285 	nop

                                                                      Page 6
                                                              C:\Users\YINGAO~1\AppData\Local\Temp\gh_000010s1.si
                         286 .L6:
                         287 --132:     }
                         288 --133: }
00000074 0000            289 	nop
                         290 --	    .ef
                         291 .LDW11:
00000076 23ff1500        292 	ld.w	20[sp],lp
0000007a 23ef0900        293 	ld.w	8[sp],r29
0000007e 23e70d00        294 	ld.w	12[sp],r28
00000082 23df1100        295 	ld.w	16[sp],r27
00000086 031e2800        296 	addi	40,sp,sp
0000008a 7f00            297 	jmp	[lp]
                         298 	.type	_R_BSP_STDIO_Printf,@function
                         299 	.size	_R_BSP_STDIO_Printf,.-_R_BSP_STDIO_Printf
                         300 	.align	2
                         301 .LDW21:
                         302 --_ap	0[sp]	local
                         303 --_*VASTKARG	24[sp]	local
                         304 
                         305 --_String	r28	param
                         306 --__va_param	28[sp]	param
                         307 
                         308 	.section ".bss","awb"
                         309 .L38:
                         310 	.type	.L38,@object
                         311 	.size	.L38,0
                         312 	.data
                         313 	.align	4
                         314 	.global	_loc_UsedIo..D.3A.5CRenesas_Electronics.5CD1x_RGL.5Crgl_ghs_D1Lx_obj_V1.2E2.2E0.5Cvlib.5Capp.5Cgfx_apps.5Csimple_draw_d1l2.5Ctarget.5Cd1lx_mango_ghs.5Cobj.5Cr_bsp_stdio_main.
                         315 _loc_UsedIo..D.3A.5CRenesas_Electronics.5CD1x_RGL.5Crgl_ghs_D1Lx_obj_V1.2E2.2E0.5Cvlib.5Capp.5Cgfx_apps.5Csimple_draw_d1l2.5Ctarget.5Cd1lx_mango_ghs.5Cobj.5Cr_bsp_stdio_main.:
                         316 	.type	_loc_UsedIo..D.3A.5CRenesas_Electronics.5CD1x_RGL.5Crgl_ghs_D1Lx_obj_V1.2E2.2E0.5Cvlib.5Capp.5Cgfx_apps.5Csimple_draw_d1l2.5Ctarget.5Cd1lx_mango_ghs.5Cobj.5Cr_bsp_stdio_main.,@object
                         317 	.size	_loc_UsedIo..D.3A.5CRenesas_Electronics.5CD1x_RGL.5Crgl_ghs_D1Lx_obj_V1.2E2.2E0.5Cvlib.5Capp.5Cgfx_apps.5Csimple_draw_d1l2.5Ctarget.5Cd1lx_mango_ghs.5Cobj.5Cr_bsp_stdio_main.,4
00000000 01000000        318 _loc_UsedIo:	.byte	1,0,0,0
                         319 	.type	_loc_UsedIo,@object
                         320 	.size	_loc_UsedIo,4
                         321 	.section ".bss","awb"
                         322 	.global	_loc_Buffer..D.3A.5CRenesas_Electronics.5CD1x_RGL.5Crgl_ghs_D1Lx_obj_V1.2E2.2E0.5Cvlib.5Capp.5Cgfx_apps.5Csimple_draw_d1l2.5Ctarget.5Cd1lx_mango_ghs.5Cobj.5Cr_bsp_stdio_main.
                         323 _loc_Buffer..D.3A.5CRenesas_Electronics.5CD1x_RGL.5Crgl_ghs_D1Lx_obj_V1.2E2.2E0.5Cvlib.5Capp.5Cgfx_apps.5Csimple_draw_d1l2.5Ctarget.5Cd1lx_mango_ghs.5Cobj.5Cr_bsp_stdio_main.:
                         324 	.type	_loc_Buffer..D.3A.5CRenesas_Electronics.5CD1x_RGL.5Crgl_ghs_D1Lx_obj_V1.2E2.2E0.5Cvlib.5Capp.5Cgfx_apps.5Csimple_draw_d1l2.5Ctarget.5Cd1lx_mango_ghs.5Cobj.5Cr_bsp_stdio_main.,@object
                         325 	.size	_loc_Buffer..D.3A.5CRenesas_Electronics.5CD1x_RGL.5Crgl_ghs_D1Lx_obj_V1.2E2.2E0.5Cvlib.5Capp.5Cgfx_apps.5Csimple_draw_d1l2.5Ctarget.5Cd1lx_mango_ghs.5Cobj.5Cr_bsp_stdio_main.,250
00000000 000000000000    326 _loc_Buffer:	.space	250
00000006 000000000000 
0000000c 000000000000 
00000012 000000000000 
00000018 000000000000 
0000001e 000000000000 
00000024 000000000000 
0000002a 000000000000 
00000030 000000000000 
00000036 000000000000 
0000003c 000000000000 
00000042 000000000000 
00000048 000000000000 
0000004e 000000000000 
00000054 000000000000 
0000005a 000000000000 
00000060 000000000000 
00000066 000000000000 
0000006c 000000000000 
00000072 000000000000 
00000078 000000000000 

                                                                      Page 7
                                                              C:\Users\YINGAO~1\AppData\Local\Temp\gh_000010s1.si
0000007e 000000000000 
00000084 000000000000 
0000008a 000000000000 
00000090 000000000000 
00000096 000000000000 
0000009c 000000000000 
000000a2 000000000000 
000000a8 000000000000 
000000ae 000000000000 
000000b4 000000000000 
000000ba 000000000000 
000000c0 000000000000 
000000c6 000000000000 
000000cc 000000000000 
000000d2 000000000000 
000000d8 000000000000 
000000de 000000000000 
000000e4 000000000000 
000000ea 000000000000 
000000f0 000000000000 
000000f6 00000000 
                         327 	.type	_loc_Buffer,@object
                         328 	.size	_loc_Buffer,250
                         329 	.data
                         330 	.text
                         331 
                         332 
                         333 --135: /********************************************************************************
                         334 --136:   Function: R_BSP_STDIO_AnPrintf
                         335 --138:     see <r_bsp_stdio_api.h> for details
                         336 --139: */
                         337 --141: void R_BSP_STDIO_AnPrintf(uint8_t Line, char *String,  ...)
                         338 	.align	2
                         339 	.align	2
                         340 	.global	_R_BSP_STDIO_AnPrintf
                         341 _R_BSP_STDIO_AnPrintf:
0000008c 031ed4ff        342 	addi	-44,sp,sp
00000090 634f2900        343 	st.w	r9,40[sp]
00000094 63ff1900        344 	st.w	lp,24[sp]
00000098 63ef0900        345 	st.w	r29,8[sp]
0000009c 63d71500        346 	st.w	r26,20[sp]
000000a0 63df1100        347 	st.w	r27,16[sp]
000000a4 63e70d00        348 	st.w	r28,12[sp]
000000a8 07d8            349 	mov	r7,r27
000000aa 3d0600000000*   350 	mov	_loc_Buffer,r29
000000b0 63472500        351 	st.w	r8,36[sp]
000000b4 c6e6ff00        352 	andi	255,r6,r28
000000b8 1dd0            353 	mov	r29,r26
                         354 --	    .bf
                         355 .LDW31:
                         356 --142: {
                         357 --143:     va_list ap;
                         358 --144:     va_start(ap, String);
000000ba 230e2400        359 	movea	36,sp,r1
000000be 630f0100        360 	st.w	r1,0[sp]
000000c2 580a            361 	add	-8,r1
000000c4 c10e0700        362 	andi	7,r1,r1
000000c8 630f0500        363 	st.w	r1,4[sp]
                         364 --145:     vsprintf(loc_Buffer, String, ap);
000000cc 23f60000        365 	movea	0,sp,ep
000000d0 1a30            366 	mov	r26,r6

                                                                      Page 8
                                                              C:\Users\YINGAO~1\AppData\Local\Temp\gh_000010s1.si
000000d2 0045            367 	sld.w	0[ep],r8
000000d4 1b38            368 	mov	r27,r7
000000d6 024d            369 	sld.w	4[ep],r9
                         370 	jarl	_vsprintf,lp
                         370 <EXPANSION BEGIN>
                         370 jarl22 _vsprintf , lp 
000000d8 80ff0000*       370 <EXPANSION END>
                         371 --146:     va_end(ap);
                         372 --line146
                         373 ..lin.D.3A.5CRenesas_Electronics.5CD1x_RGL.5Crgl_ghs_D1Lx_obj_V1.2E2.2E0.5Cvlib.5Capp.5Cgfx_apps.5Csimple_draw_d1l2.5Ctarget.5Cd1lx_mango_ghs.5Cobj.5Cr_bsp_stdio_main.5::
                         374 .LDWlin5:
000000dc 0000            375 	nop
                         376 --147:     if (R_BSP_SYS_STDIO_AnWrite(loc_Buffer, Line) != R_ERR_OK) 
000000de 1a30            377 	mov	r26,r6
000000e0 1c38            378 	mov	r28,r7
                         379 	jarl	_R_BSP_SYS_STDIO_AnWrite,lp
                         379 <EXPANSION BEGIN>
                         379 jarl22 _R_BSP_SYS_STDIO_AnWrite , lp 
000000e2 80ff0000*       379 <EXPANSION END>
000000e6 e051            380 	cmp	zero,r10
000000e8 d20d*           381 	be	.L73
                         382 --148:     {
                         383 --149:         /* Display output was not succesfull */
                         384 --150:         R_BSP_STDIO_Printf(" String sent to AlphaNum Display Line %d: ", Line); 
                         385 --line150
                         386 ..lin.D.3A.5CRenesas_Electronics.5CD1x_RGL.5Crgl_ghs_D1Lx_obj_V1.2E2.2E0.5Cvlib.5Capp.5Cgfx_apps.5Csimple_draw_d1l2.5Ctarget.5Cd1lx_mango_ghs.5Cobj.5Cr_bsp_stdio_main.6::
                         387 .LDWlin6:
000000ea 1c38            388 	mov	r28,r7
000000ec 260600000000*   389 	mov	.L123,r6
                         390 	jarl	_R_BSP_STDIO_Printf,lp
                         390 <EXPANSION BEGIN>
                         390 jarl22 _R_BSP_STDIO_Printf , lp 
000000f2 bfff0eff*       390 <EXPANSION END>
                         391 --151:         R_BSP_STDIO_Printf("%s\n", String); 
                         392 --line151
                         393 ..lin.D.3A.5CRenesas_Electronics.5CD1x_RGL.5Crgl_ghs_D1Lx_obj_V1.2E2.2E0.5Cvlib.5Capp.5Cgfx_apps.5Csimple_draw_d1l2.5Ctarget.5Cd1lx_mango_ghs.5Cobj.5Cr_bsp_stdio_main.7::
                         394 .LDWlin7:
000000f6 1b38            395 	mov	r27,r7
000000f8 260600000000*   396 	mov	.L122,r6
                         397 	jarl	_R_BSP_STDIO_Printf,lp
                         397 <EXPANSION BEGIN>
                         397 jarl22 _R_BSP_STDIO_Printf , lp 
000000fe bfff02ff*       397 <EXPANSION END>
                         398 .L73:
                         399 --152:     } 
                         400 --153: } 
                         401 --line153
                         402 ..lin.D.3A.5CRenesas_Electronics.5CD1x_RGL.5Crgl_ghs_D1Lx_obj_V1.2E2.2E0.5Cvlib.5Capp.5Cgfx_apps.5Csimple_draw_d1l2.5Ctarget.5Cd1lx_mango_ghs.5Cobj.5Cr_bsp_stdio_main.8::
                         403 .LDWlin8:
00000102 0000            404 	nop
                         405 --	    .ef
                         406 .LDW41:
00000104 23ff1900        407 	ld.w	24[sp],lp
00000108 23ef0900        408 	ld.w	8[sp],r29
0000010c 23e70d00        409 	ld.w	12[sp],r28
00000110 23df1100        410 	ld.w	16[sp],r27
00000114 23d71500        411 	ld.w	20[sp],r26
00000118 031e2c00        412 	addi	44,sp,sp
0000011c 7f00            413 	jmp	[lp]
                         414 	.type	_R_BSP_STDIO_AnPrintf,@function
                         415 	.size	_R_BSP_STDIO_AnPrintf,.-_R_BSP_STDIO_AnPrintf

                                                                      Page 9
                                                              C:\Users\YINGAO~1\AppData\Local\Temp\gh_000010s1.si
                         416 	.align	2
                         417 .LDW51:
                         418 --_ap	0[sp]	local
                         419 --_*VASTKARG	28[sp]	local
                         420 --.L100	.L123	static
                         421 --.L101	.L122	static
                         422 
                         423 --_Line	r28	param
                         424 --_String	r27	param
                         425 --__va_param	36[sp]	param
                         426 
                         427 	.section ".rodata","a"
                         428 .L122:--	"%s\n"
00000000 25730a00        429 	.byte	37,115,10,0
                         430 	.type	.L122,@object
                         431 	.size	.L122,4
                         432 .L123:--	" String sent to AlphaNum Display Line %d: "
00000004 20537472        433 	.byte	32,83,116,114
00000008 696e6720        434 	.byte	105,110,103,32
0000000c 73656e74        435 	.byte	115,101,110,116
00000010 20746f20        436 	.byte	32,116,111,32
00000014 416c7068        437 	.byte	65,108,112,104
00000018 614e756d        438 	.byte	97,78,117,109
0000001c 20446973        439 	.byte	32,68,105,115
00000020 706c6179        440 	.byte	112,108,97,121
00000024 204c696e        441 	.byte	32,76,105,110
00000028 65202564        442 	.byte	101,32,37,100
0000002c 3a20            443 	.byte	58,32
0000002e 00              444 	.byte	0
                         445 	.type	.L123,@object
                         446 	.size	.L123,43
                         447 	.data
                         448 	.text
                         449 
                         450 
                         451 --154: #if defined (__ghs__)
                         452 --155: #pragma ghs endnomisra
                         453 --156: #endif /* __ghs */
                         454 --159: /*******************************************************************************
                         455 --160:   Function: R_BSP_STDIO_SetComPort
                         456 --162:     see <r_bsp_stdio_api.h> for details
                         457 --163: */
                         458 --165: void R_BSP_STDIO_SetComPort(uint32_t Unit) 
                         459 	.align	2
                         460 	.align	2
                         461 	.global	_R_BSP_STDIO_SetComPort
                         462 _R_BSP_STDIO_SetComPort:
0000011e 8007e110        463 	prepare	{r27,r28,r29,r31},0
00000122 3d0600000000*   464 	mov	_loc_UsedIo,r29
00000128 06e0            465 	mov	r6,r28
0000012a 1dd8            466 	mov	r29,r27
                         467 --	    .bf
                         468 .LDW61:
                         469 --166: {
                         470 --167:     
                         471 --168:     if (Unit == 0xFF) 
0000012c 1c0601ff        472 	addi	-255,r28,zero
00000130 aa0d*           473 	bne	.L135
                         474 --169:     {
                         475 --170:         loc_UsedIo = LOC_DEBUGER_IO; 
                         476 --line170

                                                                      Page 10
                                                              C:\Users\YINGAO~1\AppData\Local\Temp\gh_000010s1.si
                         477 ..lin.D.3A.5CRenesas_Electronics.5CD1x_RGL.5Crgl_ghs_D1Lx_obj_V1.2E2.2E0.5Cvlib.5Capp.5Cgfx_apps.5Csimple_draw_d1l2.5Ctarget.5Cd1lx_mango_ghs.5Cobj.5Cr_bsp_stdio_main.9::
                         478 .LDWlin9:
00000132 010a            479 	mov	1,r1
00000134 7d0f0100        480 	st.w	r1,0[r29]
                         481 --171:         printf("\n** disable UART, switch to StdI/O **\n"); 
00000138 260600000000*   482 	mov	.L186,r6
                         483 	jarl	_printf,lp
                         483 <EXPANSION BEGIN>
                         483 jarl22 _printf , lp 
0000013e 80ff0000*       483 <EXPANSION END>
00000142 c50d*           484 	br	.L137
                         485 .L135:
                         486 --172:     } 
                         487 --173:     else 
                         488 --174:     {
                         489 --175:         loc_UsedIo = LOC_EXTERN_IO;
                         490 --line175
                         491 ..lin.D.3A.5CRenesas_Electronics.5CD1x_RGL.5Crgl_ghs_D1Lx_obj_V1.2E2.2E0.5Cvlib.5Capp.5Cgfx_apps.5Csimple_draw_d1l2.5Ctarget.5Cd1lx_mango_ghs.5Cobj.5Cr_bsp_stdio_main.10::
                         492 .LDWlin10:
00000144 7d070100        493 	st.w	zero,0[r29]
                         494 --176:         printf("\n** Using UART port %d for stdio **\n", Unit); 
00000148 1c38            495 	mov	r28,r7
0000014a 260600000000*   496 	mov	.L187,r6
                         497 	jarl	_printf,lp
                         497 <EXPANSION BEGIN>
                         497 jarl22 _printf , lp 
00000150 80ff0000*       497 <EXPANSION END>
                         498 --177:    
                         499 --178:         R_BSP_SYS_STDIO_SetUart(Unit); 
                         500 --line178
                         501 ..lin.D.3A.5CRenesas_Electronics.5CD1x_RGL.5Crgl_ghs_D1Lx_obj_V1.2E2.2E0.5Cvlib.5Capp.5Cgfx_apps.5Csimple_draw_d1l2.5Ctarget.5Cd1lx_mango_ghs.5Cobj.5Cr_bsp_stdio_main.11::
                         502 .LDWlin11:
00000154 1c30            503 	mov	r28,r6
                         504 	jarl	_R_BSP_SYS_STDIO_SetUart,lp
                         504 <EXPANSION BEGIN>
                         504 jarl22 _R_BSP_SYS_STDIO_SetUart , lp 
00000156 80ff0000*       504 <EXPANSION END>
                         505 .L137:
                         506 --179:     }
                         507 --180: }
                         508 --line180
                         509 ..lin.D.3A.5CRenesas_Electronics.5CD1x_RGL.5Crgl_ghs_D1Lx_obj_V1.2E2.2E0.5Cvlib.5Capp.5Cgfx_apps.5Csimple_draw_d1l2.5Ctarget.5Cd1lx_mango_ghs.5Cobj.5Cr_bsp_stdio_main.12::
                         510 .LDWlin12:
0000015a 0000            511 	nop
                         512 --	    .ef
                         513 .LDW71:
0000015c 4006ff10        514 	dispose	0,{r27,r28,r29,r31},[lp]
                         515 	.type	_R_BSP_STDIO_SetComPort,@function
                         516 	.size	_R_BSP_STDIO_SetComPort,.-_R_BSP_STDIO_SetComPort
                         517 	.align	2
                         518 .LDW81:
                         519 --.L164	.L186	static
                         520 --.L165	.L187	static
                         521 
                         522 --_Unit	r28	param
                         523 
                         524 	.section ".rodata","a"
                         525 .L186:--	"\n** disable UART, switch to StdI/O **\n"
0000002f 0a2a2a20        526 	.byte	10,42,42,32
00000033 64697361        527 	.byte	100,105,115,97
00000037 626c6520        528 	.byte	98,108,101,32

                                                                      Page 11
                                                              C:\Users\YINGAO~1\AppData\Local\Temp\gh_000010s1.si
0000003b 55415254        529 	.byte	85,65,82,84
0000003f 2c207377        530 	.byte	44,32,115,119
00000043 69746368        531 	.byte	105,116,99,104
00000047 20746f20        532 	.byte	32,116,111,32
0000004b 53746449        533 	.byte	83,116,100,73
0000004f 2f4f202a        534 	.byte	47,79,32,42
00000053 2a0a            535 	.byte	42,10
00000055 00              536 	.byte	0
                         537 	.type	.L186,@object
                         538 	.size	.L186,39
                         539 .L187:--	"\n** Using UART port %d for stdio **\n"
00000056 0a2a2a20        540 	.byte	10,42,42,32
0000005a 5573696e        541 	.byte	85,115,105,110
0000005e 67205541        542 	.byte	103,32,85,65
00000062 52542070        543 	.byte	82,84,32,112
00000066 6f727420        544 	.byte	111,114,116,32
0000006a 25642066        545 	.byte	37,100,32,102
0000006e 6f722073        546 	.byte	111,114,32,115
00000072 7464696f        547 	.byte	116,100,105,111
00000076 202a2a0a        548 	.byte	32,42,42,10
0000007a 00              549 	.byte	0
                         550 	.type	.L187,@object
                         551 	.size	.L187,37
                         552 	.data
                         553 	.text
                         554 
                         555 
                         556 --183: /*******************************************************************************
                         557 --184:   Function: R_BSP_STDIO_WriteString
                         558 --186:     see <r_bsp_stdio_api.h> for details
                         559 --187: */
                         560 --189: void R_BSP_STDIO_WriteString(char *Buffer) 
                         561 	.align	2
                         562 	.align	2
                         563 	.global	_R_BSP_STDIO_WriteString
                         564 _R_BSP_STDIO_WriteString:
00000160 8007e130        565 	prepare	{r26,r27,r28,r29,r31},0
00000164 06d0            566 	mov	r6,r26
                         567 --	    .bf
                         568 .LDW91:
                         569 --190: {
                         570 --191:     uint32_t strt = 0u;
00000166 00e2            571 	mov	0,r28
                         572 --192:     uint32_t stop = 0u;
00000168 00ea            573 	mov	0,r29
                         574 --193:     uint32_t len  = 0u;
0000016a 00da            575 	mov	0,r27
                         576 --195:     strt = 0u;
0000016c 00e2            577 	mov	0,r28
                         578 --196:     stop = 0u;
0000016e 00ea            579 	mov	0,r29
                         580 --197:     while ((Buffer[stop] != 0u) || (strt != stop)) 
00000170 b525*           581 	br	.L199
                         582 .L201:
                         583 --198:     {
                         584 --199:         while ((Buffer[stop] != 0u)  && (Buffer[stop] != '\n')) 
                         585 --line199
                         586 ..lin.D.3A.5CRenesas_Electronics.5CD1x_RGL.5Crgl_ghs_D1Lx_obj_V1.2E2.2E0.5Cvlib.5Capp.5Cgfx_apps.5Csimple_draw_d1l2.5Ctarget.5Cd1lx_mango_ghs.5Cobj.5Cr_bsp_stdio_main.13::
                         587 .LDWlin13:
00000172 a505*           588 	br	.L202
                         589 .L204:

                                                                      Page 12
                                                              C:\Users\YINGAO~1\AppData\Local\Temp\gh_000010s1.si
                         590 --200:         {
                         591 --201:             stop++;
                         592 --line201
                         593 ..lin.D.3A.5CRenesas_Electronics.5CD1x_RGL.5Crgl_ghs_D1Lx_obj_V1.2E2.2E0.5Cvlib.5Capp.5Cgfx_apps.5Csimple_draw_d1l2.5Ctarget.5Cd1lx_mango_ghs.5Cobj.5Cr_bsp_stdio_main.14::
                         594 .LDWlin14:
00000174 41ea            595 	add	1,r29
                         596 .L202:
00000176 1df0            597 	mov	r29,ep
00000178 daf1            598 	add	r26,ep
0000017a 000b            599 	sld.b	0[ep],r1
0000017c e009            600 	cmp	zero,r1
0000017e e205*           601 	be	.L203
00000180 1df0            602 	mov	r29,ep
00000182 daf1            603 	add	r26,ep
00000184 000b            604 	sld.b	0[ep],r1
00000186 6a0a            605 	cmp	10,r1
00000188 eaf5*           606 	bne	.L204
                         607 .L203:
                         608 --202:         }
                         609 --203:         len = stop - strt;
                         610 --line203
                         611 ..lin.D.3A.5CRenesas_Electronics.5CD1x_RGL.5Crgl_ghs_D1Lx_obj_V1.2E2.2E0.5Cvlib.5Capp.5Cgfx_apps.5Csimple_draw_d1l2.5Ctarget.5Cd1lx_mango_ghs.5Cobj.5Cr_bsp_stdio_main.15::
                         612 .LDWlin15:
0000018a 1dd8            613 	mov	r29,r27
0000018c bcd9            614 	sub	r28,r27
                         615 --204:         if (0 != len) 
0000018e e0d9            616 	cmp	zero,r27
00000190 f205*           617 	be	.L206
                         618 --205:         {
                         619 --206:             R_BSP_SYS_STDIO_Write((uint8_t*)&Buffer[strt], len);
                         620 --line206
                         621 ..lin.D.3A.5CRenesas_Electronics.5CD1x_RGL.5Crgl_ghs_D1Lx_obj_V1.2E2.2E0.5Cvlib.5Capp.5Cgfx_apps.5Csimple_draw_d1l2.5Ctarget.5Cd1lx_mango_ghs.5Cobj.5Cr_bsp_stdio_main.16::
                         622 .LDWlin16:
00000192 1c30            623 	mov	r28,r6
00000194 da31            624 	add	r26,r6
00000196 1b38            625 	mov	r27,r7
                         626 	jarl	_R_BSP_SYS_STDIO_Write,lp
                         626 <EXPANSION BEGIN>
                         626 jarl22 _R_BSP_SYS_STDIO_Write , lp 
00000198 80ff0000*       626 <EXPANSION END>
                         627 --207:             strt = stop;
                         628 --line207
                         629 ..lin.D.3A.5CRenesas_Electronics.5CD1x_RGL.5Crgl_ghs_D1Lx_obj_V1.2E2.2E0.5Cvlib.5Capp.5Cgfx_apps.5Csimple_draw_d1l2.5Ctarget.5Cd1lx_mango_ghs.5Cobj.5Cr_bsp_stdio_main.17::
                         630 .LDWlin17:
0000019c 1de0            631 	mov	r29,r28
                         632 .L206:
                         633 --208:         }
                         634 --209:         if (Buffer[stop] == '\n') 
0000019e 1df0            635 	mov	r29,ep
000001a0 daf1            636 	add	r26,ep
000001a2 000b            637 	sld.b	0[ep],r1
000001a4 6a0a            638 	cmp	10,r1
000001a6 8a0d*           639 	bne	.L199
                         640 --210:         {
                         641 --211:             R_BSP_SYS_STDIO_Write((uint8_t *)"\r", 1);   
                         642 --line211
                         643 ..lin.D.3A.5CRenesas_Electronics.5CD1x_RGL.5Crgl_ghs_D1Lx_obj_V1.2E2.2E0.5Cvlib.5Capp.5Cgfx_apps.5Csimple_draw_d1l2.5Ctarget.5Cd1lx_mango_ghs.5Cobj.5Cr_bsp_stdio_main.18::
                         644 .LDWlin18:
000001a8 260600000000*   645 	mov	.L322,r6
000001ae 013a            646 	mov	1,r7
                         647 	jarl	_R_BSP_SYS_STDIO_Write,lp

                                                                      Page 13
                                                              C:\Users\YINGAO~1\AppData\Local\Temp\gh_000010s1.si
                         647 <EXPANSION BEGIN>
                         647 jarl22 _R_BSP_SYS_STDIO_Write , lp 
000001b0 80ff0000*       647 <EXPANSION END>
                         648 --212:             stop++;
                         649 --line212
                         650 ..lin.D.3A.5CRenesas_Electronics.5CD1x_RGL.5Crgl_ghs_D1Lx_obj_V1.2E2.2E0.5Cvlib.5Capp.5Cgfx_apps.5Csimple_draw_d1l2.5Ctarget.5Cd1lx_mango_ghs.5Cobj.5Cr_bsp_stdio_main.19::
                         651 .LDWlin19:
000001b4 41ea            652 	add	1,r29
                         653 .L199:
000001b6 1df0            654 	mov	r29,ep
000001b8 daf1            655 	add	r26,ep
000001ba 000b            656 	sld.b	0[ep],r1
000001bc e009            657 	cmp	zero,r1
000001be aadd*           658 	bne	.L201
000001c0 fde1            659 	cmp	r29,r28
000001c2 8add*           660 	bne	.L201
                         661 --213:         }
                         662 --214:         
                         663 --215:     }
                         664 --216:     
                         665 --217: }
                         666 --line217
                         667 ..lin.D.3A.5CRenesas_Electronics.5CD1x_RGL.5Crgl_ghs_D1Lx_obj_V1.2E2.2E0.5Cvlib.5Capp.5Cgfx_apps.5Csimple_draw_d1l2.5Ctarget.5Cd1lx_mango_ghs.5Cobj.5Cr_bsp_stdio_main.20::
                         668 .LDWlin20:
000001c4 0000            669 	nop
                         670 --	    .ef
                         671 .LDW02:
000001c6 4006ff30        672 	dispose	0,{r26,r27,r28,r29,r31},[lp]
                         673 	.type	_R_BSP_STDIO_WriteString,@function
                         674 	.size	_R_BSP_STDIO_WriteString,.-_R_BSP_STDIO_WriteString
                         675 	.align	2
                         676 .LDW12:
                         677 --_strt	r28	local
                         678 --_stop	r29	local
                         679 --_len	r27	local
                         680 --.L273	.L322	static
                         681 
                         682 --_Buffer	r26	param
                         683 
                         684 	.section ".bss","awb"
                         685 .L272:
                         686 	.type	.L272,@object
                         687 	.size	.L272,0
                         688 	.section ".rodata","a"
                         689 .L322:--	"\r"
0000007b 0d00            690 	.byte	13,0
                         691 	.type	.L322,@object
                         692 	.size	.L322,2
                         693 	.data
                         694 	.text
                         695 
                         696 
                         697 --219: /*******************************************************************************
                         698 --220:   Function: R_BSP_STDIO_ReadString
                         699 --222:     see <r_bsp_stdio_api.h> for details
                         700 --223: */
                         701 --225: void R_BSP_STDIO_ReadString(char *ReceiveString, uint32_t ReceiveMaxSize, uint32_t TimeOutCnt) 
                         702 	.align	2
                         703 	.align	2
                         704 	.global	_R_BSP_STDIO_ReadString
                         705 _R_BSP_STDIO_ReadString:

                                                                      Page 14
                                                              C:\Users\YINGAO~1\AppData\Local\Temp\gh_000010s1.si
000001ca 8407e170        706 	prepare	{r25,r26,r27,r28,r29,r31},2
000001ce 06e0            707 	mov	r6,r28
000001d0 07c8            708 	mov	r7,r25
000001d2 63470500        709 	st.w	r8,4[sp]
000001d6 3a0600000000*   710 	mov	_loc_UsedIo,r26
                         711 --	    .bf
                         712 .LDW22:
                         713 --226: {
                         714 --227:     uint32_t i;
                         715 --228:     uint32_t len;
                         716 --230:     /* TimeOutCnt handling tbd */
                         717 --231:     i = 0u;
000001dc 00ea            718 	mov	0,r29
                         719 --232:     do 
000001de 0000            720 	nop
                         721 .L350:
                         722 --233:     {     
                         723 --234:         do 
000001e0 0000            724 	nop
                         725 .L353:
                         726 --235:         {
                         727 --236:             if (LOC_EXTERN_IO == loc_UsedIo) 
000001e2 3a0f0100        728 	ld.w	0[r26],r1
000001e6 e009            729 	cmp	zero,r1
000001e8 8a0d*           730 	bne	.L354
                         731 --237:             {
                         732 --238:                 len = R_BSP_SYS_STDIO_Read((uint8_t*)&ReceiveString[i], 1);
                         733 --line238
                         734 ..lin.D.3A.5CRenesas_Electronics.5CD1x_RGL.5Crgl_ghs_D1Lx_obj_V1.2E2.2E0.5Cvlib.5Capp.5Cgfx_apps.5Csimple_draw_d1l2.5Ctarget.5Cd1lx_mango_ghs.5Cobj.5Cr_bsp_stdio_main.21::
                         735 .LDWlin21:
000001ea 1d30            736 	mov	r29,r6
000001ec dc31            737 	add	r28,r6
000001ee 013a            738 	mov	1,r7
                         739 	jarl	_R_BSP_SYS_STDIO_Read,lp
                         739 <EXPANSION BEGIN>
                         739 jarl22 _R_BSP_SYS_STDIO_Read , lp 
000001f0 80ff0000*       739 <EXPANSION END>
000001f4 0ad8            740 	mov	r10,r27
000001f6 f50d*           741 	br	.L352
                         742 .L354:
                         743 --239:             } 
                         744 --240:             else 
                         745 --241:             {
                         746 --242:                 ReceiveString[i] = (char)getchar(); 
                         747 --line242
                         748 ..lin.D.3A.5CRenesas_Electronics.5CD1x_RGL.5Crgl_ghs_D1Lx_obj_V1.2E2.2E0.5Cvlib.5Capp.5Cgfx_apps.5Csimple_draw_d1l2.5Ctarget.5Cd1lx_mango_ghs.5Cobj.5Cr_bsp_stdio_main.22::
                         749 .LDWlin22:
000001f8 1d58            750 	mov	r29,r11
000001fa dc59            751 	add	r28,r11
000001fc 635f0100        752 	st.w	r11,0[sp]
00000200 260600000000*   753 	mov	__iob,r6
                         754 	jarl	_getc,lp
                         754 <EXPANSION BEGIN>
                         754 jarl22 _getc , lp 
00000206 80ff0000*       754 <EXPANSION END>
0000020a 23670100        755 	ld.w	0[sp],r12
0000020e 4c570000        756 	st.b	r10,0[r12]
                         757 --243:                 len = 1u;
                         758 --line243
                         759 ..lin.D.3A.5CRenesas_Electronics.5CD1x_RGL.5Crgl_ghs_D1Lx_obj_V1.2E2.2E0.5Cvlib.5Capp.5Cgfx_apps.5Csimple_draw_d1l2.5Ctarget.5Cd1lx_mango_ghs.5Cobj.5Cr_bsp_stdio_main.23::
                         760 .LDWlin23:

                                                                      Page 15
                                                              C:\Users\YINGAO~1\AppData\Local\Temp\gh_000010s1.si
00000212 01da            761 	mov	1,r27
                         762 .L352:
00000214 e0d9            763 	cmp	zero,r27
00000216 e2e5*           764 	be	.L353
                         765 --244:             }
                         766 --245:         } while(0 == len); 
                         767 --246:         if((ReceiveString[i] != '\n') && (ReceiveString[i] != '\r')) 
                         768 --line246
                         769 ..lin.D.3A.5CRenesas_Electronics.5CD1x_RGL.5Crgl_ghs_D1Lx_obj_V1.2E2.2E0.5Cvlib.5Capp.5Cgfx_apps.5Csimple_draw_d1l2.5Ctarget.5Cd1lx_mango_ghs.5Cobj.5Cr_bsp_stdio_main.24::
                         770 .LDWlin24:
00000218 1df0            771 	mov	r29,ep
0000021a dcf1            772 	add	r28,ep
0000021c 000b            773 	sld.b	0[ep],r1
0000021e 6a0a            774 	cmp	10,r1
00000220 9215*           775 	be	.L357
00000222 1df0            776 	mov	r29,ep
00000224 dcf1            777 	add	r28,ep
00000226 000b            778 	sld.b	0[ep],r1
00000228 6d0a            779 	cmp	13,r1
0000022a c20d*           780 	be	.L357
                         781 --247:         {
                         782 --248:             if (LOC_EXTERN_IO == loc_UsedIo) 
                         783 --line248
                         784 ..lin.D.3A.5CRenesas_Electronics.5CD1x_RGL.5Crgl_ghs_D1Lx_obj_V1.2E2.2E0.5Cvlib.5Capp.5Cgfx_apps.5Csimple_draw_d1l2.5Ctarget.5Cd1lx_mango_ghs.5Cobj.5Cr_bsp_stdio_main.25::
                         785 .LDWlin25:
0000022c 3a0f0100        786 	ld.w	0[r26],r1
00000230 e009            787 	cmp	zero,r1
00000232 ea05*           788 	bne	.L360
                         789 --249:             {
                         790 --250:                 R_BSP_SYS_STDIO_Write((uint8_t*)&ReceiveString[i], 1);
                         791 --line250
                         792 ..lin.D.3A.5CRenesas_Electronics.5CD1x_RGL.5Crgl_ghs_D1Lx_obj_V1.2E2.2E0.5Cvlib.5Capp.5Cgfx_apps.5Csimple_draw_d1l2.5Ctarget.5Cd1lx_mango_ghs.5Cobj.5Cr_bsp_stdio_main.26::
                         793 .LDWlin26:
00000234 1d30            794 	mov	r29,r6
00000236 dc31            795 	add	r28,r6
00000238 013a            796 	mov	1,r7
                         797 	jarl	_R_BSP_SYS_STDIO_Write,lp
                         797 <EXPANSION BEGIN>
                         797 jarl22 _R_BSP_SYS_STDIO_Write , lp 
0000023a 80ff0000*       797 <EXPANSION END>
                         798 .L360:
                         799 --251:             }
                         800 --252:             i++;
                         801 --line252
                         802 ..lin.D.3A.5CRenesas_Electronics.5CD1x_RGL.5Crgl_ghs_D1Lx_obj_V1.2E2.2E0.5Cvlib.5Capp.5Cgfx_apps.5Csimple_draw_d1l2.5Ctarget.5Cd1lx_mango_ghs.5Cobj.5Cr_bsp_stdio_main.27::
                         803 .LDWlin27:
0000023e 41ea            804 	add	1,r29
00000240 a515*           805 	br	.L349
                         806 .L357:
                         807 --253:         } 
                         808 --254:         else 
                         809 --255:         {
                         810 --256:             if (LOC_EXTERN_IO == loc_UsedIo) 
                         811 --line256
                         812 ..lin.D.3A.5CRenesas_Electronics.5CD1x_RGL.5Crgl_ghs_D1Lx_obj_V1.2E2.2E0.5Cvlib.5Capp.5Cgfx_apps.5Csimple_draw_d1l2.5Ctarget.5Cd1lx_mango_ghs.5Cobj.5Cr_bsp_stdio_main.28::
                         813 .LDWlin28:
00000242 3a0f0100        814 	ld.w	0[r26],r1
00000246 e009            815 	cmp	zero,r1
00000248 da0d*           816 	bne	.L363
                         817 --257:             {
                         818 --258:                 R_BSP_SYS_STDIO_Write((uint8_t*)"\n", 1);

                                                                      Page 16
                                                              C:\Users\YINGAO~1\AppData\Local\Temp\gh_000010s1.si
                         819 --line258
                         820 ..lin.D.3A.5CRenesas_Electronics.5CD1x_RGL.5Crgl_ghs_D1Lx_obj_V1.2E2.2E0.5Cvlib.5Capp.5Cgfx_apps.5Csimple_draw_d1l2.5Ctarget.5Cd1lx_mango_ghs.5Cobj.5Cr_bsp_stdio_main.29::
                         821 .LDWlin29:
0000024a 260600000000*   822 	mov	.L463,r6
00000250 013a            823 	mov	1,r7
                         824 	jarl	_R_BSP_SYS_STDIO_Write,lp
                         824 <EXPANSION BEGIN>
                         824 jarl22 _R_BSP_SYS_STDIO_Write , lp 
00000252 80ff0000*       824 <EXPANSION END>
                         825 --259:                 R_BSP_SYS_STDIO_Write((uint8_t*)"\r", 1);
                         826 --line259
                         827 ..lin.D.3A.5CRenesas_Electronics.5CD1x_RGL.5Crgl_ghs_D1Lx_obj_V1.2E2.2E0.5Cvlib.5Capp.5Cgfx_apps.5Csimple_draw_d1l2.5Ctarget.5Cd1lx_mango_ghs.5Cobj.5Cr_bsp_stdio_main.30::
                         828 .LDWlin30:
00000256 260600000000*   829 	mov	.L464,r6
0000025c 013a            830 	mov	1,r7
                         831 	jarl	_R_BSP_SYS_STDIO_Write,lp
                         831 <EXPANSION BEGIN>
                         831 jarl22 _R_BSP_SYS_STDIO_Write , lp 
0000025e 80ff0000*       831 <EXPANSION END>
                         832 .L363:
                         833 --260:             }
                         834 --261:             break;
                         835 --line261
                         836 ..lin.D.3A.5CRenesas_Electronics.5CD1x_RGL.5Crgl_ghs_D1Lx_obj_V1.2E2.2E0.5Cvlib.5Capp.5Cgfx_apps.5Csimple_draw_d1l2.5Ctarget.5Cd1lx_mango_ghs.5Cobj.5Cr_bsp_stdio_main.31::
                         837 .LDWlin31:
00000262 d505*           838 	br	.L365
                         839 .L349:
                         840 --line264
                         841 ..lin.D.3A.5CRenesas_Electronics.5CD1x_RGL.5Crgl_ghs_D1Lx_obj_V1.2E2.2E0.5Cvlib.5Capp.5Cgfx_apps.5Csimple_draw_d1l2.5Ctarget.5Cd1lx_mango_ghs.5Cobj.5Cr_bsp_stdio_main.32::
                         842 .LDWlin32:
00000264 190effff        843 	addi	-1,r25,r1
00000268 e1e9            844 	cmp	r1,r29
0000026a b1bd*           845 	bl	.L350
                         846 .L365:
                         847 --262:             
                         848 --263:         }
                         849 --264:     } while (i < (ReceiveMaxSize - 1)); 
                         850 --265:     ReceiveString[i] = (char)0;
                         851 --line265
                         852 ..lin.D.3A.5CRenesas_Electronics.5CD1x_RGL.5Crgl_ghs_D1Lx_obj_V1.2E2.2E0.5Cvlib.5Capp.5Cgfx_apps.5Csimple_draw_d1l2.5Ctarget.5Cd1lx_mango_ghs.5Cobj.5Cr_bsp_stdio_main.33::
                         853 .LDWlin33:
0000026c 1df0            854 	mov	r29,ep
0000026e dcf1            855 	add	r28,ep
00000270 8003            856 	sst.b	zero,0[ep]
                         857 --266:     
                         858 --267: }
00000272 0000            859 	nop
                         860 --	    .ef
                         861 .LDW32:
00000274 4406ff70        862 	dispose	2,{r25,r26,r27,r28,r29,r31},[lp]
                         863 	.type	_R_BSP_STDIO_ReadString,@function
                         864 	.size	_R_BSP_STDIO_ReadString,.-_R_BSP_STDIO_ReadString
                         865 	.align	2
                         866 .LDW42:
                         867 --_i	r29	local
                         868 --_len	r27	local
                         869 --.L415	.L463	static
                         870 --.L416	.L464	static
                         871 
                         872 --_ReceiveString	r28	param
                         873 --_ReceiveMaxSize	r25	param

                                                                      Page 17
                                                              C:\Users\YINGAO~1\AppData\Local\Temp\gh_000010s1.si
                         874 --_TimeOutCnt	4[sp]	param
                         875 
                         876 	.section ".bss","awb"
                         877 .L414:
                         878 	.type	.L414,@object
                         879 	.size	.L414,0
                         880 	.section ".rodata","a"
                         881 .L463:--	"\n"
0000007d 0a00            882 	.byte	10,0
                         883 	.type	.L463,@object
                         884 	.size	.L463,2
                         885 .L464:--	"\r"
0000007f 0d00            886 	.byte	13,0
                         887 	.type	.L464,@object
                         888 	.size	.L464,2
                         889 	.data
                         890 	.text
                         891 
                         892 
                         893 --270: /*******************************************************************************
                         894 --271:   Function: R_BSP_STDIO_ReadValue
                         895 --273:     see <r_bsp_stdio_api.h> for details
                         896 --274: */
                         897 --276: uint32_t R_BSP_STDIO_ReadValue(void) 
                         898 	.align	2
                         899 	.align	2
                         900 	.global	_R_BSP_STDIO_ReadValue
                         901 _R_BSP_STDIO_ReadValue:
00000278 8a076100        902 	prepare	{r29,r31},5
                         903 --	    .bf
                         904 .LDW52:
                         905 --277: {
                         906 --278:     uint32_t receiveval;
                         907 --279:     char     numbers[20]; 
                         908 --280:     
                         909 --281:     R_BSP_STDIO_ReadString(numbers, sizeof(numbers), 0);              
0000027c 23360000        910 	movea	0,sp,r6
00000280 203e1400        911 	movea	20,zero,r7
00000284 0042            912 	mov	0,r8
                         913 	jarl	_R_BSP_STDIO_ReadString,lp
                         913 <EXPANSION BEGIN>
                         913 jarl22 _R_BSP_STDIO_ReadString , lp 
00000286 bfff44ff*       913 <EXPANSION END>
                         914 --282:     receiveval = strtol(numbers,NULL,10);
                         915 --line282
                         916 ..lin.D.3A.5CRenesas_Electronics.5CD1x_RGL.5Crgl_ghs_D1Lx_obj_V1.2E2.2E0.5Cvlib.5Capp.5Cgfx_apps.5Csimple_draw_d1l2.5Ctarget.5Cd1lx_mango_ghs.5Cobj.5Cr_bsp_stdio_main.34::
                         917 .LDWlin34:
0000028a 23360000        918 	movea	0,sp,r6
0000028e 003a            919 	mov	0,r7
00000290 0a42            920 	mov	10,r8
                         921 	jarl	_strtol,lp
                         921 <EXPANSION BEGIN>
                         921 jarl22 _strtol , lp 
00000292 80ff0000*       921 <EXPANSION END>
00000296 0ae8            922 	mov	r10,r29
                         923 --283:     return receiveval;
                         924 --line283
                         925 ..lin.D.3A.5CRenesas_Electronics.5CD1x_RGL.5Crgl_ghs_D1Lx_obj_V1.2E2.2E0.5Cvlib.5Capp.5Cgfx_apps.5Csimple_draw_d1l2.5Ctarget.5Cd1lx_mango_ghs.5Cobj.5Cr_bsp_stdio_main.35::
                         926 .LDWlin35:
00000298 1d50            927 	mov	r29,r10
                         928 --	    .ef

                                                                      Page 18
                                                              C:\Users\YINGAO~1\AppData\Local\Temp\gh_000010s1.si
                         929 .LDW62:
0000029a 4a067f00        930 	dispose	5,{r29,r31},[lp]
                         931 	.type	_R_BSP_STDIO_ReadValue,@function
                         932 	.size	_R_BSP_STDIO_ReadValue,.-_R_BSP_STDIO_ReadValue
                         933 	.align	2
                         934 .LDW72:
                         935 --_receiveval	r29	local
                         936 --_numbers	0[sp]	local
                         937 
                         938 	.section ".bss","awb"
                         939 .L508:
                         940 	.type	.L508,@object
                         941 	.size	.L508,0
                         942 	.data
                         943 	.text
                         944 
                         945 --284: }
                         946 
                         947 --286: /*******************************************************************************
                         948 --287:   Function: R_BSP_STDIO_ReceiveChar
                         949 --289:     see <r_bsp_stdio_api.h> for details
                         950 --290: */
                         951 --292: void R_BSP_STDIO_ReadChar(int8_t *Character) 
                         952 	.align	2
                         953 	.align	2
                         954 	.global	_R_BSP_STDIO_ReadChar
                         955 _R_BSP_STDIO_ReadChar:
0000029e 8007e110        956 	prepare	{r27,r28,r29,r31},0
000002a2 06e0            957 	mov	r6,r28
000002a4 210600000000*   958 	mov	_loc_UsedIo,r1
000002aa 3b0600000000*   959 	mov	__iob,r27
                         960 --	    .bf
                         961 .LDW82:
                         962 --293: {
                         963 --294:     uint8_t got_it = 0;   
000002b0 00ea            964 	mov	0,r29
                         965 --295:     if (LOC_EXTERN_IO == loc_UsedIo) 
000002b2 210600000000*   966 	mov	_loc_UsedIo,r1
000002b8 210f0100        967 	ld.w	0[r1],r1
000002bc e009            968 	cmp	zero,r1
000002be fa0d*           969 	bne	.L528
                         970 --296:     {
                         971 --297:          while (0 == got_it) 
                         972 --line297
                         973 ..lin.D.3A.5CRenesas_Electronics.5CD1x_RGL.5Crgl_ghs_D1Lx_obj_V1.2E2.2E0.5Cvlib.5Capp.5Cgfx_apps.5Csimple_draw_d1l2.5Ctarget.5Cd1lx_mango_ghs.5Cobj.5Cr_bsp_stdio_main.36::
                         974 .LDWlin36:
000002c0 f505*           975 	br	.L530
                         976 .L532:
                         977 --298:          {
                         978 --299:             got_it = R_BSP_SYS_STDIO_Read((uint8_t *)Character, 1); 
                         979 --line299
                         980 ..lin.D.3A.5CRenesas_Electronics.5CD1x_RGL.5Crgl_ghs_D1Lx_obj_V1.2E2.2E0.5Cvlib.5Capp.5Cgfx_apps.5Csimple_draw_d1l2.5Ctarget.5Cd1lx_mango_ghs.5Cobj.5Cr_bsp_stdio_main.37::
                         981 .LDWlin37:
000002c2 1c30            982 	mov	r28,r6
000002c4 013a            983 	mov	1,r7
                         984 	jarl	_R_BSP_SYS_STDIO_Read,lp
                         984 <EXPANSION BEGIN>
                         984 jarl22 _R_BSP_SYS_STDIO_Read , lp 
000002c6 80ff0000*       984 <EXPANSION END>
000002ca 8a00            985 	zxb	r10
000002cc 0ae8            986 	mov	r10,r29

                                                                      Page 19
                                                              C:\Users\YINGAO~1\AppData\Local\Temp\gh_000010s1.si
                         987 .L530:
                         988 --line297
                         989 ..lin.D.3A.5CRenesas_Electronics.5CD1x_RGL.5Crgl_ghs_D1Lx_obj_V1.2E2.2E0.5Cvlib.5Capp.5Cgfx_apps.5Csimple_draw_d1l2.5Ctarget.5Cd1lx_mango_ghs.5Cobj.5Cr_bsp_stdio_main.38::
                         990 .LDWlin38:
000002ce e0e9            991 	cmp	zero,r29
000002d0 92fd*           992 	be	.L532
                         993 --300:          }
                         994 --301:          R_BSP_SYS_STDIO_Write((uint8_t *)Character, 1); 
                         995 --line301
                         996 ..lin.D.3A.5CRenesas_Electronics.5CD1x_RGL.5Crgl_ghs_D1Lx_obj_V1.2E2.2E0.5Cvlib.5Capp.5Cgfx_apps.5Csimple_draw_d1l2.5Ctarget.5Cd1lx_mango_ghs.5Cobj.5Cr_bsp_stdio_main.39::
                         997 .LDWlin39:
000002d2 1c30            998 	mov	r28,r6
000002d4 013a            999 	mov	1,r7
                        1000 	jarl	_R_BSP_SYS_STDIO_Write,lp
                        1000 <EXPANSION BEGIN>
                        1000 jarl22 _R_BSP_SYS_STDIO_Write , lp 
000002d6 80ff0000*      1000 <EXPANSION END>
000002da 950d*          1001 	br	.L533
                        1002 .L528:
                        1003 --302:     } 
                        1004 --303:     else 
                        1005 --304:     {
                        1006 --305:         *Character = getchar(); 
                        1007 --line305
                        1008 ..lin.D.3A.5CRenesas_Electronics.5CD1x_RGL.5Crgl_ghs_D1Lx_obj_V1.2E2.2E0.5Cvlib.5Capp.5Cgfx_apps.5Csimple_draw_d1l2.5Ctarget.5Cd1lx_mango_ghs.5Cobj.5Cr_bsp_stdio_main.40::
                        1009 .LDWlin40:
000002dc 1b30           1010 	mov	r27,r6
                        1011 	jarl	_getc,lp
                        1011 <EXPANSION BEGIN>
                        1011 jarl22 _getc , lp 
000002de 80ff0000*      1011 <EXPANSION END>
000002e2 5c570000       1012 	st.b	r10,0[r28]
                        1013 --306:         getchar();
                        1014 --line306
                        1015 ..lin.D.3A.5CRenesas_Electronics.5CD1x_RGL.5Crgl_ghs_D1Lx_obj_V1.2E2.2E0.5Cvlib.5Capp.5Cgfx_apps.5Csimple_draw_d1l2.5Ctarget.5Cd1lx_mango_ghs.5Cobj.5Cr_bsp_stdio_main.41::
                        1016 .LDWlin41:
000002e6 1b30           1017 	mov	r27,r6
                        1018 	jarl	_getc,lp
                        1018 <EXPANSION BEGIN>
                        1018 jarl22 _getc , lp 
000002e8 80ff0000*      1018 <EXPANSION END>
                        1019 .L533:
                        1020 --307:     } 
                        1021 --308: }
                        1022 --line308
                        1023 ..lin.D.3A.5CRenesas_Electronics.5CD1x_RGL.5Crgl_ghs_D1Lx_obj_V1.2E2.2E0.5Cvlib.5Capp.5Cgfx_apps.5Csimple_draw_d1l2.5Ctarget.5Cd1lx_mango_ghs.5Cobj.5Cr_bsp_stdio_main.42::
                        1024 .LDWlin42:
000002ec 0000           1025 	nop
                        1026 --	    .ef
                        1027 .LDW92:
000002ee 4006ff10       1028 	dispose	0,{r27,r28,r29,r31},[lp]
                        1029 	.type	_R_BSP_STDIO_ReadChar,@function
                        1030 	.size	_R_BSP_STDIO_ReadChar,.-_R_BSP_STDIO_ReadChar
                        1031 	.align	2
                        1032 .LDW03:
                        1033 --_got_it	r29	local
                        1034 
                        1035 --_Character	r28	param
                        1036 
                        1037 	.data
                        1038 	.text

                                                                      Page 20
                                                              C:\Users\YINGAO~1\AppData\Local\Temp\gh_000010s1.si
                        1039 
                        1040 
                        1041 --311: /*******************************************************************************
                        1042 --312:   Function: R_BSP_STDIO_ReceiveChar
                        1043 --314:     see <r_bsp_stdio_api.h> for details
                        1044 --315: */
                        1045 --317: void R_BSP_STDIO_ReceiveChar(int8_t *Character) 
                        1046 	.align	2
                        1047 	.align	2
                        1048 	.global	_R_BSP_STDIO_ReceiveChar
                        1049 _R_BSP_STDIO_ReceiveChar:
000002f2 8007e170       1050 	prepare	{r25,r26,r27,r28,r29,r31},0
000002f6 3d0600000000*  1051 	mov	_loc_UsedIo,r29
000002fc 06d8           1052 	mov	r6,r27
000002fe 1dc8           1053 	mov	r29,r25
00000300 3a0600000000*  1054 	mov	__iob,r26
                        1055 --	    .bf
                        1056 .LDW13:
                        1057 --318: {
                        1058 --319:     uint32_t len = 0u;
00000306 00e2           1059 	mov	0,r28
                        1060 --320:   
                        1061 --321:     do 
00000308 0000           1062 	nop
                        1063 .L612:
                        1064 --322:     {
                        1065 --323:         if (LOC_EXTERN_IO == loc_UsedIo) 
0000030a 3d0f0100       1066 	ld.w	0[r29],r1
0000030e e009           1067 	cmp	zero,r1
00000310 fa05*          1068 	bne	.L613
                        1069 --324:         {
                        1070 --325:             len = R_BSP_SYS_STDIO_Read((uint8_t *)Character, 1);
                        1071 --line325
                        1072 ..lin.D.3A.5CRenesas_Electronics.5CD1x_RGL.5Crgl_ghs_D1Lx_obj_V1.2E2.2E0.5Cvlib.5Capp.5Cgfx_apps.5Csimple_draw_d1l2.5Ctarget.5Cd1lx_mango_ghs.5Cobj.5Cr_bsp_stdio_main.43::
                        1073 .LDWlin43:
00000312 1b30           1074 	mov	r27,r6
00000314 013a           1075 	mov	1,r7
                        1076 	jarl	_R_BSP_SYS_STDIO_Read,lp
                        1076 <EXPANSION BEGIN>
                        1076 jarl22 _R_BSP_SYS_STDIO_Read , lp 
00000316 80ff0000*      1076 <EXPANSION END>
0000031a 0ae0           1077 	mov	r10,r28
0000031c e50d*          1078 	br	.L611
                        1079 .L613:
                        1080 --326:         } 
                        1081 --327:         else 
                        1082 --328:         {
                        1083 --329:            *Character = getchar();
                        1084 --line329
                        1085 ..lin.D.3A.5CRenesas_Electronics.5CD1x_RGL.5Crgl_ghs_D1Lx_obj_V1.2E2.2E0.5Cvlib.5Capp.5Cgfx_apps.5Csimple_draw_d1l2.5Ctarget.5Cd1lx_mango_ghs.5Cobj.5Cr_bsp_stdio_main.44::
                        1086 .LDWlin44:
0000031e 1a30           1087 	mov	r26,r6
                        1088 	jarl	_getc,lp
                        1088 <EXPANSION BEGIN>
                        1088 jarl22 _getc , lp 
00000320 80ff0000*      1088 <EXPANSION END>
00000324 5b570000       1089 	st.b	r10,0[r27]
                        1090 --330:             if ( '\n' != *Character)
                        1091 --line330
                        1092 ..lin.D.3A.5CRenesas_Electronics.5CD1x_RGL.5Crgl_ghs_D1Lx_obj_V1.2E2.2E0.5Cvlib.5Capp.5Cgfx_apps.5Csimple_draw_d1l2.5Ctarget.5Cd1lx_mango_ghs.5Cobj.5Cr_bsp_stdio_main.45::
                        1093 .LDWlin45:

                                                                      Page 21
                                                              C:\Users\YINGAO~1\AppData\Local\Temp\gh_000010s1.si
00000328 1b0f0000       1094 	ld.b	0[r27],r1
0000032c 6a0a           1095 	cmp	10,r1
0000032e c205*          1096 	be	.L616
                        1097 --331:             {
                        1098 --332:                 getchar();
                        1099 --line332
                        1100 ..lin.D.3A.5CRenesas_Electronics.5CD1x_RGL.5Crgl_ghs_D1Lx_obj_V1.2E2.2E0.5Cvlib.5Capp.5Cgfx_apps.5Csimple_draw_d1l2.5Ctarget.5Cd1lx_mango_ghs.5Cobj.5Cr_bsp_stdio_main.46::
                        1101 .LDWlin46:
00000330 1a30           1102 	mov	r26,r6
                        1103 	jarl	_getc,lp
                        1103 <EXPANSION BEGIN>
                        1103 jarl22 _getc , lp 
00000332 80ff0000*      1103 <EXPANSION END>
                        1104 .L616:
                        1105 --333:             }
                        1106 --334:             len = 1u;
                        1107 --line334
                        1108 ..lin.D.3A.5CRenesas_Electronics.5CD1x_RGL.5Crgl_ghs_D1Lx_obj_V1.2E2.2E0.5Cvlib.5Capp.5Cgfx_apps.5Csimple_draw_d1l2.5Ctarget.5Cd1lx_mango_ghs.5Cobj.5Cr_bsp_stdio_main.47::
                        1109 .LDWlin47:
00000336 01e2           1110 	mov	1,r28
                        1111 .L611:
00000338 e0e1           1112 	cmp	zero,r28
0000033a 82ed*          1113 	be	.L612
                        1114 --335:         }
                        1115 --336:     } while(0 == len);
                        1116 --337:     if (LOC_EXTERN_IO == loc_UsedIo) 
                        1117 --line337
                        1118 ..lin.D.3A.5CRenesas_Electronics.5CD1x_RGL.5Crgl_ghs_D1Lx_obj_V1.2E2.2E0.5Cvlib.5Capp.5Cgfx_apps.5Csimple_draw_d1l2.5Ctarget.5Cd1lx_mango_ghs.5Cobj.5Cr_bsp_stdio_main.48::
                        1119 .LDWlin48:
0000033c 3d0f0100       1120 	ld.w	0[r29],r1
00000340 e009           1121 	cmp	zero,r1
00000342 da05*          1122 	bne	.L618
                        1123 --338:     {
                        1124 --339:         R_BSP_SYS_STDIO_Write((uint8_t *)Character, 1);
                        1125 --line339
                        1126 ..lin.D.3A.5CRenesas_Electronics.5CD1x_RGL.5Crgl_ghs_D1Lx_obj_V1.2E2.2E0.5Cvlib.5Capp.5Cgfx_apps.5Csimple_draw_d1l2.5Ctarget.5Cd1lx_mango_ghs.5Cobj.5Cr_bsp_stdio_main.49::
                        1127 .LDWlin49:
00000344 1b30           1128 	mov	r27,r6
00000346 013a           1129 	mov	1,r7
                        1130 	jarl	_R_BSP_SYS_STDIO_Write,lp
                        1130 <EXPANSION BEGIN>
                        1130 jarl22 _R_BSP_SYS_STDIO_Write , lp 
00000348 80ff0000*      1130 <EXPANSION END>
                        1131 .L618:
                        1132 --340:     } 
                        1133 --342: }
                        1134 --line342
                        1135 ..lin.D.3A.5CRenesas_Electronics.5CD1x_RGL.5Crgl_ghs_D1Lx_obj_V1.2E2.2E0.5Cvlib.5Capp.5Cgfx_apps.5Csimple_draw_d1l2.5Ctarget.5Cd1lx_mango_ghs.5Cobj.5Cr_bsp_stdio_main.50::
                        1136 .LDWlin50:
0000034c 0000           1137 	nop
                        1138 --	    .ef
                        1139 .LDW23:
0000034e 4006ff70       1140 	dispose	0,{r25,r26,r27,r28,r29,r31},[lp]
                        1141 	.type	_R_BSP_STDIO_ReceiveChar,@function
                        1142 	.size	_R_BSP_STDIO_ReceiveChar,.-_R_BSP_STDIO_ReceiveChar
                        1143 	.align	2
                        1144 .LDW33:
                        1145 --_len	r28	local
                        1146 
                        1147 --_Character	r27	param
                        1148 

                                                                      Page 22
                                                              C:\Users\YINGAO~1\AppData\Local\Temp\gh_000010s1.si
                        1149 	.data
                        1150 	.text
                        1151 
                        1152 
                        1153 --346: /*******************************************************************************
                        1154 --347:   Function: R_BSP_STDIO_ReadHex
                        1155 --349:     see <r_bsp_stdio_api.h> for details
                        1156 --350: */
                        1157 --352: void R_BSP_STDIO_ReadHex(uint32_t *ReceiveHex) 
                        1158 	.align	2
                        1159 	.align	2
                        1160 	.global	_R_BSP_STDIO_ReadHex
                        1161 _R_BSP_STDIO_ReadHex:
00000352 8a076100       1162 	prepare	{r29,r31},5
00000356 06e8           1163 	mov	r6,r29
                        1164 --	    .bf
                        1165 .LDW43:
                        1166 --353: { 
                        1167 --354:     char buffer [20];
                        1168 --355:     
                        1169 --356:     R_BSP_STDIO_ReadString(buffer, sizeof(buffer), 0);                   
00000358 23360000       1170 	movea	0,sp,r6
0000035c 203e1400       1171 	movea	20,zero,r7
00000360 0042           1172 	mov	0,r8
                        1173 	jarl	_R_BSP_STDIO_ReadString,lp
                        1173 <EXPANSION BEGIN>
                        1173 jarl22 _R_BSP_STDIO_ReadString , lp 
00000362 bfff68fe*      1173 <EXPANSION END>
                        1174 --357:     sscanf(buffer, "%x", ReceiveHex);
                        1175 --line357
                        1176 ..lin.D.3A.5CRenesas_Electronics.5CD1x_RGL.5Crgl_ghs_D1Lx_obj_V1.2E2.2E0.5Cvlib.5Capp.5Cgfx_apps.5Csimple_draw_d1l2.5Ctarget.5Cd1lx_mango_ghs.5Cobj.5Cr_bsp_stdio_main.51::
                        1177 .LDWlin51:
00000366 1d40           1178 	mov	r29,r8
00000368 23360000       1179 	movea	0,sp,r6
0000036c 270600000000*  1180 	mov	.L730,r7
                        1181 	jarl	_sscanf,lp
                        1181 <EXPANSION BEGIN>
                        1181 jarl22 _sscanf , lp 
00000372 80ff0000*      1181 <EXPANSION END>
                        1182 --358: }
                        1183 --line358
                        1184 ..lin.D.3A.5CRenesas_Electronics.5CD1x_RGL.5Crgl_ghs_D1Lx_obj_V1.2E2.2E0.5Cvlib.5Capp.5Cgfx_apps.5Csimple_draw_d1l2.5Ctarget.5Cd1lx_mango_ghs.5Cobj.5Cr_bsp_stdio_main.52::
                        1185 .LDWlin52:
00000376 0000           1186 	nop
                        1187 --	    .ef
                        1188 .LDW53:
00000378 4a067f00       1189 	dispose	5,{r29,r31},[lp]
                        1190 	.type	_R_BSP_STDIO_ReadHex,@function
                        1191 	.size	_R_BSP_STDIO_ReadHex,.-_R_BSP_STDIO_ReadHex
                        1192 	.align	2
                        1193 .LDW63:
                        1194 --_buffer	0[sp]	local
                        1195 --.L717	.L730	static
                        1196 
                        1197 --_ReceiveHex	r29	param
                        1198 
                        1199 	.section ".bss","awb"
                        1200 .L716:
                        1201 	.type	.L716,@object
                        1202 	.size	.L716,0
                        1203 	.section ".rodata","a"

                                                                      Page 23
                                                              C:\Users\YINGAO~1\AppData\Local\Temp\gh_000010s1.si
                        1204 .L730:--	"%x"
00000081 2578           1205 	.byte	37,120
00000083 00             1206 	.byte	0
                        1207 	.type	.L730,@object
                        1208 	.size	.L730,3
                        1209 	.data
                        1210 	.text
                        1211 
                        1212 
                        1213 --361: /*******************************************************************************
                        1214 --362:   Function: R_BSP_STDIO_Init
                        1215 --364:     see <r_bsp_stdio_api.h> for details
                        1216 --365: */
                        1217 --366: void R_BSP_STDIO_Init(void) 
                        1218 	.align	2
                        1219 	.align	2
                        1220 	.global	_R_BSP_STDIO_Init
                        1221 _R_BSP_STDIO_Init:
0000037c 8007e110       1222 	prepare	{r27,r28,r29,r31},0
00000380 3d0600000000*  1223 	mov	_loc_UsedIo,r29
00000386 1dd8           1224 	mov	r29,r27
                        1225 --	    .bf
                        1226 .LDW73:
                        1227 --367: {
                        1228 --368:     uint8_t port = R_BSP_SYS_STDIO_GetActCh(); 
                        1229 	jarl	_R_BSP_SYS_STDIO_GetActCh,lp
                        1229 <EXPANSION BEGIN>
                        1229 jarl22 _R_BSP_SYS_STDIO_GetActCh , lp 
00000388 80ff0000*      1229 <EXPANSION END>
0000038c 0ae0           1230 	mov	r10,r28
                        1231 --369:     R_BSP_SYS_STDIO_Init(); 
                        1232 --line369
                        1233 ..lin.D.3A.5CRenesas_Electronics.5CD1x_RGL.5Crgl_ghs_D1Lx_obj_V1.2E2.2E0.5Cvlib.5Capp.5Cgfx_apps.5Csimple_draw_d1l2.5Ctarget.5Cd1lx_mango_ghs.5Cobj.5Cr_bsp_stdio_main.53::
                        1234 .LDWlin53:
                        1235 	jarl	_R_BSP_SYS_STDIO_Init,lp
                        1235 <EXPANSION BEGIN>
                        1235 jarl22 _R_BSP_SYS_STDIO_Init , lp 
0000038e 80ff0000*      1235 <EXPANSION END>
                        1236 --370:     if (0xFF != port)
                        1237 --line370
                        1238 ..lin.D.3A.5CRenesas_Electronics.5CD1x_RGL.5Crgl_ghs_D1Lx_obj_V1.2E2.2E0.5Cvlib.5Capp.5Cgfx_apps.5Csimple_draw_d1l2.5Ctarget.5Cd1lx_mango_ghs.5Cobj.5Cr_bsp_stdio_main.54::
                        1239 .LDWlin54:
00000392 1c0601ff       1240 	addi	-255,r28,zero
00000396 a20d*          1241 	be	.L738
                        1242 --371:     {
                        1243 --372:         loc_UsedIo = LOC_EXTERN_IO;  
                        1244 --line372
                        1245 ..lin.D.3A.5CRenesas_Electronics.5CD1x_RGL.5Crgl_ghs_D1Lx_obj_V1.2E2.2E0.5Cvlib.5Capp.5Cgfx_apps.5Csimple_draw_d1l2.5Ctarget.5Cd1lx_mango_ghs.5Cobj.5Cr_bsp_stdio_main.55::
                        1246 .LDWlin55:
00000398 7d070100       1247 	st.w	zero,0[r29]
                        1248 --373:         printf("\n** Using UART port %d for stdio **\n", port); 
0000039c 1c38           1249 	mov	r28,r7
0000039e 260600000000*  1250 	mov	.L793,r6
                        1251 	jarl	_printf,lp
                        1251 <EXPANSION BEGIN>
                        1251 jarl22 _printf , lp 
000003a4 80ff0000*      1251 <EXPANSION END>
000003a8 c505*          1252 	br	.L740
                        1253 .L738:
                        1254 --374:     }
                        1255 --375:     else 

                                                                      Page 24
                                                              C:\Users\YINGAO~1\AppData\Local\Temp\gh_000010s1.si
                        1256 --376:     {
                        1257 --377:         loc_UsedIo = LOC_DEBUGER_IO;  
                        1258 --line377
                        1259 ..lin.D.3A.5CRenesas_Electronics.5CD1x_RGL.5Crgl_ghs_D1Lx_obj_V1.2E2.2E0.5Cvlib.5Capp.5Cgfx_apps.5Csimple_draw_d1l2.5Ctarget.5Cd1lx_mango_ghs.5Cobj.5Cr_bsp_stdio_main.56::
                        1260 .LDWlin56:
000003aa 010a           1261 	mov	1,r1
000003ac 7d0f0100       1262 	st.w	r1,0[r29]
                        1263 .L740:
                        1264 --378:     }
                        1265 --379: }
000003b0 0000           1266 	nop
                        1267 --	    .ef
                        1268 .LDW83:
000003b2 4006ff10       1269 	dispose	0,{r27,r28,r29,r31},[lp]
                        1270 	.type	_R_BSP_STDIO_Init,@function
                        1271 	.size	_R_BSP_STDIO_Init,.-_R_BSP_STDIO_Init
                        1272 	.align	2
                        1273 .LDW93:
                        1274 --_port	r28	local
                        1275 --.L772	.L793	static
                        1276 
                        1277 	.section ".rodata","a"
                        1278 .L793:--	"\n** Using UART port %d for stdio **\n"
00000084 0a2a2a20       1279 	.byte	10,42,42,32
00000088 5573696e       1280 	.byte	85,115,105,110
0000008c 67205541       1281 	.byte	103,32,85,65
00000090 52542070       1282 	.byte	82,84,32,112
00000094 6f727420       1283 	.byte	111,114,116,32
00000098 25642066       1284 	.byte	37,100,32,102
0000009c 6f722073       1285 	.byte	111,114,32,115
000000a0 7464696f       1286 	.byte	116,100,105,111
000000a4 202a2a0a       1287 	.byte	32,42,42,10
000000a8 00             1288 	.byte	0
                        1289 	.type	.L793,@object
                        1290 	.size	.L793,37
                        1291 	.data
                        1292 	.text
                        1293 
                        1294 
                        1295 --381: /*******************************************************************************
                        1296 --382:   Function: R_BSP_STDIO_DeInit
                        1297 --384:     see <r_bsp_stdio_api.h> for details
                        1298 --385: */
                        1299 --386: void R_BSP_STDIO_DeInit(void) 
                        1300 	.align	2
                        1301 	.align	2
                        1302 	.global	_R_BSP_STDIO_DeInit
                        1303 _R_BSP_STDIO_DeInit:
000003b6 80076100       1304 	prepare	{r29,r31},0
000003ba 3d0600000000*  1305 	mov	_loc_UsedIo,r29
                        1306 --	    .bf
                        1307 .LDW04:
                        1308 --387: {
                        1309 --388:     R_BSP_SYS_STDIO_DeInit(); 
                        1310 	jarl	_R_BSP_SYS_STDIO_DeInit,lp
                        1310 <EXPANSION BEGIN>
                        1310 jarl22 _R_BSP_SYS_STDIO_DeInit , lp 
000003c0 80ff0000*      1310 <EXPANSION END>
                        1311 --389:     loc_UsedIo = LOC_DEBUGER_IO;  
                        1312 --line389
                        1313 ..lin.D.3A.5CRenesas_Electronics.5CD1x_RGL.5Crgl_ghs_D1Lx_obj_V1.2E2.2E0.5Cvlib.5Capp.5Cgfx_apps.5Csimple_draw_d1l2.5Ctarget.5Cd1lx_mango_ghs.5Cobj.5Cr_bsp_stdio_main.57::

                                                                      Page 25
                                                              C:\Users\YINGAO~1\AppData\Local\Temp\gh_000010s1.si
                        1314 .LDWlin57:
000003c4 2b0600000000*  1315 	mov	_loc_UsedIo,r11
000003ca 010a           1316 	mov	1,r1
000003cc 6b0f0100       1317 	st.w	r1,0[r11]
                        1318 --390: }
000003d0 0000           1319 	nop
                        1320 --	    .ef
                        1321 .LDW14:
000003d2 40067f00       1322 	dispose	0,{r29,r31},[lp]
                        1323 	.type	_R_BSP_STDIO_DeInit,@function
                        1324 	.size	_R_BSP_STDIO_DeInit,.-_R_BSP_STDIO_DeInit
                        1325 	.align	2
                        1326 .LDW24:
                        1327 
                        1328 	.data
                        1329 	.text
                        1330 
                        1331 	.align	2
                        1332 --__iob	__iob	import
                        1333 --_loc_Buffer	_loc_Buffer	static
                        1334 --_loc_UsedIo	_loc_UsedIo	static
                        1335 
                        1336 	.data
                        1337 	.ghsnote version,14
                        1338 	.ghsnote tools,3
                        1339 	.ghsnote options,144
                        1340 	.text
                        1341 	.align	2
                        1342 ..eof.D.3A.5CRenesas_Electronics.5CD1x_RGL.5Crgl_ghs_D1Lx_obj_V1.2E2.2E0.5Cvlib.5Capp.5Cgfx_apps.5Csimple_draw_d1l2.5Ctarget.5Cd1lx_mango_ghs.5Cobj.5Cr_bsp_stdio_main...44.3A.5CRenesas_Electronics.5CD1x_RGL.5Crgl_ghs_D1Lx_obj_V1.2E2.2E0.5Cvlib.5Capp.5Cgfx_apps.5Csimple_draw_d1l2.5Ctarget.5Cd1lx_mango_ghs..5A740382..0::
                        1343 .rh850_flags REGMODE22,DATA_ALIGN8,GP_FIX,EP_NONFIX,TP_FIX,REG2_RESERVE,G3M
