                                                                      Page 1
                                                              C:\Users\YINGAO~1\AppData\Local\Temp\gh_00008441.si
Command Line: C:\ghs\comp_201355\ease850.exe -w -elf -b0 -ID:\Renesas_Electronics\D1x_RGL\rgl_ghs_D1Lx_obj_V1.2.0\vlib\macro\flashc\sfma\lib -I../../../../../Device -I../../../../../Driver/ADCE -I../../../../../Driver/CLOCK -I../../../../../Driver/DIO -I../../../../../Driver/DSPI -I../../../../../Driver/Interrupt -I../../../../../Driver/ISM -I../../../../../Driver/OSTM -I../../../../../Driver/PWM -I../../../../../Driver/RSTC -I../../../../../Driver/RTCA -I../../../../../Driver/STBC -I../../../../../Driver/TAUB -I../../../../../Driver/WDT -I../../../../../middleware\ADM -I../../../../../middleware\BPM -I../../../../../middleware\EED -I../../../../../middleware\IOM -I../../../../../middleware\LRM -I../../../../../middleware\MOM -I../../../../../middleware\PWMM -I../../../../../Common -I../../../../../Applayer\DSM -I../../../../../Applayer\FM -I../../../../../Applayer\TPM -I../../../../../Applayer\ACC -I../../../../../Applayer\ASS -I../../../../../Applayer\BAT -I../../../../../Applayer\COM -I../../../../../Applayer\COM\vtp -I../../../../../Applayer\COM\vtp\lib -I../../../../../Applayer\CRUS -I../../../../../Applayer\DIAG -I../../../../../Applayer\FC -I../../../../../Applayer\FL -I../../../../../Applayer\HSD -I../../../../../Applayer\IDLE -I../../../../../Applayer\ILLU -I../../../../../Applayer\LED -I../../../../../Applayer\MSG -I../../../../../Applayer\NVM -I../../../../../Applayer\ODO -I../../../../../Applayer\PWR -I../../../../../Applayer\RANG -I../../../../../Applayer\RST -I../../../../../Applayer\RTC -I../../../../../Applayer\SCS -I../../../../../Applayer\SSB -I../../../../../Applayer\ST -I../../../../../Applayer\STSMG -I../../../../../Applayer\SYS -I../../../../../Applayer\TIP -I../../../../../Applayer\TRIP -I../../../../../Applayer\CHM -I../../../../../Applayer\DM -I../../../../../Applayer\EVT -I../../../../../Applayer\FTR -I../../../../../Applayer\SLF -I../../../../../Applayer\NWD -I../../../../../Applayer\TPMS -I../../../../../Applayer\WFM -I../../../../../Applayer\NZM -I../../../../../app/gfx_apps/simple_draw_d1l2/src -I../../../../../bsp/board//config -I../../../../../bsp/board//src/gfx -I../../../../../bsp/board//src/hmi -I../../../../../bsp/board//src/stdio -I../../../../../bsp/board/d1lx_mango/config -I../../../../../bsp/board/d1lx_mango/src -I../../../../../bsp/board/d1lx_mango/src/gfx -I../../../../../bsp/board/d1lx_mango/src/hmi -I../../../../../bsp/board/d1lx_mango/src/stdio -I../../../../../bsp/gfx/lib -I../../../../../bsp/gfx/src -I../../../../../bsp/hmi/lib -I../../../../../bsp/hmi/src -I../../../../../bsp/lib -I../../../../../bsp/stdio/lib -I../../../../../bsp/stdio/src -I../../../../../cdi/lib -I../../../../../cdi/src -I../../../../../compiler/rh850_ghs/inc -I../../../../../device/d1lx/lib -I../../../../../device/d1lx/macro_cfg -I../../../../../device/d1lx/src/dev -I../../../../../device/d1lx/src/rh850_ghs -I../../../../../device/d1x_common/macro_cfg -I../../../../../device/d1x_common/src/csisw -I../../../../../device/d1x_common/src/ddb -I../../../../../device/d1x_common/src/dev -I../../../../../device/d1x_common/src/gfxbus -I../../../../../device/d1x_common/src/gpio -I../../../../../device/d1x_common/src/ostm -I../../../../../device/d1x_common/src/pbg -I../../../../../device/d1x_common/src/riic -I../../../../../device/d1x_common/src/sfma -I../../../../../device/d1x_common/src/spea -I../../../../../device/d1x_common/src/tauj -I../../../../../device/d1x_common/src/tick -I../../../../../device/d1x_common/src/vdce -I../../../../../device/d1x_common/src/wm -I../../../../../device/d1x_common/src/xbus -I../../../../../device/lib -I../../../../../macro/bus/pbg/lib -I../../../../../macro/bus/pbg/src -I../../../../../macro/csi/csisw/lib -I../../../../../macro/csi/csisw/src -I../../../../../macro/drw2d/lib -I../../../../../macro/drw2d/platform/cpu -I../../../../../macro/drw2d/platform/os/no_os -I../../../../../macro/drw2d/src -I../../../../../macro/flashc/sfcdb/lib -I../../../../../macro/flashc/sfcdb/src -I../../../../../macro/flashc/sfma/lib -I../../../../../macro/flashc/sfma/src -I../../../../../macro/gfxbus/lib -I../../../../../macro/gfxbus/src -I../../../../../macro/gfxbus/xbus/lib -I../../../../../macro/gfxbus/xbus/src -I../../../../../macro/gpio/lib -I../../../../../macro/gpio/src -I../../../../../macro/i2c/riic/lib -I../../../../../macro/i2c/riic/src -I../../../../../macro/tick/lib -I../../../../../macro/tick/src -I../../../../../macro/timer/ostm/lib -I../../../../../macro/timer/ostm/src -I../../../../../macro/timer/tauj/lib -I../../../../../macro/timer/tauj/src -I../../../../../macro/vdce/lib -I../../../../../macro/vdce/src -I../../../../../macro/vo/ddb/lib -I../../../../../macro/vo/ddb/src -I../../../../../macro/vo/spea/lib -I../../../../../macro/vo/spea/src -I../../../../../macro/wm/lib -I../../../../../macro/wm/src -I../../../../../app/gfx_apps/simple_draw_d1l2/src/QD_HMI -I../../../../../app/gfx_apps/simple_draw_d1l2/src/QD_HMI/HMI_Data -IC:\ghs\comp_201355\lib\rh850_22 -cg_underscore -cpu=rh850g3m -no_v850_simd -nomacro -patch_dbo=D:\Renesas_Electronics\D1x_RGL\rgl_ghs_D1Lx_obj_V1.2.0\vlib\app\gfx_apps\simple_draw_d1l2\target\d1lx_mango_ghs\obj\r_cdi_rbuffer.dbo -source=r_cdi_rbuffer.c -o .\obj\gh_00008441.o -list=.\obj\r_cdi_rbuffer.lst C:\Users\YINGAO~1\AppData\Local\Temp\gh_00008441.si 
Original File: C:\Users\YINGAO~1\AppData\Local\Temp\gh_00008441.si
Source File: r_cdi_rbuffer.c
Directory: D:\Renesas_Electronics\D1x_RGL\rgl_ghs_D1Lx_obj_V1.2.0\vlib\app\gfx_apps\simple_draw_d1l2\target\d1lx_mango_ghs
Host OS: Windows 7 Service Pack 1
EASE: Copyright (C) 1983-2013 Green Hills Software.  All Rights Reversed.
Release: Compiler v2013.5.5
Build Directory: [Directory] BTOWINBOX:c:/build_2013_5_bto/2013-10-04.1311-2013_5_bto/win32-comp-ecom
Revision: [VCInfo] http://toolsvc/branches/release-branch-2013-5-bto/src@496240 (built by build)
Revision Date: Sat Oct 05 04:54:43 2013

Release Date: Sat Oct 05 05:20:49 2013

                           1 --Driver Command: ccv850 -c -MD
                           2 --		-ID:\Renesas_Electronics\D1x_RGL\rgl_ghs_D1Lx_obj_V1.2.0\vlib\macro\flashc\sfma\lib
                           3 --		-I../../../../../Device -I../../../../../Driver/ADCE
                           4 --		-I../../../../../Driver/CLOCK -I../../../../../Driver/DIO
                           5 --		-I../../../../../Driver/DSPI -I../../../../../Driver/Interrupt
                           6 --		-I../../../../../Driver/ISM -I../../../../../Driver/OSTM
                           7 --		-I../../../../../Driver/PWM -I../../../../../Driver/RSTC
                           8 --		-I../../../../../Driver/RTCA -I../../../../../Driver/STBC
                           9 --		-I../../../../../Driver/TAUB -I../../../../../Driver/WDT
                          10 --		-I../../../../../middleware\ADM -I../../../../../middleware\BPM
                          11 --		-I../../../../../middleware\EED -I../../../../../middleware\IOM
                          12 --		-I../../../../../middleware\LRM -I../../../../../middleware\MOM
                          13 --		-I../../../../../middleware\PWMM -I../../../../../Common
                          14 --		-I../../../../../Applayer\DSM -I../../../../../Applayer\FM
                          15 --		-I../../../../../Applayer\TPM -I../../../../../Applayer\ACC
                          16 --		-I../../../../../Applayer\ASS -I../../../../../Applayer\BAT
                          17 --		-I../../../../../Applayer\COM -I../../../../../Applayer\COM\vtp
                          18 --		-I../../../../../Applayer\COM\vtp\lib
                          19 --		-I../../../../../Applayer\CRUS -I../../../../../Applayer\DIAG
                          20 --		-I../../../../../Applayer\FC -I../../../../../Applayer\FL
                          21 --		-I../../../../../Applayer\HSD -I../../../../../Applayer\IDLE
                          22 --		-I../../../../../Applayer\ILLU -I../../../../../Applayer\LED
                          23 --		-I../../../../../Applayer\MSG -I../../../../../Applayer\NVM
                          24 --		-I../../../../../Applayer\ODO -I../../../../../Applayer\PWR
                          25 --		-I../../../../../Applayer\RANG -I../../../../../Applayer\RST
                          26 --		-I../../../../../Applayer\RTC -I../../../../../Applayer\SCS
                          27 --		-I../../../../../Applayer\SSB -I../../../../../Applayer\ST
                          28 --		-I../../../../../Applayer\STSMG -I../../../../../Applayer\SYS
                          29 --		-I../../../../../Applayer\TIP -I../../../../../Applayer\TRIP
                          30 --		-I../../../../../Applayer\CHM -I../../../../../Applayer\DM
                          31 --		-I../../../../../Applayer\EVT -I../../../../../Applayer\FTR
                          32 --		-I../../../../../Applayer\SLF -I../../../../../Applayer\NWD
                          33 --		-I../../../../../Applayer\TPMS -I../../../../../Applayer\WFM
                          34 --		-I../../../../../Applayer\NZM
                          35 --		-I../../../../../app/gfx_apps/simple_draw_d1l2/src
                          36 --		-I../../../../../bsp/board//config
                          37 --		-I../../../../../bsp/board//src/gfx
                          38 --		-I../../../../../bsp/board//src/hmi
                          39 --		-I../../../../../bsp/board//src/stdio
                          40 --		-I../../../../../bsp/board/d1lx_mango/config
                          41 --		-I../../../../../bsp/board/d1lx_mango/src
                          42 --		-I../../../../../bsp/board/d1lx_mango/src/gfx
                          43 --		-I../../../../../bsp/board/d1lx_mango/src/hmi
                          44 --		-I../../../../../bsp/board/d1lx_mango/src/stdio
                          45 --		-I../../../../../bsp/gfx/lib -I../../../../../bsp/gfx/src
                          46 --		-I../../../../../bsp/hmi/lib -I../../../../../bsp/hmi/src
                          47 --		-I../../../../../bsp/lib -I../../../../../bsp/stdio/lib
                          48 --		-I../../../../../bsp/stdio/src -I../../../../../cdi/lib
                          49 --		-I../../../../../cdi/src -I../../../../../compiler/rh850_ghs/inc
                          50 --		-I../../../../../device/d1lx/lib

                                                                      Page 2
                                                              C:\Users\YINGAO~1\AppData\Local\Temp\gh_00008441.si
                          51 --		-I../../../../../device/d1lx/macro_cfg
                          52 --		-I../../../../../device/d1lx/src/dev
                          53 --		-I../../../../../device/d1lx/src/rh850_ghs
                          54 --		-I../../../../../device/d1x_common/macro_cfg
                          55 --		-I../../../../../device/d1x_common/src/csisw
                          56 --		-I../../../../../device/d1x_common/src/ddb
                          57 --		-I../../../../../device/d1x_common/src/dev
                          58 --		-I../../../../../device/d1x_common/src/gfxbus
                          59 --		-I../../../../../device/d1x_common/src/gpio
                          60 --		-I../../../../../device/d1x_common/src/ostm
                          61 --		-I../../../../../device/d1x_common/src/pbg
                          62 --		-I../../../../../device/d1x_common/src/riic
                          63 --		-I../../../../../device/d1x_common/src/sfma
                          64 --		-I../../../../../device/d1x_common/src/spea
                          65 --		-I../../../../../device/d1x_common/src/tauj
                          66 --		-I../../../../../device/d1x_common/src/tick
                          67 --		-I../../../../../device/d1x_common/src/vdce
                          68 --		-I../../../../../device/d1x_common/src/wm
                          69 --		-I../../../../../device/d1x_common/src/xbus
                          70 --		-I../../../../../device/lib -I../../../../../macro/bus/pbg/lib
                          71 --		-I../../../../../macro/bus/pbg/src
                          72 --		-I../../../../../macro/csi/csisw/lib
                          73 --		-I../../../../../macro/csi/csisw/src
                          74 --		-I../../../../../macro/drw2d/lib
                          75 --		-I../../../../../macro/drw2d/platform/cpu
                          76 --		-I../../../../../macro/drw2d/platform/os/no_os
                          77 --		-I../../../../../macro/drw2d/src
                          78 --		-I../../../../../macro/flashc/sfcdb/lib
                          79 --		-I../../../../../macro/flashc/sfcdb/src
                          80 --		-I../../../../../macro/flashc/sfma/lib
                          81 --		-I../../../../../macro/flashc/sfma/src
                          82 --		-I../../../../../macro/gfxbus/lib
                          83 --		-I../../../../../macro/gfxbus/src
                          84 --		-I../../../../../macro/gfxbus/xbus/lib
                          85 --		-I../../../../../macro/gfxbus/xbus/src
                          86 --		-I../../../../../macro/gpio/lib -I../../../../../macro/gpio/src
                          87 --		-I../../../../../macro/i2c/riic/lib
                          88 --		-I../../../../../macro/i2c/riic/src
                          89 --		-I../../../../../macro/tick/lib -I../../../../../macro/tick/src
                          90 --		-I../../../../../macro/timer/ostm/lib
                          91 --		-I../../../../../macro/timer/ostm/src
                          92 --		-I../../../../../macro/timer/tauj/lib
                          93 --		-I../../../../../macro/timer/tauj/src
                          94 --		-I../../../../../macro/vdce/lib -I../../../../../macro/vdce/src
                          95 --		-I../../../../../macro/vo/ddb/lib
                          96 --		-I../../../../../macro/vo/ddb/src
                          97 --		-I../../../../../macro/vo/spea/lib
                          98 --		-I../../../../../macro/vo/spea/src -I../../../../../macro/wm/lib
                          99 --		-I../../../../../macro/wm/src
                         100 --		-I../../../../../app/gfx_apps/simple_draw_d1l2/src/QD_HMI
                         101 --		-I../../../../../app/gfx_apps/simple_draw_d1l2/src/QD_HMI/HMI_Data
                         102 --		-G --no_commons --no_implicit_include --prototype_errors
                         103 --		-DR_DRW2D_OS_NO_OS -DR_DRW2D_SYS_CPU -DUSED_CPU=RH850G3M
                         104 --		-DUSE_BSP_GFX -DUSE_BSP_HMI -DUSE_BSP_STDIO -DUSE_CDI -DUSE_CSISW
                         105 --		-DUSE_DDB -DUSE_DRW2D -DUSE_GFXBUS -DUSE_GPIO -DUSE_OSTM
                         106 --		-DUSE_PBG -DUSE_RIIC -DUSE_SFCDB -DUSE_SFMA -DUSE_SPEA -DUSE_TAUJ
                         107 --		-DUSE_TICK -DUSE_VDCE -DUSE_WM -DUSE_XBUS -MD -Mn -Mx -Zuse1bit
                         108 --		-allocate_ep -cpu=rh850g3m -entry=_RESET -large_sda -list
                         109 --		-no_callt -notda -passsource -preprocess_assembly_files
                         110 --		-registermode=22 -reserve_r2 --diag_warning 1 -object_dir=./obj
                         111 --		-filetype.c ..\..\..\..\..\cdi\src\r_cdi_rbuffer.c -o

                                                                      Page 3
                                                              C:\Users\YINGAO~1\AppData\Local\Temp\gh_00008441.si
                         112 --		.\obj\r_cdi_rbuffer.o
                         113 --Source File:   ..\..\..\..\..\cdi\src\r_cdi_rbuffer.c
                         114 --Directory:     
                         115 --		D:\Renesas_Electronics\D1x_RGL\rgl_ghs_D1Lx_obj_V1.2.0\vlib\app\gfx_apps\simple_draw_d1l2\target\d1lx_mango_ghs
                         116 --Compile Date:  Fri Feb 02 14:22:02 2018
                         117 --Host OS:       Win32
                         118 --Version:       C-RH850 2013.5.5 DEVELOPMENT VERSION
                         119 --Release:       Compiler v2013.5.5
                         120 --Revision Date: Sat Oct 05 05:01:20 2013
                         121 --Release Date:  Sat Oct 05 05:22:44 2013
                         122 -- ecom  -g -w
                         123 
                         124 --1: /*
                         125 --2: ****************************************************************************
                         126 --3: PROJECT : CDI
                         127 --4: FILE    : $Id: r_cdi_rbuffer.c 7402 2016-01-27 15:43:39Z florian.zimmermann $
                         128 --5: ============================================================================ 
                         129 --6: DESCRIPTION
                         130 --7: Common Driver Interface
                         131 --8: ============================================================================
                         132 --9:                             C O P Y R I G H T
                         133 --10: ============================================================================
                         134 --11:                        Copyright (c) 2013 - 2014
                         135 --12:                                   by 
                         136 --13:                        Renesas Electronics (Europe) GmbH. 
                         137 --14:                            Arcadiastrasse 10
                         138 --15:                           D-40472 Duesseldorf
                         139 --16:                                Germany
                         140 --17:                           All rights reserved.
                         141 --18: ============================================================================
                         142 --19: Purpose: only for testing, not for mass production
                         143 --21: DISCLAIMER
                         144 --23: LICENSEE has read, understood and accepted the terms and conditions defined in
                         145 --24: the license agreement, especially the usage rights. In any case, it is
                         146 --25: LICENSEE's responsibility to make sure that any user of the software complies
                         147 --26: with the terms and conditions of the signed license agreement.
                         148 --28: SAMPLE CODE is not part of the licensed software, as such it must not be used in
                         149 --29: mass-production applications. It can only be used for evaluation and
                         150 --30: demonstration purposes at customer's premises listed in the signed license
                         151 --31: agreement.
                         152 --33: ****************************************************************************
                         153 --34: */
                         154 --36: /*******************************************************************************
                         155 --37:   Section: Includes
                         156 --38: */
                         157 --40: #include "r_typedefs.h"
                         158 --41: #include "r_cdi_api.h"
                         159 --44:     
                         160 --46: /*******************************************************************************
                         161 --47:   Section: Macros
                         162 --48: */
                         163 --51: /*******************************************************************************
                         164 --52:   Macro: LOC_CDI_GET_PTR
                         165 --53: */
                         166 --54: #define LOC_CDI_GET_PTR(ptr, num, size) ( (void*)( ((uint32_t)(ptr)) + ((num) * (size)) ) )
                         167 --56: /*******************************************************************************
                         168 --57:   Macro: LOC_CDI_INC_PTR
                         169 --58: */
                         170 --59: #define LOC_CDI_INC_PTR(ptr, size)      {(ptr) = (void*)( (uint32_t)(ptr) + (size) );}
                         171 --61: /*******************************************************************************
                         172 --62:   Macro: LOC_DIO_COPY

                                                                      Page 4
                                                              C:\Users\YINGAO~1\AppData\Local\Temp\gh_00008441.si
                         173 --63: */
                         174 --64: #define LOC_DIO_COPY(src,dst,size)  {                              \
                         175 --65:     uint8_t copy_i;                                                \
                         176 --66:     switch(size) {                                                 \
                         177 --67:         case 1:                                                    \
                         178 --68:             *((uint8_t*)(dst))  = *((uint8_t*)(src));                  \
                         179 --69:             break;                                                 \
                         180 --70:         case 2:                                                    \
                         181 --71:             *((uint16_t*)(dst)) = *((uint16_t*)(src));                 \
                         182 --72:             break;                                                 \
                         183 --73:         case 4:                                                    \
                         184 --74:             *((uint32_t*)(dst)) = *((uint32_t*)(src));                 \
                         185 --75:             break;                                                 \
                         186 --76:         default:                                                   \
                         187 --77:             for(copy_i = 0u; copy_i < (size) ; copy_i++) {            \
                         188 --78:                 ((uint8_t*)(dst))[copy_i] = ((uint8_t*)(src))[copy_i]; \
                         189 --79:             }                                                      \
                         190 --80:             break;                                                 \
                         191 --81:     }                                                              \
                         192 --82: } 
                         193 --83:     
                         194 --84: /*******************************************************************************
                         195 --85:   Macro: LOC_DIO_DEL
                         196 --86: */
                         197 --87: #define LOC_DIO_DEL(dst,size,val)  {                              \
                         198 --88:     uint8_t copy_i;                                                \
                         199 --89:     switch(size) {                                                 \
                         200 --90:         case 1:                                                    \
                         201 --91:             *((uint8_t*)(dst))  = ((uint8_t)(val));                  \
                         202 --92:             break;                                                 \
                         203 --93:         case 2:                                                    \
                         204 --94:             *((uint16_t*)(dst)) = ((uint16_t)(val));                 \
                         205 --95:             break;                                                 \
                         206 --96:         case 4:                                                    \
                         207 --97:             *((uint32_t*)(dst)) = ((uint32_t)(val));                 \
                         208 --98:             break;                                                 \
                         209 --99:         default:                                                   \
                         210 --100:             for(copy_i = 0u; copy_i < (size) ; copy_i++) {            \
                         211 --101:                 ((uint8_t*)(dst))[copy_i] = ((uint8_t)(val)); \
                         212 --102:             }                                                      \
                         213 --103:             break;                                                 \
                         214 --104:     }                                                              \
                         215 --105: } 
                         216 --106:     
                         217 --108: /*******************************************************************************
                         218 --109:   Section: Local Functions
                         219 --110: */
                         220 --111: static void *loc_RbPtrNext(r_cdi_RBuf_t *RBuf, void *Ptr);
                         221 --113: /*******************************************************************************
                         222 --114:   Function: loc_RbPtrNext
                         223 --116:   Return next position in a ring buffer.
                         224 --118:   Parameters:
                         225 --119:   RBuf       - Ring buffer structure
                         226 --120:   Ptr        - Current position in buffer
                         227 --122:   Returns:
                         228 --123:   Next position in ring buffer.
                         229 --124: */
                         230 --126: static void *loc_RbPtrNext(r_cdi_RBuf_t *RBuf, void *Ptr)
                         231 	.text
                         232 ..bof.D.3A.5CRenesas_Electronics.5CD1x_RGL.5Crgl_ghs_D1Lx_obj_V1.2E2.2E0.5Cvlib.5Capp.5Cgfx_apps.5Csimple_draw_d1l2.5Ctarget.5Cd1lx_mango_ghs.5Cobj.5Cr_cdi_rbuffer...44.3A.5CRenesas_Electronics.5CD1x_RGL.5Crgl_ghs_D1Lx_obj_V1.2E2.2E0.5Cvlib.5Capp.5Cgfx_apps.5Csimple_draw_d1l2.5Ctarget.5Cd1lx_mango_ghs..5A74038A..0::
                         233 	.align	2

                                                                      Page 5
                                                              C:\Users\YINGAO~1\AppData\Local\Temp\gh_00008441.si
                         234 	.global	_loc_RbPtrNext..D.3A.5CRenesas_Electronics.5CD1x_RGL.5Crgl_ghs_D1Lx_obj_V1.2E2.2E0.5Cvlib.5Capp.5Cgfx_apps.5Csimple_draw_d1l2.5Ctarget.5Cd1lx_mango_ghs.5Cobj.5Cr_cdi_rbuffer.
                         235 _loc_RbPtrNext..D.3A.5CRenesas_Electronics.5CD1x_RGL.5Crgl_ghs_D1Lx_obj_V1.2E2.2E0.5Cvlib.5Capp.5Cgfx_apps.5Csimple_draw_d1l2.5Ctarget.5Cd1lx_mango_ghs.5Cobj.5Cr_cdi_rbuffer.:
                         236 _loc_RbPtrNext:
00000000 06f0            237 	mov	r6,ep
00000002 0708            238 	mov	r7,r1
                         239 --	    .bf
                         240 .LDW01:
                         241 --127: {
                         242 --128:     uint8_t size;
                         243 --129:     void *   buf;
                         244 --130:     
                         245 --131:     size = RBuf->Size;
00000004 9e771100        246 	ld.bu	16[ep],r14
                         247 --132:     buf  = RBuf->Buffer;
00000008 046d            248 	sld.w	8[ep],r13
                         249 --133:     /* Special case: End of buffer, wrap around required */
                         250 --134:     if (Ptr == LOC_CDI_GET_PTR( buf, RBuf->Num - 1u, size)) 
0000000a 0665            251 	sld.w	12[ep],r12
0000000c 5f62            252 	add	-1,r12
0000000e ee672202        253 	mulu	r14,r12,zero
00000012 cd61            254 	add	r13,r12
00000014 ec09            255 	cmp	r12,r1
00000016 ba05*           256 	bne	.L4
                         257 --135:     {   
                         258 --136:         Ptr = LOC_CDI_GET_PTR( buf, 0u, size);
                         259 --line136
                         260 ..lin.D.3A.5CRenesas_Electronics.5CD1x_RGL.5Crgl_ghs_D1Lx_obj_V1.2E2.2E0.5Cvlib.5Capp.5Cgfx_apps.5Csimple_draw_d1l2.5Ctarget.5Cd1lx_mango_ghs.5Cobj.5Cr_cdi_rbuffer.1::
                         261 .LDWlin1:
00000018 0d08            262 	mov	r13,r1
0000001a a505*           263 	br	.L6
                         264 .L4:
                         265 --137:     } 
                         266 --138:     /* Normal case: Increase pointer by data size */
                         267 --139:     else 
                         268 --140:     {
                         269 --141:         LOC_CDI_INC_PTR(Ptr, size);
                         270 --line141
                         271 ..lin.D.3A.5CRenesas_Electronics.5CD1x_RGL.5Crgl_ghs_D1Lx_obj_V1.2E2.2E0.5Cvlib.5Capp.5Cgfx_apps.5Csimple_draw_d1l2.5Ctarget.5Cd1lx_mango_ghs.5Cobj.5Cr_cdi_rbuffer.2::
                         272 .LDWlin2:
0000001c ce09            273 	add	r14,r1
                         274 .L6:
                         275 --142:     }
                         276 --143:     return Ptr;
0000001e 0150            277 	mov	r1,r10
                         278 --	    .ef
                         279 .LDW11:
00000020 7f00            280 	jmp	[lp]
                         281 	.type	_loc_RbPtrNext,@function
                         282 	.size	_loc_RbPtrNext,.-_loc_RbPtrNext
                         283 	.type	_loc_RbPtrNext..D.3A.5CRenesas_Electronics.5CD1x_RGL.5Crgl_ghs_D1Lx_obj_V1.2E2.2E0.5Cvlib.5Capp.5Cgfx_apps.5Csimple_draw_d1l2.5Ctarget.5Cd1lx_mango_ghs.5Cobj.5Cr_cdi_rbuffer.,@function
                         284 	.size	_loc_RbPtrNext..D.3A.5CRenesas_Electronics.5CD1x_RGL.5Crgl_ghs_D1Lx_obj_V1.2E2.2E0.5Cvlib.5Capp.5Cgfx_apps.5Csimple_draw_d1l2.5Ctarget.5Cd1lx_mango_ghs.5Cobj.5Cr_cdi_rbuffer.,.-_loc_RbPtrNext..D.3A.5CRenesas_Electronics.5CD1x_RGL.5Crgl_ghs_D1Lx_obj_V1.2E2.2E0.5Cvlib.5Capp.5Cgfx_apps.5Csimple_draw_d1l2.5Ctarget.5Cd1lx_mango_ghs.5Cobj.5Cr_cdi_rbuffer.
                         285 	.align	2
                         286 .LDW21:
                         287 --_size	r14	local
                         288 --_buf	r13	local
                         289 
                         290 --_RBuf	ep	param
                         291 --_Ptr	r1	param
                         292 
                         293 	.section ".bss","awb"
                         294 .L34:

                                                                      Page 6
                                                              C:\Users\YINGAO~1\AppData\Local\Temp\gh_00008441.si
                         295 	.type	.L34,@object
                         296 	.size	.L34,0
                         297 	.data
                         298 	.text
                         299 
                         300 --144: }
                         301 
                         302 --147: /*******************************************************************************
                         303 --148:   Section: Global API Ring Buffer Functions
                         304 --149: */
                         305 --151: /*******************************************************************************
                         306 --152:  Function: R_CDI_RbSetup
                         307 --153: */
                         308 --155:  int32_t R_CDI_RbSetup(r_cdi_RBuf_t *RBuf, void *Buf, uint32_t Num, uint8_t Size)
                         309 	.align	2
                         310 	.align	2
                         311 	.global	_R_CDI_RbSetup
                         312 _R_CDI_RbSetup:
00000022 06f0            313 	mov	r6,ep
00000024 0708            314 	mov	r7,r1
00000026 0870            315 	mov	r8,r14
00000028 c96eff00        316 	andi	255,r9,r13
                         317 --	    .bf
                         318 .LDW31:
                         319 --156:  {
                         320 --157:     RBuf->Start  = Buf;
0000002c 010d            321 	sst.w	r1,0[ep]
                         322 --158:     RBuf->Stop   = Buf;
0000002e 030d            323 	sst.w	r1,4[ep]
                         324 --159:     RBuf->Buffer = Buf;
00000030 050d            325 	sst.w	r1,8[ep]
                         326 --160:     RBuf->Num    = Num;
00000032 0775            327 	sst.w	r14,12[ep]
                         328 --161:     RBuf->Size   = Size;
00000034 906b            329 	sst.b	r13,16[ep]
                         330 --162:     return 0;
00000036 0052            331 	mov	0,r10
                         332 --	    .ef
                         333 .LDW41:
00000038 7f00            334 	jmp	[lp]
                         335 	.type	_R_CDI_RbSetup,@function
                         336 	.size	_R_CDI_RbSetup,.-_R_CDI_RbSetup
                         337 	.align	2
                         338 .LDW51:
                         339 
                         340 --_RBuf	ep	param
                         341 --_Buf	r1	param
                         342 --_Num	r14	param
                         343 --_Size	r13	param
                         344 
                         345 	.section ".bss","awb"
                         346 .L82:
                         347 	.type	.L82,@object
                         348 	.size	.L82,0
                         349 	.data
                         350 	.text
                         351 
                         352 --163: }
                         353 
                         354 --166: /*******************************************************************************
                         355 --167:  Function: R_CDI_RbWrite

                                                                      Page 7
                                                              C:\Users\YINGAO~1\AppData\Local\Temp\gh_00008441.si
                         356 --168: */
                         357 --169:  uint32_t R_CDI_RbWrite(r_cdi_RBuf_t *RBuf, void *Buffer, uint32_t Num) 
                         358 	.align	2
                         359 	.align	2
                         360 	.global	_R_CDI_RbWrite
                         361 _R_CDI_RbWrite:
0000003a 8207e170        362 	prepare	{r25,r26,r27,r28,r29,r31},1
0000003e 06e8            363 	mov	r6,r29
00000040 07d8            364 	mov	r7,r27
00000042 63470100        365 	st.w	r8,0[sp]
                         366 --	    .bf
                         367 .LDW61:
                         368 --170: {
                         369 --171:     void  *next;
                         370 --172:     uint32_t  n;
                         371 --174:     next = RBuf->Stop;
00000046 3dd70500        372 	ld.w	4[r29],r26
                         373 --175:     n    = 0u;
0000004a 00ca            374 	mov	0,r25
                         375 --176:     while (0 != Num) 
0000004c b545*           376 	br	.L111
                         377 .L113:
                         378 --177:     {
                         379 --178:         next = loc_RbPtrNext(RBuf, next);
                         380 --line178
                         381 ..lin.D.3A.5CRenesas_Electronics.5CD1x_RGL.5Crgl_ghs_D1Lx_obj_V1.2E2.2E0.5Cvlib.5Capp.5Cgfx_apps.5Csimple_draw_d1l2.5Ctarget.5Cd1lx_mango_ghs.5Cobj.5Cr_cdi_rbuffer.3::
                         382 .LDWlin3:
0000004e 1d30            383 	mov	r29,r6
00000050 1a38            384 	mov	r26,r7
                         385 	jarl	_loc_RbPtrNext,lp
                         385 <EXPANSION BEGIN>
                         385 jarl22 _loc_RbPtrNext , lp 
00000052 bfffaeff*       385 <EXPANSION END>
00000056 0a08            386 	mov	r10,r1
00000058 01d0            387 	mov	r1,r26
                         388 --179:         if (next == RBuf->Start) 
                         389 --line179
                         390 ..lin.D.3A.5CRenesas_Electronics.5CD1x_RGL.5Crgl_ghs_D1Lx_obj_V1.2E2.2E0.5Cvlib.5Capp.5Cgfx_apps.5Csimple_draw_d1l2.5Ctarget.5Cd1lx_mango_ghs.5Cobj.5Cr_cdi_rbuffer.4::
                         391 .LDWlin4:
0000005a 3d0f0100        392 	ld.w	0[r29],r1
0000005e e1d1            393 	cmp	r1,r26
00000060 aa05*           394 	bne	.L114
                         395 --180:         {
                         396 --181:             break;
                         397 --line181
                         398 ..lin.D.3A.5CRenesas_Electronics.5CD1x_RGL.5Crgl_ghs_D1Lx_obj_V1.2E2.2E0.5Cvlib.5Capp.5Cgfx_apps.5Csimple_draw_d1l2.5Ctarget.5Cd1lx_mango_ghs.5Cobj.5Cr_cdi_rbuffer.5::
                         399 .LDWlin5:
00000062 c53d*           400 	br	.L116
                         401 .L114:
                         402 --182:         }
                         403 --183:         LOC_DIO_COPY(Buffer, RBuf->Stop, RBuf->Size);
                         404 --	    .bs
                         405 .LDW71:
                         406 --line183
                         407 ..lin.D.3A.5CRenesas_Electronics.5CD1x_RGL.5Crgl_ghs_D1Lx_obj_V1.2E2.2E0.5Cvlib.5Capp.5Cgfx_apps.5Csimple_draw_d1l2.5Ctarget.5Cd1lx_mango_ghs.5Cobj.5Cr_cdi_rbuffer.6::
                         408 .LDWlin6:
00000064 9d0f1100        409 	ld.bu	16[r29],r1
00000068 610a            410 	cmp	1,r1
0000006a e205*           411 	be	.L120
0000006c 620a            412 	cmp	2,r1
0000006e a20d*           413 	be	.L121

                                                                      Page 8
                                                              C:\Users\YINGAO~1\AppData\Local\Temp\gh_00008441.si
00000070 640a            414 	cmp	4,r1
00000072 ca15*           415 	bne	.L123
00000074 d50d*           416 	br	.L122
                         417 .L120:
                         418 --line183
                         419 ..lin.D.3A.5CRenesas_Electronics.5CD1x_RGL.5Crgl_ghs_D1Lx_obj_V1.2E2.2E0.5Cvlib.5Capp.5Cgfx_apps.5Csimple_draw_d1l2.5Ctarget.5Cd1lx_mango_ghs.5Cobj.5Cr_cdi_rbuffer.7::
                         420 .LDWlin7:
00000076 3df70500        421 	ld.w	4[r29],ep
0000007a 9b0f0100        422 	ld.bu	0[r27],r1
0000007e 800b            423 	sst.b	r1,0[ep]
00000080 e51d*           424 	br	.L118
                         425 .L121:
                         426 --line183
                         427 ..lin.D.3A.5CRenesas_Electronics.5CD1x_RGL.5Crgl_ghs_D1Lx_obj_V1.2E2.2E0.5Cvlib.5Capp.5Cgfx_apps.5Csimple_draw_d1l2.5Ctarget.5Cd1lx_mango_ghs.5Cobj.5Cr_cdi_rbuffer.8::
                         428 .LDWlin8:
00000082 3df70500        429 	ld.w	4[r29],ep
00000086 fb0f0100        430 	ld.hu	0[r27],r1
0000008a 800c            431 	sst.h	r1,0[ep]
0000008c 851d*           432 	br	.L118
                         433 .L122:
                         434 --line183
                         435 ..lin.D.3A.5CRenesas_Electronics.5CD1x_RGL.5Crgl_ghs_D1Lx_obj_V1.2E2.2E0.5Cvlib.5Capp.5Cgfx_apps.5Csimple_draw_d1l2.5Ctarget.5Cd1lx_mango_ghs.5Cobj.5Cr_cdi_rbuffer.9::
                         436 .LDWlin9:
0000008e 3df70500        437 	ld.w	4[r29],ep
00000092 3b0f0100        438 	ld.w	0[r27],r1
00000096 010d            439 	sst.w	r1,0[ep]
00000098 a515*           440 	br	.L118
                         441 .L123:
                         442 --line183
                         443 ..lin.D.3A.5CRenesas_Electronics.5CD1x_RGL.5Crgl_ghs_D1Lx_obj_V1.2E2.2E0.5Cvlib.5Capp.5Cgfx_apps.5Csimple_draw_d1l2.5Ctarget.5Cd1lx_mango_ghs.5Cobj.5Cr_cdi_rbuffer.10::
                         444 .LDWlin10:
0000009a 00e2            445 	mov	0,r28
0000009c b50d*           446 	br	.L127
                         447 .L126:
                         448 --line183
                         449 ..lin.D.3A.5CRenesas_Electronics.5CD1x_RGL.5Crgl_ghs_D1Lx_obj_V1.2E2.2E0.5Cvlib.5Capp.5Cgfx_apps.5Csimple_draw_d1l2.5Ctarget.5Cd1lx_mango_ghs.5Cobj.5Cr_cdi_rbuffer.11::
                         450 .LDWlin11:
0000009e 3df70500        451 	ld.w	4[r29],ep
000000a2 1c08            452 	mov	r28,r1
000000a4 db09            453 	add	r27,r1
000000a6 810f0100        454 	ld.bu	0[r1],r1
000000aa dcf1            455 	add	r28,ep
000000ac 800b            456 	sst.b	r1,0[ep]
000000ae 41e2            457 	add	1,r28
000000b0 9c00            458 	zxb	r28
                         459 .L127:
000000b2 9d0f1100        460 	ld.bu	16[r29],r1
000000b6 e1e1            461 	cmp	r1,r28
000000b8 b1f5*           462 	bl	.L126
                         463 --line183
                         464 ..lin.D.3A.5CRenesas_Electronics.5CD1x_RGL.5Crgl_ghs_D1Lx_obj_V1.2E2.2E0.5Cvlib.5Capp.5Cgfx_apps.5Csimple_draw_d1l2.5Ctarget.5Cd1lx_mango_ghs.5Cobj.5Cr_cdi_rbuffer.12::
                         465 .LDWlin12:
000000ba 0000            466 	nop
                         467 .L118:
                         468 --	    .es
                         469 .LDW81:
                         470 --184:         RBuf->Stop  = next;
000000bc 7dd70500        471 	st.w	r26,4[r29]
                         472 --185:         LOC_CDI_INC_PTR(Buffer, RBuf->Size);
000000c0 9d0f1100        473 	ld.bu	16[r29],r1
000000c4 c1d9            474 	add	r1,r27

                                                                      Page 9
                                                              C:\Users\YINGAO~1\AppData\Local\Temp\gh_00008441.si
                         475 --186:         Num--;
000000c6 235f0100        476 	ld.w	0[sp],r11
000000ca 5f5a            477 	add	-1,r11
000000cc 635f0100        478 	st.w	r11,0[sp]
                         479 --187:         n++;
000000d0 41ca            480 	add	1,r25
                         481 .L111:
000000d2 235f0100        482 	ld.w	0[sp],r11
000000d6 e059            483 	cmp	zero,r11
000000d8 babd*           484 	bne	.L113
                         485 .L116:
                         486 --188:     }
                         487 --189:     return n;
                         488 --line189
                         489 ..lin.D.3A.5CRenesas_Electronics.5CD1x_RGL.5Crgl_ghs_D1Lx_obj_V1.2E2.2E0.5Cvlib.5Capp.5Cgfx_apps.5Csimple_draw_d1l2.5Ctarget.5Cd1lx_mango_ghs.5Cobj.5Cr_cdi_rbuffer.13::
                         490 .LDWlin13:
000000da 1950            491 	mov	r25,r10
                         492 --	    .ef
                         493 .LDW91:
000000dc 4206ff70        494 	dispose	1,{r25,r26,r27,r28,r29,r31},[lp]
                         495 	.type	_R_CDI_RbWrite,@function
                         496 	.size	_R_CDI_RbWrite,.-_R_CDI_RbWrite
                         497 	.align	2
                         498 .LDW02:
                         499 --_next	r26	local
                         500 --_n	r25	local
                         501 --_copy_i	r28	local
                         502 
                         503 --_RBuf	r29	param
                         504 --_Buffer	r27	param
                         505 --_Num	0[sp]	param
                         506 
                         507 	.section ".bss","awb"
                         508 .L186:
                         509 	.type	.L186,@object
                         510 	.size	.L186,0
                         511 	.data
                         512 	.text
                         513 
                         514 --190: }
                         515 
                         516 --193: /*******************************************************************************
                         517 --194:  Function: R_CDI_RbRead
                         518 --195: */
                         519 --196:  uint32_t R_CDI_RbRead(r_cdi_RBuf_t *RBuf, void *Buffer, uint32_t MaxNum) 
                         520 	.align	2
                         521 	.align	2
                         522 	.global	_R_CDI_RbRead
                         523 _R_CDI_RbRead:
000000e0 8007e170        524 	prepare	{r25,r26,r27,r28,r29,r31},0
000000e4 06e8            525 	mov	r6,r29
000000e6 07d8            526 	mov	r7,r27
000000e8 08c8            527 	mov	r8,r25
                         528 --	    .bf
                         529 .LDW12:
                         530 --197: {
                         531 --198:     uint32_t n;
                         532 --200:     n = 0u;
000000ea 00d2            533 	mov	0,r26
                         534 --201:     while (0 != MaxNum) 
000000ec 8545*           535 	br	.L286

                                                                      Page 10
                                                              C:\Users\YINGAO~1\AppData\Local\Temp\gh_00008441.si
                         536 .L288:
                         537 --202:     {
                         538 --203:         if (RBuf->Start == RBuf->Stop) 
                         539 --line203
                         540 ..lin.D.3A.5CRenesas_Electronics.5CD1x_RGL.5Crgl_ghs_D1Lx_obj_V1.2E2.2E0.5Cvlib.5Capp.5Cgfx_apps.5Csimple_draw_d1l2.5Ctarget.5Cd1lx_mango_ghs.5Cobj.5Cr_cdi_rbuffer.14::
                         541 .LDWlin14:
000000ee 3d0f0500        542 	ld.w	4[r29],r1
000000f2 3d770100        543 	ld.w	0[r29],r14
000000f6 e171            544 	cmp	r1,r14
000000f8 aa05*           545 	bne	.L289
                         546 --204:         {
                         547 --205:             break;
                         548 --line205
                         549 ..lin.D.3A.5CRenesas_Electronics.5CD1x_RGL.5Crgl_ghs_D1Lx_obj_V1.2E2.2E0.5Cvlib.5Capp.5Cgfx_apps.5Csimple_draw_d1l2.5Ctarget.5Cd1lx_mango_ghs.5Cobj.5Cr_cdi_rbuffer.15::
                         550 .LDWlin15:
000000fa b53d*           551 	br	.L291
                         552 .L289:
                         553 --206:         }
                         554 --207:         LOC_DIO_COPY(RBuf->Start, Buffer, RBuf->Size);
                         555 --	    .bs
                         556 .LDW22:
                         557 --line207
                         558 ..lin.D.3A.5CRenesas_Electronics.5CD1x_RGL.5Crgl_ghs_D1Lx_obj_V1.2E2.2E0.5Cvlib.5Capp.5Cgfx_apps.5Csimple_draw_d1l2.5Ctarget.5Cd1lx_mango_ghs.5Cobj.5Cr_cdi_rbuffer.16::
                         559 .LDWlin16:
000000fc 9d0f1100        560 	ld.bu	16[r29],r1
00000100 610a            561 	cmp	1,r1
00000102 e205*           562 	be	.L295
00000104 620a            563 	cmp	2,r1
00000106 a20d*           564 	be	.L296
00000108 640a            565 	cmp	4,r1
0000010a ca15*           566 	bne	.L298
0000010c d50d*           567 	br	.L297
                         568 .L295:
                         569 --line207
                         570 ..lin.D.3A.5CRenesas_Electronics.5CD1x_RGL.5Crgl_ghs_D1Lx_obj_V1.2E2.2E0.5Cvlib.5Capp.5Cgfx_apps.5Csimple_draw_d1l2.5Ctarget.5Cd1lx_mango_ghs.5Cobj.5Cr_cdi_rbuffer.17::
                         571 .LDWlin17:
0000010e 3df70100        572 	ld.w	0[r29],ep
00000112 6008            573 	sld.bu	0[ep],r1
00000114 5b0f0000        574 	st.b	r1,0[r27]
00000118 e51d*           575 	br	.L293
                         576 .L296:
                         577 --line207
                         578 ..lin.D.3A.5CRenesas_Electronics.5CD1x_RGL.5Crgl_ghs_D1Lx_obj_V1.2E2.2E0.5Cvlib.5Capp.5Cgfx_apps.5Csimple_draw_d1l2.5Ctarget.5Cd1lx_mango_ghs.5Cobj.5Cr_cdi_rbuffer.18::
                         579 .LDWlin18:
0000011a 3df70100        580 	ld.w	0[r29],ep
0000011e 7008            581 	sld.hu	0[ep],r1
00000120 7b0f0000        582 	st.h	r1,0[r27]
00000124 851d*           583 	br	.L293
                         584 .L297:
                         585 --line207
                         586 ..lin.D.3A.5CRenesas_Electronics.5CD1x_RGL.5Crgl_ghs_D1Lx_obj_V1.2E2.2E0.5Cvlib.5Capp.5Cgfx_apps.5Csimple_draw_d1l2.5Ctarget.5Cd1lx_mango_ghs.5Cobj.5Cr_cdi_rbuffer.19::
                         587 .LDWlin19:
00000126 3df70100        588 	ld.w	0[r29],ep
0000012a 000d            589 	sld.w	0[ep],r1
0000012c 7b0f0100        590 	st.w	r1,0[r27]
00000130 a515*           591 	br	.L293
                         592 .L298:
                         593 --line207
                         594 ..lin.D.3A.5CRenesas_Electronics.5CD1x_RGL.5Crgl_ghs_D1Lx_obj_V1.2E2.2E0.5Cvlib.5Capp.5Cgfx_apps.5Csimple_draw_d1l2.5Ctarget.5Cd1lx_mango_ghs.5Cobj.5Cr_cdi_rbuffer.20::
                         595 .LDWlin20:
00000132 00e2            596 	mov	0,r28

                                                                      Page 11
                                                              C:\Users\YINGAO~1\AppData\Local\Temp\gh_00008441.si
00000134 b50d*           597 	br	.L302
                         598 .L301:
                         599 --line207
                         600 ..lin.D.3A.5CRenesas_Electronics.5CD1x_RGL.5Crgl_ghs_D1Lx_obj_V1.2E2.2E0.5Cvlib.5Capp.5Cgfx_apps.5Csimple_draw_d1l2.5Ctarget.5Cd1lx_mango_ghs.5Cobj.5Cr_cdi_rbuffer.21::
                         601 .LDWlin21:
00000136 3d0f0100        602 	ld.w	0[r29],r1
0000013a 1cf0            603 	mov	r28,ep
0000013c dbf1            604 	add	r27,ep
0000013e dc09            605 	add	r28,r1
00000140 810f0100        606 	ld.bu	0[r1],r1
00000144 800b            607 	sst.b	r1,0[ep]
00000146 41e2            608 	add	1,r28
00000148 9c00            609 	zxb	r28
                         610 .L302:
0000014a 9d0f1100        611 	ld.bu	16[r29],r1
0000014e e1e1            612 	cmp	r1,r28
00000150 b1f5*           613 	bl	.L301
                         614 --line207
                         615 ..lin.D.3A.5CRenesas_Electronics.5CD1x_RGL.5Crgl_ghs_D1Lx_obj_V1.2E2.2E0.5Cvlib.5Capp.5Cgfx_apps.5Csimple_draw_d1l2.5Ctarget.5Cd1lx_mango_ghs.5Cobj.5Cr_cdi_rbuffer.22::
                         616 .LDWlin22:
00000152 0000            617 	nop
                         618 .L293:
                         619 --	    .es
                         620 .LDW32:
                         621 --208: #if 0
                         622 --209:         LOC_DIO_DEL(RBuf->Start, RBuf->Size, 0xff);     /* clear for debugging */
                         623 --210: #endif
                         624 --211:         RBuf->Start = loc_RbPtrNext(RBuf, RBuf->Start);
00000154 3d3f0100        625 	ld.w	0[r29],r7
00000158 1d30            626 	mov	r29,r6
                         627 	jarl	_loc_RbPtrNext,lp
                         627 <EXPANSION BEGIN>
                         627 jarl22 _loc_RbPtrNext , lp 
0000015a bfffa6fe*       627 <EXPANSION END>
0000015e 7d570100        628 	st.w	r10,0[r29]
                         629 --212:         n++;
                         630 --line212
                         631 ..lin.D.3A.5CRenesas_Electronics.5CD1x_RGL.5Crgl_ghs_D1Lx_obj_V1.2E2.2E0.5Cvlib.5Capp.5Cgfx_apps.5Csimple_draw_d1l2.5Ctarget.5Cd1lx_mango_ghs.5Cobj.5Cr_cdi_rbuffer.23::
                         632 .LDWlin23:
00000162 41d2            633 	add	1,r26
                         634 --213:         LOC_CDI_INC_PTR(Buffer, RBuf->Size);
00000164 9d0f1100        635 	ld.bu	16[r29],r1
00000168 c1d9            636 	add	r1,r27
                         637 --214:         MaxNum--;
0000016a 5fca            638 	add	-1,r25
                         639 .L286:
0000016c e0c9            640 	cmp	zero,r25
0000016e 8ac5*           641 	bne	.L288
                         642 .L291:
                         643 --215:     }
                         644 --216:     return n;
                         645 --line216
                         646 ..lin.D.3A.5CRenesas_Electronics.5CD1x_RGL.5Crgl_ghs_D1Lx_obj_V1.2E2.2E0.5Cvlib.5Capp.5Cgfx_apps.5Csimple_draw_d1l2.5Ctarget.5Cd1lx_mango_ghs.5Cobj.5Cr_cdi_rbuffer.24::
                         647 .LDWlin24:
00000170 1a50            648 	mov	r26,r10
                         649 --	    .ef
                         650 .LDW42:
00000172 4006ff70        651 	dispose	0,{r25,r26,r27,r28,r29,r31},[lp]
                         652 	.type	_R_CDI_RbRead,@function
                         653 	.size	_R_CDI_RbRead,.-_R_CDI_RbRead
                         654 	.align	2

                                                                      Page 12
                                                              C:\Users\YINGAO~1\AppData\Local\Temp\gh_00008441.si
                         655 .LDW52:
                         656 --_n	r26	local
                         657 --_copy_i	r28	local
                         658 
                         659 --_RBuf	r29	param
                         660 --_Buffer	r27	param
                         661 --_MaxNum	r25	param
                         662 
                         663 	.section ".bss","awb"
                         664 .L358:
                         665 	.type	.L358,@object
                         666 	.size	.L358,0
                         667 	.data
                         668 	.text
                         669 
                         670 --217: }
                         671 
                         672 --219: /*******************************************************************************
                         673 --220:  Function: R_CDI_RbSize
                         674 --221: */
                         675 --222:  uint32_t R_CDI_RbNum(r_cdi_RBuf_t *RBuf) 
                         676 	.align	2
                         677 	.align	2
                         678 	.global	_R_CDI_RbNum
                         679 _R_CDI_RbNum:
00000176 06f0            680 	mov	r6,ep
                         681 --	    .bf
                         682 .LDW62:
                         683 --223:  {
                         684 --224:     uint32_t start;
                         685 --225:     uint32_t stop;
                         686 --226:     uint32_t ret;
                         687 --227:    
                         688 --228:     start   = (uint32_t) RBuf->Start;
00000178 0075            689 	sld.w	0[ep],r14
                         690 --229:     stop    = (uint32_t) RBuf->Stop;
0000017a 026d            691 	sld.w	4[ep],r13
                         692 --230:     ret     = 0u;
0000017c 000a            693 	mov	0,r1
                         694 --231:     
                         695 --232:     if(start > stop) 
0000017e ed71            696 	cmp	r13,r14
00000180 f305*           697 	bnh	.L452
                         698 --233:     {
                         699 --234:         ret  = (RBuf->Num) * (RBuf->Size);
                         700 --line234
                         701 ..lin.D.3A.5CRenesas_Electronics.5CD1x_RGL.5Crgl_ghs_D1Lx_obj_V1.2E2.2E0.5Cvlib.5Capp.5Cgfx_apps.5Csimple_draw_d1l2.5Ctarget.5Cd1lx_mango_ghs.5Cobj.5Cr_cdi_rbuffer.25::
                         702 .LDWlin25:
00000182 0665            703 	sld.w	12[ep],r12
00000184 9e5f1100        704 	ld.bu	16[ep],r11
00000188 eb672202        705 	mulu	r11,r12,zero
0000018c 0c08            706 	mov	r12,r1
                         707 .L452:
                         708 --235:     }
                         709 --236:     ret += stop;
0000018e cd09            710 	add	r13,r1
                         711 --237:     ret -= start;
00000190 ae09            712 	sub	r14,r1
                         713 --238:     if(RBuf->Size > 1) 
00000192 9e671100        714 	ld.bu	16[ep],r12
00000196 6162            715 	cmp	1,r12

                                                                      Page 13
                                                              C:\Users\YINGAO~1\AppData\Local\Temp\gh_00008441.si
00000198 d305*           716 	bnh	.L454
                         717 --239:     {
                         718 --240:         ret /= RBuf->Size;
                         719 --line240
                         720 ..lin.D.3A.5CRenesas_Electronics.5CD1x_RGL.5Crgl_ghs_D1Lx_obj_V1.2E2.2E0.5Cvlib.5Capp.5Cgfx_apps.5Csimple_draw_d1l2.5Ctarget.5Cd1lx_mango_ghs.5Cobj.5Cr_cdi_rbuffer.26::
                         721 .LDWlin26:
0000019a 9e671100        722 	ld.bu	16[ep],r12
0000019e ec0ffe02        723 	divqu	r12,r1,zero
                         724 .L454:
                         725 --241:     }
                         726 --242:     return ret;
000001a2 0150            727 	mov	r1,r10
                         728 --	    .ef
                         729 .LDW72:
000001a4 7f00            730 	jmp	[lp]
                         731 	.type	_R_CDI_RbNum,@function
                         732 	.size	_R_CDI_RbNum,.-_R_CDI_RbNum
                         733 	.align	2
                         734 .LDW82:
                         735 --_start	r14	local
                         736 --_stop	r13	local
                         737 --_ret	r1	local
                         738 
                         739 --_RBuf	ep	param
                         740 
                         741 	.section ".bss","awb"
                         742 .L490:
                         743 	.type	.L490,@object
                         744 	.size	.L490,0
                         745 	.data
                         746 	.text
                         747 
                         748 --243: }
                         749 	.align	2
                         750 
                         751 	.data
                         752 	.ghsnote version,14
                         753 	.ghsnote tools,3
                         754 	.ghsnote options,144
                         755 	.text
                         756 	.align	2
                         757 ..eof.D.3A.5CRenesas_Electronics.5CD1x_RGL.5Crgl_ghs_D1Lx_obj_V1.2E2.2E0.5Cvlib.5Capp.5Cgfx_apps.5Csimple_draw_d1l2.5Ctarget.5Cd1lx_mango_ghs.5Cobj.5Cr_cdi_rbuffer...44.3A.5CRenesas_Electronics.5CD1x_RGL.5Crgl_ghs_D1Lx_obj_V1.2E2.2E0.5Cvlib.5Capp.5Cgfx_apps.5Csimple_draw_d1l2.5Ctarget.5Cd1lx_mango_ghs..5A74038A..0::
                         758 .rh850_flags REGMODE22,DATA_ALIGN8,GP_FIX,EP_NONFIX,TP_FIX,REG2_RESERVE,G3M
