                                                                      Page 1
                                                              C:\Users\YINGAO~1\AppData\Local\Temp\gh_000080o1.si
Command Line: C:\ghs\comp_201355\ease850.exe -w -elf -b0 -ID:\Renesas_Electronics\D1x_RGL\rgl_ghs_D1Lx_obj_V1.2.0\vlib\macro\flashc\sfma\lib -I../../../../../Device -I../../../../../Driver/ADCE -I../../../../../Driver/CLOCK -I../../../../../Driver/DIO -I../../../../../Driver/DSPI -I../../../../../Driver/Interrupt -I../../../../../Driver/ISM -I../../../../../Driver/OSTM -I../../../../../Driver/PWM -I../../../../../Driver/RSTC -I../../../../../Driver/RTCA -I../../../../../Driver/STBC -I../../../../../Driver/TAUB -I../../../../../Driver/WDT -I../../../../../middleware\ADM -I../../../../../middleware\BPM -I../../../../../middleware\EED -I../../../../../middleware\IOM -I../../../../../middleware\LRM -I../../../../../middleware\MOM -I../../../../../middleware\PWMM -I../../../../../Common -I../../../../../Applayer\DSM -I../../../../../Applayer\FM -I../../../../../Applayer\TPM -I../../../../../Applayer\ACC -I../../../../../Applayer\ASS -I../../../../../Applayer\BAT -I../../../../../Applayer\COM -I../../../../../Applayer\COM\vtp -I../../../../../Applayer\COM\vtp\lib -I../../../../../Applayer\CRUS -I../../../../../Applayer\DIAG -I../../../../../Applayer\FC -I../../../../../Applayer\FL -I../../../../../Applayer\HSD -I../../../../../Applayer\IDLE -I../../../../../Applayer\ILLU -I../../../../../Applayer\LED -I../../../../../Applayer\MSG -I../../../../../Applayer\NVM -I../../../../../Applayer\ODO -I../../../../../Applayer\PWR -I../../../../../Applayer\RANG -I../../../../../Applayer\RST -I../../../../../Applayer\RTC -I../../../../../Applayer\SCS -I../../../../../Applayer\SSB -I../../../../../Applayer\ST -I../../../../../Applayer\STSMG -I../../../../../Applayer\SYS -I../../../../../Applayer\TIP -I../../../../../Applayer\TRIP -I../../../../../Applayer\CHM -I../../../../../Applayer\DM -I../../../../../Applayer\EVT -I../../../../../Applayer\FTR -I../../../../../Applayer\SLF -I../../../../../Applayer\NWD -I../../../../../Applayer\TPMS -I../../../../../Applayer\WFM -I../../../../../Applayer\NZM -I../../../../../app/gfx_apps/simple_draw_d1l2/src -I../../../../../bsp/board//config -I../../../../../bsp/board//src/gfx -I../../../../../bsp/board//src/hmi -I../../../../../bsp/board//src/stdio -I../../../../../bsp/board/d1lx_mango/config -I../../../../../bsp/board/d1lx_mango/src -I../../../../../bsp/board/d1lx_mango/src/gfx -I../../../../../bsp/board/d1lx_mango/src/hmi -I../../../../../bsp/board/d1lx_mango/src/stdio -I../../../../../bsp/gfx/lib -I../../../../../bsp/gfx/src -I../../../../../bsp/hmi/lib -I../../../../../bsp/hmi/src -I../../../../../bsp/lib -I../../../../../bsp/stdio/lib -I../../../../../bsp/stdio/src -I../../../../../cdi/lib -I../../../../../cdi/src -I../../../../../compiler/rh850_ghs/inc -I../../../../../device/d1lx/lib -I../../../../../device/d1lx/macro_cfg -I../../../../../device/d1lx/src/dev -I../../../../../device/d1lx/src/rh850_ghs -I../../../../../device/d1x_common/macro_cfg -I../../../../../device/d1x_common/src/csisw -I../../../../../device/d1x_common/src/ddb -I../../../../../device/d1x_common/src/dev -I../../../../../device/d1x_common/src/gfxbus -I../../../../../device/d1x_common/src/gpio -I../../../../../device/d1x_common/src/ostm -I../../../../../device/d1x_common/src/pbg -I../../../../../device/d1x_common/src/riic -I../../../../../device/d1x_common/src/sfma -I../../../../../device/d1x_common/src/spea -I../../../../../device/d1x_common/src/tauj -I../../../../../device/d1x_common/src/tick -I../../../../../device/d1x_common/src/vdce -I../../../../../device/d1x_common/src/wm -I../../../../../device/d1x_common/src/xbus -I../../../../../device/lib -I../../../../../macro/bus/pbg/lib -I../../../../../macro/bus/pbg/src -I../../../../../macro/csi/csisw/lib -I../../../../../macro/csi/csisw/src -I../../../../../macro/drw2d/lib -I../../../../../macro/drw2d/platform/cpu -I../../../../../macro/drw2d/platform/os/no_os -I../../../../../macro/drw2d/src -I../../../../../macro/flashc/sfcdb/lib -I../../../../../macro/flashc/sfcdb/src -I../../../../../macro/flashc/sfma/lib -I../../../../../macro/flashc/sfma/src -I../../../../../macro/gfxbus/lib -I../../../../../macro/gfxbus/src -I../../../../../macro/gfxbus/xbus/lib -I../../../../../macro/gfxbus/xbus/src -I../../../../../macro/gpio/lib -I../../../../../macro/gpio/src -I../../../../../macro/i2c/riic/lib -I../../../../../macro/i2c/riic/src -I../../../../../macro/tick/lib -I../../../../../macro/tick/src -I../../../../../macro/timer/ostm/lib -I../../../../../macro/timer/ostm/src -I../../../../../macro/timer/tauj/lib -I../../../../../macro/timer/tauj/src -I../../../../../macro/vdce/lib -I../../../../../macro/vdce/src -I../../../../../macro/vo/ddb/lib -I../../../../../macro/vo/ddb/src -I../../../../../macro/vo/spea/lib -I../../../../../macro/vo/spea/src -I../../../../../macro/wm/lib -I../../../../../macro/wm/src -I../../../../../app/gfx_apps/simple_draw_d1l2/src/QD_HMI -I../../../../../app/gfx_apps/simple_draw_d1l2/src/QD_HMI/HMI_Data -IC:\ghs\comp_201355\lib\rh850_22 -cg_underscore -cpu=rh850g3m -no_v850_simd -nomacro -patch_dbo=D:\Renesas_Electronics\D1x_RGL\rgl_ghs_D1Lx_obj_V1.2.0\vlib\app\gfx_apps\simple_draw_d1l2\target\d1lx_mango_ghs\obj\r_cdi_memory.dbo -source=r_cdi_memory.c -o .\obj\gh_000080o1.o -list=.\obj\r_cdi_memory.lst C:\Users\YINGAO~1\AppData\Local\Temp\gh_000080o1.si 
Original File: C:\Users\YINGAO~1\AppData\Local\Temp\gh_000080o1.si
Source File: r_cdi_memory.c
Directory: D:\Renesas_Electronics\D1x_RGL\rgl_ghs_D1Lx_obj_V1.2.0\vlib\app\gfx_apps\simple_draw_d1l2\target\d1lx_mango_ghs
Host OS: Windows 7 Service Pack 1
EASE: Copyright (C) 1983-2013 Green Hills Software.  All Rights Reversed.
Release: Compiler v2013.5.5
Build Directory: [Directory] BTOWINBOX:c:/build_2013_5_bto/2013-10-04.1311-2013_5_bto/win32-comp-ecom
Revision: [VCInfo] http://toolsvc/branches/release-branch-2013-5-bto/src@496240 (built by build)
Revision Date: Sat Oct 05 04:54:43 2013

Release Date: Sat Oct 05 05:20:49 2013

                           1 --Driver Command: ccv850 -c -MD
                           2 --		-ID:\Renesas_Electronics\D1x_RGL\rgl_ghs_D1Lx_obj_V1.2.0\vlib\macro\flashc\sfma\lib
                           3 --		-I../../../../../Device -I../../../../../Driver/ADCE
                           4 --		-I../../../../../Driver/CLOCK -I../../../../../Driver/DIO
                           5 --		-I../../../../../Driver/DSPI -I../../../../../Driver/Interrupt
                           6 --		-I../../../../../Driver/ISM -I../../../../../Driver/OSTM
                           7 --		-I../../../../../Driver/PWM -I../../../../../Driver/RSTC
                           8 --		-I../../../../../Driver/RTCA -I../../../../../Driver/STBC
                           9 --		-I../../../../../Driver/TAUB -I../../../../../Driver/WDT
                          10 --		-I../../../../../middleware\ADM -I../../../../../middleware\BPM
                          11 --		-I../../../../../middleware\EED -I../../../../../middleware\IOM
                          12 --		-I../../../../../middleware\LRM -I../../../../../middleware\MOM
                          13 --		-I../../../../../middleware\PWMM -I../../../../../Common
                          14 --		-I../../../../../Applayer\DSM -I../../../../../Applayer\FM
                          15 --		-I../../../../../Applayer\TPM -I../../../../../Applayer\ACC
                          16 --		-I../../../../../Applayer\ASS -I../../../../../Applayer\BAT
                          17 --		-I../../../../../Applayer\COM -I../../../../../Applayer\COM\vtp
                          18 --		-I../../../../../Applayer\COM\vtp\lib
                          19 --		-I../../../../../Applayer\CRUS -I../../../../../Applayer\DIAG
                          20 --		-I../../../../../Applayer\FC -I../../../../../Applayer\FL
                          21 --		-I../../../../../Applayer\HSD -I../../../../../Applayer\IDLE
                          22 --		-I../../../../../Applayer\ILLU -I../../../../../Applayer\LED
                          23 --		-I../../../../../Applayer\MSG -I../../../../../Applayer\NVM
                          24 --		-I../../../../../Applayer\ODO -I../../../../../Applayer\PWR
                          25 --		-I../../../../../Applayer\RANG -I../../../../../Applayer\RST
                          26 --		-I../../../../../Applayer\RTC -I../../../../../Applayer\SCS
                          27 --		-I../../../../../Applayer\SSB -I../../../../../Applayer\ST
                          28 --		-I../../../../../Applayer\STSMG -I../../../../../Applayer\SYS
                          29 --		-I../../../../../Applayer\TIP -I../../../../../Applayer\TRIP
                          30 --		-I../../../../../Applayer\CHM -I../../../../../Applayer\DM
                          31 --		-I../../../../../Applayer\EVT -I../../../../../Applayer\FTR
                          32 --		-I../../../../../Applayer\SLF -I../../../../../Applayer\NWD
                          33 --		-I../../../../../Applayer\TPMS -I../../../../../Applayer\WFM
                          34 --		-I../../../../../Applayer\NZM
                          35 --		-I../../../../../app/gfx_apps/simple_draw_d1l2/src
                          36 --		-I../../../../../bsp/board//config
                          37 --		-I../../../../../bsp/board//src/gfx
                          38 --		-I../../../../../bsp/board//src/hmi
                          39 --		-I../../../../../bsp/board//src/stdio
                          40 --		-I../../../../../bsp/board/d1lx_mango/config
                          41 --		-I../../../../../bsp/board/d1lx_mango/src
                          42 --		-I../../../../../bsp/board/d1lx_mango/src/gfx
                          43 --		-I../../../../../bsp/board/d1lx_mango/src/hmi
                          44 --		-I../../../../../bsp/board/d1lx_mango/src/stdio
                          45 --		-I../../../../../bsp/gfx/lib -I../../../../../bsp/gfx/src
                          46 --		-I../../../../../bsp/hmi/lib -I../../../../../bsp/hmi/src
                          47 --		-I../../../../../bsp/lib -I../../../../../bsp/stdio/lib
                          48 --		-I../../../../../bsp/stdio/src -I../../../../../cdi/lib
                          49 --		-I../../../../../cdi/src -I../../../../../compiler/rh850_ghs/inc
                          50 --		-I../../../../../device/d1lx/lib

                                                                      Page 2
                                                              C:\Users\YINGAO~1\AppData\Local\Temp\gh_000080o1.si
                          51 --		-I../../../../../device/d1lx/macro_cfg
                          52 --		-I../../../../../device/d1lx/src/dev
                          53 --		-I../../../../../device/d1lx/src/rh850_ghs
                          54 --		-I../../../../../device/d1x_common/macro_cfg
                          55 --		-I../../../../../device/d1x_common/src/csisw
                          56 --		-I../../../../../device/d1x_common/src/ddb
                          57 --		-I../../../../../device/d1x_common/src/dev
                          58 --		-I../../../../../device/d1x_common/src/gfxbus
                          59 --		-I../../../../../device/d1x_common/src/gpio
                          60 --		-I../../../../../device/d1x_common/src/ostm
                          61 --		-I../../../../../device/d1x_common/src/pbg
                          62 --		-I../../../../../device/d1x_common/src/riic
                          63 --		-I../../../../../device/d1x_common/src/sfma
                          64 --		-I../../../../../device/d1x_common/src/spea
                          65 --		-I../../../../../device/d1x_common/src/tauj
                          66 --		-I../../../../../device/d1x_common/src/tick
                          67 --		-I../../../../../device/d1x_common/src/vdce
                          68 --		-I../../../../../device/d1x_common/src/wm
                          69 --		-I../../../../../device/d1x_common/src/xbus
                          70 --		-I../../../../../device/lib -I../../../../../macro/bus/pbg/lib
                          71 --		-I../../../../../macro/bus/pbg/src
                          72 --		-I../../../../../macro/csi/csisw/lib
                          73 --		-I../../../../../macro/csi/csisw/src
                          74 --		-I../../../../../macro/drw2d/lib
                          75 --		-I../../../../../macro/drw2d/platform/cpu
                          76 --		-I../../../../../macro/drw2d/platform/os/no_os
                          77 --		-I../../../../../macro/drw2d/src
                          78 --		-I../../../../../macro/flashc/sfcdb/lib
                          79 --		-I../../../../../macro/flashc/sfcdb/src
                          80 --		-I../../../../../macro/flashc/sfma/lib
                          81 --		-I../../../../../macro/flashc/sfma/src
                          82 --		-I../../../../../macro/gfxbus/lib
                          83 --		-I../../../../../macro/gfxbus/src
                          84 --		-I../../../../../macro/gfxbus/xbus/lib
                          85 --		-I../../../../../macro/gfxbus/xbus/src
                          86 --		-I../../../../../macro/gpio/lib -I../../../../../macro/gpio/src
                          87 --		-I../../../../../macro/i2c/riic/lib
                          88 --		-I../../../../../macro/i2c/riic/src
                          89 --		-I../../../../../macro/tick/lib -I../../../../../macro/tick/src
                          90 --		-I../../../../../macro/timer/ostm/lib
                          91 --		-I../../../../../macro/timer/ostm/src
                          92 --		-I../../../../../macro/timer/tauj/lib
                          93 --		-I../../../../../macro/timer/tauj/src
                          94 --		-I../../../../../macro/vdce/lib -I../../../../../macro/vdce/src
                          95 --		-I../../../../../macro/vo/ddb/lib
                          96 --		-I../../../../../macro/vo/ddb/src
                          97 --		-I../../../../../macro/vo/spea/lib
                          98 --		-I../../../../../macro/vo/spea/src -I../../../../../macro/wm/lib
                          99 --		-I../../../../../macro/wm/src
                         100 --		-I../../../../../app/gfx_apps/simple_draw_d1l2/src/QD_HMI
                         101 --		-I../../../../../app/gfx_apps/simple_draw_d1l2/src/QD_HMI/HMI_Data
                         102 --		-G --no_commons --no_implicit_include --prototype_errors
                         103 --		-DR_DRW2D_OS_NO_OS -DR_DRW2D_SYS_CPU -DUSED_CPU=RH850G3M
                         104 --		-DUSE_BSP_GFX -DUSE_BSP_HMI -DUSE_BSP_STDIO -DUSE_CDI -DUSE_CSISW
                         105 --		-DUSE_DDB -DUSE_DRW2D -DUSE_GFXBUS -DUSE_GPIO -DUSE_OSTM
                         106 --		-DUSE_PBG -DUSE_RIIC -DUSE_SFCDB -DUSE_SFMA -DUSE_SPEA -DUSE_TAUJ
                         107 --		-DUSE_TICK -DUSE_VDCE -DUSE_WM -DUSE_XBUS -MD -Mn -Mx -Zuse1bit
                         108 --		-allocate_ep -cpu=rh850g3m -entry=_RESET -large_sda -list
                         109 --		-no_callt -notda -passsource -preprocess_assembly_files
                         110 --		-registermode=22 -reserve_r2 --diag_warning 1 -object_dir=./obj
                         111 --		-filetype.c ..\..\..\..\..\cdi\src\r_cdi_memory.c -o

                                                                      Page 3
                                                              C:\Users\YINGAO~1\AppData\Local\Temp\gh_000080o1.si
                         112 --		.\obj\r_cdi_memory.o
                         113 --Source File:   ..\..\..\..\..\cdi\src\r_cdi_memory.c
                         114 --Directory:     
                         115 --		D:\Renesas_Electronics\D1x_RGL\rgl_ghs_D1Lx_obj_V1.2.0\vlib\app\gfx_apps\simple_draw_d1l2\target\d1lx_mango_ghs
                         116 --Compile Date:  Fri Feb 02 14:22:03 2018
                         117 --Host OS:       Win32
                         118 --Version:       C-RH850 2013.5.5 DEVELOPMENT VERSION
                         119 --Release:       Compiler v2013.5.5
                         120 --Revision Date: Sat Oct 05 05:01:20 2013
                         121 --Release Date:  Sat Oct 05 05:22:44 2013
                         122 -- ecom  -g -w
                         123 
                         124 --1: /*
                         125 --2: ****************************************************************************
                         126 --3: PROJECT : CDI
                         127 --4: FILE    : $Id: r_cdi_memory.c 7682 2016-02-16 13:05:29Z florian.zimmermann $
                         128 --5: ============================================================================ 
                         129 --6: DESCRIPTION
                         130 --7: Common Driver Interface
                         131 --8: ============================================================================
                         132 --9:                             C O P Y R I G H T
                         133 --10: ============================================================================
                         134 --11:                        Copyright (c) 2013 - 2014
                         135 --12:                                   by 
                         136 --13:                        Renesas Electronics (Europe) GmbH. 
                         137 --14:                            Arcadiastrasse 10
                         138 --15:                           D-40472 Duesseldorf
                         139 --16:                                Germany
                         140 --17:                           All rights reserved.
                         141 --18: ============================================================================
                         142 --19: Purpose: only for testing, not for mass production
                         143 --21: DISCLAIMER
                         144 --23: LICENSEE has read, understood and accepted the terms and conditions defined in
                         145 --24: the license agreement, especially the usage rights. In any case, it is
                         146 --25: LICENSEE's responsibility to make sure that any user of the software complies
                         147 --26: with the terms and conditions of the signed license agreement.
                         148 --28: SAMPLE CODE is not part of the licensed software, as such it must not be used in
                         149 --29: mass-production applications. It can only be used for evaluation and
                         150 --30: demonstration purposes at customer's premises listed in the signed license
                         151 --31: agreement.
                         152 --33: ****************************************************************************
                         153 --34: */
                         154 --36: /*******************************************************************************
                         155 --37:   Section: Includes
                         156 --38: */
                         157 --40: #include "r_typedefs.h"
                         158 --41: #include "r_cdi_api.h"
                         159 --42: #ifdef USE_ROS
                         160 --43: #include "r_os_api.h"
                         161 --44: #endif
                         162 --46: #ifdef MEM_DEBUG
                         163 --47: #include <stdio.h>
                         164 --48: #endif
                         165 --51: /*******************************************************************************
                         166 --52:   Section: Local Variables
                         167 --53: */
                         168 --54: /*******************************************************************************
                         169 --55:   Variable: locCpuHeapMng
                         170 --57:   Local CPU heap manager
                         171 --58:   This local variable is initialised once in the function <eeCdi_InitCpuHeapManager>
                         172 --59:   with the given parameters.

                                                                      Page 4
                                                              C:\Users\YINGAO~1\AppData\Local\Temp\gh_000080o1.si
                         173 --60:   This function must be called when initialising the hardware.
                         174 --61:   
                         175 --62: */                         
                         176 --63: static r_cdi_HeapMng_t locCpuHeapMng;
                         177 --65: /*******************************************************************************
                         178 --66:   Variable: locVidHeapMng
                         179 --68:   Local video heap manager
                         180 --69:   This local variable is initialised once in the function <eeCdi_InitVidHeapManager>
                         181 --70:   with the given parameters.
                         182 --71:   This function must be called when initialising the hardware.
                         183 --72:   
                         184 --73: */                         
                         185 --74: static r_cdi_HeapMng_t locVidHeapMng;
                         186 --76: /*******************************************************************************
                         187 --77:   Variable: locSpecialModeHeapMng
                         188 --79:   Local SPECIAL_MODE heap manager
                         189 --80:     SPECIAL_MODE is a special type of video memory. It is currently only used in DK4-H (-> VMEM).
                         190 --81:     If you use SPECIAL_MODE, make sure that your device supports this type of memory.
                         191 --82:     
                         192 --83:   This local variable is initialised once in the function <eeCdi_InitSpecialModeHeapManager>
                         193 --84:   with the given parameters.
                         194 --85:   This function must be called when initialising the hardware.
                         195 --86:   
                         196 --87: */                         
                         197 --88: static r_cdi_HeapMng_t locSpecialModeHeapMng;
                         198 --90: /*******************************************************************************
                         199 --91:   Variable: locNextCpuBlockIndex
                         200 --93:   
                         201 --94:   
                         202 --95: */                         
                         203 --96: static r_cdi_HpBlkIndex_t locNextCpuBlockIndex = 0u;
                         204 --98: /*******************************************************************************
                         205 --99:   Variable: locNextVidBlockIndex
                         206 --101:   
                         207 --102:   
                         208 --103: */                         
                         209 --104: static r_cdi_HpBlkIndex_t locNextVidBlockIndex = 0u;
                         210 --106: /*******************************************************************************
                         211 --107:   Variable: locNextSpecialModeBlockIndex
                         212 --109:   
                         213 --110:   
                         214 --111: */                         
                         215 --112: static r_cdi_HpBlkIndex_t locNextSpecialModeBlockIndex = 0u;
                         216 --114: #ifdef USE_ROS
                         217 --115: static R_OS_ThreadMutex_t locCdiMemLock;  
                         218 --116: #endif
                         219 --118: static uint32_t locFreeVideoBlocks = 0u;
                         220 --119: static uint32_t locFreeCPUBlocks = 0u;
                         221 --120: static uint32_t locFreeSpecialModeBlocks = 0u;
                         222 --121: static uint32_t locNextCPUFreeBlockNb = 0u;
                         223 --122: static uint32_t locNextVideoFreeBlockNb = 0u;
                         224 --123: static uint32_t locNextSpecialModeFreeBlockNb = 0u;
                         225 --126: /*******************************************************************************
                         226 --127:   Section: Global API Memory Controller Functions
                         227 --128: */
                         228 --130: /*******************************************************************************
                         229 --131:  Function: R_CDI_InitHeapManager
                         230 --132: */
                         231 --133: uint32_t R_CDI_InitHeapManager(
                         232 	.text
                         233 ..bof.D.3A.5CRenesas_Electronics.5CD1x_RGL.5Crgl_ghs_D1Lx_obj_V1.2E2.2E0.5Cvlib.5Capp.5Cgfx_apps.5Csimple_draw_d1l2.5Ctarget.5Cd1lx_mango_ghs.5Cobj.5Cr_cdi_memory...44.3A.5CRenesas_Electronics.5CD1x_RGL.5Crgl_ghs_D1Lx_obj_V1.2E2.2E0.5Cvlib.5Capp.5Cgfx_apps.5Csimple_draw_d1l2.5Ctarget.5Cd1lx_mango_ghs..5A74038B..0::

                                                                      Page 5
                                                              C:\Users\YINGAO~1\AppData\Local\Temp\gh_000080o1.si
                         234 	.align	2
                         235 	.global	_R_CDI_InitHeapManager
                         236 _R_CDI_InitHeapManager:
00000000 8007c130        237 	prepare	{r26,r27,r28,r29},0
00000004 06e0            238 	mov	r6,r28
00000006 07f0            239 	mov	r7,ep
00000008 0808            240 	mov	r8,r1
0000000a 0970            241 	mov	r9,r14
                         242 --	    .bf
                         243 .LDW01:
                         244 --134:         uint32_t            HeapAddr,
                         245 --135:         r_cdi_Heap_t        *HeapMng, 
                         246 --136:         r_cdi_HpBlkIndex_t  *HeapIdxList, 
                         247 --137:         uint32_t             NbBlocks, 
                         248 --138:         uint32_t             BlkSize)
                         249 --139: {
                         250 --141:     uint32_t err = 0u;
0000000c 00ea            251 	mov	0,r29
                         252 --142:     uint32_t index;
                         253 --143:     
                         254 --144:     /* If the pointer HeapIdxList is NULL, then the index list will be placed 
                         255 --145:        into the memory whose heap we are initializing just now */
                         256 --146:     if (0 == HeapIdxList)
0000000e e009            257 	cmp	zero,r1
00000010 fa15*           258 	bne	.L4
                         259 --147:     {
                         260 --	    .bs
                         261 .LDW11:
                         262 --148:         /* How much memory is required for the HeapIdxList */
                         263 --149:         const uint32_t HeapIdxListSize = 
                         264 --line149
                         265 ..lin.D.3A.5CRenesas_Electronics.5CD1x_RGL.5Crgl_ghs_D1Lx_obj_V1.2E2.2E0.5Cvlib.5Capp.5Cgfx_apps.5Csimple_draw_d1l2.5Ctarget.5Cd1lx_mango_ghs.5Cobj.5Cr_cdi_memory.1::
                         266 .LDWlin1:
00000012 0e68            267 	mov	r14,r13
00000014 c16a            268 	shl	1,r13
00000016 0dd8            269 	mov	r13,r27
                         270 --150:                     sizeof(r_cdi_HpBlkIndex_t) * NbBlocks;
                         271 --151:         /* Size of the HeapIdxList in terms of Blocks (Rounded UP) */
                         272 --152:         const uint32_t HeapIdxListSizeBlks = 
00000018 236f1100        273 	ld.w	16[sp],r13
0000001c 5f6a            274 	add	-1,r13
0000001e db69            275 	add	r27,r13
00000020 0d58            276 	mov	r13,r11
00000022 236f1100        277 	ld.w	16[sp],r13
00000026 ed5ffe02        278 	divqu	r13,r11,zero
                         279 --153:                     (HeapIdxListSize + (BlkSize-1)) / BlkSize;
                         280 --154:         /* Number of Blocks left for normal CDI operation */
                         281 --155:         const uint32_t NbBlocksInternal = 
0000002a 0e68            282 	mov	r14,r13
0000002c ab69            283 	sub	r11,r13
                         284 --156:                     NbBlocks - HeapIdxListSizeBlks;
                         285 --157:         /* Starting point of integrated HeapIdxList */
                         286 --158:         r_cdi_HpBlkIndex_t *HeapIdxListInternal = 
0000002e 23671100        287 	ld.w	16[sp],r12
00000032 ed672202        288 	mulu	r13,r12,zero
00000036 0c50            289 	mov	r12,r10
00000038 dc51            290 	add	r28,r10
                         291 --159:                     (r_cdi_HpBlkIndex_t*)(HeapAddr + (BlkSize*NbBlocksInternal));
                         292 --160:         
                         293 --161:         /* Transfer new information to existing variables */
                         294 --162:         HeapIdxList = HeapIdxListInternal;

                                                                      Page 6
                                                              C:\Users\YINGAO~1\AppData\Local\Temp\gh_000080o1.si
0000003a 0a08            295 	mov	r10,r1
                         296 --163:         NbBlocks =    NbBlocksInternal;
0000003c 0d70            297 	mov	r13,r14
                         298 --	    .es
                         299 .LDW21:
                         300 .L4:
                         301 --164:     }
                         302 --165:     
                         303 --166:     /* test if the pointers different than NULL */
                         304 --167:     if ((0 != NbBlocks) && (0 != HeapAddr)  && ( 0 != HeapIdxList) && ( 0 != HeapMng))
0000003e e071            305 	cmp	zero,r14
00000040 c21d*           306 	be	.L6
00000042 e0e1            307 	cmp	zero,r28
00000044 a21d*           308 	be	.L6
00000046 e009            309 	cmp	zero,r1
00000048 821d*           310 	be	.L6
0000004a e0f1            311 	cmp	zero,ep
0000004c e215*           312 	be	.L6
                         313 --168:     {
                         314 --169:         HeapMng->BaseAddr        = HeapAddr;
                         315 --line169
                         316 ..lin.D.3A.5CRenesas_Electronics.5CD1x_RGL.5Crgl_ghs_D1Lx_obj_V1.2E2.2E0.5Cvlib.5Capp.5Cgfx_apps.5Csimple_draw_d1l2.5Ctarget.5Cd1lx_mango_ghs.5Cobj.5Cr_cdi_memory.2::
                         317 .LDWlin2:
0000004e 01e5            318 	sst.w	r28,0[ep]
                         319 --170:         HeapMng->NbOfBlock       = NbBlocks;
00000050 0375            320 	sst.w	r14,4[ep]
                         321 --171:         HeapMng->BlockSize       = BlkSize;
00000052 23671100        322 	ld.w	16[sp],r12
00000056 0565            323 	sst.w	r12,8[ep]
                         324 --172:         HeapMng->BlockIdxList    = HeapIdxList;
00000058 070d            325 	sst.w	r1,12[ep]
                         326 --173:         HeapMng->FreeBlocks      = NbBlocks;
0000005a 8974            327 	sst.h	r14,18[ep]
                         328 --174:         HeapMng->NextFreeBlockNb = 0u;
0000005c 8a04            329 	sst.h	zero,20[ep]
                         330 --175:         HeapMng->NextBlockIdx    = 0u;
0000005e 8804            331 	sst.h	zero,16[ep]
                         332 --176:         /* Initialise the block list */
                         333 --177:         for (index = 0u; index < NbBlocks; index++)
00000060 0062            334 	mov	0,r12
00000062 d505*           335 	br	.L14
                         336 .L13:
                         337 --178:         {
                         338 --179:             *HeapIdxList = 0u;
                         339 --line179
                         340 ..lin.D.3A.5CRenesas_Electronics.5CD1x_RGL.5Crgl_ghs_D1Lx_obj_V1.2E2.2E0.5Cvlib.5Capp.5Cgfx_apps.5Csimple_draw_d1l2.5Ctarget.5Cd1lx_mango_ghs.5Cobj.5Cr_cdi_memory.3::
                         341 .LDWlin3:
00000064 61070000        342 	st.h	zero,0[r1]
                         343 --180:             HeapIdxList++;
00000068 420a            344 	add	2,r1
0000006a 4162            345 	add	1,r12
                         346 .L14:
0000006c ee61            347 	cmp	r14,r12
0000006e b1fd*           348 	bl	.L13
                         349 --181:         }
                         350 --182:         HeapMng->NextBlockIdx++;
                         351 --line182
                         352 ..lin.D.3A.5CRenesas_Electronics.5CD1x_RGL.5Crgl_ghs_D1Lx_obj_V1.2E2.2E0.5Cvlib.5Capp.5Cgfx_apps.5Csimple_draw_d1l2.5Ctarget.5Cd1lx_mango_ghs.5Cobj.5Cr_cdi_memory.4::
                         353 .LDWlin4:
00000070 78d0            354 	sld.hu	16[ep],r26
00000072 41d2            355 	add	1,r26

                                                                      Page 7
                                                              C:\Users\YINGAO~1\AppData\Local\Temp\gh_000080o1.si
00000074 88d4            356 	sst.h	r26,16[ep]
00000076 a505*           357 	br	.L15
                         358 .L6:
                         359 --183:     }
                         360 --184:     else 
                         361 --185:     {
                         362 --186:         err = 1u;
                         363 --line186
                         364 ..lin.D.3A.5CRenesas_Electronics.5CD1x_RGL.5Crgl_ghs_D1Lx_obj_V1.2E2.2E0.5Cvlib.5Capp.5Cgfx_apps.5Csimple_draw_d1l2.5Ctarget.5Cd1lx_mango_ghs.5Cobj.5Cr_cdi_memory.5::
                         365 .LDWlin5:
00000078 01ea            366 	mov	1,r29
                         367 .L15:
                         368 --187:     }
                         369 --188: #ifdef USE_ROS
                         370 --189:     R_OS_ThreadMutexInit(&locCdiMemLock, 0);
                         371 --190: #endif
                         372 --191:     return err;
0000007a 0000            373 	nop
                         374 --	    .ef
                         375 .LDW31:
0000007c 1d50            376 	mov	r29,r10
0000007e 4006df30        377 	dispose	0,{r26,r27,r28,r29},[lp]
                         378 	.type	_R_CDI_InitHeapManager,@function
                         379 	.size	_R_CDI_InitHeapManager,.-_R_CDI_InitHeapManager
                         380 	.align	2
                         381 .LDW41:
                         382 --_err	r29	local
                         383 --_index	r12	local
                         384 --_HeapIdxListSize	r27	local
                         385 --_HeapIdxListSizeBlks	r11	local
                         386 --_NbBlocksInternal	r13	local
                         387 --_HeapIdxListInternal	r10	local
                         388 
                         389 --_HeapAddr	r28	param
                         390 --_HeapMng	ep	param
                         391 --_HeapIdxList	r1	param
                         392 --_NbBlocks	r14	param
                         393 --_BlkSize	16[sp]	param
                         394 
                         395 	.section ".bss","awb"
                         396 .L78:
                         397 	.type	.L78,@object
                         398 	.size	.L78,0
                         399 	.data
                         400 	.text
                         401 
                         402 --192: }
                         403 
                         404 --195: /*******************************************************************************
                         405 --196:  Function: R_CDI_InitCpuHeapManager
                         406 --197: */
                         407 --198: uint32_t R_CDI_InitCpuHeapManager(
                         408 	.align	2
                         409 	.align	2
                         410 	.align	2
                         411 	.global	_R_CDI_InitCpuHeapManager
                         412 _R_CDI_InitCpuHeapManager:
00000082 8007c100        413 	prepare	{r28,r29},0
00000086 0650            414 	mov	r6,r10
00000088 0770            415 	mov	r7,r14
0000008a 0858            416 	mov	r8,r11

                                                                      Page 8
                                                              C:\Users\YINGAO~1\AppData\Local\Temp\gh_000080o1.si
0000008c 09e8            417 	mov	r9,r29
0000008e 210600000000*   418 	mov	.L236,r1
00000094 3e0600000000*   419 	mov	_locCpuHeapMng,ep
                         420 --	    .bf
                         421 .LDW51:
                         422 --199:         uint32_t hpaddr, 
                         423 --200:         r_cdi_HpBlkIndex_t *hpblkindexlist, 
                         424 --201:         uint32_t nbblk, 
                         425 --202:         uint32_t blksize)
                         426 --203: {
                         427 --205:     uint32_t err = 0u;
0000009a 0062            428 	mov	0,r12
                         429 --206:     uint32_t index;
                         430 --207:     /* test if the pointers different than NULL */
                         431 --208:     if ((0 != hpaddr)  && ( 0 != hpblkindexlist))
0000009c e051            432 	cmp	zero,r10
0000009e c21d*           433 	be	.L173
000000a0 e071            434 	cmp	zero,r14
000000a2 a21d*           435 	be	.L173
                         436 --209:     {
                         437 --210:         locCpuHeapMng.BaseAddr  = hpaddr;
                         438 --line210
                         439 ..lin.D.3A.5CRenesas_Electronics.5CD1x_RGL.5Crgl_ghs_D1Lx_obj_V1.2E2.2E0.5Cvlib.5Capp.5Cgfx_apps.5Csimple_draw_d1l2.5Ctarget.5Cd1lx_mango_ghs.5Cobj.5Cr_cdi_memory.6::
                         440 .LDWlin6:
000000a4 0155            441 	sst.w	r10,0[ep]
                         442 --211:         locCpuHeapMng.NbOfBlock = nbblk;
000000a6 035d            443 	sst.w	r11,4[ep]
                         444 --212:         locCpuHeapMng.BlockSize = blksize;
000000a8 05ed            445 	sst.w	r29,8[ep]
                         446 --213:         locCpuHeapMng.Type      = CPU;
000000aa 0705            447 	sst.w	zero,12[ep]
                         448 --214:         locCpuHeapMng.BlockIndexList = hpblkindexlist;
000000ac 0975            449 	sst.w	r14,16[ep]
                         450 --215:         locFreeCPUBlocks = nbblk;
000000ae 615f0500        451 	st.w	r11,4[r1]
                         452 --216:         locNextCPUFreeBlockNb = 0u;
000000b2 61070d00        453 	st.w	zero,12[r1]
                         454 --217:         /* Initialise the block list */
                         455 --218:         for (index = 0u; index < nbblk; index++)
000000b6 006a            456 	mov	0,r13
000000b8 d505*           457 	br	.L179
                         458 .L178:
                         459 --219:         {
                         460 --220:             *hpblkindexlist = 0u;
                         461 --line220
                         462 ..lin.D.3A.5CRenesas_Electronics.5CD1x_RGL.5Crgl_ghs_D1Lx_obj_V1.2E2.2E0.5Cvlib.5Capp.5Cgfx_apps.5Csimple_draw_d1l2.5Ctarget.5Cd1lx_mango_ghs.5Cobj.5Cr_cdi_memory.7::
                         463 .LDWlin7:
000000ba 6e070000        464 	st.h	zero,0[r14]
                         465 --221:             hpblkindexlist++;
000000be 4272            466 	add	2,r14
000000c0 416a            467 	add	1,r13
                         468 .L179:
000000c2 eb69            469 	cmp	r11,r13
000000c4 b1fd*           470 	bl	.L178
                         471 --222:         }
                         472 --223:         locNextCpuBlockIndex++;
                         473 --line223
                         474 ..lin.D.3A.5CRenesas_Electronics.5CD1x_RGL.5Crgl_ghs_D1Lx_obj_V1.2E2.2E0.5Cvlib.5Capp.5Cgfx_apps.5Csimple_draw_d1l2.5Ctarget.5Cd1lx_mango_ghs.5Cobj.5Cr_cdi_memory.8::
                         475 .LDWlin8:
000000c6 21e61800        476 	movea	24,r1,r28
000000ca e10f1900        477 	ld.hu	24[r1],r1

                                                                      Page 9
                                                              C:\Users\YINGAO~1\AppData\Local\Temp\gh_000080o1.si
000000ce 410a            478 	add	1,r1
000000d0 7c0f0000        479 	st.h	r1,0[r28]
000000d4 a505*           480 	br	.L180
                         481 .L173:
                         482 --224:     }
                         483 --225:     else 
                         484 --226:     {
                         485 --227:         err = 1u;
                         486 --line227
                         487 ..lin.D.3A.5CRenesas_Electronics.5CD1x_RGL.5Crgl_ghs_D1Lx_obj_V1.2E2.2E0.5Cvlib.5Capp.5Cgfx_apps.5Csimple_draw_d1l2.5Ctarget.5Cd1lx_mango_ghs.5Cobj.5Cr_cdi_memory.9::
                         488 .LDWlin9:
000000d6 0162            489 	mov	1,r12
                         490 .L180:
                         491 --228:     }
                         492 --229: #ifdef USE_ROS
                         493 --230:     R_OS_ThreadMutexInit(&locCdiMemLock, 0);
                         494 --231: #endif
                         495 --232:     return err;
000000d8 0c08            496 	mov	r12,r1
                         497 --	    .ef
                         498 .LDW61:
000000da 0150            499 	mov	r1,r10
000000dc 4006df00        500 	dispose	0,{r28,r29},[lp]
                         501 	.type	_R_CDI_InitCpuHeapManager,@function
                         502 	.size	_R_CDI_InitCpuHeapManager,.-_R_CDI_InitCpuHeapManager
                         503 	.align	2
                         504 .LDW71:
                         505 --_err	r12	local
                         506 --_index	r13	local
                         507 
                         508 --_hpaddr	r10	param
                         509 --_hpblkindexlist	r14	param
                         510 --_nbblk	r11	param
                         511 --_blksize	r29	param
                         512 
                         513 	.data
                         514 	.align	4
                         515 .L236:
                         516 	.type	.L236,@object
                         517 	.size	.L236,0
                         518 	.global	_locFreeVideoBlocks..D.3A.5CRenesas_Electronics.5CD1x_RGL.5Crgl_ghs_D1Lx_obj_V1.2E2.2E0.5Cvlib.5Capp.5Cgfx_apps.5Csimple_draw_d1l2.5Ctarget.5Cd1lx_mango_ghs.5Cobj.5Cr_cdi_memory.
                         519 _locFreeVideoBlocks..D.3A.5CRenesas_Electronics.5CD1x_RGL.5Crgl_ghs_D1Lx_obj_V1.2E2.2E0.5Cvlib.5Capp.5Cgfx_apps.5Csimple_draw_d1l2.5Ctarget.5Cd1lx_mango_ghs.5Cobj.5Cr_cdi_memory.:
                         520 	.type	_locFreeVideoBlocks..D.3A.5CRenesas_Electronics.5CD1x_RGL.5Crgl_ghs_D1Lx_obj_V1.2E2.2E0.5Cvlib.5Capp.5Cgfx_apps.5Csimple_draw_d1l2.5Ctarget.5Cd1lx_mango_ghs.5Cobj.5Cr_cdi_memory.,@object
                         521 	.size	_locFreeVideoBlocks..D.3A.5CRenesas_Electronics.5CD1x_RGL.5Crgl_ghs_D1Lx_obj_V1.2E2.2E0.5Cvlib.5Capp.5Cgfx_apps.5Csimple_draw_d1l2.5Ctarget.5Cd1lx_mango_ghs.5Cobj.5Cr_cdi_memory.,4
00000000 00000000        522 _locFreeVideoBlocks:	.byte	0,0,0,0
                         523 	.type	_locFreeVideoBlocks,@object
                         524 	.size	_locFreeVideoBlocks,4
                         525 	.global	_locFreeCPUBlocks..D.3A.5CRenesas_Electronics.5CD1x_RGL.5Crgl_ghs_D1Lx_obj_V1.2E2.2E0.5Cvlib.5Capp.5Cgfx_apps.5Csimple_draw_d1l2.5Ctarget.5Cd1lx_mango_ghs.5Cobj.5Cr_cdi_memory.
                         526 _locFreeCPUBlocks..D.3A.5CRenesas_Electronics.5CD1x_RGL.5Crgl_ghs_D1Lx_obj_V1.2E2.2E0.5Cvlib.5Capp.5Cgfx_apps.5Csimple_draw_d1l2.5Ctarget.5Cd1lx_mango_ghs.5Cobj.5Cr_cdi_memory.:
                         527 	.type	_locFreeCPUBlocks..D.3A.5CRenesas_Electronics.5CD1x_RGL.5Crgl_ghs_D1Lx_obj_V1.2E2.2E0.5Cvlib.5Capp.5Cgfx_apps.5Csimple_draw_d1l2.5Ctarget.5Cd1lx_mango_ghs.5Cobj.5Cr_cdi_memory.,@object
                         528 	.size	_locFreeCPUBlocks..D.3A.5CRenesas_Electronics.5CD1x_RGL.5Crgl_ghs_D1Lx_obj_V1.2E2.2E0.5Cvlib.5Capp.5Cgfx_apps.5Csimple_draw_d1l2.5Ctarget.5Cd1lx_mango_ghs.5Cobj.5Cr_cdi_memory.,4
00000004 00000000        529 _locFreeCPUBlocks:	.byte	0,0,0,0
                         530 	.type	_locFreeCPUBlocks,@object
                         531 	.size	_locFreeCPUBlocks,4
                         532 	.global	_locFreeSpecialModeBlocks..D.3A.5CRenesas_Electronics.5CD1x_RGL.5Crgl_ghs_D1Lx_obj_V1.2E2.2E0.5Cvlib.5Capp.5Cgfx_apps.5Csimple_draw_d1l2.5Ctarget.5Cd1lx_mango_ghs.5Cobj.5Cr_cdi_memory.
                         533 _locFreeSpecialModeBlocks..D.3A.5CRenesas_Electronics.5CD1x_RGL.5Crgl_ghs_D1Lx_obj_V1.2E2.2E0.5Cvlib.5Capp.5Cgfx_apps.5Csimple_draw_d1l2.5Ctarget.5Cd1lx_mango_ghs.5Cobj.5Cr_cdi_memory.:
                         534 	.type	_locFreeSpecialModeBlocks..D.3A.5CRenesas_Electronics.5CD1x_RGL.5Crgl_ghs_D1Lx_obj_V1.2E2.2E0.5Cvlib.5Capp.5Cgfx_apps.5Csimple_draw_d1l2.5Ctarget.5Cd1lx_mango_ghs.5Cobj.5Cr_cdi_memory.,@object
                         535 	.size	_locFreeSpecialModeBlocks..D.3A.5CRenesas_Electronics.5CD1x_RGL.5Crgl_ghs_D1Lx_obj_V1.2E2.2E0.5Cvlib.5Capp.5Cgfx_apps.5Csimple_draw_d1l2.5Ctarget.5Cd1lx_mango_ghs.5Cobj.5Cr_cdi_memory.,4
00000008 00000000        536 _locFreeSpecialModeBlocks:	.byte	0,0,0,0
                         537 	.type	_locFreeSpecialModeBlocks,@object
                         538 	.size	_locFreeSpecialModeBlocks,4

                                                                      Page 10
                                                              C:\Users\YINGAO~1\AppData\Local\Temp\gh_000080o1.si
                         539 	.global	_locNextCPUFreeBlockNb..D.3A.5CRenesas_Electronics.5CD1x_RGL.5Crgl_ghs_D1Lx_obj_V1.2E2.2E0.5Cvlib.5Capp.5Cgfx_apps.5Csimple_draw_d1l2.5Ctarget.5Cd1lx_mango_ghs.5Cobj.5Cr_cdi_memory.
                         540 _locNextCPUFreeBlockNb..D.3A.5CRenesas_Electronics.5CD1x_RGL.5Crgl_ghs_D1Lx_obj_V1.2E2.2E0.5Cvlib.5Capp.5Cgfx_apps.5Csimple_draw_d1l2.5Ctarget.5Cd1lx_mango_ghs.5Cobj.5Cr_cdi_memory.:
                         541 	.type	_locNextCPUFreeBlockNb..D.3A.5CRenesas_Electronics.5CD1x_RGL.5Crgl_ghs_D1Lx_obj_V1.2E2.2E0.5Cvlib.5Capp.5Cgfx_apps.5Csimple_draw_d1l2.5Ctarget.5Cd1lx_mango_ghs.5Cobj.5Cr_cdi_memory.,@object
                         542 	.size	_locNextCPUFreeBlockNb..D.3A.5CRenesas_Electronics.5CD1x_RGL.5Crgl_ghs_D1Lx_obj_V1.2E2.2E0.5Cvlib.5Capp.5Cgfx_apps.5Csimple_draw_d1l2.5Ctarget.5Cd1lx_mango_ghs.5Cobj.5Cr_cdi_memory.,4
0000000c 00000000        543 _locNextCPUFreeBlockNb:	.byte	0,0,0,0
                         544 	.type	_locNextCPUFreeBlockNb,@object
                         545 	.size	_locNextCPUFreeBlockNb,4
                         546 	.global	_locNextVideoFreeBlockNb..D.3A.5CRenesas_Electronics.5CD1x_RGL.5Crgl_ghs_D1Lx_obj_V1.2E2.2E0.5Cvlib.5Capp.5Cgfx_apps.5Csimple_draw_d1l2.5Ctarget.5Cd1lx_mango_ghs.5Cobj.5Cr_cdi_memory.
                         547 _locNextVideoFreeBlockNb..D.3A.5CRenesas_Electronics.5CD1x_RGL.5Crgl_ghs_D1Lx_obj_V1.2E2.2E0.5Cvlib.5Capp.5Cgfx_apps.5Csimple_draw_d1l2.5Ctarget.5Cd1lx_mango_ghs.5Cobj.5Cr_cdi_memory.:
                         548 	.type	_locNextVideoFreeBlockNb..D.3A.5CRenesas_Electronics.5CD1x_RGL.5Crgl_ghs_D1Lx_obj_V1.2E2.2E0.5Cvlib.5Capp.5Cgfx_apps.5Csimple_draw_d1l2.5Ctarget.5Cd1lx_mango_ghs.5Cobj.5Cr_cdi_memory.,@object
                         549 	.size	_locNextVideoFreeBlockNb..D.3A.5CRenesas_Electronics.5CD1x_RGL.5Crgl_ghs_D1Lx_obj_V1.2E2.2E0.5Cvlib.5Capp.5Cgfx_apps.5Csimple_draw_d1l2.5Ctarget.5Cd1lx_mango_ghs.5Cobj.5Cr_cdi_memory.,4
00000010 00000000        550 _locNextVideoFreeBlockNb:	.byte	0,0,0,0
                         551 	.type	_locNextVideoFreeBlockNb,@object
                         552 	.size	_locNextVideoFreeBlockNb,4
                         553 	.global	_locNextSpecialModeFreeBlockNb..D.3A.5CRenesas_Electronics.5CD1x_RGL.5Crgl_ghs_D1Lx_obj_V1.2E2.2E0.5Cvlib.5Capp.5Cgfx_apps.5Csimple_draw_d1l2.5Ctarget.5Cd1lx_mango_ghs.5Cobj.5Cr_cdi_memory.
                         554 _locNextSpecialModeFreeBlockNb..D.3A.5CRenesas_Electronics.5CD1x_RGL.5Crgl_ghs_D1Lx_obj_V1.2E2.2E0.5Cvlib.5Capp.5Cgfx_apps.5Csimple_draw_d1l2.5Ctarget.5Cd1lx_mango_ghs.5Cobj.5Cr_cdi_memory.:
                         555 	.type	_locNextSpecialModeFreeBlockNb..D.3A.5CRenesas_Electronics.5CD1x_RGL.5Crgl_ghs_D1Lx_obj_V1.2E2.2E0.5Cvlib.5Capp.5Cgfx_apps.5Csimple_draw_d1l2.5Ctarget.5Cd1lx_mango_ghs.5Cobj.5Cr_cdi_memory.,@object
                         556 	.size	_locNextSpecialModeFreeBlockNb..D.3A.5CRenesas_Electronics.5CD1x_RGL.5Crgl_ghs_D1Lx_obj_V1.2E2.2E0.5Cvlib.5Capp.5Cgfx_apps.5Csimple_draw_d1l2.5Ctarget.5Cd1lx_mango_ghs.5Cobj.5Cr_cdi_memory.,4
00000014 00000000        557 _locNextSpecialModeFreeBlockNb:	.byte	0,0,0,0
                         558 	.type	_locNextSpecialModeFreeBlockNb,@object
                         559 	.size	_locNextSpecialModeFreeBlockNb,4
                         560 	.global	_locNextCpuBlockIndex..D.3A.5CRenesas_Electronics.5CD1x_RGL.5Crgl_ghs_D1Lx_obj_V1.2E2.2E0.5Cvlib.5Capp.5Cgfx_apps.5Csimple_draw_d1l2.5Ctarget.5Cd1lx_mango_ghs.5Cobj.5Cr_cdi_memory.
                         561 _locNextCpuBlockIndex..D.3A.5CRenesas_Electronics.5CD1x_RGL.5Crgl_ghs_D1Lx_obj_V1.2E2.2E0.5Cvlib.5Capp.5Cgfx_apps.5Csimple_draw_d1l2.5Ctarget.5Cd1lx_mango_ghs.5Cobj.5Cr_cdi_memory.:
                         562 	.type	_locNextCpuBlockIndex..D.3A.5CRenesas_Electronics.5CD1x_RGL.5Crgl_ghs_D1Lx_obj_V1.2E2.2E0.5Cvlib.5Capp.5Cgfx_apps.5Csimple_draw_d1l2.5Ctarget.5Cd1lx_mango_ghs.5Cobj.5Cr_cdi_memory.,@object
                         563 	.size	_locNextCpuBlockIndex..D.3A.5CRenesas_Electronics.5CD1x_RGL.5Crgl_ghs_D1Lx_obj_V1.2E2.2E0.5Cvlib.5Capp.5Cgfx_apps.5Csimple_draw_d1l2.5Ctarget.5Cd1lx_mango_ghs.5Cobj.5Cr_cdi_memory.,2
00000018 0000            564 _locNextCpuBlockIndex:	.byte	0,0
                         565 	.type	_locNextCpuBlockIndex,@object
                         566 	.size	_locNextCpuBlockIndex,2
                         567 	.global	_locNextVidBlockIndex..D.3A.5CRenesas_Electronics.5CD1x_RGL.5Crgl_ghs_D1Lx_obj_V1.2E2.2E0.5Cvlib.5Capp.5Cgfx_apps.5Csimple_draw_d1l2.5Ctarget.5Cd1lx_mango_ghs.5Cobj.5Cr_cdi_memory.
                         568 _locNextVidBlockIndex..D.3A.5CRenesas_Electronics.5CD1x_RGL.5Crgl_ghs_D1Lx_obj_V1.2E2.2E0.5Cvlib.5Capp.5Cgfx_apps.5Csimple_draw_d1l2.5Ctarget.5Cd1lx_mango_ghs.5Cobj.5Cr_cdi_memory.:
                         569 	.type	_locNextVidBlockIndex..D.3A.5CRenesas_Electronics.5CD1x_RGL.5Crgl_ghs_D1Lx_obj_V1.2E2.2E0.5Cvlib.5Capp.5Cgfx_apps.5Csimple_draw_d1l2.5Ctarget.5Cd1lx_mango_ghs.5Cobj.5Cr_cdi_memory.,@object
                         570 	.size	_locNextVidBlockIndex..D.3A.5CRenesas_Electronics.5CD1x_RGL.5Crgl_ghs_D1Lx_obj_V1.2E2.2E0.5Cvlib.5Capp.5Cgfx_apps.5Csimple_draw_d1l2.5Ctarget.5Cd1lx_mango_ghs.5Cobj.5Cr_cdi_memory.,2
0000001a 0000            571 _locNextVidBlockIndex:	.byte	0,0
                         572 	.type	_locNextVidBlockIndex,@object
                         573 	.size	_locNextVidBlockIndex,2
                         574 	.global	_locNextSpecialModeBlockIndex..D.3A.5CRenesas_Electronics.5CD1x_RGL.5Crgl_ghs_D1Lx_obj_V1.2E2.2E0.5Cvlib.5Capp.5Cgfx_apps.5Csimple_draw_d1l2.5Ctarget.5Cd1lx_mango_ghs.5Cobj.5Cr_cdi_memory.
                         575 _locNextSpecialModeBlockIndex..D.3A.5CRenesas_Electronics.5CD1x_RGL.5Crgl_ghs_D1Lx_obj_V1.2E2.2E0.5Cvlib.5Capp.5Cgfx_apps.5Csimple_draw_d1l2.5Ctarget.5Cd1lx_mango_ghs.5Cobj.5Cr_cdi_memory.:
                         576 	.type	_locNextSpecialModeBlockIndex..D.3A.5CRenesas_Electronics.5CD1x_RGL.5Crgl_ghs_D1Lx_obj_V1.2E2.2E0.5Cvlib.5Capp.5Cgfx_apps.5Csimple_draw_d1l2.5Ctarget.5Cd1lx_mango_ghs.5Cobj.5Cr_cdi_memory.,@object
                         577 	.size	_locNextSpecialModeBlockIndex..D.3A.5CRenesas_Electronics.5CD1x_RGL.5Crgl_ghs_D1Lx_obj_V1.2E2.2E0.5Cvlib.5Capp.5Cgfx_apps.5Csimple_draw_d1l2.5Ctarget.5Cd1lx_mango_ghs.5Cobj.5Cr_cdi_memory.,2
0000001c 0000            578 _locNextSpecialModeBlockIndex:	.byte	0,0
                         579 	.type	_locNextSpecialModeBlockIndex,@object
                         580 	.size	_locNextSpecialModeBlockIndex,2
                         581 	.section ".bss","awb"
                         582 	.align	4
                         583 	.global	_locCpuHeapMng..D.3A.5CRenesas_Electronics.5CD1x_RGL.5Crgl_ghs_D1Lx_obj_V1.2E2.2E0.5Cvlib.5Capp.5Cgfx_apps.5Csimple_draw_d1l2.5Ctarget.5Cd1lx_mango_ghs.5Cobj.5Cr_cdi_memory.
                         584 _locCpuHeapMng..D.3A.5CRenesas_Electronics.5CD1x_RGL.5Crgl_ghs_D1Lx_obj_V1.2E2.2E0.5Cvlib.5Capp.5Cgfx_apps.5Csimple_draw_d1l2.5Ctarget.5Cd1lx_mango_ghs.5Cobj.5Cr_cdi_memory.:
                         585 	.type	_locCpuHeapMng..D.3A.5CRenesas_Electronics.5CD1x_RGL.5Crgl_ghs_D1Lx_obj_V1.2E2.2E0.5Cvlib.5Capp.5Cgfx_apps.5Csimple_draw_d1l2.5Ctarget.5Cd1lx_mango_ghs.5Cobj.5Cr_cdi_memory.,@object
                         586 	.size	_locCpuHeapMng..D.3A.5CRenesas_Electronics.5CD1x_RGL.5Crgl_ghs_D1Lx_obj_V1.2E2.2E0.5Cvlib.5Capp.5Cgfx_apps.5Csimple_draw_d1l2.5Ctarget.5Cd1lx_mango_ghs.5Cobj.5Cr_cdi_memory.,20
00000000 000000000000    587 _locCpuHeapMng:	.space	20
00000006 000000000000 
0000000c 000000000000 
00000012 0000 
                         588 	.type	_locCpuHeapMng,@object
                         589 	.size	_locCpuHeapMng,20
                         590 	.global	_locVidHeapMng..D.3A.5CRenesas_Electronics.5CD1x_RGL.5Crgl_ghs_D1Lx_obj_V1.2E2.2E0.5Cvlib.5Capp.5Cgfx_apps.5Csimple_draw_d1l2.5Ctarget.5Cd1lx_mango_ghs.5Cobj.5Cr_cdi_memory.
                         591 _locVidHeapMng..D.3A.5CRenesas_Electronics.5CD1x_RGL.5Crgl_ghs_D1Lx_obj_V1.2E2.2E0.5Cvlib.5Capp.5Cgfx_apps.5Csimple_draw_d1l2.5Ctarget.5Cd1lx_mango_ghs.5Cobj.5Cr_cdi_memory.:
                         592 	.type	_locVidHeapMng..D.3A.5CRenesas_Electronics.5CD1x_RGL.5Crgl_ghs_D1Lx_obj_V1.2E2.2E0.5Cvlib.5Capp.5Cgfx_apps.5Csimple_draw_d1l2.5Ctarget.5Cd1lx_mango_ghs.5Cobj.5Cr_cdi_memory.,@object
                         593 	.size	_locVidHeapMng..D.3A.5CRenesas_Electronics.5CD1x_RGL.5Crgl_ghs_D1Lx_obj_V1.2E2.2E0.5Cvlib.5Capp.5Cgfx_apps.5Csimple_draw_d1l2.5Ctarget.5Cd1lx_mango_ghs.5Cobj.5Cr_cdi_memory.,20
00000014 000000000000    594 _locVidHeapMng:	.space	20
0000001a 000000000000 
00000020 000000000000 

                                                                      Page 11
                                                              C:\Users\YINGAO~1\AppData\Local\Temp\gh_000080o1.si
00000026 0000 
                         595 	.type	_locVidHeapMng,@object
                         596 	.size	_locVidHeapMng,20
                         597 	.global	_locSpecialModeHeapMng..D.3A.5CRenesas_Electronics.5CD1x_RGL.5Crgl_ghs_D1Lx_obj_V1.2E2.2E0.5Cvlib.5Capp.5Cgfx_apps.5Csimple_draw_d1l2.5Ctarget.5Cd1lx_mango_ghs.5Cobj.5Cr_cdi_memory.
                         598 _locSpecialModeHeapMng..D.3A.5CRenesas_Electronics.5CD1x_RGL.5Crgl_ghs_D1Lx_obj_V1.2E2.2E0.5Cvlib.5Capp.5Cgfx_apps.5Csimple_draw_d1l2.5Ctarget.5Cd1lx_mango_ghs.5Cobj.5Cr_cdi_memory.:
                         599 	.type	_locSpecialModeHeapMng..D.3A.5CRenesas_Electronics.5CD1x_RGL.5Crgl_ghs_D1Lx_obj_V1.2E2.2E0.5Cvlib.5Capp.5Cgfx_apps.5Csimple_draw_d1l2.5Ctarget.5Cd1lx_mango_ghs.5Cobj.5Cr_cdi_memory.,@object
                         600 	.size	_locSpecialModeHeapMng..D.3A.5CRenesas_Electronics.5CD1x_RGL.5Crgl_ghs_D1Lx_obj_V1.2E2.2E0.5Cvlib.5Capp.5Cgfx_apps.5Csimple_draw_d1l2.5Ctarget.5Cd1lx_mango_ghs.5Cobj.5Cr_cdi_memory.,20
00000028 000000000000    601 _locSpecialModeHeapMng:	.space	20
0000002e 000000000000 
00000034 000000000000 
0000003a 0000 
                         602 	.type	_locSpecialModeHeapMng,@object
                         603 	.size	_locSpecialModeHeapMng,20
                         604 	.data
                         605 	.text
                         606 
                         607 --233: }
                         608 
                         609 --235: /*******************************************************************************
                         610 --236:  Function: R_CDI_InitVidHeapManager
                         611 --237: */
                         612 --239: uint32_t R_CDI_InitVidHeapManager(
                         613 	.align	2
                         614 	.align	2
                         615 	.global	_R_CDI_InitVidHeapManager
                         616 _R_CDI_InitVidHeapManager:
000000e0 8007c100        617 	prepare	{r28,r29},0
000000e4 0650            618 	mov	r6,r10
000000e6 0770            619 	mov	r7,r14
000000e8 0858            620 	mov	r8,r11
000000ea 09e8            621 	mov	r9,r29
000000ec 210600000000*   622 	mov	_locFreeVideoBlocks,r1
000000f2 3e0600000000*   623 	mov	_locVidHeapMng,ep
                         624 --	    .bf
                         625 .LDW81:
                         626 --240:         uint32_t hpaddr, 
                         627 --241:         r_cdi_HpBlkIndex_t * hpblkindexlist, 
                         628 --242:         uint32_t nbblock, 
                         629 --243:         uint32_t blksize)
                         630 --244: {
                         631 --246:     uint32_t err = 0u;
000000f8 0062            632 	mov	0,r12
                         633 --247:     uint32_t index;
                         634 --248:     /* test if the pointers different than NULL */
                         635 --249:     if ((0 != hpaddr)  && ( 0 != hpblkindexlist))
000000fa e051            636 	cmp	zero,r10
000000fc 8225*           637 	be	.L304
000000fe e071            638 	cmp	zero,r14
00000100 e21d*           639 	be	.L304
                         640 --250:     {
                         641 --251:         /* Initialise the heap manager */
                         642 --252:         locVidHeapMng.BaseAddr  = hpaddr;
                         643 --line252
                         644 ..lin.D.3A.5CRenesas_Electronics.5CD1x_RGL.5Crgl_ghs_D1Lx_obj_V1.2E2.2E0.5Cvlib.5Capp.5Cgfx_apps.5Csimple_draw_d1l2.5Ctarget.5Cd1lx_mango_ghs.5Cobj.5Cr_cdi_memory.10::
                         645 .LDWlin10:
00000102 0155            646 	sst.w	r10,0[ep]
                         647 --253:         locVidHeapMng.NbOfBlock = nbblock;
00000104 035d            648 	sst.w	r11,4[ep]
                         649 --254:         locVidHeapMng.BlockSize = blksize;
00000106 05ed            650 	sst.w	r29,8[ep]
                         651 --255:         locVidHeapMng.Type      = VIDEO;

                                                                      Page 12
                                                              C:\Users\YINGAO~1\AppData\Local\Temp\gh_000080o1.si
00000108 016a            652 	mov	1,r13
0000010a 076d            653 	sst.w	r13,12[ep]
                         654 --256:         locFreeVideoBlocks      = nbblock;
0000010c 2d0600000000*   655 	mov	_locFreeVideoBlocks,r13
00000112 6d5f0100        656 	st.w	r11,0[r13]
                         657 --257:         locNextVideoFreeBlockNb = 0u;
00000116 61071100        658 	st.w	zero,16[r1]
                         659 --258:         locVidHeapMng.BlockIndexList = hpblkindexlist;
0000011a 0975            660 	sst.w	r14,16[ep]
                         661 --259:         /* Initialise the block list */
                         662 --260:         for (index = 0u; index < nbblock; index++)
0000011c 006a            663 	mov	0,r13
0000011e d505*           664 	br	.L310
                         665 .L309:
                         666 --261:         {
                         667 --262:             *hpblkindexlist = 0u;
                         668 --line262
                         669 ..lin.D.3A.5CRenesas_Electronics.5CD1x_RGL.5Crgl_ghs_D1Lx_obj_V1.2E2.2E0.5Cvlib.5Capp.5Cgfx_apps.5Csimple_draw_d1l2.5Ctarget.5Cd1lx_mango_ghs.5Cobj.5Cr_cdi_memory.11::
                         670 .LDWlin11:
00000120 6e070000        671 	st.h	zero,0[r14]
                         672 --263:             hpblkindexlist++;
00000124 4272            673 	add	2,r14
00000126 416a            674 	add	1,r13
                         675 .L310:
00000128 eb69            676 	cmp	r11,r13
0000012a b1fd*           677 	bl	.L309
                         678 --264:         }
                         679 --265:         locNextVidBlockIndex++; 
                         680 --line265
                         681 ..lin.D.3A.5CRenesas_Electronics.5CD1x_RGL.5Crgl_ghs_D1Lx_obj_V1.2E2.2E0.5Cvlib.5Capp.5Cgfx_apps.5Csimple_draw_d1l2.5Ctarget.5Cd1lx_mango_ghs.5Cobj.5Cr_cdi_memory.12::
                         682 .LDWlin12:
0000012c 21e61a00        683 	movea	26,r1,r28
00000130 e10f1b00        684 	ld.hu	26[r1],r1
00000134 410a            685 	add	1,r1
00000136 7c0f0000        686 	st.h	r1,0[r28]
0000013a a505*           687 	br	.L311
                         688 .L304:
                         689 --266:     }
                         690 --267:     else 
                         691 --268:     {
                         692 --269:         err = 1u;
                         693 --line269
                         694 ..lin.D.3A.5CRenesas_Electronics.5CD1x_RGL.5Crgl_ghs_D1Lx_obj_V1.2E2.2E0.5Cvlib.5Capp.5Cgfx_apps.5Csimple_draw_d1l2.5Ctarget.5Cd1lx_mango_ghs.5Cobj.5Cr_cdi_memory.13::
                         695 .LDWlin13:
0000013c 0162            696 	mov	1,r12
                         697 .L311:
                         698 --270:     }
                         699 --271:     return err;
0000013e 0c08            700 	mov	r12,r1
                         701 --	    .ef
                         702 .LDW91:
00000140 0150            703 	mov	r1,r10
00000142 4006df00        704 	dispose	0,{r28,r29},[lp]
                         705 	.type	_R_CDI_InitVidHeapManager,@function
                         706 	.size	_R_CDI_InitVidHeapManager,.-_R_CDI_InitVidHeapManager
                         707 	.align	2
                         708 .LDW02:
                         709 --_err	r12	local
                         710 --_index	r13	local
                         711 
                         712 --_hpaddr	r10	param

                                                                      Page 13
                                                              C:\Users\YINGAO~1\AppData\Local\Temp\gh_000080o1.si
                         713 --_hpblkindexlist	r14	param
                         714 --_nbblock	r11	param
                         715 --_blksize	r29	param
                         716 
                         717 	.data
                         718 	.text
                         719 
                         720 --272: }
                         721 
                         722 --274: /*******************************************************************************
                         723 --275:  Function: R_CDI_InitSmHeapManager
                         724 --276: */
                         725 --278: uint32_t R_CDI_InitSmHeapManager(
                         726 	.align	2
                         727 	.align	2
                         728 	.global	_R_CDI_InitSmHeapManager
                         729 _R_CDI_InitSmHeapManager:
00000146 8007c100        730 	prepare	{r28,r29},0
0000014a 0650            731 	mov	r6,r10
0000014c 0770            732 	mov	r7,r14
0000014e 0858            733 	mov	r8,r11
00000150 09e8            734 	mov	r9,r29
00000152 210600000000*   735 	mov	_locFreeSpecialModeBlocks,r1
00000158 3e0600000000*   736 	mov	_locSpecialModeHeapMng,ep
                         737 --	    .bf
                         738 .LDW12:
                         739 --279:         uint32_t hpaddr, 
                         740 --280:         r_cdi_HpBlkIndex_t * hpblkindexlist, 
                         741 --281:         uint32_t nbblock, 
                         742 --282:         uint32_t blksize)
                         743 --283: {
                         744 --285:     uint32_t err = 0u;
0000015e 0062            745 	mov	0,r12
                         746 --286:     uint32_t index;
                         747 --287:     /* test if the pointers different than NULL */
                         748 --288:     if ((0 != hpaddr)  && ( 0 != hpblkindexlist))
00000160 e051            749 	cmp	zero,r10
00000162 8225*           750 	be	.L431
00000164 e071            751 	cmp	zero,r14
00000166 e21d*           752 	be	.L431
                         753 --289:     {
                         754 --290:         /* Initialise the heap manager */
                         755 --291:         locSpecialModeHeapMng.BaseAddr  = hpaddr;
                         756 --line291
                         757 ..lin.D.3A.5CRenesas_Electronics.5CD1x_RGL.5Crgl_ghs_D1Lx_obj_V1.2E2.2E0.5Cvlib.5Capp.5Cgfx_apps.5Csimple_draw_d1l2.5Ctarget.5Cd1lx_mango_ghs.5Cobj.5Cr_cdi_memory.14::
                         758 .LDWlin14:
00000168 0155            759 	sst.w	r10,0[ep]
                         760 --292:         locSpecialModeHeapMng.NbOfBlock = nbblock;
0000016a 035d            761 	sst.w	r11,4[ep]
                         762 --293:         locSpecialModeHeapMng.BlockSize = blksize;
0000016c 05ed            763 	sst.w	r29,8[ep]
                         764 --294:         locSpecialModeHeapMng.Type      = SPECIAL_MODE;
0000016e 026a            765 	mov	2,r13
00000170 076d            766 	sst.w	r13,12[ep]
                         767 --295:         locFreeSpecialModeBlocks        = nbblock;
00000172 2d0600000000*   768 	mov	_locFreeSpecialModeBlocks,r13
00000178 6d5f0100        769 	st.w	r11,0[r13]
                         770 --296:         locSpecialModeHeapMng.BlockIndexList = hpblkindexlist;
0000017c 0975            771 	sst.w	r14,16[ep]
                         772 --297:         locNextSpecialModeFreeBlockNb = 0u;
0000017e 61070d00        773 	st.w	zero,12[r1]

                                                                      Page 14
                                                              C:\Users\YINGAO~1\AppData\Local\Temp\gh_000080o1.si
                         774 --298:         /* Initialise the block list */
                         775 --299:         for (index = 0u; index < nbblock; index++)
00000182 006a            776 	mov	0,r13
00000184 d505*           777 	br	.L437
                         778 .L436:
                         779 --300:         {
                         780 --301:             *hpblkindexlist = 0u;
                         781 --line301
                         782 ..lin.D.3A.5CRenesas_Electronics.5CD1x_RGL.5Crgl_ghs_D1Lx_obj_V1.2E2.2E0.5Cvlib.5Capp.5Cgfx_apps.5Csimple_draw_d1l2.5Ctarget.5Cd1lx_mango_ghs.5Cobj.5Cr_cdi_memory.15::
                         783 .LDWlin15:
00000186 6e070000        784 	st.h	zero,0[r14]
                         785 --302:             hpblkindexlist++;
0000018a 4272            786 	add	2,r14
0000018c 416a            787 	add	1,r13
                         788 .L437:
0000018e eb69            789 	cmp	r11,r13
00000190 b1fd*           790 	bl	.L436
                         791 --303:         }
                         792 --304:         locNextSpecialModeBlockIndex++; 
                         793 --line304
                         794 ..lin.D.3A.5CRenesas_Electronics.5CD1x_RGL.5Crgl_ghs_D1Lx_obj_V1.2E2.2E0.5Cvlib.5Capp.5Cgfx_apps.5Csimple_draw_d1l2.5Ctarget.5Cd1lx_mango_ghs.5Cobj.5Cr_cdi_memory.16::
                         795 .LDWlin16:
00000192 21e61400        796 	movea	20,r1,r28
00000196 e10f1500        797 	ld.hu	20[r1],r1
0000019a 410a            798 	add	1,r1
0000019c 7c0f0000        799 	st.h	r1,0[r28]
000001a0 a505*           800 	br	.L438
                         801 .L431:
                         802 --305:     }
                         803 --306:     else 
                         804 --307:     {
                         805 --308:         err = 1u;
                         806 --line308
                         807 ..lin.D.3A.5CRenesas_Electronics.5CD1x_RGL.5Crgl_ghs_D1Lx_obj_V1.2E2.2E0.5Cvlib.5Capp.5Cgfx_apps.5Csimple_draw_d1l2.5Ctarget.5Cd1lx_mango_ghs.5Cobj.5Cr_cdi_memory.17::
                         808 .LDWlin17:
000001a2 0162            809 	mov	1,r12
                         810 .L438:
                         811 --309:     }
                         812 --310:     return err;
000001a4 0c08            813 	mov	r12,r1
                         814 --	    .ef
                         815 .LDW22:
000001a6 0150            816 	mov	r1,r10
000001a8 4006df00        817 	dispose	0,{r28,r29},[lp]
                         818 	.type	_R_CDI_InitSmHeapManager,@function
                         819 	.size	_R_CDI_InitSmHeapManager,.-_R_CDI_InitSmHeapManager
                         820 	.align	2
                         821 .LDW32:
                         822 --_err	r12	local
                         823 --_index	r13	local
                         824 
                         825 --_hpaddr	r10	param
                         826 --_hpblkindexlist	r14	param
                         827 --_nbblock	r11	param
                         828 --_blksize	r29	param
                         829 
                         830 	.data
                         831 	.text
                         832 
                         833 --311: }
                         834 

                                                                      Page 15
                                                              C:\Users\YINGAO~1\AppData\Local\Temp\gh_000080o1.si
                         835 --313: /*******************************************************************************
                         836 --314:  Function: R_CDI_HeapAlloc
                         837 --315: */
                         838 --316: uint32_t R_CDI_HeapAlloc(uint32_t size, r_cdi_HpType_t type)
                         839 	.align	2
                         840 	.align	2
                         841 	.global	_R_CDI_HeapAlloc
                         842 _R_CDI_HeapAlloc:
000001ac 8c07e170        843 	prepare	{r25,r26,r27,r28,r29,r31},6
000001b0 63371100        844 	st.w	r6,16[sp]
000001b4 07c8            845 	mov	r7,r25
000001b6 210600000000*   846 	mov	_locFreeVideoBlocks,r1
                         847 --	    .bf
                         848 .LDW42:
                         849 --317: {
                         850 --318:     uint32_t addr = 1u;
000001bc 0172            851 	mov	1,r14
                         852 --319:     uint32_t allocnbblk = 0u;
000001be 00ea            853 	mov	0,r29
                         854 --320:     uint32_t adjfreeblk = 0u;
000001c0 006a            855 	mov	0,r13
                         856 --321:     int32_t tmp;
                         857 --322:     uint32_t i;
                         858 --323:     r_cdi_HeapMng_t *lochpmng;
                         859 --324:     r_cdi_HpBlkIndex_t   *locblkindexlist;
                         860 --325:     r_cdi_HpBlkIndex_t   startblk;
                         861 --326:     r_cdi_HpBlkIndex_t   *currentindex;
                         862 --327:     uint32_t  *freeCount;
                         863 --328:     uint32_t  *nextBlock;
                         864 --329:     uint8_t leave = 0u; 
000001c2 0042            865 	mov	0,r8
                         866 --330:     r_cdi_HpBlkIndex_t prevBlkIndex = 0;
000001c4 00da            867 	mov	0,r27
                         868 --331:     r_cdi_HpBlkIndex_t nextBlkIndex = 0;
000001c6 00d2            869 	mov	0,r26
                         870 --333:     
                         871 --334: #ifdef USE_ROS
                         872 --335:     R_OS_ThreadMutexLock(&locCdiMemLock);
                         873 --336: #endif
                         874 --337:     /* Check memory type and get the pointer to the corresponding heap manager.*/
                         875 --338:     /* if the type is incorrect then 0 is returned */
                         876 --339:     if((type == CPU) && (0 != locCpuHeapMng.BaseAddr))
000001c8 e0c9            877 	cmp	zero,r25
000001ca aa15*           878 	bne	.L559
000001cc 2c0600000000*   879 	mov	_locCpuHeapMng,r12
000001d2 2c670100        880 	ld.w	0[r12],r12
000001d6 e061            881 	cmp	zero,r12
000001d8 b20d*           882 	be	.L559
                         883 --340:     {
                         884 --341:         lochpmng   = &locCpuHeapMng;
                         885 --line341
                         886 ..lin.D.3A.5CRenesas_Electronics.5CD1x_RGL.5Crgl_ghs_D1Lx_obj_V1.2E2.2E0.5Cvlib.5Capp.5Cgfx_apps.5Csimple_draw_d1l2.5Ctarget.5Cd1lx_mango_ghs.5Cobj.5Cr_cdi_memory.18::
                         887 .LDWlin18:
000001da 3e0600000000*   888 	mov	_locCpuHeapMng,ep
                         889 --342:         currentindex = &locNextCpuBlockIndex;
000001e0 21661800        890 	movea	24,r1,r12
                         891 --343:         freeCount = &locFreeCPUBlocks;
000001e4 21560400        892 	movea	4,r1,r10
                         893 --344:         nextBlock = &locNextCPUFreeBlockNb;
000001e8 214e0c00        894 	movea	12,r1,r9
000001ec 952d*           895 	br	.L562

                                                                      Page 16
                                                              C:\Users\YINGAO~1\AppData\Local\Temp\gh_000080o1.si
                         896 .L559:
                         897 --345:     } 
                         898 --346:     else if((type == SPECIAL_MODE) && (0 != locSpecialModeHeapMng.BaseAddr))
                         899 --line346
                         900 ..lin.D.3A.5CRenesas_Electronics.5CD1x_RGL.5Crgl_ghs_D1Lx_obj_V1.2E2.2E0.5Cvlib.5Capp.5Cgfx_apps.5Csimple_draw_d1l2.5Ctarget.5Cd1lx_mango_ghs.5Cobj.5Cr_cdi_memory.19::
                         901 .LDWlin19:
000001ee 62ca            902 	cmp	2,r25
000001f0 aa15*           903 	bne	.L563
000001f2 2c0600000000*   904 	mov	_locSpecialModeHeapMng,r12
000001f8 2c670100        905 	ld.w	0[r12],r12
000001fc e061            906 	cmp	zero,r12
000001fe b20d*           907 	be	.L563
                         908 --347:     {
                         909 --348:         lochpmng = &locSpecialModeHeapMng;
                         910 --line348
                         911 ..lin.D.3A.5CRenesas_Electronics.5CD1x_RGL.5Crgl_ghs_D1Lx_obj_V1.2E2.2E0.5Cvlib.5Capp.5Cgfx_apps.5Csimple_draw_d1l2.5Ctarget.5Cd1lx_mango_ghs.5Cobj.5Cr_cdi_memory.20::
                         912 .LDWlin20:
00000200 3e0600000000*   913 	mov	_locSpecialModeHeapMng,ep
                         914 --349:         currentindex = &locNextSpecialModeBlockIndex;
00000206 21661c00        915 	movea	28,r1,r12
                         916 --350:         freeCount = &locFreeSpecialModeBlocks;  
0000020a 21560800        917 	movea	8,r1,r10
                         918 --351:         nextBlock = &locNextSpecialModeFreeBlockNb; 
0000020e 214e1400        919 	movea	20,r1,r9
00000212 e515*           920 	br	.L562
                         921 .L563:
                         922 --352:     }
                         923 --353:     else 
                         924 --354:     {
                         925 --355:         if((type == VIDEO) && (0 != locVidHeapMng.BaseAddr) )
                         926 --line355
                         927 ..lin.D.3A.5CRenesas_Electronics.5CD1x_RGL.5Crgl_ghs_D1Lx_obj_V1.2E2.2E0.5Cvlib.5Capp.5Cgfx_apps.5Csimple_draw_d1l2.5Ctarget.5Cd1lx_mango_ghs.5Cobj.5Cr_cdi_memory.21::
                         928 .LDWlin21:
00000214 61ca            929 	cmp	1,r25
00000216 ba15*           930 	bne	.L567
00000218 2c0600000000*   931 	mov	_locVidHeapMng,r12
0000021e 2c670100        932 	ld.w	0[r12],r12
00000222 e061            933 	cmp	zero,r12
00000224 c20d*           934 	be	.L567
                         935 --356:         {
                         936 --357:             lochpmng = &locVidHeapMng;
                         937 --line357
                         938 ..lin.D.3A.5CRenesas_Electronics.5CD1x_RGL.5Crgl_ghs_D1Lx_obj_V1.2E2.2E0.5Cvlib.5Capp.5Cgfx_apps.5Csimple_draw_d1l2.5Ctarget.5Cd1lx_mango_ghs.5Cobj.5Cr_cdi_memory.22::
                         939 .LDWlin22:
00000226 3e0600000000*   940 	mov	_locVidHeapMng,ep
                         941 --358:             currentindex = &locNextVidBlockIndex;
0000022c 21661a00        942 	movea	26,r1,r12
                         943 --359:             freeCount = &locFreeVideoBlocks;
00000230 2a0600000000*   944 	mov	_locFreeVideoBlocks,r10
                         945 --360:             nextBlock = &locNextVideoFreeBlockNb;
00000236 214e1000        946 	movea	16,r1,r9
0000023a a505*           947 	br	.L562
                         948 .L567:
                         949 --361:         } 
                         950 --362:         else 
                         951 --363:         {
                         952 --364:             addr = 0u;
                         953 --line364
                         954 ..lin.D.3A.5CRenesas_Electronics.5CD1x_RGL.5Crgl_ghs_D1Lx_obj_V1.2E2.2E0.5Cvlib.5Capp.5Cgfx_apps.5Csimple_draw_d1l2.5Ctarget.5Cd1lx_mango_ghs.5Cobj.5Cr_cdi_memory.23::
                         955 .LDWlin23:
0000023c 0072            956 	mov	0,r14

                                                                      Page 17
                                                              C:\Users\YINGAO~1\AppData\Local\Temp\gh_000080o1.si
                         957 .L562:
                         958 --365:         }
                         959 --366:     }
                         960 --367:     if((*freeCount) <= 0)
0000023e 2a0f0100        961 	ld.w	0[r10],r1
00000242 e009            962 	cmp	zero,r1
00000244 ab05*           963 	bh	.L571
                         964 --368:     {
                         965 --369:         addr = 0u;
                         966 --line369
                         967 ..lin.D.3A.5CRenesas_Electronics.5CD1x_RGL.5Crgl_ghs_D1Lx_obj_V1.2E2.2E0.5Cvlib.5Capp.5Cgfx_apps.5Csimple_draw_d1l2.5Ctarget.5Cd1lx_mango_ghs.5Cobj.5Cr_cdi_memory.24::
                         968 .LDWlin24:
00000246 0072            969 	mov	0,r14
                         970 .L571:
                         971 --370:     }
                         972 --371:     
                         973 --372:     /* Calculate number of required blocks*/
                         974 --373:     if (addr != 0u)
00000248 e071            975 	cmp	zero,r14
0000024a e20d*           976 	be	.L573
                         977 --374:     {
                         978 --375:         
                         979 --376:         tmp = size;
                         980 --line376
                         981 ..lin.D.3A.5CRenesas_Electronics.5CD1x_RGL.5Crgl_ghs_D1Lx_obj_V1.2E2.2E0.5Cvlib.5Capp.5Cgfx_apps.5Csimple_draw_d1l2.5Ctarget.5Cd1lx_mango_ghs.5Cobj.5Cr_cdi_memory.25::
                         982 .LDWlin25:
0000024c 23e71100        983 	ld.w	16[sp],r28
                         984 --377:         /* calculate number of blocks needed*/
                         985 --378:         while (tmp > 0)
00000250 c505*           986 	br	.L575
                         987 .L577:
                         988 --379:         {
                         989 --380:             allocnbblk++;
                         990 --line380
                         991 ..lin.D.3A.5CRenesas_Electronics.5CD1x_RGL.5Crgl_ghs_D1Lx_obj_V1.2E2.2E0.5Cvlib.5Capp.5Cgfx_apps.5Csimple_draw_d1l2.5Ctarget.5Cd1lx_mango_ghs.5Cobj.5Cr_cdi_memory.26::
                         992 .LDWlin26:
00000252 41ea            993 	add	1,r29
                         994 --381:             tmp -= lochpmng->BlockSize;;
00000254 040d            995 	sld.w	8[ep],r1
00000256 a1e1            996 	sub	r1,r28
                         997 .L575:
00000258 e0e1            998 	cmp	zero,r28
0000025a cffd*           999 	bgt	.L577
                        1000 --382:         }
                        1001 --383:         /* if not enough blocks left */
                        1002 --384:         if((*freeCount) <= allocnbblk)
                        1003 --line384
                        1004 ..lin.D.3A.5CRenesas_Electronics.5CD1x_RGL.5Crgl_ghs_D1Lx_obj_V1.2E2.2E0.5Cvlib.5Capp.5Cgfx_apps.5Csimple_draw_d1l2.5Ctarget.5Cd1lx_mango_ghs.5Cobj.5Cr_cdi_memory.27::
                        1005 .LDWlin27:
0000025c 2a0f0100       1006 	ld.w	0[r10],r1
00000260 fd09           1007 	cmp	r29,r1
00000262 ab05*          1008 	bh	.L573
                        1009 --385:         {
                        1010 --386:             addr = 0u;
                        1011 --line386
                        1012 ..lin.D.3A.5CRenesas_Electronics.5CD1x_RGL.5Crgl_ghs_D1Lx_obj_V1.2E2.2E0.5Cvlib.5Capp.5Cgfx_apps.5Csimple_draw_d1l2.5Ctarget.5Cd1lx_mango_ghs.5Cobj.5Cr_cdi_memory.28::
                        1013 .LDWlin28:
00000264 0072           1014 	mov	0,r14
                        1015 .L573:
                        1016 --387:         }
                        1017 --388:     }

                                                                      Page 18
                                                              C:\Users\YINGAO~1\AppData\Local\Temp\gh_000080o1.si
                        1018 --389:     
                        1019 --390:     if(addr != 0u) 
00000266 e071           1020 	cmp	zero,r14
00000268 e2078302*      1021 	be	.L580
                        1022 --391:     {
                        1023 --392:         /* Search for n free adjacent blocks */
                        1024 --393:         locblkindexlist = lochpmng->BlockIndexList;
                        1025 --line393
                        1026 ..lin.D.3A.5CRenesas_Electronics.5CD1x_RGL.5Crgl_ghs_D1Lx_obj_V1.2E2.2E0.5Cvlib.5Capp.5Cgfx_apps.5Csimple_draw_d1l2.5Ctarget.5Cd1lx_mango_ghs.5Cobj.5Cr_cdi_memory.29::
                        1027 .LDWlin29:
0000026c 08fd           1028 	sld.w	16[ep],lp
                        1029 --394:         addr = 0u;
0000026e 0072           1030 	mov	0,r14
                        1031 --395:         i = *nextBlock;
00000270 295f0100       1032 	ld.w	0[r9],r11
                        1033 --396:         while (i != ((*nextBlock) - 1)) 
00000274 80076202*      1034 	br	.L582
                        1035 .L584:
                        1036 --397:         {
                        1037 --398:             if (*nextBlock == 0u) 
                        1038 --line398
                        1039 ..lin.D.3A.5CRenesas_Electronics.5CD1x_RGL.5Crgl_ghs_D1Lx_obj_V1.2E2.2E0.5Cvlib.5Capp.5Cgfx_apps.5Csimple_draw_d1l2.5Ctarget.5Cd1lx_mango_ghs.5Cobj.5Cr_cdi_memory.30::
                        1040 .LDWlin30:
00000278 ff4760f9       1041 	pushsp	lp-lp
0000027c 29ff0100       1042 	ld.w	0[r9],lp
00000280 e0f9           1043 	cmp	zero,lp
00000282 ff6760f9       1044 	popsp	lp-lp
00000286 aa0d*          1045 	bne	.L585
                        1046 --399:             {
                        1047 --400:                 if (i == (lochpmng->NbOfBlock - 1)) 
                        1048 --line400
                        1049 ..lin.D.3A.5CRenesas_Electronics.5CD1x_RGL.5Crgl_ghs_D1Lx_obj_V1.2E2.2E0.5Cvlib.5Capp.5Cgfx_apps.5Csimple_draw_d1l2.5Ctarget.5Cd1lx_mango_ghs.5Cobj.5Cr_cdi_memory.31::
                        1050 .LDWlin31:
00000288 ff4760f9       1051 	pushsp	lp-lp
0000028c 02fd           1052 	sld.w	4[ep],lp
0000028e 5ffa           1053 	add	-1,lp
00000290 ff59           1054 	cmp	lp,r11
00000292 ff6760f9       1055 	popsp	lp-lp
00000296 aa05*          1056 	bne	.L585
                        1057 --401:                 {
                        1058 --402:                     leave = 1u; 
                        1059 --line402
                        1060 ..lin.D.3A.5CRenesas_Electronics.5CD1x_RGL.5Crgl_ghs_D1Lx_obj_V1.2E2.2E0.5Cvlib.5Capp.5Cgfx_apps.5Csimple_draw_d1l2.5Ctarget.5Cd1lx_mango_ghs.5Cobj.5Cr_cdi_memory.32::
                        1061 .LDWlin32:
00000298 0142           1062 	mov	1,r8
                        1063 .L585:
                        1064 --403:                 }
                        1065 --404:             }
                        1066 --405:             if (0u == leave) 
0000029a e041           1067 	cmp	zero,r8
0000029c ea073502*      1068 	bne	.L589
                        1069 --406:             {
                        1070 --407:                 if (*(locblkindexlist + i ) == 0u) 
                        1071 --line407
                        1072 ..lin.D.3A.5CRenesas_Electronics.5CD1x_RGL.5Crgl_ghs_D1Lx_obj_V1.2E2.2E0.5Cvlib.5Capp.5Cgfx_apps.5Csimple_draw_d1l2.5Ctarget.5Cd1lx_mango_ghs.5Cobj.5Cr_cdi_memory.33::
                        1073 .LDWlin33:
000002a0 635f1500       1074 	st.w	r11,20[sp]
000002a4 ff4760f9       1075 	pushsp	lp-lp
000002a8 23ff1900       1076 	ld.w	24[sp],lp
000002ac c1fa           1077 	shl	1,lp
000002ae 63ff1900       1078 	st.w	lp,24[sp]

                                                                      Page 19
                                                              C:\Users\YINGAO~1\AppData\Local\Temp\gh_000080o1.si
000002b2 ff6760f9       1079 	popsp	lp-lp
000002b6 fe4760f9       1080 	pushsp	ep-lp
000002ba 23f71d00       1081 	ld.w	28[sp],ep
000002be dff1           1082 	add	lp,ep
000002c0 70f8           1083 	sld.hu	0[ep],lp
000002c2 e0f9           1084 	cmp	zero,lp
000002c4 fe6760f9       1085 	popsp	ep-lp
000002c8 fa05*          1086 	bne	.L591
                        1087 --408:                 {
                        1088 --409:                     if (adjfreeblk == 0u) 
                        1089 --line409
                        1090 ..lin.D.3A.5CRenesas_Electronics.5CD1x_RGL.5Crgl_ghs_D1Lx_obj_V1.2E2.2E0.5Cvlib.5Capp.5Cgfx_apps.5Csimple_draw_d1l2.5Ctarget.5Cd1lx_mango_ghs.5Cobj.5Cr_cdi_memory.34::
                        1091 .LDWlin34:
000002ca e069           1092 	cmp	zero,r13
000002cc ba05*          1093 	bne	.L593
                        1094 --410:                     {
                        1095 --411:                         startblk = i;
                        1096 --line411
                        1097 ..lin.D.3A.5CRenesas_Electronics.5CD1x_RGL.5Crgl_ghs_D1Lx_obj_V1.2E2.2E0.5Cvlib.5Capp.5Cgfx_apps.5Csimple_draw_d1l2.5Ctarget.5Cd1lx_mango_ghs.5Cobj.5Cr_cdi_memory.35::
                        1098 .LDWlin35:
000002ce cb0effff       1099 	andi	65535,r11,r1
                        1100 .L593:
                        1101 --412:                     }
                        1102 --413:                     adjfreeblk++;
000002d2 416a           1103 	add	1,r13
000002d4 b505*          1104 	br	.L595
                        1105 .L591:
                        1106 --414:                 } 
                        1107 --415:                 else 
                        1108 --416:                 {
                        1109 --417:                     adjfreeblk = 0u;
                        1110 --line417
                        1111 ..lin.D.3A.5CRenesas_Electronics.5CD1x_RGL.5Crgl_ghs_D1Lx_obj_V1.2E2.2E0.5Cvlib.5Capp.5Cgfx_apps.5Csimple_draw_d1l2.5Ctarget.5Cd1lx_mango_ghs.5Cobj.5Cr_cdi_memory.36::
                        1112 .LDWlin36:
000002d6 006a           1113 	mov	0,r13
                        1114 --418:                     startblk   = 0u;
000002d8 000a           1115 	mov	0,r1
                        1116 .L595:
                        1117 --419:                 }
                        1118 --420:     
                        1119 --421:                 /* When n free adjacent block are found, all blocks' status are set to used */
                        1120 --422:                 /* Start address is then returned */
                        1121 --423:                 if (adjfreeblk == allocnbblk) 
000002da fd69           1122 	cmp	r29,r13
000002dc ea07ab01*      1123 	bne	.L596
                        1124 --424:                 {
                        1125 --425:                     /* If there are blocks before and/or after the current block to be allocated,
                        1126 --426:                        check their indices and adapt the current block index if necessary. */
                        1127 --427:                     /* We don't need to check for a previous block, if we are at the start of the list */
                        1128 --428:                     if (startblk > 0)
                        1129 --line428
                        1130 ..lin.D.3A.5CRenesas_Electronics.5CD1x_RGL.5Crgl_ghs_D1Lx_obj_V1.2E2.2E0.5Cvlib.5Capp.5Cgfx_apps.5Csimple_draw_d1l2.5Ctarget.5Cd1lx_mango_ghs.5Cobj.5Cr_cdi_memory.37::
                        1131 .LDWlin37:
000002e0 e009           1132 	cmp	zero,r1
000002e2 8315*          1133 	bnh	.L598
                        1134 --429:                     {
                        1135 --430:                         prevBlkIndex = *(lochpmng->BlockIndexList + (startblk - 1));
                        1136 --line430
                        1137 ..lin.D.3A.5CRenesas_Electronics.5CD1x_RGL.5Crgl_ghs_D1Lx_obj_V1.2E2.2E0.5Cvlib.5Capp.5Cgfx_apps.5Csimple_draw_d1l2.5Ctarget.5Cd1lx_mango_ghs.5Cobj.5Cr_cdi_memory.38::
                        1138 .LDWlin38:
000002e4 01deffff       1139 	addi	-1,r1,r27

                                                                      Page 20
                                                              C:\Users\YINGAO~1\AppData\Local\Temp\gh_000080o1.si
000002e8 c1da           1140 	shl	1,r27
000002ea 63df0d00       1141 	st.w	r27,12[sp]
000002ee 08dd           1142 	sld.w	16[ep],r27
000002f0 ff4760f9       1143 	pushsp	lp-lp
000002f4 23ff1100       1144 	ld.w	16[sp],lp
000002f8 dbf9           1145 	add	r27,lp
000002fa ffdf0100       1146 	ld.hu	0[lp],r27
000002fe ff6760f9       1147 	popsp	lp-lp
                        1148 .L598:
                        1149 --431:                     }
                        1150 --432:                     /* We don't need to check for a next block, if we are at the end of the list */
                        1151 --433:                     if ((startblk + adjfreeblk) < lochpmng->NbOfBlock)
00000302 636f0d00       1152 	st.w	r13,12[sp]
00000306 ff4760f9       1153 	pushsp	lp-lp
0000030a 23ff1100       1154 	ld.w	16[sp],lp
0000030e c1f9           1155 	add	r1,lp
00000310 63ff1100       1156 	st.w	lp,16[sp]
00000314 02fd           1157 	sld.w	4[ep],lp
00000316 fe4760f1       1158 	pushsp	ep-ep
0000031a 23f71500       1159 	ld.w	20[sp],ep
0000031e fff1           1160 	cmp	lp,ep
00000320 fe6760f1       1161 	popsp	ep-ep
00000324 ff6760f9       1162 	popsp	lp-lp
00000328 8915*          1163 	bnl	.L600
                        1164 --434:                     {
                        1165 --435:                         nextBlkIndex = *(lochpmng->BlockIndexList + (startblk + adjfreeblk));
                        1166 --line435
                        1167 ..lin.D.3A.5CRenesas_Electronics.5CD1x_RGL.5Crgl_ghs_D1Lx_obj_V1.2E2.2E0.5Cvlib.5Capp.5Cgfx_apps.5Csimple_draw_d1l2.5Ctarget.5Cd1lx_mango_ghs.5Cobj.5Cr_cdi_memory.39::
                        1168 .LDWlin39:
0000032a 0dd0           1169 	mov	r13,r26
0000032c c1d1           1170 	add	r1,r26
0000032e c1d2           1171 	shl	1,r26
00000330 63d70d00       1172 	st.w	r26,12[sp]
00000334 08d5           1173 	sld.w	16[ep],r26
00000336 ff4760f9       1174 	pushsp	lp-lp
0000033a 23ff1100       1175 	ld.w	16[sp],lp
0000033e daf9           1176 	add	r26,lp
00000340 ffd70100       1177 	ld.hu	0[lp],r26
00000344 ff6760f9       1178 	popsp	lp-lp
                        1179 .L600:
                        1180 --436:                     }
                        1181 --437:                     
                        1182 --438:                     /* Increment the index to be used for allocation if it is already used by the 
                        1183 --439:                        neighboring blocks */  /* This loop will be executed two times at maximum */
                        1184 --440:                     while ( ((*currentindex) == prevBlkIndex) || ((*currentindex) == nextBlkIndex) )
00000348 951d*          1185 	br	.L602
                        1186 .L604:
                        1187 --441:                     {
                        1188 --442:                         (*currentindex)++;
                        1189 --line442
                        1190 ..lin.D.3A.5CRenesas_Electronics.5CD1x_RGL.5Crgl_ghs_D1Lx_obj_V1.2E2.2E0.5Cvlib.5Capp.5Cgfx_apps.5Csimple_draw_d1l2.5Ctarget.5Cd1lx_mango_ghs.5Cobj.5Cr_cdi_memory.40::
                        1191 .LDWlin40:
0000034a ff4760f9       1192 	pushsp	lp-lp
0000034e ecff0100       1193 	ld.hu	0[r12],lp
00000352 41fa           1194 	add	1,lp
00000354 6cff0000       1195 	st.h	lp,0[r12]
00000358 ff6760f9       1196 	popsp	lp-lp
                        1197 --443:                         if ( 0 == (*currentindex))
0000035c ff4760f9       1198 	pushsp	lp-lp
00000360 ecff0100       1199 	ld.hu	0[r12],lp
00000364 e0f9           1200 	cmp	zero,lp

                                                                      Page 21
                                                              C:\Users\YINGAO~1\AppData\Local\Temp\gh_000080o1.si
00000366 ff6760f9       1201 	popsp	lp-lp
0000036a 8a0d*          1202 	bne	.L602
                        1203 --444:                         {
                        1204 --445:                             (*currentindex) = 1;
                        1205 --line445
                        1206 ..lin.D.3A.5CRenesas_Electronics.5CD1x_RGL.5Crgl_ghs_D1Lx_obj_V1.2E2.2E0.5Cvlib.5Capp.5Cgfx_apps.5Csimple_draw_d1l2.5Ctarget.5Cd1lx_mango_ghs.5Cobj.5Cr_cdi_memory.41::
                        1207 .LDWlin41:
0000036c ff4760f9       1208 	pushsp	lp-lp
00000370 01fa           1209 	mov	1,lp
00000372 6cff0000       1210 	st.h	lp,0[r12]
00000376 ff6760f9       1211 	popsp	lp-lp
                        1212 .L602:
0000037a ff4760f9       1213 	pushsp	lp-lp
0000037e ecff0100       1214 	ld.hu	0[r12],lp
00000382 fbf9           1215 	cmp	r27,lp
00000384 ff6760f9       1216 	popsp	lp-lp
00000388 92e5*          1217 	be	.L604
0000038a ff4760f9       1218 	pushsp	lp-lp
0000038e ecff0100       1219 	ld.hu	0[r12],lp
00000392 faf9           1220 	cmp	r26,lp
00000394 ff6760f9       1221 	popsp	lp-lp
00000398 92dd*          1222 	be	.L604
                        1223 --446:                         }
                        1224 --447:                     }
                        1225 --448:                     
                        1226 --449:                     /* Calculate address of allocated memory */
                        1227 --450:                     addr = lochpmng->BaseAddr + (startblk * lochpmng->BlockSize);
                        1228 --line450
                        1229 ..lin.D.3A.5CRenesas_Electronics.5CD1x_RGL.5Crgl_ghs_D1Lx_obj_V1.2E2.2E0.5Cvlib.5Capp.5Cgfx_apps.5Csimple_draw_d1l2.5Ctarget.5Cd1lx_mango_ghs.5Cobj.5Cr_cdi_memory.42::
                        1230 .LDWlin42:
0000039a 0475           1231 	sld.w	8[ep],r14
0000039c 630f1500       1232 	st.w	r1,20[sp]
000003a0 ff4760f9       1233 	pushsp	lp-lp
000003a4 23ff1900       1234 	ld.w	24[sp],lp
000003a8 eeff2202       1235 	mulu	r14,lp,zero
000003ac 63ff1900       1236 	st.w	lp,24[sp]
000003b0 ff6760f9       1237 	popsp	lp-lp
000003b4 23771500       1238 	ld.w	20[sp],r14
000003b8 63770d00       1239 	st.w	r14,12[sp]
000003bc 0075           1240 	sld.w	0[ep],r14
000003be 63771500       1241 	st.w	r14,20[sp]
000003c2 23770d00       1242 	ld.w	12[sp],r14
000003c6 ff4760f9       1243 	pushsp	lp-lp
000003ca 23ff1900       1244 	ld.w	24[sp],lp
000003ce df71           1245 	add	lp,r14
000003d0 ff6760f9       1246 	popsp	lp-lp
                        1247 --451:                     /* For the blocks that have been found to be free by above searching pass, 
                        1248 --452:                        allocate them for this operation by writing the current block index into them. */
                        1249 --453:                     while(adjfreeblk != 0u) 
000003d4 b525*          1250 	br	.L608
                        1251 .L610:
                        1252 --454:                     {
                        1253 --455:                         *(lochpmng->BlockIndexList + startblk) = *currentindex;
                        1254 --line455
                        1255 ..lin.D.3A.5CRenesas_Electronics.5CD1x_RGL.5Crgl_ghs_D1Lx_obj_V1.2E2.2E0.5Cvlib.5Capp.5Cgfx_apps.5Csimple_draw_d1l2.5Ctarget.5Cd1lx_mango_ghs.5Cobj.5Cr_cdi_memory.43::
                        1256 .LDWlin43:
000003d6 630f1500       1257 	st.w	r1,20[sp]
000003da ff4760f9       1258 	pushsp	lp-lp
000003de 23ff1900       1259 	ld.w	24[sp],lp
000003e2 c1fa           1260 	shl	1,lp
000003e4 63ff1100       1261 	st.w	lp,16[sp]

                                                                      Page 22
                                                              C:\Users\YINGAO~1\AppData\Local\Temp\gh_000080o1.si
000003e8 08fd           1262 	sld.w	16[ep],lp
000003ea fe4760f1       1263 	pushsp	ep-ep
000003ee 23f71500       1264 	ld.w	20[sp],ep
000003f2 dff1           1265 	add	lp,ep
000003f4 ecff0100       1266 	ld.hu	0[r12],lp
000003f8 80fc           1267 	sst.h	lp,0[ep]
000003fa fe6760f1       1268 	popsp	ep-ep
000003fe ff6760f9       1269 	popsp	lp-lp
                        1270 --456:                         startblk++;
00000402 410a           1271 	add	1,r1
00000404 c100           1272 	zxh	r1
                        1273 --457:                         adjfreeblk--;
00000406 5f6a           1274 	add	-1,r13
                        1275 --458:                         (*freeCount)--;
00000408 ff4760f9       1276 	pushsp	lp-lp
0000040c 2aff0100       1277 	ld.w	0[r10],lp
00000410 5ffa           1278 	add	-1,lp
00000412 6aff0100       1279 	st.w	lp,0[r10]
00000416 ff6760f9       1280 	popsp	lp-lp
                        1281 .L608:
0000041a e069           1282 	cmp	zero,r13
0000041c dadd*          1283 	bne	.L610
                        1284 --459:                     }
                        1285 --460:                     
                        1286 --461:                     /* Increment index for next allocation operation. 
                        1287 --462:                        In case of an overflow, set index to 1, as zero is reserved for empty blocks. */
                        1288 --463:                     (*currentindex)++;
                        1289 --line463
                        1290 ..lin.D.3A.5CRenesas_Electronics.5CD1x_RGL.5Crgl_ghs_D1Lx_obj_V1.2E2.2E0.5Cvlib.5Capp.5Cgfx_apps.5Csimple_draw_d1l2.5Ctarget.5Cd1lx_mango_ghs.5Cobj.5Cr_cdi_memory.44::
                        1291 .LDWlin44:
0000041e ff4760f9       1292 	pushsp	lp-lp
00000422 ecff0100       1293 	ld.hu	0[r12],lp
00000426 41fa           1294 	add	1,lp
00000428 6cff0000       1295 	st.h	lp,0[r12]
0000042c ff6760f9       1296 	popsp	lp-lp
                        1297 --464:                     if ( 0 == (*currentindex))
00000430 ff4760f9       1298 	pushsp	lp-lp
00000434 ecff0100       1299 	ld.hu	0[r12],lp
00000438 e0f9           1300 	cmp	zero,lp
0000043a ff6760f9       1301 	popsp	lp-lp
0000043e 8a0d*          1302 	bne	.L611
                        1303 --465:                     {
                        1304 --466:                         (*currentindex) = 1;
                        1305 --line466
                        1306 ..lin.D.3A.5CRenesas_Electronics.5CD1x_RGL.5Crgl_ghs_D1Lx_obj_V1.2E2.2E0.5Cvlib.5Capp.5Cgfx_apps.5Csimple_draw_d1l2.5Ctarget.5Cd1lx_mango_ghs.5Cobj.5Cr_cdi_memory.45::
                        1307 .LDWlin45:
00000440 ff4760f9       1308 	pushsp	lp-lp
00000444 01fa           1309 	mov	1,lp
00000446 6cff0000       1310 	st.h	lp,0[r12]
0000044a ff6760f9       1311 	popsp	lp-lp
                        1312 .L611:
                        1313 --467:                     }
                        1314 --468:                     
                        1315 --469:                     (*nextBlock) = startblk  % lochpmng->NbOfBlock;
0000044e 630f0d00       1316 	st.w	r1,12[sp]
00000452 ff4760f9       1317 	pushsp	lp-lp
00000456 02fd           1318 	sld.w	4[ep],lp
00000458 63ff1900       1319 	st.w	lp,24[sp]
0000045c fe4760f1       1320 	pushsp	ep-ep
00000460 23f71500       1321 	ld.w	20[sp],ep
00000464 fd4760e9       1322 	pushsp	r29-r29

                                                                      Page 23
                                                              C:\Users\YINGAO~1\AppData\Local\Temp\gh_000080o1.si
00000468 fff7feea       1323 	divqu	lp,ep,r29
0000046c 63ef2100       1324 	st.w	r29,32[sp]
00000470 fd6760e9       1325 	popsp	r29-r29
00000474 fe6760f1       1326 	popsp	ep-ep
00000478 23ff1900       1327 	ld.w	24[sp],lp
0000047c 69ff0100       1328 	st.w	lp,0[r9]
00000480 ff6760f9       1329 	popsp	lp-lp
                        1330 --470:                     leave = 1u; 
00000484 0142           1331 	mov	1,r8
                        1332 .L596:
                        1333 --471:                 }
                        1334 --472:                 
                        1335 --473:                 if (0u == leave) 
00000486 e041           1336 	cmp	zero,r8
00000488 ca25*          1337 	bne	.L589
                        1338 --474:                 {    
                        1339 --475:                     i = (i + 1) % lochpmng->NbOfBlock;
                        1340 --line475
                        1341 ..lin.D.3A.5CRenesas_Electronics.5CD1x_RGL.5Crgl_ghs_D1Lx_obj_V1.2E2.2E0.5Cvlib.5Capp.5Cgfx_apps.5Csimple_draw_d1l2.5Ctarget.5Cd1lx_mango_ghs.5Cobj.5Cr_cdi_memory.46::
                        1342 .LDWlin46:
0000048a ff4760f9       1343 	pushsp	lp-lp
0000048e 0bfe0100       1344 	addi	1,r11,lp
00000492 63ff1900       1345 	st.w	lp,24[sp]
00000496 ff6760f9       1346 	popsp	lp-lp
0000049a 235f1500       1347 	ld.w	20[sp],r11
0000049e 635f0d00       1348 	st.w	r11,12[sp]
000004a2 025d           1349 	sld.w	4[ep],r11
000004a4 635f1500       1350 	st.w	r11,20[sp]
000004a8 ff4760f9       1351 	pushsp	lp-lp
000004ac 23ff1100       1352 	ld.w	16[sp],lp
000004b0 fe4760f1       1353 	pushsp	ep-ep
000004b4 ebfffef2       1354 	divqu	r11,lp,ep
000004b8 63f71d00       1355 	st.w	ep,28[sp]
000004bc fe6760f1       1356 	popsp	ep-ep
000004c0 ff6760f9       1357 	popsp	lp-lp
000004c4 235f1500       1358 	ld.w	20[sp],r11
                        1359 --476:                     if(i == 0u) 
000004c8 e059           1360 	cmp	zero,r11
000004ca ba05*          1361 	bne	.L589
                        1362 --477:                     {
                        1363 --478:                         /* we are back to the beginning of the heap */
                        1364 --479:                         /* then reset the startblock and the adjfreeblk variable*/
                        1365 --480:                         /* We do not want to have an allocation divided
                        1366 --481:                            between the end and the start of the heap */
                        1367 --482:                         
                        1368 --483:                         adjfreeblk = 0u;
                        1369 --line483
                        1370 ..lin.D.3A.5CRenesas_Electronics.5CD1x_RGL.5Crgl_ghs_D1Lx_obj_V1.2E2.2E0.5Cvlib.5Capp.5Cgfx_apps.5Csimple_draw_d1l2.5Ctarget.5Cd1lx_mango_ghs.5Cobj.5Cr_cdi_memory.47::
                        1371 .LDWlin47:
000004cc 006a           1372 	mov	0,r13
                        1373 --484:                         startblk   = 0u;
000004ce 000a           1374 	mov	0,r1
                        1375 .L589:
                        1376 --485:                     }
                        1377 --486:                 }
                        1378 --487:             } /* end: if (0u == leave)*/
                        1379 --488:             
                        1380 --489:             /* check for break conditions */
                        1381 --490:             if (0 != leave) 
000004d0 e041           1382 	cmp	zero,r8
000004d2 a205*          1383 	be	.L582

                                                                      Page 24
                                                              C:\Users\YINGAO~1\AppData\Local\Temp\gh_000080o1.si
                        1384 --491:             {
                        1385 --492:                 break; 
                        1386 --line492
                        1387 ..lin.D.3A.5CRenesas_Electronics.5CD1x_RGL.5Crgl_ghs_D1Lx_obj_V1.2E2.2E0.5Cvlib.5Capp.5Cgfx_apps.5Csimple_draw_d1l2.5Ctarget.5Cd1lx_mango_ghs.5Cobj.5Cr_cdi_memory.48::
                        1388 .LDWlin48:
000004d4 b50d*          1389 	br	.L580
                        1390 .L582:
                        1391 --line396
                        1392 ..lin.D.3A.5CRenesas_Electronics.5CD1x_RGL.5Crgl_ghs_D1Lx_obj_V1.2E2.2E0.5Cvlib.5Capp.5Cgfx_apps.5Csimple_draw_d1l2.5Ctarget.5Cd1lx_mango_ghs.5Cobj.5Cr_cdi_memory.49::
                        1393 .LDWlin49:
000004d6 ff4760f9       1394 	pushsp	lp-lp
000004da 29ff0100       1395 	ld.w	0[r9],lp
000004de 5ffa           1396 	add	-1,lp
000004e0 ff59           1397 	cmp	lp,r11
000004e2 ff6760f9       1398 	popsp	lp-lp
000004e6 fa0793fd*      1399 	bne	.L584
                        1400 .L580:
                        1401 --493:             } 
                        1402 --494:         } /* end: while (i != ((*nextBlock) - 1))  */
                        1403 --495:     }
                        1404 --498:     
                        1405 --499: #ifdef MEM_DEBUG    
                        1406 --500:     /*  debug code to make a breakpoint32_t on out of memory possible */
                        1407 --501:     if(!addr)
                        1408 --502:     {
                        1409 --503:       if(type==VIDEO)
                        1410 --504:       {
                        1411 --505:         addr = 0u; /* break here */
                        1412 --506:       }
                        1413 --507:     }
                        1414 --508: #endif
                        1415 --509: #ifdef USE_ROS
                        1416 --510:     R_OS_ThreadMutexUnlock(&locCdiMemLock);
                        1417 --511: #endif
                        1418 --512:     return addr;
                        1419 --line512
                        1420 ..lin.D.3A.5CRenesas_Electronics.5CD1x_RGL.5Crgl_ghs_D1Lx_obj_V1.2E2.2E0.5Cvlib.5Capp.5Cgfx_apps.5Csimple_draw_d1l2.5Ctarget.5Cd1lx_mango_ghs.5Cobj.5Cr_cdi_memory.50::
                        1421 .LDWlin50:
000004ea 0000           1422 	nop
                        1423 --	    .ef
                        1424 .LDW52:
000004ec 0e50           1425 	mov	r14,r10
000004ee 4c06ff70       1426 	dispose	6,{r25,r26,r27,r28,r29,r31},[lp]
                        1427 	.type	_R_CDI_HeapAlloc,@function
                        1428 	.size	_R_CDI_HeapAlloc,.-_R_CDI_HeapAlloc
                        1429 	.align	2
                        1430 .LDW62:
                        1431 --_addr	r14	local
                        1432 --_allocnbblk	r29	local
                        1433 --_adjfreeblk	r13	local
                        1434 --_tmp	r28	local
                        1435 --_i	r11	local
                        1436 --_lochpmng	ep	local
                        1437 --_locblkindexlist	lp	local
                        1438 --_startblk	r1	local
                        1439 --_currentindex	r12	local
                        1440 --_freeCount	r10	local
                        1441 --_nextBlock	r9	local
                        1442 --_leave	r8	local
                        1443 --_prevBlkIndex	r27	local
                        1444 --_nextBlkIndex	r26	local

                                                                      Page 25
                                                              C:\Users\YINGAO~1\AppData\Local\Temp\gh_000080o1.si
                        1445 
                        1446 --_size	16[sp]	param
                        1447 --_type	r25	param
                        1448 
                        1449 	.data
                        1450 	.text
                        1451 
                        1452 --513: }
                        1453 
                        1454 --517: /*******************************************************************************
                        1455 --518:  Function: R_CDI_Alloc
                        1456 --519: */
                        1457 --520: void * R_CDI_Alloc(r_cdi_Heap_t *HeapMng, uint32_t Size)
                        1458 	.align	2
                        1459 	.align	2
                        1460 	.global	_R_CDI_Alloc
                        1461 _R_CDI_Alloc:
000004f2 8607e170       1462 	prepare	{r25,r26,r27,r28,r29,r31},3
000004f6 0650           1463 	mov	r6,r10
000004f8 07f8           1464 	mov	r7,lp
                        1465 --	    .bf
                        1466 .LDW72:
                        1467 --521: {
                        1468 --522:     uint32_t            addr           = 1u;
000004fa 010a           1469 	mov	1,r1
                        1470 --523:     uint32_t            allocNbBlocks  = 0u;
000004fc 0042           1471 	mov	0,r8
                        1472 --524:     uint32_t            adjfreeblk     = 0u;
000004fe 006a           1473 	mov	0,r13
                        1474 --525:     int32_t             tmp;
                        1475 --526:     uint32_t            i;
                        1476 --527:     r_cdi_Heap_t       *lochpmng;
                        1477 --528:     r_cdi_HpBlkIndex_t  *locblkindexlist;
                        1478 --529:     r_cdi_HpBlkIndex_t  startblk;
                        1479 --530:     r_cdi_HpBlkIndex_t *currentindex;
                        1480 --531:     r_cdi_HpBlkIndex_t *freeCount;
                        1481 --532:     r_cdi_HpBlkIndex_t *nextBlock;
                        1482 --533:     uint8_t             leave = 0u; 
00000500 004a           1483 	mov	0,r9
                        1484 --534:     r_cdi_HpBlkIndex_t prevBlkIndex = 0;
00000502 00d2           1485 	mov	0,r26
                        1486 --535:     r_cdi_HpBlkIndex_t nextBlkIndex = 0;
00000504 00ca           1487 	mov	0,r25
                        1488 --536:     
                        1489 --537: #ifdef USE_ROS
                        1490 --538:     R_OS_ThreadMutexLock(&locCdiMemLock);
                        1491 --539: #endif
                        1492 --540:     if(0 != HeapMng->BaseAddr)
00000506 2a770100       1493 	ld.w	0[r10],r14
0000050a e071           1494 	cmp	zero,r14
0000050c 920d*          1495 	be	.L1060
                        1496 --541:     {
                        1497 --542:         lochpmng        = HeapMng;
                        1498 --line542
                        1499 ..lin.D.3A.5CRenesas_Electronics.5CD1x_RGL.5Crgl_ghs_D1Lx_obj_V1.2E2.2E0.5Cvlib.5Capp.5Cgfx_apps.5Csimple_draw_d1l2.5Ctarget.5Cd1lx_mango_ghs.5Cobj.5Cr_cdi_memory.51::
                        1500 .LDWlin51:
0000050e 0af0           1501 	mov	r10,ep
                        1502 --543:         currentindex    = &(HeapMng->NextBlockIdx);
00000510 0a661000       1503 	addi	16,r10,r12
                        1504 --544:         freeCount       = &(HeapMng->FreeBlocks);
00000514 0ae61200       1505 	addi	18,r10,r28

                                                                      Page 26
                                                              C:\Users\YINGAO~1\AppData\Local\Temp\gh_000080o1.si
                        1506 --545:         nextBlock       = &(HeapMng->NextFreeBlockNb);
00000518 0ade1400       1507 	addi	20,r10,r27
0000051c a505*          1508 	br	.L1062
                        1509 .L1060:
                        1510 --546:     } 
                        1511 --547:     else 
                        1512 --548:     {
                        1513 --549:         addr = 0u;
                        1514 --line549
                        1515 ..lin.D.3A.5CRenesas_Electronics.5CD1x_RGL.5Crgl_ghs_D1Lx_obj_V1.2E2.2E0.5Cvlib.5Capp.5Cgfx_apps.5Csimple_draw_d1l2.5Ctarget.5Cd1lx_mango_ghs.5Cobj.5Cr_cdi_memory.52::
                        1516 .LDWlin52:
0000051e 000a           1517 	mov	0,r1
                        1518 .L1062:
                        1519 --550:     }
                        1520 --551:     if((*freeCount) <= 0)
00000520 fc770100       1521 	ld.hu	0[r28],r14
00000524 e071           1522 	cmp	zero,r14
00000526 aa05*          1523 	bne	.L1063
                        1524 --552:     {
                        1525 --553:         addr = 0u;
                        1526 --line553
                        1527 ..lin.D.3A.5CRenesas_Electronics.5CD1x_RGL.5Crgl_ghs_D1Lx_obj_V1.2E2.2E0.5Cvlib.5Capp.5Cgfx_apps.5Csimple_draw_d1l2.5Ctarget.5Cd1lx_mango_ghs.5Cobj.5Cr_cdi_memory.53::
                        1528 .LDWlin53:
00000528 000a           1529 	mov	0,r1
                        1530 .L1063:
                        1531 --554:     }
                        1532 --555:     
                        1533 --556:     if (0 == Size)
0000052a e0f9           1534 	cmp	zero,lp
0000052c aa05*          1535 	bne	.L1065
                        1536 --557:     {
                        1537 --558:         addr = 0u;
                        1538 --line558
                        1539 ..lin.D.3A.5CRenesas_Electronics.5CD1x_RGL.5Crgl_ghs_D1Lx_obj_V1.2E2.2E0.5Cvlib.5Capp.5Cgfx_apps.5Csimple_draw_d1l2.5Ctarget.5Cd1lx_mango_ghs.5Cobj.5Cr_cdi_memory.54::
                        1540 .LDWlin54:
0000052e 000a           1541 	mov	0,r1
                        1542 .L1065:
                        1543 --559:     }
                        1544 --560:     
                        1545 --561:     /* Calculate number of required blocks*/
                        1546 --562:     if (addr != 0u)
00000530 e009           1547 	cmp	zero,r1
00000532 d20d*          1548 	be	.L1067
                        1549 --563:     {
                        1550 --564:         tmp = Size;
                        1551 --line564
                        1552 ..lin.D.3A.5CRenesas_Electronics.5CD1x_RGL.5Crgl_ghs_D1Lx_obj_V1.2E2.2E0.5Cvlib.5Capp.5Cgfx_apps.5Csimple_draw_d1l2.5Ctarget.5Cd1lx_mango_ghs.5Cobj.5Cr_cdi_memory.55::
                        1553 .LDWlin55:
00000534 1fe8           1554 	mov	lp,r29
                        1555 --565:         /* calculate number of blocks needed*/
                        1556 --566:         while (tmp > 0)
00000536 c505*          1557 	br	.L1069
                        1558 .L1071:
                        1559 --567:         {
                        1560 --568:             allocNbBlocks++;
                        1561 --line568
                        1562 ..lin.D.3A.5CRenesas_Electronics.5CD1x_RGL.5Crgl_ghs_D1Lx_obj_V1.2E2.2E0.5Cvlib.5Capp.5Cgfx_apps.5Csimple_draw_d1l2.5Ctarget.5Cd1lx_mango_ghs.5Cobj.5Cr_cdi_memory.56::
                        1563 .LDWlin56:
00000538 4142           1564 	add	1,r8
                        1565 --569:             tmp -= lochpmng->BlockSize;
0000053a 0475           1566 	sld.w	8[ep],r14

                                                                      Page 27
                                                              C:\Users\YINGAO~1\AppData\Local\Temp\gh_000080o1.si
0000053c aee9           1567 	sub	r14,r29
                        1568 .L1069:
0000053e e0e9           1569 	cmp	zero,r29
00000540 cffd*          1570 	bgt	.L1071
                        1571 --570:         }
                        1572 --571:         /* if not enough blocks left */
                        1573 --572:         if((*freeCount) <= allocNbBlocks)
                        1574 --line572
                        1575 ..lin.D.3A.5CRenesas_Electronics.5CD1x_RGL.5Crgl_ghs_D1Lx_obj_V1.2E2.2E0.5Cvlib.5Capp.5Cgfx_apps.5Csimple_draw_d1l2.5Ctarget.5Cd1lx_mango_ghs.5Cobj.5Cr_cdi_memory.57::
                        1576 .LDWlin57:
00000542 fc770100       1577 	ld.hu	0[r28],r14
00000546 e871           1578 	cmp	r8,r14
00000548 ab05*          1579 	bh	.L1067
                        1580 --573:         {
                        1581 --574:             addr = 0u;
                        1582 --line574
                        1583 ..lin.D.3A.5CRenesas_Electronics.5CD1x_RGL.5Crgl_ghs_D1Lx_obj_V1.2E2.2E0.5Cvlib.5Capp.5Cgfx_apps.5Csimple_draw_d1l2.5Ctarget.5Cd1lx_mango_ghs.5Cobj.5Cr_cdi_memory.58::
                        1584 .LDWlin58:
0000054a 000a           1585 	mov	0,r1
                        1586 .L1067:
                        1587 --575:         }
                        1588 --576:     }
                        1589 --577:     
                        1590 --578:     if(addr != 0u) 
0000054c e009           1591 	cmp	zero,r1
0000054e e2079502*      1592 	be	.L1074
                        1593 --579:     {
                        1594 --580:         /* Search for n free adjacent blocks */
                        1595 --581:         locblkindexlist = lochpmng->BlockIdxList;
                        1596 --line581
                        1597 ..lin.D.3A.5CRenesas_Electronics.5CD1x_RGL.5Crgl_ghs_D1Lx_obj_V1.2E2.2E0.5Cvlib.5Capp.5Cgfx_apps.5Csimple_draw_d1l2.5Ctarget.5Cd1lx_mango_ghs.5Cobj.5Cr_cdi_memory.59::
                        1598 .LDWlin59:
00000552 065d           1599 	sld.w	12[ep],r11
00000554 635f0100       1600 	st.w	r11,0[sp]
                        1601 --582:         addr = 0u;
00000558 000a           1602 	mov	0,r1
                        1603 --583:         i = *nextBlock;
0000055a fb5f0100       1604 	ld.hu	0[r27],r11
                        1605 --584:         /* Search through the block index until we are at the starting point again */
                        1606 --585:         while (i != ((*nextBlock) - 1)) 
0000055e 80077002*      1607 	br	.L1076
                        1608 .L1078:
                        1609 --586:         {
                        1610 --587:             /* Special case: When the starting point was zero, stop when we reach the end of the index */
                        1611 --588:             if (*nextBlock == 0u) 
                        1612 --line588
                        1613 ..lin.D.3A.5CRenesas_Electronics.5CD1x_RGL.5Crgl_ghs_D1Lx_obj_V1.2E2.2E0.5Cvlib.5Capp.5Cgfx_apps.5Csimple_draw_d1l2.5Ctarget.5Cd1lx_mango_ghs.5Cobj.5Cr_cdi_memory.60::
                        1614 .LDWlin60:
00000562 ff4760f9       1615 	pushsp	lp-lp
00000566 fbff0100       1616 	ld.hu	0[r27],lp
0000056a e0f9           1617 	cmp	zero,lp
0000056c ff6760f9       1618 	popsp	lp-lp
00000570 aa0d*          1619 	bne	.L1079
                        1620 --589:             {
                        1621 --590:                 if (i == (lochpmng->NbOfBlock - 1)) 
                        1622 --line590
                        1623 ..lin.D.3A.5CRenesas_Electronics.5CD1x_RGL.5Crgl_ghs_D1Lx_obj_V1.2E2.2E0.5Cvlib.5Capp.5Cgfx_apps.5Csimple_draw_d1l2.5Ctarget.5Cd1lx_mango_ghs.5Cobj.5Cr_cdi_memory.61::
                        1624 .LDWlin61:
00000572 ff4760f9       1625 	pushsp	lp-lp
00000576 02fd           1626 	sld.w	4[ep],lp
00000578 5ffa           1627 	add	-1,lp

                                                                      Page 28
                                                              C:\Users\YINGAO~1\AppData\Local\Temp\gh_000080o1.si
0000057a ff59           1628 	cmp	lp,r11
0000057c ff6760f9       1629 	popsp	lp-lp
00000580 aa05*          1630 	bne	.L1079
                        1631 --591:                 {
                        1632 --592:                    leave = 1u; 
                        1633 --line592
                        1634 ..lin.D.3A.5CRenesas_Electronics.5CD1x_RGL.5Crgl_ghs_D1Lx_obj_V1.2E2.2E0.5Cvlib.5Capp.5Cgfx_apps.5Csimple_draw_d1l2.5Ctarget.5Cd1lx_mango_ghs.5Cobj.5Cr_cdi_memory.62::
                        1635 .LDWlin62:
00000582 014a           1636 	mov	1,r9
                        1637 .L1079:
                        1638 --593:                 }
                        1639 --594:             }
                        1640 --595:             if (0u == leave) 
00000584 e049           1641 	cmp	zero,r9
00000586 ea074302*      1642 	bne	.L1083
                        1643 --596:             {
                        1644 --597:                 /* If block index states that the current block is free, take it as starting point */
                        1645 --598:                 /* With the following iterations, check that the adjacent block are also free */
                        1646 --599:                 if (*(locblkindexlist + i ) == 0u) 
                        1647 --line599
                        1648 ..lin.D.3A.5CRenesas_Electronics.5CD1x_RGL.5Crgl_ghs_D1Lx_obj_V1.2E2.2E0.5Cvlib.5Capp.5Cgfx_apps.5Csimple_draw_d1l2.5Ctarget.5Cd1lx_mango_ghs.5Cobj.5Cr_cdi_memory.63::
                        1649 .LDWlin63:
0000058a 635f0900       1650 	st.w	r11,8[sp]
0000058e ff4760f9       1651 	pushsp	lp-lp
00000592 23ff0d00       1652 	ld.w	12[sp],lp
00000596 c1fa           1653 	shl	1,lp
00000598 63ff0d00       1654 	st.w	lp,12[sp]
0000059c 23ff0500       1655 	ld.w	4[sp],lp
000005a0 fe4760f1       1656 	pushsp	ep-ep
000005a4 23f71100       1657 	ld.w	16[sp],ep
000005a8 dff1           1658 	add	lp,ep
000005aa 63f71100       1659 	st.w	ep,16[sp]
000005ae fe6760f1       1660 	popsp	ep-ep
000005b2 23ff0d00       1661 	ld.w	12[sp],lp
000005b6 ffff0100       1662 	ld.hu	0[lp],lp
000005ba e0f9           1663 	cmp	zero,lp
000005bc ff6760f9       1664 	popsp	lp-lp
000005c0 fa05*          1665 	bne	.L1085
                        1666 --600:                 {
                        1667 --601:                     if (adjfreeblk == 0u) 
                        1668 --line601
                        1669 ..lin.D.3A.5CRenesas_Electronics.5CD1x_RGL.5Crgl_ghs_D1Lx_obj_V1.2E2.2E0.5Cvlib.5Capp.5Cgfx_apps.5Csimple_draw_d1l2.5Ctarget.5Cd1lx_mango_ghs.5Cobj.5Cr_cdi_memory.64::
                        1670 .LDWlin64:
000005c2 e069           1671 	cmp	zero,r13
000005c4 ba05*          1672 	bne	.L1087
                        1673 --602:                     {
                        1674 --603:                         startblk = i;
                        1675 --line603
                        1676 ..lin.D.3A.5CRenesas_Electronics.5CD1x_RGL.5Crgl_ghs_D1Lx_obj_V1.2E2.2E0.5Cvlib.5Capp.5Cgfx_apps.5Csimple_draw_d1l2.5Ctarget.5Cd1lx_mango_ghs.5Cobj.5Cr_cdi_memory.65::
                        1677 .LDWlin65:
000005c6 cb76ffff       1678 	andi	65535,r11,r14
                        1679 .L1087:
                        1680 --604:                     }
                        1681 --605:                     adjfreeblk++;
000005ca 416a           1682 	add	1,r13
000005cc b505*          1683 	br	.L1089
                        1684 .L1085:
                        1685 --606:                 } 
                        1686 --607:                 else 
                        1687 --608:                 {
                        1688 --609:                     adjfreeblk = 0u;

                                                                      Page 29
                                                              C:\Users\YINGAO~1\AppData\Local\Temp\gh_000080o1.si
                        1689 --line609
                        1690 ..lin.D.3A.5CRenesas_Electronics.5CD1x_RGL.5Crgl_ghs_D1Lx_obj_V1.2E2.2E0.5Cvlib.5Capp.5Cgfx_apps.5Csimple_draw_d1l2.5Ctarget.5Cd1lx_mango_ghs.5Cobj.5Cr_cdi_memory.66::
                        1691 .LDWlin66:
000005ce 006a           1692 	mov	0,r13
                        1693 --610:                     startblk   = 0u;
000005d0 0072           1694 	mov	0,r14
                        1695 .L1089:
                        1696 --611:                 }
                        1697 --612:     
                        1698 --613:                 /* When n free adjacent block are found, all blocks' status are set to used*/
                        1699 --614:                 /* Start address is then returned */
                        1700 --615:                 if (adjfreeblk == allocNbBlocks) 
000005d2 e869           1701 	cmp	r8,r13
000005d4 ea07ab01*      1702 	bne	.L1090
                        1703 --616:                 {
                        1704 --617:                     /* If there are blocks before and/or after the current block to be allocated,
                        1705 --618:                        check their indices and adapt the current block index if necessary. */
                        1706 --619:                     /* We don't need to check for a previous block, if we are at the start of the list */
                        1707 --620:                     if (startblk > 0)
                        1708 --line620
                        1709 ..lin.D.3A.5CRenesas_Electronics.5CD1x_RGL.5Crgl_ghs_D1Lx_obj_V1.2E2.2E0.5Cvlib.5Capp.5Cgfx_apps.5Csimple_draw_d1l2.5Ctarget.5Cd1lx_mango_ghs.5Cobj.5Cr_cdi_memory.67::
                        1710 .LDWlin67:
000005d8 e071           1711 	cmp	zero,r14
000005da 8315*          1712 	bnh	.L1092
                        1713 --621:                     {
                        1714 --622:                         prevBlkIndex = *(lochpmng->BlockIdxList + (startblk - 1));
                        1715 --line622
                        1716 ..lin.D.3A.5CRenesas_Electronics.5CD1x_RGL.5Crgl_ghs_D1Lx_obj_V1.2E2.2E0.5Cvlib.5Capp.5Cgfx_apps.5Csimple_draw_d1l2.5Ctarget.5Cd1lx_mango_ghs.5Cobj.5Cr_cdi_memory.68::
                        1717 .LDWlin68:
000005dc 0ed6ffff       1718 	addi	-1,r14,r26
000005e0 c1d2           1719 	shl	1,r26
000005e2 63d70500       1720 	st.w	r26,4[sp]
000005e6 06d5           1721 	sld.w	12[ep],r26
000005e8 ff4760f9       1722 	pushsp	lp-lp
000005ec 23ff0900       1723 	ld.w	8[sp],lp
000005f0 daf9           1724 	add	r26,lp
000005f2 ffd70100       1725 	ld.hu	0[lp],r26
000005f6 ff6760f9       1726 	popsp	lp-lp
                        1727 .L1092:
                        1728 --623:                     }
                        1729 --624:                     /* We don't need to check for a next block, if we are at the end of the list */
                        1730 --625:                     if ((startblk + adjfreeblk) < lochpmng->NbOfBlock)
000005fa 636f0500       1731 	st.w	r13,4[sp]
000005fe ff4760f9       1732 	pushsp	lp-lp
00000602 23ff0900       1733 	ld.w	8[sp],lp
00000606 cef9           1734 	add	r14,lp
00000608 63ff0900       1735 	st.w	lp,8[sp]
0000060c 02fd           1736 	sld.w	4[ep],lp
0000060e fe4760f1       1737 	pushsp	ep-ep
00000612 23f70d00       1738 	ld.w	12[sp],ep
00000616 fff1           1739 	cmp	lp,ep
00000618 fe6760f1       1740 	popsp	ep-ep
0000061c ff6760f9       1741 	popsp	lp-lp
00000620 8915*          1742 	bnl	.L1094
                        1743 --626:                     {
                        1744 --627:                         nextBlkIndex = *(lochpmng->BlockIdxList + (startblk + adjfreeblk));
                        1745 --line627
                        1746 ..lin.D.3A.5CRenesas_Electronics.5CD1x_RGL.5Crgl_ghs_D1Lx_obj_V1.2E2.2E0.5Cvlib.5Capp.5Cgfx_apps.5Csimple_draw_d1l2.5Ctarget.5Cd1lx_mango_ghs.5Cobj.5Cr_cdi_memory.69::
                        1747 .LDWlin69:
00000622 0dc8           1748 	mov	r13,r25
00000624 cec9           1749 	add	r14,r25

                                                                      Page 30
                                                              C:\Users\YINGAO~1\AppData\Local\Temp\gh_000080o1.si
00000626 c1ca           1750 	shl	1,r25
00000628 63cf0500       1751 	st.w	r25,4[sp]
0000062c 06cd           1752 	sld.w	12[ep],r25
0000062e ff4760f9       1753 	pushsp	lp-lp
00000632 23ff0900       1754 	ld.w	8[sp],lp
00000636 d9f9           1755 	add	r25,lp
00000638 ffcf0100       1756 	ld.hu	0[lp],r25
0000063c ff6760f9       1757 	popsp	lp-lp
                        1758 .L1094:
                        1759 --628:                     }
                        1760 --629:                     
                        1761 --630:                     /* Increment the index to be used for allocation if it is already used by the 
                        1762 --631:                        neighboring blocks */  /* This loop will be executed two times at maximum */
                        1763 --632:                     while ( ((*currentindex) == prevBlkIndex) || ((*currentindex) == nextBlkIndex) )
00000640 951d*          1764 	br	.L1096
                        1765 .L1098:
                        1766 --633:                     {
                        1767 --634:                         (*currentindex)++;
                        1768 --line634
                        1769 ..lin.D.3A.5CRenesas_Electronics.5CD1x_RGL.5Crgl_ghs_D1Lx_obj_V1.2E2.2E0.5Cvlib.5Capp.5Cgfx_apps.5Csimple_draw_d1l2.5Ctarget.5Cd1lx_mango_ghs.5Cobj.5Cr_cdi_memory.70::
                        1770 .LDWlin70:
00000642 ff4760f9       1771 	pushsp	lp-lp
00000646 ecff0100       1772 	ld.hu	0[r12],lp
0000064a 41fa           1773 	add	1,lp
0000064c 6cff0000       1774 	st.h	lp,0[r12]
00000650 ff6760f9       1775 	popsp	lp-lp
                        1776 --635:                         if ( 0 == (*currentindex))
00000654 ff4760f9       1777 	pushsp	lp-lp
00000658 ecff0100       1778 	ld.hu	0[r12],lp
0000065c e0f9           1779 	cmp	zero,lp
0000065e ff6760f9       1780 	popsp	lp-lp
00000662 8a0d*          1781 	bne	.L1096
                        1782 --636:                         {
                        1783 --637:                             (*currentindex) = 1;
                        1784 --line637
                        1785 ..lin.D.3A.5CRenesas_Electronics.5CD1x_RGL.5Crgl_ghs_D1Lx_obj_V1.2E2.2E0.5Cvlib.5Capp.5Cgfx_apps.5Csimple_draw_d1l2.5Ctarget.5Cd1lx_mango_ghs.5Cobj.5Cr_cdi_memory.71::
                        1786 .LDWlin71:
00000664 ff4760f9       1787 	pushsp	lp-lp
00000668 01fa           1788 	mov	1,lp
0000066a 6cff0000       1789 	st.h	lp,0[r12]
0000066e ff6760f9       1790 	popsp	lp-lp
                        1791 .L1096:
00000672 ff4760f9       1792 	pushsp	lp-lp
00000676 ecff0100       1793 	ld.hu	0[r12],lp
0000067a faf9           1794 	cmp	r26,lp
0000067c ff6760f9       1795 	popsp	lp-lp
00000680 92e5*          1796 	be	.L1098
00000682 ff4760f9       1797 	pushsp	lp-lp
00000686 ecff0100       1798 	ld.hu	0[r12],lp
0000068a f9f9           1799 	cmp	r25,lp
0000068c ff6760f9       1800 	popsp	lp-lp
00000690 92dd*          1801 	be	.L1098
                        1802 --638:                         }
                        1803 --639:                     }
                        1804 --641:                     /* Calculate address of allocated memory */
                        1805 --642:                     addr = lochpmng->BaseAddr + (startblk * lochpmng->BlockSize);
                        1806 --line642
                        1807 ..lin.D.3A.5CRenesas_Electronics.5CD1x_RGL.5Crgl_ghs_D1Lx_obj_V1.2E2.2E0.5Cvlib.5Capp.5Cgfx_apps.5Csimple_draw_d1l2.5Ctarget.5Cd1lx_mango_ghs.5Cobj.5Cr_cdi_memory.72::
                        1808 .LDWlin72:
00000692 040d           1809 	sld.w	8[ep],r1
00000694 63770900       1810 	st.w	r14,8[sp]

                                                                      Page 31
                                                              C:\Users\YINGAO~1\AppData\Local\Temp\gh_000080o1.si
00000698 ff4760f9       1811 	pushsp	lp-lp
0000069c 23ff0d00       1812 	ld.w	12[sp],lp
000006a0 e1ff2202       1813 	mulu	r1,lp,zero
000006a4 63ff0d00       1814 	st.w	lp,12[sp]
000006a8 ff6760f9       1815 	popsp	lp-lp
000006ac 230f0900       1816 	ld.w	8[sp],r1
000006b0 630f0500       1817 	st.w	r1,4[sp]
000006b4 000d           1818 	sld.w	0[ep],r1
000006b6 630f0900       1819 	st.w	r1,8[sp]
000006ba 230f0500       1820 	ld.w	4[sp],r1
000006be ff4760f9       1821 	pushsp	lp-lp
000006c2 23ff0d00       1822 	ld.w	12[sp],lp
000006c6 df09           1823 	add	lp,r1
000006c8 ff6760f9       1824 	popsp	lp-lp
                        1825 --643:                     /* Reserve allocated memory in the block index */
                        1826 --644:                     while(adjfreeblk != 0u) 
000006cc b525*          1827 	br	.L1102
                        1828 .L1104:
                        1829 --645:                     {
                        1830 --646:                         *(lochpmng->BlockIdxList + startblk) = *currentindex;
                        1831 --line646
                        1832 ..lin.D.3A.5CRenesas_Electronics.5CD1x_RGL.5Crgl_ghs_D1Lx_obj_V1.2E2.2E0.5Cvlib.5Capp.5Cgfx_apps.5Csimple_draw_d1l2.5Ctarget.5Cd1lx_mango_ghs.5Cobj.5Cr_cdi_memory.73::
                        1833 .LDWlin73:
000006ce 63770900       1834 	st.w	r14,8[sp]
000006d2 ff4760f9       1835 	pushsp	lp-lp
000006d6 23ff0d00       1836 	ld.w	12[sp],lp
000006da c1fa           1837 	shl	1,lp
000006dc 63ff0900       1838 	st.w	lp,8[sp]
000006e0 06fd           1839 	sld.w	12[ep],lp
000006e2 fe4760f1       1840 	pushsp	ep-ep
000006e6 23f70d00       1841 	ld.w	12[sp],ep
000006ea dff1           1842 	add	lp,ep
000006ec ecff0100       1843 	ld.hu	0[r12],lp
000006f0 80fc           1844 	sst.h	lp,0[ep]
000006f2 fe6760f1       1845 	popsp	ep-ep
000006f6 ff6760f9       1846 	popsp	lp-lp
                        1847 --647:                         startblk++;
000006fa 4172           1848 	add	1,r14
000006fc ce00           1849 	zxh	r14
                        1850 --648:                         adjfreeblk--;
000006fe 5f6a           1851 	add	-1,r13
                        1852 --649:                         (*freeCount)--;
00000700 ff4760f9       1853 	pushsp	lp-lp
00000704 fcff0100       1854 	ld.hu	0[r28],lp
00000708 5ffa           1855 	add	-1,lp
0000070a 7cff0000       1856 	st.h	lp,0[r28]
0000070e ff6760f9       1857 	popsp	lp-lp
                        1858 .L1102:
00000712 e069           1859 	cmp	zero,r13
00000714 dadd*          1860 	bne	.L1104
                        1861 --650:                     }
                        1862 --651:                     /* Increase the index that uniquely identifies one allocation operation */
                        1863 --652:                     /* In case of an overflow, set index to 1, as zero is reserved for empty blocks. */
                        1864 --653:                     (*currentindex)++;
                        1865 --line653
                        1866 ..lin.D.3A.5CRenesas_Electronics.5CD1x_RGL.5Crgl_ghs_D1Lx_obj_V1.2E2.2E0.5Cvlib.5Capp.5Cgfx_apps.5Csimple_draw_d1l2.5Ctarget.5Cd1lx_mango_ghs.5Cobj.5Cr_cdi_memory.74::
                        1867 .LDWlin74:
00000716 ff4760f9       1868 	pushsp	lp-lp
0000071a ecff0100       1869 	ld.hu	0[r12],lp
0000071e 41fa           1870 	add	1,lp
00000720 6cff0000       1871 	st.h	lp,0[r12]

                                                                      Page 32
                                                              C:\Users\YINGAO~1\AppData\Local\Temp\gh_000080o1.si
00000724 ff6760f9       1872 	popsp	lp-lp
                        1873 --654:                     if ( 0 == (*currentindex))
00000728 ff4760f9       1874 	pushsp	lp-lp
0000072c ecff0100       1875 	ld.hu	0[r12],lp
00000730 e0f9           1876 	cmp	zero,lp
00000732 ff6760f9       1877 	popsp	lp-lp
00000736 8a0d*          1878 	bne	.L1105
                        1879 --655:                     {
                        1880 --656:                         (*currentindex) = 1;
                        1881 --line656
                        1882 ..lin.D.3A.5CRenesas_Electronics.5CD1x_RGL.5Crgl_ghs_D1Lx_obj_V1.2E2.2E0.5Cvlib.5Capp.5Cgfx_apps.5Csimple_draw_d1l2.5Ctarget.5Cd1lx_mango_ghs.5Cobj.5Cr_cdi_memory.75::
                        1883 .LDWlin75:
00000738 ff4760f9       1884 	pushsp	lp-lp
0000073c 01fa           1885 	mov	1,lp
0000073e 6cff0000       1886 	st.h	lp,0[r12]
00000742 ff6760f9       1887 	popsp	lp-lp
                        1888 .L1105:
                        1889 --657:                     }
                        1890 --658:                     /* Set next free block number to be directly behind the just allocated memory */
                        1891 --659:                     (*nextBlock) = startblk  % lochpmng->NbOfBlock;
00000746 63770500       1892 	st.w	r14,4[sp]
0000074a ff4760f9       1893 	pushsp	lp-lp
0000074e 02fd           1894 	sld.w	4[ep],lp
00000750 63ff0d00       1895 	st.w	lp,12[sp]
00000754 fe4760f1       1896 	pushsp	ep-ep
00000758 23f70d00       1897 	ld.w	12[sp],ep
0000075c fd4760e9       1898 	pushsp	r29-r29
00000760 fff7feea       1899 	divqu	lp,ep,r29
00000764 63ef1500       1900 	st.w	r29,20[sp]
00000768 fd6760e9       1901 	popsp	r29-r29
0000076c fe6760f1       1902 	popsp	ep-ep
00000770 23ff0d00       1903 	ld.w	12[sp],lp
00000774 7bff0000       1904 	st.h	lp,0[r27]
00000778 ff6760f9       1905 	popsp	lp-lp
                        1906 --660:                     leave = 1u; 
0000077c 014a           1907 	mov	1,r9
                        1908 .L1090:
                        1909 --661:                 }
                        1910 --662:                 
                        1911 --663:                 /* Proceed to go through the block index with each iteration */
                        1912 --664:                 if (0u == leave) 
0000077e e049           1913 	cmp	zero,r9
00000780 ca25*          1914 	bne	.L1083
                        1915 --665:                 {    
                        1916 --666:                     i = (i + 1) % lochpmng->NbOfBlock;
                        1917 --line666
                        1918 ..lin.D.3A.5CRenesas_Electronics.5CD1x_RGL.5Crgl_ghs_D1Lx_obj_V1.2E2.2E0.5Cvlib.5Capp.5Cgfx_apps.5Csimple_draw_d1l2.5Ctarget.5Cd1lx_mango_ghs.5Cobj.5Cr_cdi_memory.76::
                        1919 .LDWlin76:
00000782 ff4760f9       1920 	pushsp	lp-lp
00000786 0bfe0100       1921 	addi	1,r11,lp
0000078a 63ff0d00       1922 	st.w	lp,12[sp]
0000078e ff6760f9       1923 	popsp	lp-lp
00000792 235f0900       1924 	ld.w	8[sp],r11
00000796 635f0500       1925 	st.w	r11,4[sp]
0000079a 025d           1926 	sld.w	4[ep],r11
0000079c 635f0900       1927 	st.w	r11,8[sp]
000007a0 ff4760f9       1928 	pushsp	lp-lp
000007a4 23ff0900       1929 	ld.w	8[sp],lp
000007a8 fe4760f1       1930 	pushsp	ep-ep
000007ac ebfffef2       1931 	divqu	r11,lp,ep
000007b0 63f71100       1932 	st.w	ep,16[sp]

                                                                      Page 33
                                                              C:\Users\YINGAO~1\AppData\Local\Temp\gh_000080o1.si
000007b4 fe6760f1       1933 	popsp	ep-ep
000007b8 ff6760f9       1934 	popsp	lp-lp
000007bc 235f0900       1935 	ld.w	8[sp],r11
                        1936 --667:                     if(i == 0u) 
000007c0 e059           1937 	cmp	zero,r11
000007c2 ba05*          1938 	bne	.L1083
                        1939 --668:                     {
                        1940 --669:                         /* we are back to the beginning of the heap */
                        1941 --670:                         /* then reset the startblock and the adjfreeblk variable*/
                        1942 --671:                         /* We do not want to have an allocation divided
                        1943 --672:                            between the end and the start of the heap */
                        1944 --673:                         
                        1945 --674:                         adjfreeblk = 0u;
                        1946 --line674
                        1947 ..lin.D.3A.5CRenesas_Electronics.5CD1x_RGL.5Crgl_ghs_D1Lx_obj_V1.2E2.2E0.5Cvlib.5Capp.5Cgfx_apps.5Csimple_draw_d1l2.5Ctarget.5Cd1lx_mango_ghs.5Cobj.5Cr_cdi_memory.77::
                        1948 .LDWlin77:
000007c4 006a           1949 	mov	0,r13
                        1950 --675:                         startblk   = 0u;
000007c6 0072           1951 	mov	0,r14
                        1952 .L1083:
                        1953 --676:                     }
                        1954 --677:                 }
                        1955 --678:             } /* if (0u == leave)*/
                        1956 --679:             /* check for break conditions */
                        1957 --680:             if (0 != leave) 
000007c8 e049           1958 	cmp	zero,r9
000007ca a205*          1959 	be	.L1076
                        1960 --681:             {
                        1961 --682:                 break; 
                        1962 --line682
                        1963 ..lin.D.3A.5CRenesas_Electronics.5CD1x_RGL.5Crgl_ghs_D1Lx_obj_V1.2E2.2E0.5Cvlib.5Capp.5Cgfx_apps.5Csimple_draw_d1l2.5Ctarget.5Cd1lx_mango_ghs.5Cobj.5Cr_cdi_memory.78::
                        1964 .LDWlin78:
000007cc b50d*          1965 	br	.L1074
                        1966 .L1076:
                        1967 --line585
                        1968 ..lin.D.3A.5CRenesas_Electronics.5CD1x_RGL.5Crgl_ghs_D1Lx_obj_V1.2E2.2E0.5Cvlib.5Capp.5Cgfx_apps.5Csimple_draw_d1l2.5Ctarget.5Cd1lx_mango_ghs.5Cobj.5Cr_cdi_memory.79::
                        1969 .LDWlin79:
000007ce ff4760f9       1970 	pushsp	lp-lp
000007d2 fbff0100       1971 	ld.hu	0[r27],lp
000007d6 5ffa           1972 	add	-1,lp
000007d8 ff59           1973 	cmp	lp,r11
000007da ff6760f9       1974 	popsp	lp-lp
000007de fa0785fd*      1975 	bne	.L1078
                        1976 .L1074:
                        1977 --683:             } 
                        1978 --684:         } /* while (i != ((*nextBlock) - 1))  */
                        1979 --685:     }
                        1980 --686:     
                        1981 --687: #ifdef MEM_DEBUG    
                        1982 --688:     /*  debug code to make a breakpoint32_t on out of memory possible */
                        1983 --689:     if(!addr)
                        1984 --690:     {
                        1985 --691:         addr = 0u; /* break here */
                        1986 --692:     }
                        1987 --693: #endif
                        1988 --694: #ifdef USE_ROS
                        1989 --695:     R_OS_ThreadMutexUnlock(&locCdiMemLock);
                        1990 --696: #endif
                        1991 --697:     return (void *)addr;
                        1992 --line697
                        1993 ..lin.D.3A.5CRenesas_Electronics.5CD1x_RGL.5Crgl_ghs_D1Lx_obj_V1.2E2.2E0.5Cvlib.5Capp.5Cgfx_apps.5Csimple_draw_d1l2.5Ctarget.5Cd1lx_mango_ghs.5Cobj.5Cr_cdi_memory.80::

                                                                      Page 34
                                                              C:\Users\YINGAO~1\AppData\Local\Temp\gh_000080o1.si
                        1994 .LDWlin80:
000007e2 0000           1995 	nop
                        1996 --	    .ef
                        1997 .LDW82:
000007e4 0150           1998 	mov	r1,r10
000007e6 4606ff70       1999 	dispose	3,{r25,r26,r27,r28,r29,r31},[lp]
                        2000 	.type	_R_CDI_Alloc,@function
                        2001 	.size	_R_CDI_Alloc,.-_R_CDI_Alloc
                        2002 	.align	2
                        2003 .LDW92:
                        2004 --_addr	r1	local
                        2005 --_allocNbBlocks	r8	local
                        2006 --_adjfreeblk	r13	local
                        2007 --_tmp	r29	local
                        2008 --_i	r11	local
                        2009 --_lochpmng	ep	local
                        2010 --_locblkindexlist	0[sp]	local
                        2011 --_startblk	r14	local
                        2012 --_currentindex	r12	local
                        2013 --_freeCount	r28	local
                        2014 --_nextBlock	r27	local
                        2015 --_leave	r9	local
                        2016 --_prevBlkIndex	r26	local
                        2017 --_nextBlkIndex	r25	local
                        2018 
                        2019 --_HeapMng	r10	param
                        2020 --_Size	lp	param
                        2021 
                        2022 	.section ".bss","awb"
                        2023 .L1272:
                        2024 	.type	.L1272,@object
                        2025 	.size	.L1272,0
                        2026 	.data
                        2027 	.text
                        2028 
                        2029 --698: }
                        2030 
                        2031 --700: /*******************************************************************************
                        2032 --701:  Function: R_CDI_AllocAlign
                        2033 --702:  */
                        2034 --703: void * R_CDI_AllocAlign(r_cdi_Heap_t *HeapMng, uint32_t Size, uint32_t Alignment)
                        2035 	.align	2
                        2036 	.align	2
                        2037 	.global	_R_CDI_AllocAlign
                        2038 _R_CDI_AllocAlign:
000007ea 8e07e170       2039 	prepare	{r25,r26,r27,r28,r29,r31},7
000007ee 633f1500       2040 	st.w	r7,20[sp]
000007f2 0650           2041 	mov	r6,r10
000007f4 63471100       2042 	st.w	r8,16[sp]
                        2043 --	    .bf
                        2044 .LDW03:
                        2045 --704: {
                        2046 --705:     uint32_t            addr           = 1u;
000007f8 0172           2047 	mov	1,r14
                        2048 --706:     uint32_t            allocNbBlocks  = 0u;
000007fa 00e2           2049 	mov	0,r28
                        2050 --707:     uint32_t            adjfreeblk     = 0u;
000007fc 006a           2051 	mov	0,r13
                        2052 --708:     int32_t             tmp;
                        2053 --709:     uint32_t            i;
                        2054 --710:     uint32_t            align          = 1u;

                                                                      Page 35
                                                              C:\Users\YINGAO~1\AppData\Local\Temp\gh_000080o1.si
000007fe 014a           2055 	mov	1,r9
                        2056 --711:     uint32_t            alignOffset    = 0u;
00000800 63070100       2057 	st.w	zero,0[sp]
00000804 005a           2058 	mov	0,r11
                        2059 --712:     r_cdi_Heap_t       *lochpmng;
                        2060 --713:     r_cdi_HpBlkIndex_t  *locblkindexlist;
                        2061 --714:     r_cdi_HpBlkIndex_t  startblk       = 0u;
00000806 000a           2062 	mov	0,r1
                        2063 --715:     r_cdi_HpBlkIndex_t *currentindex;
                        2064 --716:     r_cdi_HpBlkIndex_t *freeCount;
                        2065 --717:     r_cdi_HpBlkIndex_t *nextBlock;
                        2066 --718:     uint8_t             leave = 0u; 
00000808 00ea           2067 	mov	0,r29
                        2068 --719:     r_cdi_HpBlkIndex_t prevBlkIndex = 0;
0000080a 63070400       2069 	st.h	zero,4[sp]
0000080e 005a           2070 	mov	0,r11
                        2071 --720:     r_cdi_HpBlkIndex_t nextBlkIndex = 0;
00000810 63070600       2072 	st.h	zero,6[sp]
00000814 005a           2073 	mov	0,r11
                        2074 --721:     
                        2075 --722: #ifdef USE_ROS
                        2076 --723:     R_OS_ThreadMutexLock(&locCdiMemLock);
                        2077 --724: #endif
                        2078 --725:     if(0 != HeapMng->BaseAddr)
00000816 2a670100       2079 	ld.w	0[r10],r12
0000081a e061           2080 	cmp	zero,r12
0000081c 920d*          2081 	be	.L1502
                        2082 --726:     {
                        2083 --727:         lochpmng        = HeapMng;
                        2084 --line727
                        2085 ..lin.D.3A.5CRenesas_Electronics.5CD1x_RGL.5Crgl_ghs_D1Lx_obj_V1.2E2.2E0.5Cvlib.5Capp.5Cgfx_apps.5Csimple_draw_d1l2.5Ctarget.5Cd1lx_mango_ghs.5Cobj.5Cr_cdi_memory.81::
                        2086 .LDWlin81:
0000081e 0af0           2087 	mov	r10,ep
                        2088 --728:         currentindex    = &(HeapMng->NextBlockIdx);
00000820 0a661000       2089 	addi	16,r10,r12
                        2090 --729:         freeCount       = &(HeapMng->FreeBlocks);
00000824 0ad61200       2091 	addi	18,r10,r26
                        2092 --730:         nextBlock       = &(HeapMng->NextFreeBlockNb);
00000828 0ace1400       2093 	addi	20,r10,r25
0000082c a505*          2094 	br	.L1504
                        2095 .L1502:
                        2096 --731:     } 
                        2097 --732:     else 
                        2098 --733:     {
                        2099 --734:         addr = 0u;
                        2100 --line734
                        2101 ..lin.D.3A.5CRenesas_Electronics.5CD1x_RGL.5Crgl_ghs_D1Lx_obj_V1.2E2.2E0.5Cvlib.5Capp.5Cgfx_apps.5Csimple_draw_d1l2.5Ctarget.5Cd1lx_mango_ghs.5Cobj.5Cr_cdi_memory.82::
                        2102 .LDWlin82:
0000082e 0072           2103 	mov	0,r14
                        2104 .L1504:
                        2105 --735:     }
                        2106 --736:     if((*freeCount) <= 0)
00000830 fa5f0100       2107 	ld.hu	0[r26],r11
00000834 e059           2108 	cmp	zero,r11
00000836 aa05*          2109 	bne	.L1505
                        2110 --737:     {
                        2111 --738:         addr = 0u;
                        2112 --line738
                        2113 ..lin.D.3A.5CRenesas_Electronics.5CD1x_RGL.5Crgl_ghs_D1Lx_obj_V1.2E2.2E0.5Cvlib.5Capp.5Cgfx_apps.5Csimple_draw_d1l2.5Ctarget.5Cd1lx_mango_ghs.5Cobj.5Cr_cdi_memory.83::
                        2114 .LDWlin83:
00000838 0072           2115 	mov	0,r14

                                                                      Page 36
                                                              C:\Users\YINGAO~1\AppData\Local\Temp\gh_000080o1.si
                        2116 .L1505:
                        2117 --739:     }
                        2118 --740:     
                        2119 --741:     /* Calculate number of required blocks*/
                        2120 --742:     if (addr != 0u)
0000083a e071           2121 	cmp	zero,r14
0000083c e20d*          2122 	be	.L1507
                        2123 --743:     {
                        2124 --744:         tmp = Size;
                        2125 --line744
                        2126 ..lin.D.3A.5CRenesas_Electronics.5CD1x_RGL.5Crgl_ghs_D1Lx_obj_V1.2E2.2E0.5Cvlib.5Capp.5Cgfx_apps.5Csimple_draw_d1l2.5Ctarget.5Cd1lx_mango_ghs.5Cobj.5Cr_cdi_memory.84::
                        2127 .LDWlin84:
0000083e 23df1500       2128 	ld.w	20[sp],r27
                        2129 --745:         /* calculate number of blocks needed*/
                        2130 --746:         while (tmp > 0)
00000842 c505*          2131 	br	.L1509
                        2132 .L1511:
                        2133 --747:         {
                        2134 --748:             allocNbBlocks++;
                        2135 --line748
                        2136 ..lin.D.3A.5CRenesas_Electronics.5CD1x_RGL.5Crgl_ghs_D1Lx_obj_V1.2E2.2E0.5Cvlib.5Capp.5Cgfx_apps.5Csimple_draw_d1l2.5Ctarget.5Cd1lx_mango_ghs.5Cobj.5Cr_cdi_memory.85::
                        2137 .LDWlin85:
00000844 41e2           2138 	add	1,r28
                        2139 --749:             tmp -= lochpmng->BlockSize;
00000846 045d           2140 	sld.w	8[ep],r11
00000848 abd9           2141 	sub	r11,r27
                        2142 .L1509:
0000084a e0d9           2143 	cmp	zero,r27
0000084c cffd*          2144 	bgt	.L1511
                        2145 --750:         }
                        2146 --751:         /* if not enough blocks left */
                        2147 --752:         if((*freeCount) <= allocNbBlocks)
                        2148 --line752
                        2149 ..lin.D.3A.5CRenesas_Electronics.5CD1x_RGL.5Crgl_ghs_D1Lx_obj_V1.2E2.2E0.5Cvlib.5Capp.5Cgfx_apps.5Csimple_draw_d1l2.5Ctarget.5Cd1lx_mango_ghs.5Cobj.5Cr_cdi_memory.86::
                        2150 .LDWlin86:
0000084e fa5f0100       2151 	ld.hu	0[r26],r11
00000852 fc59           2152 	cmp	r28,r11
00000854 ab05*          2153 	bh	.L1507
                        2154 --753:         {
                        2155 --754:             addr = 0u;
                        2156 --line754
                        2157 ..lin.D.3A.5CRenesas_Electronics.5CD1x_RGL.5Crgl_ghs_D1Lx_obj_V1.2E2.2E0.5Cvlib.5Capp.5Cgfx_apps.5Csimple_draw_d1l2.5Ctarget.5Cd1lx_mango_ghs.5Cobj.5Cr_cdi_memory.87::
                        2158 .LDWlin87:
00000856 0072           2159 	mov	0,r14
                        2160 .L1507:
                        2161 --755:         }
                        2162 --756:     }
                        2163 --757:     
                        2164 --758:     /* Calculate alignment of block index number to mathc required alignment */
                        2165 --759:     if (Alignment != 0)
00000858 235f1100       2166 	ld.w	16[sp],r11
0000085c e059           2167 	cmp	zero,r11
0000085e 921d*          2168 	be	.L1514
                        2169 --760:     {
                        2170 --761:         /* If <Alignment> is smaller than <BlockSize>, the alignment is given inherently. */
                        2171 --762:         /* <Alignment> and <BlockSize> are expected to be powers of two, 
                        2172 --763:            otherwise a correct alignment might be technically imposssible */
                        2173 --764:         /* The requested <Alignment> can be bigger than the alignment of <BaseAddr>.
                        2174 --765:            As long as the <BaseAddr> is aligned to <BlockSize>, this function will 
                        2175 --766:            find an address which is aligned to the system's address space. */
                        2176 --767:         if (Alignment >= lochpmng->BlockSize)

                                                                      Page 37
                                                              C:\Users\YINGAO~1\AppData\Local\Temp\gh_000080o1.si
                        2177 --line767
                        2178 ..lin.D.3A.5CRenesas_Electronics.5CD1x_RGL.5Crgl_ghs_D1Lx_obj_V1.2E2.2E0.5Cvlib.5Capp.5Cgfx_apps.5Csimple_draw_d1l2.5Ctarget.5Cd1lx_mango_ghs.5Cobj.5Cr_cdi_memory.88::
                        2179 .LDWlin88:
00000860 045d           2180 	sld.w	8[ep],r11
00000862 23ff1100       2181 	ld.w	16[sp],lp
00000866 ebf9           2182 	cmp	r11,lp
00000868 c115*          2183 	bl	.L1514
                        2184 --768:         {
                        2185 --	    .bs
                        2186 .LDW13:
                        2187 --769:             uint32_t virtualIndex;
                        2188 --770:             
                        2189 --771:             align = Alignment / lochpmng->BlockSize;
                        2190 --line771
                        2191 ..lin.D.3A.5CRenesas_Electronics.5CD1x_RGL.5Crgl_ghs_D1Lx_obj_V1.2E2.2E0.5Cvlib.5Capp.5Cgfx_apps.5Csimple_draw_d1l2.5Ctarget.5Cd1lx_mango_ghs.5Cobj.5Cr_cdi_memory.89::
                        2192 .LDWlin89:
0000086a 234f1100       2193 	ld.w	16[sp],r9
0000086e 045d           2194 	sld.w	8[ep],r11
00000870 eb4ffe02       2195 	divqu	r11,r9,zero
                        2196 --772:             
                        2197 --773:             /* What "virtual index" would the first block of our index list have 
                        2198 --774:                if we started counting at the address 0x00000000 ? */
                        2199 --775:             virtualIndex = lochpmng->BaseAddr / lochpmng->BlockSize;
00000874 005d           2200 	sld.w	0[ep],r11
00000876 0bf8           2201 	mov	r11,lp
00000878 045d           2202 	sld.w	8[ep],r11
0000087a ebfffe02       2203 	divqu	r11,lp,zero
                        2204 --776:             
                        2205 --777:             /* If the virtual index is not a multiple of our alignment <align>, 
                        2206 --778:                we need to add an offset. */
                        2207 --779:             alignOffset = (virtualIndex % align);
0000087e 1f58           2208 	mov	lp,r11
00000880 ff4760f9       2209 	pushsp	lp-lp
00000884 e95ffefa       2210 	divqu	r9,r11,lp
00000888 63ff0500       2211 	st.w	lp,4[sp]
0000088c ff6760f9       2212 	popsp	lp-lp
                        2213 --	    .es
                        2214 .LDW23:
                        2215 .L1514:
                        2216 --780:         }
                        2217 --781:     }
                        2218 --782:     if(addr != 0u) 
00000890 e071           2219 	cmp	zero,r14
00000892 e2071903*      2220 	be	.L1518
                        2221 --783:     {
                        2222 --784:         /* Search for n free adjacent blocks */
                        2223 --785:         locblkindexlist = lochpmng->BlockIdxList;
                        2224 --line785
                        2225 ..lin.D.3A.5CRenesas_Electronics.5CD1x_RGL.5Crgl_ghs_D1Lx_obj_V1.2E2.2E0.5Cvlib.5Capp.5Cgfx_apps.5Csimple_draw_d1l2.5Ctarget.5Cd1lx_mango_ghs.5Cobj.5Cr_cdi_memory.90::
                        2226 .LDWlin90:
00000896 065d           2227 	sld.w	12[ep],r11
00000898 635f0900       2228 	st.w	r11,8[sp]
                        2229 --786:         addr = 0u;
0000089c 0072           2230 	mov	0,r14
                        2231 --787:         i = *nextBlock;
0000089e f95f0100       2232 	ld.hu	0[r25],r11
                        2233 --788:         /* Search through the block index until we are at the starting point again */
                        2234 --789:         while (i != ((*nextBlock) - 1)) 
000008a2 8007f402*      2235 	br	.L1520
                        2236 .L1522:
                        2237 --790:         {

                                                                      Page 38
                                                              C:\Users\YINGAO~1\AppData\Local\Temp\gh_000080o1.si
                        2238 --791:             /* Special case: When the starting point was zero, stop when we reach the end of the index */
                        2239 --792:             if (*nextBlock == 0u) 
                        2240 --line792
                        2241 ..lin.D.3A.5CRenesas_Electronics.5CD1x_RGL.5Crgl_ghs_D1Lx_obj_V1.2E2.2E0.5Cvlib.5Capp.5Cgfx_apps.5Csimple_draw_d1l2.5Ctarget.5Cd1lx_mango_ghs.5Cobj.5Cr_cdi_memory.91::
                        2242 .LDWlin91:
000008a6 ff4760f9       2243 	pushsp	lp-lp
000008aa f9ff0100       2244 	ld.hu	0[r25],lp
000008ae e0f9           2245 	cmp	zero,lp
000008b0 ff6760f9       2246 	popsp	lp-lp
000008b4 aa0d*          2247 	bne	.L1523
                        2248 --793:             {
                        2249 --794:                 if (i == (lochpmng->NbOfBlock - 1)) 
                        2250 --line794
                        2251 ..lin.D.3A.5CRenesas_Electronics.5CD1x_RGL.5Crgl_ghs_D1Lx_obj_V1.2E2.2E0.5Cvlib.5Capp.5Cgfx_apps.5Csimple_draw_d1l2.5Ctarget.5Cd1lx_mango_ghs.5Cobj.5Cr_cdi_memory.92::
                        2252 .LDWlin92:
000008b6 ff4760f9       2253 	pushsp	lp-lp
000008ba 02fd           2254 	sld.w	4[ep],lp
000008bc 5ffa           2255 	add	-1,lp
000008be ff59           2256 	cmp	lp,r11
000008c0 ff6760f9       2257 	popsp	lp-lp
000008c4 aa05*          2258 	bne	.L1523
                        2259 --795:                 {
                        2260 --796:                    leave = 1u; 
                        2261 --line796
                        2262 ..lin.D.3A.5CRenesas_Electronics.5CD1x_RGL.5Crgl_ghs_D1Lx_obj_V1.2E2.2E0.5Cvlib.5Capp.5Cgfx_apps.5Csimple_draw_d1l2.5Ctarget.5Cd1lx_mango_ghs.5Cobj.5Cr_cdi_memory.93::
                        2263 .LDWlin93:
000008c6 01ea           2264 	mov	1,r29
                        2265 .L1523:
                        2266 --797:                 }
                        2267 --798:             }
                        2268 --799:             if (0u == leave) 
000008c8 e0e9           2269 	cmp	zero,r29
000008ca ea07c702*      2270 	bne	.L1527
                        2271 --800:             {
                        2272 --801:                 /* If block index states that the current block is free, take it as starting point */
                        2273 --802:                 /* With the following iterations, check that the adjacent block are also free */
                        2274 --803:                 if (*(locblkindexlist + i ) == 0u) 
                        2275 --line803
                        2276 ..lin.D.3A.5CRenesas_Electronics.5CD1x_RGL.5Crgl_ghs_D1Lx_obj_V1.2E2.2E0.5Cvlib.5Capp.5Cgfx_apps.5Csimple_draw_d1l2.5Ctarget.5Cd1lx_mango_ghs.5Cobj.5Cr_cdi_memory.94::
                        2277 .LDWlin94:
000008ce 635f1900       2278 	st.w	r11,24[sp]
000008d2 ff4760f9       2279 	pushsp	lp-lp
000008d6 23ff1d00       2280 	ld.w	28[sp],lp
000008da c1fa           2281 	shl	1,lp
000008dc 63ff1d00       2282 	st.w	lp,28[sp]
000008e0 23ff0d00       2283 	ld.w	12[sp],lp
000008e4 fe4760f1       2284 	pushsp	ep-ep
000008e8 23f72100       2285 	ld.w	32[sp],ep
000008ec dff1           2286 	add	lp,ep
000008ee 63f72100       2287 	st.w	ep,32[sp]
000008f2 fe6760f1       2288 	popsp	ep-ep
000008f6 23ff1d00       2289 	ld.w	28[sp],lp
000008fa ffff0100       2290 	ld.hu	0[lp],lp
000008fe e0f9           2291 	cmp	zero,lp
00000900 ff6760f9       2292 	popsp	lp-lp
00000904 ea1d*          2293 	bne	.L1529
                        2294 --804:                 {
                        2295 --805:                     /* Only take it as a starting point if it matches our alignment requirement */
                        2296 --806:                     /*  .. or if a starting point was already found */
                        2297 --807:                     if ((startblk != 0) || (((i+alignOffset) % align) == 0u))
                        2298 --line807

                                                                      Page 39
                                                              C:\Users\YINGAO~1\AppData\Local\Temp\gh_000080o1.si
                        2299 ..lin.D.3A.5CRenesas_Electronics.5CD1x_RGL.5Crgl_ghs_D1Lx_obj_V1.2E2.2E0.5Cvlib.5Capp.5Cgfx_apps.5Csimple_draw_d1l2.5Ctarget.5Cd1lx_mango_ghs.5Cobj.5Cr_cdi_memory.95::
                        2300 .LDWlin95:
00000906 e009           2301 	cmp	zero,r1
00000908 ea15*          2302 	bne	.L1532
0000090a ff4760f9       2303 	pushsp	lp-lp
0000090e 23ff0500       2304 	ld.w	4[sp],lp
00000912 cbf9           2305 	add	r11,lp
00000914 63ff1d00       2306 	st.w	lp,28[sp]
00000918 fe4760f1       2307 	pushsp	ep-ep
0000091c e9fffef2       2308 	divqu	r9,lp,ep
00000920 63f72100       2309 	st.w	ep,32[sp]
00000924 fe6760f1       2310 	popsp	ep-ep
00000928 23ff1d00       2311 	ld.w	28[sp],lp
0000092c e0f9           2312 	cmp	zero,lp
0000092e ff6760f9       2313 	popsp	lp-lp
00000932 9a0d*          2314 	bne	.L1536
                        2315 .L1532:
                        2316 --808:                     {
                        2317 --809:                         if (adjfreeblk == 0u) 
                        2318 --line809
                        2319 ..lin.D.3A.5CRenesas_Electronics.5CD1x_RGL.5Crgl_ghs_D1Lx_obj_V1.2E2.2E0.5Cvlib.5Capp.5Cgfx_apps.5Csimple_draw_d1l2.5Ctarget.5Cd1lx_mango_ghs.5Cobj.5Cr_cdi_memory.96::
                        2320 .LDWlin96:
00000934 e069           2321 	cmp	zero,r13
00000936 ba05*          2322 	bne	.L1534
                        2323 --810:                         {
                        2324 --811:                             startblk = i;
                        2325 --line811
                        2326 ..lin.D.3A.5CRenesas_Electronics.5CD1x_RGL.5Crgl_ghs_D1Lx_obj_V1.2E2.2E0.5Cvlib.5Capp.5Cgfx_apps.5Csimple_draw_d1l2.5Ctarget.5Cd1lx_mango_ghs.5Cobj.5Cr_cdi_memory.97::
                        2327 .LDWlin97:
00000938 cb0effff       2328 	andi	65535,r11,r1
                        2329 .L1534:
                        2330 --812:                         }
                        2331 --813:                         
                        2332 --814:                         adjfreeblk++;
0000093c 416a           2333 	add	1,r13
0000093e b505*          2334 	br	.L1536
                        2335 .L1529:
                        2336 --815:                     }
                        2337 --816:                 } 
                        2338 --817:                 else 
                        2339 --818:                 {
                        2340 --819:                     adjfreeblk = 0u;
                        2341 --line819
                        2342 ..lin.D.3A.5CRenesas_Electronics.5CD1x_RGL.5Crgl_ghs_D1Lx_obj_V1.2E2.2E0.5Cvlib.5Capp.5Cgfx_apps.5Csimple_draw_d1l2.5Ctarget.5Cd1lx_mango_ghs.5Cobj.5Cr_cdi_memory.98::
                        2343 .LDWlin98:
00000940 006a           2344 	mov	0,r13
                        2345 --820:                     startblk   = 0u;
00000942 000a           2346 	mov	0,r1
                        2347 .L1536:
                        2348 --821:                 }
                        2349 --822:     
                        2350 --823:                 /* When n free adjacent block are found, all blocks' status are set to used*/
                        2351 --824:                 /* Start address is then returned */
                        2352 --825:                 if (adjfreeblk == allocNbBlocks) 
00000944 fc69           2353 	cmp	r28,r13
00000946 ea070102*      2354 	bne	.L1537
                        2355 --826:                 {
                        2356 --827:                     /* If there are blocks before and/or after the current block to be allocated,
                        2357 --828:                        check their indices and adapt the current block index if necessary. */
                        2358 --829:                     /* We don't need to check for a previous block, if we are at the start of the list */
                        2359 --830:                     if (startblk > 0)

                                                                      Page 40
                                                              C:\Users\YINGAO~1\AppData\Local\Temp\gh_000080o1.si
                        2360 --line830
                        2361 ..lin.D.3A.5CRenesas_Electronics.5CD1x_RGL.5Crgl_ghs_D1Lx_obj_V1.2E2.2E0.5Cvlib.5Capp.5Cgfx_apps.5Csimple_draw_d1l2.5Ctarget.5Cd1lx_mango_ghs.5Cobj.5Cr_cdi_memory.99::
                        2362 .LDWlin99:
0000094a e009           2363 	cmp	zero,r1
0000094c a31d*          2364 	bnh	.L1539
                        2365 --831:                     {
                        2366 --832:                         prevBlkIndex = *(lochpmng->BlockIdxList + (startblk - 1));
                        2367 --line832
                        2368 ..lin.D.3A.5CRenesas_Electronics.5CD1x_RGL.5Crgl_ghs_D1Lx_obj_V1.2E2.2E0.5Cvlib.5Capp.5Cgfx_apps.5Csimple_draw_d1l2.5Ctarget.5Cd1lx_mango_ghs.5Cobj.5Cr_cdi_memory.100::
                        2369 .LDWlin100:
0000094e ff4760f9       2370 	pushsp	lp-lp
00000952 01feffff       2371 	addi	-1,r1,lp
00000956 c1fa           2372 	shl	1,lp
00000958 63ff1100       2373 	st.w	lp,16[sp]
0000095c 06fd           2374 	sld.w	12[ep],lp
0000095e fe4760f1       2375 	pushsp	ep-ep
00000962 23f71500       2376 	ld.w	20[sp],ep
00000966 dff1           2377 	add	lp,ep
00000968 63f71500       2378 	st.w	ep,20[sp]
0000096c fe6760f1       2379 	popsp	ep-ep
00000970 23ff1100       2380 	ld.w	16[sp],lp
00000974 ffff0100       2381 	ld.hu	0[lp],lp
00000978 63ff0800       2382 	st.h	lp,8[sp]
0000097c ff6760f9       2383 	popsp	lp-lp
                        2384 .L1539:
                        2385 --833:                     }
                        2386 --834:                     /* We don't need to check for a next block, if we are at the end of the list */
                        2387 --835:                     if ((startblk + adjfreeblk) < lochpmng->NbOfBlock)
00000980 636f0d00       2388 	st.w	r13,12[sp]
00000984 ff4760f9       2389 	pushsp	lp-lp
00000988 23ff1100       2390 	ld.w	16[sp],lp
0000098c c1f9           2391 	add	r1,lp
0000098e 63ff1100       2392 	st.w	lp,16[sp]
00000992 02fd           2393 	sld.w	4[ep],lp
00000994 fe4760f1       2394 	pushsp	ep-ep
00000998 23f71500       2395 	ld.w	20[sp],ep
0000099c fff1           2396 	cmp	lp,ep
0000099e fe6760f1       2397 	popsp	ep-ep
000009a2 ff6760f9       2398 	popsp	lp-lp
000009a6 d91d*          2399 	bnl	.L1541
                        2400 --836:                     {
                        2401 --837:                         nextBlkIndex = *(lochpmng->BlockIdxList + (startblk + adjfreeblk));
                        2402 --line837
                        2403 ..lin.D.3A.5CRenesas_Electronics.5CD1x_RGL.5Crgl_ghs_D1Lx_obj_V1.2E2.2E0.5Cvlib.5Capp.5Cgfx_apps.5Csimple_draw_d1l2.5Ctarget.5Cd1lx_mango_ghs.5Cobj.5Cr_cdi_memory.101::
                        2404 .LDWlin101:
000009a8 636f1900       2405 	st.w	r13,24[sp]
000009ac ff4760f9       2406 	pushsp	lp-lp
000009b0 23ff1d00       2407 	ld.w	28[sp],lp
000009b4 c1f9           2408 	add	r1,lp
000009b6 c1fa           2409 	shl	1,lp
000009b8 63ff1100       2410 	st.w	lp,16[sp]
000009bc 06fd           2411 	sld.w	12[ep],lp
000009be fe4760f1       2412 	pushsp	ep-ep
000009c2 23f71500       2413 	ld.w	20[sp],ep
000009c6 dff1           2414 	add	lp,ep
000009c8 63f71500       2415 	st.w	ep,20[sp]
000009cc fe6760f1       2416 	popsp	ep-ep
000009d0 23ff1100       2417 	ld.w	16[sp],lp
000009d4 ffff0100       2418 	ld.hu	0[lp],lp
000009d8 63ff0a00       2419 	st.h	lp,10[sp]
000009dc ff6760f9       2420 	popsp	lp-lp

                                                                      Page 41
                                                              C:\Users\YINGAO~1\AppData\Local\Temp\gh_000080o1.si
                        2421 .L1541:
                        2422 --838:                     }
                        2423 --839:                     
                        2424 --840:                     /* Increment the index to be used for allocation if it is already used by the 
                        2425 --841:                        neighboring blocks */  /* This loop will be executed two times at maximum */
                        2426 --842:                     while ( ((*currentindex) == prevBlkIndex) || ((*currentindex) == nextBlkIndex) )
000009e0 951d*          2427 	br	.L1543
                        2428 .L1545:
                        2429 --843:                     {
                        2430 --844:                         (*currentindex)++;
                        2431 --line844
                        2432 ..lin.D.3A.5CRenesas_Electronics.5CD1x_RGL.5Crgl_ghs_D1Lx_obj_V1.2E2.2E0.5Cvlib.5Capp.5Cgfx_apps.5Csimple_draw_d1l2.5Ctarget.5Cd1lx_mango_ghs.5Cobj.5Cr_cdi_memory.102::
                        2433 .LDWlin102:
000009e2 ff4760f9       2434 	pushsp	lp-lp
000009e6 ecff0100       2435 	ld.hu	0[r12],lp
000009ea 41fa           2436 	add	1,lp
000009ec 6cff0000       2437 	st.h	lp,0[r12]
000009f0 ff6760f9       2438 	popsp	lp-lp
                        2439 --845:                         if ( 0 == (*currentindex))
000009f4 ff4760f9       2440 	pushsp	lp-lp
000009f8 ecff0100       2441 	ld.hu	0[r12],lp
000009fc e0f9           2442 	cmp	zero,lp
000009fe ff6760f9       2443 	popsp	lp-lp
00000a02 8a0d*          2444 	bne	.L1543
                        2445 --846:                         {
                        2446 --847:                             (*currentindex) = 1;
                        2447 --line847
                        2448 ..lin.D.3A.5CRenesas_Electronics.5CD1x_RGL.5Crgl_ghs_D1Lx_obj_V1.2E2.2E0.5Cvlib.5Capp.5Cgfx_apps.5Csimple_draw_d1l2.5Ctarget.5Cd1lx_mango_ghs.5Cobj.5Cr_cdi_memory.103::
                        2449 .LDWlin103:
00000a04 ff4760f9       2450 	pushsp	lp-lp
00000a08 01fa           2451 	mov	1,lp
00000a0a 6cff0000       2452 	st.h	lp,0[r12]
00000a0e ff6760f9       2453 	popsp	lp-lp
                        2454 .L1543:
00000a12 ff4760f9       2455 	pushsp	lp-lp
00000a16 ecff0100       2456 	ld.hu	0[r12],lp
00000a1a 63ff1d00       2457 	st.w	lp,28[sp]
00000a1e e3ff0900       2458 	ld.hu	8[sp],lp
00000a22 fe4760f1       2459 	pushsp	ep-ep
00000a26 23f72100       2460 	ld.w	32[sp],ep
00000a2a fff1           2461 	cmp	lp,ep
00000a2c fe6760f1       2462 	popsp	ep-ep
00000a30 ff6760f9       2463 	popsp	lp-lp
00000a34 f2d5*          2464 	be	.L1545
00000a36 ff4760f9       2465 	pushsp	lp-lp
00000a3a ecff0100       2466 	ld.hu	0[r12],lp
00000a3e 63ff1d00       2467 	st.w	lp,28[sp]
00000a42 e3ff0b00       2468 	ld.hu	10[sp],lp
00000a46 fe4760f1       2469 	pushsp	ep-ep
00000a4a 23f72100       2470 	ld.w	32[sp],ep
00000a4e fff1           2471 	cmp	lp,ep
00000a50 fe6760f1       2472 	popsp	ep-ep
00000a54 ff6760f9       2473 	popsp	lp-lp
00000a58 d2c5*          2474 	be	.L1545
                        2475 --848:                         }
                        2476 --849:                     }
                        2477 --851:                     /* Calculate address of allocated memory */
                        2478 --852:                     addr = lochpmng->BaseAddr + (startblk * lochpmng->BlockSize);
                        2479 --line852
                        2480 ..lin.D.3A.5CRenesas_Electronics.5CD1x_RGL.5Crgl_ghs_D1Lx_obj_V1.2E2.2E0.5Cvlib.5Capp.5Cgfx_apps.5Csimple_draw_d1l2.5Ctarget.5Cd1lx_mango_ghs.5Cobj.5Cr_cdi_memory.104::
                        2481 .LDWlin104:

                                                                      Page 42
                                                              C:\Users\YINGAO~1\AppData\Local\Temp\gh_000080o1.si
00000a5a 0475           2482 	sld.w	8[ep],r14
00000a5c 630f1900       2483 	st.w	r1,24[sp]
00000a60 ff4760f9       2484 	pushsp	lp-lp
00000a64 23ff1d00       2485 	ld.w	28[sp],lp
00000a68 eeff2202       2486 	mulu	r14,lp,zero
00000a6c 63ff1d00       2487 	st.w	lp,28[sp]
00000a70 ff6760f9       2488 	popsp	lp-lp
00000a74 23771900       2489 	ld.w	24[sp],r14
00000a78 63770d00       2490 	st.w	r14,12[sp]
00000a7c 0075           2491 	sld.w	0[ep],r14
00000a7e 63771900       2492 	st.w	r14,24[sp]
00000a82 23770d00       2493 	ld.w	12[sp],r14
00000a86 ff4760f9       2494 	pushsp	lp-lp
00000a8a 23ff1d00       2495 	ld.w	28[sp],lp
00000a8e df71           2496 	add	lp,r14
00000a90 ff6760f9       2497 	popsp	lp-lp
                        2498 --853:                     /* Reserve allocated memory in the block index */
                        2499 --854:                     while(adjfreeblk != 0u) 
00000a94 b525*          2500 	br	.L1549
                        2501 .L1551:
                        2502 --855:                     {
                        2503 --856:                         *(lochpmng->BlockIdxList + startblk) = *currentindex;
                        2504 --line856
                        2505 ..lin.D.3A.5CRenesas_Electronics.5CD1x_RGL.5Crgl_ghs_D1Lx_obj_V1.2E2.2E0.5Cvlib.5Capp.5Cgfx_apps.5Csimple_draw_d1l2.5Ctarget.5Cd1lx_mango_ghs.5Cobj.5Cr_cdi_memory.105::
                        2506 .LDWlin105:
00000a96 630f1900       2507 	st.w	r1,24[sp]
00000a9a ff4760f9       2508 	pushsp	lp-lp
00000a9e 23ff1d00       2509 	ld.w	28[sp],lp
00000aa2 c1fa           2510 	shl	1,lp
00000aa4 63ff1100       2511 	st.w	lp,16[sp]
00000aa8 06fd           2512 	sld.w	12[ep],lp
00000aaa fe4760f1       2513 	pushsp	ep-ep
00000aae 23f71500       2514 	ld.w	20[sp],ep
00000ab2 dff1           2515 	add	lp,ep
00000ab4 ecff0100       2516 	ld.hu	0[r12],lp
00000ab8 80fc           2517 	sst.h	lp,0[ep]
00000aba fe6760f1       2518 	popsp	ep-ep
00000abe ff6760f9       2519 	popsp	lp-lp
                        2520 --857:                         startblk++;
00000ac2 410a           2521 	add	1,r1
00000ac4 c100           2522 	zxh	r1
                        2523 --858:                         adjfreeblk--;
00000ac6 5f6a           2524 	add	-1,r13
                        2525 --859:                         (*freeCount)--;
00000ac8 ff4760f9       2526 	pushsp	lp-lp
00000acc faff0100       2527 	ld.hu	0[r26],lp
00000ad0 5ffa           2528 	add	-1,lp
00000ad2 7aff0000       2529 	st.h	lp,0[r26]
00000ad6 ff6760f9       2530 	popsp	lp-lp
                        2531 .L1549:
00000ada e069           2532 	cmp	zero,r13
00000adc dadd*          2533 	bne	.L1551
                        2534 --860:                     }
                        2535 --861:                     /* Increase the index that uniquely identifies one allocation operation */
                        2536 --862:                     /* In case of an overflow, set index to 1, as zero is reserved for empty blocks. */
                        2537 --863:                     (*currentindex)++;
                        2538 --line863
                        2539 ..lin.D.3A.5CRenesas_Electronics.5CD1x_RGL.5Crgl_ghs_D1Lx_obj_V1.2E2.2E0.5Cvlib.5Capp.5Cgfx_apps.5Csimple_draw_d1l2.5Ctarget.5Cd1lx_mango_ghs.5Cobj.5Cr_cdi_memory.106::
                        2540 .LDWlin106:
00000ade ff4760f9       2541 	pushsp	lp-lp
00000ae2 ecff0100       2542 	ld.hu	0[r12],lp

                                                                      Page 43
                                                              C:\Users\YINGAO~1\AppData\Local\Temp\gh_000080o1.si
00000ae6 41fa           2543 	add	1,lp
00000ae8 6cff0000       2544 	st.h	lp,0[r12]
00000aec ff6760f9       2545 	popsp	lp-lp
                        2546 --864:                     if ( 0 == (*currentindex))
00000af0 ff4760f9       2547 	pushsp	lp-lp
00000af4 ecff0100       2548 	ld.hu	0[r12],lp
00000af8 e0f9           2549 	cmp	zero,lp
00000afa ff6760f9       2550 	popsp	lp-lp
00000afe 8a0d*          2551 	bne	.L1552
                        2552 --865:                     {
                        2553 --866:                         (*currentindex) = 1;
                        2554 --line866
                        2555 ..lin.D.3A.5CRenesas_Electronics.5CD1x_RGL.5Crgl_ghs_D1Lx_obj_V1.2E2.2E0.5Cvlib.5Capp.5Cgfx_apps.5Csimple_draw_d1l2.5Ctarget.5Cd1lx_mango_ghs.5Cobj.5Cr_cdi_memory.107::
                        2556 .LDWlin107:
00000b00 ff4760f9       2557 	pushsp	lp-lp
00000b04 01fa           2558 	mov	1,lp
00000b06 6cff0000       2559 	st.h	lp,0[r12]
00000b0a ff6760f9       2560 	popsp	lp-lp
                        2561 .L1552:
                        2562 --867:                     }
                        2563 --868:                     /* Set next free block number to be directly behind the just allocated memory */
                        2564 --869:                     (*nextBlock) = startblk  % lochpmng->NbOfBlock;
00000b0e 630f0d00       2565 	st.w	r1,12[sp]
00000b12 ff4760f9       2566 	pushsp	lp-lp
00000b16 02fd           2567 	sld.w	4[ep],lp
00000b18 63ff1d00       2568 	st.w	lp,28[sp]
00000b1c fe4760f1       2569 	pushsp	ep-ep
00000b20 23f71500       2570 	ld.w	20[sp],ep
00000b24 fd4760e9       2571 	pushsp	r29-r29
00000b28 fff7feea       2572 	divqu	lp,ep,r29
00000b2c 63ef2500       2573 	st.w	r29,36[sp]
00000b30 fd6760e9       2574 	popsp	r29-r29
00000b34 fe6760f1       2575 	popsp	ep-ep
00000b38 23ff1d00       2576 	ld.w	28[sp],lp
00000b3c 79ff0000       2577 	st.h	lp,0[r25]
00000b40 ff6760f9       2578 	popsp	lp-lp
                        2579 --870:                     leave = 1u; 
00000b44 01ea           2580 	mov	1,r29
                        2581 .L1537:
                        2582 --871:                 }
                        2583 --872:                 
                        2584 --873:                 /* Proceed to go through the block index with each iteration */
                        2585 --874:                 if (0u == leave) 
00000b46 e0e9           2586 	cmp	zero,r29
00000b48 ca25*          2587 	bne	.L1527
                        2588 --875:                 {    
                        2589 --876:                     i = (i + 1) % lochpmng->NbOfBlock;
                        2590 --line876
                        2591 ..lin.D.3A.5CRenesas_Electronics.5CD1x_RGL.5Crgl_ghs_D1Lx_obj_V1.2E2.2E0.5Cvlib.5Capp.5Cgfx_apps.5Csimple_draw_d1l2.5Ctarget.5Cd1lx_mango_ghs.5Cobj.5Cr_cdi_memory.108::
                        2592 .LDWlin108:
00000b4a ff4760f9       2593 	pushsp	lp-lp
00000b4e 0bfe0100       2594 	addi	1,r11,lp
00000b52 63ff1d00       2595 	st.w	lp,28[sp]
00000b56 ff6760f9       2596 	popsp	lp-lp
00000b5a 235f1900       2597 	ld.w	24[sp],r11
00000b5e 635f0d00       2598 	st.w	r11,12[sp]
00000b62 025d           2599 	sld.w	4[ep],r11
00000b64 635f1900       2600 	st.w	r11,24[sp]
00000b68 ff4760f9       2601 	pushsp	lp-lp
00000b6c 23ff1100       2602 	ld.w	16[sp],lp
00000b70 fe4760f1       2603 	pushsp	ep-ep

                                                                      Page 44
                                                              C:\Users\YINGAO~1\AppData\Local\Temp\gh_000080o1.si
00000b74 ebfffef2       2604 	divqu	r11,lp,ep
00000b78 63f72100       2605 	st.w	ep,32[sp]
00000b7c fe6760f1       2606 	popsp	ep-ep
00000b80 ff6760f9       2607 	popsp	lp-lp
00000b84 235f1900       2608 	ld.w	24[sp],r11
                        2609 --877:                     if(i == 0u) 
00000b88 e059           2610 	cmp	zero,r11
00000b8a ba05*          2611 	bne	.L1527
                        2612 --878:                     {
                        2613 --879:                         /* we are back to the beginning of the heap */
                        2614 --880:                         /* then reset the startblock and the adjfreeblk variable*/
                        2615 --881:                         /* We do not want to have an allocation divided
                        2616 --882:                            between the end and the start of the heap */
                        2617 --883:                         
                        2618 --884:                         adjfreeblk = 0u;
                        2619 --line884
                        2620 ..lin.D.3A.5CRenesas_Electronics.5CD1x_RGL.5Crgl_ghs_D1Lx_obj_V1.2E2.2E0.5Cvlib.5Capp.5Cgfx_apps.5Csimple_draw_d1l2.5Ctarget.5Cd1lx_mango_ghs.5Cobj.5Cr_cdi_memory.109::
                        2621 .LDWlin109:
00000b8c 006a           2622 	mov	0,r13
                        2623 --885:                         startblk   = 0u;
00000b8e 000a           2624 	mov	0,r1
                        2625 .L1527:
                        2626 --886:                     }
                        2627 --887:                 }
                        2628 --888:             } /* if (0u == leave)*/
                        2629 --889:             /* check for break conditions */
                        2630 --890:             if (0 != leave) 
00000b90 e0e9           2631 	cmp	zero,r29
00000b92 a205*          2632 	be	.L1520
                        2633 --891:             {
                        2634 --892:                 break; 
                        2635 --line892
                        2636 ..lin.D.3A.5CRenesas_Electronics.5CD1x_RGL.5Crgl_ghs_D1Lx_obj_V1.2E2.2E0.5Cvlib.5Capp.5Cgfx_apps.5Csimple_draw_d1l2.5Ctarget.5Cd1lx_mango_ghs.5Cobj.5Cr_cdi_memory.110::
                        2637 .LDWlin110:
00000b94 b50d*          2638 	br	.L1518
                        2639 .L1520:
                        2640 --line789
                        2641 ..lin.D.3A.5CRenesas_Electronics.5CD1x_RGL.5Crgl_ghs_D1Lx_obj_V1.2E2.2E0.5Cvlib.5Capp.5Cgfx_apps.5Csimple_draw_d1l2.5Ctarget.5Cd1lx_mango_ghs.5Cobj.5Cr_cdi_memory.111::
                        2642 .LDWlin111:
00000b96 ff4760f9       2643 	pushsp	lp-lp
00000b9a f9ff0100       2644 	ld.hu	0[r25],lp
00000b9e 5ffa           2645 	add	-1,lp
00000ba0 ff59           2646 	cmp	lp,r11
00000ba2 ff6760f9       2647 	popsp	lp-lp
00000ba6 fa0701fd*      2648 	bne	.L1522
                        2649 .L1518:
                        2650 --893:             } 
                        2651 --894:         } /* while (i != ((*nextBlock) - 1))  */
                        2652 --895:     }
                        2653 --896:     
                        2654 --897: #ifdef MEM_DEBUG    
                        2655 --898:     /*  debug code to make a breakpoint on out of memory possible */
                        2656 --899:     if(!addr)
                        2657 --900:     {
                        2658 --901:         addr = 0u; /* break here */
                        2659 --902:     }
                        2660 --903: #endif
                        2661 --904: #ifdef USE_ROS
                        2662 --905:     R_OS_ThreadMutexUnlock(&locCdiMemLock);
                        2663 --906: #endif
                        2664 --907:     

                                                                      Page 45
                                                              C:\Users\YINGAO~1\AppData\Local\Temp\gh_000080o1.si
                        2665 --908:     return (void *)addr;
                        2666 --line908
                        2667 ..lin.D.3A.5CRenesas_Electronics.5CD1x_RGL.5Crgl_ghs_D1Lx_obj_V1.2E2.2E0.5Cvlib.5Capp.5Cgfx_apps.5Csimple_draw_d1l2.5Ctarget.5Cd1lx_mango_ghs.5Cobj.5Cr_cdi_memory.112::
                        2668 .LDWlin112:
00000baa 0000           2669 	nop
                        2670 --	    .ef
                        2671 .LDW33:
00000bac 0e50           2672 	mov	r14,r10
00000bae 4e06ff70       2673 	dispose	7,{r25,r26,r27,r28,r29,r31},[lp]
                        2674 	.type	_R_CDI_AllocAlign,@function
                        2675 	.size	_R_CDI_AllocAlign,.-_R_CDI_AllocAlign
                        2676 	.align	2
                        2677 .LDW43:
                        2678 --_addr	r14	local
                        2679 --_allocNbBlocks	r28	local
                        2680 --_adjfreeblk	r13	local
                        2681 --_tmp	r27	local
                        2682 --_i	r11	local
                        2683 --_align	r9	local
                        2684 --_alignOffset	0[sp]	local
                        2685 --_lochpmng	ep	local
                        2686 --_locblkindexlist	8[sp]	local
                        2687 --_startblk	r1	local
                        2688 --_currentindex	r12	local
                        2689 --_freeCount	r26	local
                        2690 --_nextBlock	r25	local
                        2691 --_leave	r29	local
                        2692 --_prevBlkIndex	4[sp]	local
                        2693 --_nextBlkIndex	6[sp]	local
                        2694 --_virtualIndex	lp	local
                        2695 
                        2696 --_HeapMng	r10	param
                        2697 --_Size	20[sp]	param
                        2698 --_Alignment	16[sp]	param
                        2699 
                        2700 	.section ".bss","awb"
                        2701 .L1736:
                        2702 	.type	.L1736,@object
                        2703 	.size	.L1736,0
                        2704 	.data
                        2705 	.text
                        2706 
                        2707 --909: }
                        2708 
                        2709 --911: /*******************************************************************************
                        2710 --912:  Function: R_CDI_HeapResetNextFreeBlockNb
                        2711 --913: */
                        2712 --914: uint32_t R_CDI_HeapResetNextFreeBlockNb(r_cdi_HpType_t type)
                        2713 	.align	2
                        2714 	.align	2
                        2715 	.global	_R_CDI_HeapResetNextFreeBlockNb
                        2716 _R_CDI_HeapResetNextFreeBlockNb:
00000bb2 0668           2717 	mov	r6,r13
00000bb4 210600000000*  2718 	mov	_locNextCPUFreeBlockNb,r1
                        2719 --	    .bf
                        2720 .LDW53:
                        2721 --915: {
                        2722 --916:     uint32_t err = 0u;
00000bba 0072           2723 	mov	0,r14
                        2724 --917:     
                        2725 --918:     switch (type)

                                                                      Page 46
                                                              C:\Users\YINGAO~1\AppData\Local\Temp\gh_000080o1.si
00000bbc 616a           2726 	cmp	1,r13
00000bbe d105*          2727 	bl	.L1992
00000bc0 f20d*          2728 	be	.L1994
00000bc2 626a           2729 	cmp	2,r13
00000bc4 9a15*          2730 	bne	.L1995
00000bc6 850d*          2731 	br	.L1993
                        2732 .L1992:
                        2733 --919:     {
                        2734 --920:     case CPU:
                        2735 --921:         locNextCPUFreeBlockNb = 1u;
                        2736 --line921
                        2737 ..lin.D.3A.5CRenesas_Electronics.5CD1x_RGL.5Crgl_ghs_D1Lx_obj_V1.2E2.2E0.5Cvlib.5Capp.5Cgfx_apps.5Csimple_draw_d1l2.5Ctarget.5Cd1lx_mango_ghs.5Cobj.5Cr_cdi_memory.113::
                        2738 .LDWlin113:
00000bc8 2b0600000000*  2739 	mov	_locNextCPUFreeBlockNb,r11
00000bce 0162           2740 	mov	1,r12
00000bd0 6b670100       2741 	st.w	r12,0[r11]
00000bd4 b50d*          2742 	br	.L1990
                        2743 .L1993:
                        2744 --922:         break;
                        2745 --923:     case SPECIAL_MODE:
                        2746 --924:         locNextSpecialModeFreeBlockNb = 1u;
                        2747 --line924
                        2748 ..lin.D.3A.5CRenesas_Electronics.5CD1x_RGL.5Crgl_ghs_D1Lx_obj_V1.2E2.2E0.5Cvlib.5Capp.5Cgfx_apps.5Csimple_draw_d1l2.5Ctarget.5Cd1lx_mango_ghs.5Cobj.5Cr_cdi_memory.114::
                        2749 .LDWlin114:
00000bd6 0162           2750 	mov	1,r12
00000bd8 61670900       2751 	st.w	r12,8[r1]
00000bdc f505*          2752 	br	.L1990
                        2753 .L1994:
                        2754 --925:         break;
                        2755 --926:     case VIDEO:
                        2756 --927:         locNextVideoFreeBlockNb = 1u;
                        2757 --line927
                        2758 ..lin.D.3A.5CRenesas_Electronics.5CD1x_RGL.5Crgl_ghs_D1Lx_obj_V1.2E2.2E0.5Cvlib.5Capp.5Cgfx_apps.5Csimple_draw_d1l2.5Ctarget.5Cd1lx_mango_ghs.5Cobj.5Cr_cdi_memory.115::
                        2759 .LDWlin115:
00000bde 0162           2760 	mov	1,r12
00000be0 61670500       2761 	st.w	r12,4[r1]
00000be4 b505*          2762 	br	.L1990
                        2763 .L1995:
                        2764 --928:         break;
                        2765 --929:     default:
                        2766 --930:         err = 1u;
                        2767 --line930
                        2768 ..lin.D.3A.5CRenesas_Electronics.5CD1x_RGL.5Crgl_ghs_D1Lx_obj_V1.2E2.2E0.5Cvlib.5Capp.5Cgfx_apps.5Csimple_draw_d1l2.5Ctarget.5Cd1lx_mango_ghs.5Cobj.5Cr_cdi_memory.116::
                        2769 .LDWlin116:
00000be6 0172           2770 	mov	1,r14
00000be8 0000           2771 	nop
                        2772 .L1990:
                        2773 --931:         break;
                        2774 --932:     }
                        2775 --933:     return err;
00000bea 0e50           2776 	mov	r14,r10
                        2777 --	    .ef
                        2778 .LDW63:
00000bec 7f00           2779 	jmp	[lp]
                        2780 	.type	_R_CDI_HeapResetNextFreeBlockNb,@function
                        2781 	.size	_R_CDI_HeapResetNextFreeBlockNb,.-_R_CDI_HeapResetNextFreeBlockNb
                        2782 	.align	2
                        2783 .LDW73:
                        2784 --_err	r14	local
                        2785 
                        2786 --_type	r13	param

                                                                      Page 47
                                                              C:\Users\YINGAO~1\AppData\Local\Temp\gh_000080o1.si
                        2787 
                        2788 	.data
                        2789 	.text
                        2790 
                        2791 --934: }
                        2792 
                        2793 --936: /*******************************************************************************
                        2794 --937:  Function: R_CDI_Free
                        2795 --938: */
                        2796 --939:  uint32_t R_CDI_Free(uint32_t Addr, r_cdi_Heap_t *HeapMng)
                        2797 	.align	2
                        2798 	.align	2
                        2799 	.global	_R_CDI_Free
                        2800 _R_CDI_Free:
00000bee 8007c110       2801 	prepare	{r27,r28,r29},0
00000bf2 0658           2802 	mov	r6,r11
00000bf4 0770           2803 	mov	r7,r14
                        2804 --	    .bf
                        2805 .LDW83:
                        2806 --940: {
                        2807 --941:     
                        2808 --942:     uint32_t            i;
                        2809 --943:     uint32_t            err = 0u;
00000bf6 000a           2810 	mov	0,r1
                        2811 --944:     int32_t             blknb;
                        2812 --945:     r_cdi_Heap_t        *lochpmng;
                        2813 --946:     r_cdi_HpBlkIndex_t  *locblkindexlist;
                        2814 --947:     r_cdi_HpBlkIndex_t  blkindex;
                        2815 --948:     r_cdi_HpBlkIndex_t  *freeCount;
                        2816 --949:     r_cdi_HpBlkIndex_t  *nextBlock;
                        2817 --951: #ifdef USE_ROS
                        2818 --952:     R_OS_ThreadMutexLock(&locCdiMemLock);
                        2819 --953: #endif
                        2820 --954:     if(Addr != 0u)
00000bf8 e059           2821 	cmp	zero,r11
00000bfa e245*          2822 	be	.L2078
                        2823 --955:     {
                        2824 --956:         lochpmng  = HeapMng;
                        2825 --line956
                        2826 ..lin.D.3A.5CRenesas_Electronics.5CD1x_RGL.5Crgl_ghs_D1Lx_obj_V1.2E2.2E0.5Cvlib.5Capp.5Cgfx_apps.5Csimple_draw_d1l2.5Ctarget.5Cd1lx_mango_ghs.5Cobj.5Cr_cdi_memory.117::
                        2827 .LDWlin117:
00000bfc 0ef0           2828 	mov	r14,ep
                        2829 --957:         freeCount = &(HeapMng->FreeBlocks);
00000bfe 0e461200       2830 	addi	18,r14,r8
                        2831 --958:         nextBlock = &(HeapMng->NextFreeBlockNb);
00000c02 0eee1400       2832 	addi	20,r14,r29
                        2833 --959:     
                        2834 --960:         /* Calculate block number from addr */
                        2835 --961:         blknb =  (Addr - (lochpmng->BaseAddr)) / (lochpmng->BlockSize);
00000c06 006d           2836 	sld.w	0[ep],r13
00000c08 8b69           2837 	subr	r11,r13
00000c0a 0d60           2838 	mov	r13,r12
00000c0c 046d           2839 	sld.w	8[ep],r13
00000c0e ed67fe02       2840 	divqu	r13,r12,zero
                        2841 --962:         locblkindexlist = lochpmng->BlockIdxList;
00000c12 0655           2842 	sld.w	12[ep],r10
                        2843 --963:         blkindex = locblkindexlist[blknb];
00000c14 0c68           2844 	mov	r12,r13
00000c16 c16a           2845 	shl	1,r13
00000c18 ca69           2846 	add	r10,r13
00000c1a ed4f0100       2847 	ld.hu	0[r13],r9

                                                                      Page 48
                                                              C:\Users\YINGAO~1\AppData\Local\Temp\gh_000080o1.si
                        2848 --964:         
                        2849 --965:         /* If this memory manager is used in an environment, 
                        2850 --966:            where the pointer of the allocated memory are aligned upwards outside of the CDI, 
                        2851 --967:            the resulting pointer might leaved the first block of several that are assigned to this allocation operation. */
                        2852 --968:         /* In such an environment, the "Free" routine must first seach the lowest index number 
                        2853 --969:            with the same Block ID before starting the cleanup. */
                        2854 --971:         if(Addr < lochpmng->BaseAddr)
00000c1e 006d           2855 	sld.w	0[ep],r13
00000c20 ed59           2856 	cmp	r13,r11
00000c22 b905*          2857 	bnl	.L2080
                        2858 --972:         {
                        2859 --973:             err = 2u;   /* address is below managed range of this Heap */
                        2860 --line973
                        2861 ..lin.D.3A.5CRenesas_Electronics.5CD1x_RGL.5Crgl_ghs_D1Lx_obj_V1.2E2.2E0.5Cvlib.5Capp.5Cgfx_apps.5Csimple_draw_d1l2.5Ctarget.5Cd1lx_mango_ghs.5Cobj.5Cr_cdi_memory.118::
                        2862 .LDWlin118:
00000c24 020a           2863 	mov	2,r1
00000c26 8535*          2864 	br	.L2078
                        2865 .L2080:
                        2866 --974:         }
                        2867 --975:         else if (Addr >= (lochpmng->BaseAddr + (lochpmng->BlockSize*lochpmng->NbOfBlock)))
                        2868 --line975
                        2869 ..lin.D.3A.5CRenesas_Electronics.5CD1x_RGL.5Crgl_ghs_D1Lx_obj_V1.2E2.2E0.5Cvlib.5Capp.5Cgfx_apps.5Csimple_draw_d1l2.5Ctarget.5Cd1lx_mango_ghs.5Cobj.5Cr_cdi_memory.119::
                        2870 .LDWlin119:
00000c28 026d           2871 	sld.w	4[ep],r13
00000c2a 04e5           2872 	sld.w	8[ep],r28
00000c2c fc6f2202       2873 	mulu	r28,r13,zero
00000c30 00e5           2874 	sld.w	0[ep],r28
00000c32 dc69           2875 	add	r28,r13
00000c34 ed59           2876 	cmp	r13,r11
00000c36 b105*          2877 	bl	.L2083
                        2878 --976:         {
                        2879 --977:             err = 2u;   /* address is above managed range of this Heap */
                        2880 --line977
                        2881 ..lin.D.3A.5CRenesas_Electronics.5CD1x_RGL.5Crgl_ghs_D1Lx_obj_V1.2E2.2E0.5Cvlib.5Capp.5Cgfx_apps.5Csimple_draw_d1l2.5Ctarget.5Cd1lx_mango_ghs.5Cobj.5Cr_cdi_memory.120::
                        2882 .LDWlin120:
00000c38 020a           2883 	mov	2,r1
00000c3a e525*          2884 	br	.L2078
                        2885 .L2083:
                        2886 --978:         }
                        2887 --979:         else if (blkindex == 0u)
                        2888 --line979
                        2889 ..lin.D.3A.5CRenesas_Electronics.5CD1x_RGL.5Crgl_ghs_D1Lx_obj_V1.2E2.2E0.5Cvlib.5Capp.5Cgfx_apps.5Csimple_draw_d1l2.5Ctarget.5Cd1lx_mango_ghs.5Cobj.5Cr_cdi_memory.121::
                        2890 .LDWlin121:
00000c3c e049           2891 	cmp	zero,r9
00000c3e ba05*          2892 	bne	.L2086
                        2893 --980:         {
                        2894 --981:             err = 2u;   /* already free */
                        2895 --line981
                        2896 ..lin.D.3A.5CRenesas_Electronics.5CD1x_RGL.5Crgl_ghs_D1Lx_obj_V1.2E2.2E0.5Cvlib.5Capp.5Cgfx_apps.5Csimple_draw_d1l2.5Ctarget.5Cd1lx_mango_ghs.5Cobj.5Cr_cdi_memory.122::
                        2897 .LDWlin122:
00000c40 020a           2898 	mov	2,r1
00000c42 a525*          2899 	br	.L2078
                        2900 .L2086:
                        2901 --982:         }
                        2902 --983:         else
                        2903 --984:         {
                        2904 --985:             (*nextBlock) = blknb;
                        2905 --line985
                        2906 ..lin.D.3A.5CRenesas_Electronics.5CD1x_RGL.5Crgl_ghs_D1Lx_obj_V1.2E2.2E0.5Cvlib.5Capp.5Cgfx_apps.5Csimple_draw_d1l2.5Ctarget.5Cd1lx_mango_ghs.5Cobj.5Cr_cdi_memory.123::
                        2907 .LDWlin123:
00000c44 7d670000       2908 	st.h	r12,0[r29]

                                                                      Page 49
                                                              C:\Users\YINGAO~1\AppData\Local\Temp\gh_000080o1.si
                        2909 --986:             i = blknb;
00000c48 0c68           2910 	mov	r12,r13
                        2911 --987:             while (locblkindexlist[i] == blkindex)
00000c4a 8515*          2912 	br	.L2089
                        2913 .L2091:
                        2914 --988:             {
                        2915 --989:                 locblkindexlist[i] = 0u;
                        2916 --line989
                        2917 ..lin.D.3A.5CRenesas_Electronics.5CD1x_RGL.5Crgl_ghs_D1Lx_obj_V1.2E2.2E0.5Cvlib.5Capp.5Cgfx_apps.5Csimple_draw_d1l2.5Ctarget.5Cd1lx_mango_ghs.5Cobj.5Cr_cdi_memory.124::
                        2918 .LDWlin124:
00000c4c 0de0           2919 	mov	r13,r28
00000c4e c1e2           2920 	shl	1,r28
00000c50 cae1           2921 	add	r10,r28
00000c52 7c070000       2922 	st.h	zero,0[r28]
                        2923 --990:                 i++;
00000c56 416a           2924 	add	1,r13
                        2925 --991:                 (*freeCount)++;
00000c58 e8e70100       2926 	ld.hu	0[r8],r28
00000c5c 41e2           2927 	add	1,r28
00000c5e 68e70000       2928 	st.h	r28,0[r8]
                        2929 --993:                 /* Stop deallocation if we leave the range of the block index list */
                        2930 --994:                 if (i>lochpmng->NbOfBlock)
00000c62 02e5           2931 	sld.w	4[ep],r28
00000c64 fc69           2932 	cmp	r28,r13
00000c66 a305*          2933 	bnh	.L2089
                        2934 --995:                 {
                        2935 --996:                     break;
                        2936 --line996
                        2937 ..lin.D.3A.5CRenesas_Electronics.5CD1x_RGL.5Crgl_ghs_D1Lx_obj_V1.2E2.2E0.5Cvlib.5Capp.5Cgfx_apps.5Csimple_draw_d1l2.5Ctarget.5Cd1lx_mango_ghs.5Cobj.5Cr_cdi_memory.125::
                        2938 .LDWlin125:
00000c68 850d*          2939 	br	.L2094
                        2940 .L2089:
                        2941 --line987
                        2942 ..lin.D.3A.5CRenesas_Electronics.5CD1x_RGL.5Crgl_ghs_D1Lx_obj_V1.2E2.2E0.5Cvlib.5Capp.5Cgfx_apps.5Csimple_draw_d1l2.5Ctarget.5Cd1lx_mango_ghs.5Cobj.5Cr_cdi_memory.126::
                        2943 .LDWlin126:
00000c6a 0de0           2944 	mov	r13,r28
00000c6c c1e2           2945 	shl	1,r28
00000c6e cae1           2946 	add	r10,r28
00000c70 fce70100       2947 	ld.hu	0[r28],r28
00000c74 e9e1           2948 	cmp	r9,r28
00000c76 b2ed*          2949 	be	.L2091
                        2950 .L2094:
                        2951 --997:                 }
                        2952 --998:             }
                        2953 --999:             /* Reset block index to zero, if all blocks are deallocated */
                        2954 --1000:             if (lochpmng->NbOfBlock == HeapMng->FreeBlocks)
                        2955 --line1000
                        2956 ..lin.D.3A.5CRenesas_Electronics.5CD1x_RGL.5Crgl_ghs_D1Lx_obj_V1.2E2.2E0.5Cvlib.5Capp.5Cgfx_apps.5Csimple_draw_d1l2.5Ctarget.5Cd1lx_mango_ghs.5Cobj.5Cr_cdi_memory.127::
                        2957 .LDWlin127:
00000c78 eee71300       2958 	ld.hu	18[r14],r28
00000c7c 02dd           2959 	sld.w	4[ep],r27
00000c7e fcd9           2960 	cmp	r28,r27
00000c80 ba05*          2961 	bne	.L2078
                        2962 --1001:             {
                        2963 --1002:                 HeapMng->NextFreeBlockNb = 0u;
                        2964 --line1002
                        2965 ..lin.D.3A.5CRenesas_Electronics.5CD1x_RGL.5Crgl_ghs_D1Lx_obj_V1.2E2.2E0.5Cvlib.5Capp.5Cgfx_apps.5Csimple_draw_d1l2.5Ctarget.5Cd1lx_mango_ghs.5Cobj.5Cr_cdi_memory.128::
                        2966 .LDWlin128:
00000c82 6e071400       2967 	st.h	zero,20[r14]
                        2968 .L2078:
                        2969 --1003:             }

                                                                      Page 50
                                                              C:\Users\YINGAO~1\AppData\Local\Temp\gh_000080o1.si
                        2970 --1004:         } 
                        2971 --1005:     }
                        2972 --1006: #ifdef USE_ROS
                        2973 --1007:     R_OS_ThreadMutexUnlock(&locCdiMemLock);
                        2974 --1008: #endif
                        2975 --1010:     return err;
00000c86 0000           2976 	nop
                        2977 --	    .ef
                        2978 .LDW93:
00000c88 0150           2979 	mov	r1,r10
00000c8a 4006df10       2980 	dispose	0,{r27,r28,r29},[lp]
                        2981 	.type	_R_CDI_Free,@function
                        2982 	.size	_R_CDI_Free,.-_R_CDI_Free
                        2983 	.align	2
                        2984 .LDW04:
                        2985 --_i	r13	local
                        2986 --_err	r1	local
                        2987 --_blknb	r12	local
                        2988 --_lochpmng	ep	local
                        2989 --_locblkindexlist	r10	local
                        2990 --_blkindex	r9	local
                        2991 --_freeCount	r8	local
                        2992 --_nextBlock	r29	local
                        2993 
                        2994 --_Addr	r11	param
                        2995 --_HeapMng	r14	param
                        2996 
                        2997 	.section ".bss","awb"
                        2998 .L2170:
                        2999 	.type	.L2170,@object
                        3000 	.size	.L2170,0
                        3001 	.data
                        3002 	.text
                        3003 
                        3004 --1011: }
                        3005 
                        3006 --1014: /*******************************************************************************
                        3007 --1015:  Function: R_CDI_HeapFree
                        3008 --1016: */
                        3009 --1017: uint32_t R_CDI_HeapFree(uint32_t addr, r_cdi_HpType_t type)
                        3010 	.align	2
                        3011 	.align	2
                        3012 	.global	_R_CDI_HeapFree
                        3013 _R_CDI_HeapFree:
00000c8e 8007c110       3014 	prepare	{r27,r28,r29},0
00000c92 210600000000*  3015 	mov	_locCpuHeapMng,r1
00000c98 06e8           3016 	mov	r6,r29
00000c9a 07e0           3017 	mov	r7,r28
00000c9c 21de1400       3018 	movea	20,r1,r27
                        3019 --	    .bf
                        3020 .LDW14:
                        3021 --1018: {
                        3022 --1019:     
                        3023 --1020:     uint32_t i, vidsize;
                        3024 --1021:     uint32_t err = 0u;
00000ca0 0052           3025 	mov	0,r10
                        3026 --1022:     int32_t blknb;
                        3027 --1023:     r_cdi_HeapMng_t      *lochpmng;
                        3028 --1024:     r_cdi_HpBlkIndex_t   *locblkindexlist;
                        3029 --1025:     r_cdi_HpBlkIndex_t   blkindex;
                        3030 --1026:     uint32_t           *freeCount;

                                                                      Page 51
                                                              C:\Users\YINGAO~1\AppData\Local\Temp\gh_000080o1.si
                        3031 --1027:     uint32_t           *nextBlock;
                        3032 --1029: #ifdef USE_ROS
                        3033 --1030:     R_OS_ThreadMutexLock(&locCdiMemLock);
                        3034 --1031: #endif
                        3035 --1032:     if(addr != 0u)
00000ca2 e0e9           3036 	cmp	zero,r29
00000ca4 a275*          3037 	be	.L2259
                        3038 --1033:     {
                        3039 --1034:         
                        3040 --1035:         /* Check memory type and get the pointer to the corresponding heap manager.*/
                        3041 --1036:         /* if the type is incorrect then 1 is returned */
                        3042 --1037:         /* Have to add check on addr, because if short in CPU memory Video is allocated*/
                        3043 --1038:         /* No other way to know it... */
                        3044 --1039:         vidsize = locVidHeapMng.BlockSize*locVidHeapMng.NbOfBlock;
                        3045 --line1039
                        3046 ..lin.D.3A.5CRenesas_Electronics.5CD1x_RGL.5Crgl_ghs_D1Lx_obj_V1.2E2.2E0.5Cvlib.5Capp.5Cgfx_apps.5Csimple_draw_d1l2.5Ctarget.5Cd1lx_mango_ghs.5Cobj.5Cr_cdi_memory.129::
                        3047 .LDWlin129:
00000ca6 21371900       3048 	ld.w	24[r1],r6
00000caa 21771d00       3049 	ld.w	28[r1],r14
00000cae e6772202       3050 	mulu	r6,r14,zero
00000cb2 0e30           3051 	mov	r14,r6
                        3052 --1040:         if((type == VIDEO) || ((addr >= locVidHeapMng.BaseAddr) && (addr < (locVidHeapMng.BaseAddr + vidsize))))
00000cb4 61e2           3053 	cmp	1,r28
00000cb6 a20d*          3054 	be	.L2262
00000cb8 21771500       3055 	ld.w	20[r1],r14
00000cbc eee9           3056 	cmp	r14,r29
00000cbe e10d*          3057 	bl	.L2261
00000cc0 21771500       3058 	ld.w	20[r1],r14
00000cc4 c671           3059 	add	r6,r14
00000cc6 eee9           3060 	cmp	r14,r29
00000cc8 990d*          3061 	bnl	.L2261
                        3062 .L2262:
                        3063 --1041:         {
                        3064 --1042:             lochpmng = &locVidHeapMng;
                        3065 --line1042
                        3066 ..lin.D.3A.5CRenesas_Electronics.5CD1x_RGL.5Crgl_ghs_D1Lx_obj_V1.2E2.2E0.5Cvlib.5Capp.5Cgfx_apps.5Csimple_draw_d1l2.5Ctarget.5Cd1lx_mango_ghs.5Cobj.5Cr_cdi_memory.130::
                        3067 .LDWlin130:
00000cca 1bf0           3068 	mov	r27,ep
                        3069 --1043:             freeCount = &locFreeVideoBlocks;
00000ccc 2c0600000000*  3070 	mov	_locFreeVideoBlocks,r12
                        3071 --1044:             nextBlock = &locNextVideoFreeBlockNb;
00000cd2 270600000000*  3072 	mov	_locNextVideoFreeBlockNb,r7
00000cd8 951d*          3073 	br	.L2265
                        3074 .L2261:
                        3075 --1045:         } 
                        3076 --1046:         else if(type == SPECIAL_MODE)
                        3077 --line1046
                        3078 ..lin.D.3A.5CRenesas_Electronics.5CD1x_RGL.5Crgl_ghs_D1Lx_obj_V1.2E2.2E0.5Cvlib.5Capp.5Cgfx_apps.5Csimple_draw_d1l2.5Ctarget.5Cd1lx_mango_ghs.5Cobj.5Cr_cdi_memory.131::
                        3079 .LDWlin131:
00000cda 62e2           3080 	cmp	2,r28
00000cdc aa0d*          3081 	bne	.L2266
                        3082 --1047:         {
                        3083 --1048:             lochpmng = &locSpecialModeHeapMng;
                        3084 --line1048
                        3085 ..lin.D.3A.5CRenesas_Electronics.5CD1x_RGL.5Crgl_ghs_D1Lx_obj_V1.2E2.2E0.5Cvlib.5Capp.5Cgfx_apps.5Csimple_draw_d1l2.5Ctarget.5Cd1lx_mango_ghs.5Cobj.5Cr_cdi_memory.132::
                        3086 .LDWlin132:
00000cde 21f62800       3087 	movea	40,r1,ep
                        3088 --1049:             freeCount = &locFreeSpecialModeBlocks;
00000ce2 2c0600000000*  3089 	mov	_locFreeSpecialModeBlocks,r12
                        3090 --1050:             nextBlock = &locNextSpecialModeFreeBlockNb;
00000ce8 270600000000*  3091 	mov	_locNextSpecialModeFreeBlockNb,r7

                                                                      Page 52
                                                              C:\Users\YINGAO~1\AppData\Local\Temp\gh_000080o1.si
00000cee e50d*          3092 	br	.L2265
                        3093 .L2266:
                        3094 --1051:         } 
                        3095 --1052:         else 
                        3096 --1053:         {
                        3097 --1054:             if(type == CPU)
                        3098 --line1054
                        3099 ..lin.D.3A.5CRenesas_Electronics.5CD1x_RGL.5Crgl_ghs_D1Lx_obj_V1.2E2.2E0.5Cvlib.5Capp.5Cgfx_apps.5Csimple_draw_d1l2.5Ctarget.5Cd1lx_mango_ghs.5Cobj.5Cr_cdi_memory.133::
                        3100 .LDWlin133:
00000cf0 e0e1           3101 	cmp	zero,r28
00000cf2 ba0d*          3102 	bne	.L2269
                        3103 --1055: {
                        3104 --1056:                 lochpmng = &locCpuHeapMng;
                        3105 --line1056
                        3106 ..lin.D.3A.5CRenesas_Electronics.5CD1x_RGL.5Crgl_ghs_D1Lx_obj_V1.2E2.2E0.5Cvlib.5Capp.5Cgfx_apps.5Csimple_draw_d1l2.5Ctarget.5Cd1lx_mango_ghs.5Cobj.5Cr_cdi_memory.134::
                        3107 .LDWlin134:
00000cf4 3e0600000000*  3108 	mov	_locCpuHeapMng,ep
                        3109 --1057:                 freeCount = &locFreeCPUBlocks;
00000cfa 2c0600000000*  3110 	mov	_locFreeCPUBlocks,r12
                        3111 --1058:                 nextBlock = &locNextCPUFreeBlockNb;
00000d00 270600000000*  3112 	mov	_locNextCPUFreeBlockNb,r7
00000d06 a505*          3113 	br	.L2265
                        3114 .L2269:
                        3115 --1059:             } 
                        3116 --1060:             else 
                        3117 --1061:             {
                        3118 --1062:                 err = 1u;
                        3119 --line1062
                        3120 ..lin.D.3A.5CRenesas_Electronics.5CD1x_RGL.5Crgl_ghs_D1Lx_obj_V1.2E2.2E0.5Cvlib.5Capp.5Cgfx_apps.5Csimple_draw_d1l2.5Ctarget.5Cd1lx_mango_ghs.5Cobj.5Cr_cdi_memory.135::
                        3121 .LDWlin135:
00000d08 0152           3122 	mov	1,r10
                        3123 .L2265:
                        3124 --1063:             }
                        3125 --1064:         }
                        3126 --1065:         
                        3127 --1066:         if (err == 0u)
00000d0a e051           3128 	cmp	zero,r10
00000d0c ea3d*          3129 	bne	.L2259
                        3130 --1067:         {
                        3131 --1068:             /* Calculate block number from addr */
                        3132 --1069:             blknb =  (addr - (lochpmng->BaseAddr)) / (lochpmng->BlockSize);
                        3133 --line1069
                        3134 ..lin.D.3A.5CRenesas_Electronics.5CD1x_RGL.5Crgl_ghs_D1Lx_obj_V1.2E2.2E0.5Cvlib.5Capp.5Cgfx_apps.5Csimple_draw_d1l2.5Ctarget.5Cd1lx_mango_ghs.5Cobj.5Cr_cdi_memory.136::
                        3135 .LDWlin136:
00000d0e 0075           3136 	sld.w	0[ep],r14
00000d10 9d71           3137 	subr	r29,r14
00000d12 0e48           3138 	mov	r14,r9
00000d14 0475           3139 	sld.w	8[ep],r14
00000d16 ee4ffe02       3140 	divqu	r14,r9,zero
                        3141 --1070:             locblkindexlist = lochpmng->BlockIndexList;
00000d1a 085d           3142 	sld.w	16[ep],r11
                        3143 --1071:             blkindex = locblkindexlist[blknb];
00000d1c 0970           3144 	mov	r9,r14
00000d1e c172           3145 	shl	1,r14
00000d20 cb71           3146 	add	r11,r14
00000d22 ee470100       3147 	ld.hu	0[r14],r8
                        3148 --1072:             
                        3149 --1073:             if(addr < lochpmng->BaseAddr)
00000d26 0075           3150 	sld.w	0[ep],r14
00000d28 eee9           3151 	cmp	r14,r29
00000d2a b905*          3152 	bnl	.L2274

                                                                      Page 53
                                                              C:\Users\YINGAO~1\AppData\Local\Temp\gh_000080o1.si
                        3153 --1074:             {
                        3154 --1075:                 err = 2u;   /* address is below managed range of this Heap */
                        3155 --line1075
                        3156 ..lin.D.3A.5CRenesas_Electronics.5CD1x_RGL.5Crgl_ghs_D1Lx_obj_V1.2E2.2E0.5Cvlib.5Capp.5Cgfx_apps.5Csimple_draw_d1l2.5Ctarget.5Cd1lx_mango_ghs.5Cobj.5Cr_cdi_memory.137::
                        3157 .LDWlin137:
00000d2c 0252           3158 	mov	2,r10
00000d2e d52d*          3159 	br	.L2259
                        3160 .L2274:
                        3161 --1076:             }
                        3162 --1077:             else if (addr >= (lochpmng->BaseAddr + (lochpmng->BlockSize*lochpmng->NbOfBlock)))
                        3163 --line1077
                        3164 ..lin.D.3A.5CRenesas_Electronics.5CD1x_RGL.5Crgl_ghs_D1Lx_obj_V1.2E2.2E0.5Cvlib.5Capp.5Cgfx_apps.5Csimple_draw_d1l2.5Ctarget.5Cd1lx_mango_ghs.5Cobj.5Cr_cdi_memory.138::
                        3165 .LDWlin138:
00000d30 0275           3166 	sld.w	4[ep],r14
00000d32 046d           3167 	sld.w	8[ep],r13
00000d34 ed772202       3168 	mulu	r13,r14,zero
00000d38 006d           3169 	sld.w	0[ep],r13
00000d3a cd71           3170 	add	r13,r14
00000d3c eee9           3171 	cmp	r14,r29
00000d3e b105*          3172 	bl	.L2277
                        3173 --1078:             {
                        3174 --1079:                 err = 2u;   /* address is above managed range of this Heap */
                        3175 --line1079
                        3176 ..lin.D.3A.5CRenesas_Electronics.5CD1x_RGL.5Crgl_ghs_D1Lx_obj_V1.2E2.2E0.5Cvlib.5Capp.5Cgfx_apps.5Csimple_draw_d1l2.5Ctarget.5Cd1lx_mango_ghs.5Cobj.5Cr_cdi_memory.139::
                        3177 .LDWlin139:
00000d40 0252           3178 	mov	2,r10
00000d42 b525*          3179 	br	.L2259
                        3180 .L2277:
                        3181 --1080:             }
                        3182 --1081:             else if (blkindex == 0u)
                        3183 --line1081
                        3184 ..lin.D.3A.5CRenesas_Electronics.5CD1x_RGL.5Crgl_ghs_D1Lx_obj_V1.2E2.2E0.5Cvlib.5Capp.5Cgfx_apps.5Csimple_draw_d1l2.5Ctarget.5Cd1lx_mango_ghs.5Cobj.5Cr_cdi_memory.140::
                        3185 .LDWlin140:
00000d44 e041           3186 	cmp	zero,r8
00000d46 ba05*          3187 	bne	.L2280
                        3188 --1082:             {
                        3189 --1083:                 err = 2u;   /* already free */
                        3190 --line1083
                        3191 ..lin.D.3A.5CRenesas_Electronics.5CD1x_RGL.5Crgl_ghs_D1Lx_obj_V1.2E2.2E0.5Cvlib.5Capp.5Cgfx_apps.5Csimple_draw_d1l2.5Ctarget.5Cd1lx_mango_ghs.5Cobj.5Cr_cdi_memory.141::
                        3192 .LDWlin141:
00000d48 0252           3193 	mov	2,r10
00000d4a f51d*          3194 	br	.L2259
                        3195 .L2280:
                        3196 --1084:             }
                        3197 --1085:             else
                        3198 --1086:             {
                        3199 --1087:                 if((*nextBlock)> (uint32_t)blknb)
                        3200 --line1087
                        3201 ..lin.D.3A.5CRenesas_Electronics.5CD1x_RGL.5Crgl_ghs_D1Lx_obj_V1.2E2.2E0.5Cvlib.5Capp.5Cgfx_apps.5Csimple_draw_d1l2.5Ctarget.5Cd1lx_mango_ghs.5Cobj.5Cr_cdi_memory.142::
                        3202 .LDWlin142:
00000d4c 27770100       3203 	ld.w	0[r7],r14
00000d50 e971           3204 	cmp	r9,r14
00000d52 b305*          3205 	bnh	.L2283
                        3206 --1088:                 {
                        3207 --1089:                     (*nextBlock) = blknb;
                        3208 --line1089
                        3209 ..lin.D.3A.5CRenesas_Electronics.5CD1x_RGL.5Crgl_ghs_D1Lx_obj_V1.2E2.2E0.5Cvlib.5Capp.5Cgfx_apps.5Csimple_draw_d1l2.5Ctarget.5Cd1lx_mango_ghs.5Cobj.5Cr_cdi_memory.143::
                        3210 .LDWlin143:
00000d54 674f0100       3211 	st.w	r9,0[r7]
                        3212 .L2283:
                        3213 --1090:                 }

                                                                      Page 54
                                                              C:\Users\YINGAO~1\AppData\Local\Temp\gh_000080o1.si
                        3214 --1091:                 
                        3215 --1092:                 i = blknb;
00000d58 0970           3216 	mov	r9,r14
                        3217 --1093:                 while (locblkindexlist[i] == blkindex)
00000d5a 8515*          3218 	br	.L2285
                        3219 .L2287:
                        3220 --1094:                 {
                        3221 --1095:                     locblkindexlist[i] = 0u;
                        3222 --line1095
                        3223 ..lin.D.3A.5CRenesas_Electronics.5CD1x_RGL.5Crgl_ghs_D1Lx_obj_V1.2E2.2E0.5Cvlib.5Capp.5Cgfx_apps.5Csimple_draw_d1l2.5Ctarget.5Cd1lx_mango_ghs.5Cobj.5Cr_cdi_memory.144::
                        3224 .LDWlin144:
00000d5c 0e68           3225 	mov	r14,r13
00000d5e c16a           3226 	shl	1,r13
00000d60 cb69           3227 	add	r11,r13
00000d62 6d070000       3228 	st.h	zero,0[r13]
                        3229 --1096:                     i++;
00000d66 4172           3230 	add	1,r14
                        3231 --1097:                     (*freeCount)++;
00000d68 2c6f0100       3232 	ld.w	0[r12],r13
00000d6c 416a           3233 	add	1,r13
00000d6e 6c6f0100       3234 	st.w	r13,0[r12]
                        3235 --1098:                     
                        3236 --1099:                     /* Stop deallocation if we leave the range of the block index list */
                        3237 --1100:                     if (i>lochpmng->NbOfBlock)
00000d72 026d           3238 	sld.w	4[ep],r13
00000d74 ed71           3239 	cmp	r13,r14
00000d76 a305*          3240 	bnh	.L2285
                        3241 --1101:                     {
                        3242 --1102:                         break;
                        3243 --line1102
                        3244 ..lin.D.3A.5CRenesas_Electronics.5CD1x_RGL.5Crgl_ghs_D1Lx_obj_V1.2E2.2E0.5Cvlib.5Capp.5Cgfx_apps.5Csimple_draw_d1l2.5Ctarget.5Cd1lx_mango_ghs.5Cobj.5Cr_cdi_memory.145::
                        3245 .LDWlin145:
00000d78 850d*          3246 	br	.L2259
                        3247 .L2285:
                        3248 --line1093
                        3249 ..lin.D.3A.5CRenesas_Electronics.5CD1x_RGL.5Crgl_ghs_D1Lx_obj_V1.2E2.2E0.5Cvlib.5Capp.5Cgfx_apps.5Csimple_draw_d1l2.5Ctarget.5Cd1lx_mango_ghs.5Cobj.5Cr_cdi_memory.146::
                        3250 .LDWlin146:
00000d7a 0e68           3251 	mov	r14,r13
00000d7c c16a           3252 	shl	1,r13
00000d7e cb69           3253 	add	r11,r13
00000d80 ed6f0100       3254 	ld.hu	0[r13],r13
00000d84 e869           3255 	cmp	r8,r13
00000d86 b2ed*          3256 	be	.L2287
                        3257 .L2259:
                        3258 --1103:                     }
                        3259 --1104:                 }
                        3260 --1105:                 
                        3261 --1106:             } 
                        3262 --1107:         }
                        3263 --1108:     }
                        3264 --1109: #ifdef USE_ROS
                        3265 --1110:     R_OS_ThreadMutexUnlock(&locCdiMemLock);
                        3266 --1111: #endif
                        3267 --1113:     return err;
                        3268 --line1113
                        3269 ..lin.D.3A.5CRenesas_Electronics.5CD1x_RGL.5Crgl_ghs_D1Lx_obj_V1.2E2.2E0.5Cvlib.5Capp.5Cgfx_apps.5Csimple_draw_d1l2.5Ctarget.5Cd1lx_mango_ghs.5Cobj.5Cr_cdi_memory.147::
                        3270 .LDWlin147:
00000d88 0000           3271 	nop
                        3272 --	    .ef
                        3273 .LDW24:
00000d8a 4006df10       3274 	dispose	0,{r27,r28,r29},[lp]

                                                                      Page 55
                                                              C:\Users\YINGAO~1\AppData\Local\Temp\gh_000080o1.si
                        3275 	.type	_R_CDI_HeapFree,@function
                        3276 	.size	_R_CDI_HeapFree,.-_R_CDI_HeapFree
                        3277 	.align	2
                        3278 .LDW34:
                        3279 --_i	r14	local
                        3280 --_vidsize	r6	local
                        3281 --_err	r10	local
                        3282 --_blknb	r9	local
                        3283 --_lochpmng	ep	local
                        3284 --_locblkindexlist	r11	local
                        3285 --_blkindex	r8	local
                        3286 --_freeCount	r12	local
                        3287 --_nextBlock	r7	local
                        3288 
                        3289 --_addr	r29	param
                        3290 --_type	r28	param
                        3291 
                        3292 	.data
                        3293 	.text
                        3294 
                        3295 --1114: }
                        3296 
                        3297 --1116: /*******************************************************************************
                        3298 --1117:  Function: R_CDI_HeapFreeAll
                        3299 --1118: */
                        3300 --1119: uint32_t R_CDI_HeapFreeAll(r_cdi_HpType_t type)
                        3301 	.align	2
                        3302 	.align	2
                        3303 	.global	_R_CDI_HeapFreeAll
                        3304 _R_CDI_HeapFreeAll:
00000d8e 0668           3305 	mov	r6,r13
00000d90 210600000000*  3306 	mov	_locCpuHeapMng,r1
                        3307 --	    .bf
                        3308 .LDW44:
                        3309 --1120: {
                        3310 --1121:     
                        3311 --1122:     uint32_t err = 0u;
00000d96 0072           3312 	mov	0,r14
                        3313 --1123:     int32_t tmp;
                        3314 --1124:     r_cdi_HeapMng_t *lochpmng;
                        3315 --1125:     r_cdi_HpBlkIndex_t   *locblkindexlist;
                        3316 --1126:     
                        3317 --1127: #ifdef USE_ROS
                        3318 --1128:     R_OS_ThreadMutexLock(&locCdiMemLock);
                        3319 --1129: #endif
                        3320 --1130:     /* Check memory type and get the pointer to the corresponding heap manager.*/
                        3321 --1131:     /* if the type is incorrect then 1 is returned */
                        3322 --1132:     if(type == CPU)
00000d98 e069           3323 	cmp	zero,r13
00000d9a ba0d*          3324 	bne	.L2515
                        3325 --1133:     {
                        3326 --1134:         lochpmng   = &locCpuHeapMng;
                        3327 --line1134
                        3328 ..lin.D.3A.5CRenesas_Electronics.5CD1x_RGL.5Crgl_ghs_D1Lx_obj_V1.2E2.2E0.5Cvlib.5Capp.5Cgfx_apps.5Csimple_draw_d1l2.5Ctarget.5Cd1lx_mango_ghs.5Cobj.5Cr_cdi_memory.148::
                        3329 .LDWlin148:
00000d9c 3e0600000000*  3330 	mov	_locCpuHeapMng,ep
                        3331 --1135:         locNextCpuBlockIndex = 1u;
00000da2 2b0600000000*  3332 	mov	_locNextCpuBlockIndex,r11
00000da8 010a           3333 	mov	1,r1
00000daa 6b0f0000       3334 	st.h	r1,0[r11]
00000dae 851d*          3335 	br	.L2517

                                                                      Page 56
                                                              C:\Users\YINGAO~1\AppData\Local\Temp\gh_000080o1.si
                        3336 .L2515:
                        3337 --1136:     } 
                        3338 --1137:     else if(type == SPECIAL_MODE)
                        3339 --line1137
                        3340 ..lin.D.3A.5CRenesas_Electronics.5CD1x_RGL.5Crgl_ghs_D1Lx_obj_V1.2E2.2E0.5Cvlib.5Capp.5Cgfx_apps.5Csimple_draw_d1l2.5Ctarget.5Cd1lx_mango_ghs.5Cobj.5Cr_cdi_memory.149::
                        3341 .LDWlin149:
00000db0 626a           3342 	cmp	2,r13
00000db2 aa0d*          3343 	bne	.L2518
                        3344 --1138:     {
                        3345 --1139:         lochpmng = &locSpecialModeHeapMng;
                        3346 --line1139
                        3347 ..lin.D.3A.5CRenesas_Electronics.5CD1x_RGL.5Crgl_ghs_D1Lx_obj_V1.2E2.2E0.5Cvlib.5Capp.5Cgfx_apps.5Csimple_draw_d1l2.5Ctarget.5Cd1lx_mango_ghs.5Cobj.5Cr_cdi_memory.150::
                        3348 .LDWlin150:
00000db4 21f62800       3349 	movea	40,r1,ep
                        3350 --1140:         locNextSpecialModeBlockIndex = 1u;
00000db8 2b0600000000*  3351 	mov	_locNextSpecialModeBlockIndex,r11
00000dbe 010a           3352 	mov	1,r1
00000dc0 6b0f0000       3353 	st.h	r1,0[r11]
00000dc4 d50d*          3354 	br	.L2517
                        3355 .L2518:
                        3356 --1141:     
                        3357 --1142:     } 
                        3358 --1143:     else 
                        3359 --1144:     {
                        3360 --1145:         if(type == VIDEO)
                        3361 --line1145
                        3362 ..lin.D.3A.5CRenesas_Electronics.5CD1x_RGL.5Crgl_ghs_D1Lx_obj_V1.2E2.2E0.5Cvlib.5Capp.5Cgfx_apps.5Csimple_draw_d1l2.5Ctarget.5Cd1lx_mango_ghs.5Cobj.5Cr_cdi_memory.151::
                        3363 .LDWlin151:
00000dc6 616a           3364 	cmp	1,r13
00000dc8 aa0d*          3365 	bne	.L2521
                        3366 --1146:         {
                        3367 --1147:             lochpmng = &locVidHeapMng;
                        3368 --line1147
                        3369 ..lin.D.3A.5CRenesas_Electronics.5CD1x_RGL.5Crgl_ghs_D1Lx_obj_V1.2E2.2E0.5Cvlib.5Capp.5Cgfx_apps.5Csimple_draw_d1l2.5Ctarget.5Cd1lx_mango_ghs.5Cobj.5Cr_cdi_memory.152::
                        3370 .LDWlin152:
00000dca 21f61400       3371 	movea	20,r1,ep
                        3372 --1148:             locNextVidBlockIndex = 1u;
00000dce 2b0600000000*  3373 	mov	_locNextVidBlockIndex,r11
00000dd4 010a           3374 	mov	1,r1
00000dd6 6b0f0000       3375 	st.h	r1,0[r11]
00000dda a505*          3376 	br	.L2517
                        3377 .L2521:
                        3378 --1149:         } 
                        3379 --1150:         else 
                        3380 --1151:         {
                        3381 --1152:             err = 1u;
                        3382 --line1152
                        3383 ..lin.D.3A.5CRenesas_Electronics.5CD1x_RGL.5Crgl_ghs_D1Lx_obj_V1.2E2.2E0.5Cvlib.5Capp.5Cgfx_apps.5Csimple_draw_d1l2.5Ctarget.5Cd1lx_mango_ghs.5Cobj.5Cr_cdi_memory.153::
                        3384 .LDWlin153:
00000ddc 0172           3385 	mov	1,r14
                        3386 .L2517:
                        3387 --1153:         }
                        3388 --1154:     }
                        3389 --1155:     
                        3390 --1156:     if (err == 0u)
00000dde e071           3391 	cmp	zero,r14
00000de0 ea0d*          3392 	bne	.L2524
                        3393 --1157:     {
                        3394 --1158:         locblkindexlist = lochpmng->BlockIndexList;
                        3395 --line1158
                        3396 ..lin.D.3A.5CRenesas_Electronics.5CD1x_RGL.5Crgl_ghs_D1Lx_obj_V1.2E2.2E0.5Cvlib.5Capp.5Cgfx_apps.5Csimple_draw_d1l2.5Ctarget.5Cd1lx_mango_ghs.5Cobj.5Cr_cdi_memory.154::

                                                                      Page 57
                                                              C:\Users\YINGAO~1\AppData\Local\Temp\gh_000080o1.si
                        3397 .LDWlin154:
00000de2 0865           3398 	sld.w	16[ep],r12
                        3399 --1159:         tmp = lochpmng->NbOfBlock - 1;
00000de4 025d           3400 	sld.w	4[ep],r11
00000de6 0b0effff       3401 	addi	-1,r11,r1
                        3402 --1160:         while(tmp >= 0)
00000dea f505*          3403 	br	.L2526
                        3404 .L2528:
                        3405 --1161:         {
                        3406 --1162:             locblkindexlist[tmp] = 0u;
                        3407 --line1162
                        3408 ..lin.D.3A.5CRenesas_Electronics.5CD1x_RGL.5Crgl_ghs_D1Lx_obj_V1.2E2.2E0.5Cvlib.5Capp.5Cgfx_apps.5Csimple_draw_d1l2.5Ctarget.5Cd1lx_mango_ghs.5Cobj.5Cr_cdi_memory.155::
                        3409 .LDWlin155:
00000dec 0158           3410 	mov	r1,r11
00000dee c15a           3411 	shl	1,r11
00000df0 cc59           3412 	add	r12,r11
00000df2 6b070000       3413 	st.h	zero,0[r11]
                        3414 --1163:             tmp--;
00000df6 5f0a           3415 	add	-1,r1
                        3416 .L2526:
00000df8 e009           3417 	cmp	zero,r1
00000dfa 9efd*          3418 	bge	.L2528
                        3419 .L2524:
                        3420 --1164:         }
                        3421 --1165:     }
                        3422 --1166: #ifdef USE_ROS
                        3423 --1167:     R_OS_ThreadMutexUnlock(&locCdiMemLock);
                        3424 --1168: #endif
                        3425 --1169:     return err;
                        3426 --line1169
                        3427 ..lin.D.3A.5CRenesas_Electronics.5CD1x_RGL.5Crgl_ghs_D1Lx_obj_V1.2E2.2E0.5Cvlib.5Capp.5Cgfx_apps.5Csimple_draw_d1l2.5Ctarget.5Cd1lx_mango_ghs.5Cobj.5Cr_cdi_memory.156::
                        3428 .LDWlin156:
00000dfc 0e50           3429 	mov	r14,r10
                        3430 --	    .ef
                        3431 .LDW54:
00000dfe 7f00           3432 	jmp	[lp]
                        3433 	.type	_R_CDI_HeapFreeAll,@function
                        3434 	.size	_R_CDI_HeapFreeAll,.-_R_CDI_HeapFreeAll
                        3435 	.align	2
                        3436 .LDW64:
                        3437 --_err	r14	local
                        3438 --_tmp	r1	local
                        3439 --_lochpmng	ep	local
                        3440 --_locblkindexlist	r12	local
                        3441 
                        3442 --_type	r13	param
                        3443 
                        3444 	.data
                        3445 	.text
                        3446 
                        3447 --1170: }
                        3448 
                        3449 --1172: /*******************************************************************************
                        3450 --1173:  Function: R_CDI_GetHeapSize
                        3451 --1174: */
                        3452 --1175: uint32_t R_CDI_GetHeapSize(uint32_t addr, r_cdi_HpType_t type)
                        3453 	.align	2
                        3454 	.align	2
                        3455 	.global	_R_CDI_GetHeapSize
                        3456 _R_CDI_GetHeapSize:
00000e00 8007c100       3457 	prepare	{r28,r29},0

                                                                      Page 58
                                                              C:\Users\YINGAO~1\AppData\Local\Temp\gh_000080o1.si
00000e04 07e0           3458 	mov	r7,r28
00000e06 06e8           3459 	mov	r6,r29
00000e08 210600000000*  3460 	mov	_locCpuHeapMng,r1
00000e0e 213e1400       3461 	movea	20,r1,r7
                        3462 --	    .bf
                        3463 .LDW74:
                        3464 --1176: {
                        3465 --1177:     
                        3466 --1178:     uint32_t i;
                        3467 --1179:     uint32_t size = 0u;
00000e12 0062           3468 	mov	0,r12
                        3469 --1180:     uint32_t blknb;
                        3470 --1181:     uint32_t vidsize;
                        3471 --1182:     r_cdi_HeapMng_t *lochpmng;
                        3472 --1183:     r_cdi_HpBlkIndex_t   *locblkindexlist;
                        3473 --1184:     r_cdi_HpBlkIndex_t    blkindex;
                        3474 --1186: #ifdef USE_ROS
                        3475 --1187:     R_OS_ThreadMutexLock(&locCdiMemLock);
                        3476 --1188: #endif
                        3477 --1189:     /* Check memory type and get the pointer to the corresponding heap manager.*/
                        3478 --1190:     /* if the type is incorrect then 1 is returned */
                        3479 --1191:     /* Have to add check on addr, because if short in CPU memory Video is allocated*/
                        3480 --1192:         /* No other way to know it... */
                        3481 --1193:     vidsize = locVidHeapMng.BlockSize*locVidHeapMng.NbOfBlock;
00000e14 21471900       3482 	ld.w	24[r1],r8
00000e18 21771d00       3483 	ld.w	28[r1],r14
00000e1c e8772202       3484 	mulu	r8,r14,zero
00000e20 0e40           3485 	mov	r14,r8
                        3486 --1194:     if((type == VIDEO) || ((addr >= locVidHeapMng.BaseAddr) && (addr < (locVidHeapMng.BaseAddr + vidsize))))
00000e22 61e2           3487 	cmp	1,r28
00000e24 a20d*          3488 	be	.L2645
00000e26 21771500       3489 	ld.w	20[r1],r14
00000e2a eee9           3490 	cmp	r14,r29
00000e2c 810d*          3491 	bl	.L2644
00000e2e 21771500       3492 	ld.w	20[r1],r14
00000e32 c871           3493 	add	r8,r14
00000e34 eee9           3494 	cmp	r14,r29
00000e36 b905*          3495 	bnl	.L2644
                        3496 .L2645:
                        3497 --1195:     {
                        3498 --1196:         lochpmng = &locVidHeapMng;
                        3499 --line1196
                        3500 ..lin.D.3A.5CRenesas_Electronics.5CD1x_RGL.5Crgl_ghs_D1Lx_obj_V1.2E2.2E0.5Cvlib.5Capp.5Cgfx_apps.5Csimple_draw_d1l2.5Ctarget.5Cd1lx_mango_ghs.5Cobj.5Cr_cdi_memory.157::
                        3501 .LDWlin157:
00000e38 07f0           3502 	mov	r7,ep
00000e3a d50d*          3503 	br	.L2648
                        3504 .L2644:
                        3505 --1197:     } 
                        3506 --1198:     else 
                        3507 --1199:     {
                        3508 --1200:         if(type == CPU)
                        3509 --line1200
                        3510 ..lin.D.3A.5CRenesas_Electronics.5CD1x_RGL.5Crgl_ghs_D1Lx_obj_V1.2E2.2E0.5Cvlib.5Capp.5Cgfx_apps.5Csimple_draw_d1l2.5Ctarget.5Cd1lx_mango_ghs.5Cobj.5Cr_cdi_memory.158::
                        3511 .LDWlin158:
00000e3c e0e1           3512 	cmp	zero,r28
00000e3e da05*          3513 	bne	.L2649
                        3514 --1201:         {
                        3515 --1202:             lochpmng   = &locCpuHeapMng;
                        3516 --line1202
                        3517 ..lin.D.3A.5CRenesas_Electronics.5CD1x_RGL.5Crgl_ghs_D1Lx_obj_V1.2E2.2E0.5Cvlib.5Capp.5Cgfx_apps.5Csimple_draw_d1l2.5Ctarget.5Cd1lx_mango_ghs.5Cobj.5Cr_cdi_memory.159::
                        3518 .LDWlin159:

                                                                      Page 59
                                                              C:\Users\YINGAO~1\AppData\Local\Temp\gh_000080o1.si
00000e40 3e0600000000*  3519 	mov	_locCpuHeapMng,ep
00000e46 f505*          3520 	br	.L2648
                        3521 .L2649:
                        3522 --1203:         } 
                        3523 --1204:         else
                        3524 --1205:         {
                        3525 --1206:             if(type == SPECIAL_MODE)
                        3526 --line1206
                        3527 ..lin.D.3A.5CRenesas_Electronics.5CD1x_RGL.5Crgl_ghs_D1Lx_obj_V1.2E2.2E0.5Cvlib.5Capp.5Cgfx_apps.5Csimple_draw_d1l2.5Ctarget.5Cd1lx_mango_ghs.5Cobj.5Cr_cdi_memory.160::
                        3528 .LDWlin160:
00000e48 62e2           3529 	cmp	2,r28
00000e4a ca05*          3530 	bne	.L2652
                        3531 --1207:             {
                        3532 --1208:                 lochpmng   = &locSpecialModeHeapMng;
                        3533 --line1208
                        3534 ..lin.D.3A.5CRenesas_Electronics.5CD1x_RGL.5Crgl_ghs_D1Lx_obj_V1.2E2.2E0.5Cvlib.5Capp.5Cgfx_apps.5Csimple_draw_d1l2.5Ctarget.5Cd1lx_mango_ghs.5Cobj.5Cr_cdi_memory.161::
                        3535 .LDWlin161:
00000e4c 21f62800       3536 	movea	40,r1,ep
00000e50 a505*          3537 	br	.L2648
                        3538 .L2652:
                        3539 --1209:             }
                        3540 --1210:             else
                        3541 --1211:             {
                        3542 --1212:                 lochpmng = 0u;
                        3543 --line1212
                        3544 ..lin.D.3A.5CRenesas_Electronics.5CD1x_RGL.5Crgl_ghs_D1Lx_obj_V1.2E2.2E0.5Cvlib.5Capp.5Cgfx_apps.5Csimple_draw_d1l2.5Ctarget.5Cd1lx_mango_ghs.5Cobj.5Cr_cdi_memory.162::
                        3545 .LDWlin162:
00000e52 00f2           3546 	mov	0,ep
                        3547 .L2648:
                        3548 --1213:             }
                        3549 --1214:         }
                        3550 --1215:     }
                        3551 --1216:     
                        3552 --1217:     if (0 != lochpmng)
00000e54 e0f1           3553 	cmp	zero,ep
00000e56 921d*          3554 	be	.L2655
                        3555 --1218:     {
                        3556 --1219:         /* Calculate block number from addr */
                        3557 --1220:         blknb = (addr - (lochpmng->BaseAddr)) / (lochpmng->BlockSize);
                        3558 --line1220
                        3559 ..lin.D.3A.5CRenesas_Electronics.5CD1x_RGL.5Crgl_ghs_D1Lx_obj_V1.2E2.2E0.5Cvlib.5Capp.5Cgfx_apps.5Csimple_draw_d1l2.5Ctarget.5Cd1lx_mango_ghs.5Cobj.5Cr_cdi_memory.163::
                        3560 .LDWlin163:
00000e58 0075           3561 	sld.w	0[ep],r14
00000e5a 9d71           3562 	subr	r29,r14
00000e5c 0e50           3563 	mov	r14,r10
00000e5e 0475           3564 	sld.w	8[ep],r14
00000e60 ee57fe02       3565 	divqu	r14,r10,zero
                        3566 --1221:         locblkindexlist = lochpmng->BlockIndexList;
00000e64 085d           3567 	sld.w	16[ep],r11
                        3568 --1222:         blkindex = locblkindexlist[blknb];
00000e66 0a70           3569 	mov	r10,r14
00000e68 c172           3570 	shl	1,r14
00000e6a cb71           3571 	add	r11,r14
00000e6c ee4f0100       3572 	ld.hu	0[r14],r9
                        3573 --1223:         i = blknb;
00000e70 0a70           3574 	mov	r10,r14
                        3575 --1224:         while (locblkindexlist[i] == blkindex)
00000e72 c505*          3576 	br	.L2657
                        3577 .L2659:
                        3578 --1225:         {
                        3579 --1226:             size += lochpmng->BlockSize;

                                                                      Page 60
                                                              C:\Users\YINGAO~1\AppData\Local\Temp\gh_000080o1.si
                        3580 --line1226
                        3581 ..lin.D.3A.5CRenesas_Electronics.5CD1x_RGL.5Crgl_ghs_D1Lx_obj_V1.2E2.2E0.5Cvlib.5Capp.5Cgfx_apps.5Csimple_draw_d1l2.5Ctarget.5Cd1lx_mango_ghs.5Cobj.5Cr_cdi_memory.164::
                        3582 .LDWlin164:
00000e74 046d           3583 	sld.w	8[ep],r13
00000e76 cd61           3584 	add	r13,r12
                        3585 --1227:             i++;
00000e78 4172           3586 	add	1,r14
                        3587 .L2657:
00000e7a 0e68           3588 	mov	r14,r13
00000e7c c16a           3589 	shl	1,r13
00000e7e cb69           3590 	add	r11,r13
00000e80 ed6f0100       3591 	ld.hu	0[r13],r13
00000e84 e969           3592 	cmp	r9,r13
00000e86 f2f5*          3593 	be	.L2659
                        3594 .L2655:
                        3595 --1228:         }
                        3596 --1229:         /* if no match found, then return size = 0 */
                        3597 --1230:     }
                        3598 --1231: #ifdef USE_ROS
                        3599 --1232:     R_OS_ThreadMutexUnlock(&locCdiMemLock);
                        3600 --1233: #endif
                        3601 --1234:     return size;
                        3602 --line1234
                        3603 ..lin.D.3A.5CRenesas_Electronics.5CD1x_RGL.5Crgl_ghs_D1Lx_obj_V1.2E2.2E0.5Cvlib.5Capp.5Cgfx_apps.5Csimple_draw_d1l2.5Ctarget.5Cd1lx_mango_ghs.5Cobj.5Cr_cdi_memory.165::
                        3604 .LDWlin165:
00000e88 0c68           3605 	mov	r12,r13
                        3606 --	    .ef
                        3607 .LDW84:
00000e8a 0d50           3608 	mov	r13,r10
00000e8c 4006df00       3609 	dispose	0,{r28,r29},[lp]
                        3610 	.type	_R_CDI_GetHeapSize,@function
                        3611 	.size	_R_CDI_GetHeapSize,.-_R_CDI_GetHeapSize
                        3612 	.align	2
                        3613 .LDW94:
                        3614 --_i	r14	local
                        3615 --_size	r12	local
                        3616 --_blknb	r10	local
                        3617 --_vidsize	r8	local
                        3618 --_lochpmng	ep	local
                        3619 --_locblkindexlist	r11	local
                        3620 --_blkindex	r9	local
                        3621 
                        3622 --_addr	r29	param
                        3623 --_type	r28	param
                        3624 
                        3625 	.data
                        3626 	.text
                        3627 
                        3628 --1235: }
                        3629 
                        3630 --1237: /*******************************************************************************
                        3631 --1238:  Function: R_CDI_GetVidHeapBlockSize
                        3632 --1239: */
                        3633 --1240: uint32_t R_CDI_GetVidHeapBlockSize(void)
                        3634 	.align	2
                        3635 	.align	2
                        3636 	.global	_R_CDI_GetVidHeapBlockSize
                        3637 _R_CDI_GetVidHeapBlockSize:
                        3638 --	    .bf
                        3639 .LDW05:
                        3640 --1241: {

                                                                      Page 61
                                                              C:\Users\YINGAO~1\AppData\Local\Temp\gh_000080o1.si
                        3641 --1242:     return locVidHeapMng.BlockSize;
00000e90 2a0600000000*  3642 	mov	_locVidHeapMng+8,r10
00000e96 2a570100       3643 	ld.w	0[r10],r10
                        3644 --	    .ef
                        3645 .LDW15:
00000e9a 7f00           3646 	jmp	[lp]
                        3647 	.type	_R_CDI_GetVidHeapBlockSize,@function
                        3648 	.size	_R_CDI_GetVidHeapBlockSize,.-_R_CDI_GetVidHeapBlockSize
                        3649 	.align	2
                        3650 .LDW25:
                        3651 
                        3652 	.data
                        3653 	.text
                        3654 
                        3655 --1243: }    
                        3656 
                        3657 --1245: /*******************************************************************************
                        3658 --1246:  Function: R_CDI_GetVidHeapBlockMax
                        3659 --1247: */
                        3660 --1248: uint32_t R_CDI_GetVidHeapBlockMax(void)
                        3661 	.align	2
                        3662 	.align	2
                        3663 	.global	_R_CDI_GetVidHeapBlockMax
                        3664 _R_CDI_GetVidHeapBlockMax:
                        3665 --	    .bf
                        3666 .LDW35:
                        3667 --1249: {
                        3668 --1250:     return locVidHeapMng.NbOfBlock;
00000e9c 2a0600000000*  3669 	mov	_locVidHeapMng+4,r10
00000ea2 2a570100       3670 	ld.w	0[r10],r10
                        3671 --	    .ef
                        3672 .LDW45:
00000ea6 7f00           3673 	jmp	[lp]
                        3674 	.type	_R_CDI_GetVidHeapBlockMax,@function
                        3675 	.size	_R_CDI_GetVidHeapBlockMax,.-_R_CDI_GetVidHeapBlockMax
                        3676 	.align	2
                        3677 .LDW55:
                        3678 
                        3679 	.data
                        3680 	.text
                        3681 
                        3682 --1251: }
                        3683 
                        3684 --1253: /*******************************************************************************
                        3685 --1254:  Function: R_CDI_GetVidHeapBlockUsed
                        3686 --1255: */
                        3687 --1256: uint32_t R_CDI_GetVidHeapBlockUsed(void)
                        3688 	.align	2
                        3689 	.align	2
                        3690 	.global	_R_CDI_GetVidHeapBlockUsed
                        3691 _R_CDI_GetVidHeapBlockUsed:
                        3692 --	    .bf
                        3693 .LDW65:
                        3694 --1257: {
                        3695 --1258:     return (locVidHeapMng.NbOfBlock-locFreeVideoBlocks);
00000ea8 2e0600000000*  3696 	mov	_locFreeVideoBlocks,r14
00000eae 210600000000*  3697 	mov	_locVidHeapMng+4,r1
00000eb4 2e770100       3698 	ld.w	0[r14],r14
00000eb8 210f0100       3699 	ld.w	0[r1],r1
00000ebc 0150           3700 	mov	r1,r10
00000ebe ae51           3701 	sub	r14,r10

                                                                      Page 62
                                                              C:\Users\YINGAO~1\AppData\Local\Temp\gh_000080o1.si
                        3702 --	    .ef
                        3703 .LDW75:
00000ec0 7f00           3704 	jmp	[lp]
                        3705 	.type	_R_CDI_GetVidHeapBlockUsed,@function
                        3706 	.size	_R_CDI_GetVidHeapBlockUsed,.-_R_CDI_GetVidHeapBlockUsed
                        3707 	.align	2
                        3708 .LDW85:
                        3709 
                        3710 	.data
                        3711 	.text
                        3712 
                        3713 --1259: }
                        3714 
                        3715 --1261: /*******************************************************************************
                        3716 --1262:  Function: R_CDI_GetCpuHeapBlockSize
                        3717 --1263: */
                        3718 --1264: uint32_t R_CDI_GetCpuHeapBlockSize(void)
                        3719 	.align	2
                        3720 	.align	2
                        3721 	.global	_R_CDI_GetCpuHeapBlockSize
                        3722 _R_CDI_GetCpuHeapBlockSize:
                        3723 --	    .bf
                        3724 .LDW95:
                        3725 --1265: {
                        3726 --1266:     return locCpuHeapMng.BlockSize;
00000ec2 2a0600000000*  3727 	mov	_locCpuHeapMng+8,r10
00000ec8 2a570100       3728 	ld.w	0[r10],r10
                        3729 --	    .ef
                        3730 .LDW06:
00000ecc 7f00           3731 	jmp	[lp]
                        3732 	.type	_R_CDI_GetCpuHeapBlockSize,@function
                        3733 	.size	_R_CDI_GetCpuHeapBlockSize,.-_R_CDI_GetCpuHeapBlockSize
                        3734 	.align	2
                        3735 .LDW16:
                        3736 
                        3737 	.data
                        3738 	.text
                        3739 
                        3740 --1267: }    
                        3741 
                        3742 --1269: /*******************************************************************************
                        3743 --1270:  Function: R_CDI_GetCpuHeapBlockMax
                        3744 --1271: */
                        3745 --1272: uint32_t R_CDI_GetCpuHeapBlockMax(void)
                        3746 	.align	2
                        3747 	.align	2
                        3748 	.global	_R_CDI_GetCpuHeapBlockMax
                        3749 _R_CDI_GetCpuHeapBlockMax:
                        3750 --	    .bf
                        3751 .LDW26:
                        3752 --1273: {
                        3753 --1274:     return locCpuHeapMng.NbOfBlock;
00000ece 2a0600000000*  3754 	mov	_locCpuHeapMng+4,r10
00000ed4 2a570100       3755 	ld.w	0[r10],r10
                        3756 --	    .ef
                        3757 .LDW36:
00000ed8 7f00           3758 	jmp	[lp]
                        3759 	.type	_R_CDI_GetCpuHeapBlockMax,@function
                        3760 	.size	_R_CDI_GetCpuHeapBlockMax,.-_R_CDI_GetCpuHeapBlockMax
                        3761 	.align	2
                        3762 .LDW46:

                                                                      Page 63
                                                              C:\Users\YINGAO~1\AppData\Local\Temp\gh_000080o1.si
                        3763 
                        3764 	.data
                        3765 	.text
                        3766 
                        3767 --1275: }
                        3768 
                        3769 --1277: /*******************************************************************************
                        3770 --1278:  Function: R_CDI_GetCpuHeapBlockUsed
                        3771 --1279: */
                        3772 --1280: uint32_t R_CDI_GetCpuHeapBlockUsed(void)
                        3773 	.align	2
                        3774 	.align	2
                        3775 	.global	_R_CDI_GetCpuHeapBlockUsed
                        3776 _R_CDI_GetCpuHeapBlockUsed:
                        3777 --	    .bf
                        3778 .LDW56:
                        3779 --1281: {
                        3780 --1282:     return (locCpuHeapMng.NbOfBlock-locFreeCPUBlocks);
00000eda 2e0600000000*  3781 	mov	_locFreeCPUBlocks,r14
00000ee0 210600000000*  3782 	mov	_locCpuHeapMng+4,r1
00000ee6 2e770100       3783 	ld.w	0[r14],r14
00000eea 210f0100       3784 	ld.w	0[r1],r1
00000eee 0150           3785 	mov	r1,r10
00000ef0 ae51           3786 	sub	r14,r10
                        3787 --	    .ef
                        3788 .LDW66:
00000ef2 7f00           3789 	jmp	[lp]
                        3790 	.type	_R_CDI_GetCpuHeapBlockUsed,@function
                        3791 	.size	_R_CDI_GetCpuHeapBlockUsed,.-_R_CDI_GetCpuHeapBlockUsed
                        3792 	.align	2
                        3793 .LDW76:
                        3794 
                        3795 	.data
                        3796 	.text
                        3797 
                        3798 --1283: }
                        3799 	.align	2
                        3800 --_locCpuHeapMng	_locCpuHeapMng	static
                        3801 --_locVidHeapMng	_locVidHeapMng	static
                        3802 --_locSpecialModeHeapMng	_locSpecialModeHeapMng	static
                        3803 --_locNextCpuBlockIndex	_locNextCpuBlockIndex	static
                        3804 --_locNextVidBlockIndex	_locNextVidBlockIndex	static
                        3805 --_locNextSpecialModeBlockIndex	_locNextSpecialModeBlockIndex	static
                        3806 --_locFreeVideoBlocks	_locFreeVideoBlocks	static
                        3807 --_locFreeCPUBlocks	_locFreeCPUBlocks	static
                        3808 --_locFreeSpecialModeBlocks	_locFreeSpecialModeBlocks	static
                        3809 --_locNextCPUFreeBlockNb	_locNextCPUFreeBlockNb	static
                        3810 --_locNextVideoFreeBlockNb	_locNextVideoFreeBlockNb	static
                        3811 --_locNextSpecialModeFreeBlockNb	_locNextSpecialModeFreeBlockNb	static
                        3812 
                        3813 	.data
                        3814 	.ghsnote version,14
                        3815 	.ghsnote tools,3
                        3816 	.ghsnote options,144
                        3817 	.text
                        3818 	.align	2
                        3819 ..eof.D.3A.5CRenesas_Electronics.5CD1x_RGL.5Crgl_ghs_D1Lx_obj_V1.2E2.2E0.5Cvlib.5Capp.5Cgfx_apps.5Csimple_draw_d1l2.5Ctarget.5Cd1lx_mango_ghs.5Cobj.5Cr_cdi_memory...44.3A.5CRenesas_Electronics.5CD1x_RGL.5Crgl_ghs_D1Lx_obj_V1.2E2.2E0.5Cvlib.5Capp.5Cgfx_apps.5Csimple_draw_d1l2.5Ctarget.5Cd1lx_mango_ghs..5A74038B..0::
                        3820 .rh850_flags REGMODE22,DATA_ALIGN8,GP_FIX,EP_NONFIX,TP_FIX,REG2_RESERVE,G3M
