                                                                      Page 1
                                                              C:\Users\YINGAO~1\AppData\Local\Temp\gh_00007041.si
Command Line: C:\ghs\comp_201355\ease850.exe -w -elf -b0 -ID:\Renesas_Electronics\D1x_RGL\rgl_ghs_D1Lx_obj_V1.2.0\vlib\macro\flashc\sfma\lib -I../../../../../Device -I../../../../../Driver/ADCE -I../../../../../Driver/CLOCK -I../../../../../Driver/DIO -I../../../../../Driver/DSPI -I../../../../../Driver/Interrupt -I../../../../../Driver/ISM -I../../../../../Driver/OSTM -I../../../../../Driver/PWM -I../../../../../Driver/RSTC -I../../../../../Driver/RTCA -I../../../../../Driver/STBC -I../../../../../Driver/TAUB -I../../../../../Driver/WDT -I../../../../../middleware\ADM -I../../../../../middleware\BPM -I../../../../../middleware\EED -I../../../../../middleware\IOM -I../../../../../middleware\LRM -I../../../../../middleware\MOM -I../../../../../middleware\PWMM -I../../../../../Common -I../../../../../Applayer\DSM -I../../../../../Applayer\FM -I../../../../../Applayer\TPM -I../../../../../Applayer\ACC -I../../../../../Applayer\ASS -I../../../../../Applayer\BAT -I../../../../../Applayer\COM -I../../../../../Applayer\COM\vtp -I../../../../../Applayer\COM\vtp\lib -I../../../../../Applayer\CRUS -I../../../../../Applayer\DIAG -I../../../../../Applayer\FC -I../../../../../Applayer\FL -I../../../../../Applayer\HSD -I../../../../../Applayer\IDLE -I../../../../../Applayer\ILLU -I../../../../../Applayer\LED -I../../../../../Applayer\MSG -I../../../../../Applayer\NVM -I../../../../../Applayer\ODO -I../../../../../Applayer\PWR -I../../../../../Applayer\RANG -I../../../../../Applayer\RST -I../../../../../Applayer\RTC -I../../../../../Applayer\SCS -I../../../../../Applayer\SSB -I../../../../../Applayer\ST -I../../../../../Applayer\STSMG -I../../../../../Applayer\SYS -I../../../../../Applayer\TIP -I../../../../../Applayer\TRIP -I../../../../../Applayer\CHM -I../../../../../Applayer\DM -I../../../../../Applayer\EVT -I../../../../../Applayer\FTR -I../../../../../Applayer\SLF -I../../../../../Applayer\NWD -I../../../../../Applayer\TPMS -I../../../../../Applayer\WFM -I../../../../../Applayer\NZM -I../../../../../app/gfx_apps/simple_draw_d1l2/src -I../../../../../bsp/board//config -I../../../../../bsp/board//src/gfx -I../../../../../bsp/board//src/hmi -I../../../../../bsp/board//src/stdio -I../../../../../bsp/board/d1lx_mango/config -I../../../../../bsp/board/d1lx_mango/src -I../../../../../bsp/board/d1lx_mango/src/gfx -I../../../../../bsp/board/d1lx_mango/src/hmi -I../../../../../bsp/board/d1lx_mango/src/stdio -I../../../../../bsp/gfx/lib -I../../../../../bsp/gfx/src -I../../../../../bsp/hmi/lib -I../../../../../bsp/hmi/src -I../../../../../bsp/lib -I../../../../../bsp/stdio/lib -I../../../../../bsp/stdio/src -I../../../../../cdi/lib -I../../../../../cdi/src -I../../../../../compiler/rh850_ghs/inc -I../../../../../device/d1lx/lib -I../../../../../device/d1lx/macro_cfg -I../../../../../device/d1lx/src/dev -I../../../../../device/d1lx/src/rh850_ghs -I../../../../../device/d1x_common/macro_cfg -I../../../../../device/d1x_common/src/csisw -I../../../../../device/d1x_common/src/ddb -I../../../../../device/d1x_common/src/dev -I../../../../../device/d1x_common/src/gfxbus -I../../../../../device/d1x_common/src/gpio -I../../../../../device/d1x_common/src/ostm -I../../../../../device/d1x_common/src/pbg -I../../../../../device/d1x_common/src/riic -I../../../../../device/d1x_common/src/sfma -I../../../../../device/d1x_common/src/spea -I../../../../../device/d1x_common/src/tauj -I../../../../../device/d1x_common/src/tick -I../../../../../device/d1x_common/src/vdce -I../../../../../device/d1x_common/src/wm -I../../../../../device/d1x_common/src/xbus -I../../../../../device/lib -I../../../../../macro/bus/pbg/lib -I../../../../../macro/bus/pbg/src -I../../../../../macro/csi/csisw/lib -I../../../../../macro/csi/csisw/src -I../../../../../macro/drw2d/lib -I../../../../../macro/drw2d/platform/cpu -I../../../../../macro/drw2d/platform/os/no_os -I../../../../../macro/drw2d/src -I../../../../../macro/flashc/sfcdb/lib -I../../../../../macro/flashc/sfcdb/src -I../../../../../macro/flashc/sfma/lib -I../../../../../macro/flashc/sfma/src -I../../../../../macro/gfxbus/lib -I../../../../../macro/gfxbus/src -I../../../../../macro/gfxbus/xbus/lib -I../../../../../macro/gfxbus/xbus/src -I../../../../../macro/gpio/lib -I../../../../../macro/gpio/src -I../../../../../macro/i2c/riic/lib -I../../../../../macro/i2c/riic/src -I../../../../../macro/tick/lib -I../../../../../macro/tick/src -I../../../../../macro/timer/ostm/lib -I../../../../../macro/timer/ostm/src -I../../../../../macro/timer/tauj/lib -I../../../../../macro/timer/tauj/src -I../../../../../macro/vdce/lib -I../../../../../macro/vdce/src -I../../../../../macro/vo/ddb/lib -I../../../../../macro/vo/ddb/src -I../../../../../macro/vo/spea/lib -I../../../../../macro/vo/spea/src -I../../../../../macro/wm/lib -I../../../../../macro/wm/src -I../../../../../app/gfx_apps/simple_draw_d1l2/src/QD_HMI -I../../../../../app/gfx_apps/simple_draw_d1l2/src/QD_HMI/HMI_Data -IC:\ghs\comp_201355\lib\rh850_22 -cg_underscore -cpu=rh850g3m -no_v850_simd -nomacro -patch_dbo=D:\Renesas_Electronics\D1x_RGL\rgl_ghs_D1Lx_obj_V1.2.0\vlib\app\gfx_apps\simple_draw_d1l2\target\d1lx_mango_ghs\obj\r_dev_clk.dbo -source=r_dev_clk.c -o .\obj\gh_00007041.o -list=.\obj\r_dev_clk.lst C:\Users\YINGAO~1\AppData\Local\Temp\gh_00007041.si 
Original File: C:\Users\YINGAO~1\AppData\Local\Temp\gh_00007041.si
Source File: r_dev_clk.c
Directory: D:\Renesas_Electronics\D1x_RGL\rgl_ghs_D1Lx_obj_V1.2.0\vlib\app\gfx_apps\simple_draw_d1l2\target\d1lx_mango_ghs
Host OS: Windows 7 Service Pack 1
EASE: Copyright (C) 1983-2013 Green Hills Software.  All Rights Reversed.
Release: Compiler v2013.5.5
Build Directory: [Directory] BTOWINBOX:c:/build_2013_5_bto/2013-10-04.1311-2013_5_bto/win32-comp-ecom
Revision: [VCInfo] http://toolsvc/branches/release-branch-2013-5-bto/src@496240 (built by build)
Revision Date: Sat Oct 05 04:54:43 2013

Release Date: Sat Oct 05 05:20:49 2013

                           1 --Driver Command: ccv850 -c -MD
                           2 --		-ID:\Renesas_Electronics\D1x_RGL\rgl_ghs_D1Lx_obj_V1.2.0\vlib\macro\flashc\sfma\lib
                           3 --		-I../../../../../Device -I../../../../../Driver/ADCE
                           4 --		-I../../../../../Driver/CLOCK -I../../../../../Driver/DIO
                           5 --		-I../../../../../Driver/DSPI -I../../../../../Driver/Interrupt
                           6 --		-I../../../../../Driver/ISM -I../../../../../Driver/OSTM
                           7 --		-I../../../../../Driver/PWM -I../../../../../Driver/RSTC
                           8 --		-I../../../../../Driver/RTCA -I../../../../../Driver/STBC
                           9 --		-I../../../../../Driver/TAUB -I../../../../../Driver/WDT
                          10 --		-I../../../../../middleware\ADM -I../../../../../middleware\BPM
                          11 --		-I../../../../../middleware\EED -I../../../../../middleware\IOM
                          12 --		-I../../../../../middleware\LRM -I../../../../../middleware\MOM
                          13 --		-I../../../../../middleware\PWMM -I../../../../../Common
                          14 --		-I../../../../../Applayer\DSM -I../../../../../Applayer\FM
                          15 --		-I../../../../../Applayer\TPM -I../../../../../Applayer\ACC
                          16 --		-I../../../../../Applayer\ASS -I../../../../../Applayer\BAT
                          17 --		-I../../../../../Applayer\COM -I../../../../../Applayer\COM\vtp
                          18 --		-I../../../../../Applayer\COM\vtp\lib
                          19 --		-I../../../../../Applayer\CRUS -I../../../../../Applayer\DIAG
                          20 --		-I../../../../../Applayer\FC -I../../../../../Applayer\FL
                          21 --		-I../../../../../Applayer\HSD -I../../../../../Applayer\IDLE
                          22 --		-I../../../../../Applayer\ILLU -I../../../../../Applayer\LED
                          23 --		-I../../../../../Applayer\MSG -I../../../../../Applayer\NVM
                          24 --		-I../../../../../Applayer\ODO -I../../../../../Applayer\PWR
                          25 --		-I../../../../../Applayer\RANG -I../../../../../Applayer\RST
                          26 --		-I../../../../../Applayer\RTC -I../../../../../Applayer\SCS
                          27 --		-I../../../../../Applayer\SSB -I../../../../../Applayer\ST
                          28 --		-I../../../../../Applayer\STSMG -I../../../../../Applayer\SYS
                          29 --		-I../../../../../Applayer\TIP -I../../../../../Applayer\TRIP
                          30 --		-I../../../../../Applayer\CHM -I../../../../../Applayer\DM
                          31 --		-I../../../../../Applayer\EVT -I../../../../../Applayer\FTR
                          32 --		-I../../../../../Applayer\SLF -I../../../../../Applayer\NWD
                          33 --		-I../../../../../Applayer\TPMS -I../../../../../Applayer\WFM
                          34 --		-I../../../../../Applayer\NZM
                          35 --		-I../../../../../app/gfx_apps/simple_draw_d1l2/src
                          36 --		-I../../../../../bsp/board//config
                          37 --		-I../../../../../bsp/board//src/gfx
                          38 --		-I../../../../../bsp/board//src/hmi
                          39 --		-I../../../../../bsp/board//src/stdio
                          40 --		-I../../../../../bsp/board/d1lx_mango/config
                          41 --		-I../../../../../bsp/board/d1lx_mango/src
                          42 --		-I../../../../../bsp/board/d1lx_mango/src/gfx
                          43 --		-I../../../../../bsp/board/d1lx_mango/src/hmi
                          44 --		-I../../../../../bsp/board/d1lx_mango/src/stdio
                          45 --		-I../../../../../bsp/gfx/lib -I../../../../../bsp/gfx/src
                          46 --		-I../../../../../bsp/hmi/lib -I../../../../../bsp/hmi/src
                          47 --		-I../../../../../bsp/lib -I../../../../../bsp/stdio/lib
                          48 --		-I../../../../../bsp/stdio/src -I../../../../../cdi/lib
                          49 --		-I../../../../../cdi/src -I../../../../../compiler/rh850_ghs/inc
                          50 --		-I../../../../../device/d1lx/lib

                                                                      Page 2
                                                              C:\Users\YINGAO~1\AppData\Local\Temp\gh_00007041.si
                          51 --		-I../../../../../device/d1lx/macro_cfg
                          52 --		-I../../../../../device/d1lx/src/dev
                          53 --		-I../../../../../device/d1lx/src/rh850_ghs
                          54 --		-I../../../../../device/d1x_common/macro_cfg
                          55 --		-I../../../../../device/d1x_common/src/csisw
                          56 --		-I../../../../../device/d1x_common/src/ddb
                          57 --		-I../../../../../device/d1x_common/src/dev
                          58 --		-I../../../../../device/d1x_common/src/gfxbus
                          59 --		-I../../../../../device/d1x_common/src/gpio
                          60 --		-I../../../../../device/d1x_common/src/ostm
                          61 --		-I../../../../../device/d1x_common/src/pbg
                          62 --		-I../../../../../device/d1x_common/src/riic
                          63 --		-I../../../../../device/d1x_common/src/sfma
                          64 --		-I../../../../../device/d1x_common/src/spea
                          65 --		-I../../../../../device/d1x_common/src/tauj
                          66 --		-I../../../../../device/d1x_common/src/tick
                          67 --		-I../../../../../device/d1x_common/src/vdce
                          68 --		-I../../../../../device/d1x_common/src/wm
                          69 --		-I../../../../../device/d1x_common/src/xbus
                          70 --		-I../../../../../device/lib -I../../../../../macro/bus/pbg/lib
                          71 --		-I../../../../../macro/bus/pbg/src
                          72 --		-I../../../../../macro/csi/csisw/lib
                          73 --		-I../../../../../macro/csi/csisw/src
                          74 --		-I../../../../../macro/drw2d/lib
                          75 --		-I../../../../../macro/drw2d/platform/cpu
                          76 --		-I../../../../../macro/drw2d/platform/os/no_os
                          77 --		-I../../../../../macro/drw2d/src
                          78 --		-I../../../../../macro/flashc/sfcdb/lib
                          79 --		-I../../../../../macro/flashc/sfcdb/src
                          80 --		-I../../../../../macro/flashc/sfma/lib
                          81 --		-I../../../../../macro/flashc/sfma/src
                          82 --		-I../../../../../macro/gfxbus/lib
                          83 --		-I../../../../../macro/gfxbus/src
                          84 --		-I../../../../../macro/gfxbus/xbus/lib
                          85 --		-I../../../../../macro/gfxbus/xbus/src
                          86 --		-I../../../../../macro/gpio/lib -I../../../../../macro/gpio/src
                          87 --		-I../../../../../macro/i2c/riic/lib
                          88 --		-I../../../../../macro/i2c/riic/src
                          89 --		-I../../../../../macro/tick/lib -I../../../../../macro/tick/src
                          90 --		-I../../../../../macro/timer/ostm/lib
                          91 --		-I../../../../../macro/timer/ostm/src
                          92 --		-I../../../../../macro/timer/tauj/lib
                          93 --		-I../../../../../macro/timer/tauj/src
                          94 --		-I../../../../../macro/vdce/lib -I../../../../../macro/vdce/src
                          95 --		-I../../../../../macro/vo/ddb/lib
                          96 --		-I../../../../../macro/vo/ddb/src
                          97 --		-I../../../../../macro/vo/spea/lib
                          98 --		-I../../../../../macro/vo/spea/src -I../../../../../macro/wm/lib
                          99 --		-I../../../../../macro/wm/src
                         100 --		-I../../../../../app/gfx_apps/simple_draw_d1l2/src/QD_HMI
                         101 --		-I../../../../../app/gfx_apps/simple_draw_d1l2/src/QD_HMI/HMI_Data
                         102 --		-G --no_commons --no_implicit_include --prototype_errors
                         103 --		-DR_DRW2D_OS_NO_OS -DR_DRW2D_SYS_CPU -DUSED_CPU=RH850G3M
                         104 --		-DUSE_BSP_GFX -DUSE_BSP_HMI -DUSE_BSP_STDIO -DUSE_CDI -DUSE_CSISW
                         105 --		-DUSE_DDB -DUSE_DRW2D -DUSE_GFXBUS -DUSE_GPIO -DUSE_OSTM
                         106 --		-DUSE_PBG -DUSE_RIIC -DUSE_SFCDB -DUSE_SFMA -DUSE_SPEA -DUSE_TAUJ
                         107 --		-DUSE_TICK -DUSE_VDCE -DUSE_WM -DUSE_XBUS -MD -Mn -Mx -Zuse1bit
                         108 --		-allocate_ep -cpu=rh850g3m -entry=_RESET -large_sda -list
                         109 --		-no_callt -notda -passsource -preprocess_assembly_files
                         110 --		-registermode=22 -reserve_r2 --diag_warning 1 -object_dir=./obj
                         111 --		-filetype.c ..\..\..\..\..\device\d1lx\src\dev\r_dev_clk.c -o

                                                                      Page 3
                                                              C:\Users\YINGAO~1\AppData\Local\Temp\gh_00007041.si
                         112 --		.\obj\r_dev_clk.o
                         113 --Source File:   ..\..\..\..\..\device\d1lx\src\dev\r_dev_clk.c
                         114 --Directory:     
                         115 --		D:\Renesas_Electronics\D1x_RGL\rgl_ghs_D1Lx_obj_V1.2.0\vlib\app\gfx_apps\simple_draw_d1l2\target\d1lx_mango_ghs
                         116 --Compile Date:  Fri Feb 02 14:21:48 2018
                         117 --Host OS:       Win32
                         118 --Version:       C-RH850 2013.5.5 DEVELOPMENT VERSION
                         119 --Release:       Compiler v2013.5.5
                         120 --Revision Date: Sat Oct 05 05:01:20 2013
                         121 --Release Date:  Sat Oct 05 05:22:44 2013
                         122 -- ecom  -g -w
                         123 
                         124 --1: /*
                         125 --2: ****************************************************************************
                         126 --3: PROJECT : clock device driver
                         127 --4: FILE    : $Id: r_dev_clk.c 7662 2016-02-15 14:59:20Z matthias.nippert $
                         128 --5: ============================================================================
                         129 --6: DESCRIPTION
                         130 --7: clock driver system functions for D1Lx
                         131 --8: ============================================================================
                         132 --9:                             C O P Y R I G H T
                         133 --10: ============================================================================
                         134 --11:                        Copyright (c) 2016
                         135 --12:                                   by
                         136 --13:                     Renesas Electronics (Europe) GmbH.
                         137 --14:                            Arcadiastrasse 10
                         138 --15:                           D-40472 Duesseldorf
                         139 --16:                                Germany
                         140 --17:                           All rights reserved.
                         141 --18: ============================================================================
                         142 --19: Purpose: only for testing, not for mass production
                         143 --21: DISCLAIMER
                         144 --23: LICENSEE has read, understood and accepted the terms and conditions defined in
                         145 --24: the license agreement, especially the usage rights. In any case, it is
                         146 --25: LICENSEE's responsibility to make sure that any user of the software complies
                         147 --26: with the terms and conditions of the signed license agreement.
                         148 --28: SAMPLE CODE is not part of the licensed software, as such it must not be used in
                         149 --29: mass-production applications. It can only be used for evaluation and
                         150 --30: demonstration purposes at customer's premises listed in the signed license
                         151 --31: agreement.
                         152 --33: ****************************************************************************
                         153 --34: */
                         154 --37: /*******************************************************************************
                         155 --38:   Title: D1Lx clock driver
                         156 --40: */
                         157 --41: /*******************************************************************************
                         158 --42:   Section: Local Constants
                         159 --43: */
                         160 --45: /*******************************************************************************
                         161 --46:   Section: Includes
                         162 --47: */
                         163 --48: #include "r_typedefs.h"
                         164 --49: #include "r_dev_api.h"
                         165 --50: #include "public.h"
                         166 --52: #if defined (R_DBG_PRINT_DEV_REGS) || defined (R_DBG_PRINT_MSG)
                         167 --53:    #include <stdio.h>
                         168 --54:    #include "r_dbg_api.h"
                         169 --55: #endif
                         170 --57: /*******************************************************************************
                         171 --58:   Section: Local Types
                         172 --59: */

                                                                      Page 4
                                                              C:\Users\YINGAO~1\AppData\Local\Temp\gh_00007041.si
                         173 --61: /*******************************************************************************
                         174 --62:   Type: loc_PllCfgReg_t
                         175 --64:   Contents of the PLL clock control/configuration register
                         176 --66:   Members:
                         177 --67:   NI                - Integer part of Divider Nr
                         178 --68:   P                 - Pr
                         179 --69:   M                 - Mr
                         180 --70:   SSMode            - Spread Spectrum Mode
                         181 --71:   NF                - real part of Nr
                         182 --72:   SSPerc            - Spread Spectrum Percentage
                         183 --73:   SSFreq            - Spread Spectrum middle frequency
                         184 --74:   FVV               - VCO output frequency range
                         185 --75: */
                         186 --77: typedef struct {
                         187 --78:     uint32_t  NI        : 7;
                         188 --79:     uint32_t  P         : 3;
                         189 --80:     uint32_t  M         : 2;
                         190 --81:     uint32_t  SSMode    : 2;
                         191 --82:     uint32_t  NF        : 4;
                         192 --83:     uint32_t  SSPerc    : 3;
                         193 --84:     uint32_t  SMFreq    : 5;
                         194 --85:     uint32_t  FVV       : 3;
                         195 --86: } loc_PllCfgReg_t;
                         196 --89: /*******************************************************************************
                         197 --90:   Type: loc_CksBase_t
                         198 --92:   Cks Base address type
                         199 --93:   If there is no selection, because only one source clock is there,
                         200 --94:   the ID of the clock is put instead the selector address
                         201 --95:   If there is no divider register, the address is 0
                         202 --97:   Members:
                         203 --98:   Sel           - Address of clock source selection register
                         204 --99:   Div           - Address of divider
                         205 --100:   DivIdx        - index of the corresponding entry in the  divider table
                         206 --101:   DivMsk        - Mask - valid divider bits
                         207 --102: */
                         208 --104: typedef struct {
                         209 --105:     uint32_t  Sel;
                         210 --106:     uint32_t  Div;
                         211 --107:     uint16_t  DivIdx;
                         212 --108:     uint16_t  DivMsk;
                         213 --109: } loc_CksBase_t;
                         214 --112: /*******************************************************************************
                         215 --113:   Section: Local Constants
                         216 --114: */
                         217 --116: /*******************************************************************************
                         218 --117:   Constant: LOC_HIGHS_FRQ_HZ
                         219 --119:   The frequency of the internal High speed oscillator
                         220 --121: */
                         221 --123: #define LOC_HIGHS_FRQ_HZ     (8000000uL)
                         222 --125: /*******************************************************************************
                         223 --126:   Constant: LOC_LOWS_FRQ_HZ
                         224 --128:   The frequency of the internal High speed oscillator
                         225 --130: */
                         226 --132: #define LOC_LOWS_FRQ_HZ     (240000uL)
                         227 --135: /*******************************************************************************
                         228 --136:   Constants: Register Offsets for clockgenerator registers
                         229 --138:   LOC_GEN_E       - Enable register
                         230 --139:   LOC_GEN_S       - Status register
                         231 --140:   LOC_GEN_C       - Control register
                         232 --141:   LOC_GEN_STABI   - Stabilisation time
                         233 --142:   LOC_GEN_STPMSK  - Stop mask

                                                                      Page 5
                                                              C:\Users\YINGAO~1\AppData\Local\Temp\gh_00007041.si
                         234 --143: */
                         235 --145: #define LOC_GEN_E       0x00u
                         236 --146: #define LOC_GEN_S       0x04u
                         237 --147: #define LOC_GEN_C       0x08u
                         238 --148: #define LOC_GEN_STABI   0x0Cu
                         239 --149: #define LOC_GEN_STPMSK  0x18u
                         240 --152: /*******************************************************************************
                         241 --153:   Constants: Register Offsets for clock selector registers
                         242 --155:  LOC_CKS_S       - Status
                         243 --156:  LOC_CKS_A       - Active selection
                         244 --157:  LOC_CKS_STPMSK  - Stop mask
                         245 --158: */
                         246 --160: #define LOC_CKS_S       0x04u
                         247 --161: #define LOC_CKS_A       0x08u
                         248 --162: #define LOC_CKS_STPMSK  0x18u
                         249 --165: /*******************************************************************************
                         250 --166:   Constant: LOC_GEN_ACTIVE_MASK
                         251 --168: */
                         252 --169: #define LOC_GEN_ACTIVE_MASK     (0x04u)
                         253 --171: /*******************************************************************************
                         254 --172:   Constant: LOC_STOP_MASKED_SET
                         255 --174: */
                         256 --176: #define LOC_STOP_MASKED_SET     (0x01u)
                         257 --178: /*******************************************************************************
                         258 --179:   Constant: LOC_AWO_CKS_BASE_ADDR
                         259 --181:   Register base adress for AWO clock selectors
                         260 --182: */
                         261 --184: #define LOC_AWO_CKS_BASE_ADDR  0xfff82000u
                         262 --186: /*******************************************************************************
                         263 --187:   Constant: LOC_CPUSS_CKS_BASE_ADDR
                         264 --189:    Register base adress for ISO clock selectors
                         265 --190: */
                         266 --192: #define LOC_CPUSS_CKS_BASE_ADDR  0xfff8A000u
                         267 --194: /*******************************************************************************
                         268 --195:   Constant: LOC_ISO_BASEADDRESS
                         269 --197:    Register base adress for ISO clock selectors
                         270 --198: */
                         271 --200: #define LOC_ISO_CKS_BASE_ADDR  0xfff85000u
                         272 --202: /*******************************************************************************
                         273 --203:   Constant: LOC_PBUS_RATIO
                         274 --205:   For CPU running @ more than 120MHz a additional divider is applied for the APB
                         275 --206:   it is done at HW level and not configurable
                         276 --207: */
                         277 --208: #define LOC_PBUS_RATIO          2u
                         278 --210: /*******************************************************************************
                         279 --211:   Constant: loc_Base
                         280 --213:   Register base adress for clock generators
                         281 --214: */
                         282 --215: static const uint32_t loc_Base[R_DEV_CLK_GEN_NUM] =
                         283 --216: {
                         284 --217:     /*R_DEV_PLL0       */ 0xFFF89000u,
                         285 --218:     /*R_DEV_PLL1       */ 0xFFF89100u,
                         286 --219:     /*R_DEV_PLL2       */ 0xFFF850C0u,
                         287 --220:     /*R_DEV_HS_RING    */ 0xFFF81000u,
                         288 --221:     /*R_DEV_MOSC       */ 0xFFF81100u,
                         289 --222:     /*R_DEV_SUB_OSC    */ 0xFFF81200u
                         290 --223: };
                         291 --225: /*******************************************************************************
                         292 --226:   Constant: LOC_PROTCMD0
                         293 --228:   Address of the AWO protection register
                         294 --230: */

                                                                      Page 6
                                                              C:\Users\YINGAO~1\AppData\Local\Temp\gh_00007041.si
                         295 --232: #define LOC_PROTCMD0     (0xfff80000u)
                         296 --234: /*******************************************************************************
                         297 --235:   Constant: LOC_PROTCMD1
                         298 --237:   Address of the ISO protection register
                         299 --239: */
                         300 --241: #define LOC_PROTCMD1     (0xfff88000u)
                         301 --243: /*******************************************************************************
                         302 --244:   Constant: LOC_PROTCMDD1
                         303 --246:   Address of the another ISO protection cluster
                         304 --248: */
                         305 --250: #define LOC_PROTCMDD1     (0xfff87000u)
                         306 --252: /*******************************************************************************
                         307 --253:    Constant: LOC_F
                         308 --254:    Placeholder, marker
                         309 --255:    If the divider slot 0 has this value in the
                         310 --256:    allowed settings table, the divider value is not taken from any slot
                         311 --257:    but literaly from the given register */
                         312 --258: #define LOC_F           0xFEFEu
                         313 --260: /*******************************************************************************
                         314 --261:    Constant: LOC_D
                         315 --262:    Placeholder, marker
                         316 --263:    If the divider slot  has this value, the setting is not available
                         317 --264:  */
                         318 --265: #define LOC_N           0xFFFFu
                         319 --268: static const uint32_t locBusRegAddr[R_DEV_CLK_BUS_LAST] =
                         320 --269: {
                         321 --270: /* R_DEV_CLK_PLL0     */    0xFFF89200u,
                         322 --271: /* R_DEV_CLK_PLL1     */    0xFFF89300u,
                         323 --272: /* R_DEV_CLK_PLL2     */    0xFFF85100u,
                         324 --273: /* R_DEV_CLK_PLL0PIX  */    0xFFF85640u,
                         325 --274: /* R_DEV_CLK_SDRB     */    0xFFF85140u,
                         326 --275: /* R_DEV_CLK_ETNBP    */    0xFFF85280u,
                         327 --276: /* R_DEV_CLK_MLBP     */    0xFFF852C0u,
                         328 --277: /* R_DEV_CLK_RSCANP   */    0xFFF85240u,
                         329 --278: /* R_DEV_CLK_XCC      */    0xFFF85180u,
                         330 --279: /* R_DEV_CLK_ETNBXCC  */    0xFFF851C0u,
                         331 --280: /* R_DEV_CLK_MLBXCC   */    0xFFF85200u,
                         332 --281: };
                         333 --282: /*******************************************************************************
                         334 --283:   Constant: loc_ClkSelOffset
                         335 --285:   Register base adress for clock selectors
                         336 --287:   The clock selection for RLIN and RLIN30 uses the same register
                         337 --288:   But the RLIN30 has an additional divider regiaster
                         338 --289:  */
                         339 --292: static const loc_CksBase_t loc_CkcsBaseAddr[R_DEV_CKS_LAST] =
                         340 --293: {
                         341 --295:   /*    Clock selector      sourceID or selector addr     , divider addr or 0                DivIdx  DivMsk*/
                         342 --296:   /*  R_DEV_CKS_WDT0    */ {R_DEV_CKS_SRC_LRNG,             LOC_AWO_CKS_BASE_ADDR           , 0    , 0x7Eu},
                         343 --297:   /*  R_DEV_CKS_AWOT    */ {LOC_AWO_CKS_BASE_ADDR + 0x100u, LOC_AWO_CKS_BASE_ADDR +   0x200u, 1    , 0x3Eu},
                         344 --298:   /*  R_DEV_CKS_RTCA    */ {LOC_AWO_CKS_BASE_ADDR + 0x300u, LOC_AWO_CKS_BASE_ADDR +   0x400u, 2    , 0x3Fu},
                         345 --299:   /*  R_DEV_CKS_FOUT    */ {LOC_AWO_CKS_BASE_ADDR + 0x700u, LOC_AWO_CKS_BASE_ADDR +   0x800u, 3    , 0xFFu},
                         346 --300:   /*  R_DEV_CKS_CPU     */ {LOC_CPUSS_CKS_BASE_ADDR       , LOC_CPUSS_CKS_BASE_ADDR + 0x100u, 4    , 0x3Eu},
                         347 --301:   /*  R_DEV_CKS_MLB     */ {LOC_ISO_CKS_BASE_ADDR + 0x300u,                                0, 0xFFu, 0x0} ,
                         348 --302:   /*  R_DEV_CKS_SFMA    */ {LOC_ISO_CKS_BASE_ADDR + 0x340u, LOC_ISO_CKS_BASE_ADDR +   0x380u, 5    , 0x1Fu},
                         349 --303:   /*  R_DEV_CKS_RSCAN   */ {R_DEV_CKS_SRC_PLLFIX          , LOC_ISO_CKS_BASE_ADDR +   0x780u, 6    , 0x0Fu},
                         350 --304:   /*  R_DEV_CKS_RSCANXIN*/ {LOC_ISO_CKS_BASE_ADDR + 0x800u,                                0, 0xFFu, 0x0},
                         351 --305:   /*  R_DEV_CKS_SSIF    */ {R_DEV_CKS_SRC_PLLFIX          , LOC_ISO_CKS_BASE_ADDR +   0x7C0u, 7    , 0x01u},
                         352 --306:   /*  R_DEV_CKS_TAUB0   */ {LOC_ISO_CKS_BASE_ADDR + 0x540u,                                0, 0xFFu, 0x0},
                         353 --307:   /*  R_DEV_CKS_TAUB2   */ {LOC_ISO_CKS_BASE_ADDR + 0x580u,                                0, 0xFFu, 0x0},
                         354 --308:   /*  R_DEV_CKS_TAUJ    */ {LOC_ISO_CKS_BASE_ADDR + 0x5C0u,                                0, 0xFFu, 0x0},
                         355 --309:   /*  R_DEV_CKS_OSTM    */ {LOC_ISO_CKS_BASE_ADDR + 0x600u,                                0, 0xFFu, 0x0},

                                                                      Page 7
                                                              C:\Users\YINGAO~1\AppData\Local\Temp\gh_00007041.si
                         356 --310:   /*  R_DEV_CKS_LCBI    */ {LOC_ISO_CKS_BASE_ADDR + 0x4C0u,                                0, 0xFFu, 0x0},
                         357 --311:   /*  R_DEV_CKS_ADCE    */ {R_DEV_CKS_SRC_CLKJIT          , LOC_ISO_CKS_BASE_ADDR +   0x480u, 8    , 0x06u},
                         358 --312:   /*  R_DEV_CKS_ISM     */ {LOC_ISO_CKS_BASE_ADDR + 0x440u,                                0, 0xFFu, 0x0},
                         359 --313:   /*  R_DEV_CKS_RLIN    */ {LOC_ISO_CKS_BASE_ADDR + 0x500u,                                0, 0xFFu, 0x0},
                         360 --314:   /*  R_DEV_CKS_CLKJIT  */ {LOC_ISO_CKS_BASE_ADDR + 0x400u, LOC_ISO_CKS_BASE_ADDR +   0x3C0u, 9    , 0x02u},
                         361 --315:   /*  R_DEV_CKS_CLKFIX  */ {LOC_ISO_CKS_BASE_ADDR + 0x740u, LOC_ISO_CKS_BASE_ADDR +   0x700u, 10   , 0x02u},
                         362 --316:   /*  R_DEV_CKS_PLLFIX  */ {LOC_ISO_CKS_BASE_ADDR         ,                                0, 0xFFu, 0x0},
                         363 --317:   /*  R_DEV_CKS_PLL2IN  */ {LOC_ISO_CKS_BASE_ADDR + 0x080u, LOC_ISO_CKS_BASE_ADDR +   0x040u, 11   , 0x02u},
                         364 --318:   /*  R_DEV_CKS_DOTCK0  */ {LOC_ISO_CKS_BASE_ADDR + 0x940u, LOC_ISO_CKS_BASE_ADDR +   0x9C0u, 12   , 0x02u},
                         365 --319:   /*  R_DEV_CKS_DOTCK1  */ {LOC_ISO_CKS_BASE_ADDR + 0x980u, LOC_ISO_CKS_BASE_ADDR +   0xA00u, 13   , 0x02u},
                         366 --320:   /*  R_DEV_CKS_VDCE0CK */ {LOC_ISO_CKS_BASE_ADDR + 0x880u,                                0, 0xFFu, 0x0},
                         367 --321:   /*  R_DEV_CKS_VDCE1CK */ {LOC_ISO_CKS_BASE_ADDR + 0x8C0u,                                0, 0xFFu, 0x0},
                         368 --322:   /*  R_DEV_CKS_RSDSCK  */ {LOC_ISO_CKS_BASE_ADDR + 0xA40u,                                0, 0xFFu, 0x0},
                         369 --323:   /*  R_DEV_CKS_VIN0CK  */ {LOC_ISO_CKS_BASE_ADDR + 0x840u,                                0, 0xFFu, 0x0},
                         370 --324:   /*  R_DEV_CKS_MIPIPLL */ {LOC_ISO_CKS_BASE_ADDR + 0x680u,                                0, 0xFFu, 0x0},
                         371 --325:   /*  R_DEV_CKS_MIPIPXL */ {R_DEV_CKS_SRC_MIPIPLL         , LOC_ISO_CKS_BASE_ADDR +   0x6C0u, 14   , 0x0Fu}
                         372 --326:  };
                         373 --328: #define LOC_DIS        (R_DEV_CKS_SRC_DISABLED)
                         374 --329: #define LOC_LRNG       (R_DEV_CKS_SRC_LRNG)
                         375 --330: #define LOC_HRING      (R_DEV_CKS_SRC_HRING)
                         376 --331: #define LOC_EM         (R_DEV_CKS_SRC_ERING)
                         377 --332: #define LOC_MOSC       (R_DEV_CKS_SRC_MOSC)
                         378 --333: #define LOC_SOSC       (R_DEV_CKS_SRC_SOSC)
                         379 --334: #define LOC_PLL0       (R_DEV_CKS_SRC_PLL0)
                         380 --335: #define LOC_PLL0_2     (R_DEV_CKS_SRC_PLL0_2)
                         381 --336: #define LOC_PLL0_4     (R_DEV_CKS_SRC_PLL0_4)
                         382 --337: #define LOC_PLL1       (R_DEV_CKS_SRC_PLL1)
                         383 --338: #define LOC_PLL1_4     (R_DEV_CKS_SRC_PLL1_4)
                         384 --339: #define LOC_PLL2       (R_DEV_CKS_SRC_PLL2)
                         385 --340: #define LOC_PLL2_4     (R_DEV_CKS_SRC_PLL2_4)
                         386 --341: #define LOC_ISOCPU_4   (R_DEV_CKS_SRC_ISOCPU_4)
                         387 --342: #define LOC_CLKFIX     (R_DEV_CKS_SRC_CLKFIX)
                         388 --343: #define LOC_CLKFIX_8   (R_DEV_CKS_SRC_CLKFIX_8)
                         389 --344: #define LOC_CLKJIT     (R_DEV_CKS_SRC_CLKJIT)
                         390 --345: #define LOC_CLKJIT_2   (R_DEV_CKS_SRC_CLKJIT_2)
                         391 --346: #define LOC_CLKJIT_4   (R_DEV_CKS_SRC_CLKJIT_4)
                         392 --347: #define LOC_CLKJIT_8   (R_DEV_CKS_SRC_CLKJIT_8)
                         393 --348: #define LOC_PLLFIX_10  (R_DEV_CKS_SRC_PLLFIX_10)
                         394 --349: #define LOC_PLL0PIX    (R_DEV_CKS_SRC_PLL0PIX)
                         395 --350: #define LOC_PLLFIX     (R_DEV_CKS_SRC_PLLFIX)
                         396 --351: #define LOC_PLL0PIX_3  (R_DEV_CKS_SRC_PLL0PIX_3)
                         397 --352: #define LOC_PLLFIX_3   (R_DEV_CKS_SRC_PLLFIX_3)
                         398 --353: #define LOC_DOTC0      (R_DEV_CKS_SRC_DOTCK0)
                         399 --354: #define LOC_DOTC0_4    (R_DEV_CKS_SRC_DOTCK0_4)
                         400 --355: #define LOC_DOTC1      (R_DEV_CKS_SRC_DOTCK1)
                         401 --356: #define LOC_DOTC1_4    (R_DEV_CKS_SRC_DOTCK1_4)
                         402 --357: #define LOC_V1PIX      (R_DEV_CKS_SRC_VI1PIX)
                         403 --358: #define LOC_V0PIX      (R_DEV_CKS_SRC_VI0PIX)
                         404 --359: #define LOC_VI0CLK     (R_DEV_CKS_SRC_VI0CLK)
                         405 --360: #define LOC_MIPIPIX    (R_DEV_CKS_SRC_MIPIPXL)
                         406 --361: #define LOC_MIPIPLL    (R_DEV_CKS_SRC_MIPIPLL)
                         407 --362: #define LOC_XX         (R_DEV_CKS_SRC_LAST)
                         408 --363: #define LOC_DIV        (R_DEV_CKS_SRC_DIV)
                         409 --365: static const r_dev_CksSrc_t loc_ClockTree[R_DEV_CKS_LAST][8] =
                         410 --366: {
                         411 --367: /* there are max 8 slots,
                         412 --368:    LOC_XX means forbidden value/selection */
                         413 --370:    /* Clock selector domain    cks source slot
                         414 --371:                               0        1              2             3           4             5           6             7   */
                         415 --372:    /* R_DEV_CKS_WDT0    */{LOC_XX,     LOC_LRNG,      LOC_XX,       LOC_XX,     LOC_XX,       LOC_XX,     LOC_XX,       LOC_XX },
                         416 --373:    /* R_DEV_CKS_AWOT    */{LOC_DIS,    LOC_HRING,     LOC_MOSC,     LOC_LRNG,   LOC_XX,       LOC_XX,     LOC_XX,       LOC_XX },

                                                                      Page 8
                                                              C:\Users\YINGAO~1\AppData\Local\Temp\gh_00007041.si
                         417 --374:    /* R_DEV_CKS_RTCA    */{LOC_DIS,    LOC_SOSC,      LOC_MOSC,     LOC_LRNG,   LOC_HRING,    LOC_XX,     LOC_XX,       LOC_XX },
                         418 --375:    /* R_DEV_CKS_FOUT    */{LOC_DIS,    LOC_MOSC,      LOC_HRING,    LOC_LRNG,   LOC_SOSC,     LOC_PLL0_4, LOC_PLL1_4,   LOC_PLL2_4},
                         419 --376:    /* R_DEV_CKS_CPU     */{LOC_XX,     LOC_EM,        LOC_XX,       LOC_PLL0,   LOC_PLL1,     LOC_XX,     LOC_XX,       LOC_XX },
                         420 --377:    /* R_DEV_CKS_MLB     */{LOC_DIS,    LOC_PLL0_2,    LOC_PLL0_4,   LOC_XX,     LOC_XX,       LOC_XX,     LOC_XX,       LOC_XX },
                         421 --378:    /* R_DEV_CKS_SFMA    */{LOC_XX,     LOC_PLL0,      LOC_PLL1,     LOC_XX,     LOC_XX,       LOC_XX,     LOC_XX,       LOC_XX },
                         422 --379:    /* R_DEV_CKS_RSCAN   */{LOC_PLLFIX, LOC_XX,        LOC_XX,       LOC_XX,     LOC_XX,       LOC_XX,     LOC_XX,       LOC_XX },
                         423 --380:    /* R_DEV_CKS_RSCANXIN*/{LOC_DIS,    LOC_MOSC,      LOC_XX,       LOC_XX,     LOC_XX,       LOC_XX,     LOC_XX,       LOC_XX },
                         424 --381:    /* R_DEV_CKS_SSIF    */{LOC_PLLFIX, LOC_XX,        LOC_XX,       LOC_XX,     LOC_XX,       LOC_XX,     LOC_XX,       LOC_XX },
                         425 --382:    /* R_DEV_CKS_TAUB0   */{LOC_DIS,    LOC_CLKFIX,    LOC_CLKFIX_8, LOC_CLKJIT, LOC_CLKJIT_8, LOC_XX,     LOC_XX,       LOC_XX },
                         426 --383:    /* R_DEV_CKS_TAUB2   */{LOC_DIS,    LOC_CLKFIX,    LOC_CLKFIX_8, LOC_CLKJIT, LOC_CLKJIT_8, LOC_MOSC,   LOC_XX,       LOC_XX },
                         427 --384:    /* R_DEV_CKS_TAUJ    */{LOC_DIS,    LOC_CLKFIX,    LOC_CLKFIX_8, LOC_CLKJIT, LOC_CLKJIT_8, LOC_MOSC,   LOC_ISOCPU_4, LOC_XX },
                         428 --385:    /* R_DEV_CKS_OSTM    */{LOC_DIS,    LOC_CLKJIT,    LOC_ISOCPU_4, LOC_MOSC,   LOC_XX,       LOC_XX,     LOC_XX,       LOC_XX },
                         429 --386:    /* R_DEV_CKS_LCBI    */{LOC_DIS,    LOC_CLKJIT,    LOC_XX,       LOC_XX,     LOC_XX,       LOC_XX,     LOC_XX,       LOC_XX },
                         430 --387:    /* R_DEV_CKS_ADCE    */{LOC_XX,     LOC_CLKJIT_2,  LOC_CLKJIT_4, LOC_XX,     LOC_XX,       LOC_XX,     LOC_XX,       LOC_XX },
                         431 --388:    /* R_DEV_CKS_ISM     */{LOC_DIS,    LOC_CLKJIT,    LOC_XX,       LOC_XX,     LOC_XX,       LOC_XX,     LOC_XX,       LOC_XX },
                         432 --389:    /* R_DEV_CKS_RLIN    */{LOC_XX,     LOC_PLLFIX_10, LOC_CLKJIT,   LOC_XX,     LOC_XX,       LOC_XX,     LOC_XX,       LOC_XX },
                         433 --390:    /* R_DEV_CKS_CLKJIT  */{LOC_XX,     LOC_DIV,       LOC_HRING,    LOC_XX,     LOC_XX,       LOC_XX,     LOC_XX,       LOC_XX },
                         434 --391:    /* R_DEV_CKS_CLKFIX  */{LOC_XX,     LOC_DIV,       LOC_HRING,    LOC_XX,     LOC_XX,       LOC_XX,     LOC_XX,       LOC_XX },
                         435 --392:    /* R_DEV_CKS_PLLFIX  */{LOC_XX,     LOC_PLL1,      LOC_PLL2,     LOC_XX,     LOC_XX,       LOC_XX,     LOC_XX,       LOC_XX },
                         436 --393:    /* R_DEV_CKS_PLL2IN  */{LOC_XX,     LOC_DIV,       LOC_MOSC,     LOC_XX,     LOC_XX,       LOC_XX,     LOC_XX,       LOC_XX },
                         437 --394:    /* R_DEV_CKS_DOTCK0  */{LOC_DIS,    LOC_PLL0PIX,   LOC_PLL1,     LOC_XX,     LOC_XX,       LOC_XX,     LOC_XX,       LOC_XX },
                         438 --395:    /* R_DEV_CKS_DOTCK1  */{LOC_XX,     LOC_XX,        LOC_XX,       LOC_XX,     LOC_XX,       LOC_XX,     LOC_XX,       LOC_XX },
                         439 --396:    /* R_DEV_CKS_VDCE0CK */{LOC_DIS,    LOC_DOTC0,     LOC_DOTC0_4,  LOC_V1PIX,  LOC_V0PIX,    LOC_XX,     LOC_XX,       LOC_XX },
                         440 --397:    /* R_DEV_CKS_VDCE1CK */{LOC_DIS,    LOC_DOTC1,     LOC_DOTC1_4,  LOC_V1PIX,  LOC_V0PIX,    LOC_XX,     LOC_XX,       LOC_XX },
                         441 --398:    /* R_DEV_CKS_RSDSCK  */{LOC_XX,     LOC_DOTC1,     LOC_DOTC0,    LOC_XX,     LOC_XX,       LOC_XX,     LOC_XX,       LOC_XX },
                         442 --399:    /* R_DEV_CKS_VIN0PIX */{LOC_XX,     LOC_VI0CLK,    LOC_MIPIPIX,  LOC_XX,     LOC_XX,       LOC_XX,     LOC_XX,       LOC_XX },
                         443 --400:    /* R_DEV_CKS_MIPIPLL */{LOC_XX,     LOC_PLL0PIX_3, LOC_PLLFIX_3, LOC_XX,     LOC_XX,       LOC_XX,     LOC_XX,       LOC_XX },
                         444 --401:    /* R_DEV_CKS_MIPIPXL */{LOC_XX,     LOC_MIPIPLL,   LOC_XX,       LOC_XX,     LOC_XX,       LOC_XX,     LOC_XX,       LOC_XX }
                         445 --402: };
                         446 --405: /*******************************************************************************
                         447 --406:   Constant: loc_ClkDivSel
                         448 --408:   For each divider, the register value has different meaning.
                         449 --409:   Sometimes it is a divider selection, sometimes it is the divider value itself
                         450 --411:   Explanation of settings:
                         451 --412:   LOC_N     : Setting not valid  (the corresponding value is not allowed for the given register)
                         452 --413:   LOC_F     : Full register is used (no translation of values) as divider for the selected source
                         453 --414:               The source selection is determined by the value stored in  loc_ClockTree
                         454 --415:               That means if for the sourceID the div value in the corresponding slot is LOC_F,
                         455 --416:               the register value of the divider register is used as divider for the corresponding
                         456 --417:               clock source
                         457 --418:   any number: Divider for the selected source clock
                         458 --420:   Following selectors have dividers:
                         459 --421:   R_DEV_CKS_WDT0    7E
                         460 --422:   R_DEV_CKS_AWOT    3E
                         461 --423:   R_DEV_CKS_RTC     3F
                         462 --424:   R_DEV_CKS_FOUT    FF
                         463 --425:   R_DEV_CKS_CPU     3E
                         464 --426:   R_DEV_CKS_SFMA    1F
                         465 --427:   R_DEV_CKS_RSCAN   0F
                         466 --428:   R_DEV_CKS_SSIF    01
                         467 --429:   R_DEV_CKS_ADCE    06
                         468 --430:   R_DEV_CKS_CLKJIT  02
                         469 --431:   R_DEV_CKS_CLKFIX  02
                         470 --432:   R_DEV_CKS_PLL2IN  02
                         471 --433:   R_DEV_CKS_DOTCK0  02
                         472 --434:   R_DEV_CKS_DOTCK1  02
                         473 --435:   R_DEV_CKS_MIPIPXL 0F
                         474 --436: */
                         475 --438: static const uint16_t loc_ClkSelDiv[15][8] =
                         476 --439: {
                         477 --440:    /*                       (0xFF - setting prohibited)   */

                                                                      Page 9
                                                              C:\Users\YINGAO~1\AppData\Local\Temp\gh_00007041.si
                         478 --441:    /*          div slot          0,     1,     2,     3,     4,     5,     6 ,    7*/
                         479 --442:    /* R_DEV_CKS_WDT0    */  {LOC_N,  128u,    1u,  256u,  512u, 1024u, 2048u, LOC_N},
                         480 --443:    /* R_DEV_CKS_AWOT    */  {LOC_N,    1u,    2u,    4u,    8u,   16u, LOC_N, LOC_N},
                         481 --444:    /* R_DEV_CKS_RTC     */  {    0,    1u,    2u,    4u,    8u,   16u, LOC_N, LOC_N},
                         482 --445:    /* R_DEV_CKS_FOUT    */  {LOC_F, LOC_F, LOC_F, LOC_F, LOC_F, LOC_F, LOC_F, LOC_F},
                         483 --446:    /* R_DEV_CKS_CPU     */  {LOC_N,    1u,    2u,    4u,    8u,    3u, LOC_N, LOC_N},
                         484 --447:    /* R_DEV_CKS_SFMA    */  {    0,    2u,    3u,    4u,    6u, LOC_N, LOC_N, LOC_N},
                         485 --448:    /* R_DEV_CKS_RSCAN   */  {    0,   30u,   40u,   60u, LOC_N, LOC_N, LOC_N, LOC_N},
                         486 --449:    /* R_DEV_CKS_SSIF    */  {LOC_F, LOC_N, LOC_N, LOC_N, LOC_N, LOC_N, LOC_N, LOC_N},
                         487 --450:    /* R_DEV_CKS_ADCE    */  {LOC_N,    2u,    4u, LOC_N, LOC_N, LOC_N, LOC_N, LOC_N},
                         488 --451:    /* R_DEV_CKS_CLKJIT  */  {LOC_N, LOC_F, LOC_N, LOC_N, LOC_N, LOC_N, LOC_N, LOC_N},
                         489 --452:    /* R_DEV_CKS_CLKFIX  */  {LOC_N, LOC_F, LOC_N, LOC_N, LOC_N, LOC_N, LOC_N, LOC_N},
                         490 --453:    /* R_DEV_CKS_PLL2IN  */  {LOC_N, LOC_F, LOC_N, LOC_N, LOC_N, LOC_N, LOC_N, LOC_N},
                         491 --454:    /* R_DEV_CKS_DOTCK0  */  {LOC_N, LOC_F, LOC_F, LOC_F, LOC_N, LOC_N, LOC_N, LOC_N},
                         492 --455:    /* R_DEV_CKS_DOTCK1  */  {LOC_N, LOC_F, LOC_F, LOC_F, LOC_N, LOC_N, LOC_N, LOC_N},
                         493 --456:    /* R_DEV_CKS_MIPIPXL */  {    0,    3u,    6u,   12u, LOC_N, LOC_N, LOC_N, LOC_N},
                         494 --458: };
                         495 --460: static const uint16_t loc_SscgDiv[32] =
                         496 --461: {
                         497 --462:     10  ,
                         498 --463:     12  ,
                         499 --464:     18  ,
                         500 --465:     20  ,
                         501 --466:     22  ,
                         502 --467:     26  ,
                         503 --468:     28  ,
                         504 --469:     30  ,
                         505 --470:     34  ,
                         506 --471:     38  ,
                         507 --472:     40  ,
                         508 --473:     44  ,
                         509 --474:     50  ,
                         510 --475:     56  ,
                         511 --476:     58  ,
                         512 --477:     60  ,
                         513 --478:     62  ,
                         514 --479:     66  ,
                         515 --480:     72  ,
                         516 --481:     76  ,
                         517 --482:     80  ,
                         518 --483:     84  ,
                         519 --484:     86  ,
                         520 --485:     100 ,
                         521 --486:     120 ,
                         522 --487:     126 ,
                         523 --488:     134 ,
                         524 --489:     150 ,
                         525 --490:     166 ,
                         526 --491:     200 ,
                         527 --492:     250 ,
                         528 --493:     300
                         529 --494: };
                         530 --496: static const uint8_t loc_SscgPercent[8] =
                         531 --497: {
                         532 --498:     1  ,
                         533 --499:     2  ,
                         534 --500:     3  ,
                         535 --501:     4  ,
                         536 --502:     5  ,
                         537 --503:     6  ,
                         538 --504:     8  ,

                                                                      Page 10
                                                              C:\Users\YINGAO~1\AppData\Local\Temp\gh_00007041.si
                         539 --505:     10 ,
                         540 --506: };
                         541 --508: /*******************************************************************************
                         542 --509:   Section: Local Variables
                         543 --510: */
                         544 --511: /*
                         545 --512:    loc_ClkGenCfg - local Clock generator configuration
                         546 --513: */
                         547 --514: static r_dev_ClkGenConfig_t loc_ClkGenCfg;
                         548 --516: /*******************************************************************************
                         549 --517:   Variable: loc_Vdce0ViFreq
                         550 --518:   Store the frequency (in Hz) of the external input VDCE0_VI_CLK
                         551 --519: */
                         552 --520: static uint32_t loc_Vdce0ViFreq = 0;
                         553 --522: /*******************************************************************************
                         554 --523:   Variable: loc_Vdce1ViFreq
                         555 --524:   Store the frequency (in Hz) of the external input VDCE1_VI_CLK
                         556 --525: */
                         557 --526: static uint32_t loc_Vdce1ViFreq = 0;
                         558 --529: /*******************************************************************************
                         559 --530:   Section: Local functions
                         560 --532: */
                         561 --533: static void loc_WritePllCfg (r_dev_ClkGen_t Pll, loc_PllCfgReg_t * PllCfgReg);
                         562 --534: static r_Error_t loc_CalcFreqPll0(uint32_t FrqIn, loc_PllCfgReg_t * PllCfgReg, uint32_t *FrqOut);
                         563 --535: static r_Error_t loc_CalcFreqPll1(uint32_t FrqIn, loc_PllCfgReg_t * PllCfgReg, uint32_t *FrqOut);
                         564 --536: static r_Error_t loc_CalcFreqPll2(uint32_t FrqIn, loc_PllCfgReg_t * PllCfgReg, uint32_t *FrqOut);
                         565 --537: static uint32_t loc_SrcFrequencyHz(r_dev_CksSrc_t ClkSrc);
                         566 --538: static r_Error_t loc_CalcSscgPll0(uint32_t FrqIn, loc_PllCfgReg_t * PllCfgReg, const r_dev_PllCfg_t * PllCfg);
                         567 --539: static void loc_PllCfgStore(uint32_t FrqIn, r_dev_ClkGen_t Pll, const r_dev_PllCfg_t *PllCfg);
                         568 --541: /*******************************************************************************
                         569 --542:   Function: loc_PllCfgStore
                         570 --544:     this is a copy of the PllConfig function, used to store the settings after low init
                         571 --545:     whre all the structures were deleted
                         572 --546: */
                         573 --548: static void loc_PllCfgStore(uint32_t FrqIn, r_dev_ClkGen_t Pll, const r_dev_PllCfg_t *PllCfg)
                         574 	.text
                         575 ..bof.D.3A.5CRenesas_Electronics.5CD1x_RGL.5Crgl_ghs_D1Lx_obj_V1.2E2.2E0.5Cvlib.5Capp.5Cgfx_apps.5Csimple_draw_d1l2.5Ctarget.5Cd1lx_mango_ghs.5Cobj.5Cr_dev_clk...44.3A.5CRenesas_Electronics.5CD1x_RGL.5Crgl_ghs_D1Lx_obj_V1.2E2.2E0.5Cvlib.5Capp.5Cgfx_apps.5Csimple_draw_d1l2.5Ctarget.5Cd1lx_mango_ghs..5A74037C..0::
                         576 	.align	2
                         577 	.global	_loc_PllCfgStore..D.3A.5CRenesas_Electronics.5CD1x_RGL.5Crgl_ghs_D1Lx_obj_V1.2E2.2E0.5Cvlib.5Capp.5Cgfx_apps.5Csimple_draw_d1l2.5Ctarget.5Cd1lx_mango_ghs.5Cobj.5Cr_dev_clk.
                         578 _loc_PllCfgStore..D.3A.5CRenesas_Electronics.5CD1x_RGL.5Crgl_ghs_D1Lx_obj_V1.2E2.2E0.5Cvlib.5Capp.5Cgfx_apps.5Csimple_draw_d1l2.5Ctarget.5Cd1lx_mango_ghs.5Cobj.5Cr_dev_clk.:
                         579 _loc_PllCfgStore:
00000000 8807e170        580 	prepare	{r25,r26,r27,r28,r29,r31},4
00000004 3d0600000000*   581 	mov	.L92,r29
0000000a 63370d00        582 	st.w	r6,12[sp]
0000000e 07d0            583 	mov	r7,r26
00000010 08d8            584 	mov	r8,r27
00000012 1dce1400        585 	addi	20,r29,r25
                         586 --	    .bf
                         587 .LDW01:
                         588 --549: {
                         589 --550:     uint32_t          freq_out  = PllCfg->FrequencyHz/1000000u;
00000016 3b0f1100        590 	ld.w	16[r27],r1
0000001a 2e0640420f00    591 	mov	1000000,r14
00000020 ee0ffe02        592 	divqu	r14,r1,zero
00000024 630f0100        593 	st.w	r1,0[sp]
                         594 --551:     r_Error_t         ret_val   = R_NG;
00000028 01e2            595 	mov	1,r28
                         596 --552:     uint32_t          regval    = 0;
0000002a 63070900        597 	st.w	zero,8[sp]
0000002e 005a            598 	mov	0,r11
                         599 --553:     loc_PllCfgReg_t   pllcfg_reg;

                                                                      Page 11
                                                              C:\Users\YINGAO~1\AppData\Local\Temp\gh_00007041.si
                         600 --554:     /* This one is not needed here */
                         601 --555:     Pll = Pll;
00000030 0000            602 	nop
                         603 --557:     /* Clear Config */
                         604 --558:     pllcfg_reg.NI       = 0;
00000032 830f0500        605 	ld.bu	4[sp],r1
00000036 c10e8000        606 	andi	128,r1,r1
0000003a 430f0400        607 	st.b	r1,4[sp]
                         608 --559:     pllcfg_reg.P        = 0;
0000003e e30f0500        609 	ld.hu	4[sp],r1
00000042 c10e7ffc        610 	andi	64639,r1,r1
00000046 630f0400        611 	st.h	r1,4[sp]
                         612 --560:     pllcfg_reg.M        = 0;
0000004a a30f0500        613 	ld.bu	5[sp],r1
0000004e c10ef300        614 	andi	243,r1,r1
00000052 430f0500        615 	st.b	r1,5[sp]
                         616 --561:     pllcfg_reg.NF       = 0;
00000056 230f0500        617 	ld.w	4[sp],r1
0000005a 2e06ff3ffcff    618 	mov	-245761,r14
00000060 4e09            619 	and	r14,r1
00000062 630f0500        620 	st.w	r1,4[sp]
                         621 --562:     pllcfg_reg.SSMode   = 0;
00000066 a30f0500        622 	ld.bu	5[sp],r1
0000006a c10ecf00        623 	andi	207,r1,r1
0000006e 430f0500        624 	st.b	r1,5[sp]
                         625 --563:     pllcfg_reg.SSPerc   = 0;
00000072 830f0700        626 	ld.bu	6[sp],r1
00000076 c10ee300        627 	andi	227,r1,r1
0000007a 430f0600        628 	st.b	r1,6[sp]
                         629 --564:     pllcfg_reg.SMFreq   = 0;
0000007e e30f0700        630 	ld.hu	6[sp],r1
00000082 c10e1ffc        631 	andi	64543,r1,r1
00000086 630f0600        632 	st.h	r1,6[sp]
                         633 --566:     /* VC = freq = fin * Nr/Pr */
                         634 --567:     /* Set/Check the frequency */
                         635 --568:     switch (Pll)
0000008a 1a08            636 	mov	r26,r1
0000008c 610a            637 	cmp	1,r1
0000008e d105*           638 	bl	.L6
00000090 f225*           639 	be	.L10
00000092 620a            640 	cmp	2,r1
00000094 ba5d*           641 	bne	.L12
00000096 c535*           642 	br	.L11
                         643 .L6:
                         644 --569:     {
                         645 --570:     case R_DEV_PLL0:
                         646 --571:         ret_val =  loc_CalcFreqPll0(FrqIn/1000000, &pllcfg_reg, &freq_out);
                         647 --line571
                         648 ..lin.D.3A.5CRenesas_Electronics.5CD1x_RGL.5Crgl_ghs_D1Lx_obj_V1.2E2.2E0.5Cvlib.5Capp.5Cgfx_apps.5Csimple_draw_d1l2.5Ctarget.5Cd1lx_mango_ghs.5Cobj.5Cr_dev_clk.1::
                         649 .LDWlin1:
00000098 230f0d00        650 	ld.w	12[sp],r1
0000009c 233e0400        651 	movea	4,sp,r7
000000a0 2e0640420f00    652 	mov	1000000,r14
000000a6 23460000        653 	movea	0,sp,r8
000000aa ee0ffe02        654 	divqu	r14,r1,zero
000000ae 0130            655 	mov	r1,r6
                         656 	jarl	_loc_CalcFreqPll0,lp
                         656 <EXPANSION BEGIN>
                         656 jarl22 _loc_CalcFreqPll0 , lp 
000000b0 80ff9a02*       656 <EXPANSION END>
000000b4 0ae0            657 	mov	r10,r28

                                                                      Page 12
                                                              C:\Users\YINGAO~1\AppData\Local\Temp\gh_00007041.si
                         658 --572:         if ((R_ERR_OK == ret_val) && (R_DEV_PLL_SSCG == PllCfg->Mode))
                         659 --line572
                         660 ..lin.D.3A.5CRenesas_Electronics.5CD1x_RGL.5Crgl_ghs_D1Lx_obj_V1.2E2.2E0.5Cvlib.5Capp.5Cgfx_apps.5Csimple_draw_d1l2.5Ctarget.5Cd1lx_mango_ghs.5Cobj.5Cr_dev_clk.2::
                         661 .LDWlin2:
000000b6 e0e1            662 	cmp	zero,r28
000000b8 aa15*           663 	bne	.L7
000000ba 3b0f0100        664 	ld.w	0[r27],r1
000000be 610a            665 	cmp	1,r1
000000c0 ea0d*           666 	bne	.L7
                         667 --573:         {
                         668 --574:             /*The input frequency is provided in KHz here */
                         669 --575:             ret_val = loc_CalcSscgPll0(FrqIn/1000, &pllcfg_reg, PllCfg);
                         670 --line575
                         671 ..lin.D.3A.5CRenesas_Electronics.5CD1x_RGL.5Crgl_ghs_D1Lx_obj_V1.2E2.2E0.5Cvlib.5Capp.5Cgfx_apps.5Csimple_draw_d1l2.5Ctarget.5Cd1lx_mango_ghs.5Cobj.5Cr_dev_clk.3::
                         672 .LDWlin3:
000000c2 230f0d00        673 	ld.w	12[sp],r1
000000c6 2076e803        674 	movea	1000,zero,r14
000000ca 1b40            675 	mov	r27,r8
000000cc 233e0400        676 	movea	4,sp,r7
000000d0 ee0ffe02        677 	divqu	r14,r1,zero
000000d4 0130            678 	mov	r1,r6
                         679 	jarl	_loc_CalcSscgPll0,lp
                         679 <EXPANSION BEGIN>
                         679 jarl22 _loc_CalcSscgPll0 , lp 
000000d6 80ff5e01*       679 <EXPANSION END>
000000da 0ae0            680 	mov	r10,r28
                         681 .L7:
                         682 --line577
                         683 ..lin.D.3A.5CRenesas_Electronics.5CD1x_RGL.5Crgl_ghs_D1Lx_obj_V1.2E2.2E0.5Cvlib.5Capp.5Cgfx_apps.5Csimple_draw_d1l2.5Ctarget.5Cd1lx_mango_ghs.5Cobj.5Cr_dev_clk.4::
                         684 .LDWlin4:
000000dc 953d*           685 	br	.L4
                         686 .L10:
                         687 --576:         }
                         688 --577:         break;
                         689 --578:     case R_DEV_PLL1:
                         690 --579:         ret_val =  loc_CalcFreqPll1(FrqIn/1000000, &pllcfg_reg, &freq_out);
                         691 --line579
                         692 ..lin.D.3A.5CRenesas_Electronics.5CD1x_RGL.5Crgl_ghs_D1Lx_obj_V1.2E2.2E0.5Cvlib.5Capp.5Cgfx_apps.5Csimple_draw_d1l2.5Ctarget.5Cd1lx_mango_ghs.5Cobj.5Cr_dev_clk.5::
                         693 .LDWlin5:
000000de 230f0d00        694 	ld.w	12[sp],r1
000000e2 233e0400        695 	movea	4,sp,r7
000000e6 2e0640420f00    696 	mov	1000000,r14
000000ec 23460000        697 	movea	0,sp,r8
000000f0 ee0ffe02        698 	divqu	r14,r1,zero
000000f4 0130            699 	mov	r1,r6
                         700 	jarl	_loc_CalcFreqPll1,lp
                         700 <EXPANSION BEGIN>
                         700 jarl22 _loc_CalcFreqPll1 , lp 
000000f6 80ff0004*       700 <EXPANSION END>
000000fa 0ae0            701 	mov	r10,r28
                         702 --line580
                         703 ..lin.D.3A.5CRenesas_Electronics.5CD1x_RGL.5Crgl_ghs_D1Lx_obj_V1.2E2.2E0.5Cvlib.5Capp.5Cgfx_apps.5Csimple_draw_d1l2.5Ctarget.5Cd1lx_mango_ghs.5Cobj.5Cr_dev_clk.6::
                         704 .LDWlin6:
000000fc 952d*           705 	br	.L4
                         706 .L11:
                         707 --580:         break;
                         708 --581:     case R_DEV_PLL2 :
                         709 --582:         /* First, get the input frquency  */
                         710 --583:         regval  =  R_DEV_ClkFrequencyHz(R_DEV_CKS_PLL2IN);
                         711 --line583
                         712 ..lin.D.3A.5CRenesas_Electronics.5CD1x_RGL.5Crgl_ghs_D1Lx_obj_V1.2E2.2E0.5Cvlib.5Capp.5Cgfx_apps.5Csimple_draw_d1l2.5Ctarget.5Cd1lx_mango_ghs.5Cobj.5Cr_dev_clk.7::

                                                                      Page 13
                                                              C:\Users\YINGAO~1\AppData\Local\Temp\gh_00007041.si
                         713 .LDWlin7:
000000fe 20361500        714 	movea	21,zero,r6
                         715 	jarl	_R_DEV_ClkFrequencyHz,lp
                         715 <EXPANSION BEGIN>
                         715 jarl22 _R_DEV_ClkFrequencyHz , lp 
00000102 80ff2010*       715 <EXPANSION END>
00000106 63570900        716 	st.w	r10,8[sp]
                         717 --584:         ret_val =  loc_CalcFreqPll2(regval/1000000, &pllcfg_reg, &freq_out);
                         718 --line584
                         719 ..lin.D.3A.5CRenesas_Electronics.5CD1x_RGL.5Crgl_ghs_D1Lx_obj_V1.2E2.2E0.5Cvlib.5Capp.5Cgfx_apps.5Csimple_draw_d1l2.5Ctarget.5Cd1lx_mango_ghs.5Cobj.5Cr_dev_clk.8::
                         720 .LDWlin8:
0000010a 230f0900        721 	ld.w	8[sp],r1
0000010e 233e0400        722 	movea	4,sp,r7
00000112 2e0640420f00    723 	mov	1000000,r14
00000118 23460000        724 	movea	0,sp,r8
0000011c ee0ffe02        725 	divqu	r14,r1,zero
00000120 0130            726 	mov	r1,r6
                         727 	jarl	_loc_CalcFreqPll2,lp
                         727 <EXPANSION BEGIN>
                         727 jarl22 _loc_CalcFreqPll2 , lp 
00000122 80ffd406*       727 <EXPANSION END>
00000126 0ae0            728 	mov	r10,r28
                         729 --585:         pllcfg_reg.FVV       = 0; /* Init value */
                         730 --line585
                         731 ..lin.D.3A.5CRenesas_Electronics.5CD1x_RGL.5Crgl_ghs_D1Lx_obj_V1.2E2.2E0.5Cvlib.5Capp.5Cgfx_apps.5Csimple_draw_d1l2.5Ctarget.5Cd1lx_mango_ghs.5Cobj.5Cr_dev_clk.9::
                         732 .LDWlin9:
00000128 a30f0700        733 	ld.bu	7[sp],r1
0000012c c10ee300        734 	andi	227,r1,r1
00000130 430f0700        735 	st.b	r1,7[sp]
                         736 --586:         pllcfg_reg.NF        = 1;
00000134 230f0500        737 	ld.w	4[sp],r1
00000138 2e06ff3ffcff    738 	mov	-245761,r14
0000013e 4e09            739 	and	r14,r1
00000140 810e0040        740 	ori	16384,r1,r1
00000144 630f0500        741 	st.w	r1,4[sp]
00000148 b505*           742 	br	.L4
                         743 .L12:
                         744 --587:         break;
                         745 --588:     default:
                         746 --589:         ret_val = R_PARAMETER_RANGE;
                         747 --line589
                         748 ..lin.D.3A.5CRenesas_Electronics.5CD1x_RGL.5Crgl_ghs_D1Lx_obj_V1.2E2.2E0.5Cvlib.5Capp.5Cgfx_apps.5Csimple_draw_d1l2.5Ctarget.5Cd1lx_mango_ghs.5Cobj.5Cr_dev_clk.10::
                         749 .LDWlin10:
0000014a 03e2            750 	mov	3,r28
0000014c 0000            751 	nop
                         752 .L4:
                         753 --590:         break;
                         754 --591:     }
                         755 --592:     /* If everything went smooth, store the values */
                         756 --593:     if (R_ERR_OK == ret_val)
0000014e e0e1            757 	cmp	zero,r28
00000150 fa35*           758 	bne	.L13
                         759 --594:     {
                         760 --595:         /* Store the config */
                         761 --596:         loc_ClkGenCfg.Pll[Pll].Mode         = PllCfg->Mode         ;
                         762 --line596
                         763 ..lin.D.3A.5CRenesas_Electronics.5CD1x_RGL.5Crgl_ghs_D1Lx_obj_V1.2E2.2E0.5Cvlib.5Capp.5Cgfx_apps.5Csimple_draw_d1l2.5Ctarget.5Cd1lx_mango_ghs.5Cobj.5Cr_dev_clk.11::
                         764 .LDWlin11:
00000152 3b0f0100        765 	ld.w	0[r27],r1
00000156 1af0            766 	mov	r26,ep
00000158 fcf74002        767 	mul	28,ep,zero

                                                                      Page 14
                                                              C:\Users\YINGAO~1\AppData\Local\Temp\gh_00007041.si
0000015c d9f1            768 	add	r25,ep
0000015e 010d            769 	sst.w	r1,0[ep]
                         770 --597:         loc_ClkGenCfg.Pll[Pll].DithMode     = PllCfg->DithMode     ;
00000160 3b0f0500        771 	ld.w	4[r27],r1
00000164 1af0            772 	mov	r26,ep
00000166 fcf74002        773 	mul	28,ep,zero
0000016a d9f1            774 	add	r25,ep
0000016c 030d            775 	sst.w	r1,4[ep]
                         776 --598:         loc_ClkGenCfg.Pll[Pll].DithRange    = PllCfg->DithRange    ;
0000016e 9b0f0900        777 	ld.bu	8[r27],r1
00000172 1af0            778 	mov	r26,ep
00000174 fcf74002        779 	mul	28,ep,zero
00000178 d9f1            780 	add	r25,ep
0000017a 880b            781 	sst.b	r1,8[ep]
                         782 --599:         loc_ClkGenCfg.Pll[Pll].ModFreq      = PllCfg->ModFreq      ;
0000017c 3b0f0d00        783 	ld.w	12[r27],r1
00000180 1af0            784 	mov	r26,ep
00000182 fcf74002        785 	mul	28,ep,zero
00000186 d9f1            786 	add	r25,ep
00000188 070d            787 	sst.w	r1,12[ep]
                         788 --600:         loc_ClkGenCfg.Pll[Pll].FrequencyHz  = freq_out * 1000000u  ;
0000018a 230f0100        789 	ld.w	0[sp],r1
0000018e 1af0            790 	mov	r26,ep
00000190 fcf74002        791 	mul	28,ep,zero
00000194 2e0640420f00    792 	mov	1000000,r14
0000019a ee0f2202        793 	mulu	r14,r1,zero
0000019e d9f1            794 	add	r25,ep
000001a0 090d            795 	sst.w	r1,16[ep]
                         796 --601:         loc_ClkGenCfg.Pll[Pll].StabiTimeNs  = PllCfg->StabiTimeNs  ;
000001a2 3b0f1500        797 	ld.w	20[r27],r1
000001a6 1af0            798 	mov	r26,ep
000001a8 fcf74002        799 	mul	28,ep,zero
000001ac d9f1            800 	add	r25,ep
000001ae 0b0d            801 	sst.w	r1,20[ep]
                         802 --602:         loc_ClkGenCfg.Pll[Pll].StpReqMsk    = PllCfg->StpReqMsk    ;
000001b0 9b0f1900        803 	ld.bu	24[r27],r1
000001b4 1af0            804 	mov	r26,ep
000001b6 fcf74002        805 	mul	28,ep,zero
000001ba d9f1            806 	add	r25,ep
000001bc 980b            807 	sst.b	r1,24[ep]
                         808 .L13:
                         809 --603:     }
                         810 --604: }
000001be 0000            811 	nop
                         812 --	    .ef
                         813 .LDW11:
000001c0 4806ff70        814 	dispose	4,{r25,r26,r27,r28,r29,r31},[lp]
                         815 	.type	_loc_PllCfgStore,@function
                         816 	.size	_loc_PllCfgStore,.-_loc_PllCfgStore
                         817 	.type	_loc_PllCfgStore..D.3A.5CRenesas_Electronics.5CD1x_RGL.5Crgl_ghs_D1Lx_obj_V1.2E2.2E0.5Cvlib.5Capp.5Cgfx_apps.5Csimple_draw_d1l2.5Ctarget.5Cd1lx_mango_ghs.5Cobj.5Cr_dev_clk.,@function
                         818 	.size	_loc_PllCfgStore..D.3A.5CRenesas_Electronics.5CD1x_RGL.5Crgl_ghs_D1Lx_obj_V1.2E2.2E0.5Cvlib.5Capp.5Cgfx_apps.5Csimple_draw_d1l2.5Ctarget.5Cd1lx_mango_ghs.5Cobj.5Cr_dev_clk.,.-_loc_PllCfgStore..D.3A.5CRenesas_Electronics.5CD1x_RGL.5Crgl_ghs_D1Lx_obj_V1.2E2.2E0.5Cvlib.5Capp.5Cgfx_apps.5Csimple_draw_d1l2.5Ctarget.5Cd1lx_mango_ghs.5Cobj.5Cr_dev_clk.
                         819 	.align	2
                         820 .LDW21:
                         821 --_freq_out	0[sp]	local
                         822 --_ret_val	r28	local
                         823 --_regval	8[sp]	local
                         824 --_pllcfg_reg	4[sp]	local
                         825 
                         826 --_FrqIn	12[sp]	param
                         827 --_Pll	r26	param
                         828 --_PllCfg	r27	param

                                                                      Page 15
                                                              C:\Users\YINGAO~1\AppData\Local\Temp\gh_00007041.si
                         829 
                         830 	.section ".bss","awb"
                         831 	.align	4
                         832 .L92:
                         833 	.type	.L92,@object
                         834 	.size	.L92,0
                         835 	.section ".rodata","a"
                         836 	.align	4
                         837 	.global	_loc_SscgPercent..D.3A.5CRenesas_Electronics.5CD1x_RGL.5Crgl_ghs_D1Lx_obj_V1.2E2.2E0.5Cvlib.5Capp.5Cgfx_apps.5Csimple_draw_d1l2.5Ctarget.5Cd1lx_mango_ghs.5Cobj.5Cr_dev_clk.
                         838 _loc_SscgPercent..D.3A.5CRenesas_Electronics.5CD1x_RGL.5Crgl_ghs_D1Lx_obj_V1.2E2.2E0.5Cvlib.5Capp.5Cgfx_apps.5Csimple_draw_d1l2.5Ctarget.5Cd1lx_mango_ghs.5Cobj.5Cr_dev_clk.:
                         839 	.type	_loc_SscgPercent..D.3A.5CRenesas_Electronics.5CD1x_RGL.5Crgl_ghs_D1Lx_obj_V1.2E2.2E0.5Cvlib.5Capp.5Cgfx_apps.5Csimple_draw_d1l2.5Ctarget.5Cd1lx_mango_ghs.5Cobj.5Cr_dev_clk.,@object
                         840 	.size	_loc_SscgPercent..D.3A.5CRenesas_Electronics.5CD1x_RGL.5Crgl_ghs_D1Lx_obj_V1.2E2.2E0.5Cvlib.5Capp.5Cgfx_apps.5Csimple_draw_d1l2.5Ctarget.5Cd1lx_mango_ghs.5Cobj.5Cr_dev_clk.,8
00000000 01020304        841 _loc_SscgPercent:	.byte	1,2,3,4
00000004 0506080a        842 	.byte	5,6,8,10
                         843 	.type	_loc_SscgPercent,@object
                         844 	.size	_loc_SscgPercent,8
                         845 	.data
                         846 	.align	4
                         847 	.global	_loc_Vdce0ViFreq..D.3A.5CRenesas_Electronics.5CD1x_RGL.5Crgl_ghs_D1Lx_obj_V1.2E2.2E0.5Cvlib.5Capp.5Cgfx_apps.5Csimple_draw_d1l2.5Ctarget.5Cd1lx_mango_ghs.5Cobj.5Cr_dev_clk.
                         848 _loc_Vdce0ViFreq..D.3A.5CRenesas_Electronics.5CD1x_RGL.5Crgl_ghs_D1Lx_obj_V1.2E2.2E0.5Cvlib.5Capp.5Cgfx_apps.5Csimple_draw_d1l2.5Ctarget.5Cd1lx_mango_ghs.5Cobj.5Cr_dev_clk.:
                         849 	.type	_loc_Vdce0ViFreq..D.3A.5CRenesas_Electronics.5CD1x_RGL.5Crgl_ghs_D1Lx_obj_V1.2E2.2E0.5Cvlib.5Capp.5Cgfx_apps.5Csimple_draw_d1l2.5Ctarget.5Cd1lx_mango_ghs.5Cobj.5Cr_dev_clk.,@object
                         850 	.size	_loc_Vdce0ViFreq..D.3A.5CRenesas_Electronics.5CD1x_RGL.5Crgl_ghs_D1Lx_obj_V1.2E2.2E0.5Cvlib.5Capp.5Cgfx_apps.5Csimple_draw_d1l2.5Ctarget.5Cd1lx_mango_ghs.5Cobj.5Cr_dev_clk.,4
00000000 00000000        851 _loc_Vdce0ViFreq:	.byte	0,0,0,0
                         852 	.type	_loc_Vdce0ViFreq,@object
                         853 	.size	_loc_Vdce0ViFreq,4
                         854 	.global	_loc_Vdce1ViFreq..D.3A.5CRenesas_Electronics.5CD1x_RGL.5Crgl_ghs_D1Lx_obj_V1.2E2.2E0.5Cvlib.5Capp.5Cgfx_apps.5Csimple_draw_d1l2.5Ctarget.5Cd1lx_mango_ghs.5Cobj.5Cr_dev_clk.
                         855 _loc_Vdce1ViFreq..D.3A.5CRenesas_Electronics.5CD1x_RGL.5Crgl_ghs_D1Lx_obj_V1.2E2.2E0.5Cvlib.5Capp.5Cgfx_apps.5Csimple_draw_d1l2.5Ctarget.5Cd1lx_mango_ghs.5Cobj.5Cr_dev_clk.:
                         856 	.type	_loc_Vdce1ViFreq..D.3A.5CRenesas_Electronics.5CD1x_RGL.5Crgl_ghs_D1Lx_obj_V1.2E2.2E0.5Cvlib.5Capp.5Cgfx_apps.5Csimple_draw_d1l2.5Ctarget.5Cd1lx_mango_ghs.5Cobj.5Cr_dev_clk.,@object
                         857 	.size	_loc_Vdce1ViFreq..D.3A.5CRenesas_Electronics.5CD1x_RGL.5Crgl_ghs_D1Lx_obj_V1.2E2.2E0.5Cvlib.5Capp.5Cgfx_apps.5Csimple_draw_d1l2.5Ctarget.5Cd1lx_mango_ghs.5Cobj.5Cr_dev_clk.,4
00000004 00000000        858 _loc_Vdce1ViFreq:	.byte	0,0,0,0
                         859 	.type	_loc_Vdce1ViFreq,@object
                         860 	.size	_loc_Vdce1ViFreq,4
                         861 	.section ".rodata","a"
                         862 	.global	_loc_Base..D.3A.5CRenesas_Electronics.5CD1x_RGL.5Crgl_ghs_D1Lx_obj_V1.2E2.2E0.5Cvlib.5Capp.5Cgfx_apps.5Csimple_draw_d1l2.5Ctarget.5Cd1lx_mango_ghs.5Cobj.5Cr_dev_clk.
                         863 _loc_Base..D.3A.5CRenesas_Electronics.5CD1x_RGL.5Crgl_ghs_D1Lx_obj_V1.2E2.2E0.5Cvlib.5Capp.5Cgfx_apps.5Csimple_draw_d1l2.5Ctarget.5Cd1lx_mango_ghs.5Cobj.5Cr_dev_clk.:
                         864 	.type	_loc_Base..D.3A.5CRenesas_Electronics.5CD1x_RGL.5Crgl_ghs_D1Lx_obj_V1.2E2.2E0.5Cvlib.5Capp.5Cgfx_apps.5Csimple_draw_d1l2.5Ctarget.5Cd1lx_mango_ghs.5Cobj.5Cr_dev_clk.,@object
                         865 	.size	_loc_Base..D.3A.5CRenesas_Electronics.5CD1x_RGL.5Crgl_ghs_D1Lx_obj_V1.2E2.2E0.5Cvlib.5Capp.5Cgfx_apps.5Csimple_draw_d1l2.5Ctarget.5Cd1lx_mango_ghs.5Cobj.5Cr_dev_clk.,24
00000008 0090f8ff        866 _loc_Base:	.byte	0,144,248,255
0000000c 0091f8ff        867 	.byte	0,145,248,255
00000010 c050f8ff        868 	.byte	192,80,248,255
00000014 0010f8ff        869 	.byte	0,16,248,255
00000018 0011f8ff        870 	.byte	0,17,248,255
0000001c 0012f8ff        871 	.byte	0,18,248,255
                         872 	.type	_loc_Base,@object
                         873 	.size	_loc_Base,24
                         874 	.global	_loc_SscgDiv..D.3A.5CRenesas_Electronics.5CD1x_RGL.5Crgl_ghs_D1Lx_obj_V1.2E2.2E0.5Cvlib.5Capp.5Cgfx_apps.5Csimple_draw_d1l2.5Ctarget.5Cd1lx_mango_ghs.5Cobj.5Cr_dev_clk.
                         875 _loc_SscgDiv..D.3A.5CRenesas_Electronics.5CD1x_RGL.5Crgl_ghs_D1Lx_obj_V1.2E2.2E0.5Cvlib.5Capp.5Cgfx_apps.5Csimple_draw_d1l2.5Ctarget.5Cd1lx_mango_ghs.5Cobj.5Cr_dev_clk.:
                         876 	.type	_loc_SscgDiv..D.3A.5CRenesas_Electronics.5CD1x_RGL.5Crgl_ghs_D1Lx_obj_V1.2E2.2E0.5Cvlib.5Capp.5Cgfx_apps.5Csimple_draw_d1l2.5Ctarget.5Cd1lx_mango_ghs.5Cobj.5Cr_dev_clk.,@object
                         877 	.size	_loc_SscgDiv..D.3A.5CRenesas_Electronics.5CD1x_RGL.5Crgl_ghs_D1Lx_obj_V1.2E2.2E0.5Cvlib.5Capp.5Cgfx_apps.5Csimple_draw_d1l2.5Ctarget.5Cd1lx_mango_ghs.5Cobj.5Cr_dev_clk.,64
00000020 0a000c00        878 _loc_SscgDiv:	.byte	10,0,12,0
00000024 12001400        879 	.byte	18,0,20,0
00000028 16001a00        880 	.byte	22,0,26,0
0000002c 1c001e00        881 	.byte	28,0,30,0
00000030 22002600        882 	.byte	34,0,38,0
00000034 28002c00        883 	.byte	40,0,44,0
00000038 32003800        884 	.byte	50,0,56,0
0000003c 3a003c00        885 	.byte	58,0,60,0
00000040 3e004200        886 	.byte	62,0,66,0
00000044 48004c00        887 	.byte	72,0,76,0
00000048 50005400        888 	.byte	80,0,84,0
0000004c 56006400        889 	.byte	86,0,100,0

                                                                      Page 16
                                                              C:\Users\YINGAO~1\AppData\Local\Temp\gh_00007041.si
00000050 78007e00        890 	.byte	120,0,126,0
00000054 86009600        891 	.byte	134,0,150,0
00000058 a600c800        892 	.byte	166,0,200,0
0000005c fa002c01        893 	.byte	250,0,44,1
                         894 	.type	_loc_SscgDiv,@object
                         895 	.size	_loc_SscgDiv,64
                         896 	.global	_locBusRegAddr..D.3A.5CRenesas_Electronics.5CD1x_RGL.5Crgl_ghs_D1Lx_obj_V1.2E2.2E0.5Cvlib.5Capp.5Cgfx_apps.5Csimple_draw_d1l2.5Ctarget.5Cd1lx_mango_ghs.5Cobj.5Cr_dev_clk.
                         897 _locBusRegAddr..D.3A.5CRenesas_Electronics.5CD1x_RGL.5Crgl_ghs_D1Lx_obj_V1.2E2.2E0.5Cvlib.5Capp.5Cgfx_apps.5Csimple_draw_d1l2.5Ctarget.5Cd1lx_mango_ghs.5Cobj.5Cr_dev_clk.:
                         898 	.type	_locBusRegAddr..D.3A.5CRenesas_Electronics.5CD1x_RGL.5Crgl_ghs_D1Lx_obj_V1.2E2.2E0.5Cvlib.5Capp.5Cgfx_apps.5Csimple_draw_d1l2.5Ctarget.5Cd1lx_mango_ghs.5Cobj.5Cr_dev_clk.,@object
                         899 	.size	_locBusRegAddr..D.3A.5CRenesas_Electronics.5CD1x_RGL.5Crgl_ghs_D1Lx_obj_V1.2E2.2E0.5Cvlib.5Capp.5Cgfx_apps.5Csimple_draw_d1l2.5Ctarget.5Cd1lx_mango_ghs.5Cobj.5Cr_dev_clk.,44
00000060 0092f8ff        900 _locBusRegAddr:	.byte	0,146,248,255
00000064 0093f8ff        901 	.byte	0,147,248,255
00000068 0051f8ff        902 	.byte	0,81,248,255
0000006c 4056f8ff        903 	.byte	64,86,248,255
00000070 4051f8ff        904 	.byte	64,81,248,255
00000074 8052f8ff        905 	.byte	128,82,248,255
00000078 c052f8ff        906 	.byte	192,82,248,255
0000007c 4052f8ff        907 	.byte	64,82,248,255
00000080 8051f8ff        908 	.byte	128,81,248,255
00000084 c051f8ff        909 	.byte	192,81,248,255
00000088 0052f8ff        910 	.byte	0,82,248,255
                         911 	.type	_locBusRegAddr,@object
                         912 	.size	_locBusRegAddr,44
                         913 	.global	_loc_CkcsBaseAddr..D.3A.5CRenesas_Electronics.5CD1x_RGL.5Crgl_ghs_D1Lx_obj_V1.2E2.2E0.5Cvlib.5Capp.5Cgfx_apps.5Csimple_draw_d1l2.5Ctarget.5Cd1lx_mango_ghs.5Cobj.5Cr_dev_clk.
                         914 _loc_CkcsBaseAddr..D.3A.5CRenesas_Electronics.5CD1x_RGL.5Crgl_ghs_D1Lx_obj_V1.2E2.2E0.5Cvlib.5Capp.5Cgfx_apps.5Csimple_draw_d1l2.5Ctarget.5Cd1lx_mango_ghs.5Cobj.5Cr_dev_clk.:
                         915 	.type	_loc_CkcsBaseAddr..D.3A.5CRenesas_Electronics.5CD1x_RGL.5Crgl_ghs_D1Lx_obj_V1.2E2.2E0.5Cvlib.5Capp.5Cgfx_apps.5Csimple_draw_d1l2.5Ctarget.5Cd1lx_mango_ghs.5Cobj.5Cr_dev_clk.,@object
                         916 	.size	_loc_CkcsBaseAddr..D.3A.5CRenesas_Electronics.5CD1x_RGL.5Crgl_ghs_D1Lx_obj_V1.2E2.2E0.5Cvlib.5Capp.5Cgfx_apps.5Csimple_draw_d1l2.5Ctarget.5Cd1lx_mango_ghs.5Cobj.5Cr_dev_clk.,360
0000008c 01000000        917 _loc_CkcsBaseAddr:	.byte	1,0,0,0
00000090 0020f8ff        918 	.byte	0,32,248,255
00000094 0000            919 	.space	2
00000096 7e00            920 	.byte	126,0
00000098 0021f8ff        921 	.byte	0,33,248,255
0000009c 0022f8ff        922 	.byte	0,34,248,255
000000a0 01003e00        923 	.byte	1,0,62,0
000000a4 0023f8ff        924 	.byte	0,35,248,255
000000a8 0024f8ff        925 	.byte	0,36,248,255
000000ac 02003f00        926 	.byte	2,0,63,0
000000b0 0027f8ff        927 	.byte	0,39,248,255
000000b4 0028f8ff        928 	.byte	0,40,248,255
000000b8 0300ff00        929 	.byte	3,0,255,0
000000bc 00a0f8ff        930 	.byte	0,160,248,255
000000c0 00a1f8ff        931 	.byte	0,161,248,255
000000c4 04003e00        932 	.byte	4,0,62,0
000000c8 0053f8ff        933 	.byte	0,83,248,255
000000cc 00000000        934 	.space	4
000000d0 ff00            935 	.byte	255,0
000000d2 0000            936 	.space	2
000000d4 4053f8ff        937 	.byte	64,83,248,255
000000d8 8053f8ff        938 	.byte	128,83,248,255
000000dc 05001f00        939 	.byte	5,0,31,0
000000e0 14000000        940 	.byte	20,0,0,0
000000e4 8057f8ff        941 	.byte	128,87,248,255
000000e8 06000f00        942 	.byte	6,0,15,0
000000ec 0058f8ff        943 	.byte	0,88,248,255
000000f0 00000000        944 	.space	4
000000f4 ff00            945 	.byte	255,0
000000f6 0000            946 	.space	2
000000f8 14000000        947 	.byte	20,0,0,0
000000fc c057f8ff        948 	.byte	192,87,248,255
00000100 07000100        949 	.byte	7,0,1,0
00000104 4055f8ff        950 	.byte	64,85,248,255

                                                                      Page 17
                                                              C:\Users\YINGAO~1\AppData\Local\Temp\gh_00007041.si
00000108 00000000        951 	.space	4
0000010c ff00            952 	.byte	255,0
0000010e 0000            953 	.space	2
00000110 8055f8ff        954 	.byte	128,85,248,255
00000114 00000000        955 	.space	4
00000118 ff00            956 	.byte	255,0
0000011a 0000            957 	.space	2
0000011c c055f8ff        958 	.byte	192,85,248,255
00000120 00000000        959 	.space	4
00000124 ff00            960 	.byte	255,0
00000126 0000            961 	.space	2
00000128 0056f8ff        962 	.byte	0,86,248,255
0000012c 00000000        963 	.space	4
00000130 ff00            964 	.byte	255,0
00000132 0000            965 	.space	2
00000134 c054f8ff        966 	.byte	192,84,248,255
00000138 00000000        967 	.space	4
0000013c ff00            968 	.byte	255,0
0000013e 0000            969 	.space	2
00000140 10000000        970 	.byte	16,0,0,0
00000144 8054f8ff        971 	.byte	128,84,248,255
00000148 08000600        972 	.byte	8,0,6,0
0000014c 4054f8ff        973 	.byte	64,84,248,255
00000150 00000000        974 	.space	4
00000154 ff00            975 	.byte	255,0
00000156 0000            976 	.space	2
00000158 0055f8ff        977 	.byte	0,85,248,255
0000015c 00000000        978 	.space	4
00000160 ff00            979 	.byte	255,0
00000162 0000            980 	.space	2
00000164 0054f8ff        981 	.byte	0,84,248,255
00000168 c053f8ff        982 	.byte	192,83,248,255
0000016c 09000200        983 	.byte	9,0,2,0
00000170 4057f8ff        984 	.byte	64,87,248,255
00000174 0057f8ff        985 	.byte	0,87,248,255
00000178 0a000200        986 	.byte	10,0,2,0
0000017c 0050f8ff        987 	.byte	0,80,248,255
00000180 00000000        988 	.space	4
00000184 ff00            989 	.byte	255,0
00000186 0000            990 	.space	2
00000188 8050f8ff        991 	.byte	128,80,248,255
0000018c 4050f8ff        992 	.byte	64,80,248,255
00000190 0b000200        993 	.byte	11,0,2,0
00000194 4059f8ff        994 	.byte	64,89,248,255
00000198 c059f8ff        995 	.byte	192,89,248,255
0000019c 0c000200        996 	.byte	12,0,2,0
000001a0 8059f8ff        997 	.byte	128,89,248,255
000001a4 005af8ff        998 	.byte	0,90,248,255
000001a8 0d000200        999 	.byte	13,0,2,0
000001ac 8058f8ff       1000 	.byte	128,88,248,255
000001b0 00000000       1001 	.space	4
000001b4 ff00           1002 	.byte	255,0
000001b6 0000           1003 	.space	2
000001b8 c058f8ff       1004 	.byte	192,88,248,255
000001bc 00000000       1005 	.space	4
000001c0 ff00           1006 	.byte	255,0
000001c2 0000           1007 	.space	2
000001c4 405af8ff       1008 	.byte	64,90,248,255
000001c8 00000000       1009 	.space	4
000001cc ff00           1010 	.byte	255,0
000001ce 0000           1011 	.space	2

                                                                      Page 18
                                                              C:\Users\YINGAO~1\AppData\Local\Temp\gh_00007041.si
000001d0 4058f8ff       1012 	.byte	64,88,248,255
000001d4 00000000       1013 	.space	4
000001d8 ff00           1014 	.byte	255,0
000001da 0000           1015 	.space	2
000001dc 8056f8ff       1016 	.byte	128,86,248,255
000001e0 00000000       1017 	.space	4
000001e4 ff00           1018 	.byte	255,0
000001e6 0000           1019 	.space	2
000001e8 21000000       1020 	.byte	33,0,0,0
000001ec c056f8ff       1021 	.byte	192,86,248,255
000001f0 0e000f00       1022 	.byte	14,0,15,0
                        1023 	.type	_loc_CkcsBaseAddr,@object
                        1024 	.size	_loc_CkcsBaseAddr,360
                        1025 	.global	_loc_ClockTree..D.3A.5CRenesas_Electronics.5CD1x_RGL.5Crgl_ghs_D1Lx_obj_V1.2E2.2E0.5Cvlib.5Capp.5Cgfx_apps.5Csimple_draw_d1l2.5Ctarget.5Cd1lx_mango_ghs.5Cobj.5Cr_dev_clk.
                        1026 _loc_ClockTree..D.3A.5CRenesas_Electronics.5CD1x_RGL.5Crgl_ghs_D1Lx_obj_V1.2E2.2E0.5Cvlib.5Capp.5Cgfx_apps.5Csimple_draw_d1l2.5Ctarget.5Cd1lx_mango_ghs.5Cobj.5Cr_dev_clk.:
                        1027 	.type	_loc_ClockTree..D.3A.5CRenesas_Electronics.5CD1x_RGL.5Crgl_ghs_D1Lx_obj_V1.2E2.2E0.5Cvlib.5Capp.5Cgfx_apps.5Csimple_draw_d1l2.5Ctarget.5Cd1lx_mango_ghs.5Cobj.5Cr_dev_clk.,@object
                        1028 	.size	_loc_ClockTree..D.3A.5CRenesas_Electronics.5CD1x_RGL.5Crgl_ghs_D1Lx_obj_V1.2E2.2E0.5Cvlib.5Capp.5Cgfx_apps.5Csimple_draw_d1l2.5Ctarget.5Cd1lx_mango_ghs.5Cobj.5Cr_dev_clk.,960
000001f4 22000000       1029 _loc_ClockTree:	.byte	34,0,0,0
000001f8 01000000       1030 	.byte	1,0,0,0
000001fc 22000000       1031 	.byte	34,0,0,0
00000200 22000000       1032 	.byte	34,0,0,0
00000204 22000000       1033 	.byte	34,0,0,0
00000208 22000000       1034 	.byte	34,0,0,0
0000020c 22000000       1035 	.byte	34,0,0,0
00000210 22000000       1036 	.byte	34,0,0,0
00000214 00000000       1037 	.space	4
00000218 02000000       1038 	.byte	2,0,0,0
0000021c 04000000       1039 	.byte	4,0,0,0
00000220 01000000       1040 	.byte	1,0,0,0
00000224 22000000       1041 	.byte	34,0,0,0
00000228 22000000       1042 	.byte	34,0,0,0
0000022c 22000000       1043 	.byte	34,0,0,0
00000230 22000000       1044 	.byte	34,0,0,0
00000234 00000000       1045 	.space	4
00000238 05000000       1046 	.byte	5,0,0,0
0000023c 04000000       1047 	.byte	4,0,0,0
00000240 01000000       1048 	.byte	1,0,0,0
00000244 02000000       1049 	.byte	2,0,0,0
00000248 22000000       1050 	.byte	34,0,0,0
0000024c 22000000       1051 	.byte	34,0,0,0
00000250 22000000       1052 	.byte	34,0,0,0
00000254 00000000       1053 	.space	4
00000258 04000000       1054 	.byte	4,0,0,0
0000025c 02000000       1055 	.byte	2,0,0,0
00000260 01000000       1056 	.byte	1,0,0,0
00000264 05000000       1057 	.byte	5,0,0,0
00000268 08000000       1058 	.byte	8,0,0,0
0000026c 0a000000       1059 	.byte	10,0,0,0
00000270 0c000000       1060 	.byte	12,0,0,0
00000274 22000000       1061 	.byte	34,0,0,0
00000278 03000000       1062 	.byte	3,0,0,0
0000027c 22000000       1063 	.byte	34,0,0,0
00000280 06000000       1064 	.byte	6,0,0,0
00000284 09000000       1065 	.byte	9,0,0,0
00000288 22000000       1066 	.byte	34,0,0,0
0000028c 22000000       1067 	.byte	34,0,0,0
00000290 22000000       1068 	.byte	34,0,0,0
00000294 00000000       1069 	.space	4
00000298 07000000       1070 	.byte	7,0,0,0
0000029c 08000000       1071 	.byte	8,0,0,0
000002a0 22000000       1072 	.byte	34,0,0,0

                                                                      Page 19
                                                              C:\Users\YINGAO~1\AppData\Local\Temp\gh_00007041.si
000002a4 22000000       1073 	.byte	34,0,0,0
000002a8 22000000       1074 	.byte	34,0,0,0
000002ac 22000000       1075 	.byte	34,0,0,0
000002b0 22000000       1076 	.byte	34,0,0,0
000002b4 22000000       1077 	.byte	34,0,0,0
000002b8 06000000       1078 	.byte	6,0,0,0
000002bc 09000000       1079 	.byte	9,0,0,0
000002c0 22000000       1080 	.byte	34,0,0,0
000002c4 22000000       1081 	.byte	34,0,0,0
000002c8 22000000       1082 	.byte	34,0,0,0
000002cc 22000000       1083 	.byte	34,0,0,0
000002d0 22000000       1084 	.byte	34,0,0,0
000002d4 14000000       1085 	.byte	20,0,0,0
000002d8 22000000       1086 	.byte	34,0,0,0
000002dc 22000000       1087 	.byte	34,0,0,0
000002e0 22000000       1088 	.byte	34,0,0,0
000002e4 22000000       1089 	.byte	34,0,0,0
000002e8 22000000       1090 	.byte	34,0,0,0
000002ec 22000000       1091 	.byte	34,0,0,0
000002f0 22000000       1092 	.byte	34,0,0,0
000002f4 00000000       1093 	.space	4
000002f8 04000000       1094 	.byte	4,0,0,0
000002fc 22000000       1095 	.byte	34,0,0,0
00000300 22000000       1096 	.byte	34,0,0,0
00000304 22000000       1097 	.byte	34,0,0,0
00000308 22000000       1098 	.byte	34,0,0,0
0000030c 22000000       1099 	.byte	34,0,0,0
00000310 22000000       1100 	.byte	34,0,0,0
00000314 14000000       1101 	.byte	20,0,0,0
00000318 22000000       1102 	.byte	34,0,0,0
0000031c 22000000       1103 	.byte	34,0,0,0
00000320 22000000       1104 	.byte	34,0,0,0
00000324 22000000       1105 	.byte	34,0,0,0
00000328 22000000       1106 	.byte	34,0,0,0
0000032c 22000000       1107 	.byte	34,0,0,0
00000330 22000000       1108 	.byte	34,0,0,0
00000334 00000000       1109 	.space	4
00000338 0e000000       1110 	.byte	14,0,0,0
0000033c 0f000000       1111 	.byte	15,0,0,0
00000340 10000000       1112 	.byte	16,0,0,0
00000344 13000000       1113 	.byte	19,0,0,0
00000348 22000000       1114 	.byte	34,0,0,0
0000034c 22000000       1115 	.byte	34,0,0,0
00000350 22000000       1116 	.byte	34,0,0,0
00000354 00000000       1117 	.space	4
00000358 0e000000       1118 	.byte	14,0,0,0
0000035c 0f000000       1119 	.byte	15,0,0,0
00000360 10000000       1120 	.byte	16,0,0,0
00000364 13000000       1121 	.byte	19,0,0,0
00000368 04000000       1122 	.byte	4,0,0,0
0000036c 22000000       1123 	.byte	34,0,0,0
00000370 22000000       1124 	.byte	34,0,0,0
00000374 00000000       1125 	.space	4
00000378 0e000000       1126 	.byte	14,0,0,0
0000037c 0f000000       1127 	.byte	15,0,0,0
00000380 10000000       1128 	.byte	16,0,0,0
00000384 13000000       1129 	.byte	19,0,0,0
00000388 04000000       1130 	.byte	4,0,0,0
0000038c 0d000000       1131 	.byte	13,0,0,0
00000390 22000000       1132 	.byte	34,0,0,0
00000394 00000000       1133 	.space	4

                                                                      Page 20
                                                              C:\Users\YINGAO~1\AppData\Local\Temp\gh_00007041.si
00000398 10000000       1134 	.byte	16,0,0,0
0000039c 0d000000       1135 	.byte	13,0,0,0
000003a0 04000000       1136 	.byte	4,0,0,0
000003a4 22000000       1137 	.byte	34,0,0,0
000003a8 22000000       1138 	.byte	34,0,0,0
000003ac 22000000       1139 	.byte	34,0,0,0
000003b0 22000000       1140 	.byte	34,0,0,0
000003b4 00000000       1141 	.space	4
000003b8 10000000       1142 	.byte	16,0,0,0
000003bc 22000000       1143 	.byte	34,0,0,0
000003c0 22000000       1144 	.byte	34,0,0,0
000003c4 22000000       1145 	.byte	34,0,0,0
000003c8 22000000       1146 	.byte	34,0,0,0
000003cc 22000000       1147 	.byte	34,0,0,0
000003d0 22000000       1148 	.byte	34,0,0,0
000003d4 22000000       1149 	.byte	34,0,0,0
000003d8 11000000       1150 	.byte	17,0,0,0
000003dc 12000000       1151 	.byte	18,0,0,0
000003e0 22000000       1152 	.byte	34,0,0,0
000003e4 22000000       1153 	.byte	34,0,0,0
000003e8 22000000       1154 	.byte	34,0,0,0
000003ec 22000000       1155 	.byte	34,0,0,0
000003f0 22000000       1156 	.byte	34,0,0,0
000003f4 00000000       1157 	.space	4
000003f8 10000000       1158 	.byte	16,0,0,0
000003fc 22000000       1159 	.byte	34,0,0,0
00000400 22000000       1160 	.byte	34,0,0,0
00000404 22000000       1161 	.byte	34,0,0,0
00000408 22000000       1162 	.byte	34,0,0,0
0000040c 22000000       1163 	.byte	34,0,0,0
00000410 22000000       1164 	.byte	34,0,0,0
00000414 22000000       1165 	.byte	34,0,0,0
00000418 15000000       1166 	.byte	21,0,0,0
0000041c 10000000       1167 	.byte	16,0,0,0
00000420 22000000       1168 	.byte	34,0,0,0
00000424 22000000       1169 	.byte	34,0,0,0
00000428 22000000       1170 	.byte	34,0,0,0
0000042c 22000000       1171 	.byte	34,0,0,0
00000430 22000000       1172 	.byte	34,0,0,0
00000434 22000000       1173 	.byte	34,0,0,0
00000438 23000000       1174 	.byte	35,0,0,0
0000043c 02000000       1175 	.byte	2,0,0,0
00000440 22000000       1176 	.byte	34,0,0,0
00000444 22000000       1177 	.byte	34,0,0,0
00000448 22000000       1178 	.byte	34,0,0,0
0000044c 22000000       1179 	.byte	34,0,0,0
00000450 22000000       1180 	.byte	34,0,0,0
00000454 22000000       1181 	.byte	34,0,0,0
00000458 23000000       1182 	.byte	35,0,0,0
0000045c 02000000       1183 	.byte	2,0,0,0
00000460 22000000       1184 	.byte	34,0,0,0
00000464 22000000       1185 	.byte	34,0,0,0
00000468 22000000       1186 	.byte	34,0,0,0
0000046c 22000000       1187 	.byte	34,0,0,0
00000470 22000000       1188 	.byte	34,0,0,0
00000474 22000000       1189 	.byte	34,0,0,0
00000478 09000000       1190 	.byte	9,0,0,0
0000047c 0b000000       1191 	.byte	11,0,0,0
00000480 22000000       1192 	.byte	34,0,0,0
00000484 22000000       1193 	.byte	34,0,0,0
00000488 22000000       1194 	.byte	34,0,0,0

                                                                      Page 21
                                                              C:\Users\YINGAO~1\AppData\Local\Temp\gh_00007041.si
0000048c 22000000       1195 	.byte	34,0,0,0
00000490 22000000       1196 	.byte	34,0,0,0
00000494 22000000       1197 	.byte	34,0,0,0
00000498 23000000       1198 	.byte	35,0,0,0
0000049c 04000000       1199 	.byte	4,0,0,0
000004a0 22000000       1200 	.byte	34,0,0,0
000004a4 22000000       1201 	.byte	34,0,0,0
000004a8 22000000       1202 	.byte	34,0,0,0
000004ac 22000000       1203 	.byte	34,0,0,0
000004b0 22000000       1204 	.byte	34,0,0,0
000004b4 00000000       1205 	.space	4
000004b8 16000000       1206 	.byte	22,0,0,0
000004bc 09000000       1207 	.byte	9,0,0,0
000004c0 22000000       1208 	.byte	34,0,0,0
000004c4 22000000       1209 	.byte	34,0,0,0
000004c8 22000000       1210 	.byte	34,0,0,0
000004cc 22000000       1211 	.byte	34,0,0,0
000004d0 22000000       1212 	.byte	34,0,0,0
000004d4 22000000       1213 	.byte	34,0,0,0
000004d8 22000000       1214 	.byte	34,0,0,0
000004dc 22000000       1215 	.byte	34,0,0,0
000004e0 22000000       1216 	.byte	34,0,0,0
000004e4 22000000       1217 	.byte	34,0,0,0
000004e8 22000000       1218 	.byte	34,0,0,0
000004ec 22000000       1219 	.byte	34,0,0,0
000004f0 22000000       1220 	.byte	34,0,0,0
000004f4 00000000       1221 	.space	4
000004f8 19000000       1222 	.byte	25,0,0,0
000004fc 1a000000       1223 	.byte	26,0,0,0
00000500 1f000000       1224 	.byte	31,0,0,0
00000504 1e000000       1225 	.byte	30,0,0,0
00000508 22000000       1226 	.byte	34,0,0,0
0000050c 22000000       1227 	.byte	34,0,0,0
00000510 22000000       1228 	.byte	34,0,0,0
00000514 00000000       1229 	.space	4
00000518 1b000000       1230 	.byte	27,0,0,0
0000051c 1c000000       1231 	.byte	28,0,0,0
00000520 1f000000       1232 	.byte	31,0,0,0
00000524 1e000000       1233 	.byte	30,0,0,0
00000528 22000000       1234 	.byte	34,0,0,0
0000052c 22000000       1235 	.byte	34,0,0,0
00000530 22000000       1236 	.byte	34,0,0,0
00000534 22000000       1237 	.byte	34,0,0,0
00000538 1b000000       1238 	.byte	27,0,0,0
0000053c 19000000       1239 	.byte	25,0,0,0
00000540 22000000       1240 	.byte	34,0,0,0
00000544 22000000       1241 	.byte	34,0,0,0
00000548 22000000       1242 	.byte	34,0,0,0
0000054c 22000000       1243 	.byte	34,0,0,0
00000550 22000000       1244 	.byte	34,0,0,0
00000554 22000000       1245 	.byte	34,0,0,0
00000558 1d000000       1246 	.byte	29,0,0,0
0000055c 20000000       1247 	.byte	32,0,0,0
00000560 22000000       1248 	.byte	34,0,0,0
00000564 22000000       1249 	.byte	34,0,0,0
00000568 22000000       1250 	.byte	34,0,0,0
0000056c 22000000       1251 	.byte	34,0,0,0
00000570 22000000       1252 	.byte	34,0,0,0
00000574 22000000       1253 	.byte	34,0,0,0
00000578 17000000       1254 	.byte	23,0,0,0
0000057c 18000000       1255 	.byte	24,0,0,0

                                                                      Page 22
                                                              C:\Users\YINGAO~1\AppData\Local\Temp\gh_00007041.si
00000580 22000000       1256 	.byte	34,0,0,0
00000584 22000000       1257 	.byte	34,0,0,0
00000588 22000000       1258 	.byte	34,0,0,0
0000058c 22000000       1259 	.byte	34,0,0,0
00000590 22000000       1260 	.byte	34,0,0,0
00000594 22000000       1261 	.byte	34,0,0,0
00000598 21000000       1262 	.byte	33,0,0,0
0000059c 22000000       1263 	.byte	34,0,0,0
000005a0 22000000       1264 	.byte	34,0,0,0
000005a4 22000000       1265 	.byte	34,0,0,0
000005a8 22000000       1266 	.byte	34,0,0,0
000005ac 22000000       1267 	.byte	34,0,0,0
000005b0 22000000       1268 	.byte	34,0,0,0
                        1269 	.type	_loc_ClockTree,@object
                        1270 	.size	_loc_ClockTree,960
                        1271 	.global	_loc_ClkSelDiv..D.3A.5CRenesas_Electronics.5CD1x_RGL.5Crgl_ghs_D1Lx_obj_V1.2E2.2E0.5Cvlib.5Capp.5Cgfx_apps.5Csimple_draw_d1l2.5Ctarget.5Cd1lx_mango_ghs.5Cobj.5Cr_dev_clk.
                        1272 _loc_ClkSelDiv..D.3A.5CRenesas_Electronics.5CD1x_RGL.5Crgl_ghs_D1Lx_obj_V1.2E2.2E0.5Cvlib.5Capp.5Cgfx_apps.5Csimple_draw_d1l2.5Ctarget.5Cd1lx_mango_ghs.5Cobj.5Cr_dev_clk.:
                        1273 	.type	_loc_ClkSelDiv..D.3A.5CRenesas_Electronics.5CD1x_RGL.5Crgl_ghs_D1Lx_obj_V1.2E2.2E0.5Cvlib.5Capp.5Cgfx_apps.5Csimple_draw_d1l2.5Ctarget.5Cd1lx_mango_ghs.5Cobj.5Cr_dev_clk.,@object
                        1274 	.size	_loc_ClkSelDiv..D.3A.5CRenesas_Electronics.5CD1x_RGL.5Crgl_ghs_D1Lx_obj_V1.2E2.2E0.5Cvlib.5Capp.5Cgfx_apps.5Csimple_draw_d1l2.5Ctarget.5Cd1lx_mango_ghs.5Cobj.5Cr_dev_clk.,240
000005b4 ffff8000       1275 _loc_ClkSelDiv:	.byte	255,255,128,0
000005b8 01000001       1276 	.byte	1,0,0,1
000005bc 00020004       1277 	.byte	0,2,0,4
000005c0 0008ffff       1278 	.byte	0,8,255,255
000005c4 ffff0100       1279 	.byte	255,255,1,0
000005c8 02000400       1280 	.byte	2,0,4,0
000005cc 08001000       1281 	.byte	8,0,16,0
000005d0 ffffffff       1282 	.byte	255,255,255,255
000005d4 0000           1283 	.space	2
000005d6 01000200       1284 	.byte	1,0,2,0
000005da 04000800       1285 	.byte	4,0,8,0
000005de 1000ffff       1286 	.byte	16,0,255,255
000005e2 ffff           1287 	.byte	255,255
000005e4 fefefefe       1288 	.byte	254,254,254,254
000005e8 fefefefe       1289 	.byte	254,254,254,254
000005ec fefefefe       1290 	.byte	254,254,254,254
000005f0 fefefefe       1291 	.byte	254,254,254,254
000005f4 ffff0100       1292 	.byte	255,255,1,0
000005f8 02000400       1293 	.byte	2,0,4,0
000005fc 08000300       1294 	.byte	8,0,3,0
00000600 ffffffff       1295 	.byte	255,255,255,255
00000604 0000           1296 	.space	2
00000606 02000300       1297 	.byte	2,0,3,0
0000060a 04000600       1298 	.byte	4,0,6,0
0000060e ffffffff       1299 	.byte	255,255,255,255
00000612 ffff           1300 	.byte	255,255
00000614 0000           1301 	.space	2
00000616 1e002800       1302 	.byte	30,0,40,0
0000061a 3c00ffff       1303 	.byte	60,0,255,255
0000061e ffffffff       1304 	.byte	255,255,255,255
00000622 ffff           1305 	.byte	255,255
00000624 fefeffff       1306 	.byte	254,254,255,255
00000628 ffffffff       1307 	.byte	255,255,255,255
0000062c ffffffff       1308 	.byte	255,255,255,255
00000630 ffffffff       1309 	.byte	255,255,255,255
00000634 ffff0200       1310 	.byte	255,255,2,0
00000638 0400ffff       1311 	.byte	4,0,255,255
0000063c ffffffff       1312 	.byte	255,255,255,255
00000640 ffffffff       1313 	.byte	255,255,255,255
00000644 fffffefe       1314 	.byte	255,255,254,254
00000648 ffffffff       1315 	.byte	255,255,255,255
0000064c ffffffff       1316 	.byte	255,255,255,255

                                                                      Page 23
                                                              C:\Users\YINGAO~1\AppData\Local\Temp\gh_00007041.si
00000650 ffffffff       1317 	.byte	255,255,255,255
00000654 fffffefe       1318 	.byte	255,255,254,254
00000658 ffffffff       1319 	.byte	255,255,255,255
0000065c ffffffff       1320 	.byte	255,255,255,255
00000660 ffffffff       1321 	.byte	255,255,255,255
00000664 fffffefe       1322 	.byte	255,255,254,254
00000668 ffffffff       1323 	.byte	255,255,255,255
0000066c ffffffff       1324 	.byte	255,255,255,255
00000670 ffffffff       1325 	.byte	255,255,255,255
00000674 fffffefe       1326 	.byte	255,255,254,254
00000678 fefefefe       1327 	.byte	254,254,254,254
0000067c ffffffff       1328 	.byte	255,255,255,255
00000680 ffffffff       1329 	.byte	255,255,255,255
00000684 fffffefe       1330 	.byte	255,255,254,254
00000688 fefefefe       1331 	.byte	254,254,254,254
0000068c ffffffff       1332 	.byte	255,255,255,255
00000690 ffffffff       1333 	.byte	255,255,255,255
00000694 0000           1334 	.space	2
00000696 03000600       1335 	.byte	3,0,6,0
0000069a 0c00ffff       1336 	.byte	12,0,255,255
0000069e ffffffff       1337 	.byte	255,255,255,255
000006a2 ffff           1338 	.byte	255,255
                        1339 	.type	_loc_ClkSelDiv,@object
                        1340 	.size	_loc_ClkSelDiv,240
                        1341 	.section ".bss","awb"
                        1342 	.global	_loc_ClkGenCfg..D.3A.5CRenesas_Electronics.5CD1x_RGL.5Crgl_ghs_D1Lx_obj_V1.2E2.2E0.5Cvlib.5Capp.5Cgfx_apps.5Csimple_draw_d1l2.5Ctarget.5Cd1lx_mango_ghs.5Cobj.5Cr_dev_clk.
                        1343 _loc_ClkGenCfg..D.3A.5CRenesas_Electronics.5CD1x_RGL.5Crgl_ghs_D1Lx_obj_V1.2E2.2E0.5Cvlib.5Capp.5Cgfx_apps.5Csimple_draw_d1l2.5Ctarget.5Cd1lx_mango_ghs.5Cobj.5Cr_dev_clk.:
                        1344 	.type	_loc_ClkGenCfg..D.3A.5CRenesas_Electronics.5CD1x_RGL.5Crgl_ghs_D1Lx_obj_V1.2E2.2E0.5Cvlib.5Capp.5Cgfx_apps.5Csimple_draw_d1l2.5Ctarget.5Cd1lx_mango_ghs.5Cobj.5Cr_dev_clk.,@object
                        1345 	.size	_loc_ClkGenCfg..D.3A.5CRenesas_Electronics.5CD1x_RGL.5Crgl_ghs_D1Lx_obj_V1.2E2.2E0.5Cvlib.5Capp.5Cgfx_apps.5Csimple_draw_d1l2.5Ctarget.5Cd1lx_mango_ghs.5Cobj.5Cr_dev_clk.,164
00000000 000000000000   1346 _loc_ClkGenCfg:	.space	164
00000006 000000000000 
0000000c 000000000000 
00000012 000000000000 
00000018 000000000000 
0000001e 000000000000 
00000024 000000000000 
0000002a 000000000000 
00000030 000000000000 
00000036 000000000000 
0000003c 000000000000 
00000042 000000000000 
00000048 000000000000 
0000004e 000000000000 
00000054 000000000000 
0000005a 000000000000 
00000060 000000000000 
00000066 000000000000 
0000006c 000000000000 
00000072 000000000000 
00000078 000000000000 
0000007e 000000000000 
00000084 000000000000 
0000008a 000000000000 
00000090 000000000000 
00000096 000000000000 
0000009c 000000000000 
000000a2 0000 
                        1347 	.type	_loc_ClkGenCfg,@object
                        1348 	.size	_loc_ClkGenCfg,164
                        1349 	.data
                        1350 	.text

                                                                      Page 24
                                                              C:\Users\YINGAO~1\AppData\Local\Temp\gh_00007041.si
                        1351 
                        1352 
                        1353 --606: /*******************************************************************************
                        1354 --607:   Function: loc_WritePLLCfg
                        1355 --609:   Write the PLL configuration to the PLL config register
                        1356 --611:   Parameters:
                        1357 --613:   Returns:
                        1358 --614:   void
                        1359 --616:     r_dev_PllMode_t     Mode
                        1360 --617:     r_dev_PllDithMode_t DithMode
                        1361 --618:     uint8_t             DithRange
                        1362 --619:     uint32_t            ModFreq
                        1363 --620:     uint32_t            FrequencyHz
                        1364 --621:     uint32_t            StabiTimeNs
                        1365 --622:     uint8_t             StpReqMsk
                        1366 --624: */
                        1367 --625: static void loc_WritePllCfg (r_dev_ClkGen_t Pll, loc_PllCfgReg_t * PllCfgReg)
                        1368 	.align	2
                        1369 	.align	2
                        1370 	.global	_loc_WritePllCfg..D.3A.5CRenesas_Electronics.5CD1x_RGL.5Crgl_ghs_D1Lx_obj_V1.2E2.2E0.5Cvlib.5Capp.5Cgfx_apps.5Csimple_draw_d1l2.5Ctarget.5Cd1lx_mango_ghs.5Cobj.5Cr_dev_clk.
                        1371 _loc_WritePllCfg..D.3A.5CRenesas_Electronics.5CD1x_RGL.5Crgl_ghs_D1Lx_obj_V1.2E2.2E0.5Cvlib.5Capp.5Cgfx_apps.5Csimple_draw_d1l2.5Ctarget.5Cd1lx_mango_ghs.5Cobj.5Cr_dev_clk.:
                        1372 _loc_WritePllCfg:
000001c4 0660           1373 	mov	r6,r12
000001c6 07f0           1374 	mov	r7,ep
                        1375 --	    .bf
                        1376 .LDW31:
                        1377 --626: {
                        1378 --628:     uint32_t addr    = 0;
000001c8 0072           1379 	mov	0,r14
                        1380 --629:     uint32_t reg_val = 0;
000001ca 000a           1381 	mov	0,r1
                        1382 --630:     /* Allign the inforemation */
                        1383 --631:     reg_val    |= ((uint32_t) PllCfgReg->NI     << 0u);
000001cc 6068           1384 	sld.bu	0[ep],r13
000001ce cd6e7f00       1385 	andi	127,r13,r13
000001d2 0d09           1386 	or	r13,r1
                        1387 --632:     reg_val    |= ((uint32_t) PllCfgReg->P      << 8u);
000001d4 7068           1388 	sld.hu	0[ep],r13
000001d6 d66a           1389 	shl	22,r13
000001d8 9d6a           1390 	shr	29,r13
000001da c86a           1391 	shl	8,r13
000001dc 0d09           1392 	or	r13,r1
                        1393 --633:     reg_val    |= ((uint32_t) PllCfgReg->M      << 11u);
000001de 6168           1394 	sld.bu	1[ep],r13
000001e0 dc6a           1395 	shl	28,r13
000001e2 9e6a           1396 	shr	30,r13
000001e4 cb6a           1397 	shl	11,r13
000001e6 0d09           1398 	or	r13,r1
                        1399 --634:     reg_val    |= ((uint32_t) PllCfgReg->SSMode << 13u);
000001e8 6168           1400 	sld.bu	1[ep],r13
000001ea da6a           1401 	shl	26,r13
000001ec 9e6a           1402 	shr	30,r13
000001ee cd6a           1403 	shl	13,r13
000001f0 0d09           1404 	or	r13,r1
                        1405 --635:     reg_val    |= ((uint32_t) PllCfgReg->NF     << 16u);
000001f2 006d           1406 	sld.w	0[ep],r13
000001f4 ce6a           1407 	shl	14,r13
000001f6 9c6a           1408 	shr	28,r13
000001f8 d06a           1409 	shl	16,r13
000001fa 0d09           1410 	or	r13,r1
                        1411 --636:     reg_val    |= ((uint32_t) PllCfgReg->SSPerc << 20u);

                                                                      Page 25
                                                              C:\Users\YINGAO~1\AppData\Local\Temp\gh_00007041.si
000001fc 6268           1412 	sld.bu	2[ep],r13
000001fe db6a           1413 	shl	27,r13
00000200 9d6a           1414 	shr	29,r13
00000202 d46a           1415 	shl	20,r13
00000204 0d09           1416 	or	r13,r1
                        1417 --637:     reg_val    |= ((uint32_t) PllCfgReg->SMFreq << 24u);
00000206 7168           1418 	sld.hu	2[ep],r13
00000208 d66a           1419 	shl	22,r13
0000020a 9b6a           1420 	shr	27,r13
0000020c d86a           1421 	shl	24,r13
0000020e 0d09           1422 	or	r13,r1
                        1423 --638:     reg_val    |= ((uint32_t) PllCfgReg->FVV    << 29u);
00000210 6368           1424 	sld.bu	3[ep],r13
00000212 db6a           1425 	shl	27,r13
00000214 9d6a           1426 	shr	29,r13
00000216 dd6a           1427 	shl	29,r13
00000218 0d09           1428 	or	r13,r1
                        1429 --640:     /* Write the value */
                        1430 --641:     addr    = loc_Base[Pll] + LOC_GEN_C;
0000021a 0c68           1431 	mov	r12,r13
0000021c c26a           1432 	shl	2,r13
0000021e 2b0600000000*  1433 	mov	_loc_Base,r11
00000224 cb69           1434 	add	r11,r13
00000226 2d770100       1435 	ld.w	0[r13],r14
0000022a 4872           1436 	add	8,r14
                        1437 --642:     R_DEV_WRITE_REG(32, addr, reg_val);
0000022c 6e0f0100       1438 	st.w	r1,0[r14]
                        1439 --643: }
00000230 0000           1440 	nop
                        1441 --	    .ef
                        1442 .LDW41:
00000232 7f00           1443 	jmp	[lp]
                        1444 	.type	_loc_WritePllCfg,@function
                        1445 	.size	_loc_WritePllCfg,.-_loc_WritePllCfg
                        1446 	.type	_loc_WritePllCfg..D.3A.5CRenesas_Electronics.5CD1x_RGL.5Crgl_ghs_D1Lx_obj_V1.2E2.2E0.5Cvlib.5Capp.5Cgfx_apps.5Csimple_draw_d1l2.5Ctarget.5Cd1lx_mango_ghs.5Cobj.5Cr_dev_clk.,@function
                        1447 	.size	_loc_WritePllCfg..D.3A.5CRenesas_Electronics.5CD1x_RGL.5Crgl_ghs_D1Lx_obj_V1.2E2.2E0.5Cvlib.5Capp.5Cgfx_apps.5Csimple_draw_d1l2.5Ctarget.5Cd1lx_mango_ghs.5Cobj.5Cr_dev_clk.,.-_loc_WritePllCfg..D.3A.5CRenesas_Electronics.5CD1x_RGL.5Crgl_ghs_D1Lx_obj_V1.2E2.2E0.5Cvlib.5Capp.5Cgfx_apps.5Csimple_draw_d1l2.5Ctarget.5Cd1lx_mango_ghs.5Cobj.5Cr_dev_clk.
                        1448 	.align	2
                        1449 .LDW51:
                        1450 --_addr	r14	local
                        1451 --_reg_val	r1	local
                        1452 
                        1453 --_Pll	r12	param
                        1454 --_PllCfgReg	ep	param
                        1455 
                        1456 	.section ".bss","awb"
                        1457 .L256:
                        1458 	.type	.L256,@object
                        1459 	.size	.L256,0
                        1460 	.data
                        1461 	.text
                        1462 
                        1463 
                        1464 --646: /*******************************************************************************
                        1465 --647:   Function: loc_CalcSscgPll0
                        1466 --648:   Calculate the right paramaters to set the SSCG function for PLL0
                        1467 --650:     Parameters:
                        1468 --651:     FrqIn         - input frequency in KHz
                        1469 --652:     PllCfgReg     - pointer to PLLC register structure, see <loc_PllCfgReg_t>
                        1470 --653:     PllCfg        - pointer to PLLC config structure, see <r_dev_PllCfg_t>
                        1471 --655:     Returns:
                        1472 --656:        == R_ERR_OK - found apropriate settings

                                                                      Page 26
                                                              C:\Users\YINGAO~1\AppData\Local\Temp\gh_00007041.si
                        1473 --657:        != R_ERR_OK - no matching parameters found
                        1474 --660: */
                        1475 --661: static r_Error_t loc_CalcSscgPll0(uint32_t FrqIn, loc_PllCfgReg_t *PllCfgReg, const r_dev_PllCfg_t *PllCfg)
                        1476 	.align	2
                        1477 	.align	2
                        1478 	.global	_loc_CalcSscgPll0..D.3A.5CRenesas_Electronics.5CD1x_RGL.5Crgl_ghs_D1Lx_obj_V1.2E2.2E0.5Cvlib.5Capp.5Cgfx_apps.5Csimple_draw_d1l2.5Ctarget.5Cd1lx_mango_ghs.5Cobj.5Cr_dev_clk.
                        1479 _loc_CalcSscgPll0..D.3A.5CRenesas_Electronics.5CD1x_RGL.5Crgl_ghs_D1Lx_obj_V1.2E2.2E0.5Cvlib.5Capp.5Cgfx_apps.5Csimple_draw_d1l2.5Ctarget.5Cd1lx_mango_ghs.5Cobj.5Cr_dev_clk.:
                        1480 _loc_CalcSscgPll0:
00000234 8007c100       1481 	prepare	{r28,r29},0
00000238 06e8           1482 	mov	r6,r29
0000023a 0770           1483 	mov	r7,r14
0000023c 08f0           1484 	mov	r8,ep
                        1485 --	    .bf
                        1486 .LDW61:
                        1487 --662: {
                        1488 --664:     uint32_t  vc_in  = 0;
0000023e 005a           1489 	mov	0,r11
                        1490 --665:     uint16_t  d_r    = 0;
00000240 006a           1491 	mov	0,r13
                        1492 --666:     uint32_t  i      = 0;
00000242 000a           1493 	mov	0,r1
                        1494 --667:     uint16_t  perc   = 0;
00000244 0062           1495 	mov	0,r12
                        1496 --668:     r_Error_t retval = R_ERR_OK;
00000246 004a           1497 	mov	0,r9
                        1498 --670:     if (R_DEV_PLL_DITH_CENTER == PllCfg->DithMode)
00000248 0255           1499 	sld.w	4[ep],r10
0000024a 6452           1500 	cmp	4,r10
0000024c da15*          1501 	bne	.L306
                        1502 --671:     {
                        1503 --672:         PllCfgReg->SSMode    = 3u;
                        1504 --line672
                        1505 ..lin.D.3A.5CRenesas_Electronics.5CD1x_RGL.5Crgl_ghs_D1Lx_obj_V1.2E2.2E0.5Cvlib.5Capp.5Cgfx_apps.5Csimple_draw_d1l2.5Ctarget.5Cd1lx_mango_ghs.5Cobj.5Cr_dev_clk.12::
                        1506 .LDWlin12:
0000024e ae570100       1507 	ld.bu	1[r14],r10
00000252 8a563000       1508 	ori	48,r10,r10
00000256 4e570100       1509 	st.b	r10,1[r14]
                        1510 --673:         if ((0 < PllCfg->DithRange) && (PllCfg->DithRange < 6))
0000025a 6850           1511 	sld.bu	8[ep],r10
0000025c e051           1512 	cmp	zero,r10
0000025e a20d*          1513 	be	.L308
00000260 6850           1514 	sld.bu	8[ep],r10
00000262 6652           1515 	cmp	6,r10
00000264 f905*          1516 	bnl	.L308
                        1517 --674:         {
                        1518 --675:             perc = PllCfg->DithRange * 2u;
                        1519 --line675
                        1520 ..lin.D.3A.5CRenesas_Electronics.5CD1x_RGL.5Crgl_ghs_D1Lx_obj_V1.2E2.2E0.5Cvlib.5Capp.5Cgfx_apps.5Csimple_draw_d1l2.5Ctarget.5Cd1lx_mango_ghs.5Cobj.5Cr_dev_clk.13::
                        1521 .LDWlin13:
00000266 6850           1522 	sld.bu	8[ep],r10
00000268 c152           1523 	shl	1,r10
0000026a ca66ffff       1524 	andi	65535,r10,r12
0000026e cc00           1525 	zxh	r12
00000270 d515*          1526 	br	.L313
                        1527 .L308:
                        1528 --676:         }
                        1529 --677:         else
                        1530 --678:         {
                        1531 --679:             return R_PARAMETER_INCORRECT;
                        1532 --line679
                        1533 ..lin.D.3A.5CRenesas_Electronics.5CD1x_RGL.5Crgl_ghs_D1Lx_obj_V1.2E2.2E0.5Cvlib.5Capp.5Cgfx_apps.5Csimple_draw_d1l2.5Ctarget.5Cd1lx_mango_ghs.5Cobj.5Cr_dev_clk.14::

                                                                      Page 27
                                                              C:\Users\YINGAO~1\AppData\Local\Temp\gh_00007041.si
                        1534 .LDWlin14:
00000272 0452           1535 	mov	4,r10
00000274 956d*          1536 	br	.L304
                        1537 .L306:
                        1538 --680:         }
                        1539 --681:     }
                        1540 --682:     else
                        1541 --683:     {
                        1542 --684:         PllCfgReg->SSMode    = 2u;
                        1543 --line684
                        1544 ..lin.D.3A.5CRenesas_Electronics.5CD1x_RGL.5Crgl_ghs_D1Lx_obj_V1.2E2.2E0.5Cvlib.5Capp.5Cgfx_apps.5Csimple_draw_d1l2.5Ctarget.5Cd1lx_mango_ghs.5Cobj.5Cr_dev_clk.15::
                        1545 .LDWlin15:
00000276 ae570100       1546 	ld.bu	1[r14],r10
0000027a ca56cf00       1547 	andi	207,r10,r10
0000027e 8a562000       1548 	ori	32,r10,r10
00000282 4e570100       1549 	st.b	r10,1[r14]
                        1550 --685:         if ((0 < PllCfg->DithRange) && (PllCfg->DithRange < 11))
00000286 6850           1551 	sld.bu	8[ep],r10
00000288 e051           1552 	cmp	zero,r10
0000028a e205*          1553 	be	.L314
0000028c 6850           1554 	sld.bu	8[ep],r10
0000028e 6b52           1555 	cmp	11,r10
00000290 b905*          1556 	bnl	.L314
                        1557 --686:         {
                        1558 --687:             perc = PllCfg->DithRange;
                        1559 --line687
                        1560 ..lin.D.3A.5CRenesas_Electronics.5CD1x_RGL.5Crgl_ghs_D1Lx_obj_V1.2E2.2E0.5Cvlib.5Capp.5Cgfx_apps.5Csimple_draw_d1l2.5Ctarget.5Cd1lx_mango_ghs.5Cobj.5Cr_dev_clk.16::
                        1561 .LDWlin16:
00000292 6860           1562 	sld.bu	8[ep],r12
00000294 b505*          1563 	br	.L313
                        1564 .L314:
                        1565 --688:         }
                        1566 --689:         else
                        1567 --690:         {
                        1568 --691:             return R_PARAMETER_INCORRECT;
                        1569 --line691
                        1570 ..lin.D.3A.5CRenesas_Electronics.5CD1x_RGL.5Crgl_ghs_D1Lx_obj_V1.2E2.2E0.5Cvlib.5Capp.5Cgfx_apps.5Csimple_draw_d1l2.5Ctarget.5Cd1lx_mango_ghs.5Cobj.5Cr_dev_clk.17::
                        1571 .LDWlin17:
00000296 0452           1572 	mov	4,r10
00000298 f555*          1573 	br	.L304
                        1574 .L313:
                        1575 --692:         }
                        1576 --693:     }
                        1577 --694:     d_r = 0;
                        1578 --line694
                        1579 ..lin.D.3A.5CRenesas_Electronics.5CD1x_RGL.5Crgl_ghs_D1Lx_obj_V1.2E2.2E0.5Cvlib.5Capp.5Cgfx_apps.5Csimple_draw_d1l2.5Ctarget.5Cd1lx_mango_ghs.5Cobj.5Cr_dev_clk.18::
                        1580 .LDWlin18:
0000029a 006a           1581 	mov	0,r13
                        1582 --695:     vc_in = FrqIn / PllCfgReg->M;
0000029c ae570100       1583 	ld.bu	1[r14],r10
000002a0 1d58           1584 	mov	r29,r11
000002a2 dc52           1585 	shl	28,r10
000002a4 9e52           1586 	shr	30,r10
000002a6 ea5ffe02       1587 	divqu	r10,r11,zero
                        1588 --696:     /* F_mod = vc_in / (4* Dr)
                        1589 --697:        Dr    = vc_in / (4 * f_mod)
                        1590 --698:     */
                        1591 --699:     if ((PllCfg->ModFreq > 19u) && (PllCfg->ModFreq < 101u))
000002aa 0655           1592 	sld.w	12[ep],r10
000002ac 0a06ecff       1593 	addi	-20,r10,zero
000002b0 e90d*          1594 	bnl	.L319

                                                                      Page 28
                                                              C:\Users\YINGAO~1\AppData\Local\Temp\gh_00007041.si
000002b2 0655           1595 	sld.w	12[ep],r10
000002b4 0a069bff       1596 	addi	-101,r10,zero
000002b8 a10d*          1597 	bl	.L319
                        1598 --700:      {
                        1599 --701:         d_r = vc_in  / (4u * PllCfg->ModFreq);
                        1600 --line701
                        1601 ..lin.D.3A.5CRenesas_Electronics.5CD1x_RGL.5Crgl_ghs_D1Lx_obj_V1.2E2.2E0.5Cvlib.5Capp.5Cgfx_apps.5Csimple_draw_d1l2.5Ctarget.5Cd1lx_mango_ghs.5Cobj.5Cr_dev_clk.19::
                        1602 .LDWlin19:
000002ba 0655           1603 	sld.w	12[ep],r10
000002bc 0be0           1604 	mov	r11,r28
000002be c252           1605 	shl	2,r10
000002c0 eae7fe02       1606 	divqu	r10,r28,zero
000002c4 dc6effff       1607 	andi	65535,r28,r13
000002c8 cd00           1608 	zxh	r13
000002ca b505*          1609 	br	.L322
                        1610 .L319:
                        1611 --703:     }
                        1612 --704:     else
                        1613 --705:     {
                        1614 --706:         return R_PARAMETER_INCORRECT;
                        1615 --line706
                        1616 ..lin.D.3A.5CRenesas_Electronics.5CD1x_RGL.5Crgl_ghs_D1Lx_obj_V1.2E2.2E0.5Cvlib.5Capp.5Cgfx_apps.5Csimple_draw_d1l2.5Ctarget.5Cd1lx_mango_ghs.5Cobj.5Cr_dev_clk.20::
                        1617 .LDWlin20:
000002cc 0452           1618 	mov	4,r10
000002ce c53d*          1619 	br	.L304
                        1620 .L322:
                        1621 --707:     }
                        1622 --708:     for (i = 0; i < 32; i ++)
                        1623 --line708
                        1624 ..lin.D.3A.5CRenesas_Electronics.5CD1x_RGL.5Crgl_ghs_D1Lx_obj_V1.2E2.2E0.5Cvlib.5Capp.5Cgfx_apps.5Csimple_draw_d1l2.5Ctarget.5Cd1lx_mango_ghs.5Cobj.5Cr_dev_clk.21::
                        1625 .LDWlin21:
000002d0 000a           1626 	mov	0,r1
000002d2 0000           1627 	nop
                        1628 .L326:
                        1629 --709:     {
                        1630 --710:         if (loc_SscgDiv[i] >= d_r)
000002d4 0150           1631 	mov	r1,r10
000002d6 c152           1632 	shl	1,r10
000002d8 3c0600000000*  1633 	mov	_loc_SscgDiv,r28
000002de dc51           1634 	add	r28,r10
000002e0 ea570100       1635 	ld.hu	0[r10],r10
000002e4 ed51           1636 	cmp	r13,r10
000002e6 a105*          1637 	bl	.L327
                        1638 --711:         {
                        1639 --712:             break;
                        1640 --line712
                        1641 ..lin.D.3A.5CRenesas_Electronics.5CD1x_RGL.5Crgl_ghs_D1Lx_obj_V1.2E2.2E0.5Cvlib.5Capp.5Cgfx_apps.5Csimple_draw_d1l2.5Ctarget.5Cd1lx_mango_ghs.5Cobj.5Cr_dev_clk.22::
                        1642 .LDWlin22:
000002e8 d505*          1643 	br	.L329
                        1644 .L327:
                        1645 --line708
                        1646 ..lin.D.3A.5CRenesas_Electronics.5CD1x_RGL.5Crgl_ghs_D1Lx_obj_V1.2E2.2E0.5Cvlib.5Capp.5Cgfx_apps.5Csimple_draw_d1l2.5Ctarget.5Cd1lx_mango_ghs.5Cobj.5Cr_dev_clk.23::
                        1647 .LDWlin23:
000002ea 410a           1648 	add	1,r1
000002ec 0106e0ff       1649 	addi	-32,r1,zero
000002f0 a9f5*          1650 	bnl	.L326
                        1651 .L329:
                        1652 --713:         }
                        1653 --714:     }
                        1654 --715:     /* check if the search was successfull */
                        1655 --716:     if (i < 32)

                                                                      Page 29
                                                              C:\Users\YINGAO~1\AppData\Local\Temp\gh_00007041.si
                        1656 --line716
                        1657 ..lin.D.3A.5CRenesas_Electronics.5CD1x_RGL.5Crgl_ghs_D1Lx_obj_V1.2E2.2E0.5Cvlib.5Capp.5Cgfx_apps.5Csimple_draw_d1l2.5Ctarget.5Cd1lx_mango_ghs.5Cobj.5Cr_dev_clk.24::
                        1658 .LDWlin24:
000002f2 0106e0ff       1659 	addi	-32,r1,zero
000002f6 810d*          1660 	bl	.L331
                        1661 --717:     {
                        1662 --718:         /* Yes, we found some */
                        1663 --719:         PllCfgReg->SMFreq = i;
                        1664 --line719
                        1665 ..lin.D.3A.5CRenesas_Electronics.5CD1x_RGL.5Crgl_ghs_D1Lx_obj_V1.2E2.2E0.5Cvlib.5Capp.5Cgfx_apps.5Csimple_draw_d1l2.5Ctarget.5Cd1lx_mango_ghs.5Cobj.5Cr_dev_clk.25::
                        1666 .LDWlin25:
000002f8 ee570300       1667 	ld.hu	2[r14],r10
000002fc e157da90       1668 	bins	r1,5,5,r10
00000300 6e570200       1669 	st.h	r10,2[r14]
00000304 b505*          1670 	br	.L333
                        1671 .L331:
                        1672 --720:     }
                        1673 --721:     else
                        1674 --722:     {
                        1675 --723:         return R_PARAMETER_INCORRECT;
                        1676 --line723
                        1677 ..lin.D.3A.5CRenesas_Electronics.5CD1x_RGL.5Crgl_ghs_D1Lx_obj_V1.2E2.2E0.5Cvlib.5Capp.5Cgfx_apps.5Csimple_draw_d1l2.5Ctarget.5Cd1lx_mango_ghs.5Cobj.5Cr_dev_clk.26::
                        1678 .LDWlin26:
00000306 0452           1679 	mov	4,r10
00000308 f51d*          1680 	br	.L304
                        1681 .L333:
                        1682 --724:     }
                        1683 --725:     for (i = 0; i < 8; i ++)
                        1684 --line725
                        1685 ..lin.D.3A.5CRenesas_Electronics.5CD1x_RGL.5Crgl_ghs_D1Lx_obj_V1.2E2.2E0.5Cvlib.5Capp.5Cgfx_apps.5Csimple_draw_d1l2.5Ctarget.5Cd1lx_mango_ghs.5Cobj.5Cr_dev_clk.27::
                        1686 .LDWlin27:
0000030a 000a           1687 	mov	0,r1
0000030c 0000           1688 	nop
                        1689 .L337:
                        1690 --726:     {
                        1691 --727:         if (loc_SscgPercent[i] >= perc)
0000030e 2a0600000000*  1692 	mov	_loc_SscgPercent,r10
00000314 c151           1693 	add	r1,r10
00000316 8a570100       1694 	ld.bu	0[r10],r10
0000031a ec51           1695 	cmp	r12,r10
0000031c a105*          1696 	bl	.L338
                        1697 --728:         {
                        1698 --729:             break;
                        1699 --line729
                        1700 ..lin.D.3A.5CRenesas_Electronics.5CD1x_RGL.5Crgl_ghs_D1Lx_obj_V1.2E2.2E0.5Cvlib.5Capp.5Cgfx_apps.5Csimple_draw_d1l2.5Ctarget.5Cd1lx_mango_ghs.5Cobj.5Cr_dev_clk.28::
                        1701 .LDWlin28:
0000031e c505*          1702 	br	.L340
                        1703 .L338:
                        1704 --line725
                        1705 ..lin.D.3A.5CRenesas_Electronics.5CD1x_RGL.5Crgl_ghs_D1Lx_obj_V1.2E2.2E0.5Cvlib.5Capp.5Cgfx_apps.5Csimple_draw_d1l2.5Ctarget.5Cd1lx_mango_ghs.5Cobj.5Cr_dev_clk.29::
                        1706 .LDWlin29:
00000320 410a           1707 	add	1,r1
00000322 680a           1708 	cmp	8,r1
00000324 d1f5*          1709 	bl	.L337
                        1710 .L340:
                        1711 --730:         }
                        1712 --731:     }
                        1713 --732:     if (i < 8)
                        1714 --line732
                        1715 ..lin.D.3A.5CRenesas_Electronics.5CD1x_RGL.5Crgl_ghs_D1Lx_obj_V1.2E2.2E0.5Cvlib.5Capp.5Cgfx_apps.5Csimple_draw_d1l2.5Ctarget.5Cd1lx_mango_ghs.5Cobj.5Cr_dev_clk.30::
                        1716 .LDWlin30:

                                                                      Page 30
                                                              C:\Users\YINGAO~1\AppData\Local\Temp\gh_00007041.si
00000326 680a           1717 	cmp	8,r1
00000328 c90d*          1718 	bnl	.L342
                        1719 --733:     {
                        1720 --734:         /* Yes, we found some */
                        1721 --735:         PllCfgReg->SSPerc    = i;
                        1722 --line735
                        1723 ..lin.D.3A.5CRenesas_Electronics.5CD1x_RGL.5Crgl_ghs_D1Lx_obj_V1.2E2.2E0.5Cvlib.5Capp.5Cgfx_apps.5Csimple_draw_d1l2.5Ctarget.5Cd1lx_mango_ghs.5Cobj.5Cr_dev_clk.31::
                        1724 .LDWlin31:
0000032a 8e570300       1725 	ld.bu	2[r14],r10
0000032e c1e60700       1726 	andi	7,r1,r28
00000332 c2e2           1727 	shl	2,r28
00000334 ca56e300       1728 	andi	227,r10,r10
00000338 1c51           1729 	or	r28,r10
0000033a 4e570200       1730 	st.b	r10,2[r14]
0000033e b505*          1731 	br	.L344
                        1732 .L342:
                        1733 --736:     }
                        1734 --737:     else
                        1735 --738:     {
                        1736 --739:         return R_PARAMETER_INCORRECT;
                        1737 --line739
                        1738 ..lin.D.3A.5CRenesas_Electronics.5CD1x_RGL.5Crgl_ghs_D1Lx_obj_V1.2E2.2E0.5Cvlib.5Capp.5Cgfx_apps.5Csimple_draw_d1l2.5Ctarget.5Cd1lx_mango_ghs.5Cobj.5Cr_dev_clk.32::
                        1739 .LDWlin32:
00000340 0452           1740 	mov	4,r10
00000342 a505*          1741 	br	.L304
                        1742 .L344:
                        1743 --740:     }
                        1744 --741:     return retval;
                        1745 --line741
                        1746 ..lin.D.3A.5CRenesas_Electronics.5CD1x_RGL.5Crgl_ghs_D1Lx_obj_V1.2E2.2E0.5Cvlib.5Capp.5Cgfx_apps.5Csimple_draw_d1l2.5Ctarget.5Cd1lx_mango_ghs.5Cobj.5Cr_dev_clk.33::
                        1747 .LDWlin33:
00000344 0950           1748 	mov	r9,r10
                        1749 .L304:
                        1750 --	    .ef
                        1751 .LDW71:
00000346 4006df00       1752 	dispose	0,{r28,r29},[lp]
                        1753 	.type	_loc_CalcSscgPll0,@function
                        1754 	.size	_loc_CalcSscgPll0,.-_loc_CalcSscgPll0
                        1755 	.type	_loc_CalcSscgPll0..D.3A.5CRenesas_Electronics.5CD1x_RGL.5Crgl_ghs_D1Lx_obj_V1.2E2.2E0.5Cvlib.5Capp.5Cgfx_apps.5Csimple_draw_d1l2.5Ctarget.5Cd1lx_mango_ghs.5Cobj.5Cr_dev_clk.,@function
                        1756 	.size	_loc_CalcSscgPll0..D.3A.5CRenesas_Electronics.5CD1x_RGL.5Crgl_ghs_D1Lx_obj_V1.2E2.2E0.5Cvlib.5Capp.5Cgfx_apps.5Csimple_draw_d1l2.5Ctarget.5Cd1lx_mango_ghs.5Cobj.5Cr_dev_clk.,.-_loc_CalcSscgPll0..D.3A.5CRenesas_Electronics.5CD1x_RGL.5Crgl_ghs_D1Lx_obj_V1.2E2.2E0.5Cvlib.5Capp.5Cgfx_apps.5Csimple_draw_d1l2.5Ctarget.5Cd1lx_mango_ghs.5Cobj.5Cr_dev_clk.
                        1757 	.align	2
                        1758 .LDW81:
                        1759 --_vc_in	r11	local
                        1760 --_d_r	r13	local
                        1761 --_i	r1	local
                        1762 --_perc	r12	local
                        1763 --_retval	r9	local
                        1764 
                        1765 --_FrqIn	r29	param
                        1766 --_PllCfgReg	r14	param
                        1767 --_PllCfg	ep	param
                        1768 
                        1769 	.section ".bss","awb"
                        1770 .L440:
                        1771 	.type	.L440,@object
                        1772 	.size	.L440,0
                        1773 	.data
                        1774 	.text
                        1775 
                        1776 --742: }
                        1777 

                                                                      Page 31
                                                              C:\Users\YINGAO~1\AppData\Local\Temp\gh_00007041.si
                        1778 --745: /*******************************************************************************
                        1779 --746:   Function: loc_CalcFreqPlln
                        1780 --747:     Calculate the right paramaters to set the desired PLL Frequency
                        1781 --749:     Parameters:
                        1782 --750:     FrqIn         - input frequency in MHz
                        1783 --751:     PllCfgReg     - pointer to PLLC register structure, see <loc_PllCfgReg_t>
                        1784 --752:     *FreqOut      - desired output frequency in Mhz
                        1785 --754:     Returns:
                        1786 --755:        == R_ERR_OK - found apropriate settings
                        1787 --756:        != R_ERR_OK - no matching parameters found
                        1788 --759: */
                        1789 --760: static r_Error_t loc_CalcFreqPll0(uint32_t FrqIn, loc_PllCfgReg_t * PllCfgReg, uint32_t *FrqOut)
                        1790 	.align	2
                        1791 	.align	2
                        1792 	.global	_loc_CalcFreqPll0..D.3A.5CRenesas_Electronics.5CD1x_RGL.5Crgl_ghs_D1Lx_obj_V1.2E2.2E0.5Cvlib.5Capp.5Cgfx_apps.5Csimple_draw_d1l2.5Ctarget.5Cd1lx_mango_ghs.5Cobj.5Cr_dev_clk.
                        1793 _loc_CalcFreqPll0..D.3A.5CRenesas_Electronics.5CD1x_RGL.5Crgl_ghs_D1Lx_obj_V1.2E2.2E0.5Cvlib.5Capp.5Cgfx_apps.5Csimple_draw_d1l2.5Ctarget.5Cd1lx_mango_ghs.5Cobj.5Cr_dev_clk.:
                        1794 _loc_CalcFreqPll0:
0000034a 8007c170       1795 	prepare	{r25,r26,r27,r28,r29},0
0000034e 0650           1796 	mov	r6,r10
00000350 07f0           1797 	mov	r7,ep
00000352 08e8           1798 	mov	r8,r29
                        1799 --	    .bf
                        1800 .LDW91:
                        1801 --761: {
                        1802 --763:     /* Caculate the right values */
                        1803 --764:     /*F = (Fx * Nr) / (Mr * Pr) :
                        1804 --765:       Mr = PLLkC.M[1:0] + 1
                        1805 --766:       Pr = 1, 2, 3, 4, 8 16
                        1806 --767:       P[2:0]  = log_2(Pr); 2^(P[]) = Pr
                        1807 --768:       Nr = PLLkC.NI + 1 + PLLkC.NF.
                        1808 --769:       We set PLLkC.NF to 0
                        1809 --770:       Nr = PLLkC.NI + 1
                        1810 --771:       PLL0:
                        1811 --772:       NI[6:0] = Nr - 1
                        1812 --773:       PLL1:
                        1813 --774:       NI[6:0] = Nr/2 - 1
                        1814 --775:     */
                        1815 --776:     uint32_t  p_r    = 0;
00000354 0072           1816 	mov	0,r14
                        1817 --777:     uint32_t  m_r    = 0;
00000356 0062           1818 	mov	0,r12
                        1819 --778:     uint32_t  n_r    = 0;
00000358 006a           1820 	mov	0,r13
                        1821 --779:     uint32_t  freq   = 0;
0000035a 000a           1822 	mov	0,r1
                        1823 --780:     uint32_t  vc_out = 0;
0000035c 00e2           1824 	mov	0,r28
                        1825 --781:     uint32_t  i      = 1;
0000035e 015a           1826 	mov	1,r11
                        1827 --782:     r_Error_t retval = R_NG;
00000360 014a           1828 	mov	1,r9
                        1829 --784:     PllCfgReg->NI    = 0;
00000362 60d8           1830 	sld.bu	0[ep],r27
00000364 dbde8000       1831 	andi	128,r27,r27
00000368 80db           1832 	sst.b	r27,0[ep]
                        1833 --785:     PllCfgReg->P     = 0;
0000036a 70d8           1834 	sld.hu	0[ep],r27
0000036c dbde7ffc       1835 	andi	64639,r27,r27
00000370 80dc           1836 	sst.h	r27,0[ep]
                        1837 --786:     PllCfgReg->M     = 0;
00000372 61d8           1838 	sld.bu	1[ep],r27

                                                                      Page 32
                                                              C:\Users\YINGAO~1\AppData\Local\Temp\gh_00007041.si
00000374 dbdef300       1839 	andi	243,r27,r27
00000378 81db           1840 	sst.b	r27,1[ep]
                        1841 --788:     freq = *FrqOut;
0000037a 3d0f0100       1842 	ld.w	0[r29],r1
                        1843 --790:     if (freq > 480u)
0000037e 01061ffe       1844 	addi	-481,r1,zero
00000382 c905*          1845 	bnl	.L574
                        1846 --791:     {
                        1847 --792:         /* the desired frequency is not valid */
                        1848 --793:         return R_PARAMETER_INCORRECT;
                        1849 --line793
                        1850 ..lin.D.3A.5CRenesas_Electronics.5CD1x_RGL.5Crgl_ghs_D1Lx_obj_V1.2E2.2E0.5Cvlib.5Capp.5Cgfx_apps.5Csimple_draw_d1l2.5Ctarget.5Cd1lx_mango_ghs.5Cobj.5Cr_dev_clk.34::
                        1851 .LDWlin34:
00000384 04da           1852 	mov	4,r27
00000386 80076a01*      1853 	br	.L572
                        1854 .L574:
                        1855 --794:     }
                        1856 --795:     else if (freq > 320u)
                        1857 --line795
                        1858 ..lin.D.3A.5CRenesas_Electronics.5CD1x_RGL.5Crgl_ghs_D1Lx_obj_V1.2E2.2E0.5Cvlib.5Capp.5Cgfx_apps.5Csimple_draw_d1l2.5Ctarget.5Cd1lx_mango_ghs.5Cobj.5Cr_dev_clk.35::
                        1859 .LDWlin35:
0000038a 0106bffe       1860 	addi	-321,r1,zero
0000038e f905*          1861 	bnl	.L578
                        1862 --796:     {
                        1863 --797:         p_r = 1u;
                        1864 --line797
                        1865 ..lin.D.3A.5CRenesas_Electronics.5CD1x_RGL.5Crgl_ghs_D1Lx_obj_V1.2E2.2E0.5Cvlib.5Capp.5Cgfx_apps.5Csimple_draw_d1l2.5Ctarget.5Cd1lx_mango_ghs.5Cobj.5Cr_dev_clk.36::
                        1866 .LDWlin36:
00000390 0172           1867 	mov	1,r14
                        1868 --798:         PllCfgReg->P = 0;
00000392 70d8           1869 	sld.hu	0[ep],r27
00000394 dbde7ffc       1870 	andi	64639,r27,r27
00000398 80dc           1871 	sst.h	r27,0[ep]
0000039a c535*          1872 	br	.L577
                        1873 .L578:
                        1874 --799:     }
                        1875 --800:     else if (freq > 160u)
                        1876 --line800
                        1877 ..lin.D.3A.5CRenesas_Electronics.5CD1x_RGL.5Crgl_ghs_D1Lx_obj_V1.2E2.2E0.5Cvlib.5Capp.5Cgfx_apps.5Csimple_draw_d1l2.5Ctarget.5Cd1lx_mango_ghs.5Cobj.5Cr_dev_clk.37::
                        1878 .LDWlin37:
0000039c 01065fff       1879 	addi	-161,r1,zero
000003a0 a90d*          1880 	bnl	.L581
                        1881 --801:     {
                        1882 --802:         p_r = 2;
                        1883 --line802
                        1884 ..lin.D.3A.5CRenesas_Electronics.5CD1x_RGL.5Crgl_ghs_D1Lx_obj_V1.2E2.2E0.5Cvlib.5Capp.5Cgfx_apps.5Csimple_draw_d1l2.5Ctarget.5Cd1lx_mango_ghs.5Cobj.5Cr_dev_clk.38::
                        1885 .LDWlin38:
000003a2 0272           1886 	mov	2,r14
                        1887 --803:         PllCfgReg->P = 1u;
000003a4 70d8           1888 	sld.hu	0[ep],r27
000003a6 20d67ffc       1889 	movea	-897,zero,r26
000003aa 5ad9           1890 	and	r26,r27
000003ac 9bde8000       1891 	ori	128,r27,r27
000003b0 80dc           1892 	sst.h	r27,0[ep]
000003b2 852d*          1893 	br	.L577
                        1894 .L581:
                        1895 --804:     }
                        1896 --805:     else if (freq > 80u)
                        1897 --line805
                        1898 ..lin.D.3A.5CRenesas_Electronics.5CD1x_RGL.5Crgl_ghs_D1Lx_obj_V1.2E2.2E0.5Cvlib.5Capp.5Cgfx_apps.5Csimple_draw_d1l2.5Ctarget.5Cd1lx_mango_ghs.5Cobj.5Cr_dev_clk.39::
                        1899 .LDWlin39:

                                                                      Page 33
                                                              C:\Users\YINGAO~1\AppData\Local\Temp\gh_00007041.si
000003b4 0106afff       1900 	addi	-81,r1,zero
000003b8 a90d*          1901 	bnl	.L584
                        1902 --806:     {
                        1903 --807:         p_r = 4u;
                        1904 --line807
                        1905 ..lin.D.3A.5CRenesas_Electronics.5CD1x_RGL.5Crgl_ghs_D1Lx_obj_V1.2E2.2E0.5Cvlib.5Capp.5Cgfx_apps.5Csimple_draw_d1l2.5Ctarget.5Cd1lx_mango_ghs.5Cobj.5Cr_dev_clk.40::
                        1906 .LDWlin40:
000003ba 0472           1907 	mov	4,r14
                        1908 --808:         PllCfgReg->P = 2u;
000003bc 70d8           1909 	sld.hu	0[ep],r27
000003be 20d67ffc       1910 	movea	-897,zero,r26
000003c2 5ad9           1911 	and	r26,r27
000003c4 9bde0001       1912 	ori	256,r27,r27
000003c8 80dc           1913 	sst.h	r27,0[ep]
000003ca c51d*          1914 	br	.L577
                        1915 .L584:
                        1916 --809:     }
                        1917 --810:     else if (freq > 40u)
                        1918 --line810
                        1919 ..lin.D.3A.5CRenesas_Electronics.5CD1x_RGL.5Crgl_ghs_D1Lx_obj_V1.2E2.2E0.5Cvlib.5Capp.5Cgfx_apps.5Csimple_draw_d1l2.5Ctarget.5Cd1lx_mango_ghs.5Cobj.5Cr_dev_clk.41::
                        1920 .LDWlin41:
000003cc 0106d7ff       1921 	addi	-41,r1,zero
000003d0 a90d*          1922 	bnl	.L587
                        1923 --811:     {
                        1924 --812:         p_r = 8;
                        1925 --line812
                        1926 ..lin.D.3A.5CRenesas_Electronics.5CD1x_RGL.5Crgl_ghs_D1Lx_obj_V1.2E2.2E0.5Cvlib.5Capp.5Cgfx_apps.5Csimple_draw_d1l2.5Ctarget.5Cd1lx_mango_ghs.5Cobj.5Cr_dev_clk.42::
                        1927 .LDWlin42:
000003d2 0872           1928 	mov	8,r14
                        1929 --813:         PllCfgReg->P = 3u;
000003d4 70d8           1930 	sld.hu	0[ep],r27
000003d6 20d67ffc       1931 	movea	-897,zero,r26
000003da 5ad9           1932 	and	r26,r27
000003dc 9bde8001       1933 	ori	384,r27,r27
000003e0 80dc           1934 	sst.h	r27,0[ep]
000003e2 8515*          1935 	br	.L577
                        1936 .L587:
                        1937 --814:     }
                        1938 --815:     else if (freq > 20u)
                        1939 --line815
                        1940 ..lin.D.3A.5CRenesas_Electronics.5CD1x_RGL.5Crgl_ghs_D1Lx_obj_V1.2E2.2E0.5Cvlib.5Capp.5Cgfx_apps.5Csimple_draw_d1l2.5Ctarget.5Cd1lx_mango_ghs.5Cobj.5Cr_dev_clk.43::
                        1941 .LDWlin43:
000003e4 0106ebff       1942 	addi	-21,r1,zero
000003e8 b90d*          1943 	bnl	.L590
                        1944 --816:     {
                        1945 --817:         p_r = 16u;
                        1946 --line817
                        1947 ..lin.D.3A.5CRenesas_Electronics.5CD1x_RGL.5Crgl_ghs_D1Lx_obj_V1.2E2.2E0.5Cvlib.5Capp.5Cgfx_apps.5Csimple_draw_d1l2.5Ctarget.5Cd1lx_mango_ghs.5Cobj.5Cr_dev_clk.44::
                        1948 .LDWlin44:
000003ea 20761000       1949 	movea	16,zero,r14
                        1950 --818:         PllCfgReg->P = 4u;
000003ee 70d8           1951 	sld.hu	0[ep],r27
000003f0 20d67ffc       1952 	movea	-897,zero,r26
000003f4 5ad9           1953 	and	r26,r27
000003f6 9bde0002       1954 	ori	512,r27,r27
000003fa 80dc           1955 	sst.h	r27,0[ep]
000003fc b505*          1956 	br	.L577
                        1957 .L590:
                        1958 --819:     }
                        1959 --820:     else
                        1960 --821:     {

                                                                      Page 34
                                                              C:\Users\YINGAO~1\AppData\Local\Temp\gh_00007041.si
                        1961 --822:         /* the desired frequency is not valid */
                        1962 --823:         return R_PARAMETER_INCORRECT;
                        1963 --line823
                        1964 ..lin.D.3A.5CRenesas_Electronics.5CD1x_RGL.5Crgl_ghs_D1Lx_obj_V1.2E2.2E0.5Cvlib.5Capp.5Cgfx_apps.5Csimple_draw_d1l2.5Ctarget.5Cd1lx_mango_ghs.5Cobj.5Cr_dev_clk.45::
                        1965 .LDWlin45:
000003fe 04da           1966 	mov	4,r27
00000400 857d*          1967 	br	.L572
                        1968 .L577:
                        1969 --824:     }
                        1970 --826:     if (24u == FrqIn)
                        1971 --line826
                        1972 ..lin.D.3A.5CRenesas_Electronics.5CD1x_RGL.5Crgl_ghs_D1Lx_obj_V1.2E2.2E0.5Cvlib.5Capp.5Cgfx_apps.5Csimple_draw_d1l2.5Ctarget.5Cd1lx_mango_ghs.5Cobj.5Cr_dev_clk.46::
                        1973 .LDWlin46:
00000402 0a06e8ff       1974 	addi	-24,r10,zero
00000406 ba05*          1975 	bne	.L594
                        1976 --827:     {
                        1977 --828:        m_r = 3u;
                        1978 --line828
                        1979 ..lin.D.3A.5CRenesas_Electronics.5CD1x_RGL.5Crgl_ghs_D1Lx_obj_V1.2E2.2E0.5Cvlib.5Capp.5Cgfx_apps.5Csimple_draw_d1l2.5Ctarget.5Cd1lx_mango_ghs.5Cobj.5Cr_dev_clk.47::
                        1980 .LDWlin47:
00000408 0362           1981 	mov	3,r12
0000040a c50d*          1982 	br	.L596
                        1983 .L594:
                        1984 --829:     }
                        1985 --830:     else if (16u <= FrqIn)
                        1986 --line830
                        1987 ..lin.D.3A.5CRenesas_Electronics.5CD1x_RGL.5Crgl_ghs_D1Lx_obj_V1.2E2.2E0.5Cvlib.5Capp.5Cgfx_apps.5Csimple_draw_d1l2.5Ctarget.5Cd1lx_mango_ghs.5Cobj.5Cr_dev_clk.48::
                        1988 .LDWlin48:
0000040c 0a06f0ff       1989 	addi	-16,r10,zero
00000410 b905*          1990 	bnl	.L597
                        1991 --831:     {
                        1992 --832:        m_r = 2u;
                        1993 --line832
                        1994 ..lin.D.3A.5CRenesas_Electronics.5CD1x_RGL.5Crgl_ghs_D1Lx_obj_V1.2E2.2E0.5Cvlib.5Capp.5Cgfx_apps.5Csimple_draw_d1l2.5Ctarget.5Cd1lx_mango_ghs.5Cobj.5Cr_dev_clk.49::
                        1995 .LDWlin49:
00000412 0262           1996 	mov	2,r12
00000414 f505*          1997 	br	.L596
                        1998 .L597:
                        1999 --833:     }
                        2000 --834:     else if  (8u <= FrqIn)
                        2001 --line834
                        2002 ..lin.D.3A.5CRenesas_Electronics.5CD1x_RGL.5Crgl_ghs_D1Lx_obj_V1.2E2.2E0.5Cvlib.5Capp.5Cgfx_apps.5Csimple_draw_d1l2.5Ctarget.5Cd1lx_mango_ghs.5Cobj.5Cr_dev_clk.50::
                        2003 .LDWlin50:
00000416 6852           2004 	cmp	8,r10
00000418 b105*          2005 	bl	.L600
                        2006 --835:     {
                        2007 --836:        m_r = 1u;
                        2008 --line836
                        2009 ..lin.D.3A.5CRenesas_Electronics.5CD1x_RGL.5Crgl_ghs_D1Lx_obj_V1.2E2.2E0.5Cvlib.5Capp.5Cgfx_apps.5Csimple_draw_d1l2.5Ctarget.5Cd1lx_mango_ghs.5Cobj.5Cr_dev_clk.51::
                        2010 .LDWlin51:
0000041a 0162           2011 	mov	1,r12
0000041c b505*          2012 	br	.L596
                        2013 .L600:
                        2014 --837:     }
                        2015 --838:     else
                        2016 --839:     {
                        2017 --840:         /* the input frequency is not valid */
                        2018 --841:         return R_PARAMETER_INCORRECT;
                        2019 --line841
                        2020 ..lin.D.3A.5CRenesas_Electronics.5CD1x_RGL.5Crgl_ghs_D1Lx_obj_V1.2E2.2E0.5Cvlib.5Capp.5Cgfx_apps.5Csimple_draw_d1l2.5Ctarget.5Cd1lx_mango_ghs.5Cobj.5Cr_dev_clk.52::
                        2021 .LDWlin52:

                                                                      Page 35
                                                              C:\Users\YINGAO~1\AppData\Local\Temp\gh_00007041.si
0000041e 04da           2022 	mov	4,r27
00000420 856d*          2023 	br	.L572
                        2024 .L596:
                        2025 --842:     }
                        2026 --844:     n_r = (freq * m_r * p_r)/FrqIn;
                        2027 --line844
                        2028 ..lin.D.3A.5CRenesas_Electronics.5CD1x_RGL.5Crgl_ghs_D1Lx_obj_V1.2E2.2E0.5Cvlib.5Capp.5Cgfx_apps.5Csimple_draw_d1l2.5Ctarget.5Cd1lx_mango_ghs.5Cobj.5Cr_dev_clk.53::
                        2029 .LDWlin53:
00000422 01d8           2030 	mov	r1,r27
00000424 ecdf2202       2031 	mulu	r12,r27,zero
00000428 eedf2202       2032 	mulu	r14,r27,zero
0000042c 1b68           2033 	mov	r27,r13
0000042e ea6ffe02       2034 	divqu	r10,r13,zero
                        2035 --845:     /* we omit the check of Nr is even */
                        2036 --846:     /* as all parameters are even and we expect the frequency input to be even too */
                        2037 --847:     /* nr will be also even */
                        2038 --848:     /* do we have a valid parameter */
                        2039 --849:     if ((n_r > 11) && (n_r < 81) )
00000432 6b6a           2040 	cmp	11,r13
00000434 834d*          2041 	bnh	.L604
00000436 0d06afff       2042 	addi	-81,r13,zero
0000043a d145*          2043 	bl	.L604
                        2044 --850:     {
                        2045 --851:         PllCfgReg->NI = (uint8_t) n_r - 1u ;
                        2046 --line851
                        2047 ..lin.D.3A.5CRenesas_Electronics.5CD1x_RGL.5Crgl_ghs_D1Lx_obj_V1.2E2.2E0.5Cvlib.5Capp.5Cgfx_apps.5Csimple_draw_d1l2.5Ctarget.5Cd1lx_mango_ghs.5Cobj.5Cr_dev_clk.54::
                        2048 .LDWlin54:
0000043c 0dd8           2049 	mov	r13,r27
0000043e 9b00           2050 	zxb	r27
00000440 1bd6ffff       2051 	addi	-1,r27,r26
00000444 60d8           2052 	sld.bu	0[ep],r27
00000446 dad67f00       2053 	andi	127,r26,r26
0000044a dbde8000       2054 	andi	128,r27,r27
0000044e 1ad9           2055 	or	r26,r27
00000450 80db           2056 	sst.b	r27,0[ep]
                        2057 --852:         PllCfgReg->M  = (uint8_t) m_r - 1u ;
00000452 0cd8           2058 	mov	r12,r27
00000454 9b00           2059 	zxb	r27
00000456 1bd6ffff       2060 	addi	-1,r27,r26
0000045a 61d8           2061 	sld.bu	1[ep],r27
0000045c dad60300       2062 	andi	3,r26,r26
00000460 c2d2           2063 	shl	2,r26
00000462 dbdef300       2064 	andi	243,r27,r27
00000466 1ad9           2065 	or	r26,r27
00000468 81db           2066 	sst.b	r27,1[ep]
                        2067 --853:         *FrqOut       = (FrqIn * n_r)/(m_r * p_r);
0000046a 0ad8           2068 	mov	r10,r27
0000046c 0cc8           2069 	mov	r12,r25
0000046e eddf2202       2070 	mulu	r13,r27,zero
00000472 eecf2202       2071 	mulu	r14,r25,zero
00000476 f9dffe02       2072 	divqu	r25,r27,zero
0000047a 7ddf0100       2073 	st.w	r27,0[r29]
                        2074 --854:         /* Calculate FVV setting */
                        2075 --855:         vc_out        = *FrqOut * p_r;
0000047e 3ddf0100       2076 	ld.w	0[r29],r27
00000482 eedf2202       2077 	mulu	r14,r27,zero
00000486 1be0           2078 	mov	r27,r28
                        2079 --856:         while ((320u + (i * 40u)) <  vc_out)
00000488 a505*          2080 	br	.L607
                        2081 .L609:
                        2082 --857:         {

                                                                      Page 36
                                                              C:\Users\YINGAO~1\AppData\Local\Temp\gh_00007041.si
                        2083 --858:             i++;
                        2084 --line858
                        2085 ..lin.D.3A.5CRenesas_Electronics.5CD1x_RGL.5Crgl_ghs_D1Lx_obj_V1.2E2.2E0.5Cvlib.5Capp.5Cgfx_apps.5Csimple_draw_d1l2.5Ctarget.5Cd1lx_mango_ghs.5Cobj.5Cr_dev_clk.55::
                        2086 .LDWlin55:
0000048a 415a           2087 	add	1,r11
                        2088 .L607:
0000048c 0bd8           2089 	mov	r11,r27
0000048e e8df4602       2090 	mulu	40,r27,zero
00000492 1bde4001       2091 	addi	320,r27,r27
00000496 fcd9           2092 	cmp	r28,r27
00000498 91fd*          2093 	bl	.L609
                        2094 --859:         }
                        2095 --860:         if (i < 9)
                        2096 --line860
                        2097 ..lin.D.3A.5CRenesas_Electronics.5CD1x_RGL.5Crgl_ghs_D1Lx_obj_V1.2E2.2E0.5Cvlib.5Capp.5Cgfx_apps.5Csimple_draw_d1l2.5Ctarget.5Cd1lx_mango_ghs.5Cobj.5Cr_dev_clk.56::
                        2098 .LDWlin56:
0000049a 695a           2099 	cmp	9,r11
0000049c c90d*          2100 	bnl	.L610
                        2101 --861:         {
                        2102 --862:              PllCfgReg->FVV = i - 1u;
                        2103 --line862
                        2104 ..lin.D.3A.5CRenesas_Electronics.5CD1x_RGL.5Crgl_ghs_D1Lx_obj_V1.2E2.2E0.5Cvlib.5Capp.5Cgfx_apps.5Csimple_draw_d1l2.5Ctarget.5Cd1lx_mango_ghs.5Cobj.5Cr_dev_clk.57::
                        2105 .LDWlin57:
0000049e 63d8           2106 	sld.bu	3[ep],r27
000004a0 0bd6ffff       2107 	addi	-1,r11,r26
000004a4 dad60700       2108 	andi	7,r26,r26
000004a8 c2d2           2109 	shl	2,r26
000004aa dbdee300       2110 	andi	227,r27,r27
000004ae 1ad9           2111 	or	r26,r27
000004b0 83db           2112 	sst.b	r27,3[ep]
000004b2 f505*          2113 	br	.L612
                        2114 .L610:
                        2115 --863:         }
                        2116 --864:         else
                        2117 --865:         {
                        2118 --866:             PllCfgReg->FVV  = 3; /* init value */
                        2119 --line866
                        2120 ..lin.D.3A.5CRenesas_Electronics.5CD1x_RGL.5Crgl_ghs_D1Lx_obj_V1.2E2.2E0.5Cvlib.5Capp.5Cgfx_apps.5Csimple_draw_d1l2.5Ctarget.5Cd1lx_mango_ghs.5Cobj.5Cr_dev_clk.58::
                        2121 .LDWlin58:
000004b4 63d8           2122 	sld.bu	3[ep],r27
000004b6 dbdee300       2123 	andi	227,r27,r27
000004ba 9bde0c00       2124 	ori	12,r27,r27
000004be 83db           2125 	sst.b	r27,3[ep]
                        2126 .L612:
                        2127 --867:         }
                        2128 --868:         retval        = R_ERR_OK;
000004c0 004a           2129 	mov	0,r9
000004c2 e515*          2130 	br	.L613
                        2131 .L604:
                        2132 --869:     }
                        2133 --870:     else
                        2134 --871:     {
                        2135 --872:         *FrqOut         = 0;
                        2136 --line872
                        2137 ..lin.D.3A.5CRenesas_Electronics.5CD1x_RGL.5Crgl_ghs_D1Lx_obj_V1.2E2.2E0.5Cvlib.5Capp.5Cgfx_apps.5Csimple_draw_d1l2.5Ctarget.5Cd1lx_mango_ghs.5Cobj.5Cr_dev_clk.59::
                        2138 .LDWlin59:
000004c4 7d070100       2139 	st.w	zero,0[r29]
                        2140 --873:         PllCfgReg->NI   = 0;
000004c8 60d8           2141 	sld.bu	0[ep],r27
000004ca dbde8000       2142 	andi	128,r27,r27
000004ce 80db           2143 	sst.b	r27,0[ep]

                                                                      Page 37
                                                              C:\Users\YINGAO~1\AppData\Local\Temp\gh_00007041.si
                        2144 --874:         PllCfgReg->M    = 0;
000004d0 61d8           2145 	sld.bu	1[ep],r27
000004d2 dbdef300       2146 	andi	243,r27,r27
000004d6 81db           2147 	sst.b	r27,1[ep]
                        2148 --875:         PllCfgReg->P    = 0;
000004d8 70d8           2149 	sld.hu	0[ep],r27
000004da dbde7ffc       2150 	andi	64639,r27,r27
000004de 80dc           2151 	sst.h	r27,0[ep]
                        2152 --876:         PllCfgReg->FVV  = 3; /* Init value */
000004e0 63d8           2153 	sld.bu	3[ep],r27
000004e2 dbdee300       2154 	andi	227,r27,r27
000004e6 9bde0c00       2155 	ori	12,r27,r27
000004ea 83db           2156 	sst.b	r27,3[ep]
                        2157 --877:         retval        = R_PARAMETER_INCORRECT;
000004ec 044a           2158 	mov	4,r9
                        2159 .L613:
                        2160 --878:     }
                        2161 --879:     return retval;
000004ee 09d8           2162 	mov	r9,r27
                        2163 .L572:
                        2164 --	    .ef
                        2165 .LDW02:
000004f0 1b50           2166 	mov	r27,r10
000004f2 4006df70       2167 	dispose	0,{r25,r26,r27,r28,r29},[lp]
                        2168 	.type	_loc_CalcFreqPll0,@function
                        2169 	.size	_loc_CalcFreqPll0,.-_loc_CalcFreqPll0
                        2170 	.type	_loc_CalcFreqPll0..D.3A.5CRenesas_Electronics.5CD1x_RGL.5Crgl_ghs_D1Lx_obj_V1.2E2.2E0.5Cvlib.5Capp.5Cgfx_apps.5Csimple_draw_d1l2.5Ctarget.5Cd1lx_mango_ghs.5Cobj.5Cr_dev_clk.,@function
                        2171 	.size	_loc_CalcFreqPll0..D.3A.5CRenesas_Electronics.5CD1x_RGL.5Crgl_ghs_D1Lx_obj_V1.2E2.2E0.5Cvlib.5Capp.5Cgfx_apps.5Csimple_draw_d1l2.5Ctarget.5Cd1lx_mango_ghs.5Cobj.5Cr_dev_clk.,.-_loc_CalcFreqPll0..D.3A.5CRenesas_Electronics.5CD1x_RGL.5Crgl_ghs_D1Lx_obj_V1.2E2.2E0.5Cvlib.5Capp.5Cgfx_apps.5Csimple_draw_d1l2.5Ctarget.5Cd1lx_mango_ghs.5Cobj.5Cr_dev_clk.
                        2172 	.align	2
                        2173 .LDW12:
                        2174 --_p_r	r14	local
                        2175 --_m_r	r12	local
                        2176 --_n_r	r13	local
                        2177 --_freq	r1	local
                        2178 --_vc_out	r28	local
                        2179 --_i	r11	local
                        2180 --_retval	r9	local
                        2181 
                        2182 --_FrqIn	r10	param
                        2183 --_PllCfgReg	ep	param
                        2184 --_FrqOut	r29	param
                        2185 
                        2186 	.section ".bss","awb"
                        2187 .L746:
                        2188 	.type	.L746,@object
                        2189 	.size	.L746,0
                        2190 	.data
                        2191 	.text
                        2192 
                        2193 --880: }
                        2194 
                        2195 --882: static r_Error_t loc_CalcFreqPll1(uint32_t FrqIn, loc_PllCfgReg_t * PllCfgReg, uint32_t *FrqOut)
                        2196 	.align	2
                        2197 	.align	2
                        2198 	.global	_loc_CalcFreqPll1..D.3A.5CRenesas_Electronics.5CD1x_RGL.5Crgl_ghs_D1Lx_obj_V1.2E2.2E0.5Cvlib.5Capp.5Cgfx_apps.5Csimple_draw_d1l2.5Ctarget.5Cd1lx_mango_ghs.5Cobj.5Cr_dev_clk.
                        2199 _loc_CalcFreqPll1..D.3A.5CRenesas_Electronics.5CD1x_RGL.5Crgl_ghs_D1Lx_obj_V1.2E2.2E0.5Cvlib.5Capp.5Cgfx_apps.5Csimple_draw_d1l2.5Ctarget.5Cd1lx_mango_ghs.5Cobj.5Cr_dev_clk.:
                        2200 _loc_CalcFreqPll1:
000004f6 8c07e170       2201 	prepare	{r25,r26,r27,r28,r29,r31},6
000004fa 63371100       2202 	st.w	r6,16[sp]
000004fe 07e8           2203 	mov	r7,r29
00000500 63471500       2204 	st.w	r8,20[sp]

                                                                      Page 38
                                                              C:\Users\YINGAO~1\AppData\Local\Temp\gh_00007041.si
                        2205 --	    .bf
                        2206 .LDW22:
                        2207 --883: {
                        2208 --884:     /* Caculate the right values */
                        2209 --885:     /*F = (Fx * Nr) / (Mr * Pr) :
                        2210 --886:       Mr = PLLkC.M[1:0] + 1
                        2211 --887:       Pr = 1, 2, 3, 4, 8 16
                        2212 --888:       P[2:0]  = log_2(Pr); 2^(P[]) = Pr
                        2213 --889:       Nr = PLLkC.NI + 1 + PLLkC.NF.
                        2214 --890:       We set PLLkC.NF to 0
                        2215 --891:       Nr = PLLkC.NI + 1
                        2216 --892:       PLL0:
                        2217 --893:       NI[6:0] = Nr - 1
                        2218 --894:       PLL1:
                        2219 --895:       NI[6:0] = Nr/2 - 1
                        2220 --896:     */
                        2221 --897:     uint32_t  p_r    = 0;
00000504 00da           2222 	mov	0,r27
                        2223 --898:     uint32_t  m_r    = 0;
00000506 00ca           2224 	mov	0,r25
                        2225 --899:     uint32_t  n_r    = 0;
00000508 00d2           2226 	mov	0,r26
                        2227 --900:     uint32_t  freq   = 0;
0000050a 00e2           2228 	mov	0,r28
                        2229 --901:     uint32_t  vc_out = 0;
0000050c 63070900       2230 	st.w	zero,8[sp]
00000510 005a           2231 	mov	0,r11
                        2232 --902:     uint32_t  i      = 1;
00000512 015a           2233 	mov	1,r11
00000514 635f0100       2234 	st.w	r11,0[sp]
                        2235 --904:     r_Error_t retval = R_NG;
00000518 015a           2236 	mov	1,r11
0000051a 635f0500       2237 	st.w	r11,4[sp]
                        2238 --906:     r_dev_Device_t          device;
                        2239 --908:     PllCfgReg->NI    = 0;
0000051e 9d0f0100       2240 	ld.bu	0[r29],r1
00000522 c10e8000       2241 	andi	128,r1,r1
00000526 5d0f0000       2242 	st.b	r1,0[r29]
                        2243 --909:     PllCfgReg->P     = 0;
0000052a fd0f0100       2244 	ld.hu	0[r29],r1
0000052e c10e7ffc       2245 	andi	64639,r1,r1
00000532 7d0f0000       2246 	st.h	r1,0[r29]
                        2247 --910:     PllCfgReg->M     = 0;
00000536 bd0f0100       2248 	ld.bu	1[r29],r1
0000053a c10ef300       2249 	andi	243,r1,r1
0000053e 5d0f0100       2250 	st.b	r1,1[r29]
                        2251 --912:     freq = *FrqOut;
00000542 235f1500       2252 	ld.w	20[sp],r11
00000546 2be70100       2253 	ld.w	0[r11],r28
                        2254 --914:     /* These functions can cover all devices of the d1l/d1m family including the D1M2(H). */
                        2255 --915:     /* The D1M2(H) has a different HW-configuration for PLL1 which is reflected by the values shown here. */
                        2256 --916:     /* For this function to work with all lower devices, their FrqOut has to be multiplied by 2 */
                        2257 --917:     /* This CLK init file is device specific to D1Lx, so no need to check for D1M2(H) always multiply. */
                        2258 --918:     freq = freq * 2;
0000054a 1c08           2259 	mov	r28,r1
0000054c c10a           2260 	shl	1,r1
0000054e 01e0           2261 	mov	r1,r28
                        2262 --920:     /* use the config, call Clock Gen Init */
                        2263 --921:     device  =  R_DEV_GetDev();
                        2264 	jarl	_R_DEV_GetDev,lp
                        2264 <EXPANSION BEGIN>

                                                                      Page 39
                                                              C:\Users\YINGAO~1\AppData\Local\Temp\gh_00007041.si
                        2264 jarl22 _R_DEV_GetDev , lp 
00000550 80ff0000*      2264 <EXPANSION END>
00000554 63570d00       2265 	st.w	r10,12[sp]
                        2266 --922:     if (device < R_DEV_R7F701402)
                        2267 --line922
                        2268 ..lin.D.3A.5CRenesas_Electronics.5CD1x_RGL.5Crgl_ghs_D1Lx_obj_V1.2E2.2E0.5Cvlib.5Capp.5Cgfx_apps.5Csimple_draw_d1l2.5Ctarget.5Cd1lx_mango_ghs.5Cobj.5Cr_dev_clk.60::
                        2269 .LDWlin60:
00000558 235f0d00       2270 	ld.w	12[sp],r11
0000055c 0b0686fa       2271 	addi	-1402,r11,zero
00000560 fe4d*          2272 	bge	.L931
                        2273 --923:     {
                        2274 --924:         if (freq > 960u)
                        2275 --line924
                        2276 ..lin.D.3A.5CRenesas_Electronics.5CD1x_RGL.5Crgl_ghs_D1Lx_obj_V1.2E2.2E0.5Cvlib.5Capp.5Cgfx_apps.5Csimple_draw_d1l2.5Ctarget.5Cd1lx_mango_ghs.5Cobj.5Cr_dev_clk.61::
                        2277 .LDWlin61:
00000562 1c063ffc       2278 	addi	-961,r28,zero
00000566 c905*          2279 	bnl	.L933
                        2280 --925:         {
                        2281 --926:             /* the desired frequency is not valid */
                        2282 --927:             return R_PARAMETER_INCORRECT;
                        2283 --line927
                        2284 ..lin.D.3A.5CRenesas_Electronics.5CD1x_RGL.5Crgl_ghs_D1Lx_obj_V1.2E2.2E0.5Cvlib.5Capp.5Cgfx_apps.5Csimple_draw_d1l2.5Ctarget.5Cd1lx_mango_ghs.5Cobj.5Cr_dev_clk.62::
                        2285 .LDWlin62:
00000568 0452           2286 	mov	4,r10
0000056a 80078802*      2287 	br	.L929
                        2288 .L933:
                        2289 --928:         }
                        2290 --929:         else if (freq > 533u)
                        2291 --line929
                        2292 ..lin.D.3A.5CRenesas_Electronics.5CD1x_RGL.5Crgl_ghs_D1Lx_obj_V1.2E2.2E0.5Cvlib.5Capp.5Cgfx_apps.5Csimple_draw_d1l2.5Ctarget.5Cd1lx_mango_ghs.5Cobj.5Cr_dev_clk.63::
                        2293 .LDWlin63:
0000056e 1c06eafd       2294 	addi	-534,r28,zero
00000572 a90d*          2295 	bnl	.L937
                        2296 --930:         {
                        2297 --931:             p_r = 1u;
                        2298 --line931
                        2299 ..lin.D.3A.5CRenesas_Electronics.5CD1x_RGL.5Crgl_ghs_D1Lx_obj_V1.2E2.2E0.5Cvlib.5Capp.5Cgfx_apps.5Csimple_draw_d1l2.5Ctarget.5Cd1lx_mango_ghs.5Cobj.5Cr_dev_clk.64::
                        2300 .LDWlin64:
00000574 01da           2301 	mov	1,r27
                        2302 --932:             PllCfgReg->P = 0;
00000576 fd0f0100       2303 	ld.hu	0[r29],r1
0000057a c10e7ffc       2304 	andi	64639,r1,r1
0000057e 7d0f0000       2305 	st.h	r1,0[r29]
00000582 80071601*      2306 	br	.L953
                        2307 .L937:
                        2308 --934:         }
                        2309 --935:         else if (freq > 266u)
                        2310 --line935
                        2311 ..lin.D.3A.5CRenesas_Electronics.5CD1x_RGL.5Crgl_ghs_D1Lx_obj_V1.2E2.2E0.5Cvlib.5Capp.5Cgfx_apps.5Csimple_draw_d1l2.5Ctarget.5Cd1lx_mango_ghs.5Cobj.5Cr_dev_clk.65::
                        2312 .LDWlin65:
00000586 1c06f5fe       2313 	addi	-267,r28,zero
0000058a c90d*          2314 	bnl	.L940
                        2315 --936:         {
                        2316 --937:             p_r = 2;
                        2317 --line937
                        2318 ..lin.D.3A.5CRenesas_Electronics.5CD1x_RGL.5Crgl_ghs_D1Lx_obj_V1.2E2.2E0.5Cvlib.5Capp.5Cgfx_apps.5Csimple_draw_d1l2.5Ctarget.5Cd1lx_mango_ghs.5Cobj.5Cr_dev_clk.66::
                        2319 .LDWlin66:
0000058c 02da           2320 	mov	2,r27
                        2321 --938:             PllCfgReg->P = 1u;
0000058e fd0f0100       2322 	ld.hu	0[r29],r1
00000592 20767ffc       2323 	movea	-897,zero,r14

                                                                      Page 40
                                                              C:\Users\YINGAO~1\AppData\Local\Temp\gh_00007041.si
00000596 4e09           2324 	and	r14,r1
00000598 810e8000       2325 	ori	128,r1,r1
0000059c 7d0f0000       2326 	st.h	r1,0[r29]
000005a0 c57d*          2327 	br	.L953
                        2328 .L940:
                        2329 --939:         }
                        2330 --940:         else if (freq > 160u)
                        2331 --line940
                        2332 ..lin.D.3A.5CRenesas_Electronics.5CD1x_RGL.5Crgl_ghs_D1Lx_obj_V1.2E2.2E0.5Cvlib.5Capp.5Cgfx_apps.5Csimple_draw_d1l2.5Ctarget.5Cd1lx_mango_ghs.5Cobj.5Cr_dev_clk.67::
                        2333 .LDWlin67:
000005a2 1c065fff       2334 	addi	-161,r28,zero
000005a6 c90d*          2335 	bnl	.L943
                        2336 --941:         {
                        2337 --942:             p_r = 4u;
                        2338 --line942
                        2339 ..lin.D.3A.5CRenesas_Electronics.5CD1x_RGL.5Crgl_ghs_D1Lx_obj_V1.2E2.2E0.5Cvlib.5Capp.5Cgfx_apps.5Csimple_draw_d1l2.5Ctarget.5Cd1lx_mango_ghs.5Cobj.5Cr_dev_clk.68::
                        2340 .LDWlin68:
000005a8 04da           2341 	mov	4,r27
                        2342 --943:             PllCfgReg->P = 2u;
000005aa fd0f0100       2343 	ld.hu	0[r29],r1
000005ae 20767ffc       2344 	movea	-897,zero,r14
000005b2 4e09           2345 	and	r14,r1
000005b4 810e0001       2346 	ori	256,r1,r1
000005b8 7d0f0000       2347 	st.h	r1,0[r29]
000005bc e56d*          2348 	br	.L953
                        2349 .L943:
                        2350 --944:         }
                        2351 --945:         else if (freq > 67u)
                        2352 --line945
                        2353 ..lin.D.3A.5CRenesas_Electronics.5CD1x_RGL.5Crgl_ghs_D1Lx_obj_V1.2E2.2E0.5Cvlib.5Capp.5Cgfx_apps.5Csimple_draw_d1l2.5Ctarget.5Cd1lx_mango_ghs.5Cobj.5Cr_dev_clk.69::
                        2354 .LDWlin69:
000005be 1c06bcff       2355 	addi	-68,r28,zero
000005c2 c90d*          2356 	bnl	.L946
                        2357 --946:         {
                        2358 --947:             p_r = 8;
                        2359 --line947
                        2360 ..lin.D.3A.5CRenesas_Electronics.5CD1x_RGL.5Crgl_ghs_D1Lx_obj_V1.2E2.2E0.5Cvlib.5Capp.5Cgfx_apps.5Csimple_draw_d1l2.5Ctarget.5Cd1lx_mango_ghs.5Cobj.5Cr_dev_clk.70::
                        2361 .LDWlin70:
000005c4 08da           2362 	mov	8,r27
                        2363 --948:             PllCfgReg->P = 3u;
000005c6 fd0f0100       2364 	ld.hu	0[r29],r1
000005ca 20767ffc       2365 	movea	-897,zero,r14
000005ce 4e09           2366 	and	r14,r1
000005d0 810e8001       2367 	ori	384,r1,r1
000005d4 7d0f0000       2368 	st.h	r1,0[r29]
000005d8 8565*          2369 	br	.L953
                        2370 .L946:
                        2371 --949:         }
                        2372 --950:         else if (freq > 40u)
                        2373 --line950
                        2374 ..lin.D.3A.5CRenesas_Electronics.5CD1x_RGL.5Crgl_ghs_D1Lx_obj_V1.2E2.2E0.5Cvlib.5Capp.5Cgfx_apps.5Csimple_draw_d1l2.5Ctarget.5Cd1lx_mango_ghs.5Cobj.5Cr_dev_clk.71::
                        2375 .LDWlin71:
000005da 1c06d7ff       2376 	addi	-41,r28,zero
000005de d90d*          2377 	bnl	.L949
                        2378 --951:         {
                        2379 --952:             p_r = 16u;
                        2380 --line952
                        2381 ..lin.D.3A.5CRenesas_Electronics.5CD1x_RGL.5Crgl_ghs_D1Lx_obj_V1.2E2.2E0.5Cvlib.5Capp.5Cgfx_apps.5Csimple_draw_d1l2.5Ctarget.5Cd1lx_mango_ghs.5Cobj.5Cr_dev_clk.72::
                        2382 .LDWlin72:
000005e0 20de1000       2383 	movea	16,zero,r27
                        2384 --953:             PllCfgReg->P = 4u;

                                                                      Page 41
                                                              C:\Users\YINGAO~1\AppData\Local\Temp\gh_00007041.si
000005e4 fd0f0100       2385 	ld.hu	0[r29],r1
000005e8 20767ffc       2386 	movea	-897,zero,r14
000005ec 4e09           2387 	and	r14,r1
000005ee 810e0002       2388 	ori	512,r1,r1
000005f2 7d0f0000       2389 	st.h	r1,0[r29]
000005f6 9555*          2390 	br	.L953
                        2391 .L949:
                        2392 --954:         }
                        2393 --955:         else
                        2394 --956:         {
                        2395 --957:             /* the desired frequency is not valid */
                        2396 --958:             return R_PARAMETER_INCORRECT;
                        2397 --line958
                        2398 ..lin.D.3A.5CRenesas_Electronics.5CD1x_RGL.5Crgl_ghs_D1Lx_obj_V1.2E2.2E0.5Cvlib.5Capp.5Cgfx_apps.5Csimple_draw_d1l2.5Ctarget.5Cd1lx_mango_ghs.5Cobj.5Cr_dev_clk.73::
                        2399 .LDWlin73:
000005f8 0452           2400 	mov	4,r10
000005fa 8007f801*      2401 	br	.L929
                        2402 .L931:
                        2403 --959:         }
                        2404 --960:     }
                        2405 --961:     else
                        2406 --962:     {
                        2407 --963:         if (freq > 480u)
                        2408 --line963
                        2409 ..lin.D.3A.5CRenesas_Electronics.5CD1x_RGL.5Crgl_ghs_D1Lx_obj_V1.2E2.2E0.5Cvlib.5Capp.5Cgfx_apps.5Csimple_draw_d1l2.5Ctarget.5Cd1lx_mango_ghs.5Cobj.5Cr_dev_clk.74::
                        2410 .LDWlin74:
000005fe 1c061ffe       2411 	addi	-481,r28,zero
00000602 c905*          2412 	bnl	.L954
                        2413 --964:         {
                        2414 --965:             /* the desired frequency is not valid */
                        2415 --966:             return R_PARAMETER_INCORRECT;
                        2416 --line966
                        2417 ..lin.D.3A.5CRenesas_Electronics.5CD1x_RGL.5Crgl_ghs_D1Lx_obj_V1.2E2.2E0.5Cvlib.5Capp.5Cgfx_apps.5Csimple_draw_d1l2.5Ctarget.5Cd1lx_mango_ghs.5Cobj.5Cr_dev_clk.75::
                        2418 .LDWlin75:
00000604 0452           2419 	mov	4,r10
00000606 8007ec01*      2420 	br	.L929
                        2421 .L954:
                        2422 --967:         }
                        2423 --968:         else if (freq > 240u)
                        2424 --line968
                        2425 ..lin.D.3A.5CRenesas_Electronics.5CD1x_RGL.5Crgl_ghs_D1Lx_obj_V1.2E2.2E0.5Cvlib.5Capp.5Cgfx_apps.5Csimple_draw_d1l2.5Ctarget.5Cd1lx_mango_ghs.5Cobj.5Cr_dev_clk.76::
                        2426 .LDWlin76:
0000060a 1c060fff       2427 	addi	-241,r28,zero
0000060e 990d*          2428 	bnl	.L958
                        2429 --969:         {
                        2430 --970:             p_r = 1u;
                        2431 --line970
                        2432 ..lin.D.3A.5CRenesas_Electronics.5CD1x_RGL.5Crgl_ghs_D1Lx_obj_V1.2E2.2E0.5Cvlib.5Capp.5Cgfx_apps.5Csimple_draw_d1l2.5Ctarget.5Cd1lx_mango_ghs.5Cobj.5Cr_dev_clk.77::
                        2433 .LDWlin77:
00000610 01da           2434 	mov	1,r27
                        2435 --971:             PllCfgReg->P = 0;
00000612 fd0f0100       2436 	ld.hu	0[r29],r1
00000616 c10e7ffc       2437 	andi	64639,r1,r1
0000061a 7d0f0000       2438 	st.h	r1,0[r29]
0000061e d53d*          2439 	br	.L953
                        2440 .L958:
                        2441 --973:         }
                        2442 --974:         else if (freq > 120u)
                        2443 --line974
                        2444 ..lin.D.3A.5CRenesas_Electronics.5CD1x_RGL.5Crgl_ghs_D1Lx_obj_V1.2E2.2E0.5Cvlib.5Capp.5Cgfx_apps.5Csimple_draw_d1l2.5Ctarget.5Cd1lx_mango_ghs.5Cobj.5Cr_dev_clk.78::
                        2445 .LDWlin78:

                                                                      Page 42
                                                              C:\Users\YINGAO~1\AppData\Local\Temp\gh_00007041.si
00000620 1c0687ff       2446 	addi	-121,r28,zero
00000624 c90d*          2447 	bnl	.L961
                        2448 --975:         {
                        2449 --976:             p_r = 2;
                        2450 --line976
                        2451 ..lin.D.3A.5CRenesas_Electronics.5CD1x_RGL.5Crgl_ghs_D1Lx_obj_V1.2E2.2E0.5Cvlib.5Capp.5Cgfx_apps.5Csimple_draw_d1l2.5Ctarget.5Cd1lx_mango_ghs.5Cobj.5Cr_dev_clk.79::
                        2452 .LDWlin79:
00000626 02da           2453 	mov	2,r27
                        2454 --977:             PllCfgReg->P = 1u;
00000628 fd0f0100       2455 	ld.hu	0[r29],r1
0000062c 20767ffc       2456 	movea	-897,zero,r14
00000630 4e09           2457 	and	r14,r1
00000632 810e8000       2458 	ori	128,r1,r1
00000636 7d0f0000       2459 	st.h	r1,0[r29]
0000063a f52d*          2460 	br	.L953
                        2461 .L961:
                        2462 --978:         }
                        2463 --979:         else if (freq > 80u)
                        2464 --line979
                        2465 ..lin.D.3A.5CRenesas_Electronics.5CD1x_RGL.5Crgl_ghs_D1Lx_obj_V1.2E2.2E0.5Cvlib.5Capp.5Cgfx_apps.5Csimple_draw_d1l2.5Ctarget.5Cd1lx_mango_ghs.5Cobj.5Cr_dev_clk.80::
                        2466 .LDWlin80:
0000063c 1c06afff       2467 	addi	-81,r28,zero
00000640 c90d*          2468 	bnl	.L964
                        2469 --980:         {
                        2470 --981:             p_r = 4u;
                        2471 --line981
                        2472 ..lin.D.3A.5CRenesas_Electronics.5CD1x_RGL.5Crgl_ghs_D1Lx_obj_V1.2E2.2E0.5Cvlib.5Capp.5Cgfx_apps.5Csimple_draw_d1l2.5Ctarget.5Cd1lx_mango_ghs.5Cobj.5Cr_dev_clk.81::
                        2473 .LDWlin81:
00000642 04da           2474 	mov	4,r27
                        2475 --982:             PllCfgReg->P = 2u;
00000644 fd0f0100       2476 	ld.hu	0[r29],r1
00000648 20767ffc       2477 	movea	-897,zero,r14
0000064c 4e09           2478 	and	r14,r1
0000064e 810e0001       2479 	ori	256,r1,r1
00000652 7d0f0000       2480 	st.h	r1,0[r29]
00000656 9525*          2481 	br	.L953
                        2482 .L964:
                        2483 --983:         }
                        2484 --984:         else if (freq > 40u)
                        2485 --line984
                        2486 ..lin.D.3A.5CRenesas_Electronics.5CD1x_RGL.5Crgl_ghs_D1Lx_obj_V1.2E2.2E0.5Cvlib.5Capp.5Cgfx_apps.5Csimple_draw_d1l2.5Ctarget.5Cd1lx_mango_ghs.5Cobj.5Cr_dev_clk.82::
                        2487 .LDWlin82:
00000658 1c06d7ff       2488 	addi	-41,r28,zero
0000065c c90d*          2489 	bnl	.L967
                        2490 --985:         {
                        2491 --986:             p_r = 8;
                        2492 --line986
                        2493 ..lin.D.3A.5CRenesas_Electronics.5CD1x_RGL.5Crgl_ghs_D1Lx_obj_V1.2E2.2E0.5Cvlib.5Capp.5Cgfx_apps.5Csimple_draw_d1l2.5Ctarget.5Cd1lx_mango_ghs.5Cobj.5Cr_dev_clk.83::
                        2494 .LDWlin83:
0000065e 08da           2495 	mov	8,r27
                        2496 --987:             PllCfgReg->P = 3u;
00000660 fd0f0100       2497 	ld.hu	0[r29],r1
00000664 20767ffc       2498 	movea	-897,zero,r14
00000668 4e09           2499 	and	r14,r1
0000066a 810e8001       2500 	ori	384,r1,r1
0000066e 7d0f0000       2501 	st.h	r1,0[r29]
00000672 b515*          2502 	br	.L953
                        2503 .L967:
                        2504 --988:         }
                        2505 --989:         else if (freq > 30u)
                        2506 --line989

                                                                      Page 43
                                                              C:\Users\YINGAO~1\AppData\Local\Temp\gh_00007041.si
                        2507 ..lin.D.3A.5CRenesas_Electronics.5CD1x_RGL.5Crgl_ghs_D1Lx_obj_V1.2E2.2E0.5Cvlib.5Capp.5Cgfx_apps.5Csimple_draw_d1l2.5Ctarget.5Cd1lx_mango_ghs.5Cobj.5Cr_dev_clk.84::
                        2508 .LDWlin84:
00000674 1c06e1ff       2509 	addi	-31,r28,zero
00000678 d90d*          2510 	bnl	.L970
                        2511 --990:         {
                        2512 --991:             p_r = 16u;
                        2513 --line991
                        2514 ..lin.D.3A.5CRenesas_Electronics.5CD1x_RGL.5Crgl_ghs_D1Lx_obj_V1.2E2.2E0.5Cvlib.5Capp.5Cgfx_apps.5Csimple_draw_d1l2.5Ctarget.5Cd1lx_mango_ghs.5Cobj.5Cr_dev_clk.85::
                        2515 .LDWlin85:
0000067a 20de1000       2516 	movea	16,zero,r27
                        2517 --992:             PllCfgReg->P = 4u;
0000067e fd0f0100       2518 	ld.hu	0[r29],r1
00000682 20767ffc       2519 	movea	-897,zero,r14
00000686 4e09           2520 	and	r14,r1
00000688 810e0002       2521 	ori	512,r1,r1
0000068c 7d0f0000       2522 	st.h	r1,0[r29]
00000690 c505*          2523 	br	.L953
                        2524 .L970:
                        2525 --993:         }
                        2526 --994:         else
                        2527 --995:         {
                        2528 --996:             /* the desired frequency is not valid */
                        2529 --997:             return R_PARAMETER_INCORRECT;
                        2530 --line997
                        2531 ..lin.D.3A.5CRenesas_Electronics.5CD1x_RGL.5Crgl_ghs_D1Lx_obj_V1.2E2.2E0.5Cvlib.5Capp.5Cgfx_apps.5Csimple_draw_d1l2.5Ctarget.5Cd1lx_mango_ghs.5Cobj.5Cr_dev_clk.86::
                        2532 .LDWlin86:
00000692 0452           2533 	mov	4,r10
00000694 80075e01*      2534 	br	.L929
                        2535 .L953:
                        2536 --998:         }
                        2537 --999:     }
                        2538 --1001:     if (24u == FrqIn)
                        2539 --line1001
                        2540 ..lin.D.3A.5CRenesas_Electronics.5CD1x_RGL.5Crgl_ghs_D1Lx_obj_V1.2E2.2E0.5Cvlib.5Capp.5Cgfx_apps.5Csimple_draw_d1l2.5Ctarget.5Cd1lx_mango_ghs.5Cobj.5Cr_dev_clk.87::
                        2541 .LDWlin87:
00000698 235f1100       2542 	ld.w	16[sp],r11
0000069c 0b06e8ff       2543 	addi	-24,r11,zero
000006a0 ba05*          2544 	bne	.L974
                        2545 --1002:     {
                        2546 --1003:        m_r = 3u;
                        2547 --line1003
                        2548 ..lin.D.3A.5CRenesas_Electronics.5CD1x_RGL.5Crgl_ghs_D1Lx_obj_V1.2E2.2E0.5Cvlib.5Capp.5Cgfx_apps.5Csimple_draw_d1l2.5Ctarget.5Cd1lx_mango_ghs.5Cobj.5Cr_dev_clk.88::
                        2549 .LDWlin88:
000006a2 03ca           2550 	mov	3,r25
000006a4 9515*          2551 	br	.L976
                        2552 .L974:
                        2553 --1004:     }
                        2554 --1005:     else if (16u <= FrqIn)
                        2555 --line1005
                        2556 ..lin.D.3A.5CRenesas_Electronics.5CD1x_RGL.5Crgl_ghs_D1Lx_obj_V1.2E2.2E0.5Cvlib.5Capp.5Cgfx_apps.5Csimple_draw_d1l2.5Ctarget.5Cd1lx_mango_ghs.5Cobj.5Cr_dev_clk.89::
                        2557 .LDWlin89:
000006a6 235f1100       2558 	ld.w	16[sp],r11
000006aa 0b06f0ff       2559 	addi	-16,r11,zero
000006ae b905*          2560 	bnl	.L977
                        2561 --1006:     {
                        2562 --1007:        m_r = 2u;
                        2563 --line1007
                        2564 ..lin.D.3A.5CRenesas_Electronics.5CD1x_RGL.5Crgl_ghs_D1Lx_obj_V1.2E2.2E0.5Cvlib.5Capp.5Cgfx_apps.5Csimple_draw_d1l2.5Ctarget.5Cd1lx_mango_ghs.5Cobj.5Cr_dev_clk.90::
                        2565 .LDWlin90:
000006b0 02ca           2566 	mov	2,r25
000006b2 a50d*          2567 	br	.L976

                                                                      Page 44
                                                              C:\Users\YINGAO~1\AppData\Local\Temp\gh_00007041.si
                        2568 .L977:
                        2569 --1008:     }
                        2570 --1009:     else if  (8u <= FrqIn)
                        2571 --line1009
                        2572 ..lin.D.3A.5CRenesas_Electronics.5CD1x_RGL.5Crgl_ghs_D1Lx_obj_V1.2E2.2E0.5Cvlib.5Capp.5Cgfx_apps.5Csimple_draw_d1l2.5Ctarget.5Cd1lx_mango_ghs.5Cobj.5Cr_dev_clk.91::
                        2573 .LDWlin91:
000006b4 235f1100       2574 	ld.w	16[sp],r11
000006b8 685a           2575 	cmp	8,r11
000006ba b105*          2576 	bl	.L980
                        2577 --1010:     {
                        2578 --1011:        m_r = 1u;
                        2579 --line1011
                        2580 ..lin.D.3A.5CRenesas_Electronics.5CD1x_RGL.5Crgl_ghs_D1Lx_obj_V1.2E2.2E0.5Cvlib.5Capp.5Cgfx_apps.5Csimple_draw_d1l2.5Ctarget.5Cd1lx_mango_ghs.5Cobj.5Cr_dev_clk.92::
                        2581 .LDWlin92:
000006bc 01ca           2582 	mov	1,r25
000006be c505*          2583 	br	.L976
                        2584 .L980:
                        2585 --1012:     }
                        2586 --1013:     else
                        2587 --1014:     {
                        2588 --1015:         /* the input frequency is not valid */
                        2589 --1016:         return R_PARAMETER_INCORRECT;
                        2590 --line1016
                        2591 ..lin.D.3A.5CRenesas_Electronics.5CD1x_RGL.5Crgl_ghs_D1Lx_obj_V1.2E2.2E0.5Cvlib.5Capp.5Cgfx_apps.5Csimple_draw_d1l2.5Ctarget.5Cd1lx_mango_ghs.5Cobj.5Cr_dev_clk.93::
                        2592 .LDWlin93:
000006c0 0452           2593 	mov	4,r10
000006c2 80073001*      2594 	br	.L929
                        2595 .L976:
                        2596 --1017:     }
                        2597 --1019:     n_r = (freq * m_r * p_r)/FrqIn;
                        2598 --line1019
                        2599 ..lin.D.3A.5CRenesas_Electronics.5CD1x_RGL.5Crgl_ghs_D1Lx_obj_V1.2E2.2E0.5Cvlib.5Capp.5Cgfx_apps.5Csimple_draw_d1l2.5Ctarget.5Cd1lx_mango_ghs.5Cobj.5Cr_dev_clk.94::
                        2600 .LDWlin94:
000006c6 235f1100       2601 	ld.w	16[sp],r11
000006ca 1c08           2602 	mov	r28,r1
000006cc f90f2202       2603 	mulu	r25,r1,zero
000006d0 fb0f2202       2604 	mulu	r27,r1,zero
000006d4 01d0           2605 	mov	r1,r26
000006d6 ebd7fe02       2606 	divqu	r11,r26,zero
                        2607 --1021:     /* do we have a valid parameter */
                        2608 --1022:     if ((n_r > 23) && (n_r < 161) )
000006da 1a06e8ff       2609 	addi	-24,r26,zero
000006de f96d*          2610 	bnl	.L984
000006e0 1a065fff       2611 	addi	-161,r26,zero
000006e4 c16d*          2612 	bl	.L984
                        2613 --1023:     {
                        2614 --1024:         *FrqOut       = (FrqIn * n_r)/(m_r * p_r);
                        2615 --line1024
                        2616 ..lin.D.3A.5CRenesas_Electronics.5CD1x_RGL.5Crgl_ghs_D1Lx_obj_V1.2E2.2E0.5Cvlib.5Capp.5Cgfx_apps.5Csimple_draw_d1l2.5Ctarget.5Cd1lx_mango_ghs.5Cobj.5Cr_dev_clk.95::
                        2617 .LDWlin95:
000006e6 230f1100       2618 	ld.w	16[sp],r1
000006ea 1968           2619 	mov	r25,r13
000006ec fb6f2202       2620 	mulu	r27,r13,zero
000006f0 235f1500       2621 	ld.w	20[sp],r11
000006f4 fa0f2202       2622 	mulu	r26,r1,zero
000006f8 ed0ffe02       2623 	divqu	r13,r1,zero
000006fc 6b0f0100       2624 	st.w	r1,0[r11]
                        2625 --1025:         PllCfgReg->NI = (uint8_t) (n_r/2) - 1u ;
00000700 1a08           2626 	mov	r26,r1
00000702 810a           2627 	shr	1,r1
00000704 8100           2628 	zxb	r1

                                                                      Page 45
                                                              C:\Users\YINGAO~1\AppData\Local\Temp\gh_00007041.si
00000706 0176ffff       2629 	addi	-1,r1,r14
0000070a 9d0f0100       2630 	ld.bu	0[r29],r1
0000070e ce767f00       2631 	andi	127,r14,r14
00000712 c10e8000       2632 	andi	128,r1,r1
00000716 0e09           2633 	or	r14,r1
00000718 5d0f0000       2634 	st.b	r1,0[r29]
                        2635 --1026:         PllCfgReg->M  = (uint8_t) m_r     - 1u ;
0000071c 1908           2636 	mov	r25,r1
0000071e 8100           2637 	zxb	r1
00000720 0176ffff       2638 	addi	-1,r1,r14
00000724 bd0f0100       2639 	ld.bu	1[r29],r1
00000728 ce760300       2640 	andi	3,r14,r14
0000072c c272           2641 	shl	2,r14
0000072e c10ef300       2642 	andi	243,r1,r1
00000732 0e09           2643 	or	r14,r1
00000734 5d0f0100       2644 	st.b	r1,1[r29]
                        2645 --1027:         /* Calculate FVV setting */
                        2646 --1028:         vc_out        = *FrqOut * p_r;
00000738 235f1500       2647 	ld.w	20[sp],r11
0000073c 2b0f0100       2648 	ld.w	0[r11],r1
00000740 fb0f2202       2649 	mulu	r27,r1,zero
00000744 630f0900       2650 	st.w	r1,8[sp]
                        2651 --1029:         i = 1;
00000748 015a           2652 	mov	1,r11
0000074a 635f0100       2653 	st.w	r11,0[sp]
                        2654 --1030:         while ((640u + (i * 80u)) <  vc_out)
0000074e e505*          2655 	br	.L987
                        2656 .L989:
                        2657 --1031:         {
                        2658 --1032:             i++;
                        2659 --line1032
                        2660 ..lin.D.3A.5CRenesas_Electronics.5CD1x_RGL.5Crgl_ghs_D1Lx_obj_V1.2E2.2E0.5Cvlib.5Capp.5Cgfx_apps.5Csimple_draw_d1l2.5Ctarget.5Cd1lx_mango_ghs.5Cobj.5Cr_dev_clk.96::
                        2661 .LDWlin96:
00000750 235f0100       2662 	ld.w	0[sp],r11
00000754 415a           2663 	add	1,r11
00000756 635f0100       2664 	st.w	r11,0[sp]
                        2665 .L987:
0000075a 230f0100       2666 	ld.w	0[sp],r1
0000075e 235f0900       2667 	ld.w	8[sp],r11
00000762 f00f4a02       2668 	mulu	80,r1,zero
00000766 010e8002       2669 	addi	640,r1,r1
0000076a eb09           2670 	cmp	r11,r1
0000076c a1f5*          2671 	bl	.L989
                        2672 --1033:         }
                        2673 --1034:         if (i < 8)
                        2674 --line1034
                        2675 ..lin.D.3A.5CRenesas_Electronics.5CD1x_RGL.5Crgl_ghs_D1Lx_obj_V1.2E2.2E0.5Cvlib.5Capp.5Cgfx_apps.5Csimple_draw_d1l2.5Ctarget.5Cd1lx_mango_ghs.5Cobj.5Cr_dev_clk.97::
                        2676 .LDWlin97:
0000076e 235f0100       2677 	ld.w	0[sp],r11
00000772 685a           2678 	cmp	8,r11
00000774 8915*          2679 	bnl	.L990
                        2680 --1035:         {
                        2681 --1036:              PllCfgReg->FVV = i -1u;
                        2682 --line1036
                        2683 ..lin.D.3A.5CRenesas_Electronics.5CD1x_RGL.5Crgl_ghs_D1Lx_obj_V1.2E2.2E0.5Cvlib.5Capp.5Cgfx_apps.5Csimple_draw_d1l2.5Ctarget.5Cd1lx_mango_ghs.5Cobj.5Cr_dev_clk.98::
                        2684 .LDWlin98:
00000776 235f0100       2685 	ld.w	0[sp],r11
0000077a bd0f0300       2686 	ld.bu	3[r29],r1
0000077e 0b76ffff       2687 	addi	-1,r11,r14
00000782 ce760700       2688 	andi	7,r14,r14
00000786 c272           2689 	shl	2,r14

                                                                      Page 46
                                                              C:\Users\YINGAO~1\AppData\Local\Temp\gh_00007041.si
00000788 c10ee300       2690 	andi	227,r1,r1
0000078c 0e09           2691 	or	r14,r1
0000078e 5d0f0300       2692 	st.b	r1,3[r29]
00000792 950d*          2693 	br	.L992
                        2694 .L990:
                        2695 --1037:         }
                        2696 --1038:         else
                        2697 --1039:         {
                        2698 --1040:             PllCfgReg->FVV  = 3; /* init value */
                        2699 --line1040
                        2700 ..lin.D.3A.5CRenesas_Electronics.5CD1x_RGL.5Crgl_ghs_D1Lx_obj_V1.2E2.2E0.5Cvlib.5Capp.5Cgfx_apps.5Csimple_draw_d1l2.5Ctarget.5Cd1lx_mango_ghs.5Cobj.5Cr_dev_clk.99::
                        2701 .LDWlin99:
00000794 bd0f0300       2702 	ld.bu	3[r29],r1
00000798 c10ee300       2703 	andi	227,r1,r1
0000079c 810e0c00       2704 	ori	12,r1,r1
000007a0 5d0f0300       2705 	st.b	r1,3[r29]
                        2706 .L992:
                        2707 --1041:         }
                        2708 --1042:         /* D1Lx and D1M1(H): See comment at begin of function. */
                        2709 --1043:         /* => Divide back the factor of 2 added at the begin of this function. */
                        2710 --1044:         /* D1M2(H): The PLL1 is followed by a DIVIDE 2, so in the end, */
                        2711 --1045:         /* we ALWAYS divide by two. */
                        2712 --1046:         *FrqOut /= 2;
000007a4 235f1500       2713 	ld.w	20[sp],r11
000007a8 2b0f0100       2714 	ld.w	0[r11],r1
000007ac 0b60           2715 	mov	r11,r12
000007ae 810a           2716 	shr	1,r1
000007b0 6c0f0100       2717 	st.w	r1,0[r12]
                        2718 --1048:         retval        = R_ERR_OK;
000007b4 63070500       2719 	st.w	zero,4[sp]
000007b8 005a           2720 	mov	0,r11
000007ba a51d*          2721 	br	.L993
                        2722 .L984:
                        2723 --1049:     }
                        2724 --1050:     else
                        2725 --1051:     {
                        2726 --1052:         *FrqOut       = 0;
                        2727 --line1052
                        2728 ..lin.D.3A.5CRenesas_Electronics.5CD1x_RGL.5Crgl_ghs_D1Lx_obj_V1.2E2.2E0.5Cvlib.5Capp.5Cgfx_apps.5Csimple_draw_d1l2.5Ctarget.5Cd1lx_mango_ghs.5Cobj.5Cr_dev_clk.100::
                        2729 .LDWlin100:
000007bc 235f1500       2730 	ld.w	20[sp],r11
000007c0 6b070100       2731 	st.w	zero,0[r11]
                        2732 --1053:         PllCfgReg->NI = 0;
000007c4 9d0f0100       2733 	ld.bu	0[r29],r1
000007c8 c10e8000       2734 	andi	128,r1,r1
000007cc 5d0f0000       2735 	st.b	r1,0[r29]
                        2736 --1054:         PllCfgReg->M  = 0;
000007d0 bd0f0100       2737 	ld.bu	1[r29],r1
000007d4 c10ef300       2738 	andi	243,r1,r1
000007d8 5d0f0100       2739 	st.b	r1,1[r29]
                        2740 --1055:         PllCfgReg->P  = 0;
000007dc fd0f0100       2741 	ld.hu	0[r29],r1
000007e0 c10e7ffc       2742 	andi	64639,r1,r1
000007e4 7d0f0000       2743 	st.h	r1,0[r29]
                        2744 --1056:         retval        = R_PARAMETER_INCORRECT;
000007e8 045a           2745 	mov	4,r11
000007ea 635f0500       2746 	st.w	r11,4[sp]
                        2747 .L993:
                        2748 --1057:     }
                        2749 --1058:     return retval;
000007ee 23570500       2750 	ld.w	4[sp],r10

                                                                      Page 47
                                                              C:\Users\YINGAO~1\AppData\Local\Temp\gh_00007041.si
                        2751 .L929:
                        2752 --	    .ef
                        2753 .LDW32:
000007f2 4c06ff70       2754 	dispose	6,{r25,r26,r27,r28,r29,r31},[lp]
                        2755 	.type	_loc_CalcFreqPll1,@function
                        2756 	.size	_loc_CalcFreqPll1,.-_loc_CalcFreqPll1
                        2757 	.type	_loc_CalcFreqPll1..D.3A.5CRenesas_Electronics.5CD1x_RGL.5Crgl_ghs_D1Lx_obj_V1.2E2.2E0.5Cvlib.5Capp.5Cgfx_apps.5Csimple_draw_d1l2.5Ctarget.5Cd1lx_mango_ghs.5Cobj.5Cr_dev_clk.,@function
                        2758 	.size	_loc_CalcFreqPll1..D.3A.5CRenesas_Electronics.5CD1x_RGL.5Crgl_ghs_D1Lx_obj_V1.2E2.2E0.5Cvlib.5Capp.5Cgfx_apps.5Csimple_draw_d1l2.5Ctarget.5Cd1lx_mango_ghs.5Cobj.5Cr_dev_clk.,.-_loc_CalcFreqPll1..D.3A.5CRenesas_Electronics.5CD1x_RGL.5Crgl_ghs_D1Lx_obj_V1.2E2.2E0.5Cvlib.5Capp.5Cgfx_apps.5Csimple_draw_d1l2.5Ctarget.5Cd1lx_mango_ghs.5Cobj.5Cr_dev_clk.
                        2759 	.align	2
                        2760 .LDW42:
                        2761 --_p_r	r27	local
                        2762 --_m_r	r25	local
                        2763 --_n_r	r26	local
                        2764 --_freq	r28	local
                        2765 --_vc_out	8[sp]	local
                        2766 --_i	0[sp]	local
                        2767 --_retval	4[sp]	local
                        2768 --_device	12[sp]	local
                        2769 
                        2770 --_FrqIn	16[sp]	param
                        2771 --_PllCfgReg	r29	param
                        2772 --_FrqOut	20[sp]	param
                        2773 
                        2774 	.section ".bss","awb"
                        2775 .L1174:
                        2776 	.type	.L1174,@object
                        2777 	.size	.L1174,0
                        2778 	.data
                        2779 	.text
                        2780 
                        2781 --1059: }
                        2782 
                        2783 --1061: static r_Error_t loc_CalcFreqPll2(uint32_t FrqIn, loc_PllCfgReg_t * PllCfgReg, uint32_t *FrqOut)
                        2784 	.align	2
                        2785 	.align	2
                        2786 	.global	_loc_CalcFreqPll2..D.3A.5CRenesas_Electronics.5CD1x_RGL.5Crgl_ghs_D1Lx_obj_V1.2E2.2E0.5Cvlib.5Capp.5Cgfx_apps.5Csimple_draw_d1l2.5Ctarget.5Cd1lx_mango_ghs.5Cobj.5Cr_dev_clk.
                        2787 _loc_CalcFreqPll2..D.3A.5CRenesas_Electronics.5CD1x_RGL.5Crgl_ghs_D1Lx_obj_V1.2E2.2E0.5Cvlib.5Capp.5Cgfx_apps.5Csimple_draw_d1l2.5Ctarget.5Cd1lx_mango_ghs.5Cobj.5Cr_dev_clk.:
                        2788 _loc_CalcFreqPll2:
000007f6 8007c110       2789 	prepare	{r27,r28,r29},0
000007fa 0658           2790 	mov	r6,r11
000007fc 07f0           2791 	mov	r7,ep
000007fe 0848           2792 	mov	r8,r9
                        2793 --	    .bf
                        2794 .LDW52:
                        2795 --1062: {
                        2796 --1063:     /* Caculate the right values */
                        2797 --1064:     /*F = (Fx * Nr) / (Mr * Pr) :
                        2798 --1065:       Mr = PLLkC.M[1:0] + 1
                        2799 --1066:       Pr = 1, 2, 3, 4, 8 16
                        2800 --1067:       P[2:0]  = log_2(Pr); 2^(P[]) = Pr
                        2801 --1068:       Nr = PLLkC.NI + 1 + PLLkC.NF.
                        2802 --1069:       We set PLLkC.NF to 0
                        2803 --1070:       Nr = PLLkC.NI + 1
                        2804 --1071:       PLL0:
                        2805 --1072:       NI[6:0] = Nr - 1
                        2806 --1073:       PLL1:
                        2807 --1074:       NI[6:0] = Nr/2 - 1
                        2808 --1075:     */
                        2809 --1076:     uint32_t  p_r    = 0;
00000800 0072           2810 	mov	0,r14
                        2811 --1077:     uint32_t  m_r    = 0;

                                                                      Page 48
                                                              C:\Users\YINGAO~1\AppData\Local\Temp\gh_00007041.si
00000802 0062           2812 	mov	0,r12
                        2813 --1078:     uint32_t  n_r    = 0;
00000804 006a           2814 	mov	0,r13
                        2815 --1079:     uint32_t  freq   = 0;
00000806 000a           2816 	mov	0,r1
                        2817 --1080:     r_Error_t retval = R_NG;
00000808 0152           2818 	mov	1,r10
                        2819 --1082:     PllCfgReg->NI    = 0;
0000080a 60e8           2820 	sld.bu	0[ep],r29
0000080c ddee8000       2821 	andi	128,r29,r29
00000810 80eb           2822 	sst.b	r29,0[ep]
                        2823 --1083:     PllCfgReg->P     = 0;
00000812 70e8           2824 	sld.hu	0[ep],r29
00000814 ddee7ffc       2825 	andi	64639,r29,r29
00000818 80ec           2826 	sst.h	r29,0[ep]
                        2827 --1084:     PllCfgReg->M     = 0;
0000081a 61e8           2828 	sld.bu	1[ep],r29
0000081c ddeef300       2829 	andi	243,r29,r29
00000820 81eb           2830 	sst.b	r29,1[ep]
                        2831 --1086:     freq = *FrqOut;
00000822 290f0100       2832 	ld.w	0[r9],r1
                        2833 --1088:     if (freq > 480u)
00000826 01061ffe       2834 	addi	-481,r1,zero
0000082a c905*          2835 	bnl	.L1425
                        2836 --1089:     {
                        2837 --1090:         /* the desired frequency is not valid */
                        2838 --1091:         return R_PARAMETER_INCORRECT;
                        2839 --line1091
                        2840 ..lin.D.3A.5CRenesas_Electronics.5CD1x_RGL.5Crgl_ghs_D1Lx_obj_V1.2E2.2E0.5Cvlib.5Capp.5Cgfx_apps.5Csimple_draw_d1l2.5Ctarget.5Cd1lx_mango_ghs.5Cobj.5Cr_dev_clk.101::
                        2841 .LDWlin101:
0000082c 04ea           2842 	mov	4,r29
0000082e 80073601*      2843 	br	.L1423
                        2844 .L1425:
                        2845 --1092:     }
                        2846 --1093:     else if (freq > 240u)
                        2847 --line1093
                        2848 ..lin.D.3A.5CRenesas_Electronics.5CD1x_RGL.5Crgl_ghs_D1Lx_obj_V1.2E2.2E0.5Cvlib.5Capp.5Cgfx_apps.5Csimple_draw_d1l2.5Ctarget.5Cd1lx_mango_ghs.5Cobj.5Cr_dev_clk.102::
                        2849 .LDWlin102:
00000832 01060fff       2850 	addi	-241,r1,zero
00000836 f905*          2851 	bnl	.L1429
                        2852 --1094:     {
                        2853 --1095:         p_r = 1u;
                        2854 --line1095
                        2855 ..lin.D.3A.5CRenesas_Electronics.5CD1x_RGL.5Crgl_ghs_D1Lx_obj_V1.2E2.2E0.5Cvlib.5Capp.5Cgfx_apps.5Csimple_draw_d1l2.5Ctarget.5Cd1lx_mango_ghs.5Cobj.5Cr_dev_clk.103::
                        2856 .LDWlin103:
00000838 0172           2857 	mov	1,r14
                        2858 --1096:         PllCfgReg->P = 0;
0000083a 70e8           2859 	sld.hu	0[ep],r29
0000083c ddee7ffc       2860 	andi	64639,r29,r29
00000840 80ec           2861 	sst.h	r29,0[ep]
00000842 8545*          2862 	br	.L1428
                        2863 .L1429:
                        2864 --1097:     }
                        2865 --1098:     else if (freq > 120u)
                        2866 --line1098
                        2867 ..lin.D.3A.5CRenesas_Electronics.5CD1x_RGL.5Crgl_ghs_D1Lx_obj_V1.2E2.2E0.5Cvlib.5Capp.5Cgfx_apps.5Csimple_draw_d1l2.5Ctarget.5Cd1lx_mango_ghs.5Cobj.5Cr_dev_clk.104::
                        2868 .LDWlin104:
00000844 010687ff       2869 	addi	-121,r1,zero
00000848 a90d*          2870 	bnl	.L1432
                        2871 --1099:     {
                        2872 --1100:         p_r = 2;

                                                                      Page 49
                                                              C:\Users\YINGAO~1\AppData\Local\Temp\gh_00007041.si
                        2873 --line1100
                        2874 ..lin.D.3A.5CRenesas_Electronics.5CD1x_RGL.5Crgl_ghs_D1Lx_obj_V1.2E2.2E0.5Cvlib.5Capp.5Cgfx_apps.5Csimple_draw_d1l2.5Ctarget.5Cd1lx_mango_ghs.5Cobj.5Cr_dev_clk.105::
                        2875 .LDWlin105:
0000084a 0272           2876 	mov	2,r14
                        2877 --1101:         PllCfgReg->P = 1u;
0000084c 70e8           2878 	sld.hu	0[ep],r29
0000084e 20e67ffc       2879 	movea	-897,zero,r28
00000852 5ce9           2880 	and	r28,r29
00000854 9dee8000       2881 	ori	128,r29,r29
00000858 80ec           2882 	sst.h	r29,0[ep]
0000085a c535*          2883 	br	.L1428
                        2884 .L1432:
                        2885 --1102:     }
                        2886 --1103:     else if (freq > 60u)
                        2887 --line1103
                        2888 ..lin.D.3A.5CRenesas_Electronics.5CD1x_RGL.5Crgl_ghs_D1Lx_obj_V1.2E2.2E0.5Cvlib.5Capp.5Cgfx_apps.5Csimple_draw_d1l2.5Ctarget.5Cd1lx_mango_ghs.5Cobj.5Cr_dev_clk.106::
                        2889 .LDWlin106:
0000085c 0106c3ff       2890 	addi	-61,r1,zero
00000860 a90d*          2891 	bnl	.L1435
                        2892 --1104:     {
                        2893 --1105:         p_r = 4u;
                        2894 --line1105
                        2895 ..lin.D.3A.5CRenesas_Electronics.5CD1x_RGL.5Crgl_ghs_D1Lx_obj_V1.2E2.2E0.5Cvlib.5Capp.5Cgfx_apps.5Csimple_draw_d1l2.5Ctarget.5Cd1lx_mango_ghs.5Cobj.5Cr_dev_clk.107::
                        2896 .LDWlin107:
00000862 0472           2897 	mov	4,r14
                        2898 --1106:         PllCfgReg->P = 2u;
00000864 70e8           2899 	sld.hu	0[ep],r29
00000866 20e67ffc       2900 	movea	-897,zero,r28
0000086a 5ce9           2901 	and	r28,r29
0000086c 9dee0001       2902 	ori	256,r29,r29
00000870 80ec           2903 	sst.h	r29,0[ep]
00000872 852d*          2904 	br	.L1428
                        2905 .L1435:
                        2906 --1107:     }
                        2907 --1108:     else if (freq > 40u)
                        2908 --line1108
                        2909 ..lin.D.3A.5CRenesas_Electronics.5CD1x_RGL.5Crgl_ghs_D1Lx_obj_V1.2E2.2E0.5Cvlib.5Capp.5Cgfx_apps.5Csimple_draw_d1l2.5Ctarget.5Cd1lx_mango_ghs.5Cobj.5Cr_dev_clk.108::
                        2910 .LDWlin108:
00000874 0106d7ff       2911 	addi	-41,r1,zero
00000878 a90d*          2912 	bnl	.L1438
                        2913 --1109:     {
                        2914 --1110:         p_r = 6;
                        2915 --line1110
                        2916 ..lin.D.3A.5CRenesas_Electronics.5CD1x_RGL.5Crgl_ghs_D1Lx_obj_V1.2E2.2E0.5Cvlib.5Capp.5Cgfx_apps.5Csimple_draw_d1l2.5Ctarget.5Cd1lx_mango_ghs.5Cobj.5Cr_dev_clk.109::
                        2917 .LDWlin109:
0000087a 0672           2918 	mov	6,r14
                        2919 --1111:         PllCfgReg->P = 3u;
0000087c 70e8           2920 	sld.hu	0[ep],r29
0000087e 20e67ffc       2921 	movea	-897,zero,r28
00000882 5ce9           2922 	and	r28,r29
00000884 9dee8001       2923 	ori	384,r29,r29
00000888 80ec           2924 	sst.h	r29,0[ep]
0000088a c51d*          2925 	br	.L1428
                        2926 .L1438:
                        2927 --1112:     }
                        2928 --1113:     else if (freq > 30u)
                        2929 --line1113
                        2930 ..lin.D.3A.5CRenesas_Electronics.5CD1x_RGL.5Crgl_ghs_D1Lx_obj_V1.2E2.2E0.5Cvlib.5Capp.5Cgfx_apps.5Csimple_draw_d1l2.5Ctarget.5Cd1lx_mango_ghs.5Cobj.5Cr_dev_clk.110::
                        2931 .LDWlin110:
0000088c 0106e1ff       2932 	addi	-31,r1,zero
00000890 a90d*          2933 	bnl	.L1441

                                                                      Page 50
                                                              C:\Users\YINGAO~1\AppData\Local\Temp\gh_00007041.si
                        2934 --1114:     {
                        2935 --1115:         p_r = 8u;
                        2936 --line1115
                        2937 ..lin.D.3A.5CRenesas_Electronics.5CD1x_RGL.5Crgl_ghs_D1Lx_obj_V1.2E2.2E0.5Cvlib.5Capp.5Cgfx_apps.5Csimple_draw_d1l2.5Ctarget.5Cd1lx_mango_ghs.5Cobj.5Cr_dev_clk.111::
                        2938 .LDWlin111:
00000892 0872           2939 	mov	8,r14
                        2940 --1116:         PllCfgReg->P = 4u;
00000894 70e8           2941 	sld.hu	0[ep],r29
00000896 20e67ffc       2942 	movea	-897,zero,r28
0000089a 5ce9           2943 	and	r28,r29
0000089c 9dee0002       2944 	ori	512,r29,r29
000008a0 80ec           2945 	sst.h	r29,0[ep]
000008a2 8515*          2946 	br	.L1428
                        2947 .L1441:
                        2948 --1117:     }
                        2949 --1118:     else if (freq > 20u)
                        2950 --line1118
                        2951 ..lin.D.3A.5CRenesas_Electronics.5CD1x_RGL.5Crgl_ghs_D1Lx_obj_V1.2E2.2E0.5Cvlib.5Capp.5Cgfx_apps.5Csimple_draw_d1l2.5Ctarget.5Cd1lx_mango_ghs.5Cobj.5Cr_dev_clk.112::
                        2952 .LDWlin112:
000008a4 0106ebff       2953 	addi	-21,r1,zero
000008a8 b90d*          2954 	bnl	.L1444
                        2955 --1119:     {
                        2956 --1120:         p_r = 16u;
                        2957 --line1120
                        2958 ..lin.D.3A.5CRenesas_Electronics.5CD1x_RGL.5Crgl_ghs_D1Lx_obj_V1.2E2.2E0.5Cvlib.5Capp.5Cgfx_apps.5Csimple_draw_d1l2.5Ctarget.5Cd1lx_mango_ghs.5Cobj.5Cr_dev_clk.113::
                        2959 .LDWlin113:
000008aa 20761000       2960 	movea	16,zero,r14
                        2961 --1121:         PllCfgReg->P = 4u;
000008ae 70e8           2962 	sld.hu	0[ep],r29
000008b0 20e67ffc       2963 	movea	-897,zero,r28
000008b4 5ce9           2964 	and	r28,r29
000008b6 9dee0002       2965 	ori	512,r29,r29
000008ba 80ec           2966 	sst.h	r29,0[ep]
000008bc b505*          2967 	br	.L1428
                        2968 .L1444:
                        2969 --1122:     }
                        2970 --1123:     else
                        2971 --1124:     {
                        2972 --1125:         /* the desired frequency is not valid */
                        2973 --1126:         return R_PARAMETER_INCORRECT;
                        2974 --line1126
                        2975 ..lin.D.3A.5CRenesas_Electronics.5CD1x_RGL.5Crgl_ghs_D1Lx_obj_V1.2E2.2E0.5Cvlib.5Capp.5Cgfx_apps.5Csimple_draw_d1l2.5Ctarget.5Cd1lx_mango_ghs.5Cobj.5Cr_dev_clk.114::
                        2976 .LDWlin114:
000008be 04ea           2977 	mov	4,r29
000008c0 a555*          2978 	br	.L1423
                        2979 .L1428:
                        2980 --1127:     }
                        2981 --1129:     if (24u == FrqIn)
                        2982 --line1129
                        2983 ..lin.D.3A.5CRenesas_Electronics.5CD1x_RGL.5Crgl_ghs_D1Lx_obj_V1.2E2.2E0.5Cvlib.5Capp.5Cgfx_apps.5Csimple_draw_d1l2.5Ctarget.5Cd1lx_mango_ghs.5Cobj.5Cr_dev_clk.115::
                        2984 .LDWlin115:
000008c2 0b06e8ff       2985 	addi	-24,r11,zero
000008c6 ba05*          2986 	bne	.L1448
                        2987 --1130:     {
                        2988 --1131:        m_r = 3u;
                        2989 --line1131
                        2990 ..lin.D.3A.5CRenesas_Electronics.5CD1x_RGL.5Crgl_ghs_D1Lx_obj_V1.2E2.2E0.5Cvlib.5Capp.5Cgfx_apps.5Csimple_draw_d1l2.5Ctarget.5Cd1lx_mango_ghs.5Cobj.5Cr_dev_clk.116::
                        2991 .LDWlin116:
000008c8 0362           2992 	mov	3,r12
000008ca c50d*          2993 	br	.L1450
                        2994 .L1448:

                                                                      Page 51
                                                              C:\Users\YINGAO~1\AppData\Local\Temp\gh_00007041.si
                        2995 --1132:     }
                        2996 --1133:     else if (16u <= FrqIn)
                        2997 --line1133
                        2998 ..lin.D.3A.5CRenesas_Electronics.5CD1x_RGL.5Crgl_ghs_D1Lx_obj_V1.2E2.2E0.5Cvlib.5Capp.5Cgfx_apps.5Csimple_draw_d1l2.5Ctarget.5Cd1lx_mango_ghs.5Cobj.5Cr_dev_clk.117::
                        2999 .LDWlin117:
000008cc 0b06f0ff       3000 	addi	-16,r11,zero
000008d0 b905*          3001 	bnl	.L1451
                        3002 --1134:     {
                        3003 --1135:        m_r = 2u;
                        3004 --line1135
                        3005 ..lin.D.3A.5CRenesas_Electronics.5CD1x_RGL.5Crgl_ghs_D1Lx_obj_V1.2E2.2E0.5Cvlib.5Capp.5Cgfx_apps.5Csimple_draw_d1l2.5Ctarget.5Cd1lx_mango_ghs.5Cobj.5Cr_dev_clk.118::
                        3006 .LDWlin118:
000008d2 0262           3007 	mov	2,r12
000008d4 f505*          3008 	br	.L1450
                        3009 .L1451:
                        3010 --1136:     }
                        3011 --1137:     else if  (8u <= FrqIn)
                        3012 --line1137
                        3013 ..lin.D.3A.5CRenesas_Electronics.5CD1x_RGL.5Crgl_ghs_D1Lx_obj_V1.2E2.2E0.5Cvlib.5Capp.5Cgfx_apps.5Csimple_draw_d1l2.5Ctarget.5Cd1lx_mango_ghs.5Cobj.5Cr_dev_clk.119::
                        3014 .LDWlin119:
000008d6 685a           3015 	cmp	8,r11
000008d8 b105*          3016 	bl	.L1454
                        3017 --1138:     {
                        3018 --1139:        m_r = 1u;
                        3019 --line1139
                        3020 ..lin.D.3A.5CRenesas_Electronics.5CD1x_RGL.5Crgl_ghs_D1Lx_obj_V1.2E2.2E0.5Cvlib.5Capp.5Cgfx_apps.5Csimple_draw_d1l2.5Ctarget.5Cd1lx_mango_ghs.5Cobj.5Cr_dev_clk.120::
                        3021 .LDWlin120:
000008da 0162           3022 	mov	1,r12
000008dc b505*          3023 	br	.L1450
                        3024 .L1454:
                        3025 --1140:     }
                        3026 --1141:     else
                        3027 --1142:     {
                        3028 --1143:         /* the input frequency is not valid */
                        3029 --1144:         return R_PARAMETER_INCORRECT;
                        3030 --line1144
                        3031 ..lin.D.3A.5CRenesas_Electronics.5CD1x_RGL.5Crgl_ghs_D1Lx_obj_V1.2E2.2E0.5Cvlib.5Capp.5Cgfx_apps.5Csimple_draw_d1l2.5Ctarget.5Cd1lx_mango_ghs.5Cobj.5Cr_dev_clk.121::
                        3032 .LDWlin121:
000008de 04ea           3033 	mov	4,r29
000008e0 a545*          3034 	br	.L1423
                        3035 .L1450:
                        3036 --1145:     }
                        3037 --1147:     n_r = (freq * m_r * p_r)/FrqIn;
                        3038 --line1147
                        3039 ..lin.D.3A.5CRenesas_Electronics.5CD1x_RGL.5Crgl_ghs_D1Lx_obj_V1.2E2.2E0.5Cvlib.5Capp.5Cgfx_apps.5Csimple_draw_d1l2.5Ctarget.5Cd1lx_mango_ghs.5Cobj.5Cr_dev_clk.122::
                        3040 .LDWlin122:
000008e2 01e8           3041 	mov	r1,r29
000008e4 ecef2202       3042 	mulu	r12,r29,zero
000008e8 eeef2202       3043 	mulu	r14,r29,zero
000008ec 1d68           3044 	mov	r29,r13
000008ee eb6ffe02       3045 	divqu	r11,r13,zero
                        3046 --1149:     /* do we have a valid parameter */
                        3047 --1150:     if ((n_r > 19) && (n_r < 61) )
000008f2 0d06ecff       3048 	addi	-20,r13,zero
000008f6 f925*          3049 	bnl	.L1458
000008f8 0d06c3ff       3050 	addi	-61,r13,zero
000008fc c125*          3051 	bl	.L1458
                        3052 --1151:     {
                        3053 --1152:         *FrqOut       = (FrqIn * n_r)/(m_r * p_r);
                        3054 --line1152
                        3055 ..lin.D.3A.5CRenesas_Electronics.5CD1x_RGL.5Crgl_ghs_D1Lx_obj_V1.2E2.2E0.5Cvlib.5Capp.5Cgfx_apps.5Csimple_draw_d1l2.5Ctarget.5Cd1lx_mango_ghs.5Cobj.5Cr_dev_clk.123::

                                                                      Page 52
                                                              C:\Users\YINGAO~1\AppData\Local\Temp\gh_00007041.si
                        3056 .LDWlin123:
000008fe 0be8           3057 	mov	r11,r29
00000900 0cd8           3058 	mov	r12,r27
00000902 edef2202       3059 	mulu	r13,r29,zero
00000906 eedf2202       3060 	mulu	r14,r27,zero
0000090a fbeffe02       3061 	divqu	r27,r29,zero
0000090e 69ef0100       3062 	st.w	r29,0[r9]
                        3063 --1153:         PllCfgReg->NI = (uint8_t) n_r - 1u;
00000912 0de8           3064 	mov	r13,r29
00000914 9d00           3065 	zxb	r29
00000916 1de6ffff       3066 	addi	-1,r29,r28
0000091a 60e8           3067 	sld.bu	0[ep],r29
0000091c dce67f00       3068 	andi	127,r28,r28
00000920 ddee8000       3069 	andi	128,r29,r29
00000924 1ce9           3070 	or	r28,r29
00000926 80eb           3071 	sst.b	r29,0[ep]
                        3072 --1154:         PllCfgReg->M  = (uint8_t) m_r - 1u;
00000928 0ce8           3073 	mov	r12,r29
0000092a 9d00           3074 	zxb	r29
0000092c 1de6ffff       3075 	addi	-1,r29,r28
00000930 61e8           3076 	sld.bu	1[ep],r29
00000932 dce60300       3077 	andi	3,r28,r28
00000936 c2e2           3078 	shl	2,r28
00000938 ddeef300       3079 	andi	243,r29,r29
0000093c 1ce9           3080 	or	r28,r29
0000093e 81eb           3081 	sst.b	r29,1[ep]
                        3082 --1156:         retval        = R_ERR_OK;
00000940 0052           3083 	mov	0,r10
00000942 8515*          3084 	br	.L1461
                        3085 .L1458:
                        3086 --1157:     }
                        3087 --1158:     else
                        3088 --1159:     {
                        3089 --1160:         *FrqOut       = 0;
                        3090 --line1160
                        3091 ..lin.D.3A.5CRenesas_Electronics.5CD1x_RGL.5Crgl_ghs_D1Lx_obj_V1.2E2.2E0.5Cvlib.5Capp.5Cgfx_apps.5Csimple_draw_d1l2.5Ctarget.5Cd1lx_mango_ghs.5Cobj.5Cr_dev_clk.124::
                        3092 .LDWlin124:
00000944 69070100       3093 	st.w	zero,0[r9]
                        3094 --1161:         PllCfgReg->NI = 0;
00000948 60e8           3095 	sld.bu	0[ep],r29
0000094a ddee8000       3096 	andi	128,r29,r29
0000094e 80eb           3097 	sst.b	r29,0[ep]
                        3098 --1162:         PllCfgReg->M  = 0;
00000950 61e8           3099 	sld.bu	1[ep],r29
00000952 ddeef300       3100 	andi	243,r29,r29
00000956 81eb           3101 	sst.b	r29,1[ep]
                        3102 --1163:         PllCfgReg->P  = 0;
00000958 70e8           3103 	sld.hu	0[ep],r29
0000095a ddee7ffc       3104 	andi	64639,r29,r29
0000095e 80ec           3105 	sst.h	r29,0[ep]
                        3106 --1164:         retval        = R_PARAMETER_INCORRECT;
00000960 0452           3107 	mov	4,r10
                        3108 .L1461:
                        3109 --1165:     }
                        3110 --1166:     return retval;
00000962 0ae8           3111 	mov	r10,r29
                        3112 .L1423:
                        3113 --	    .ef
                        3114 .LDW62:
00000964 1d50           3115 	mov	r29,r10
00000966 4006df10       3116 	dispose	0,{r27,r28,r29},[lp]

                                                                      Page 53
                                                              C:\Users\YINGAO~1\AppData\Local\Temp\gh_00007041.si
                        3117 	.type	_loc_CalcFreqPll2,@function
                        3118 	.size	_loc_CalcFreqPll2,.-_loc_CalcFreqPll2
                        3119 	.type	_loc_CalcFreqPll2..D.3A.5CRenesas_Electronics.5CD1x_RGL.5Crgl_ghs_D1Lx_obj_V1.2E2.2E0.5Cvlib.5Capp.5Cgfx_apps.5Csimple_draw_d1l2.5Ctarget.5Cd1lx_mango_ghs.5Cobj.5Cr_dev_clk.,@function
                        3120 	.size	_loc_CalcFreqPll2..D.3A.5CRenesas_Electronics.5CD1x_RGL.5Crgl_ghs_D1Lx_obj_V1.2E2.2E0.5Cvlib.5Capp.5Cgfx_apps.5Csimple_draw_d1l2.5Ctarget.5Cd1lx_mango_ghs.5Cobj.5Cr_dev_clk.,.-_loc_CalcFreqPll2..D.3A.5CRenesas_Electronics.5CD1x_RGL.5Crgl_ghs_D1Lx_obj_V1.2E2.2E0.5Cvlib.5Capp.5Cgfx_apps.5Csimple_draw_d1l2.5Ctarget.5Cd1lx_mango_ghs.5Cobj.5Cr_dev_clk.
                        3121 	.align	2
                        3122 .LDW72:
                        3123 --_p_r	r14	local
                        3124 --_m_r	r12	local
                        3125 --_n_r	r13	local
                        3126 --_freq	r1	local
                        3127 --_retval	r10	local
                        3128 
                        3129 --_FrqIn	r11	param
                        3130 --_PllCfgReg	ep	param
                        3131 --_FrqOut	r9	param
                        3132 
                        3133 	.section ".bss","awb"
                        3134 .L1578:
                        3135 	.type	.L1578,@object
                        3136 	.size	.L1578,0
                        3137 	.data
                        3138 	.text
                        3139 
                        3140 --1167: }
                        3141 
                        3142 --1170: /*******************************************************************************
                        3143 --1171:   Function: loc_SrcFrequencyHz
                        3144 --1173:     Get the frequency setting for the given source
                        3145 --1174: */
                        3146 --1177: static uint32_t loc_SrcFrequencyHz(r_dev_CksSrc_t ClkSrc)
                        3147 	.align	2
                        3148 	.align	2
                        3149 	.global	_loc_SrcFrequencyHz..D.3A.5CRenesas_Electronics.5CD1x_RGL.5Crgl_ghs_D1Lx_obj_V1.2E2.2E0.5Cvlib.5Capp.5Cgfx_apps.5Csimple_draw_d1l2.5Ctarget.5Cd1lx_mango_ghs.5Cobj.5Cr_dev_clk.
                        3150 _loc_SrcFrequencyHz..D.3A.5CRenesas_Electronics.5CD1x_RGL.5Crgl_ghs_D1Lx_obj_V1.2E2.2E0.5Cvlib.5Capp.5Cgfx_apps.5Csimple_draw_d1l2.5Ctarget.5Cd1lx_mango_ghs.5Cobj.5Cr_dev_clk.:
                        3151 _loc_SrcFrequencyHz:
0000096a 8007e110       3152 	prepare	{r27,r28,r29,r31},0
0000096e 06d8           3153 	mov	r6,r27
00000970 210600000000*  3154 	mov	_loc_Vdce0ViFreq,r1
00000976 3c0600000000*  3155 	mov	_loc_ClkGenCfg,r28
                        3156 --	    .bf
                        3157 .LDW82:
                        3158 --1178: {
                        3159 --1179:     uint32_t freq    = 0;
0000097c 00ea           3160 	mov	0,r29
                        3161 --1180:     switch (ClkSrc)
0000097e 1b70           3162 	mov	r27,r14
00000980 0e06deff       3163 	addi	-34,r14,zero
00000984 e107b102*      3164 	bl	.L1805
00000988 c272           3165 	shl	2,r14
0000098a ee0600000000*  3166 	jmp	.L2001[r14]
                        3167 .L2001:
00000990 80078800*      3168 	jr	.L1741
00000994 80078a00*      3169 	jr	.L1742
00000998 80079000*      3170 	jr	.L1743
0000099c 80079600*      3171 	jr	.L1744
000009a0 8007ae00*      3172 	jr	.L1748
000009a4 8007c200*      3173 	jr	.L1752
000009a8 8007d400*      3174 	jr	.L1756
000009ac 8007e600*      3175 	jr	.L1760
000009b0 8007fc00*      3176 	jr	.L1764
000009b4 80071201*      3177 	jr	.L1768

                                                                      Page 54
                                                              C:\Users\YINGAO~1\AppData\Local\Temp\gh_00007041.si
000009b8 80072401*      3178 	jr	.L1772
000009bc 80073a01*      3179 	jr	.L1776
000009c0 80074c01*      3180 	jr	.L1780
000009c4 80076201*      3181 	jr	.L1784
000009c8 80076c01*      3182 	jr	.L1785
000009cc 80077201*      3183 	jr	.L1786
000009d0 80077a01*      3184 	jr	.L1787
000009d4 80078201*      3185 	jr	.L1788
000009d8 80078c01*      3186 	jr	.L1789
000009dc 80079601*      3187 	jr	.L1790
000009e0 8007a001*      3188 	jr	.L1791
000009e4 8007ba01*      3189 	jr	.L1793
000009e8 8007c801*      3190 	jr	.L1794
000009ec 8007ce01*      3191 	jr	.L1795
000009f0 80079c01*      3192 	jr	.L1792
000009f4 8007d601*      3193 	jr	.L1796
000009f8 8007de01*      3194 	jr	.L1797
000009fc 8007e801*      3195 	jr	.L1798
00000a00 8007f001*      3196 	jr	.L1799
00000a04 8007fa01*      3197 	jr	.L1800
00000a08 80070202*      3198 	jr	.L1801
00000a0c 80070a02*      3199 	jr	.L1802
00000a10 80070c02*      3200 	jr	.L1803
00000a14 80071402*      3201 	jr	.L1804
                        3202 .L1741:
                        3203 --1181:     {
                        3204 --1182:         case R_DEV_CKS_SRC_DISABLED :
                        3205 --1183:             freq = 0;
                        3206 --line1183
                        3207 ..lin.D.3A.5CRenesas_Electronics.5CD1x_RGL.5Crgl_ghs_D1Lx_obj_V1.2E2.2E0.5Cvlib.5Capp.5Cgfx_apps.5Csimple_draw_d1l2.5Ctarget.5Cd1lx_mango_ghs.5Cobj.5Cr_dev_clk.125::
                        3208 .LDWlin125:
00000a18 00ea           3209 	mov	0,r29
00000a1a 80071e02*      3210 	br	.L1739
                        3211 .L1742:
                        3212 --1184:             break;
                        3213 --1185:         case R_DEV_CKS_SRC_LRNG     :
                        3214 --1186:             freq = LOC_LOWS_FRQ_HZ;
                        3215 --line1186
                        3216 ..lin.D.3A.5CRenesas_Electronics.5CD1x_RGL.5Crgl_ghs_D1Lx_obj_V1.2E2.2E0.5Cvlib.5Capp.5Cgfx_apps.5Csimple_draw_d1l2.5Ctarget.5Cd1lx_mango_ghs.5Cobj.5Cr_dev_clk.126::
                        3217 .LDWlin126:
00000a1e 3d0680a90300   3218 	mov	240000,r29
00000a24 80071402*      3219 	br	.L1739
                        3220 .L1743:
                        3221 --1187:             break;
                        3222 --1188:         case R_DEV_CKS_SRC_HRING    :
                        3223 --1189:             freq = LOC_HIGHS_FRQ_HZ;
                        3224 --line1189
                        3225 ..lin.D.3A.5CRenesas_Electronics.5CD1x_RGL.5Crgl_ghs_D1Lx_obj_V1.2E2.2E0.5Cvlib.5Capp.5Cgfx_apps.5Csimple_draw_d1l2.5Ctarget.5Cd1lx_mango_ghs.5Cobj.5Cr_dev_clk.127::
                        3226 .LDWlin127:
00000a28 3d0600127a00   3227 	mov	8000000,r29
00000a2e 80070a02*      3228 	br	.L1739
                        3229 .L1744:
                        3230 --1190:             break;
                        3231 --1191:         case R_DEV_CKS_SRC_ERING    :
                        3232 --1192:            /* select the right OSC */
                        3233 --1193:             if (0 != R_DEV_ClkGenActive(R_DEV_HS_RING))
                        3234 --line1193
                        3235 ..lin.D.3A.5CRenesas_Electronics.5CD1x_RGL.5Crgl_ghs_D1Lx_obj_V1.2E2.2E0.5Cvlib.5Capp.5Cgfx_apps.5Csimple_draw_d1l2.5Ctarget.5Cd1lx_mango_ghs.5Cobj.5Cr_dev_clk.128::
                        3236 .LDWlin128:
00000a32 0332           3237 	mov	3,r6
                        3238 	jarl	_R_DEV_ClkGenActive,lp

                                                                      Page 55
                                                              C:\Users\YINGAO~1\AppData\Local\Temp\gh_00007041.si
                        3238 <EXPANSION BEGIN>
                        3238 jarl22 _R_DEV_ClkGenActive , lp 
00000a34 80ff0a02*      3238 <EXPANSION END>
00000a38 e051           3239 	cmp	zero,r10
00000a3a d205*          3240 	be	.L1745
                        3241 --1194:             {
                        3242 --1195:                 freq = LOC_HIGHS_FRQ_HZ;
                        3243 --line1195
                        3244 ..lin.D.3A.5CRenesas_Electronics.5CD1x_RGL.5Crgl_ghs_D1Lx_obj_V1.2E2.2E0.5Cvlib.5Capp.5Cgfx_apps.5Csimple_draw_d1l2.5Ctarget.5Cd1lx_mango_ghs.5Cobj.5Cr_dev_clk.129::
                        3245 .LDWlin129:
00000a3c 3d0600127a00   3246 	mov	8000000,r29
00000a42 c505*          3247 	br	.L1747
                        3248 .L1745:
                        3249 --1196:             }
                        3250 --1197:             else
                        3251 --1198:             {
                        3252 --1199:                  freq = LOC_LOWS_FRQ_HZ;
                        3253 --line1199
                        3254 ..lin.D.3A.5CRenesas_Electronics.5CD1x_RGL.5Crgl_ghs_D1Lx_obj_V1.2E2.2E0.5Cvlib.5Capp.5Cgfx_apps.5Csimple_draw_d1l2.5Ctarget.5Cd1lx_mango_ghs.5Cobj.5Cr_dev_clk.130::
                        3255 .LDWlin130:
00000a44 3d0680a90300   3256 	mov	240000,r29
                        3257 .L1747:
00000a4a 8007ee01*      3258 	br	.L1739
                        3259 .L1748:
                        3260 --1200:             }
                        3261 --1201:             break;
                        3262 --1202:         case R_DEV_CKS_SRC_MOSC     :
                        3263 --1203:             if (0 != R_DEV_ClkGenActive(R_DEV_MOSC))
                        3264 --line1203
                        3265 ..lin.D.3A.5CRenesas_Electronics.5CD1x_RGL.5Crgl_ghs_D1Lx_obj_V1.2E2.2E0.5Cvlib.5Capp.5Cgfx_apps.5Csimple_draw_d1l2.5Ctarget.5Cd1lx_mango_ghs.5Cobj.5Cr_dev_clk.131::
                        3266 .LDWlin131:
00000a4e 0432           3267 	mov	4,r6
                        3268 	jarl	_R_DEV_ClkGenActive,lp
                        3268 <EXPANSION BEGIN>
                        3268 jarl22 _R_DEV_ClkGenActive , lp 
00000a50 80ffee01*      3268 <EXPANSION END>
00000a54 e051           3269 	cmp	zero,r10
00000a56 d205*          3270 	be	.L1749
                        3271 --1204:             {
                        3272 --1205:                 freq = R_DEV_MOSC_FRQ_HZ;
                        3273 --line1205
                        3274 ..lin.D.3A.5CRenesas_Electronics.5CD1x_RGL.5Crgl_ghs_D1Lx_obj_V1.2E2.2E0.5Cvlib.5Capp.5Cgfx_apps.5Csimple_draw_d1l2.5Ctarget.5Cd1lx_mango_ghs.5Cobj.5Cr_dev_clk.132::
                        3275 .LDWlin132:
00000a58 3d0600127a00   3276 	mov	8000000,r29
00000a5e a505*          3277 	br	.L1751
                        3278 .L1749:
                        3279 --1206:             }
                        3280 --1207:             else
                        3281 --1208:             {
                        3282 --1209:                 freq = 0;
                        3283 --line1209
                        3284 ..lin.D.3A.5CRenesas_Electronics.5CD1x_RGL.5Crgl_ghs_D1Lx_obj_V1.2E2.2E0.5Cvlib.5Capp.5Cgfx_apps.5Csimple_draw_d1l2.5Ctarget.5Cd1lx_mango_ghs.5Cobj.5Cr_dev_clk.133::
                        3285 .LDWlin133:
00000a60 00ea           3286 	mov	0,r29
                        3287 .L1751:
00000a62 8007d601*      3288 	br	.L1739
                        3289 .L1752:
                        3290 --1210:             }
                        3291 --1211:             break;
                        3292 --1212:         case R_DEV_CKS_SRC_SOSC     :
                        3293 --1213:             if (0 != R_DEV_ClkGenActive(R_DEV_SOSC))

                                                                      Page 56
                                                              C:\Users\YINGAO~1\AppData\Local\Temp\gh_00007041.si
                        3294 --line1213
                        3295 ..lin.D.3A.5CRenesas_Electronics.5CD1x_RGL.5Crgl_ghs_D1Lx_obj_V1.2E2.2E0.5Cvlib.5Capp.5Cgfx_apps.5Csimple_draw_d1l2.5Ctarget.5Cd1lx_mango_ghs.5Cobj.5Cr_dev_clk.134::
                        3296 .LDWlin134:
00000a66 0532           3297 	mov	5,r6
                        3298 	jarl	_R_DEV_ClkGenActive,lp
                        3298 <EXPANSION BEGIN>
                        3298 jarl22 _R_DEV_ClkGenActive , lp 
00000a68 80ffd601*      3298 <EXPANSION END>
00000a6c e051           3299 	cmp	zero,r10
00000a6e c205*          3300 	be	.L1753
                        3301 --1214:             {
                        3302 --1215:                 freq = loc_ClkGenCfg.SubOsc.FrequencyHz;
                        3303 --line1215
                        3304 ..lin.D.3A.5CRenesas_Electronics.5CD1x_RGL.5Crgl_ghs_D1Lx_obj_V1.2E2.2E0.5Cvlib.5Capp.5Cgfx_apps.5Csimple_draw_d1l2.5Ctarget.5Cd1lx_mango_ghs.5Cobj.5Cr_dev_clk.135::
                        3305 .LDWlin135:
00000a70 3cef0d00       3306 	ld.w	12[r28],r29
00000a74 a505*          3307 	br	.L1755
                        3308 .L1753:
                        3309 --1216:             }
                        3310 --1217:             else
                        3311 --1218:             {
                        3312 --1219:                 freq = 0;
                        3313 --line1219
                        3314 ..lin.D.3A.5CRenesas_Electronics.5CD1x_RGL.5Crgl_ghs_D1Lx_obj_V1.2E2.2E0.5Cvlib.5Capp.5Cgfx_apps.5Csimple_draw_d1l2.5Ctarget.5Cd1lx_mango_ghs.5Cobj.5Cr_dev_clk.136::
                        3315 .LDWlin136:
00000a76 00ea           3316 	mov	0,r29
                        3317 .L1755:
00000a78 8007c001*      3318 	br	.L1739
                        3319 .L1756:
                        3320 --1220:             }
                        3321 --1221:             break;
                        3322 --1222:         case R_DEV_CKS_SRC_PLL0     :
                        3323 --1223:             if (0 != R_DEV_ClkGenActive(R_DEV_PLL0))
                        3324 --line1223
                        3325 ..lin.D.3A.5CRenesas_Electronics.5CD1x_RGL.5Crgl_ghs_D1Lx_obj_V1.2E2.2E0.5Cvlib.5Capp.5Cgfx_apps.5Csimple_draw_d1l2.5Ctarget.5Cd1lx_mango_ghs.5Cobj.5Cr_dev_clk.137::
                        3326 .LDWlin137:
00000a7c 0032           3327 	mov	0,r6
                        3328 	jarl	_R_DEV_ClkGenActive,lp
                        3328 <EXPANSION BEGIN>
                        3328 jarl22 _R_DEV_ClkGenActive , lp 
00000a7e 80ffc001*      3328 <EXPANSION END>
00000a82 e051           3329 	cmp	zero,r10
00000a84 c205*          3330 	be	.L1757
                        3331 --1224:             {
                        3332 --1225:                 freq = loc_ClkGenCfg.Pll[0].FrequencyHz;
                        3333 --line1225
                        3334 ..lin.D.3A.5CRenesas_Electronics.5CD1x_RGL.5Crgl_ghs_D1Lx_obj_V1.2E2.2E0.5Cvlib.5Capp.5Cgfx_apps.5Csimple_draw_d1l2.5Ctarget.5Cd1lx_mango_ghs.5Cobj.5Cr_dev_clk.138::
                        3335 .LDWlin138:
00000a86 3cef2500       3336 	ld.w	36[r28],r29
00000a8a a505*          3337 	br	.L1759
                        3338 .L1757:
                        3339 --1226:             }
                        3340 --1227:             else
                        3341 --1228:             {
                        3342 --1229:                 freq = 0;
                        3343 --line1229
                        3344 ..lin.D.3A.5CRenesas_Electronics.5CD1x_RGL.5Crgl_ghs_D1Lx_obj_V1.2E2.2E0.5Cvlib.5Capp.5Cgfx_apps.5Csimple_draw_d1l2.5Ctarget.5Cd1lx_mango_ghs.5Cobj.5Cr_dev_clk.139::
                        3345 .LDWlin139:
00000a8c 00ea           3346 	mov	0,r29
                        3347 .L1759:
00000a8e 8007aa01*      3348 	br	.L1739

                                                                      Page 57
                                                              C:\Users\YINGAO~1\AppData\Local\Temp\gh_00007041.si
                        3349 .L1760:
                        3350 --1230:             }
                        3351 --1231:             break;
                        3352 --1232:         case R_DEV_CKS_SRC_PLL0_2   :
                        3353 --1233:             if (0 != R_DEV_ClkGenActive(R_DEV_PLL0))
                        3354 --line1233
                        3355 ..lin.D.3A.5CRenesas_Electronics.5CD1x_RGL.5Crgl_ghs_D1Lx_obj_V1.2E2.2E0.5Cvlib.5Capp.5Cgfx_apps.5Csimple_draw_d1l2.5Ctarget.5Cd1lx_mango_ghs.5Cobj.5Cr_dev_clk.140::
                        3356 .LDWlin140:
00000a92 0032           3357 	mov	0,r6
                        3358 	jarl	_R_DEV_ClkGenActive,lp
                        3358 <EXPANSION BEGIN>
                        3358 jarl22 _R_DEV_ClkGenActive , lp 
00000a94 80ffaa01*      3358 <EXPANSION END>
00000a98 e051           3359 	cmp	zero,r10
00000a9a e205*          3360 	be	.L1761
                        3361 --1234:             {
                        3362 --1235:                 freq = loc_ClkGenCfg.Pll[0].FrequencyHz / 2;
                        3363 --line1235
                        3364 ..lin.D.3A.5CRenesas_Electronics.5CD1x_RGL.5Crgl_ghs_D1Lx_obj_V1.2E2.2E0.5Cvlib.5Capp.5Cgfx_apps.5Csimple_draw_d1l2.5Ctarget.5Cd1lx_mango_ghs.5Cobj.5Cr_dev_clk.141::
                        3365 .LDWlin141:
00000a9c 3c0f2500       3366 	ld.w	36[r28],r1
00000aa0 01e8           3367 	mov	r1,r29
00000aa2 81ea           3368 	shr	1,r29
00000aa4 a505*          3369 	br	.L1763
                        3370 .L1761:
                        3371 --1236:             }
                        3372 --1237:             else
                        3373 --1238:             {
                        3374 --1239:                 freq = 0;
                        3375 --line1239
                        3376 ..lin.D.3A.5CRenesas_Electronics.5CD1x_RGL.5Crgl_ghs_D1Lx_obj_V1.2E2.2E0.5Cvlib.5Capp.5Cgfx_apps.5Csimple_draw_d1l2.5Ctarget.5Cd1lx_mango_ghs.5Cobj.5Cr_dev_clk.142::
                        3377 .LDWlin142:
00000aa6 00ea           3378 	mov	0,r29
                        3379 .L1763:
00000aa8 80079001*      3380 	br	.L1739
                        3381 .L1764:
                        3382 --1240:             }
                        3383 --1241:             break;
                        3384 --1242:         case R_DEV_CKS_SRC_PLL0_4   :
                        3385 --1243:             if (0 != R_DEV_ClkGenActive(R_DEV_PLL0))
                        3386 --line1243
                        3387 ..lin.D.3A.5CRenesas_Electronics.5CD1x_RGL.5Crgl_ghs_D1Lx_obj_V1.2E2.2E0.5Cvlib.5Capp.5Cgfx_apps.5Csimple_draw_d1l2.5Ctarget.5Cd1lx_mango_ghs.5Cobj.5Cr_dev_clk.143::
                        3388 .LDWlin143:
00000aac 0032           3389 	mov	0,r6
                        3390 	jarl	_R_DEV_ClkGenActive,lp
                        3390 <EXPANSION BEGIN>
                        3390 jarl22 _R_DEV_ClkGenActive , lp 
00000aae 80ff9001*      3390 <EXPANSION END>
00000ab2 e051           3391 	cmp	zero,r10
00000ab4 e205*          3392 	be	.L1765
                        3393 --1244:             {
                        3394 --1245:                 freq = loc_ClkGenCfg.Pll[0].FrequencyHz / 4;
                        3395 --line1245
                        3396 ..lin.D.3A.5CRenesas_Electronics.5CD1x_RGL.5Crgl_ghs_D1Lx_obj_V1.2E2.2E0.5Cvlib.5Capp.5Cgfx_apps.5Csimple_draw_d1l2.5Ctarget.5Cd1lx_mango_ghs.5Cobj.5Cr_dev_clk.144::
                        3397 .LDWlin144:
00000ab6 3c0f2500       3398 	ld.w	36[r28],r1
00000aba 01e8           3399 	mov	r1,r29
00000abc 82ea           3400 	shr	2,r29
00000abe a505*          3401 	br	.L1767
                        3402 .L1765:
                        3403 --1246:             }

                                                                      Page 58
                                                              C:\Users\YINGAO~1\AppData\Local\Temp\gh_00007041.si
                        3404 --1247:             else
                        3405 --1248:             {
                        3406 --1249:                 freq = 0;
                        3407 --line1249
                        3408 ..lin.D.3A.5CRenesas_Electronics.5CD1x_RGL.5Crgl_ghs_D1Lx_obj_V1.2E2.2E0.5Cvlib.5Capp.5Cgfx_apps.5Csimple_draw_d1l2.5Ctarget.5Cd1lx_mango_ghs.5Cobj.5Cr_dev_clk.145::
                        3409 .LDWlin145:
00000ac0 00ea           3410 	mov	0,r29
                        3411 .L1767:
00000ac2 80077601*      3412 	br	.L1739
                        3413 .L1768:
                        3414 --1250:             }
                        3415 --1251:             break;
                        3416 --1252:         case R_DEV_CKS_SRC_PLL1     :
                        3417 --1253:             if (0 != R_DEV_ClkGenActive(R_DEV_PLL1))
                        3418 --line1253
                        3419 ..lin.D.3A.5CRenesas_Electronics.5CD1x_RGL.5Crgl_ghs_D1Lx_obj_V1.2E2.2E0.5Cvlib.5Capp.5Cgfx_apps.5Csimple_draw_d1l2.5Ctarget.5Cd1lx_mango_ghs.5Cobj.5Cr_dev_clk.146::
                        3420 .LDWlin146:
00000ac6 0132           3421 	mov	1,r6
                        3422 	jarl	_R_DEV_ClkGenActive,lp
                        3422 <EXPANSION BEGIN>
                        3422 jarl22 _R_DEV_ClkGenActive , lp 
00000ac8 80ff7601*      3422 <EXPANSION END>
00000acc e051           3423 	cmp	zero,r10
00000ace c205*          3424 	be	.L1769
                        3425 --1254:             {
                        3426 --1255:                 freq = loc_ClkGenCfg.Pll[1].FrequencyHz / 1;
                        3427 --line1255
                        3428 ..lin.D.3A.5CRenesas_Electronics.5CD1x_RGL.5Crgl_ghs_D1Lx_obj_V1.2E2.2E0.5Cvlib.5Capp.5Cgfx_apps.5Csimple_draw_d1l2.5Ctarget.5Cd1lx_mango_ghs.5Cobj.5Cr_dev_clk.147::
                        3429 .LDWlin147:
00000ad0 3cef4100       3430 	ld.w	64[r28],r29
00000ad4 a505*          3431 	br	.L1771
                        3432 .L1769:
                        3433 --1256:             }
                        3434 --1257:             else
                        3435 --1258:             {
                        3436 --1259:                 freq = 0;
                        3437 --line1259
                        3438 ..lin.D.3A.5CRenesas_Electronics.5CD1x_RGL.5Crgl_ghs_D1Lx_obj_V1.2E2.2E0.5Cvlib.5Capp.5Cgfx_apps.5Csimple_draw_d1l2.5Ctarget.5Cd1lx_mango_ghs.5Cobj.5Cr_dev_clk.148::
                        3439 .LDWlin148:
00000ad6 00ea           3440 	mov	0,r29
                        3441 .L1771:
00000ad8 80076001*      3442 	br	.L1739
                        3443 .L1772:
                        3444 --1260:             }
                        3445 --1261:             break;
                        3446 --1262:         case R_DEV_CKS_SRC_PLL1_4   :
                        3447 --1263:             if (0 != R_DEV_ClkGenActive(R_DEV_PLL1))
                        3448 --line1263
                        3449 ..lin.D.3A.5CRenesas_Electronics.5CD1x_RGL.5Crgl_ghs_D1Lx_obj_V1.2E2.2E0.5Cvlib.5Capp.5Cgfx_apps.5Csimple_draw_d1l2.5Ctarget.5Cd1lx_mango_ghs.5Cobj.5Cr_dev_clk.149::
                        3450 .LDWlin149:
00000adc 0132           3451 	mov	1,r6
                        3452 	jarl	_R_DEV_ClkGenActive,lp
                        3452 <EXPANSION BEGIN>
                        3452 jarl22 _R_DEV_ClkGenActive , lp 
00000ade 80ff6001*      3452 <EXPANSION END>
00000ae2 e051           3453 	cmp	zero,r10
00000ae4 e205*          3454 	be	.L1773
                        3455 --1264:             {
                        3456 --1265:                 freq = loc_ClkGenCfg.Pll[1].FrequencyHz / 4;
                        3457 --line1265
                        3458 ..lin.D.3A.5CRenesas_Electronics.5CD1x_RGL.5Crgl_ghs_D1Lx_obj_V1.2E2.2E0.5Cvlib.5Capp.5Cgfx_apps.5Csimple_draw_d1l2.5Ctarget.5Cd1lx_mango_ghs.5Cobj.5Cr_dev_clk.150::

                                                                      Page 59
                                                              C:\Users\YINGAO~1\AppData\Local\Temp\gh_00007041.si
                        3459 .LDWlin150:
00000ae6 3c0f4100       3460 	ld.w	64[r28],r1
00000aea 01e8           3461 	mov	r1,r29
00000aec 82ea           3462 	shr	2,r29
00000aee a505*          3463 	br	.L1775
                        3464 .L1773:
                        3465 --1266:             }
                        3466 --1267:             else
                        3467 --1268:             {
                        3468 --1269:                 freq = 0;
                        3469 --line1269
                        3470 ..lin.D.3A.5CRenesas_Electronics.5CD1x_RGL.5Crgl_ghs_D1Lx_obj_V1.2E2.2E0.5Cvlib.5Capp.5Cgfx_apps.5Csimple_draw_d1l2.5Ctarget.5Cd1lx_mango_ghs.5Cobj.5Cr_dev_clk.151::
                        3471 .LDWlin151:
00000af0 00ea           3472 	mov	0,r29
                        3473 .L1775:
00000af2 80074601*      3474 	br	.L1739
                        3475 .L1776:
                        3476 --1270:             }
                        3477 --1271:             break;
                        3478 --1272:         case R_DEV_CKS_SRC_PLL2     :
                        3479 --1273:             if (0 != R_DEV_ClkGenActive(R_DEV_PLL1))
                        3480 --line1273
                        3481 ..lin.D.3A.5CRenesas_Electronics.5CD1x_RGL.5Crgl_ghs_D1Lx_obj_V1.2E2.2E0.5Cvlib.5Capp.5Cgfx_apps.5Csimple_draw_d1l2.5Ctarget.5Cd1lx_mango_ghs.5Cobj.5Cr_dev_clk.152::
                        3482 .LDWlin152:
00000af6 0132           3483 	mov	1,r6
                        3484 	jarl	_R_DEV_ClkGenActive,lp
                        3484 <EXPANSION BEGIN>
                        3484 jarl22 _R_DEV_ClkGenActive , lp 
00000af8 80ff4601*      3484 <EXPANSION END>
00000afc e051           3485 	cmp	zero,r10
00000afe c205*          3486 	be	.L1777
                        3487 --1274:             {
                        3488 --1275:                 freq = loc_ClkGenCfg.Pll[1].FrequencyHz;
                        3489 --line1275
                        3490 ..lin.D.3A.5CRenesas_Electronics.5CD1x_RGL.5Crgl_ghs_D1Lx_obj_V1.2E2.2E0.5Cvlib.5Capp.5Cgfx_apps.5Csimple_draw_d1l2.5Ctarget.5Cd1lx_mango_ghs.5Cobj.5Cr_dev_clk.153::
                        3491 .LDWlin153:
00000b00 3cef4100       3492 	ld.w	64[r28],r29
00000b04 a505*          3493 	br	.L1779
                        3494 .L1777:
                        3495 --1276:             }
                        3496 --1277:             else
                        3497 --1278:             {
                        3498 --1279:                 freq = 0;
                        3499 --line1279
                        3500 ..lin.D.3A.5CRenesas_Electronics.5CD1x_RGL.5Crgl_ghs_D1Lx_obj_V1.2E2.2E0.5Cvlib.5Capp.5Cgfx_apps.5Csimple_draw_d1l2.5Ctarget.5Cd1lx_mango_ghs.5Cobj.5Cr_dev_clk.154::
                        3501 .LDWlin154:
00000b06 00ea           3502 	mov	0,r29
                        3503 .L1779:
00000b08 80073001*      3504 	br	.L1739
                        3505 .L1780:
                        3506 --1280:             }
                        3507 --1281:             break;
                        3508 --1282:         case R_DEV_CKS_SRC_PLL2_4   :
                        3509 --1283:             if (0 != R_DEV_ClkGenActive(R_DEV_PLL1))
                        3510 --line1283
                        3511 ..lin.D.3A.5CRenesas_Electronics.5CD1x_RGL.5Crgl_ghs_D1Lx_obj_V1.2E2.2E0.5Cvlib.5Capp.5Cgfx_apps.5Csimple_draw_d1l2.5Ctarget.5Cd1lx_mango_ghs.5Cobj.5Cr_dev_clk.155::
                        3512 .LDWlin155:
00000b0c 0132           3513 	mov	1,r6
                        3514 	jarl	_R_DEV_ClkGenActive,lp
                        3514 <EXPANSION BEGIN>
                        3514 jarl22 _R_DEV_ClkGenActive , lp 

                                                                      Page 60
                                                              C:\Users\YINGAO~1\AppData\Local\Temp\gh_00007041.si
00000b0e 80ff3001*      3514 <EXPANSION END>
00000b12 e051           3515 	cmp	zero,r10
00000b14 e205*          3516 	be	.L1781
                        3517 --1284:             {
                        3518 --1285:                 freq = loc_ClkGenCfg.Pll[1].FrequencyHz / 4;
                        3519 --line1285
                        3520 ..lin.D.3A.5CRenesas_Electronics.5CD1x_RGL.5Crgl_ghs_D1Lx_obj_V1.2E2.2E0.5Cvlib.5Capp.5Cgfx_apps.5Csimple_draw_d1l2.5Ctarget.5Cd1lx_mango_ghs.5Cobj.5Cr_dev_clk.156::
                        3521 .LDWlin156:
00000b16 3c0f4100       3522 	ld.w	64[r28],r1
00000b1a 01e8           3523 	mov	r1,r29
00000b1c 82ea           3524 	shr	2,r29
00000b1e a505*          3525 	br	.L1783
                        3526 .L1781:
                        3527 --1286:             }
                        3528 --1287:             else
                        3529 --1288:             {
                        3530 --1289:                 freq = 0;
                        3531 --line1289
                        3532 ..lin.D.3A.5CRenesas_Electronics.5CD1x_RGL.5Crgl_ghs_D1Lx_obj_V1.2E2.2E0.5Cvlib.5Capp.5Cgfx_apps.5Csimple_draw_d1l2.5Ctarget.5Cd1lx_mango_ghs.5Cobj.5Cr_dev_clk.157::
                        3533 .LDWlin157:
00000b20 00ea           3534 	mov	0,r29
                        3535 .L1783:
00000b22 80071601*      3536 	br	.L1739
                        3537 .L1784:
                        3538 --1290:             }
                        3539 --1291:             break;
                        3540 --1292:         case R_DEV_CKS_SRC_ISOCPU_4 :
                        3541 --1293:             freq = R_DEV_BusFrequencyHz(R_DEV_CLK_CPU) / 4;
                        3542 --line1293
                        3543 ..lin.D.3A.5CRenesas_Electronics.5CD1x_RGL.5Crgl_ghs_D1Lx_obj_V1.2E2.2E0.5Cvlib.5Capp.5Cgfx_apps.5Csimple_draw_d1l2.5Ctarget.5Cd1lx_mango_ghs.5Cobj.5Cr_dev_clk.158::
                        3544 .LDWlin158:
00000b26 0b32           3545 	mov	11,r6
                        3546 	jarl	_R_DEV_BusFrequencyHz,lp
                        3546 <EXPANSION BEGIN>
                        3546 jarl22 _R_DEV_BusFrequencyHz , lp 
00000b28 80ff620a*      3546 <EXPANSION END>
00000b2c 0ae8           3547 	mov	r10,r29
00000b2e 82ea           3548 	shr	2,r29
                        3549 --line1294
                        3550 ..lin.D.3A.5CRenesas_Electronics.5CD1x_RGL.5Crgl_ghs_D1Lx_obj_V1.2E2.2E0.5Cvlib.5Capp.5Cgfx_apps.5Csimple_draw_d1l2.5Ctarget.5Cd1lx_mango_ghs.5Cobj.5Cr_dev_clk.159::
                        3551 .LDWlin159:
00000b30 80070801*      3552 	br	.L1739
                        3553 .L1785:
                        3554 --1294:             break;
                        3555 --1295:         case R_DEV_CKS_SRC_CLKFIX   :
                        3556 --1296:             freq = R_DEV_BusFrequencyHz(R_DEV_CLK_FIX);
                        3557 --line1296
                        3558 ..lin.D.3A.5CRenesas_Electronics.5CD1x_RGL.5Crgl_ghs_D1Lx_obj_V1.2E2.2E0.5Cvlib.5Capp.5Cgfx_apps.5Csimple_draw_d1l2.5Ctarget.5Cd1lx_mango_ghs.5Cobj.5Cr_dev_clk.160::
                        3559 .LDWlin160:
00000b34 0d32           3560 	mov	13,r6
                        3561 	jarl	_R_DEV_BusFrequencyHz,lp
                        3561 <EXPANSION BEGIN>
                        3561 jarl22 _R_DEV_BusFrequencyHz , lp 
00000b36 80ff540a*      3561 <EXPANSION END>
00000b3a 0ae8           3562 	mov	r10,r29
                        3563 --line1297
                        3564 ..lin.D.3A.5CRenesas_Electronics.5CD1x_RGL.5Crgl_ghs_D1Lx_obj_V1.2E2.2E0.5Cvlib.5Capp.5Cgfx_apps.5Csimple_draw_d1l2.5Ctarget.5Cd1lx_mango_ghs.5Cobj.5Cr_dev_clk.161::
                        3565 .LDWlin161:
00000b3c e57d*          3566 	br	.L1739
                        3567 .L1786:
                        3568 --1297:             break;

                                                                      Page 61
                                                              C:\Users\YINGAO~1\AppData\Local\Temp\gh_00007041.si
                        3569 --1298:         case R_DEV_CKS_SRC_CLKFIX_8 :
                        3570 --1299:             freq = R_DEV_BusFrequencyHz(R_DEV_CLK_FIX) / 8;
                        3571 --line1299
                        3572 ..lin.D.3A.5CRenesas_Electronics.5CD1x_RGL.5Crgl_ghs_D1Lx_obj_V1.2E2.2E0.5Cvlib.5Capp.5Cgfx_apps.5Csimple_draw_d1l2.5Ctarget.5Cd1lx_mango_ghs.5Cobj.5Cr_dev_clk.162::
                        3573 .LDWlin162:
00000b3e 0d32           3574 	mov	13,r6
                        3575 	jarl	_R_DEV_BusFrequencyHz,lp
                        3575 <EXPANSION BEGIN>
                        3575 jarl22 _R_DEV_BusFrequencyHz , lp 
00000b40 80ff4a0a*      3575 <EXPANSION END>
00000b44 0ae8           3576 	mov	r10,r29
00000b46 83ea           3577 	shr	3,r29
                        3578 --line1300
                        3579 ..lin.D.3A.5CRenesas_Electronics.5CD1x_RGL.5Crgl_ghs_D1Lx_obj_V1.2E2.2E0.5Cvlib.5Capp.5Cgfx_apps.5Csimple_draw_d1l2.5Ctarget.5Cd1lx_mango_ghs.5Cobj.5Cr_dev_clk.163::
                        3580 .LDWlin163:
00000b48 857d*          3581 	br	.L1739
                        3582 .L1787:
                        3583 --1300:             break;
                        3584 --1301:         case R_DEV_CKS_SRC_CLKJIT   :
                        3585 --1302:             freq = R_DEV_ClkFrequencyHz(R_DEV_CKS_CLKJIT);
                        3586 --line1302
                        3587 ..lin.D.3A.5CRenesas_Electronics.5CD1x_RGL.5Crgl_ghs_D1Lx_obj_V1.2E2.2E0.5Cvlib.5Capp.5Cgfx_apps.5Csimple_draw_d1l2.5Ctarget.5Cd1lx_mango_ghs.5Cobj.5Cr_dev_clk.164::
                        3588 .LDWlin164:
00000b4a 20361200       3589 	movea	18,zero,r6
                        3590 	jarl	_R_DEV_ClkFrequencyHz,lp
                        3590 <EXPANSION BEGIN>
                        3590 jarl22 _R_DEV_ClkFrequencyHz , lp 
00000b4e 80ffd405*      3590 <EXPANSION END>
00000b52 0ae8           3591 	mov	r10,r29
                        3592 --line1303
                        3593 ..lin.D.3A.5CRenesas_Electronics.5CD1x_RGL.5Crgl_ghs_D1Lx_obj_V1.2E2.2E0.5Cvlib.5Capp.5Cgfx_apps.5Csimple_draw_d1l2.5Ctarget.5Cd1lx_mango_ghs.5Cobj.5Cr_dev_clk.165::
                        3594 .LDWlin165:
00000b54 a575*          3595 	br	.L1739
                        3596 .L1788:
                        3597 --1303:             break;
                        3598 --1304:         case R_DEV_CKS_SRC_CLKJIT_2 :
                        3599 --1305:             freq = R_DEV_ClkFrequencyHz(R_DEV_CKS_CLKJIT) / 2;
                        3600 --line1305
                        3601 ..lin.D.3A.5CRenesas_Electronics.5CD1x_RGL.5Crgl_ghs_D1Lx_obj_V1.2E2.2E0.5Cvlib.5Capp.5Cgfx_apps.5Csimple_draw_d1l2.5Ctarget.5Cd1lx_mango_ghs.5Cobj.5Cr_dev_clk.166::
                        3602 .LDWlin166:
00000b56 20361200       3603 	movea	18,zero,r6
                        3604 	jarl	_R_DEV_ClkFrequencyHz,lp
                        3604 <EXPANSION BEGIN>
                        3604 jarl22 _R_DEV_ClkFrequencyHz , lp 
00000b5a 80ffc805*      3604 <EXPANSION END>
00000b5e 0ae8           3605 	mov	r10,r29
00000b60 81ea           3606 	shr	1,r29
                        3607 --line1306
                        3608 ..lin.D.3A.5CRenesas_Electronics.5CD1x_RGL.5Crgl_ghs_D1Lx_obj_V1.2E2.2E0.5Cvlib.5Capp.5Cgfx_apps.5Csimple_draw_d1l2.5Ctarget.5Cd1lx_mango_ghs.5Cobj.5Cr_dev_clk.167::
                        3609 .LDWlin167:
00000b62 b56d*          3610 	br	.L1739
                        3611 .L1789:
                        3612 --1306:             break;
                        3613 --1307:         case R_DEV_CKS_SRC_CLKJIT_4 :
                        3614 --1308:             freq = R_DEV_ClkFrequencyHz(R_DEV_CKS_CLKJIT) / 4;
                        3615 --line1308
                        3616 ..lin.D.3A.5CRenesas_Electronics.5CD1x_RGL.5Crgl_ghs_D1Lx_obj_V1.2E2.2E0.5Cvlib.5Capp.5Cgfx_apps.5Csimple_draw_d1l2.5Ctarget.5Cd1lx_mango_ghs.5Cobj.5Cr_dev_clk.168::
                        3617 .LDWlin168:
00000b64 20361200       3618 	movea	18,zero,r6
                        3619 	jarl	_R_DEV_ClkFrequencyHz,lp
                        3619 <EXPANSION BEGIN>

                                                                      Page 62
                                                              C:\Users\YINGAO~1\AppData\Local\Temp\gh_00007041.si
                        3619 jarl22 _R_DEV_ClkFrequencyHz , lp 
00000b68 80ffba05*      3619 <EXPANSION END>
00000b6c 0ae8           3620 	mov	r10,r29
00000b6e 82ea           3621 	shr	2,r29
                        3622 --line1309
                        3623 ..lin.D.3A.5CRenesas_Electronics.5CD1x_RGL.5Crgl_ghs_D1Lx_obj_V1.2E2.2E0.5Cvlib.5Capp.5Cgfx_apps.5Csimple_draw_d1l2.5Ctarget.5Cd1lx_mango_ghs.5Cobj.5Cr_dev_clk.169::
                        3624 .LDWlin169:
00000b70 c565*          3625 	br	.L1739
                        3626 .L1790:
                        3627 --1309:             break;
                        3628 --1310:         case R_DEV_CKS_SRC_CLKJIT_8 :
                        3629 --1311:             freq = R_DEV_ClkFrequencyHz(R_DEV_CKS_CLKJIT) / 8;
                        3630 --line1311
                        3631 ..lin.D.3A.5CRenesas_Electronics.5CD1x_RGL.5Crgl_ghs_D1Lx_obj_V1.2E2.2E0.5Cvlib.5Capp.5Cgfx_apps.5Csimple_draw_d1l2.5Ctarget.5Cd1lx_mango_ghs.5Cobj.5Cr_dev_clk.170::
                        3632 .LDWlin170:
00000b72 20361200       3633 	movea	18,zero,r6
                        3634 	jarl	_R_DEV_ClkFrequencyHz,lp
                        3634 <EXPANSION BEGIN>
                        3634 jarl22 _R_DEV_ClkFrequencyHz , lp 
00000b76 80ffac05*      3634 <EXPANSION END>
00000b7a 0ae8           3635 	mov	r10,r29
00000b7c 83ea           3636 	shr	3,r29
                        3637 --line1312
                        3638 ..lin.D.3A.5CRenesas_Electronics.5CD1x_RGL.5Crgl_ghs_D1Lx_obj_V1.2E2.2E0.5Cvlib.5Capp.5Cgfx_apps.5Csimple_draw_d1l2.5Ctarget.5Cd1lx_mango_ghs.5Cobj.5Cr_dev_clk.171::
                        3639 .LDWlin171:
00000b7e d55d*          3640 	br	.L1739
                        3641 .L1791:
                        3642 --1312:             break;
                        3643 --1313:         case R_DEV_CKS_SRC_PLLFIX   :
                        3644 --1314:             freq = R_DEV_ClkFrequencyHz(R_DEV_CKS_PLLFIX);
                        3645 --line1314
                        3646 ..lin.D.3A.5CRenesas_Electronics.5CD1x_RGL.5Crgl_ghs_D1Lx_obj_V1.2E2.2E0.5Cvlib.5Capp.5Cgfx_apps.5Csimple_draw_d1l2.5Ctarget.5Cd1lx_mango_ghs.5Cobj.5Cr_dev_clk.172::
                        3647 .LDWlin172:
00000b80 20361400       3648 	movea	20,zero,r6
                        3649 	jarl	_R_DEV_ClkFrequencyHz,lp
                        3649 <EXPANSION BEGIN>
                        3649 jarl22 _R_DEV_ClkFrequencyHz , lp 
00000b84 80ff9e05*      3649 <EXPANSION END>
00000b88 0ae8           3650 	mov	r10,r29
                        3651 --line1315
                        3652 ..lin.D.3A.5CRenesas_Electronics.5CD1x_RGL.5Crgl_ghs_D1Lx_obj_V1.2E2.2E0.5Cvlib.5Capp.5Cgfx_apps.5Csimple_draw_d1l2.5Ctarget.5Cd1lx_mango_ghs.5Cobj.5Cr_dev_clk.173::
                        3653 .LDWlin173:
00000b8a f555*          3654 	br	.L1739
                        3655 .L1792:
                        3656 --1315:             break;
                        3657 --1316:         case R_DEV_CKS_SRC_PLLFIX_3 :
                        3658 --1317:             freq = R_DEV_ClkFrequencyHz(R_DEV_CKS_PLLFIX) / 3;
                        3659 --line1317
                        3660 ..lin.D.3A.5CRenesas_Electronics.5CD1x_RGL.5Crgl_ghs_D1Lx_obj_V1.2E2.2E0.5Cvlib.5Capp.5Cgfx_apps.5Csimple_draw_d1l2.5Ctarget.5Cd1lx_mango_ghs.5Cobj.5Cr_dev_clk.174::
                        3661 .LDWlin174:
00000b8c 20361400       3662 	movea	20,zero,r6
                        3663 	jarl	_R_DEV_ClkFrequencyHz,lp
                        3663 <EXPANSION BEGIN>
                        3663 jarl22 _R_DEV_ClkFrequencyHz , lp 
00000b90 80ff9205*      3663 <EXPANSION END>
00000b94 0ae8           3664 	mov	r10,r29
00000b96 030a           3665 	mov	3,r1
00000b98 e1effe02       3666 	divqu	r1,r29,zero
                        3667 --line1318
                        3668 ..lin.D.3A.5CRenesas_Electronics.5CD1x_RGL.5Crgl_ghs_D1Lx_obj_V1.2E2.2E0.5Cvlib.5Capp.5Cgfx_apps.5Csimple_draw_d1l2.5Ctarget.5Cd1lx_mango_ghs.5Cobj.5Cr_dev_clk.175::
                        3669 .LDWlin175:

                                                                      Page 63
                                                              C:\Users\YINGAO~1\AppData\Local\Temp\gh_00007041.si
00000b9c e54d*          3670 	br	.L1739
                        3671 .L1793:
                        3672 --1318:             break;
                        3673 --1319:         case R_DEV_CKS_SRC_PLLFIX_10:
                        3674 --1320:             freq = R_DEV_ClkFrequencyHz(R_DEV_CKS_PLLFIX) / 10;
                        3675 --line1320
                        3676 ..lin.D.3A.5CRenesas_Electronics.5CD1x_RGL.5Crgl_ghs_D1Lx_obj_V1.2E2.2E0.5Cvlib.5Capp.5Cgfx_apps.5Csimple_draw_d1l2.5Ctarget.5Cd1lx_mango_ghs.5Cobj.5Cr_dev_clk.176::
                        3677 .LDWlin176:
00000b9e 20361400       3678 	movea	20,zero,r6
                        3679 	jarl	_R_DEV_ClkFrequencyHz,lp
                        3679 <EXPANSION BEGIN>
                        3679 jarl22 _R_DEV_ClkFrequencyHz , lp 
00000ba2 80ff8005*      3679 <EXPANSION END>
00000ba6 0ae8           3680 	mov	r10,r29
00000ba8 0a0a           3681 	mov	10,r1
00000baa e1effe02       3682 	divqu	r1,r29,zero
                        3683 --line1321
                        3684 ..lin.D.3A.5CRenesas_Electronics.5CD1x_RGL.5Crgl_ghs_D1Lx_obj_V1.2E2.2E0.5Cvlib.5Capp.5Cgfx_apps.5Csimple_draw_d1l2.5Ctarget.5Cd1lx_mango_ghs.5Cobj.5Cr_dev_clk.177::
                        3685 .LDWlin177:
00000bae d545*          3686 	br	.L1739
                        3687 .L1794:
                        3688 --1321:             break;
                        3689 --1322:         case R_DEV_CKS_SRC_PLL0PIX:
                        3690 --1323:             freq = R_DEV_BusFrequencyHz(R_DEV_CLK_PLL0PIX);
                        3691 --line1323
                        3692 ..lin.D.3A.5CRenesas_Electronics.5CD1x_RGL.5Crgl_ghs_D1Lx_obj_V1.2E2.2E0.5Cvlib.5Capp.5Cgfx_apps.5Csimple_draw_d1l2.5Ctarget.5Cd1lx_mango_ghs.5Cobj.5Cr_dev_clk.178::
                        3693 .LDWlin178:
00000bb0 0332           3694 	mov	3,r6
                        3695 	jarl	_R_DEV_BusFrequencyHz,lp
                        3695 <EXPANSION BEGIN>
                        3695 jarl22 _R_DEV_BusFrequencyHz , lp 
00000bb2 80ffd809*      3695 <EXPANSION END>
00000bb6 0ae8           3696 	mov	r10,r29
                        3697 --line1324
                        3698 ..lin.D.3A.5CRenesas_Electronics.5CD1x_RGL.5Crgl_ghs_D1Lx_obj_V1.2E2.2E0.5Cvlib.5Capp.5Cgfx_apps.5Csimple_draw_d1l2.5Ctarget.5Cd1lx_mango_ghs.5Cobj.5Cr_dev_clk.179::
                        3699 .LDWlin179:
00000bb8 8545*          3700 	br	.L1739
                        3701 .L1795:
                        3702 --1324:             break;
                        3703 --1325:         case R_DEV_CKS_SRC_PLL0PIX_3:
                        3704 --1326:             freq = R_DEV_BusFrequencyHz(R_DEV_CLK_PLL0PIX) / 3;
                        3705 --line1326
                        3706 ..lin.D.3A.5CRenesas_Electronics.5CD1x_RGL.5Crgl_ghs_D1Lx_obj_V1.2E2.2E0.5Cvlib.5Capp.5Cgfx_apps.5Csimple_draw_d1l2.5Ctarget.5Cd1lx_mango_ghs.5Cobj.5Cr_dev_clk.180::
                        3707 .LDWlin180:
00000bba 0332           3708 	mov	3,r6
                        3709 	jarl	_R_DEV_BusFrequencyHz,lp
                        3709 <EXPANSION BEGIN>
                        3709 jarl22 _R_DEV_BusFrequencyHz , lp 
00000bbc 80ffce09*      3709 <EXPANSION END>
00000bc0 0ae8           3710 	mov	r10,r29
00000bc2 030a           3711 	mov	3,r1
00000bc4 e1effe02       3712 	divqu	r1,r29,zero
                        3713 --line1327
                        3714 ..lin.D.3A.5CRenesas_Electronics.5CD1x_RGL.5Crgl_ghs_D1Lx_obj_V1.2E2.2E0.5Cvlib.5Capp.5Cgfx_apps.5Csimple_draw_d1l2.5Ctarget.5Cd1lx_mango_ghs.5Cobj.5Cr_dev_clk.181::
                        3715 .LDWlin181:
00000bc8 853d*          3716 	br	.L1739
                        3717 .L1796:
                        3718 --1327:             break;
                        3719 --1328:         case R_DEV_CKS_SRC_DOTCK0   :
                        3720 --1329:             freq  = R_DEV_ClkFrequencyHz(R_DEV_CKS_DOTCK0);
                        3721 --line1329

                                                                      Page 64
                                                              C:\Users\YINGAO~1\AppData\Local\Temp\gh_00007041.si
                        3722 ..lin.D.3A.5CRenesas_Electronics.5CD1x_RGL.5Crgl_ghs_D1Lx_obj_V1.2E2.2E0.5Cvlib.5Capp.5Cgfx_apps.5Csimple_draw_d1l2.5Ctarget.5Cd1lx_mango_ghs.5Cobj.5Cr_dev_clk.182::
                        3723 .LDWlin182:
00000bca 20361600       3724 	movea	22,zero,r6
                        3725 	jarl	_R_DEV_ClkFrequencyHz,lp
                        3725 <EXPANSION BEGIN>
                        3725 jarl22 _R_DEV_ClkFrequencyHz , lp 
00000bce 80ff5405*      3725 <EXPANSION END>
00000bd2 0ae8           3726 	mov	r10,r29
                        3727 --line1330
                        3728 ..lin.D.3A.5CRenesas_Electronics.5CD1x_RGL.5Crgl_ghs_D1Lx_obj_V1.2E2.2E0.5Cvlib.5Capp.5Cgfx_apps.5Csimple_draw_d1l2.5Ctarget.5Cd1lx_mango_ghs.5Cobj.5Cr_dev_clk.183::
                        3729 .LDWlin183:
00000bd4 a535*          3730 	br	.L1739
                        3731 .L1797:
                        3732 --1330:             break;
                        3733 --1331:         case R_DEV_CKS_SRC_DOTCK0_4 :
                        3734 --1332:             freq  = R_DEV_ClkFrequencyHz(R_DEV_CKS_DOTCK0) / 4;
                        3735 --line1332
                        3736 ..lin.D.3A.5CRenesas_Electronics.5CD1x_RGL.5Crgl_ghs_D1Lx_obj_V1.2E2.2E0.5Cvlib.5Capp.5Cgfx_apps.5Csimple_draw_d1l2.5Ctarget.5Cd1lx_mango_ghs.5Cobj.5Cr_dev_clk.184::
                        3737 .LDWlin184:
00000bd6 20361600       3738 	movea	22,zero,r6
                        3739 	jarl	_R_DEV_ClkFrequencyHz,lp
                        3739 <EXPANSION BEGIN>
                        3739 jarl22 _R_DEV_ClkFrequencyHz , lp 
00000bda 80ff4805*      3739 <EXPANSION END>
00000bde 0ae8           3740 	mov	r10,r29
00000be0 82ea           3741 	shr	2,r29
                        3742 --line1333
                        3743 ..lin.D.3A.5CRenesas_Electronics.5CD1x_RGL.5Crgl_ghs_D1Lx_obj_V1.2E2.2E0.5Cvlib.5Capp.5Cgfx_apps.5Csimple_draw_d1l2.5Ctarget.5Cd1lx_mango_ghs.5Cobj.5Cr_dev_clk.185::
                        3744 .LDWlin185:
00000be2 b52d*          3745 	br	.L1739
                        3746 .L1798:
                        3747 --1333:             break;
                        3748 --1334:         case R_DEV_CKS_SRC_DOTCK1   :
                        3749 --1335:             freq  = R_DEV_ClkFrequencyHz(R_DEV_CKS_DOTCK1);
                        3750 --line1335
                        3751 ..lin.D.3A.5CRenesas_Electronics.5CD1x_RGL.5Crgl_ghs_D1Lx_obj_V1.2E2.2E0.5Cvlib.5Capp.5Cgfx_apps.5Csimple_draw_d1l2.5Ctarget.5Cd1lx_mango_ghs.5Cobj.5Cr_dev_clk.186::
                        3752 .LDWlin186:
00000be4 20361700       3753 	movea	23,zero,r6
                        3754 	jarl	_R_DEV_ClkFrequencyHz,lp
                        3754 <EXPANSION BEGIN>
                        3754 jarl22 _R_DEV_ClkFrequencyHz , lp 
00000be8 80ff3a05*      3754 <EXPANSION END>
00000bec 0ae8           3755 	mov	r10,r29
                        3756 --line1336
                        3757 ..lin.D.3A.5CRenesas_Electronics.5CD1x_RGL.5Crgl_ghs_D1Lx_obj_V1.2E2.2E0.5Cvlib.5Capp.5Cgfx_apps.5Csimple_draw_d1l2.5Ctarget.5Cd1lx_mango_ghs.5Cobj.5Cr_dev_clk.187::
                        3758 .LDWlin187:
00000bee d525*          3759 	br	.L1739
                        3760 .L1799:
                        3761 --1336:             break;
                        3762 --1337:         case R_DEV_CKS_SRC_DOTCK1_4 :
                        3763 --1338:             freq  = R_DEV_ClkFrequencyHz(R_DEV_CKS_DOTCK1) / 4;
                        3764 --line1338
                        3765 ..lin.D.3A.5CRenesas_Electronics.5CD1x_RGL.5Crgl_ghs_D1Lx_obj_V1.2E2.2E0.5Cvlib.5Capp.5Cgfx_apps.5Csimple_draw_d1l2.5Ctarget.5Cd1lx_mango_ghs.5Cobj.5Cr_dev_clk.188::
                        3766 .LDWlin188:
00000bf0 20361700       3767 	movea	23,zero,r6
                        3768 	jarl	_R_DEV_ClkFrequencyHz,lp
                        3768 <EXPANSION BEGIN>
                        3768 jarl22 _R_DEV_ClkFrequencyHz , lp 
00000bf4 80ff2e05*      3768 <EXPANSION END>
00000bf8 0ae8           3769 	mov	r10,r29
00000bfa 82ea           3770 	shr	2,r29

                                                                      Page 65
                                                              C:\Users\YINGAO~1\AppData\Local\Temp\gh_00007041.si
                        3771 --line1339
                        3772 ..lin.D.3A.5CRenesas_Electronics.5CD1x_RGL.5Crgl_ghs_D1Lx_obj_V1.2E2.2E0.5Cvlib.5Capp.5Cgfx_apps.5Csimple_draw_d1l2.5Ctarget.5Cd1lx_mango_ghs.5Cobj.5Cr_dev_clk.189::
                        3773 .LDWlin189:
00000bfc e51d*          3774 	br	.L1739
                        3775 .L1800:
                        3776 --1339:             break;
                        3777 --1340:         case R_DEV_CKS_SRC_VI0CLK   :
                        3778 --1341:             freq  = loc_Vdce0ViFreq;
                        3779 --line1341
                        3780 ..lin.D.3A.5CRenesas_Electronics.5CD1x_RGL.5Crgl_ghs_D1Lx_obj_V1.2E2.2E0.5Cvlib.5Capp.5Cgfx_apps.5Csimple_draw_d1l2.5Ctarget.5Cd1lx_mango_ghs.5Cobj.5Cr_dev_clk.190::
                        3781 .LDWlin190:
00000bfe 3d0600000000*  3782 	mov	_loc_Vdce0ViFreq,r29
00000c04 3def0100       3783 	ld.w	0[r29],r29
00000c08 851d*          3784 	br	.L1739
                        3785 .L1801:
                        3786 --1342:             break;
                        3787 --1343:         case R_DEV_CKS_SRC_VI0PIX   :
                        3788 --1344:             freq = R_DEV_ClkFrequencyHz(R_DEV_CKS_VI0CLK);
                        3789 --line1344
                        3790 ..lin.D.3A.5CRenesas_Electronics.5CD1x_RGL.5Crgl_ghs_D1Lx_obj_V1.2E2.2E0.5Cvlib.5Capp.5Cgfx_apps.5Csimple_draw_d1l2.5Ctarget.5Cd1lx_mango_ghs.5Cobj.5Cr_dev_clk.191::
                        3791 .LDWlin191:
00000c0a 20361b00       3792 	movea	27,zero,r6
                        3793 	jarl	_R_DEV_ClkFrequencyHz,lp
                        3793 <EXPANSION BEGIN>
                        3793 jarl22 _R_DEV_ClkFrequencyHz , lp 
00000c0e 80ff1405*      3793 <EXPANSION END>
00000c12 0ae8           3794 	mov	r10,r29
                        3795 --line1345
                        3796 ..lin.D.3A.5CRenesas_Electronics.5CD1x_RGL.5Crgl_ghs_D1Lx_obj_V1.2E2.2E0.5Cvlib.5Capp.5Cgfx_apps.5Csimple_draw_d1l2.5Ctarget.5Cd1lx_mango_ghs.5Cobj.5Cr_dev_clk.192::
                        3797 .LDWlin192:
00000c14 a515*          3798 	br	.L1739
                        3799 .L1802:
                        3800 --1345:             break;
                        3801 --1346:         case R_DEV_CKS_SRC_VI1PIX   :
                        3802 --1347:             freq  = loc_Vdce1ViFreq;
                        3803 --line1347
                        3804 ..lin.D.3A.5CRenesas_Electronics.5CD1x_RGL.5Crgl_ghs_D1Lx_obj_V1.2E2.2E0.5Cvlib.5Capp.5Cgfx_apps.5Csimple_draw_d1l2.5Ctarget.5Cd1lx_mango_ghs.5Cobj.5Cr_dev_clk.193::
                        3805 .LDWlin193:
00000c16 21ef0500       3806 	ld.w	4[r1],r29
00000c1a f50d*          3807 	br	.L1739
                        3808 .L1803:
                        3809 --1348:             break;
                        3810 --1349:         case R_DEV_CKS_SRC_MIPIPXL  :
                        3811 --1350:             freq = R_DEV_ClkFrequencyHz(R_DEV_CKS_MIPIPXL);
                        3812 --line1350
                        3813 ..lin.D.3A.5CRenesas_Electronics.5CD1x_RGL.5Crgl_ghs_D1Lx_obj_V1.2E2.2E0.5Cvlib.5Capp.5Cgfx_apps.5Csimple_draw_d1l2.5Ctarget.5Cd1lx_mango_ghs.5Cobj.5Cr_dev_clk.194::
                        3814 .LDWlin194:
00000c1c 20361d00       3815 	movea	29,zero,r6
                        3816 	jarl	_R_DEV_ClkFrequencyHz,lp
                        3816 <EXPANSION BEGIN>
                        3816 jarl22 _R_DEV_ClkFrequencyHz , lp 
00000c20 80ff0205*      3816 <EXPANSION END>
00000c24 0ae8           3817 	mov	r10,r29
                        3818 --line1351
                        3819 ..lin.D.3A.5CRenesas_Electronics.5CD1x_RGL.5Crgl_ghs_D1Lx_obj_V1.2E2.2E0.5Cvlib.5Capp.5Cgfx_apps.5Csimple_draw_d1l2.5Ctarget.5Cd1lx_mango_ghs.5Cobj.5Cr_dev_clk.195::
                        3820 .LDWlin195:
00000c26 950d*          3821 	br	.L1739
                        3822 .L1804:
                        3823 --1351:             break;
                        3824 --1352:         case R_DEV_CKS_SRC_MIPIPLL  :
                        3825 --1353:             freq = R_DEV_ClkFrequencyHz(R_DEV_CKS_MIPIPLL);

                                                                      Page 66
                                                              C:\Users\YINGAO~1\AppData\Local\Temp\gh_00007041.si
                        3826 --line1353
                        3827 ..lin.D.3A.5CRenesas_Electronics.5CD1x_RGL.5Crgl_ghs_D1Lx_obj_V1.2E2.2E0.5Cvlib.5Capp.5Cgfx_apps.5Csimple_draw_d1l2.5Ctarget.5Cd1lx_mango_ghs.5Cobj.5Cr_dev_clk.196::
                        3828 .LDWlin196:
00000c28 20361c00       3829 	movea	28,zero,r6
                        3830 	jarl	_R_DEV_ClkFrequencyHz,lp
                        3830 <EXPANSION BEGIN>
                        3830 jarl22 _R_DEV_ClkFrequencyHz , lp 
00000c2c 80fff604*      3830 <EXPANSION END>
00000c30 0ae8           3831 	mov	r10,r29
                        3832 --line1354
                        3833 ..lin.D.3A.5CRenesas_Electronics.5CD1x_RGL.5Crgl_ghs_D1Lx_obj_V1.2E2.2E0.5Cvlib.5Capp.5Cgfx_apps.5Csimple_draw_d1l2.5Ctarget.5Cd1lx_mango_ghs.5Cobj.5Cr_dev_clk.197::
                        3834 .LDWlin197:
00000c32 b505*          3835 	br	.L1739
                        3836 .L1805:
                        3837 --1354:             break;
                        3838 --1355:         default:
                        3839 --1356:              /* No error message, just return 0, means clock off */
                        3840 --1357:              freq = 0;
                        3841 --line1357
                        3842 ..lin.D.3A.5CRenesas_Electronics.5CD1x_RGL.5Crgl_ghs_D1Lx_obj_V1.2E2.2E0.5Cvlib.5Capp.5Cgfx_apps.5Csimple_draw_d1l2.5Ctarget.5Cd1lx_mango_ghs.5Cobj.5Cr_dev_clk.198::
                        3843 .LDWlin198:
00000c34 00ea           3844 	mov	0,r29
00000c36 0000           3845 	nop
                        3846 .L1739:
                        3847 --1358:         break;
                        3848 --1359:     }
                        3849 --1360:     return freq;
00000c38 1d50           3850 	mov	r29,r10
                        3851 --	    .ef
                        3852 .LDW92:
00000c3a 4006ff10       3853 	dispose	0,{r27,r28,r29,r31},[lp]
                        3854 	.type	_loc_SrcFrequencyHz,@function
                        3855 	.size	_loc_SrcFrequencyHz,.-_loc_SrcFrequencyHz
                        3856 	.type	_loc_SrcFrequencyHz..D.3A.5CRenesas_Electronics.5CD1x_RGL.5Crgl_ghs_D1Lx_obj_V1.2E2.2E0.5Cvlib.5Capp.5Cgfx_apps.5Csimple_draw_d1l2.5Ctarget.5Cd1lx_mango_ghs.5Cobj.5Cr_dev_clk.,@function
                        3857 	.size	_loc_SrcFrequencyHz..D.3A.5CRenesas_Electronics.5CD1x_RGL.5Crgl_ghs_D1Lx_obj_V1.2E2.2E0.5Cvlib.5Capp.5Cgfx_apps.5Csimple_draw_d1l2.5Ctarget.5Cd1lx_mango_ghs.5Cobj.5Cr_dev_clk.,.-_loc_SrcFrequencyHz..D.3A.5CRenesas_Electronics.5CD1x_RGL.5Crgl_ghs_D1Lx_obj_V1.2E2.2E0.5Cvlib.5Capp.5Cgfx_apps.5Csimple_draw_d1l2.5Ctarget.5Cd1lx_mango_ghs.5Cobj.5Cr_dev_clk.
                        3858 	.align	2
                        3859 .LDW03:
                        3860 --_freq	r29	local
                        3861 
                        3862 --_ClkSrc	r27	param
                        3863 
                        3864 	.data
                        3865 	.ghsnote jtable,2097156,.L2001,.L2001,.L2001,34
                        3866 	.text
                        3867 
                        3868 --1361: }
                        3869 
                        3870 --1363: /*******************************************************************************
                        3871 --1364:   Section: Global API Functions
                        3872 --1365: */
                        3873 --1368: /*******************************************************************************
                        3874 --1369:   Function: R_DEV_ClkGenActive
                        3875 --1372:     see: <r_dev_api.h> for details
                        3876 --1373: */
                        3877 --1375: uint8_t R_DEV_ClkGenActive(r_dev_ClkGen_t ClkGen)
                        3878 	.align	2
                        3879 	.align	2
                        3880 	.global	_R_DEV_ClkGenActive
                        3881 _R_DEV_ClkGenActive:
00000c3e 8007e110       3882 	prepare	{r27,r28,r29,r31},0
00000c42 06d8           3883 	mov	r6,r27

                                                                      Page 67
                                                              C:\Users\YINGAO~1\AppData\Local\Temp\gh_00007041.si
                        3884 --	    .bf
                        3885 .LDW13:
                        3886 --1376: {
                        3887 --1377:     uint32_t addr    = 0;
00000c44 00ea           3888 	mov	0,r29
                        3889 --1378:     uint8_t  ret_val = 0;
00000c46 00e2           3890 	mov	0,r28
                        3891 --1380:     if (ClkGen < R_DEV_CLK_GEN_NUM)
00000c48 66da           3892 	cmp	6,r27
00000c4a fe0d*          3893 	bge	.L2294
                        3894 --1381:     {
                        3895 --1382:         addr = loc_Base[ClkGen] + LOC_GEN_S;
                        3896 --line1382
                        3897 ..lin.D.3A.5CRenesas_Electronics.5CD1x_RGL.5Crgl_ghs_D1Lx_obj_V1.2E2.2E0.5Cvlib.5Capp.5Cgfx_apps.5Csimple_draw_d1l2.5Ctarget.5Cd1lx_mango_ghs.5Cobj.5Cr_dev_clk.199::
                        3898 .LDWlin199:
00000c4c 1bf0           3899 	mov	r27,ep
00000c4e c2f2           3900 	shl	2,ep
00000c50 2e0600000000*  3901 	mov	_loc_Base,r14
00000c56 cef1           3902 	add	r14,ep
00000c58 00ed           3903 	sld.w	0[ep],r29
00000c5a 44ea           3904 	add	4,r29
                        3905 --1383:         if (LOC_GEN_ACTIVE_MASK == (R_DEV_READ_REG(32, addr) & LOC_GEN_ACTIVE_MASK))
00000c5c 3d0f0100       3906 	ld.w	0[r29],r1
00000c60 830a           3907 	shr	3,r1
00000c62 f905*          3908 	bnl	.L2298
                        3909 --1384:         {
                        3910 --1385:             ret_val = 1;
                        3911 --line1385
                        3912 ..lin.D.3A.5CRenesas_Electronics.5CD1x_RGL.5Crgl_ghs_D1Lx_obj_V1.2E2.2E0.5Cvlib.5Capp.5Cgfx_apps.5Csimple_draw_d1l2.5Ctarget.5Cd1lx_mango_ghs.5Cobj.5Cr_dev_clk.200::
                        3913 .LDWlin200:
00000c64 01e2           3914 	mov	1,r28
00000c66 d505*          3915 	br	.L2298
                        3916 .L2294:
                        3917 --1386:         }
                        3918 --1387:     }
                        3919 --1388:     else
                        3920 --1389:     {
                        3921 --1390:         R_DEV_ERROR((uint32_t)ClkGen, R_DEV_ERR_IDX, "Wrong clock generator selected!");
                        3922 --line1390
                        3923 ..lin.D.3A.5CRenesas_Electronics.5CD1x_RGL.5Crgl_ghs_D1Lx_obj_V1.2E2.2E0.5Cvlib.5Capp.5Cgfx_apps.5Csimple_draw_d1l2.5Ctarget.5Cd1lx_mango_ghs.5Cobj.5Cr_dev_clk.201::
                        3924 .LDWlin201:
00000c68 1b30           3925 	mov	r27,r6
00000c6a 083a           3926 	mov	8,r7
                        3927 	jarl	_R_DEV_ErrorHandler,lp
                        3927 <EXPANSION BEGIN>
                        3927 jarl22 _R_DEV_ErrorHandler , lp 
00000c6c 80ff0000*      3927 <EXPANSION END>
                        3928 .L2298:
                        3929 --1392:     }
                        3930 --1393:     return ret_val;
                        3931 --line1393
                        3932 ..lin.D.3A.5CRenesas_Electronics.5CD1x_RGL.5Crgl_ghs_D1Lx_obj_V1.2E2.2E0.5Cvlib.5Capp.5Cgfx_apps.5Csimple_draw_d1l2.5Ctarget.5Cd1lx_mango_ghs.5Cobj.5Cr_dev_clk.202::
                        3933 .LDWlin202:
00000c70 1c50           3934 	mov	r28,r10
                        3935 --	    .ef
                        3936 .LDW23:
00000c72 4006ff10       3937 	dispose	0,{r27,r28,r29,r31},[lp]
                        3938 	.type	_R_DEV_ClkGenActive,@function
                        3939 	.size	_R_DEV_ClkGenActive,.-_R_DEV_ClkGenActive
                        3940 	.align	2
                        3941 .LDW33:

                                                                      Page 68
                                                              C:\Users\YINGAO~1\AppData\Local\Temp\gh_00007041.si
                        3942 --_addr	r29	local
                        3943 --_ret_val	r28	local
                        3944 
                        3945 --_ClkGen	r27	param
                        3946 
                        3947 	.section ".bss","awb"
                        3948 .L2326:
                        3949 	.type	.L2326,@object
                        3950 	.size	.L2326,0
                        3951 	.data
                        3952 	.text
                        3953 
                        3954 --1394: }
                        3955 
                        3956 --1397: /*******************************************************************************
                        3957 --1398:   Function: R_DEV_ClkIdSet
                        3958 --1400:     see: <r_dev_api.h> for details
                        3959 --1401: */
                        3960 --1404: r_Error_t R_DEV_ClkIdSet(const r_dev_ClkSelConfig_t * ClkSelCfg)
                        3961 	.align	2
                        3962 	.align	2
                        3963 	.global	_R_DEV_ClkIdSet
                        3964 _R_DEV_ClkIdSet:
00000c76 8e07e170       3965 	prepare	{r25,r26,r27,r28,r29,r31},7
00000c7a 06d8           3966 	mov	r6,r27
                        3967 --	    .bf
                        3968 .LDW43:
                        3969 --1405: {
                        3970 --1406:     uint32_t  sel_addr = 0;
00000c7c 00d2           3971 	mov	0,r26
                        3972 --1407:     uint32_t  div_addr = 0;
00000c7e 00e2           3973 	mov	0,r28
                        3974 --1408:     uint16_t  div_idx  = 0;
00000c80 63070600       3975 	st.h	zero,6[sp]
00000c84 005a           3976 	mov	0,r11
                        3977 --1409:     uint32_t  reg_val  = 0;
00000c86 63070900       3978 	st.w	zero,8[sp]
00000c8a 005a           3979 	mov	0,r11
                        3980 --1410:     r_Error_t ret_val  = R_NG;
00000c8c 015a           3981 	mov	1,r11
00000c8e 635f0d00       3982 	st.w	r11,12[sp]
                        3983 --1411:     uint8_t   i        = 0;
00000c92 00ea           3984 	mov	0,r29
                        3985 --1412:     uint16_t  cks_sel  = 0;
00000c94 00ca           3986 	mov	0,r25
                        3987 --1413:     uint16_t  div_sel  = 0;
00000c96 63070400       3988 	st.h	zero,4[sp]
00000c9a 005a           3989 	mov	0,r11
                        3990 --1414:     uint8_t   match_found = R_FALSE;
00000c9c 43070300       3991 	st.b	zero,3[sp]
00000ca0 005a           3992 	mov	0,r11
                        3993 --1416:     /* Check range */
                        3994 --1417:     if (ClkSelCfg->Cks < R_DEV_CKS_LAST)
00000ca2 3b0f0100       3995 	ld.w	0[r27],r1
00000ca6 0106e2ff       3996 	addi	-30,r1,zero
00000caa fe1d*          3997 	bge	.L2361
                        3998 --1418:     {
                        3999 --1419:         sel_addr     = loc_CkcsBaseAddr[ClkSelCfg->Cks].Sel;
                        4000 --line1419
                        4001 ..lin.D.3A.5CRenesas_Electronics.5CD1x_RGL.5Crgl_ghs_D1Lx_obj_V1.2E2.2E0.5Cvlib.5Capp.5Cgfx_apps.5Csimple_draw_d1l2.5Ctarget.5Cd1lx_mango_ghs.5Cobj.5Cr_dev_clk.203::
                        4002 .LDWlin203:

                                                                      Page 69
                                                              C:\Users\YINGAO~1\AppData\Local\Temp\gh_00007041.si
00000cac 3b0f0000       4003 	ld.h	0[r27],r1
00000cb0 2b0600000000*  4004 	mov	_loc_CkcsBaseAddr,r11
00000cb6 e1f60c00       4005 	mulhi	12,r1,ep
00000cba cbf1           4006 	add	r11,ep
00000cbc 00d5           4007 	sld.w	0[ep],r26
                        4008 --1420:         div_addr     = loc_CkcsBaseAddr[ClkSelCfg->Cks].Div;
00000cbe 3b0f0000       4009 	ld.h	0[r27],r1
00000cc2 2b0600000000*  4010 	mov	_loc_CkcsBaseAddr,r11
00000cc8 e1f60c00       4011 	mulhi	12,r1,ep
00000ccc cbf1           4012 	add	r11,ep
00000cce 02e5           4013 	sld.w	4[ep],r28
                        4014 --1421:         div_idx      = loc_CkcsBaseAddr[ClkSelCfg->Cks].DivIdx;
00000cd0 3b0f0000       4015 	ld.h	0[r27],r1
00000cd4 2b0600000000*  4016 	mov	_loc_CkcsBaseAddr,r11
00000cda e1f60c00       4017 	mulhi	12,r1,ep
00000cde cbf1           4018 	add	r11,ep
00000ce0 7460           4019 	sld.hu	8[ep],r12
00000ce2 63670600       4020 	st.h	r12,6[sp]
00000ce6 e505*          4021 	br	.L2363
                        4022 .L2361:
                        4023 --1422:     }
                        4024 --1423:     else
                        4025 --1424:     {
                        4026 --1425:         R_DEV_ERROR((uint32_t)ClkSelCfg->Cks, R_DEV_ERR_IDX, "Wrong clock domain selected!");
                        4027 --line1425
                        4028 ..lin.D.3A.5CRenesas_Electronics.5CD1x_RGL.5Crgl_ghs_D1Lx_obj_V1.2E2.2E0.5Cvlib.5Capp.5Cgfx_apps.5Csimple_draw_d1l2.5Ctarget.5Cd1lx_mango_ghs.5Cobj.5Cr_dev_clk.204::
                        4029 .LDWlin204:
00000ce8 3b370100       4030 	ld.w	0[r27],r6
00000cec 083a           4031 	mov	8,r7
                        4032 	jarl	_R_DEV_ErrorHandler,lp
                        4032 <EXPANSION BEGIN>
                        4032 jarl22 _R_DEV_ErrorHandler , lp 
00000cee 80ff0000*      4032 <EXPANSION END>
                        4033 .L2363:
                        4034 --1426:     }
                        4035 --1428:     /* Find the right ID setting */
                        4036 --1429:     for (i = 0; i < 8; i++) /* Search for the ID*/
                        4037 --line1429
                        4038 ..lin.D.3A.5CRenesas_Electronics.5CD1x_RGL.5Crgl_ghs_D1Lx_obj_V1.2E2.2E0.5Cvlib.5Capp.5Cgfx_apps.5Csimple_draw_d1l2.5Ctarget.5Cd1lx_mango_ghs.5Cobj.5Cr_dev_clk.205::
                        4039 .LDWlin205:
00000cf2 00ea           4040 	mov	0,r29
00000cf4 0000           4041 	nop
                        4042 .L2366:
                        4043 --1430:     {
                        4044 --1431:         /* D1lx devices do not have PLL2 so this is a work around remap to PLL1 (R_DEV_CKS_SRC_PLLFIX) */
                        4045 --1432:         if (ClkSelCfg->SrcId == R_DEV_CKS_SRC_PLL2)
00000cf6 3b0f0500       4046 	ld.w	4[r27],r1
00000cfa 6b0a           4047 	cmp	11,r1
00000cfc ba15*          4048 	bne	.L2367
                        4049 --1433:         {
                        4050 --1434:             if (loc_ClockTree[ClkSelCfg->Cks][i] == R_DEV_CKS_SRC_PLLFIX)
                        4051 --line1434
                        4052 ..lin.D.3A.5CRenesas_Electronics.5CD1x_RGL.5Crgl_ghs_D1Lx_obj_V1.2E2.2E0.5Cvlib.5Capp.5Cgfx_apps.5Csimple_draw_d1l2.5Ctarget.5Cd1lx_mango_ghs.5Cobj.5Cr_dev_clk.206::
                        4053 .LDWlin206:
00000cfe 3b0f0100       4054 	ld.w	0[r27],r1
00000d02 2b0600000000*  4055 	mov	_loc_ClockTree,r11
00000d08 c30a           4056 	shl	3,r1
00000d0a dd09           4057 	add	r29,r1
00000d0c c20a           4058 	shl	2,r1
00000d0e 01f0           4059 	mov	r1,ep
00000d10 cbf1           4060 	add	r11,ep

                                                                      Page 70
                                                              C:\Users\YINGAO~1\AppData\Local\Temp\gh_00007041.si
00000d12 000d           4061 	sld.w	0[ep],r1
00000d14 0106ecff       4062 	addi	-20,r1,zero
00000d18 fa15*          4063 	bne	.L2372
                        4064 --1435:             {
                        4065 --1436:                 match_found = R_TRUE;
                        4066 --line1436
                        4067 ..lin.D.3A.5CRenesas_Electronics.5CD1x_RGL.5Crgl_ghs_D1Lx_obj_V1.2E2.2E0.5Cvlib.5Capp.5Cgfx_apps.5Csimple_draw_d1l2.5Ctarget.5Cd1lx_mango_ghs.5Cobj.5Cr_dev_clk.207::
                        4068 .LDWlin207:
00000d1a 015a           4069 	mov	1,r11
00000d1c 435f0300       4070 	st.b	r11,3[sp]
00000d20 b515*          4071 	br	.L2372
                        4072 .L2367:
                        4073 --1437:             }
                        4074 --1438:             else
                        4075 --1439:             {
                        4076 --1440:                 /* nothing */
                        4077 --1441:             }
                        4078 --1442:         }
                        4079 --1443:         else if (loc_ClockTree[ClkSelCfg->Cks][i] == ClkSelCfg->SrcId)
                        4080 --line1443
                        4081 ..lin.D.3A.5CRenesas_Electronics.5CD1x_RGL.5Crgl_ghs_D1Lx_obj_V1.2E2.2E0.5Cvlib.5Capp.5Cgfx_apps.5Csimple_draw_d1l2.5Ctarget.5Cd1lx_mango_ghs.5Cobj.5Cr_dev_clk.208::
                        4082 .LDWlin208:
00000d22 3b0f0100       4083 	ld.w	0[r27],r1
00000d26 2b0600000000*  4084 	mov	_loc_ClockTree,r11
00000d2c c30a           4085 	shl	3,r1
00000d2e dd09           4086 	add	r29,r1
00000d30 c20a           4087 	shl	2,r1
00000d32 01f0           4088 	mov	r1,ep
00000d34 cbf1           4089 	add	r11,ep
00000d36 3b0f0500       4090 	ld.w	4[r27],r1
00000d3a 0075           4091 	sld.w	0[ep],r14
00000d3c e171           4092 	cmp	r1,r14
00000d3e ca05*          4093 	bne	.L2372
                        4094 --1444:         {
                        4095 --1445:             match_found = R_TRUE;
                        4096 --line1445
                        4097 ..lin.D.3A.5CRenesas_Electronics.5CD1x_RGL.5Crgl_ghs_D1Lx_obj_V1.2E2.2E0.5Cvlib.5Capp.5Cgfx_apps.5Csimple_draw_d1l2.5Ctarget.5Cd1lx_mango_ghs.5Cobj.5Cr_dev_clk.209::
                        4098 .LDWlin209:
00000d40 015a           4099 	mov	1,r11
00000d42 435f0300       4100 	st.b	r11,3[sp]
                        4101 .L2372:
                        4102 --1446:         }
                        4103 --1447:         else
                        4104 --1448:         {
                        4105 --1449:             /* nothing */
                        4106 --1450:         }
                        4107 --1452:         if(R_TRUE == match_found)
00000d46 a35f0300       4108 	ld.bu	3[sp],r11
00000d4a 615a           4109 	cmp	1,r11
00000d4c aa05*          4110 	bne	.L2376
                        4111 --1453:         {
                        4112 --1454:             /* index found so break out */
                        4113 --1455:             break;
                        4114 --line1455
                        4115 ..lin.D.3A.5CRenesas_Electronics.5CD1x_RGL.5Crgl_ghs_D1Lx_obj_V1.2E2.2E0.5Cvlib.5Capp.5Cgfx_apps.5Csimple_draw_d1l2.5Ctarget.5Cd1lx_mango_ghs.5Cobj.5Cr_dev_clk.210::
                        4116 .LDWlin210:
00000d4e d505*          4117 	br	.L2378
                        4118 .L2376:
                        4119 --line1429
                        4120 ..lin.D.3A.5CRenesas_Electronics.5CD1x_RGL.5Crgl_ghs_D1Lx_obj_V1.2E2.2E0.5Cvlib.5Capp.5Cgfx_apps.5Csimple_draw_d1l2.5Ctarget.5Cd1lx_mango_ghs.5Cobj.5Cr_dev_clk.211::
                        4121 .LDWlin211:

                                                                      Page 71
                                                              C:\Users\YINGAO~1\AppData\Local\Temp\gh_00007041.si
00000d50 41ea           4122 	add	1,r29
00000d52 9d00           4123 	zxb	r29
00000d54 68ea           4124 	cmp	8,r29
00000d56 81d5*          4125 	bl	.L2366
                        4126 .L2378:
                        4127 --1456:         }
                        4128 --1457:     }
                        4129 --1459:     if (i < 8) /* we found a match */
                        4130 --line1459
                        4131 ..lin.D.3A.5CRenesas_Electronics.5CD1x_RGL.5Crgl_ghs_D1Lx_obj_V1.2E2.2E0.5Cvlib.5Capp.5Cgfx_apps.5Csimple_draw_d1l2.5Ctarget.5Cd1lx_mango_ghs.5Cobj.5Cr_dev_clk.212::
                        4132 .LDWlin212:
00000d58 68ea           4133 	cmp	8,r29
00000d5a b905*          4134 	bnl	.L2380
                        4135 --1460:     {
                        4136 --1461:         cks_sel = i;
                        4137 --line1461
                        4138 ..lin.D.3A.5CRenesas_Electronics.5CD1x_RGL.5Crgl_ghs_D1Lx_obj_V1.2E2.2E0.5Cvlib.5Capp.5Cgfx_apps.5Csimple_draw_d1l2.5Ctarget.5Cd1lx_mango_ghs.5Cobj.5Cr_dev_clk.213::
                        4139 .LDWlin213:
00000d5c 1dc8           4140 	mov	r29,r25
00000d5e e505*          4141 	br	.L2382
                        4142 .L2380:
                        4143 --1462:     }
                        4144 --1463:     else
                        4145 --1464:     {
                        4146 --1465:         R_DEV_ERROR((uint32_t)ClkSelCfg->SrcId, R_DEV_ERR_IDX, "Bad clock config!");
                        4147 --line1465
                        4148 ..lin.D.3A.5CRenesas_Electronics.5CD1x_RGL.5Crgl_ghs_D1Lx_obj_V1.2E2.2E0.5Cvlib.5Capp.5Cgfx_apps.5Csimple_draw_d1l2.5Ctarget.5Cd1lx_mango_ghs.5Cobj.5Cr_dev_clk.214::
                        4149 .LDWlin214:
00000d60 3b370500       4150 	ld.w	4[r27],r6
00000d64 083a           4151 	mov	8,r7
                        4152 	jarl	_R_DEV_ErrorHandler,lp
                        4152 <EXPANSION BEGIN>
                        4152 jarl22 _R_DEV_ErrorHandler , lp 
00000d66 80ff0000*      4152 <EXPANSION END>
                        4153 .L2382:
                        4154 --1467:     }
                        4155 --1468:     if (0 != div_addr) /* we do have a divider register */
                        4156 --line1468
                        4157 ..lin.D.3A.5CRenesas_Electronics.5CD1x_RGL.5Crgl_ghs_D1Lx_obj_V1.2E2.2E0.5Cvlib.5Capp.5Cgfx_apps.5Csimple_draw_d1l2.5Ctarget.5Cd1lx_mango_ghs.5Cobj.5Cr_dev_clk.215::
                        4158 .LDWlin215:
00000d6a e0e1           4159 	cmp	zero,r28
00000d6c e2073f02*      4160 	be	.L2448
                        4161 --1469:     {
                        4162 --1470:         /* Find out what kind of divider we have */
                        4163 --1472:         /* Find the right Div setting */
                        4164 --1473:         /* Using cks_sel to access the loc_ClkSelDiv table is safe as long
                        4165 --1474:            as we do not have more valid clock ids then divider ids */
                        4166 --1475:         if (LOC_F == loc_ClkSelDiv[div_idx][cks_sel])
                        4167 --line1475
                        4168 ..lin.D.3A.5CRenesas_Electronics.5CD1x_RGL.5Crgl_ghs_D1Lx_obj_V1.2E2.2E0.5Cvlib.5Capp.5Cgfx_apps.5Csimple_draw_d1l2.5Ctarget.5Cd1lx_mango_ghs.5Cobj.5Cr_dev_clk.216::
                        4169 .LDWlin216:
00000d70 e30f0700       4170 	ld.hu	6[sp],r1
00000d74 2b0600000000*  4171 	mov	_loc_ClkSelDiv,r11
00000d7a c30a           4172 	shl	3,r1
00000d7c d909           4173 	add	r25,r1
00000d7e c10a           4174 	shl	1,r1
00000d80 01f0           4175 	mov	r1,ep
00000d82 cbf1           4176 	add	r11,ep
00000d84 7008           4177 	sld.hu	0[ep],r1
00000d86 a106fefe       4178 	xori	65278,r1,zero
00000d8a da7d*          4179 	bne	.L2385

                                                                      Page 72
                                                              C:\Users\YINGAO~1\AppData\Local\Temp\gh_00007041.si
                        4180 --1476:         {
                        4181 --1477:             /* For the selected source the divider value is written directly to the register */
                        4182 --1478:             if (ClkSelCfg->Cks < R_DEV_CKS_AWO_LAST)
                        4183 --line1478
                        4184 ..lin.D.3A.5CRenesas_Electronics.5CD1x_RGL.5Crgl_ghs_D1Lx_obj_V1.2E2.2E0.5Cvlib.5Capp.5Cgfx_apps.5Csimple_draw_d1l2.5Ctarget.5Cd1lx_mango_ghs.5Cobj.5Cr_dev_clk.217::
                        4185 .LDWlin217:
00000d8c 3b0f0100       4186 	ld.w	0[r27],r1
00000d90 640a           4187 	cmp	4,r1
00000d92 ae25*          4188 	bge	.L2387
                        4189 --1479:             {
                        4190 --1480:                 R_DEV_WRITE_PROT_REG(LOC_PROTCMD0, div_addr, (uint32_t)ClkSelCfg->Div);
                        4191 --	    .bs
                        4192 .LDW53:
                        4193 --line1480
                        4194 ..lin.D.3A.5CRenesas_Electronics.5CD1x_RGL.5Crgl_ghs_D1Lx_obj_V1.2E2.2E0.5Cvlib.5Capp.5Cgfx_apps.5Csimple_draw_d1l2.5Ctarget.5Cd1lx_mango_ghs.5Cobj.5Cr_dev_clk.218::
                        4195 .LDWlin218:
00000d94 000a           4196 	mov	0,r1
00000d96 0072           4197 	mov	0,r14
00000d98 0000           4198 	nop
                        4199 .L2391:
00000d9a 206ea500       4200 	movea	165,zero,r13
00000d9e 80070f6800f0   4201 	st.w	r13,4294443008[zero]
00000da4 fb6f0900       4202 	ld.hu	8[r27],r13
00000da8 7c6f0100       4203 	st.w	r13,0[r28]
00000dac fb6f0900       4204 	ld.hu	8[r27],r13
00000db0 2d68           4205 	not	r13,r13
00000db2 7c6f0100       4206 	st.w	r13,0[r28]
00000db6 fb6f0900       4207 	ld.hu	8[r27],r13
00000dba 7c6f0100       4208 	st.w	r13,0[r28]
00000dbe 8007490800f0   4209 	ld.w	4294443012[zero],r1
00000dc4 3c770100       4210 	ld.w	0[r28],r14
00000dc8 fb6f0900       4211 	ld.hu	8[r27],r13
00000dcc ed71           4212 	cmp	r13,r14
00000dce a24d*          4213 	be	.L2393
00000dd0 e009           4214 	cmp	zero,r1
00000dd2 cae5*          4215 	bne	.L2391
                        4216 --	    .es
                        4217 .LDW63:
                        4218 --line1480
                        4219 ..lin.D.3A.5CRenesas_Electronics.5CD1x_RGL.5Crgl_ghs_D1Lx_obj_V1.2E2.2E0.5Cvlib.5Capp.5Cgfx_apps.5Csimple_draw_d1l2.5Ctarget.5Cd1lx_mango_ghs.5Cobj.5Cr_dev_clk.219::
                        4220 .LDWlin219:
00000dd4 f545*          4221 	br	.L2393
                        4222 .L2387:
                        4223 --1481:             }
                        4224 --1482:             else if(div_addr >= LOC_CPUSS_CKS_BASE_ADDR)
                        4225 --line1482
                        4226 ..lin.D.3A.5CRenesas_Electronics.5CD1x_RGL.5Crgl_ghs_D1Lx_obj_V1.2E2.2E0.5Cvlib.5Capp.5Cgfx_apps.5Csimple_draw_d1l2.5Ctarget.5Cd1lx_mango_ghs.5Cobj.5Cr_dev_clk.220::
                        4227 .LDWlin220:
00000dd6 210600a0f8ff   4228 	mov	-483328,r1
00000ddc e1e1           4229 	cmp	r1,r28
00000dde a125*          4230 	bl	.L2394
                        4231 --1483:             {
                        4232 --1484:                 R_DEV_WRITE_PROT_REG(LOC_PROTCMD1, div_addr, (uint32_t)ClkSelCfg->Div);
                        4233 --	    .bs
                        4234 .LDW73:
                        4235 --line1484
                        4236 ..lin.D.3A.5CRenesas_Electronics.5CD1x_RGL.5Crgl_ghs_D1Lx_obj_V1.2E2.2E0.5Cvlib.5Capp.5Cgfx_apps.5Csimple_draw_d1l2.5Ctarget.5Cd1lx_mango_ghs.5Cobj.5Cr_dev_clk.221::
                        4237 .LDWlin221:
00000de0 000a           4238 	mov	0,r1
00000de2 0072           4239 	mov	0,r14
00000de4 0000           4240 	nop

                                                                      Page 73
                                                              C:\Users\YINGAO~1\AppData\Local\Temp\gh_00007041.si
                        4241 .L2398:
00000de6 206ea500       4242 	movea	165,zero,r13
00000dea 80070f6800f1   4243 	st.w	r13,4294475776[zero]
00000df0 fb6f0900       4244 	ld.hu	8[r27],r13
00000df4 7c6f0100       4245 	st.w	r13,0[r28]
00000df8 fb6f0900       4246 	ld.hu	8[r27],r13
00000dfc 2d68           4247 	not	r13,r13
00000dfe 7c6f0100       4248 	st.w	r13,0[r28]
00000e02 fb6f0900       4249 	ld.hu	8[r27],r13
00000e06 7c6f0100       4250 	st.w	r13,0[r28]
00000e0a 8007490800f1   4251 	ld.w	4294475780[zero],r1
00000e10 3c770100       4252 	ld.w	0[r28],r14
00000e14 fb6f0900       4253 	ld.hu	8[r27],r13
00000e18 ed71           4254 	cmp	r13,r14
00000e1a c225*          4255 	be	.L2393
00000e1c e009           4256 	cmp	zero,r1
00000e1e cae5*          4257 	bne	.L2398
                        4258 --	    .es
                        4259 .LDW83:
                        4260 --line1484
                        4261 ..lin.D.3A.5CRenesas_Electronics.5CD1x_RGL.5Crgl_ghs_D1Lx_obj_V1.2E2.2E0.5Cvlib.5Capp.5Cgfx_apps.5Csimple_draw_d1l2.5Ctarget.5Cd1lx_mango_ghs.5Cobj.5Cr_dev_clk.222::
                        4262 .LDWlin222:
00000e20 9525*          4263 	br	.L2393
                        4264 .L2394:
                        4265 --1485:             }
                        4266 --1486:             else
                        4267 --1487:             {
                        4268 --1488:                 R_DEV_WRITE_PROT_REG(LOC_PROTCMDD1, div_addr, (uint32_t)ClkSelCfg->Div);
                        4269 --	    .bs
                        4270 .LDW93:
                        4271 --line1488
                        4272 ..lin.D.3A.5CRenesas_Electronics.5CD1x_RGL.5Crgl_ghs_D1Lx_obj_V1.2E2.2E0.5Cvlib.5Capp.5Cgfx_apps.5Csimple_draw_d1l2.5Ctarget.5Cd1lx_mango_ghs.5Cobj.5Cr_dev_clk.223::
                        4273 .LDWlin223:
00000e22 000a           4274 	mov	0,r1
00000e24 0072           4275 	mov	0,r14
00000e26 0000           4276 	nop
                        4277 .L2403:
00000e28 206ea500       4278 	movea	165,zero,r13
00000e2c 80070f68e0f0   4279 	st.w	r13,4294471680[zero]
00000e32 fb6f0900       4280 	ld.hu	8[r27],r13
00000e36 7c6f0100       4281 	st.w	r13,0[r28]
00000e3a fb6f0900       4282 	ld.hu	8[r27],r13
00000e3e 2d68           4283 	not	r13,r13
00000e40 7c6f0100       4284 	st.w	r13,0[r28]
00000e44 fb6f0900       4285 	ld.hu	8[r27],r13
00000e48 7c6f0100       4286 	st.w	r13,0[r28]
00000e4c 80074908e0f0   4287 	ld.w	4294471684[zero],r1
00000e52 3c770100       4288 	ld.w	0[r28],r14
00000e56 fb6f0900       4289 	ld.hu	8[r27],r13
00000e5a ed71           4290 	cmp	r13,r14
00000e5c b205*          4291 	be	.L2393
00000e5e e009           4292 	cmp	zero,r1
00000e60 cae5*          4293 	bne	.L2403
                        4294 --	    .es
                        4295 .LDW04:
                        4296 .L2393:
                        4297 --1489:             }
                        4298 --1490:             div_sel = ClkSelCfg->Div;
                        4299 --line1490
                        4300 ..lin.D.3A.5CRenesas_Electronics.5CD1x_RGL.5Crgl_ghs_D1Lx_obj_V1.2E2.2E0.5Cvlib.5Capp.5Cgfx_apps.5Csimple_draw_d1l2.5Ctarget.5Cd1lx_mango_ghs.5Cobj.5Cr_dev_clk.224::
                        4301 .LDWlin224:

                                                                      Page 74
                                                              C:\Users\YINGAO~1\AppData\Local\Temp\gh_00007041.si
00000e62 fb5f0900       4302 	ld.hu	8[r27],r11
00000e66 635f0400       4303 	st.h	r11,4[sp]
                        4304 --1491:             /* check setting */
                        4305 --1492:             if (0 == div_sel) /* Clock set to disabled */
00000e6a e35f0500       4306 	ld.hu	4[sp],r11
00000e6e e059           4307 	cmp	zero,r11
00000e70 ea073b01*      4308 	bne	.L2448
                        4309 --1493:             {
                        4310 --1494:                 while (((R_DEV_READ_REG(32, div_addr + LOC_CKS_S) & 0x2ul) == 0x20ul))
                        4311 --line1494
                        4312 ..lin.D.3A.5CRenesas_Electronics.5CD1x_RGL.5Crgl_ghs_D1Lx_obj_V1.2E2.2E0.5Cvlib.5Capp.5Cgfx_apps.5Csimple_draw_d1l2.5Ctarget.5Cd1lx_mango_ghs.5Cobj.5Cr_dev_clk.225::
                        4313 .LDWlin225:
00000e74 0000           4314 	nop
                        4315 .L2407:
                        4316 --1495:                 {
00000e76 3c6f0500       4317 	ld.w	4[r28],r13
00000e7a 0006e0ff       4318 	addi	-32,zero,zero
00000e7e c2fd*          4319 	be	.L2407
00000e80 80072a01*      4320 	br	.L2448
                        4321 .L2385:
                        4322 --1496:                 }
                        4323 --1497:             }
                        4324 --1498:             else /* clock src might be not set up yet,
                        4325 --1499:                     do not wait here for status active, will be checked later */
                        4326 --1500:             {
                        4327 --1501:             }
                        4328 --1502:         }
                        4329 --1503:         else if (LOC_N == loc_ClkSelDiv[div_idx][cks_sel])
                        4330 --line1503
                        4331 ..lin.D.3A.5CRenesas_Electronics.5CD1x_RGL.5Crgl_ghs_D1Lx_obj_V1.2E2.2E0.5Cvlib.5Capp.5Cgfx_apps.5Csimple_draw_d1l2.5Ctarget.5Cd1lx_mango_ghs.5Cobj.5Cr_dev_clk.226::
                        4332 .LDWlin226:
00000e84 e30f0700       4333 	ld.hu	6[sp],r1
00000e88 2b0600000000*  4334 	mov	_loc_ClkSelDiv,r11
00000e8e c30a           4335 	shl	3,r1
00000e90 d909           4336 	add	r25,r1
00000e92 c10a           4337 	shl	1,r1
00000e94 01f0           4338 	mov	r1,ep
00000e96 cbf1           4339 	add	r11,ep
00000e98 7008           4340 	sld.hu	0[ep],r1
00000e9a a106ffff       4341 	xori	65535,r1,zero
00000e9e fa05*          4342 	bne	.L2412
                        4343 --1504:         {
                        4344 --1505:             /* For the selected clock source, there is no divider setting at all  */
                        4345 --1506:             div_sel = LOC_N;
                        4346 --line1506
                        4347 ..lin.D.3A.5CRenesas_Electronics.5CD1x_RGL.5Crgl_ghs_D1Lx_obj_V1.2E2.2E0.5Cvlib.5Capp.5Cgfx_apps.5Csimple_draw_d1l2.5Ctarget.5Cd1lx_mango_ghs.5Cobj.5Cr_dev_clk.227::
                        4348 .LDWlin227:
00000ea0 805effff       4349 	ori	65535,zero,r11
00000ea4 635f0400       4350 	st.h	r11,4[sp]
00000ea8 80070201*      4351 	br	.L2448
                        4352 .L2412:
                        4353 --1507:         }
                        4354 --1508:         else /* all others dividers settings */
                        4355 --1509:         {
                        4356 --1510:             for (i = 0; i < 8; i++)
                        4357 --line1510
                        4358 ..lin.D.3A.5CRenesas_Electronics.5CD1x_RGL.5Crgl_ghs_D1Lx_obj_V1.2E2.2E0.5Cvlib.5Capp.5Cgfx_apps.5Csimple_draw_d1l2.5Ctarget.5Cd1lx_mango_ghs.5Cobj.5Cr_dev_clk.228::
                        4359 .LDWlin228:
00000eac 00ea           4360 	mov	0,r29
00000eae 0000           4361 	nop
                        4362 .L2417:

                                                                      Page 75
                                                              C:\Users\YINGAO~1\AppData\Local\Temp\gh_00007041.si
                        4363 --1511:             {
                        4364 --1512:                 if (loc_ClkSelDiv[div_idx][i] == (uint16_t) ClkSelCfg->Div)
00000eb0 e30f0700       4365 	ld.hu	6[sp],r1
00000eb4 2b0600000000*  4366 	mov	_loc_ClkSelDiv,r11
00000eba c30a           4367 	shl	3,r1
00000ebc dd09           4368 	add	r29,r1
00000ebe c10a           4369 	shl	1,r1
00000ec0 01f0           4370 	mov	r1,ep
00000ec2 cbf1           4371 	add	r11,ep
00000ec4 fb0f0900       4372 	ld.hu	8[r27],r1
00000ec8 7070           4373 	sld.hu	0[ep],r14
00000eca e171           4374 	cmp	r1,r14
00000ecc aa05*          4375 	bne	.L2418
                        4376 --1513:                 {
                        4377 --1514:                     break;
                        4378 --line1514
                        4379 ..lin.D.3A.5CRenesas_Electronics.5CD1x_RGL.5Crgl_ghs_D1Lx_obj_V1.2E2.2E0.5Cvlib.5Capp.5Cgfx_apps.5Csimple_draw_d1l2.5Ctarget.5Cd1lx_mango_ghs.5Cobj.5Cr_dev_clk.229::
                        4380 .LDWlin229:
00000ece d505*          4381 	br	.L2420
                        4382 .L2418:
                        4383 --line1510
                        4384 ..lin.D.3A.5CRenesas_Electronics.5CD1x_RGL.5Crgl_ghs_D1Lx_obj_V1.2E2.2E0.5Cvlib.5Capp.5Cgfx_apps.5Csimple_draw_d1l2.5Ctarget.5Cd1lx_mango_ghs.5Cobj.5Cr_dev_clk.230::
                        4385 .LDWlin230:
00000ed0 41ea           4386 	add	1,r29
00000ed2 9d00           4387 	zxb	r29
00000ed4 68ea           4388 	cmp	8,r29
00000ed6 d1ed*          4389 	bl	.L2417
                        4390 .L2420:
                        4391 --1515:                 }
                        4392 --1516:             }
                        4393 --1517:             if (i < 8) /* we found a match */
                        4394 --line1517
                        4395 ..lin.D.3A.5CRenesas_Electronics.5CD1x_RGL.5Crgl_ghs_D1Lx_obj_V1.2E2.2E0.5Cvlib.5Capp.5Cgfx_apps.5Csimple_draw_d1l2.5Ctarget.5Cd1lx_mango_ghs.5Cobj.5Cr_dev_clk.231::
                        4396 .LDWlin231:
00000ed8 68ea           4397 	cmp	8,r29
00000eda f955*          4398 	bnl	.L2422
                        4399 --1518:             {
                        4400 --1519:                 /* Write ID */
                        4401 --1520:                 if (ClkSelCfg->Cks < R_DEV_CKS_AWO_LAST)
                        4402 --line1520
                        4403 ..lin.D.3A.5CRenesas_Electronics.5CD1x_RGL.5Crgl_ghs_D1Lx_obj_V1.2E2.2E0.5Cvlib.5Capp.5Cgfx_apps.5Csimple_draw_d1l2.5Ctarget.5Cd1lx_mango_ghs.5Cobj.5Cr_dev_clk.232::
                        4404 .LDWlin232:
00000edc 3b0f0100       4405 	ld.w	0[r27],r1
00000ee0 640a           4406 	cmp	4,r1
00000ee2 ae1d*          4407 	bge	.L2424
                        4408 --1521:                 {
                        4409 --1522:                     R_DEV_WRITE_PROT_REG(LOC_PROTCMD0, div_addr, (uint32_t)i);
                        4410 --	    .bs
                        4411 .LDW14:
                        4412 --line1522
                        4413 ..lin.D.3A.5CRenesas_Electronics.5CD1x_RGL.5Crgl_ghs_D1Lx_obj_V1.2E2.2E0.5Cvlib.5Capp.5Cgfx_apps.5Csimple_draw_d1l2.5Ctarget.5Cd1lx_mango_ghs.5Cobj.5Cr_dev_clk.233::
                        4414 .LDWlin233:
00000ee4 000a           4415 	mov	0,r1
00000ee6 0072           4416 	mov	0,r14
00000ee8 0000           4417 	nop
                        4418 .L2428:
00000eea 206ea500       4419 	movea	165,zero,r13
00000eee 80070f6800f0   4420 	st.w	r13,4294443008[zero]
00000ef4 7cef0100       4421 	st.w	r29,0[r28]
00000ef8 3d68           4422 	not	r29,r13
00000efa 7c6f0100       4423 	st.w	r13,0[r28]

                                                                      Page 76
                                                              C:\Users\YINGAO~1\AppData\Local\Temp\gh_00007041.si
00000efe 7cef0100       4424 	st.w	r29,0[r28]
00000f02 8007490800f0   4425 	ld.w	4294443012[zero],r1
00000f08 3c770100       4426 	ld.w	0[r28],r14
00000f0c fd71           4427 	cmp	r29,r14
00000f0e a23d*          4428 	be	.L2430
00000f10 e009           4429 	cmp	zero,r1
00000f12 caed*          4430 	bne	.L2428
                        4431 --	    .es
                        4432 .LDW24:
                        4433 --line1522
                        4434 ..lin.D.3A.5CRenesas_Electronics.5CD1x_RGL.5Crgl_ghs_D1Lx_obj_V1.2E2.2E0.5Cvlib.5Capp.5Cgfx_apps.5Csimple_draw_d1l2.5Ctarget.5Cd1lx_mango_ghs.5Cobj.5Cr_dev_clk.234::
                        4435 .LDWlin234:
00000f14 f535*          4436 	br	.L2430
                        4437 .L2424:
                        4438 --1523:                 }
                        4439 --1524:                 else if(div_addr >= LOC_CPUSS_CKS_BASE_ADDR)
                        4440 --line1524
                        4441 ..lin.D.3A.5CRenesas_Electronics.5CD1x_RGL.5Crgl_ghs_D1Lx_obj_V1.2E2.2E0.5Cvlib.5Capp.5Cgfx_apps.5Csimple_draw_d1l2.5Ctarget.5Cd1lx_mango_ghs.5Cobj.5Cr_dev_clk.235::
                        4442 .LDWlin235:
00000f16 210600a0f8ff   4443 	mov	-483328,r1
00000f1c e1e1           4444 	cmp	r1,r28
00000f1e a11d*          4445 	bl	.L2431
                        4446 --1525:                 {
                        4447 --1526:                     R_DEV_WRITE_PROT_REG(LOC_PROTCMD1, div_addr, (uint32_t)i);
                        4448 --	    .bs
                        4449 .LDW34:
                        4450 --line1526
                        4451 ..lin.D.3A.5CRenesas_Electronics.5CD1x_RGL.5Crgl_ghs_D1Lx_obj_V1.2E2.2E0.5Cvlib.5Capp.5Cgfx_apps.5Csimple_draw_d1l2.5Ctarget.5Cd1lx_mango_ghs.5Cobj.5Cr_dev_clk.236::
                        4452 .LDWlin236:
00000f20 000a           4453 	mov	0,r1
00000f22 0072           4454 	mov	0,r14
00000f24 0000           4455 	nop
                        4456 .L2435:
00000f26 206ea500       4457 	movea	165,zero,r13
00000f2a 80070f6800f1   4458 	st.w	r13,4294475776[zero]
00000f30 7cef0100       4459 	st.w	r29,0[r28]
00000f34 3d68           4460 	not	r29,r13
00000f36 7c6f0100       4461 	st.w	r13,0[r28]
00000f3a 7cef0100       4462 	st.w	r29,0[r28]
00000f3e 8007490800f1   4463 	ld.w	4294475780[zero],r1
00000f44 3c770100       4464 	ld.w	0[r28],r14
00000f48 fd71           4465 	cmp	r29,r14
00000f4a c21d*          4466 	be	.L2430
00000f4c e009           4467 	cmp	zero,r1
00000f4e caed*          4468 	bne	.L2435
                        4469 --	    .es
                        4470 .LDW44:
                        4471 --line1526
                        4472 ..lin.D.3A.5CRenesas_Electronics.5CD1x_RGL.5Crgl_ghs_D1Lx_obj_V1.2E2.2E0.5Cvlib.5Capp.5Cgfx_apps.5Csimple_draw_d1l2.5Ctarget.5Cd1lx_mango_ghs.5Cobj.5Cr_dev_clk.237::
                        4473 .LDWlin237:
00000f50 951d*          4474 	br	.L2430
                        4475 .L2431:
                        4476 --1527:                 }
                        4477 --1528:                 else
                        4478 --1529:                 {
                        4479 --1530:                     R_DEV_WRITE_PROT_REG(LOC_PROTCMDD1, div_addr, (uint32_t)i);
                        4480 --	    .bs
                        4481 .LDW54:
                        4482 --line1530
                        4483 ..lin.D.3A.5CRenesas_Electronics.5CD1x_RGL.5Crgl_ghs_D1Lx_obj_V1.2E2.2E0.5Cvlib.5Capp.5Cgfx_apps.5Csimple_draw_d1l2.5Ctarget.5Cd1lx_mango_ghs.5Cobj.5Cr_dev_clk.238::
                        4484 .LDWlin238:

                                                                      Page 77
                                                              C:\Users\YINGAO~1\AppData\Local\Temp\gh_00007041.si
00000f52 000a           4485 	mov	0,r1
00000f54 0072           4486 	mov	0,r14
00000f56 0000           4487 	nop
                        4488 .L2440:
00000f58 206ea500       4489 	movea	165,zero,r13
00000f5c 80070f68e0f0   4490 	st.w	r13,4294471680[zero]
00000f62 7cef0100       4491 	st.w	r29,0[r28]
00000f66 3d68           4492 	not	r29,r13
00000f68 7c6f0100       4493 	st.w	r13,0[r28]
00000f6c 7cef0100       4494 	st.w	r29,0[r28]
00000f70 80074908e0f0   4495 	ld.w	4294471684[zero],r1
00000f76 3c770100       4496 	ld.w	0[r28],r14
00000f7a fd71           4497 	cmp	r29,r14
00000f7c b205*          4498 	be	.L2430
00000f7e e009           4499 	cmp	zero,r1
00000f80 caed*          4500 	bne	.L2440
                        4501 --	    .es
                        4502 .LDW64:
                        4503 .L2430:
                        4504 --1531:                 }
                        4505 --1532:                 div_sel = i;
                        4506 --line1532
                        4507 ..lin.D.3A.5CRenesas_Electronics.5CD1x_RGL.5Crgl_ghs_D1Lx_obj_V1.2E2.2E0.5Cvlib.5Capp.5Cgfx_apps.5Csimple_draw_d1l2.5Ctarget.5Cd1lx_mango_ghs.5Cobj.5Cr_dev_clk.239::
                        4508 .LDWlin239:
00000f82 63ef0400       4509 	st.h	r29,4[sp]
00000f86 f505*          4510 	br	.L2442
                        4511 .L2422:
                        4512 --1533:             }
                        4513 --1534:             else
                        4514 --1535:             {
                        4515 --1536:                 R_DEV_ERROR((uint32_t)ClkSelCfg->Div, R_DEV_ERR_RANGE, "Bad divider config!");
                        4516 --line1536
                        4517 ..lin.D.3A.5CRenesas_Electronics.5CD1x_RGL.5Crgl_ghs_D1Lx_obj_V1.2E2.2E0.5Cvlib.5Capp.5Cgfx_apps.5Csimple_draw_d1l2.5Ctarget.5Cd1lx_mango_ghs.5Cobj.5Cr_dev_clk.240::
                        4518 .LDWlin240:
00000f88 fb370900       4519 	ld.hu	8[r27],r6
00000f8c 203e2000       4520 	movea	32,zero,r7
                        4521 	jarl	_R_DEV_ErrorHandler,lp
                        4521 <EXPANSION BEGIN>
                        4521 jarl22 _R_DEV_ErrorHandler , lp 
00000f90 80ff0000*      4521 <EXPANSION END>
                        4522 .L2442:
                        4523 --1537:             }
                        4524 --1538:             /* in case of CPU, make sure to wait for the divider first */
                        4525 --1539:             if (R_DEV_CKS_CPU == ClkSelCfg->Cks)
                        4526 --line1539
                        4527 ..lin.D.3A.5CRenesas_Electronics.5CD1x_RGL.5Crgl_ghs_D1Lx_obj_V1.2E2.2E0.5Cvlib.5Capp.5Cgfx_apps.5Csimple_draw_d1l2.5Ctarget.5Cd1lx_mango_ghs.5Cobj.5Cr_dev_clk.241::
                        4528 .LDWlin241:
00000f94 3b6f0100       4529 	ld.w	0[r27],r13
00000f98 646a           4530 	cmp	4,r13
00000f9a 8a0d*          4531 	bne	.L2448
                        4532 --1540:             {
                        4533 --1541:                 while (R_DEV_READ_REG(32, div_addr + LOC_CKS_A) != (uint32_t)div_sel)
                        4534 --line1541
                        4535 ..lin.D.3A.5CRenesas_Electronics.5CD1x_RGL.5Crgl_ghs_D1Lx_obj_V1.2E2.2E0.5Cvlib.5Capp.5Cgfx_apps.5Csimple_draw_d1l2.5Ctarget.5Cd1lx_mango_ghs.5Cobj.5Cr_dev_clk.242::
                        4536 .LDWlin242:
00000f9c 0000           4537 	nop
                        4538 .L2445:
                        4539 --1542:                 {
00000f9e 3c6f0900       4540 	ld.w	8[r28],r13
00000fa2 e35f0500       4541 	ld.hu	4[sp],r11
00000fa6 eb69           4542 	cmp	r11,r13

                                                                      Page 78
                                                              C:\Users\YINGAO~1\AppData\Local\Temp\gh_00007041.si
00000fa8 bafd*          4543 	bne	.L2445
                        4544 .L2448:
                        4545 --1543:                    /* Wait for setting to become effective */
                        4546 --1544:                 }
                        4547 --1545:             }
                        4548 --1547:         }
                        4549 --1548:     }
                        4550 --1549:     else /* if (0 != loc_CkcsBaseAddr[ClkSelCfg->Cks].Div) ->  we do NOT have a divider */
                        4551 --1550:     {
                        4552 --1552:     }
                        4553 --1553:      /* check if we have an address or a direct source clock setting */
                        4554 --1554:     if (sel_addr > (uint32_t) R_DEV_CKS_SRC_LAST)
                        4555 --line1554
                        4556 ..lin.D.3A.5CRenesas_Electronics.5CD1x_RGL.5Crgl_ghs_D1Lx_obj_V1.2E2.2E0.5Cvlib.5Capp.5Cgfx_apps.5Csimple_draw_d1l2.5Ctarget.5Cd1lx_mango_ghs.5Cobj.5Cr_dev_clk.243::
                        4557 .LDWlin243:
00000faa 1a06ddff       4558 	addi	-35,r26,zero
00000fae c955*          4559 	bnl	.L2449
                        4560 --1555:     {
                        4561 --1556:         /* The address is valid */
                        4562 --1557:         /* Write ID */
                        4563 --1558:         if (ClkSelCfg->Cks < R_DEV_CKS_AWO_LAST)
                        4564 --line1558
                        4565 ..lin.D.3A.5CRenesas_Electronics.5CD1x_RGL.5Crgl_ghs_D1Lx_obj_V1.2E2.2E0.5Cvlib.5Capp.5Cgfx_apps.5Csimple_draw_d1l2.5Ctarget.5Cd1lx_mango_ghs.5Cobj.5Cr_dev_clk.244::
                        4566 .LDWlin244:
00000fb0 3b6f0100       4567 	ld.w	0[r27],r13
00000fb4 646a           4568 	cmp	4,r13
00000fb6 ae1d*          4569 	bge	.L2451
                        4570 --1559:         {
                        4571 --1560:             R_DEV_WRITE_PROT_REG(LOC_PROTCMD0, sel_addr, (uint32_t)cks_sel);
                        4572 --	    .bs
                        4573 .LDW74:
                        4574 --line1560
                        4575 ..lin.D.3A.5CRenesas_Electronics.5CD1x_RGL.5Crgl_ghs_D1Lx_obj_V1.2E2.2E0.5Cvlib.5Capp.5Cgfx_apps.5Csimple_draw_d1l2.5Ctarget.5Cd1lx_mango_ghs.5Cobj.5Cr_dev_clk.245::
                        4576 .LDWlin245:
00000fb8 006a           4577 	mov	0,r13
00000fba 0062           4578 	mov	0,r12
00000fbc 0000           4579 	nop
                        4580 .L2455:
00000fbe 205ea500       4581 	movea	165,zero,r11
00000fc2 80070f5800f0   4582 	st.w	r11,4294443008[zero]
00000fc8 7acf0100       4583 	st.w	r25,0[r26]
00000fcc 3958           4584 	not	r25,r11
00000fce 7a5f0100       4585 	st.w	r11,0[r26]
00000fd2 7acf0100       4586 	st.w	r25,0[r26]
00000fd6 8007496800f0   4587 	ld.w	4294443012[zero],r13
00000fdc 3a670100       4588 	ld.w	0[r26],r12
00000fe0 f961           4589 	cmp	r25,r12
00000fe2 a23d*          4590 	be	.L2449
00000fe4 e069           4591 	cmp	zero,r13
00000fe6 caed*          4592 	bne	.L2455
                        4593 --	    .es
                        4594 .LDW84:
                        4595 --line1560
                        4596 ..lin.D.3A.5CRenesas_Electronics.5CD1x_RGL.5Crgl_ghs_D1Lx_obj_V1.2E2.2E0.5Cvlib.5Capp.5Cgfx_apps.5Csimple_draw_d1l2.5Ctarget.5Cd1lx_mango_ghs.5Cobj.5Cr_dev_clk.246::
                        4597 .LDWlin246:
00000fe8 f535*          4598 	br	.L2449
                        4599 .L2451:
                        4600 --1561:         }
                        4601 --1562:         else if(sel_addr >= LOC_CPUSS_CKS_BASE_ADDR)
                        4602 --line1562
                        4603 ..lin.D.3A.5CRenesas_Electronics.5CD1x_RGL.5Crgl_ghs_D1Lx_obj_V1.2E2.2E0.5Cvlib.5Capp.5Cgfx_apps.5Csimple_draw_d1l2.5Ctarget.5Cd1lx_mango_ghs.5Cobj.5Cr_dev_clk.247::

                                                                      Page 79
                                                              C:\Users\YINGAO~1\AppData\Local\Temp\gh_00007041.si
                        4604 .LDWlin247:
00000fea 2d0600a0f8ff   4605 	mov	-483328,r13
00000ff0 edd1           4606 	cmp	r13,r26
00000ff2 a11d*          4607 	bl	.L2458
                        4608 --1563:         {
                        4609 --1564:             R_DEV_WRITE_PROT_REG(LOC_PROTCMD1, sel_addr, (uint32_t)cks_sel);
                        4610 --	    .bs
                        4611 .LDW94:
                        4612 --line1564
                        4613 ..lin.D.3A.5CRenesas_Electronics.5CD1x_RGL.5Crgl_ghs_D1Lx_obj_V1.2E2.2E0.5Cvlib.5Capp.5Cgfx_apps.5Csimple_draw_d1l2.5Ctarget.5Cd1lx_mango_ghs.5Cobj.5Cr_dev_clk.248::
                        4614 .LDWlin248:
00000ff4 006a           4615 	mov	0,r13
00000ff6 0062           4616 	mov	0,r12
00000ff8 0000           4617 	nop
                        4618 .L2462:
00000ffa 205ea500       4619 	movea	165,zero,r11
00000ffe 80070f5800f1   4620 	st.w	r11,4294475776[zero]
00001004 7acf0100       4621 	st.w	r25,0[r26]
00001008 3958           4622 	not	r25,r11
0000100a 7a5f0100       4623 	st.w	r11,0[r26]
0000100e 7acf0100       4624 	st.w	r25,0[r26]
00001012 8007496800f1   4625 	ld.w	4294475780[zero],r13
00001018 3a670100       4626 	ld.w	0[r26],r12
0000101c f961           4627 	cmp	r25,r12
0000101e c21d*          4628 	be	.L2449
00001020 e069           4629 	cmp	zero,r13
00001022 caed*          4630 	bne	.L2462
                        4631 --	    .es
                        4632 .LDW05:
                        4633 --line1564
                        4634 ..lin.D.3A.5CRenesas_Electronics.5CD1x_RGL.5Crgl_ghs_D1Lx_obj_V1.2E2.2E0.5Cvlib.5Capp.5Cgfx_apps.5Csimple_draw_d1l2.5Ctarget.5Cd1lx_mango_ghs.5Cobj.5Cr_dev_clk.249::
                        4635 .LDWlin249:
00001024 951d*          4636 	br	.L2449
                        4637 .L2458:
                        4638 --1565:         }
                        4639 --1566:         else
                        4640 --1567:         {
                        4641 --1568:             R_DEV_WRITE_PROT_REG(LOC_PROTCMDD1, sel_addr, (uint32_t)cks_sel);
                        4642 --	    .bs
                        4643 .LDW15:
                        4644 --line1568
                        4645 ..lin.D.3A.5CRenesas_Electronics.5CD1x_RGL.5Crgl_ghs_D1Lx_obj_V1.2E2.2E0.5Cvlib.5Capp.5Cgfx_apps.5Csimple_draw_d1l2.5Ctarget.5Cd1lx_mango_ghs.5Cobj.5Cr_dev_clk.250::
                        4646 .LDWlin250:
00001026 006a           4647 	mov	0,r13
00001028 0062           4648 	mov	0,r12
0000102a 0000           4649 	nop
                        4650 .L2467:
0000102c 205ea500       4651 	movea	165,zero,r11
00001030 80070f58e0f0   4652 	st.w	r11,4294471680[zero]
00001036 7acf0100       4653 	st.w	r25,0[r26]
0000103a 3958           4654 	not	r25,r11
0000103c 7a5f0100       4655 	st.w	r11,0[r26]
00001040 7acf0100       4656 	st.w	r25,0[r26]
00001044 80074968e0f0   4657 	ld.w	4294471684[zero],r13
0000104a 3a670100       4658 	ld.w	0[r26],r12
0000104e f961           4659 	cmp	r25,r12
00001050 b205*          4660 	be	.L2449
00001052 e069           4661 	cmp	zero,r13
00001054 caed*          4662 	bne	.L2467
                        4663 --	    .es
                        4664 .LDW25:

                                                                      Page 80
                                                              C:\Users\YINGAO~1\AppData\Local\Temp\gh_00007041.si
                        4665 .L2449:
                        4666 --1569:         }
                        4667 --1570:     }
                        4668 --1572:     /* Write stop request mask */
                        4669 --1573:     /* It is mandatory to set bit 1 in  any case */
                        4670 --1574:     if (0 != ClkSelCfg->StpReqMsk)
                        4671 --line1574
                        4672 ..lin.D.3A.5CRenesas_Electronics.5CD1x_RGL.5Crgl_ghs_D1Lx_obj_V1.2E2.2E0.5Cvlib.5Capp.5Cgfx_apps.5Csimple_draw_d1l2.5Ctarget.5Cd1lx_mango_ghs.5Cobj.5Cr_dev_clk.251::
                        4673 .LDWlin251:
00001056 9b5f0b00       4674 	ld.bu	10[r27],r11
0000105a e059           4675 	cmp	zero,r11
0000105c d205*          4676 	be	.L2469
                        4677 --1575:     {
                        4678 --1576:          reg_val = 0x3u;
                        4679 --line1576
                        4680 ..lin.D.3A.5CRenesas_Electronics.5CD1x_RGL.5Crgl_ghs_D1Lx_obj_V1.2E2.2E0.5Cvlib.5Capp.5Cgfx_apps.5Csimple_draw_d1l2.5Ctarget.5Cd1lx_mango_ghs.5Cobj.5Cr_dev_clk.252::
                        4681 .LDWlin252:
0000105e 035a           4682 	mov	3,r11
00001060 635f0900       4683 	st.w	r11,8[sp]
00001064 c505*          4684 	br	.L2471
                        4685 .L2469:
                        4686 --1577:     }
                        4687 --1578:     else
                        4688 --1579:     {
                        4689 --1580:          reg_val = 0x2u;
                        4690 --line1580
                        4691 ..lin.D.3A.5CRenesas_Electronics.5CD1x_RGL.5Crgl_ghs_D1Lx_obj_V1.2E2.2E0.5Cvlib.5Capp.5Cgfx_apps.5Csimple_draw_d1l2.5Ctarget.5Cd1lx_mango_ghs.5Cobj.5Cr_dev_clk.253::
                        4692 .LDWlin253:
00001066 025a           4693 	mov	2,r11
00001068 635f0900       4694 	st.w	r11,8[sp]
                        4695 .L2471:
                        4696 --1581:     }
                        4697 --1582:     /* Stop mask for AWO only */
                        4698 --1583:     if (ClkSelCfg->Cks < R_DEV_CKS_FOUT)
0000106c 3b5f0100       4699 	ld.w	0[r27],r11
00001070 635a           4700 	cmp	3,r11
00001072 ee05*          4701 	bge	.L2472
                        4702 --1584:     {
                        4703 --1585:         R_DEV_WRITE_REG(32, div_addr + LOC_CKS_STPMSK, reg_val);
                        4704 --line1585
                        4705 ..lin.D.3A.5CRenesas_Electronics.5CD1x_RGL.5Crgl_ghs_D1Lx_obj_V1.2E2.2E0.5Cvlib.5Capp.5Cgfx_apps.5Csimple_draw_d1l2.5Ctarget.5Cd1lx_mango_ghs.5Cobj.5Cr_dev_clk.254::
                        4706 .LDWlin254:
00001074 235f0900       4707 	ld.w	8[sp],r11
00001078 7c5f1900       4708 	st.w	r11,24[r28]
0000107c 950d*          4709 	br	.L2474
                        4710 .L2472:
                        4711 --1586:     }
                        4712 --1587:     else if (ClkSelCfg->Cks == R_DEV_CKS_FOUT)
                        4713 --line1587
                        4714 ..lin.D.3A.5CRenesas_Electronics.5CD1x_RGL.5Crgl_ghs_D1Lx_obj_V1.2E2.2E0.5Cvlib.5Capp.5Cgfx_apps.5Csimple_draw_d1l2.5Ctarget.5Cd1lx_mango_ghs.5Cobj.5Cr_dev_clk.255::
                        4715 .LDWlin255:
0000107e 3b5f0100       4716 	ld.w	0[r27],r11
00001082 635a           4717 	cmp	3,r11
00001084 da05*          4718 	bne	.L2474
                        4719 --1588:     {
                        4720 --1589:         R_DEV_WRITE_REG(32, sel_addr + LOC_CKS_STPMSK, reg_val);
                        4721 --line1589
                        4722 ..lin.D.3A.5CRenesas_Electronics.5CD1x_RGL.5Crgl_ghs_D1Lx_obj_V1.2E2.2E0.5Cvlib.5Capp.5Cgfx_apps.5Csimple_draw_d1l2.5Ctarget.5Cd1lx_mango_ghs.5Cobj.5Cr_dev_clk.256::
                        4723 .LDWlin256:
00001086 235f0900       4724 	ld.w	8[sp],r11
0000108a 7a5f1900       4725 	st.w	r11,24[r26]

                                                                      Page 81
                                                              C:\Users\YINGAO~1\AppData\Local\Temp\gh_00007041.si
                        4726 .L2474:
                        4727 --1590:     }
                        4728 --1591:     else
                        4729 --1592:     {
                        4730 --1593:         /* nothing to do here */
                        4731 --1594:     }
                        4732 --1595:     /* Now check the selector settings */
                        4733 --1596:     /* check if we have an address or a direct source clock setting
                        4734 --1597:        If we have an address, there also exist a status register  */
                        4735 --1599:     if (sel_addr > (uint32_t) R_DEV_CKS_SRC_LAST)
0000108e 1a06ddff       4736 	addi	-35,r26,zero
00001092 e905*          4737 	bnl	.L2478
                        4738 --1600:     {
                        4739 --1601:         while (R_DEV_READ_REG(32, sel_addr + LOC_CKS_A) != cks_sel)
                        4740 --line1601
                        4741 ..lin.D.3A.5CRenesas_Electronics.5CD1x_RGL.5Crgl_ghs_D1Lx_obj_V1.2E2.2E0.5Cvlib.5Capp.5Cgfx_apps.5Csimple_draw_d1l2.5Ctarget.5Cd1lx_mango_ghs.5Cobj.5Cr_dev_clk.257::
                        4742 .LDWlin257:
00001094 0000           4743 	nop
                        4744 .L2480:
                        4745 --1602:         {}
00001096 3a5f0900       4746 	ld.w	8[r26],r11
0000109a f959           4747 	cmp	r25,r11
0000109c dafd*          4748 	bne	.L2480
                        4749 .L2478:
                        4750 --1603:     }
                        4751 --1604:     /* Now, check the divider */
                        4752 --1605:     if ((LOC_N != div_sel) && (0xFFu != div_idx) && (0 != div_sel))
                        4753 --line1605
                        4754 ..lin.D.3A.5CRenesas_Electronics.5CD1x_RGL.5Crgl_ghs_D1Lx_obj_V1.2E2.2E0.5Cvlib.5Capp.5Cgfx_apps.5Csimple_draw_d1l2.5Ctarget.5Cd1lx_mango_ghs.5Cobj.5Cr_dev_clk.258::
                        4755 .LDWlin258:
0000109e e35f0500       4756 	ld.hu	4[sp],r11
000010a2 ab06ffff       4757 	xori	65535,r11,zero
000010a6 d225*          4758 	be	.L2483
000010a8 e35f0700       4759 	ld.hu	6[sp],r11
000010ac 0b0601ff       4760 	addi	-255,r11,zero
000010b0 8225*          4761 	be	.L2483
000010b2 e35f0500       4762 	ld.hu	4[sp],r11
000010b6 e059           4763 	cmp	zero,r11
000010b8 c21d*          4764 	be	.L2483
                        4765 --1606:     {
                        4766 --1607:         if (LOC_F != loc_ClkSelDiv[div_idx][cks_sel])
                        4767 --line1607
                        4768 ..lin.D.3A.5CRenesas_Electronics.5CD1x_RGL.5Crgl_ghs_D1Lx_obj_V1.2E2.2E0.5Cvlib.5Capp.5Cgfx_apps.5Csimple_draw_d1l2.5Ctarget.5Cd1lx_mango_ghs.5Cobj.5Cr_dev_clk.259::
                        4769 .LDWlin259:
000010ba e35f0700       4770 	ld.hu	6[sp],r11
000010be c35a           4771 	shl	3,r11
000010c0 d959           4772 	add	r25,r11
000010c2 c15a           4773 	shl	1,r11
000010c4 0bf0           4774 	mov	r11,ep
000010c6 2b0600000000*  4775 	mov	_loc_ClkSelDiv,r11
000010cc cbf1           4776 	add	r11,ep
000010ce 7058           4777 	sld.hu	0[ep],r11
000010d0 ab06fefe       4778 	xori	65278,r11,zero
000010d4 920d*          4779 	be	.L2487
                        4780 --1608:         {
                        4781 --1609:             while (R_DEV_READ_REG(32, div_addr + LOC_CKS_A) != (uint32_t)div_sel)
                        4782 --line1609
                        4783 ..lin.D.3A.5CRenesas_Electronics.5CD1x_RGL.5Crgl_ghs_D1Lx_obj_V1.2E2.2E0.5Cvlib.5Capp.5Cgfx_apps.5Csimple_draw_d1l2.5Ctarget.5Cd1lx_mango_ghs.5Cobj.5Cr_dev_clk.260::
                        4784 .LDWlin260:
000010d6 0000           4785 	nop
                        4786 .L2489:

                                                                      Page 82
                                                              C:\Users\YINGAO~1\AppData\Local\Temp\gh_00007041.si
                        4787 --1610:             {
000010d8 3c5f0900       4788 	ld.w	8[r28],r11
000010dc e3ff0500       4789 	ld.hu	4[sp],lp
000010e0 ff59           4790 	cmp	lp,r11
000010e2 bafd*          4791 	bne	.L2489
000010e4 e505*          4792 	br	.L2483
                        4793 .L2487:
                        4794 --1611:                /* Wait for setting to become effective */
                        4795 --1612:             }
                        4796 --1613:         }
                        4797 --1614:         else
                        4798 --1615:         {
                        4799 --1616:             while (R_DEV_READ_REG(32, div_addr + LOC_CKS_S) != 0x3u)
                        4800 --line1616
                        4801 ..lin.D.3A.5CRenesas_Electronics.5CD1x_RGL.5Crgl_ghs_D1Lx_obj_V1.2E2.2E0.5Cvlib.5Capp.5Cgfx_apps.5Csimple_draw_d1l2.5Ctarget.5Cd1lx_mango_ghs.5Cobj.5Cr_dev_clk.261::
                        4802 .LDWlin261:
000010e6 0000           4803 	nop
                        4804 .L2493:
                        4805 --1617:             {
000010e8 3c5f0500       4806 	ld.w	4[r28],r11
000010ec 635a           4807 	cmp	3,r11
000010ee dafd*          4808 	bne	.L2493
                        4809 .L2483:
                        4810 --1618:             }
                        4811 --1619:         }
                        4812 --1620:     }
                        4813 --1621:     ret_val  = R_ERR_OK;
                        4814 --line1621
                        4815 ..lin.D.3A.5CRenesas_Electronics.5CD1x_RGL.5Crgl_ghs_D1Lx_obj_V1.2E2.2E0.5Cvlib.5Capp.5Cgfx_apps.5Csimple_draw_d1l2.5Ctarget.5Cd1lx_mango_ghs.5Cobj.5Cr_dev_clk.262::
                        4816 .LDWlin262:
000010f0 63070d00       4817 	st.w	zero,12[sp]
000010f4 005a           4818 	mov	0,r11
                        4819 --1622:     return ret_val;
000010f6 23570d00       4820 	ld.w	12[sp],r10
                        4821 --	    .ef
                        4822 .LDW35:
000010fa 4e06ff70       4823 	dispose	7,{r25,r26,r27,r28,r29,r31},[lp]
                        4824 	.type	_R_DEV_ClkIdSet,@function
                        4825 	.size	_R_DEV_ClkIdSet,.-_R_DEV_ClkIdSet
                        4826 	.align	2
                        4827 .LDW45:
                        4828 --_sel_addr	r26	local
                        4829 --_div_addr	r28	local
                        4830 --_div_idx	6[sp]	local
                        4831 --_reg_val	8[sp]	local
                        4832 --_ret_val	12[sp]	local
                        4833 --_i	r29	local
                        4834 --_cks_sel	r25	local
                        4835 --_div_sel	4[sp]	local
                        4836 --_match_found	3[sp]	local
                        4837 --_prot_stat	r1	local
                        4838 --_new_val	r14	local
                        4839 --_prot_stat	r1	local
                        4840 --_new_val	r14	local
                        4841 --_prot_stat	r1	local
                        4842 --_new_val	r14	local
                        4843 --_prot_stat	r1	local
                        4844 --_new_val	r14	local
                        4845 --_prot_stat	r1	local
                        4846 --_new_val	r14	local
                        4847 --_prot_stat	r1	local

                                                                      Page 83
                                                              C:\Users\YINGAO~1\AppData\Local\Temp\gh_00007041.si
                        4848 --_new_val	r14	local
                        4849 --_prot_stat	r13	local
                        4850 --_new_val	r12	local
                        4851 --_prot_stat	r13	local
                        4852 --_new_val	r12	local
                        4853 --_prot_stat	r13	local
                        4854 --_new_val	r12	local
                        4855 
                        4856 --_ClkSelCfg	r27	param
                        4857 
                        4858 	.section ".bss","awb"
                        4859 .L2979:
                        4860 	.type	.L2979,@object
                        4861 	.size	.L2979,0
                        4862 	.data
                        4863 	.text
                        4864 
                        4865 --1623: }
                        4866 
                        4867 --1625: /*******************************************************************************
                        4868 --1626:   Function: R_DEV_FoutDivSet
                        4869 --1628:     se: <r_dev_api.h> for details
                        4870 --1629: */
                        4871 --1631: r_Error_t R_DEV_FoutDivSet(uint16_t Div)
                        4872 	.align	2
                        4873 	.align	2
                        4874 	.global	_R_DEV_FoutDivSet
                        4875 _R_DEV_FoutDivSet:
000010fe c676ffff       4876 	andi	65535,r6,r14
                        4877 --	    .bf
                        4878 .LDW55:
                        4879 --1632: {
                        4880 --1633:     r_Error_t ret_val = R_PARAMETER_RANGE;
00001102 030a           4881 	mov	3,r1
                        4882 --1634:     uint32_t addr;
                        4883 --1635:     if (Div < 512)
00001104 0e0600fe       4884 	addi	-512,r14,zero
00001108 b10d*          4885 	bl	.L3549
                        4886 --1636:     {
                        4887 --1637:         addr = loc_CkcsBaseAddr[R_DEV_CKS_FOUT].Div;
                        4888 --line1637
                        4889 ..lin.D.3A.5CRenesas_Electronics.5CD1x_RGL.5Crgl_ghs_D1Lx_obj_V1.2E2.2E0.5Cvlib.5Capp.5Cgfx_apps.5Csimple_draw_d1l2.5Ctarget.5Cd1lx_mango_ghs.5Cobj.5Cr_dev_clk.263::
                        4890 .LDWlin263:
0000110a 3e0600000000*  4891 	mov	_loc_CkcsBaseAddr+40,ep
00001110 00f5           4892 	sld.w	0[ep],ep
                        4893 --1638:         R_DEV_WRITE_REG(32, addr, Div);
00001112 0175           4894 	sst.w	r14,0[ep]
                        4895 --1639:         /* Wait for activation */
                        4896 --1640:         while (0 != R_DEV_READ_REG(32, addr + LOC_CKS_S))
00001114 0000           4897 	nop
                        4898 .L3551:
                        4899 --1641:         {}
00001116 026d           4900 	sld.w	4[ep],r13
00001118 e069           4901 	cmp	zero,r13
0000111a eafd*          4902 	bne	.L3551
                        4903 --1642:         ret_val = R_ERR_OK;
                        4904 --line1642
                        4905 ..lin.D.3A.5CRenesas_Electronics.5CD1x_RGL.5Crgl_ghs_D1Lx_obj_V1.2E2.2E0.5Cvlib.5Capp.5Cgfx_apps.5Csimple_draw_d1l2.5Ctarget.5Cd1lx_mango_ghs.5Cobj.5Cr_dev_clk.264::
                        4906 .LDWlin264:
0000111c 000a           4907 	mov	0,r1
                        4908 .L3549:

                                                                      Page 84
                                                              C:\Users\YINGAO~1\AppData\Local\Temp\gh_00007041.si
                        4909 --1643:     }
                        4910 --1644:     return ret_val;
0000111e 0150           4911 	mov	r1,r10
                        4912 --	    .ef
                        4913 .LDW65:
00001120 7f00           4914 	jmp	[lp]
                        4915 	.type	_R_DEV_FoutDivSet,@function
                        4916 	.size	_R_DEV_FoutDivSet,.-_R_DEV_FoutDivSet
                        4917 	.align	2
                        4918 .LDW75:
                        4919 --_ret_val	r1	local
                        4920 --_addr	ep	local
                        4921 
                        4922 --_Div	r14	param
                        4923 
                        4924 	.section ".bss","awb"
                        4925 .L3590:
                        4926 	.type	.L3590,@object
                        4927 	.size	.L3590,0
                        4928 	.data
                        4929 	.text
                        4930 
                        4931 --1645: }
                        4932 
                        4933 --1646: /*******************************************************************************
                        4934 --1647:   Function: R_DEV_ClkFrequencyHz
                        4935 --1649:     see: <r_dev_api.h> for details
                        4936 --1650: */
                        4937 --1651: uint32_t R_DEV_ClkFrequencyHz(r_dev_ClkSel_t ClkSel)
                        4938 	.align	2
                        4939 	.align	2
                        4940 	.global	_R_DEV_ClkFrequencyHz
                        4941 _R_DEV_ClkFrequencyHz:
00001122 8a07e170       4942 	prepare	{r25,r26,r27,r28,r29,r31},5
00001126 06d8           4943 	mov	r6,r27
                        4944 --	    .bf
                        4945 .LDW85:
                        4946 --1652: {
                        4947 --1653:     uint32_t        sel_addr = 0;
00001128 63070500       4948 	st.w	zero,4[sp]
0000112c 005a           4949 	mov	0,r11
                        4950 --1654:     uint32_t        div_addr = 0;
0000112e 63070900       4951 	st.w	zero,8[sp]
00001132 005a           4952 	mov	0,r11
                        4953 --1655:     uint8_t         div_idx  = 0;
00001134 43070100       4954 	st.b	zero,1[sp]
00001138 005a           4955 	mov	0,r11
                        4956 --1656:     uint32_t        reg_val  = 0;
0000113a 00ea           4957 	mov	0,r29
                        4958 --1657:     uint8_t         i        = 0;
0000113c 00d2           4959 	mov	0,r26
                        4960 --1658:     r_dev_CksSrc_t  cks_src  = R_DEV_CKS_SRC_DISABLED;
0000113e 00e2           4961 	mov	0,r28
                        4962 --1659:     uint16_t        cks_div  = 0;
00001140 63070200       4963 	st.h	zero,2[sp]
00001144 005a           4964 	mov	0,r11
                        4965 --1660:     uint32_t        cks_act  = 0;
00001146 00ca           4966 	mov	0,r25
                        4967 --1663:     /* Some translation to get frequency for
                        4968 --1664:        macros that do not allow configuration */
                        4969 --1665:     if (R_DEV_CKS_FIX_LOW == ClkSel)

                                                                      Page 85
                                                              C:\Users\YINGAO~1\AppData\Local\Temp\gh_00007041.si
00001148 1b06e0ff       4970 	addi	-32,r27,zero
0000114c 8a0d*          4971 	bne	.L3625
                        4972 --1666:     {
                        4973 --1667:         reg_val = loc_SrcFrequencyHz(R_DEV_CKS_SRC_LRNG);
                        4974 --line1667
                        4975 ..lin.D.3A.5CRenesas_Electronics.5CD1x_RGL.5Crgl_ghs_D1Lx_obj_V1.2E2.2E0.5Cvlib.5Capp.5Cgfx_apps.5Csimple_draw_d1l2.5Ctarget.5Cd1lx_mango_ghs.5Cobj.5Cr_dev_clk.265::
                        4976 .LDWlin265:
0000114e 0132           4977 	mov	1,r6
                        4978 	jarl	_loc_SrcFrequencyHz,lp
                        4978 <EXPANSION BEGIN>
                        4978 jarl22 _loc_SrcFrequencyHz , lp 
00001150 bfff1af8*      4978 <EXPANSION END>
00001154 0ae8           4979 	mov	r10,r29
                        4980 --1668:         return reg_val;
                        4981 --line1668
                        4982 ..lin.D.3A.5CRenesas_Electronics.5CD1x_RGL.5Crgl_ghs_D1Lx_obj_V1.2E2.2E0.5Cvlib.5Capp.5Cgfx_apps.5Csimple_draw_d1l2.5Ctarget.5Cd1lx_mango_ghs.5Cobj.5Cr_dev_clk.266::
                        4983 .LDWlin266:
00001156 1d50           4984 	mov	r29,r10
00001158 80078401*      4985 	br	.L3623
                        4986 .L3625:
                        4987 --1669:     }
                        4988 --1671:     if (R_DEV_CKS_FIX_JIT == ClkSel)
                        4989 --line1671
                        4990 ..lin.D.3A.5CRenesas_Electronics.5CD1x_RGL.5Crgl_ghs_D1Lx_obj_V1.2E2.2E0.5Cvlib.5Capp.5Cgfx_apps.5Csimple_draw_d1l2.5Ctarget.5Cd1lx_mango_ghs.5Cobj.5Cr_dev_clk.267::
                        4991 .LDWlin267:
0000115c 1b06e1ff       4992 	addi	-31,r27,zero
00001160 ba05*          4993 	bne	.L3628
                        4994 --1672:     {
                        4995 --1673:         ClkSel = R_DEV_CKS_CLKJIT;
                        4996 --line1673
                        4997 ..lin.D.3A.5CRenesas_Electronics.5CD1x_RGL.5Crgl_ghs_D1Lx_obj_V1.2E2.2E0.5Cvlib.5Capp.5Cgfx_apps.5Csimple_draw_d1l2.5Ctarget.5Cd1lx_mango_ghs.5Cobj.5Cr_dev_clk.268::
                        4998 .LDWlin268:
00001162 20de1200       4999 	movea	18,zero,r27
                        5000 .L3628:
                        5001 --1674:     }
                        5002 --1675:     /* now we can continue */
                        5003 --1676:     if (ClkSel < R_DEV_CKS_LAST)
00001166 1b06e2ff       5004 	addi	-30,r27,zero
0000116a be25*          5005 	bge	.L3630
                        5006 --1677:     {
                        5007 --1678:         sel_addr     = loc_CkcsBaseAddr[ClkSel].Sel;
                        5008 --line1678
                        5009 ..lin.D.3A.5CRenesas_Electronics.5CD1x_RGL.5Crgl_ghs_D1Lx_obj_V1.2E2.2E0.5Cvlib.5Capp.5Cgfx_apps.5Csimple_draw_d1l2.5Ctarget.5Cd1lx_mango_ghs.5Cobj.5Cr_dev_clk.269::
                        5010 .LDWlin269:
0000116c 1bf0           5011 	mov	r27,ep
0000116e fe00           5012 	sxh	ep
00001170 fef60c00       5013 	mulhi	12,ep,ep
00001174 2b0600000000*  5014 	mov	_loc_CkcsBaseAddr,r11
0000117a cbf1           5015 	add	r11,ep
0000117c 0065           5016 	sld.w	0[ep],r12
0000117e 63670500       5017 	st.w	r12,4[sp]
                        5018 --1679:         div_addr     = loc_CkcsBaseAddr[ClkSel].Div;
00001182 1bf0           5019 	mov	r27,ep
00001184 fe00           5020 	sxh	ep
00001186 fef60c00       5021 	mulhi	12,ep,ep
0000118a 2b0600000000*  5022 	mov	_loc_CkcsBaseAddr,r11
00001190 cbf1           5023 	add	r11,ep
00001192 0265           5024 	sld.w	4[ep],r12
00001194 63670900       5025 	st.w	r12,8[sp]
                        5026 --1680:         div_idx      = loc_CkcsBaseAddr[ClkSel].DivIdx;
00001198 1bf0           5027 	mov	r27,ep

                                                                      Page 86
                                                              C:\Users\YINGAO~1\AppData\Local\Temp\gh_00007041.si
0000119a fe00           5028 	sxh	ep
0000119c fef60c00       5029 	mulhi	12,ep,ep
000011a0 2b0600000000*  5030 	mov	_loc_CkcsBaseAddr,r11
000011a6 cbf1           5031 	add	r11,ep
000011a8 6860           5032 	sld.bu	8[ep],r12
000011aa 43670100       5033 	st.b	r12,1[sp]
000011ae d505*          5034 	br	.L3632
                        5035 .L3630:
                        5036 --1681:     }
                        5037 --1682:     else
                        5038 --1683:     {
                        5039 --1684:         R_DEV_ERROR((uint32_t)ClkSel, R_DEV_ERR_IDX, "Wrong clock domain selected!");
                        5040 --line1684
                        5041 ..lin.D.3A.5CRenesas_Electronics.5CD1x_RGL.5Crgl_ghs_D1Lx_obj_V1.2E2.2E0.5Cvlib.5Capp.5Cgfx_apps.5Csimple_draw_d1l2.5Ctarget.5Cd1lx_mango_ghs.5Cobj.5Cr_dev_clk.270::
                        5042 .LDWlin270:
000011b0 1b30           5043 	mov	r27,r6
000011b2 083a           5044 	mov	8,r7
                        5045 	jarl	_R_DEV_ErrorHandler,lp
                        5045 <EXPANSION BEGIN>
                        5045 jarl22 _R_DEV_ErrorHandler , lp 
000011b4 80ff0000*      5045 <EXPANSION END>
                        5046 .L3632:
                        5047 --1685:     }
                        5048 --1687:     if (sel_addr < (uint32_t) R_DEV_CKS_SRC_LAST)
                        5049 --line1687
                        5050 ..lin.D.3A.5CRenesas_Electronics.5CD1x_RGL.5Crgl_ghs_D1Lx_obj_V1.2E2.2E0.5Cvlib.5Capp.5Cgfx_apps.5Csimple_draw_d1l2.5Ctarget.5Cd1lx_mango_ghs.5Cobj.5Cr_dev_clk.271::
                        5051 .LDWlin271:
000011b8 235f0500       5052 	ld.w	4[sp],r11
000011bc 0b06deff       5053 	addi	-34,r11,zero
000011c0 810d*          5054 	bl	.L3633
                        5055 --1688:     {
                        5056 --1689:         /* There is no selector, the source clock is fixed */
                        5057 --1690:         /* But there is a divider for sure, and sel_addr is the  R_DEV_CKS_SRC
                        5058 --1691:            in this case */
                        5059 --1692:         cks_src = (r_dev_CksSrc_t)sel_addr;
                        5060 --line1692
                        5061 ..lin.D.3A.5CRenesas_Electronics.5CD1x_RGL.5Crgl_ghs_D1Lx_obj_V1.2E2.2E0.5Cvlib.5Capp.5Cgfx_apps.5Csimple_draw_d1l2.5Ctarget.5Cd1lx_mango_ghs.5Cobj.5Cr_dev_clk.272::
                        5062 .LDWlin272:
000011c2 23e70500       5063 	ld.w	4[sp],r28
                        5064 --1693:         /* Get Frequency here, if result is 0, the Clock is inactive */
                        5065 --1694:         cks_act = loc_SrcFrequencyHz(cks_src);
000011c6 1c30           5066 	mov	r28,r6
                        5067 	jarl	_loc_SrcFrequencyHz,lp
                        5067 <EXPANSION BEGIN>
                        5067 jarl22 _loc_SrcFrequencyHz , lp 
000011c8 bfffa2f7*      5067 <EXPANSION END>
000011cc 0ac8           5068 	mov	r10,r25
000011ce b515*          5069 	br	.L3635
                        5070 .L3633:
                        5071 --1695:     }
                        5072 --1696:     else
                        5073 --1697:     {
                        5074 --1698:         reg_val = R_DEV_READ_REG(32, sel_addr);
                        5075 --line1698
                        5076 ..lin.D.3A.5CRenesas_Electronics.5CD1x_RGL.5Crgl_ghs_D1Lx_obj_V1.2E2.2E0.5Cvlib.5Capp.5Cgfx_apps.5Csimple_draw_d1l2.5Ctarget.5Cd1lx_mango_ghs.5Cobj.5Cr_dev_clk.273::
                        5077 .LDWlin273:
000011d0 235f0500       5078 	ld.w	4[sp],r11
000011d4 2bef0100       5079 	ld.w	0[r11],r29
                        5080 --1699:         cks_src = loc_ClockTree[ClkSel][reg_val];
000011d8 1b70           5081 	mov	r27,r14
000011da c372           5082 	shl	3,r14

                                                                      Page 87
                                                              C:\Users\YINGAO~1\AppData\Local\Temp\gh_00007041.si
000011dc 1d08           5083 	mov	r29,r1
000011de ce09           5084 	add	r14,r1
000011e0 c20a           5085 	shl	2,r1
000011e2 3e0600000000*  5086 	mov	_loc_ClockTree,ep
000011e8 c1f1           5087 	add	r1,ep
000011ea 00e5           5088 	sld.w	0[ep],r28
                        5089 --1700:         cks_act = R_DEV_READ_REG(32, sel_addr + LOC_CKS_A);
000011ec 235f0500       5090 	ld.w	4[sp],r11
000011f0 2bcf0900       5091 	ld.w	8[r11],r25
                        5092 .L3635:
                        5093 --1702:     }
                        5094 --1703:     if (LOC_DIV == cks_src)
000011f4 1c06ddff       5095 	addi	-35,r28,zero
000011f8 9a1d*          5096 	bne	.L3636
                        5097 --1704:     {
                        5098 --1705:         /* The source clock is not stored in the clock tree if the selection is like:
                        5099 --1706:            use divider output or an internal OSC, here we have three "special" casess  */
                        5100 --1707:         switch (ClkSel)
                        5101 --line1707
                        5102 ..lin.D.3A.5CRenesas_Electronics.5CD1x_RGL.5Crgl_ghs_D1Lx_obj_V1.2E2.2E0.5Cvlib.5Capp.5Cgfx_apps.5Csimple_draw_d1l2.5Ctarget.5Cd1lx_mango_ghs.5Cobj.5Cr_dev_clk.274::
                        5103 .LDWlin274:
000011fa 1b08           5104 	mov	r27,r1
000011fc 0106eeff       5105 	addi	-18,r1,zero
00001200 820d*          5106 	be	.L3640
00001202 0106edff       5107 	addi	-19,r1,zero
00001206 f205*          5108 	be	.L3641
00001208 0106ebff       5109 	addi	-21,r1,zero
0000120c 9a0d*          5110 	bne	.L3643
0000120e e505*          5111 	br	.L3642
                        5112 .L3640:
                        5113 --1708:         {
                        5114 --1709:         case R_DEV_CKS_CLKJIT:
                        5115 --1710:             cks_src =  R_DEV_CKS_SRC_PLL0;
                        5116 --line1710
                        5117 ..lin.D.3A.5CRenesas_Electronics.5CD1x_RGL.5Crgl_ghs_D1Lx_obj_V1.2E2.2E0.5Cvlib.5Capp.5Cgfx_apps.5Csimple_draw_d1l2.5Ctarget.5Cd1lx_mango_ghs.5Cobj.5Cr_dev_clk.275::
                        5118 .LDWlin275:
00001210 06e2           5119 	mov	6,r28
00001212 f505*          5120 	br	.L3638
                        5121 .L3641:
                        5122 --1711:             break;
                        5123 --1712:         case R_DEV_CKS_CLKFIX:
                        5124 --1713:             cks_src =  R_DEV_CKS_SRC_PLLFIX;
                        5125 --line1713
                        5126 ..lin.D.3A.5CRenesas_Electronics.5CD1x_RGL.5Crgl_ghs_D1Lx_obj_V1.2E2.2E0.5Cvlib.5Capp.5Cgfx_apps.5Csimple_draw_d1l2.5Ctarget.5Cd1lx_mango_ghs.5Cobj.5Cr_dev_clk.276::
                        5127 .LDWlin276:
00001214 20e61400       5128 	movea	20,zero,r28
00001218 c505*          5129 	br	.L3638
                        5130 .L3642:
                        5131 --1714:             break;
                        5132 --1715:         case R_DEV_CKS_PLL2IN:
                        5133 --1716:             cks_src =  R_DEV_CKS_SRC_PLL0;
                        5134 --line1716
                        5135 ..lin.D.3A.5CRenesas_Electronics.5CD1x_RGL.5Crgl_ghs_D1Lx_obj_V1.2E2.2E0.5Cvlib.5Capp.5Cgfx_apps.5Csimple_draw_d1l2.5Ctarget.5Cd1lx_mango_ghs.5Cobj.5Cr_dev_clk.277::
                        5136 .LDWlin277:
0000121a 06e2           5137 	mov	6,r28
0000121c a505*          5138 	br	.L3638
                        5139 .L3643:
                        5140 --line1719
                        5141 ..lin.D.3A.5CRenesas_Electronics.5CD1x_RGL.5Crgl_ghs_D1Lx_obj_V1.2E2.2E0.5Cvlib.5Capp.5Cgfx_apps.5Csimple_draw_d1l2.5Ctarget.5Cd1lx_mango_ghs.5Cobj.5Cr_dev_clk.278::
                        5142 .LDWlin278:
0000121e 0000           5143 	nop

                                                                      Page 88
                                                              C:\Users\YINGAO~1\AppData\Local\Temp\gh_00007041.si
                        5144 .L3638:
                        5145 --1717:             break;
                        5146 --1718:         default:
                        5147 --1719:             break;
                        5148 --1720:         }
                        5149 --1721:         cks_act = loc_SrcFrequencyHz(cks_src);
00001220 1c30           5150 	mov	r28,r6
                        5151 	jarl	_loc_SrcFrequencyHz,lp
                        5151 <EXPANSION BEGIN>
                        5151 jarl22 _loc_SrcFrequencyHz , lp 
00001222 bfff48f7*      5151 <EXPANSION END>
00001226 0ac8           5152 	mov	r10,r25
00001228 8515*          5153 	br	.L3644
                        5154 .L3636:
                        5155 --1723:     }
                        5156 --1724:     else
                        5157 --1725:     {
                        5158 --1726:         /* now the other way round, we need to check if the
                        5159 --1727:         divider output is selected or a fixed clock
                        5160 --1728:         (see PLL2In fro example
                        5161 --1729:         - per selection we have divider output, or MOSC w/o divider */
                        5162 --1730:         switch (ClkSel)
                        5163 --line1730
                        5164 ..lin.D.3A.5CRenesas_Electronics.5CD1x_RGL.5Crgl_ghs_D1Lx_obj_V1.2E2.2E0.5Cvlib.5Capp.5Cgfx_apps.5Csimple_draw_d1l2.5Ctarget.5Cd1lx_mango_ghs.5Cobj.5Cr_dev_clk.279::
                        5165 .LDWlin279:
0000122a 1b0eeeff       5166 	addi	-18,r27,r1
0000122e 610a           5167 	cmp	1,r1
00001230 b305*          5168 	bnh	.L3647
00001232 630a           5169 	cmp	3,r1
00001234 da05*          5170 	bne	.L3648
                        5171 .L3647:
                        5172 --1731:         {
                        5173 --1732:         case R_DEV_CKS_CLKJIT:
                        5174 --1733:         case R_DEV_CKS_CLKFIX:
                        5175 --1734:         case R_DEV_CKS_PLL2IN:
                        5176 --1735:             /* The source clock was stored in the selector,
                        5177 --1736:             and in this case the divider does not count */
                        5178 --1737:             div_addr = 0;
                        5179 --line1737
                        5180 ..lin.D.3A.5CRenesas_Electronics.5CD1x_RGL.5Crgl_ghs_D1Lx_obj_V1.2E2.2E0.5Cvlib.5Capp.5Cgfx_apps.5Csimple_draw_d1l2.5Ctarget.5Cd1lx_mango_ghs.5Cobj.5Cr_dev_clk.280::
                        5181 .LDWlin280:
00001236 63070900       5182 	st.w	zero,8[sp]
0000123a 005a           5183 	mov	0,r11
0000123c a505*          5184 	br	.L3645
                        5185 .L3648:
                        5186 --line1740
                        5187 ..lin.D.3A.5CRenesas_Electronics.5CD1x_RGL.5Crgl_ghs_D1Lx_obj_V1.2E2.2E0.5Cvlib.5Capp.5Cgfx_apps.5Csimple_draw_d1l2.5Ctarget.5Cd1lx_mango_ghs.5Cobj.5Cr_dev_clk.281::
                        5188 .LDWlin281:
0000123e 0000           5189 	nop
                        5190 .L3645:
                        5191 --1738:             break;
                        5192 --1739:         default:
                        5193 --1740:             break;
                        5194 --1741:         }
                        5195 --1742:         cks_act = loc_SrcFrequencyHz(cks_src);
00001240 1c30           5196 	mov	r28,r6
                        5197 	jarl	_loc_SrcFrequencyHz,lp
                        5197 <EXPANSION BEGIN>
                        5197 jarl22 _loc_SrcFrequencyHz , lp 
00001242 bfff28f7*      5197 <EXPANSION END>
00001246 0ac8           5198 	mov	r10,r25

                                                                      Page 89
                                                              C:\Users\YINGAO~1\AppData\Local\Temp\gh_00007041.si
                        5199 .L3644:
                        5200 --1743:     }
                        5201 --1744:     /* Selected disabled clock or clock source inactive,
                        5202 --1745:       we're done here                                     */
                        5203 --1746:     if ((LOC_DIS == cks_src) || (0 == cks_act))
                        5204 --line1746
                        5205 ..lin.D.3A.5CRenesas_Electronics.5CD1x_RGL.5Crgl_ghs_D1Lx_obj_V1.2E2.2E0.5Cvlib.5Capp.5Cgfx_apps.5Csimple_draw_d1l2.5Ctarget.5Cd1lx_mango_ghs.5Cobj.5Cr_dev_clk.282::
                        5206 .LDWlin282:
00001248 e0e1           5207 	cmp	zero,r28
0000124a b205*          5208 	be	.L3650
0000124c e0c9           5209 	cmp	zero,r25
0000124e ba05*          5210 	bne	.L3649
                        5211 .L3650:
                        5212 --1747:     {
                        5213 --1748:         /* Clock disabled */
                        5214 --1749:         return 0;
                        5215 --line1749
                        5216 ..lin.D.3A.5CRenesas_Electronics.5CD1x_RGL.5Crgl_ghs_D1Lx_obj_V1.2E2.2E0.5Cvlib.5Capp.5Cgfx_apps.5Csimple_draw_d1l2.5Ctarget.5Cd1lx_mango_ghs.5Cobj.5Cr_dev_clk.283::
                        5217 .LDWlin283:
00001250 0052           5218 	mov	0,r10
00001252 d545*          5219 	br	.L3623
                        5220 .L3649:
                        5221 --1750:     }
                        5222 --1752:     /* Get divider */
                        5223 --1753:     if (0 != div_addr)
                        5224 --line1753
                        5225 ..lin.D.3A.5CRenesas_Electronics.5CD1x_RGL.5Crgl_ghs_D1Lx_obj_V1.2E2.2E0.5Cvlib.5Capp.5Cgfx_apps.5Csimple_draw_d1l2.5Ctarget.5Cd1lx_mango_ghs.5Cobj.5Cr_dev_clk.284::
                        5226 .LDWlin284:
00001254 235f0900       5227 	ld.w	8[sp],r11
00001258 e059           5228 	cmp	zero,r11
0000125a f22d*          5229 	be	.L3653
                        5230 --1754:     {
                        5231 --1755:         for (i = 0; i < 8; i++ )
                        5232 --line1755
                        5233 ..lin.D.3A.5CRenesas_Electronics.5CD1x_RGL.5Crgl_ghs_D1Lx_obj_V1.2E2.2E0.5Cvlib.5Capp.5Cgfx_apps.5Csimple_draw_d1l2.5Ctarget.5Cd1lx_mango_ghs.5Cobj.5Cr_dev_clk.285::
                        5234 .LDWlin285:
0000125c 00d2           5235 	mov	0,r26
0000125e 0000           5236 	nop
                        5237 .L3657:
                        5238 --1756:         {
                        5239 --1757:             if (LOC_F == loc_ClkSelDiv[div_idx][i])
00001260 a30f0100       5240 	ld.bu	1[sp],r1
00001264 2c0600000000*  5241 	mov	_loc_ClkSelDiv,r12
0000126a c30a           5242 	shl	3,r1
0000126c da09           5243 	add	r26,r1
0000126e c10a           5244 	shl	1,r1
00001270 01f0           5245 	mov	r1,ep
00001272 ccf1           5246 	add	r12,ep
00001274 7008           5247 	sld.hu	0[ep],r1
00001276 a106fefe       5248 	xori	65278,r1,zero
0000127a aa05*          5249 	bne	.L3658
                        5250 --1758:             {
                        5251 --1759:                 break;
                        5252 --line1759
                        5253 ..lin.D.3A.5CRenesas_Electronics.5CD1x_RGL.5Crgl_ghs_D1Lx_obj_V1.2E2.2E0.5Cvlib.5Capp.5Cgfx_apps.5Csimple_draw_d1l2.5Ctarget.5Cd1lx_mango_ghs.5Cobj.5Cr_dev_clk.286::
                        5254 .LDWlin286:
0000127c d505*          5255 	br	.L3660
                        5256 .L3658:
                        5257 --line1755
                        5258 ..lin.D.3A.5CRenesas_Electronics.5CD1x_RGL.5Crgl_ghs_D1Lx_obj_V1.2E2.2E0.5Cvlib.5Capp.5Cgfx_apps.5Csimple_draw_d1l2.5Ctarget.5Cd1lx_mango_ghs.5Cobj.5Cr_dev_clk.287::
                        5259 .LDWlin287:

                                                                      Page 90
                                                              C:\Users\YINGAO~1\AppData\Local\Temp\gh_00007041.si
0000127e 41d2           5260 	add	1,r26
00001280 9a00           5261 	zxb	r26
00001282 68d2           5262 	cmp	8,r26
00001284 e1ed*          5263 	bl	.L3657
                        5264 .L3660:
                        5265 --1760:             }
                        5266 --1761:         }
                        5267 --1762:         reg_val = R_DEV_READ_REG(32, div_addr);
                        5268 --line1762
                        5269 ..lin.D.3A.5CRenesas_Electronics.5CD1x_RGL.5Crgl_ghs_D1Lx_obj_V1.2E2.2E0.5Cvlib.5Capp.5Cgfx_apps.5Csimple_draw_d1l2.5Ctarget.5Cd1lx_mango_ghs.5Cobj.5Cr_dev_clk.288::
                        5270 .LDWlin288:
00001286 235f0900       5271 	ld.w	8[sp],r11
0000128a 2bef0100       5272 	ld.w	0[r11],r29
                        5273 --1763:         if (i < 8 )
0000128e 68d2           5274 	cmp	8,r26
00001290 e905*          5275 	bnl	.L3662
                        5276 --1764:         {
                        5277 --1765:            cks_div = reg_val;
                        5278 --line1765
                        5279 ..lin.D.3A.5CRenesas_Electronics.5CD1x_RGL.5Crgl_ghs_D1Lx_obj_V1.2E2.2E0.5Cvlib.5Capp.5Cgfx_apps.5Csimple_draw_d1l2.5Ctarget.5Cd1lx_mango_ghs.5Cobj.5Cr_dev_clk.289::
                        5280 .LDWlin289:
00001292 dd5effff       5281 	andi	65535,r29,r11
00001296 635f0200       5282 	st.h	r11,2[sp]
0000129a a515*          5283 	br	.L3665
                        5284 .L3662:
                        5285 --1766:         }
                        5286 --1767:         else
                        5287 --1768:         {
                        5288 --1769:            cks_div = loc_ClkSelDiv[div_idx][reg_val];
                        5289 --line1769
                        5290 ..lin.D.3A.5CRenesas_Electronics.5CD1x_RGL.5Crgl_ghs_D1Lx_obj_V1.2E2.2E0.5Cvlib.5Capp.5Cgfx_apps.5Csimple_draw_d1l2.5Ctarget.5Cd1lx_mango_ghs.5Cobj.5Cr_dev_clk.290::
                        5291 .LDWlin290:
0000129c a30f0100       5292 	ld.bu	1[sp],r1
000012a0 2c0600000000*  5293 	mov	_loc_ClkSelDiv,r12
000012a6 c30a           5294 	shl	3,r1
000012a8 dd09           5295 	add	r29,r1
000012aa c10a           5296 	shl	1,r1
000012ac 01f0           5297 	mov	r1,ep
000012ae ccf1           5298 	add	r12,ep
000012b0 7068           5299 	sld.hu	0[ep],r13
000012b2 636f0200       5300 	st.h	r13,2[sp]
000012b6 c505*          5301 	br	.L3665
                        5302 .L3653:
                        5303 --1770:         }
                        5304 --1771:     }
                        5305 --1772:     else
                        5306 --1773:     {
                        5307 --1774:         cks_div = 1;
                        5308 --line1774
                        5309 ..lin.D.3A.5CRenesas_Electronics.5CD1x_RGL.5Crgl_ghs_D1Lx_obj_V1.2E2.2E0.5Cvlib.5Capp.5Cgfx_apps.5Csimple_draw_d1l2.5Ctarget.5Cd1lx_mango_ghs.5Cobj.5Cr_dev_clk.291::
                        5310 .LDWlin291:
000012b8 015a           5311 	mov	1,r11
000012ba 635f0200       5312 	st.h	r11,2[sp]
                        5313 .L3665:
                        5314 --1775:     }
                        5315 --1776:     /* Divider disabled */
                        5316 --1777:     if (0 == cks_div)
000012be e35f0300       5317 	ld.hu	2[sp],r11
000012c2 e059           5318 	cmp	zero,r11
000012c4 ba05*          5319 	bne	.L3666
                        5320 --1778:     {

                                                                      Page 91
                                                              C:\Users\YINGAO~1\AppData\Local\Temp\gh_00007041.si
                        5321 --1779:         /* Clock disabled */
                        5322 --1780:         reg_val =  0;
                        5323 --line1780
                        5324 ..lin.D.3A.5CRenesas_Electronics.5CD1x_RGL.5Crgl_ghs_D1Lx_obj_V1.2E2.2E0.5Cvlib.5Capp.5Cgfx_apps.5Csimple_draw_d1l2.5Ctarget.5Cd1lx_mango_ghs.5Cobj.5Cr_dev_clk.292::
                        5325 .LDWlin292:
000012c6 00ea           5326 	mov	0,r29
000012c8 950d*          5327 	br	.L3668
                        5328 .L3666:
                        5329 --1781:     }
                        5330 --1782:     else
                        5331 --1783:     {
                        5332 --1784:         reg_val = loc_SrcFrequencyHz(cks_src) /  cks_div;
                        5333 --line1784
                        5334 ..lin.D.3A.5CRenesas_Electronics.5CD1x_RGL.5Crgl_ghs_D1Lx_obj_V1.2E2.2E0.5Cvlib.5Capp.5Cgfx_apps.5Csimple_draw_d1l2.5Ctarget.5Cd1lx_mango_ghs.5Cobj.5Cr_dev_clk.293::
                        5335 .LDWlin293:
000012ca 1c30           5336 	mov	r28,r6
                        5337 	jarl	_loc_SrcFrequencyHz,lp
                        5337 <EXPANSION BEGIN>
                        5337 jarl22 _loc_SrcFrequencyHz , lp 
000012cc bfff9ef6*      5337 <EXPANSION END>
000012d0 e35f0300       5338 	ld.hu	2[sp],r11
000012d4 0ae8           5339 	mov	r10,r29
000012d6 ebeffe02       5340 	divqu	r11,r29,zero
                        5341 .L3668:
                        5342 --1785:     }
                        5343 --1786:     return  reg_val;
                        5344 --line1786
                        5345 ..lin.D.3A.5CRenesas_Electronics.5CD1x_RGL.5Crgl_ghs_D1Lx_obj_V1.2E2.2E0.5Cvlib.5Capp.5Cgfx_apps.5Csimple_draw_d1l2.5Ctarget.5Cd1lx_mango_ghs.5Cobj.5Cr_dev_clk.294::
                        5346 .LDWlin294:
000012da 1d50           5347 	mov	r29,r10
                        5348 .L3623:
                        5349 --	    .ef
                        5350 .LDW95:
000012dc 4a06ff70       5351 	dispose	5,{r25,r26,r27,r28,r29,r31},[lp]
                        5352 	.type	_R_DEV_ClkFrequencyHz,@function
                        5353 	.size	_R_DEV_ClkFrequencyHz,.-_R_DEV_ClkFrequencyHz
                        5354 	.align	2
                        5355 .LDW06:
                        5356 --_sel_addr	4[sp]	local
                        5357 --_div_addr	8[sp]	local
                        5358 --_div_idx	1[sp]	local
                        5359 --_reg_val	r29	local
                        5360 --_i	r26	local
                        5361 --_cks_src	r28	local
                        5362 --_cks_div	2[sp]	local
                        5363 --_cks_act	r25	local
                        5364 
                        5365 --_ClkSel	r27	param
                        5366 
                        5367 	.section ".bss","awb"
                        5368 .L3802:
                        5369 	.type	.L3802,@object
                        5370 	.size	.L3802,0
                        5371 	.data
                        5372 	.text
                        5373 
                        5374 --1787: }
                        5375 
                        5376 --1789: /*******************************************************************************
                        5377 --1790:   Function: R_DEV_GetClkConfig
                        5378 --1792:     see: <r_dev_api.h> for details

                                                                      Page 92
                                                              C:\Users\YINGAO~1\AppData\Local\Temp\gh_00007041.si
                        5379 --1793: */
                        5380 --1794: uint32_t R_DEV_GetClkConfig(r_dev_ClkSelConfig_t *ClkData)
                        5381 	.align	2
                        5382 	.align	2
                        5383 	.global	_R_DEV_GetClkConfig
                        5384 _R_DEV_GetClkConfig:
000012e0 8a07e170       5385 	prepare	{r25,r26,r27,r28,r29,r31},5
000012e4 06e8           5386 	mov	r6,r29
                        5387 --	    .bf
                        5388 .LDW16:
                        5389 --1795: {
                        5390 --1796:     uint32_t        sel_addr = 0;
000012e6 00ca           5391 	mov	0,r25
                        5392 --1797:     uint32_t        div_addr = 0;
000012e8 63070900       5393 	st.w	zero,8[sp]
000012ec 005a           5394 	mov	0,r11
                        5395 --1798:     uint8_t         div_idx  = 0;
000012ee 43070100       5396 	st.b	zero,1[sp]
000012f2 005a           5397 	mov	0,r11
                        5398 --1799:     uint32_t        reg_val  = 0;
000012f4 00e2           5399 	mov	0,r28
                        5400 --1800:     uint8_t         i        = 0;
000012f6 00d2           5401 	mov	0,r26
                        5402 --1801:     r_dev_CksSrc_t  cks_src  = R_DEV_CKS_SRC_DISABLED;
000012f8 00da           5403 	mov	0,r27
                        5404 --1802:     uint16_t        cks_div  = 0;
000012fa 63070200       5405 	st.h	zero,2[sp]
000012fe 005a           5406 	mov	0,r11
                        5407 --1803:     uint32_t        cks_act  = 0;
00001300 63070500       5408 	st.w	zero,4[sp]
00001304 005a           5409 	mov	0,r11
                        5410 --1805:     /* Just dummy */
                        5411 --1806:     ClkData->StpReqMsk  = 0;
00001306 5d070a00       5412 	st.b	zero,10[r29]
                        5413 --1808:    /* Some translation to get frequency for
                        5414 --1809:        macros that do not allow configuration */
                        5415 --1810:     if (R_DEV_CKS_FIX_LOW == ClkData->Cks)
0000130a 3d0f0100       5416 	ld.w	0[r29],r1
0000130e 0106e0ff       5417 	addi	-32,r1,zero
00001312 ea0d*          5418 	bne	.L4005
                        5419 --1811:     {
                        5420 --1812:         reg_val = loc_SrcFrequencyHz(R_DEV_CKS_SRC_LRNG);
                        5421 --line1812
                        5422 ..lin.D.3A.5CRenesas_Electronics.5CD1x_RGL.5Crgl_ghs_D1Lx_obj_V1.2E2.2E0.5Cvlib.5Capp.5Cgfx_apps.5Csimple_draw_d1l2.5Ctarget.5Cd1lx_mango_ghs.5Cobj.5Cr_dev_clk.295::
                        5423 .LDWlin295:
00001314 0132           5424 	mov	1,r6
                        5425 	jarl	_loc_SrcFrequencyHz,lp
                        5425 <EXPANSION BEGIN>
                        5425 jarl22 _loc_SrcFrequencyHz , lp 
00001316 bfff54f6*      5425 <EXPANSION END>
0000131a 0ae0           5426 	mov	r10,r28
                        5427 --1813:         ClkData->SrcId      = R_DEV_CKS_SRC_LRNG;
                        5428 --line1813
                        5429 ..lin.D.3A.5CRenesas_Electronics.5CD1x_RGL.5Crgl_ghs_D1Lx_obj_V1.2E2.2E0.5Cvlib.5Capp.5Cgfx_apps.5Csimple_draw_d1l2.5Ctarget.5Cd1lx_mango_ghs.5Cobj.5Cr_dev_clk.296::
                        5430 .LDWlin296:
0000131c 010a           5431 	mov	1,r1
0000131e 7d0f0500       5432 	st.w	r1,4[r29]
                        5433 --1814:         ClkData->Div        = 1;
00001322 010a           5434 	mov	1,r1
00001324 7d0f0800       5435 	st.h	r1,8[r29]
                        5436 --1815:         return reg_val;

                                                                      Page 93
                                                              C:\Users\YINGAO~1\AppData\Local\Temp\gh_00007041.si
00001328 1c50           5437 	mov	r28,r10
0000132a 80073002*      5438 	br	.L4003
                        5439 .L4005:
                        5440 --1816:     }
                        5441 --1818:     if (R_DEV_CKS_FIX_JIT == ClkData->Cks)
                        5442 --line1818
                        5443 ..lin.D.3A.5CRenesas_Electronics.5CD1x_RGL.5Crgl_ghs_D1Lx_obj_V1.2E2.2E0.5Cvlib.5Capp.5Cgfx_apps.5Csimple_draw_d1l2.5Ctarget.5Cd1lx_mango_ghs.5Cobj.5Cr_dev_clk.297::
                        5444 .LDWlin297:
0000132e 3d0f0100       5445 	ld.w	0[r29],r1
00001332 0106e1ff       5446 	addi	-31,r1,zero
00001336 da05*          5447 	bne	.L4008
                        5448 --1819:     {
                        5449 --1820:         ClkData->Cks = R_DEV_CKS_CLKJIT;
                        5450 --line1820
                        5451 ..lin.D.3A.5CRenesas_Electronics.5CD1x_RGL.5Crgl_ghs_D1Lx_obj_V1.2E2.2E0.5Cvlib.5Capp.5Cgfx_apps.5Csimple_draw_d1l2.5Ctarget.5Cd1lx_mango_ghs.5Cobj.5Cr_dev_clk.298::
                        5452 .LDWlin298:
00001338 200e1200       5453 	movea	18,zero,r1
0000133c 7d0f0100       5454 	st.w	r1,0[r29]
                        5455 .L4008:
                        5456 --1821:     }
                        5457 --1822:     /* now we can continue */
                        5458 --1823:     if (ClkData->Cks < R_DEV_CKS_LAST)
00001340 3d0f0100       5459 	ld.w	0[r29],r1
00001344 0106e2ff       5460 	addi	-30,r1,zero
00001348 9e25*          5461 	bge	.L4010
                        5462 --1824:     {
                        5463 --1825:         sel_addr     = loc_CkcsBaseAddr[ClkData->Cks].Sel;
                        5464 --line1825
                        5465 ..lin.D.3A.5CRenesas_Electronics.5CD1x_RGL.5Crgl_ghs_D1Lx_obj_V1.2E2.2E0.5Cvlib.5Capp.5Cgfx_apps.5Csimple_draw_d1l2.5Ctarget.5Cd1lx_mango_ghs.5Cobj.5Cr_dev_clk.299::
                        5466 .LDWlin299:
0000134a 3d0f0000       5467 	ld.h	0[r29],r1
0000134e 2b0600000000*  5468 	mov	_loc_CkcsBaseAddr,r11
00001354 e1f60c00       5469 	mulhi	12,r1,ep
00001358 cbf1           5470 	add	r11,ep
0000135a 00cd           5471 	sld.w	0[ep],r25
                        5472 --1826:         div_addr     = loc_CkcsBaseAddr[ClkData->Cks].Div;
0000135c 3d0f0000       5473 	ld.h	0[r29],r1
00001360 2b0600000000*  5474 	mov	_loc_CkcsBaseAddr,r11
00001366 e1f60c00       5475 	mulhi	12,r1,ep
0000136a cbf1           5476 	add	r11,ep
0000136c 0265           5477 	sld.w	4[ep],r12
0000136e 63670900       5478 	st.w	r12,8[sp]
                        5479 --1827:         div_idx      = loc_CkcsBaseAddr[ClkData->Cks].DivIdx;
00001372 3d0f0000       5480 	ld.h	0[r29],r1
00001376 2b0600000000*  5481 	mov	_loc_CkcsBaseAddr,r11
0000137c e1f60c00       5482 	mulhi	12,r1,ep
00001380 cbf1           5483 	add	r11,ep
00001382 6860           5484 	sld.bu	8[ep],r12
00001384 43670100       5485 	st.b	r12,1[sp]
00001388 e505*          5486 	br	.L4012
                        5487 .L4010:
                        5488 --1828:     }
                        5489 --1829:     else
                        5490 --1830:     {
                        5491 --1831:         R_DEV_ERROR((uint32_t)(ClkData->Cks), R_DEV_ERR_IDX, "Wrong clock domain selected!");
                        5492 --line1831
                        5493 ..lin.D.3A.5CRenesas_Electronics.5CD1x_RGL.5Crgl_ghs_D1Lx_obj_V1.2E2.2E0.5Cvlib.5Capp.5Cgfx_apps.5Csimple_draw_d1l2.5Ctarget.5Cd1lx_mango_ghs.5Cobj.5Cr_dev_clk.300::
                        5494 .LDWlin300:
0000138a 3d370100       5495 	ld.w	0[r29],r6
0000138e 083a           5496 	mov	8,r7
                        5497 	jarl	_R_DEV_ErrorHandler,lp

                                                                      Page 94
                                                              C:\Users\YINGAO~1\AppData\Local\Temp\gh_00007041.si
                        5497 <EXPANSION BEGIN>
                        5497 jarl22 _R_DEV_ErrorHandler , lp 
00001390 80ff0000*      5497 <EXPANSION END>
                        5498 .L4012:
                        5499 --1832:     }
                        5500 --1834:     if (sel_addr < (uint32_t) R_DEV_CKS_SRC_LAST)
                        5501 --line1834
                        5502 ..lin.D.3A.5CRenesas_Electronics.5CD1x_RGL.5Crgl_ghs_D1Lx_obj_V1.2E2.2E0.5Cvlib.5Capp.5Cgfx_apps.5Csimple_draw_d1l2.5Ctarget.5Cd1lx_mango_ghs.5Cobj.5Cr_dev_clk.301::
                        5503 .LDWlin301:
00001394 1906deff       5504 	addi	-34,r25,zero
00001398 810d*          5505 	bl	.L4013
                        5506 --1835:     {
                        5507 --1836:         /* There is no selector, the source clock is fixed */
                        5508 --1837:         /* But there is a divider for sure, and sel_addr is the  R_DEV_CKS_SRC
                        5509 --1838:            in this case */
                        5510 --1839:         cks_src         = (r_dev_CksSrc_t)sel_addr;
                        5511 --line1839
                        5512 ..lin.D.3A.5CRenesas_Electronics.5CD1x_RGL.5Crgl_ghs_D1Lx_obj_V1.2E2.2E0.5Cvlib.5Capp.5Cgfx_apps.5Csimple_draw_d1l2.5Ctarget.5Cd1lx_mango_ghs.5Cobj.5Cr_dev_clk.302::
                        5513 .LDWlin302:
0000139a 19d8           5514 	mov	r25,r27
                        5515 --1840:         /* Get Frequency here, if result is 0, the Clock is inactive */
                        5516 --1841:         cks_act         = loc_SrcFrequencyHz(cks_src);
0000139c 1b30           5517 	mov	r27,r6
                        5518 	jarl	_loc_SrcFrequencyHz,lp
                        5518 <EXPANSION BEGIN>
                        5518 jarl22 _loc_SrcFrequencyHz , lp 
0000139e bfffccf5*      5518 <EXPANSION END>
000013a2 63570500       5519 	st.w	r10,4[sp]
000013a6 9515*          5520 	br	.L4015
                        5521 .L4013:
                        5522 --1842:     }
                        5523 --1843:     else
                        5524 --1844:     {
                        5525 --1845:         reg_val         = R_DEV_READ_REG(32, sel_addr);
                        5526 --line1845
                        5527 ..lin.D.3A.5CRenesas_Electronics.5CD1x_RGL.5Crgl_ghs_D1Lx_obj_V1.2E2.2E0.5Cvlib.5Capp.5Cgfx_apps.5Csimple_draw_d1l2.5Ctarget.5Cd1lx_mango_ghs.5Cobj.5Cr_dev_clk.303::
                        5528 .LDWlin303:
000013a8 39e70100       5529 	ld.w	0[r25],r28
                        5530 --1846:         cks_src         = loc_ClockTree[ClkData->Cks][reg_val];
000013ac 3d0f0100       5531 	ld.w	0[r29],r1
000013b0 3e0600000000*  5532 	mov	_loc_ClockTree,ep
000013b6 c30a           5533 	shl	3,r1
000013b8 dc09           5534 	add	r28,r1
000013ba c20a           5535 	shl	2,r1
000013bc c1f1           5536 	add	r1,ep
000013be 00dd           5537 	sld.w	0[ep],r27
                        5538 --1847:         cks_act         = R_DEV_READ_REG(32, sel_addr + LOC_CKS_A);
000013c0 395f0900       5539 	ld.w	8[r25],r11
000013c4 635f0500       5540 	st.w	r11,4[sp]
                        5541 .L4015:
                        5542 --1849:     }
                        5543 --1850:     if (LOC_DIV == cks_src)
000013c8 1b06ddff       5544 	addi	-35,r27,zero
000013cc ba1d*          5545 	bne	.L4016
                        5546 --1851:     {
                        5547 --1852:         /* The source clock is not stored in the clock tree if the selection is like:
                        5548 --1853:            use divider output or an internal OSC, here we have three "special" casess  */
                        5549 --1854:         switch (ClkData->Cks)
                        5550 --line1854
                        5551 ..lin.D.3A.5CRenesas_Electronics.5CD1x_RGL.5Crgl_ghs_D1Lx_obj_V1.2E2.2E0.5Cvlib.5Capp.5Cgfx_apps.5Csimple_draw_d1l2.5Ctarget.5Cd1lx_mango_ghs.5Cobj.5Cr_dev_clk.304::
                        5552 .LDWlin304:

                                                                      Page 95
                                                              C:\Users\YINGAO~1\AppData\Local\Temp\gh_00007041.si
000013ce 3d0f0100       5553 	ld.w	0[r29],r1
000013d2 0106eeff       5554 	addi	-18,r1,zero
000013d6 820d*          5555 	be	.L4020
000013d8 0106edff       5556 	addi	-19,r1,zero
000013dc f205*          5557 	be	.L4021
000013de 0106ebff       5558 	addi	-21,r1,zero
000013e2 9a0d*          5559 	bne	.L4023
000013e4 e505*          5560 	br	.L4022
                        5561 .L4020:
                        5562 --1855:         {
                        5563 --1856:         case R_DEV_CKS_CLKJIT:
                        5564 --1857:             cks_src =  R_DEV_CKS_SRC_PLL0;
                        5565 --line1857
                        5566 ..lin.D.3A.5CRenesas_Electronics.5CD1x_RGL.5Crgl_ghs_D1Lx_obj_V1.2E2.2E0.5Cvlib.5Capp.5Cgfx_apps.5Csimple_draw_d1l2.5Ctarget.5Cd1lx_mango_ghs.5Cobj.5Cr_dev_clk.305::
                        5567 .LDWlin305:
000013e6 06da           5568 	mov	6,r27
000013e8 f505*          5569 	br	.L4018
                        5570 .L4021:
                        5571 --1858:             break;
                        5572 --1859:         case R_DEV_CKS_CLKFIX:
                        5573 --1860:             cks_src =  R_DEV_CKS_SRC_PLLFIX;
                        5574 --line1860
                        5575 ..lin.D.3A.5CRenesas_Electronics.5CD1x_RGL.5Crgl_ghs_D1Lx_obj_V1.2E2.2E0.5Cvlib.5Capp.5Cgfx_apps.5Csimple_draw_d1l2.5Ctarget.5Cd1lx_mango_ghs.5Cobj.5Cr_dev_clk.306::
                        5576 .LDWlin306:
000013ea 20de1400       5577 	movea	20,zero,r27
000013ee c505*          5578 	br	.L4018
                        5579 .L4022:
                        5580 --1861:             break;
                        5581 --1862:         case R_DEV_CKS_PLL2IN:
                        5582 --1863:             cks_src =  R_DEV_CKS_SRC_PLL0;
                        5583 --line1863
                        5584 ..lin.D.3A.5CRenesas_Electronics.5CD1x_RGL.5Crgl_ghs_D1Lx_obj_V1.2E2.2E0.5Cvlib.5Capp.5Cgfx_apps.5Csimple_draw_d1l2.5Ctarget.5Cd1lx_mango_ghs.5Cobj.5Cr_dev_clk.307::
                        5585 .LDWlin307:
000013f0 06da           5586 	mov	6,r27
000013f2 a505*          5587 	br	.L4018
                        5588 .L4023:
                        5589 --line1866
                        5590 ..lin.D.3A.5CRenesas_Electronics.5CD1x_RGL.5Crgl_ghs_D1Lx_obj_V1.2E2.2E0.5Cvlib.5Capp.5Cgfx_apps.5Csimple_draw_d1l2.5Ctarget.5Cd1lx_mango_ghs.5Cobj.5Cr_dev_clk.308::
                        5591 .LDWlin308:
000013f4 0000           5592 	nop
                        5593 .L4018:
                        5594 --1864:             break;
                        5595 --1865:         default:
                        5596 --1866:             break;
                        5597 --1867:         }
                        5598 --1868:         cks_act = loc_SrcFrequencyHz(cks_src);
000013f6 1b30           5599 	mov	r27,r6
                        5600 	jarl	_loc_SrcFrequencyHz,lp
                        5600 <EXPANSION BEGIN>
                        5600 jarl22 _loc_SrcFrequencyHz , lp 
000013f8 bfff72f5*      5600 <EXPANSION END>
000013fc 63570500       5601 	st.w	r10,4[sp]
00001400 b515*          5602 	br	.L4024
                        5603 .L4016:
                        5604 --1870:     }
                        5605 --1871:     else
                        5606 --1872:     {
                        5607 --1873:         /* now the other way round, we need to check if the
                        5608 --1874:         divider output is selected or a fixed clock
                        5609 --1875:         (see PLL2In fro example
                        5610 --1876:         - per selection we have divider output, or MOSC w/o divider */

                                                                      Page 96
                                                              C:\Users\YINGAO~1\AppData\Local\Temp\gh_00007041.si
                        5611 --1877:         switch (ClkData->Cks)
                        5612 --line1877
                        5613 ..lin.D.3A.5CRenesas_Electronics.5CD1x_RGL.5Crgl_ghs_D1Lx_obj_V1.2E2.2E0.5Cvlib.5Capp.5Cgfx_apps.5Csimple_draw_d1l2.5Ctarget.5Cd1lx_mango_ghs.5Cobj.5Cr_dev_clk.309::
                        5614 .LDWlin309:
00001402 3d0f0100       5615 	ld.w	0[r29],r1
00001406 010eeeff       5616 	addi	-18,r1,r1
0000140a 610a           5617 	cmp	1,r1
0000140c b305*          5618 	bnh	.L4027
0000140e 630a           5619 	cmp	3,r1
00001410 da05*          5620 	bne	.L4028
                        5621 .L4027:
                        5622 --1878:         {
                        5623 --1879:         case R_DEV_CKS_CLKJIT:
                        5624 --1880:         case R_DEV_CKS_CLKFIX:
                        5625 --1881:         case R_DEV_CKS_PLL2IN:
                        5626 --1882:             /* The source clock was stored in the selector,
                        5627 --1883:             and in this case the divider does not count */
                        5628 --1884:             div_addr = 0;
                        5629 --line1884
                        5630 ..lin.D.3A.5CRenesas_Electronics.5CD1x_RGL.5Crgl_ghs_D1Lx_obj_V1.2E2.2E0.5Cvlib.5Capp.5Cgfx_apps.5Csimple_draw_d1l2.5Ctarget.5Cd1lx_mango_ghs.5Cobj.5Cr_dev_clk.310::
                        5631 .LDWlin310:
00001412 63070900       5632 	st.w	zero,8[sp]
00001416 005a           5633 	mov	0,r11
00001418 a505*          5634 	br	.L4025
                        5635 .L4028:
                        5636 --line1887
                        5637 ..lin.D.3A.5CRenesas_Electronics.5CD1x_RGL.5Crgl_ghs_D1Lx_obj_V1.2E2.2E0.5Cvlib.5Capp.5Cgfx_apps.5Csimple_draw_d1l2.5Ctarget.5Cd1lx_mango_ghs.5Cobj.5Cr_dev_clk.311::
                        5638 .LDWlin311:
0000141a 0000           5639 	nop
                        5640 .L4025:
                        5641 --1885:             break;
                        5642 --1886:         default:
                        5643 --1887:             break;
                        5644 --1888:         }
                        5645 --1889:         cks_act = loc_SrcFrequencyHz(cks_src);
0000141c 1b30           5646 	mov	r27,r6
                        5647 	jarl	_loc_SrcFrequencyHz,lp
                        5647 <EXPANSION BEGIN>
                        5647 jarl22 _loc_SrcFrequencyHz , lp 
0000141e bfff4cf5*      5647 <EXPANSION END>
00001422 63570500       5648 	st.w	r10,4[sp]
                        5649 .L4024:
                        5650 --1890:     }
                        5651 --1892:     /* Selected disabled clock or clock source inactive,
                        5652 --1893:       we're done here                                     */
                        5653 --1894:     if ((LOC_DIS == cks_src) || (0 == cks_act))
                        5654 --line1894
                        5655 ..lin.D.3A.5CRenesas_Electronics.5CD1x_RGL.5Crgl_ghs_D1Lx_obj_V1.2E2.2E0.5Cvlib.5Capp.5Cgfx_apps.5Csimple_draw_d1l2.5Ctarget.5Cd1lx_mango_ghs.5Cobj.5Cr_dev_clk.312::
                        5656 .LDWlin312:
00001426 e0d9           5657 	cmp	zero,r27
00001428 d205*          5658 	be	.L4030
0000142a 235f0500       5659 	ld.w	4[sp],r11
0000142e e059           5660 	cmp	zero,r11
00001430 9a2d*          5661 	bne	.L4029
                        5662 .L4030:
                        5663 --1895:     {
                        5664 --1896:         /* Clock disabled */
                        5665 --1897:         ClkData->SrcId      = R_DEV_CKS_SRC_DISABLED;
                        5666 --line1897
                        5667 ..lin.D.3A.5CRenesas_Electronics.5CD1x_RGL.5Crgl_ghs_D1Lx_obj_V1.2E2.2E0.5Cvlib.5Capp.5Cgfx_apps.5Csimple_draw_d1l2.5Ctarget.5Cd1lx_mango_ghs.5Cobj.5Cr_dev_clk.313::
                        5668 .LDWlin313:

                                                                      Page 97
                                                              C:\Users\YINGAO~1\AppData\Local\Temp\gh_00007041.si
00001432 7d070500       5669 	st.w	zero,4[r29]
                        5670 --1898:         ClkData->Div        = 0;
00001436 7d070800       5671 	st.h	zero,8[r29]
                        5672 --1900:         /* Stop mask for AWO only */
                        5673 --1901:         if (ClkData->Cks < R_DEV_CKS_FOUT)
0000143a 3d0f0100       5674 	ld.w	0[r29],r1
0000143e 630a           5675 	cmp	3,r1
00001440 ee0d*          5676 	bge	.L4032
                        5677 --1902:         {
                        5678 --1903:             ClkData->StpReqMsk  = R_DEV_READ_REG(32, div_addr + LOC_CKS_STPMSK);
                        5679 --line1903
                        5680 ..lin.D.3A.5CRenesas_Electronics.5CD1x_RGL.5Crgl_ghs_D1Lx_obj_V1.2E2.2E0.5Cvlib.5Capp.5Cgfx_apps.5Csimple_draw_d1l2.5Ctarget.5Cd1lx_mango_ghs.5Cobj.5Cr_dev_clk.314::
                        5681 .LDWlin314:
00001442 235f0900       5682 	ld.w	8[sp],r11
00001446 2b0f1900       5683 	ld.w	24[r11],r1
0000144a 5d0f0a00       5684 	st.b	r1,10[r29]
                        5685 --1904:             /* We just want the stop mask here */
                        5686 --1905:             ClkData->StpReqMsk &= 0x1u;
0000144e 9d0f0b00       5687 	ld.bu	10[r29],r1
00001452 c10e0100       5688 	andi	1,r1,r1
00001456 5d0f0a00       5689 	st.b	r1,10[r29]
0000145a a515*          5690 	br	.L4034
                        5691 .L4032:
                        5692 --1907:         }
                        5693 --1908:         else if (ClkData->Cks == R_DEV_CKS_FOUT)
                        5694 --line1908
                        5695 ..lin.D.3A.5CRenesas_Electronics.5CD1x_RGL.5Crgl_ghs_D1Lx_obj_V1.2E2.2E0.5Cvlib.5Capp.5Cgfx_apps.5Csimple_draw_d1l2.5Ctarget.5Cd1lx_mango_ghs.5Cobj.5Cr_dev_clk.315::
                        5696 .LDWlin315:
0000145c 3d0f0100       5697 	ld.w	0[r29],r1
00001460 630a           5698 	cmp	3,r1
00001462 ca0d*          5699 	bne	.L4035
                        5700 --1909:         {
                        5701 --1910:             ClkData->StpReqMsk  = R_DEV_READ_REG(32, sel_addr + LOC_CKS_STPMSK);
                        5702 --line1910
                        5703 ..lin.D.3A.5CRenesas_Electronics.5CD1x_RGL.5Crgl_ghs_D1Lx_obj_V1.2E2.2E0.5Cvlib.5Capp.5Cgfx_apps.5Csimple_draw_d1l2.5Ctarget.5Cd1lx_mango_ghs.5Cobj.5Cr_dev_clk.316::
                        5704 .LDWlin316:
00001464 390f1900       5705 	ld.w	24[r25],r1
00001468 5d0f0a00       5706 	st.b	r1,10[r29]
                        5707 --1911:             /* We just want the stop mask here */
                        5708 --1912:             ClkData->StpReqMsk &= 0x1u;
0000146c 9d0f0b00       5709 	ld.bu	10[r29],r1
00001470 c10e0100       5710 	andi	1,r1,r1
00001474 5d0f0a00       5711 	st.b	r1,10[r29]
00001478 b505*          5712 	br	.L4034
                        5713 .L4035:
                        5714 --1913:         }
                        5715 --1914:         else
                        5716 --1915:         {
                        5717 --1916:             /* nothing to do here */
                        5718 --1917:             ClkData->StpReqMsk  = 0;
                        5719 --line1917
                        5720 ..lin.D.3A.5CRenesas_Electronics.5CD1x_RGL.5Crgl_ghs_D1Lx_obj_V1.2E2.2E0.5Cvlib.5Capp.5Cgfx_apps.5Csimple_draw_d1l2.5Ctarget.5Cd1lx_mango_ghs.5Cobj.5Cr_dev_clk.317::
                        5721 .LDWlin317:
0000147a 5d070a00       5722 	st.b	zero,10[r29]
                        5723 .L4034:
                        5724 --1918:         }
                        5725 --1919:         return 0;
0000147e 0052           5726 	mov	0,r10
00001480 d56d*          5727 	br	.L4003
                        5728 .L4029:
                        5729 --1920:     }

                                                                      Page 98
                                                              C:\Users\YINGAO~1\AppData\Local\Temp\gh_00007041.si
                        5730 --1922:     /* Get divider */
                        5731 --1923:     if (0 != div_addr)
                        5732 --line1923
                        5733 ..lin.D.3A.5CRenesas_Electronics.5CD1x_RGL.5Crgl_ghs_D1Lx_obj_V1.2E2.2E0.5Cvlib.5Capp.5Cgfx_apps.5Csimple_draw_d1l2.5Ctarget.5Cd1lx_mango_ghs.5Cobj.5Cr_dev_clk.318::
                        5734 .LDWlin318:
00001482 235f0900       5735 	ld.w	8[sp],r11
00001486 e059           5736 	cmp	zero,r11
00001488 f22d*          5737 	be	.L4039
                        5738 --1924:     {
                        5739 --1925:         for (i = 0; i < 8; i++ )
                        5740 --line1925
                        5741 ..lin.D.3A.5CRenesas_Electronics.5CD1x_RGL.5Crgl_ghs_D1Lx_obj_V1.2E2.2E0.5Cvlib.5Capp.5Cgfx_apps.5Csimple_draw_d1l2.5Ctarget.5Cd1lx_mango_ghs.5Cobj.5Cr_dev_clk.319::
                        5742 .LDWlin319:
0000148a 00d2           5743 	mov	0,r26
0000148c 0000           5744 	nop
                        5745 .L4043:
                        5746 --1926:         {
                        5747 --1927:             if (LOC_F == loc_ClkSelDiv[div_idx][i])
0000148e a30f0100       5748 	ld.bu	1[sp],r1
00001492 2c0600000000*  5749 	mov	_loc_ClkSelDiv,r12
00001498 c30a           5750 	shl	3,r1
0000149a da09           5751 	add	r26,r1
0000149c c10a           5752 	shl	1,r1
0000149e 01f0           5753 	mov	r1,ep
000014a0 ccf1           5754 	add	r12,ep
000014a2 7008           5755 	sld.hu	0[ep],r1
000014a4 a106fefe       5756 	xori	65278,r1,zero
000014a8 aa05*          5757 	bne	.L4044
                        5758 --1928:             {
                        5759 --1929:                 break;
                        5760 --line1929
                        5761 ..lin.D.3A.5CRenesas_Electronics.5CD1x_RGL.5Crgl_ghs_D1Lx_obj_V1.2E2.2E0.5Cvlib.5Capp.5Cgfx_apps.5Csimple_draw_d1l2.5Ctarget.5Cd1lx_mango_ghs.5Cobj.5Cr_dev_clk.320::
                        5762 .LDWlin320:
000014aa d505*          5763 	br	.L4046
                        5764 .L4044:
                        5765 --line1925
                        5766 ..lin.D.3A.5CRenesas_Electronics.5CD1x_RGL.5Crgl_ghs_D1Lx_obj_V1.2E2.2E0.5Cvlib.5Capp.5Cgfx_apps.5Csimple_draw_d1l2.5Ctarget.5Cd1lx_mango_ghs.5Cobj.5Cr_dev_clk.321::
                        5767 .LDWlin321:
000014ac 41d2           5768 	add	1,r26
000014ae 9a00           5769 	zxb	r26
000014b0 68d2           5770 	cmp	8,r26
000014b2 e1ed*          5771 	bl	.L4043
                        5772 .L4046:
                        5773 --1930:             }
                        5774 --1931:         }
                        5775 --1932:         reg_val = R_DEV_READ_REG(32, div_addr);
                        5776 --line1932
                        5777 ..lin.D.3A.5CRenesas_Electronics.5CD1x_RGL.5Crgl_ghs_D1Lx_obj_V1.2E2.2E0.5Cvlib.5Capp.5Cgfx_apps.5Csimple_draw_d1l2.5Ctarget.5Cd1lx_mango_ghs.5Cobj.5Cr_dev_clk.322::
                        5778 .LDWlin322:
000014b4 235f0900       5779 	ld.w	8[sp],r11
000014b8 2be70100       5780 	ld.w	0[r11],r28
                        5781 --1933:         if (i < 8 )
000014bc 68d2           5782 	cmp	8,r26
000014be e905*          5783 	bnl	.L4048
                        5784 --1934:         {
                        5785 --1935:            cks_div = reg_val;
                        5786 --line1935
                        5787 ..lin.D.3A.5CRenesas_Electronics.5CD1x_RGL.5Crgl_ghs_D1Lx_obj_V1.2E2.2E0.5Cvlib.5Capp.5Cgfx_apps.5Csimple_draw_d1l2.5Ctarget.5Cd1lx_mango_ghs.5Cobj.5Cr_dev_clk.323::
                        5788 .LDWlin323:
000014c0 dc5effff       5789 	andi	65535,r28,r11
000014c4 635f0200       5790 	st.h	r11,2[sp]

                                                                      Page 99
                                                              C:\Users\YINGAO~1\AppData\Local\Temp\gh_00007041.si
000014c8 a515*          5791 	br	.L4051
                        5792 .L4048:
                        5793 --1936:         }
                        5794 --1937:         else
                        5795 --1938:         {
                        5796 --1939:            cks_div = loc_ClkSelDiv[div_idx][reg_val];
                        5797 --line1939
                        5798 ..lin.D.3A.5CRenesas_Electronics.5CD1x_RGL.5Crgl_ghs_D1Lx_obj_V1.2E2.2E0.5Cvlib.5Capp.5Cgfx_apps.5Csimple_draw_d1l2.5Ctarget.5Cd1lx_mango_ghs.5Cobj.5Cr_dev_clk.324::
                        5799 .LDWlin324:
000014ca a30f0100       5800 	ld.bu	1[sp],r1
000014ce 2c0600000000*  5801 	mov	_loc_ClkSelDiv,r12
000014d4 c30a           5802 	shl	3,r1
000014d6 dc09           5803 	add	r28,r1
000014d8 c10a           5804 	shl	1,r1
000014da 01f0           5805 	mov	r1,ep
000014dc ccf1           5806 	add	r12,ep
000014de 7068           5807 	sld.hu	0[ep],r13
000014e0 636f0200       5808 	st.h	r13,2[sp]
000014e4 c505*          5809 	br	.L4051
                        5810 .L4039:
                        5811 --1940:         }
                        5812 --1941:     }
                        5813 --1942:     else
                        5814 --1943:     {
                        5815 --1944:         cks_div = 1;
                        5816 --line1944
                        5817 ..lin.D.3A.5CRenesas_Electronics.5CD1x_RGL.5Crgl_ghs_D1Lx_obj_V1.2E2.2E0.5Cvlib.5Capp.5Cgfx_apps.5Csimple_draw_d1l2.5Ctarget.5Cd1lx_mango_ghs.5Cobj.5Cr_dev_clk.325::
                        5818 .LDWlin325:
000014e6 015a           5819 	mov	1,r11
000014e8 635f0200       5820 	st.h	r11,2[sp]
                        5821 .L4051:
                        5822 --1945:     }
                        5823 --1946:     /* Divider disabled */
                        5824 --1947:     if (0 == cks_div)
000014ec e35f0300       5825 	ld.hu	2[sp],r11
000014f0 e059           5826 	cmp	zero,r11
000014f2 ba05*          5827 	bne	.L4052
                        5828 --1948:     {
                        5829 --1949:         /* Clock disabled */
                        5830 --1950:         reg_val =  0;
                        5831 --line1950
                        5832 ..lin.D.3A.5CRenesas_Electronics.5CD1x_RGL.5Crgl_ghs_D1Lx_obj_V1.2E2.2E0.5Cvlib.5Capp.5Cgfx_apps.5Csimple_draw_d1l2.5Ctarget.5Cd1lx_mango_ghs.5Cobj.5Cr_dev_clk.326::
                        5833 .LDWlin326:
000014f4 00e2           5834 	mov	0,r28
000014f6 950d*          5835 	br	.L4054
                        5836 .L4052:
                        5837 --1951:     }
                        5838 --1952:     else
                        5839 --1953:     {
                        5840 --1954:         reg_val = loc_SrcFrequencyHz(cks_src) /  cks_div;
                        5841 --line1954
                        5842 ..lin.D.3A.5CRenesas_Electronics.5CD1x_RGL.5Crgl_ghs_D1Lx_obj_V1.2E2.2E0.5Cvlib.5Capp.5Cgfx_apps.5Csimple_draw_d1l2.5Ctarget.5Cd1lx_mango_ghs.5Cobj.5Cr_dev_clk.327::
                        5843 .LDWlin327:
000014f8 1b30           5844 	mov	r27,r6
                        5845 	jarl	_loc_SrcFrequencyHz,lp
                        5845 <EXPANSION BEGIN>
                        5845 jarl22 _loc_SrcFrequencyHz , lp 
000014fa bfff70f4*      5845 <EXPANSION END>
000014fe e35f0300       5846 	ld.hu	2[sp],r11
00001502 0ae0           5847 	mov	r10,r28
00001504 ebe7fe02       5848 	divqu	r11,r28,zero

                                                                      Page 100
                                                              C:\Users\YINGAO~1\AppData\Local\Temp\gh_00007041.si
                        5849 .L4054:
                        5850 --1955:     }
                        5851 --1956:     ClkData->SrcId      = cks_src;
                        5852 --line1956
                        5853 ..lin.D.3A.5CRenesas_Electronics.5CD1x_RGL.5Crgl_ghs_D1Lx_obj_V1.2E2.2E0.5Cvlib.5Capp.5Cgfx_apps.5Csimple_draw_d1l2.5Ctarget.5Cd1lx_mango_ghs.5Cobj.5Cr_dev_clk.328::
                        5854 .LDWlin328:
00001508 7ddf0500       5855 	st.w	r27,4[r29]
                        5856 --1957:     ClkData->Div        = cks_div;
0000150c e35f0300       5857 	ld.hu	2[sp],r11
00001510 7d5f0800       5858 	st.h	r11,8[r29]
                        5859 --1958:     /* Stop mask for AWO only */
                        5860 --1959:     if (ClkData->Cks < R_DEV_CKS_FOUT)
00001514 3d0f0100       5861 	ld.w	0[r29],r1
00001518 630a           5862 	cmp	3,r1
0000151a ee0d*          5863 	bge	.L4055
                        5864 --1960:     {
                        5865 --1961:         ClkData->StpReqMsk  = R_DEV_READ_REG(32, div_addr + LOC_CKS_STPMSK);
                        5866 --line1961
                        5867 ..lin.D.3A.5CRenesas_Electronics.5CD1x_RGL.5Crgl_ghs_D1Lx_obj_V1.2E2.2E0.5Cvlib.5Capp.5Cgfx_apps.5Csimple_draw_d1l2.5Ctarget.5Cd1lx_mango_ghs.5Cobj.5Cr_dev_clk.329::
                        5868 .LDWlin329:
0000151c 235f0900       5869 	ld.w	8[sp],r11
00001520 2b0f1900       5870 	ld.w	24[r11],r1
00001524 5d0f0a00       5871 	st.b	r1,10[r29]
                        5872 --1962:         /* We just want the stop mask here */
                        5873 --1963:         ClkData->StpReqMsk &= 0x1u;
00001528 9d0f0b00       5874 	ld.bu	10[r29],r1
0000152c c10e0100       5875 	andi	1,r1,r1
00001530 5d0f0a00       5876 	st.b	r1,10[r29]
00001534 a515*          5877 	br	.L4057
                        5878 .L4055:
                        5879 --1964:     }
                        5880 --1965:     else if (ClkData->Cks == R_DEV_CKS_FOUT)
                        5881 --line1965
                        5882 ..lin.D.3A.5CRenesas_Electronics.5CD1x_RGL.5Crgl_ghs_D1Lx_obj_V1.2E2.2E0.5Cvlib.5Capp.5Cgfx_apps.5Csimple_draw_d1l2.5Ctarget.5Cd1lx_mango_ghs.5Cobj.5Cr_dev_clk.330::
                        5883 .LDWlin330:
00001536 3d0f0100       5884 	ld.w	0[r29],r1
0000153a 630a           5885 	cmp	3,r1
0000153c ca0d*          5886 	bne	.L4058
                        5887 --1966:     {
                        5888 --1967:         ClkData->StpReqMsk  = R_DEV_READ_REG(32, sel_addr + LOC_CKS_STPMSK);
                        5889 --line1967
                        5890 ..lin.D.3A.5CRenesas_Electronics.5CD1x_RGL.5Crgl_ghs_D1Lx_obj_V1.2E2.2E0.5Cvlib.5Capp.5Cgfx_apps.5Csimple_draw_d1l2.5Ctarget.5Cd1lx_mango_ghs.5Cobj.5Cr_dev_clk.331::
                        5891 .LDWlin331:
0000153e 390f1900       5892 	ld.w	24[r25],r1
00001542 5d0f0a00       5893 	st.b	r1,10[r29]
                        5894 --1968:         /* We just want the stop mask here */
                        5895 --1969:         ClkData->StpReqMsk &= 0x1u;
00001546 9d0f0b00       5896 	ld.bu	10[r29],r1
0000154a c10e0100       5897 	andi	1,r1,r1
0000154e 5d0f0a00       5898 	st.b	r1,10[r29]
00001552 b505*          5899 	br	.L4057
                        5900 .L4058:
                        5901 --1970:     }
                        5902 --1971:     else
                        5903 --1972:     {
                        5904 --1973:         /* nothing to do here */
                        5905 --1974:         ClkData->StpReqMsk  = 0;
                        5906 --line1974
                        5907 ..lin.D.3A.5CRenesas_Electronics.5CD1x_RGL.5Crgl_ghs_D1Lx_obj_V1.2E2.2E0.5Cvlib.5Capp.5Cgfx_apps.5Csimple_draw_d1l2.5Ctarget.5Cd1lx_mango_ghs.5Cobj.5Cr_dev_clk.332::
                        5908 .LDWlin332:
00001554 5d070a00       5909 	st.b	zero,10[r29]

                                                                      Page 101
                                                              C:\Users\YINGAO~1\AppData\Local\Temp\gh_00007041.si
                        5910 .L4057:
                        5911 --1975:     }
                        5912 --1976:     return  reg_val;
00001558 1c50           5913 	mov	r28,r10
                        5914 .L4003:
                        5915 --	    .ef
                        5916 .LDW26:
0000155a 4a06ff70       5917 	dispose	5,{r25,r26,r27,r28,r29,r31},[lp]
                        5918 	.type	_R_DEV_GetClkConfig,@function
                        5919 	.size	_R_DEV_GetClkConfig,.-_R_DEV_GetClkConfig
                        5920 	.align	2
                        5921 .LDW36:
                        5922 --_sel_addr	r25	local
                        5923 --_div_addr	8[sp]	local
                        5924 --_div_idx	1[sp]	local
                        5925 --_reg_val	r28	local
                        5926 --_i	r26	local
                        5927 --_cks_src	r27	local
                        5928 --_cks_div	2[sp]	local
                        5929 --_cks_act	4[sp]	local
                        5930 
                        5931 --_ClkData	r29	param
                        5932 
                        5933 	.section ".bss","awb"
                        5934 .L4228:
                        5935 	.type	.L4228,@object
                        5936 	.size	.L4228,0
                        5937 	.data
                        5938 	.text
                        5939 
                        5940 --1977: }
                        5941 
                        5942 --1981: /*******************************************************************************
                        5943 --1982:   Function: R_DEV_SetViClk0
                        5944 --1984:     se: <r_dev_clk_types.h> for details
                        5945 --1985: */
                        5946 --1986: void R_DEV_SetViClk0(uint32_t Freq)
                        5947 	.align	2
                        5948 	.align	2
                        5949 	.global	_R_DEV_SetViClk0
                        5950 _R_DEV_SetViClk0:
0000155e 0670           5951 	mov	r6,r14
00001560 210600000000*  5952 	mov	_loc_Vdce0ViFreq,r1
                        5953 --	    .bf
                        5954 .LDW46:
                        5955 --1987: {
                        5956 --1988:     loc_Vdce0ViFreq = Freq;
00001566 2b0600000000*  5957 	mov	_loc_Vdce0ViFreq,r11
0000156c 6b770100       5958 	st.w	r14,0[r11]
                        5959 --1989: }
00001570 0000           5960 	nop
                        5961 --	    .ef
                        5962 .LDW56:
00001572 7f00           5963 	jmp	[lp]
                        5964 	.type	_R_DEV_SetViClk0,@function
                        5965 	.size	_R_DEV_SetViClk0,.-_R_DEV_SetViClk0
                        5966 	.align	2
                        5967 .LDW66:
                        5968 
                        5969 --_Freq	r14	param
                        5970 

                                                                      Page 102
                                                              C:\Users\YINGAO~1\AppData\Local\Temp\gh_00007041.si
                        5971 	.data
                        5972 	.text
                        5973 
                        5974 
                        5975 --1991: /*******************************************************************************
                        5976 --1992:   Function: R_DEV_SetViClk0
                        5977 --1994:     se: <r_dev_clk_types.h> for details
                        5978 --1995: */
                        5979 --1996: void R_DEV_SetViClk1(uint32_t Freq)
                        5980 	.align	2
                        5981 	.align	2
                        5982 	.global	_R_DEV_SetViClk1
                        5983 _R_DEV_SetViClk1:
00001574 0670           5984 	mov	r6,r14
00001576 210600000000*  5985 	mov	_loc_Vdce1ViFreq,r1
                        5986 --	    .bf
                        5987 .LDW76:
                        5988 --1997: {
                        5989 --1998:     loc_Vdce1ViFreq = Freq;
0000157c 2b0600000000*  5990 	mov	_loc_Vdce1ViFreq,r11
00001582 6b770100       5991 	st.w	r14,0[r11]
                        5992 --1999: }
00001586 0000           5993 	nop
                        5994 --	    .ef
                        5995 .LDW86:
00001588 7f00           5996 	jmp	[lp]
                        5997 	.type	_R_DEV_SetViClk1,@function
                        5998 	.size	_R_DEV_SetViClk1,.-_R_DEV_SetViClk1
                        5999 	.align	2
                        6000 .LDW96:
                        6001 
                        6002 --_Freq	r14	param
                        6003 
                        6004 	.data
                        6005 	.text
                        6006 
                        6007 
                        6008 --2001: /*******************************************************************************
                        6009 --2002:   Function: R_DEV_BusFrequencyHz
                        6010 --2004:     se: <r_dev_api.h> for details
                        6011 --2005: */
                        6012 --2006: uint32_t R_DEV_BusFrequencyHz(r_dev_Bus_t Bus)
                        6013 	.align	2
                        6014 	.align	2
                        6015 	.global	_R_DEV_BusFrequencyHz
                        6016 _R_DEV_BusFrequencyHz:
0000158a 8007e130       6017 	prepare	{r26,r27,r28,r29,r31},0
0000158e 06d8           6018 	mov	r6,r27
00001590 3a0600000000*  6019 	mov	_locBusRegAddr,r26
                        6020 --	    .bf
                        6021 .LDW07:
                        6022 --2007: {
                        6023 --2008:     uint32_t freq  = 0;
00001596 00ea           6024 	mov	0,r29
                        6025 --2009:     uint32_t ratio = 1;
00001598 01e2           6026 	mov	1,r28
                        6027 --2011:     if (Bus < R_DEV_CLK_BUS_LAST) /* there is an enable setting */
0000159a 6bda           6028 	cmp	11,r27
0000159c be0d*          6029 	bge	.L4554
                        6030 --2012:     {
                        6031 --2013:         if (0 == R_DEV_READ_REG(32, locBusRegAddr[Bus]+ LOC_CKS_A))

                                                                      Page 103
                                                              C:\Users\YINGAO~1\AppData\Local\Temp\gh_00007041.si
                        6032 --line2013
                        6033 ..lin.D.3A.5CRenesas_Electronics.5CD1x_RGL.5Crgl_ghs_D1Lx_obj_V1.2E2.2E0.5Cvlib.5Capp.5Cgfx_apps.5Csimple_draw_d1l2.5Ctarget.5Cd1lx_mango_ghs.5Cobj.5Cr_dev_clk.333::
                        6034 .LDWlin333:
0000159e 1bf0           6035 	mov	r27,ep
000015a0 c2f2           6036 	shl	2,ep
000015a2 daf1           6037 	add	r26,ep
000015a4 00f5           6038 	sld.w	0[ep],ep
000015a6 040d           6039 	sld.w	8[ep],r1
000015a8 e009           6040 	cmp	zero,r1
000015aa ca05*          6041 	bne	.L4554
                        6042 --2014:         {
                        6043 --2015:             return 0;
                        6044 --line2015
                        6045 ..lin.D.3A.5CRenesas_Electronics.5CD1x_RGL.5Crgl_ghs_D1Lx_obj_V1.2E2.2E0.5Cvlib.5Capp.5Cgfx_apps.5Csimple_draw_d1l2.5Ctarget.5Cd1lx_mango_ghs.5Cobj.5Cr_dev_clk.334::
                        6046 .LDWlin334:
000015ac 0052           6047 	mov	0,r10
000015ae 80075401*      6048 	br	.L4552
                        6049 .L4554:
                        6050 --2016:         }
                        6051 --2017:     }
                        6052 --2018:     ratio = LOC_PBUS_RATIO;
                        6053 --line2018
                        6054 ..lin.D.3A.5CRenesas_Electronics.5CD1x_RGL.5Crgl_ghs_D1Lx_obj_V1.2E2.2E0.5Cvlib.5Capp.5Cgfx_apps.5Csimple_draw_d1l2.5Ctarget.5Cd1lx_mango_ghs.5Cobj.5Cr_dev_clk.335::
                        6055 .LDWlin335:
000015b2 02e2           6056 	mov	2,r28
                        6057 --2020:     switch (Bus)
000015b4 1b08           6058 	mov	r27,r1
000015b6 0106ebff       6059 	addi	-21,r1,zero
000015ba e1073d01*      6060 	bl	.L4585
000015be c20a           6061 	shl	2,r1
000015c0 e10600000000*  6062 	jmp	.L4707[r1]
                        6063 .L4707:
000015c6 80076e00*      6064 	jr	.L4565
000015ca 80077400*      6065 	jr	.L4566
000015ce 80077a00*      6066 	jr	.L4567
000015d2 80078000*      6067 	jr	.L4568
000015d6 80078800*      6068 	jr	.L4569
000015da 80078800*      6069 	jr	.L4570
000015de 80078c00*      6070 	jr	.L4572
000015e2 80079000*      6071 	jr	.L4574
000015e6 80073400*      6072 	jr	.L4561
000015ea 80077c00*      6073 	jr	.L4571
000015ee 80078000*      6074 	jr	.L4573
000015f2 80079200*      6075 	jr	.L4575
000015f6 80079800*      6076 	jr	.L4576
000015fa 8007a600*      6077 	jr	.L4577
000015fe 8007ae00*      6078 	jr	.L4578
00001602 8007b600*      6079 	jr	.L4579
00001606 8007be00*      6080 	jr	.L4580
0000160a 8007c400*      6081 	jr	.L4581
0000160e 8007ca00*      6082 	jr	.L4582
00001612 8007d000*      6083 	jr	.L4583
00001616 8007d600*      6084 	jr	.L4584
                        6085 .L4561:
                        6086 --2021:     {
                        6087 --2022:     case R_DEV_CLK_XCC      :
                        6088 --2023:         /* check if the XCC itself is "on"*/
                        6089 --2024:         if (0 != R_DEV_READ_REG(32, locBusRegAddr[R_DEV_CLK_XCC]+ LOC_CKS_A))
                        6090 --line2024
                        6091 ..lin.D.3A.5CRenesas_Electronics.5CD1x_RGL.5Crgl_ghs_D1Lx_obj_V1.2E2.2E0.5Cvlib.5Capp.5Cgfx_apps.5Csimple_draw_d1l2.5Ctarget.5Cd1lx_mango_ghs.5Cobj.5Cr_dev_clk.336::
                        6092 .LDWlin336:

                                                                      Page 104
                                                              C:\Users\YINGAO~1\AppData\Local\Temp\gh_00007041.si
0000161a 3af72100       6093 	ld.w	32[r26],ep
0000161e 040d           6094 	sld.w	8[ep],r1
00001620 e009           6095 	cmp	zero,r1
00001622 f205*          6096 	be	.L4562
                        6097 --2025:         {
                        6098 --2026:             freq = R_DEV_ClkFrequencyHz(R_DEV_CKS_CPU) / 2;
                        6099 --line2026
                        6100 ..lin.D.3A.5CRenesas_Electronics.5CD1x_RGL.5Crgl_ghs_D1Lx_obj_V1.2E2.2E0.5Cvlib.5Capp.5Cgfx_apps.5Csimple_draw_d1l2.5Ctarget.5Cd1lx_mango_ghs.5Cobj.5Cr_dev_clk.337::
                        6101 .LDWlin337:
00001624 0432           6102 	mov	4,r6
                        6103 	jarl	_R_DEV_ClkFrequencyHz,lp
                        6103 <EXPANSION BEGIN>
                        6103 jarl22 _R_DEV_ClkFrequencyHz , lp 
00001626 bffffcfa*      6103 <EXPANSION END>
0000162a 0ae8           6104 	mov	r10,r29
0000162c 81ea           6105 	shr	1,r29
0000162e a505*          6106 	br	.L4564
                        6107 .L4562:
                        6108 --2027:         }
                        6109 --2028:         else
                        6110 --2029:         {
                        6111 --2030:             freq = 0;
                        6112 --line2030
                        6113 ..lin.D.3A.5CRenesas_Electronics.5CD1x_RGL.5Crgl_ghs_D1Lx_obj_V1.2E2.2E0.5Cvlib.5Capp.5Cgfx_apps.5Csimple_draw_d1l2.5Ctarget.5Cd1lx_mango_ghs.5Cobj.5Cr_dev_clk.338::
                        6114 .LDWlin338:
00001630 00ea           6115 	mov	0,r29
                        6116 .L4564:
00001632 f565*          6117 	br	.L4559
                        6118 .L4565:
                        6119 --2031:         }
                        6120 --2032:         break;
                        6121 --2033:     case R_DEV_CLK_PLL0     :
                        6122 --2034:         freq = loc_SrcFrequencyHz(R_DEV_CKS_SRC_PLL0);
                        6123 --line2034
                        6124 ..lin.D.3A.5CRenesas_Electronics.5CD1x_RGL.5Crgl_ghs_D1Lx_obj_V1.2E2.2E0.5Cvlib.5Capp.5Cgfx_apps.5Csimple_draw_d1l2.5Ctarget.5Cd1lx_mango_ghs.5Cobj.5Cr_dev_clk.339::
                        6125 .LDWlin339:
00001634 0632           6126 	mov	6,r6
                        6127 	jarl	_loc_SrcFrequencyHz,lp
                        6127 <EXPANSION BEGIN>
                        6127 jarl22 _loc_SrcFrequencyHz , lp 
00001636 bfff34f3*      6127 <EXPANSION END>
0000163a 0ae8           6128 	mov	r10,r29
                        6129 --line2035
                        6130 ..lin.D.3A.5CRenesas_Electronics.5CD1x_RGL.5Crgl_ghs_D1Lx_obj_V1.2E2.2E0.5Cvlib.5Capp.5Cgfx_apps.5Csimple_draw_d1l2.5Ctarget.5Cd1lx_mango_ghs.5Cobj.5Cr_dev_clk.340::
                        6131 .LDWlin340:
0000163c a565*          6132 	br	.L4559
                        6133 .L4566:
                        6134 --2035:         break;
                        6135 --2036:     case R_DEV_CLK_PLL1     :
                        6136 --2037:         freq = loc_SrcFrequencyHz(R_DEV_CKS_SRC_PLL1);
                        6137 --line2037
                        6138 ..lin.D.3A.5CRenesas_Electronics.5CD1x_RGL.5Crgl_ghs_D1Lx_obj_V1.2E2.2E0.5Cvlib.5Capp.5Cgfx_apps.5Csimple_draw_d1l2.5Ctarget.5Cd1lx_mango_ghs.5Cobj.5Cr_dev_clk.341::
                        6139 .LDWlin341:
0000163e 0932           6140 	mov	9,r6
                        6141 	jarl	_loc_SrcFrequencyHz,lp
                        6141 <EXPANSION BEGIN>
                        6141 jarl22 _loc_SrcFrequencyHz , lp 
00001640 bfff2af3*      6141 <EXPANSION END>
00001644 0ae8           6142 	mov	r10,r29
                        6143 --line2038
                        6144 ..lin.D.3A.5CRenesas_Electronics.5CD1x_RGL.5Crgl_ghs_D1Lx_obj_V1.2E2.2E0.5Cvlib.5Capp.5Cgfx_apps.5Csimple_draw_d1l2.5Ctarget.5Cd1lx_mango_ghs.5Cobj.5Cr_dev_clk.342::

                                                                      Page 105
                                                              C:\Users\YINGAO~1\AppData\Local\Temp\gh_00007041.si
                        6145 .LDWlin342:
00001646 d55d*          6146 	br	.L4559
                        6147 .L4567:
                        6148 --2038:         break;
                        6149 --2039:     case R_DEV_CLK_PLL2     :
                        6150 --2040:         freq = loc_SrcFrequencyHz(R_DEV_CKS_SRC_PLL1);
                        6151 --line2040
                        6152 ..lin.D.3A.5CRenesas_Electronics.5CD1x_RGL.5Crgl_ghs_D1Lx_obj_V1.2E2.2E0.5Cvlib.5Capp.5Cgfx_apps.5Csimple_draw_d1l2.5Ctarget.5Cd1lx_mango_ghs.5Cobj.5Cr_dev_clk.343::
                        6153 .LDWlin343:
00001648 0932           6154 	mov	9,r6
                        6155 	jarl	_loc_SrcFrequencyHz,lp
                        6155 <EXPANSION BEGIN>
                        6155 jarl22 _loc_SrcFrequencyHz , lp 
0000164a bfff20f3*      6155 <EXPANSION END>
0000164e 0ae8           6156 	mov	r10,r29
                        6157 --line2041
                        6158 ..lin.D.3A.5CRenesas_Electronics.5CD1x_RGL.5Crgl_ghs_D1Lx_obj_V1.2E2.2E0.5Cvlib.5Capp.5Cgfx_apps.5Csimple_draw_d1l2.5Ctarget.5Cd1lx_mango_ghs.5Cobj.5Cr_dev_clk.344::
                        6159 .LDWlin344:
00001650 855d*          6160 	br	.L4559
                        6161 .L4568:
                        6162 --2041:         break;
                        6163 --2042:     case R_DEV_CLK_PLL0PIX  :
                        6164 --2043:         freq = loc_ClkGenCfg.Pll[0].FrequencyHz;
                        6165 --line2043
                        6166 ..lin.D.3A.5CRenesas_Electronics.5CD1x_RGL.5Crgl_ghs_D1Lx_obj_V1.2E2.2E0.5Cvlib.5Capp.5Cgfx_apps.5Csimple_draw_d1l2.5Ctarget.5Cd1lx_mango_ghs.5Cobj.5Cr_dev_clk.345::
                        6167 .LDWlin345:
00001652 3d0600000000*  6168 	mov	_loc_ClkGenCfg+36,r29
00001658 3def0100       6169 	ld.w	0[r29],r29
0000165c a555*          6170 	br	.L4559
                        6171 .L4569:
                        6172 --2044:         break;
                        6173 --2045:     case R_DEV_CLK_SDRB     :
                        6174 --2046:         /* D1Lx has no SDRAM */
                        6175 --2047:         freq = 0u;
                        6176 --line2047
                        6177 ..lin.D.3A.5CRenesas_Electronics.5CD1x_RGL.5Crgl_ghs_D1Lx_obj_V1.2E2.2E0.5Cvlib.5Capp.5Cgfx_apps.5Csimple_draw_d1l2.5Ctarget.5Cd1lx_mango_ghs.5Cobj.5Cr_dev_clk.346::
                        6178 .LDWlin346:
0000165e 00ea           6179 	mov	0,r29
00001660 8555*          6180 	br	.L4559
                        6181 .L4570:
                        6182 --2048:         break;
                        6183 --2049:     case R_DEV_CLK_ETNBP    :
                        6184 --2050:         /* D1Lx has no Ethernet */
                        6185 --2051:          freq = 0u;
                        6186 --line2051
                        6187 ..lin.D.3A.5CRenesas_Electronics.5CD1x_RGL.5Crgl_ghs_D1Lx_obj_V1.2E2.2E0.5Cvlib.5Capp.5Cgfx_apps.5Csimple_draw_d1l2.5Ctarget.5Cd1lx_mango_ghs.5Cobj.5Cr_dev_clk.347::
                        6188 .LDWlin347:
00001662 00ea           6189 	mov	0,r29
00001664 e54d*          6190 	br	.L4559
                        6191 .L4571:
                        6192 --2052:        break;
                        6193 --2053:     case R_DEV_CLK_ETNBXCC  :
                        6194 --2054:         /* D1Lx has no Ethernet */
                        6195 --2055:         freq = 0;
                        6196 --line2055
                        6197 ..lin.D.3A.5CRenesas_Electronics.5CD1x_RGL.5Crgl_ghs_D1Lx_obj_V1.2E2.2E0.5Cvlib.5Capp.5Cgfx_apps.5Csimple_draw_d1l2.5Ctarget.5Cd1lx_mango_ghs.5Cobj.5Cr_dev_clk.348::
                        6198 .LDWlin348:
00001666 00ea           6199 	mov	0,r29
00001668 c54d*          6200 	br	.L4559
                        6201 .L4572:
                        6202 --2056:         break;

                                                                      Page 106
                                                              C:\Users\YINGAO~1\AppData\Local\Temp\gh_00007041.si
                        6203 --2057:     case R_DEV_CLK_MLBP     :
                        6204 --2058:         /* D1Lx has no MLB */
                        6205 --2059:         freq = 0;
                        6206 --line2059
                        6207 ..lin.D.3A.5CRenesas_Electronics.5CD1x_RGL.5Crgl_ghs_D1Lx_obj_V1.2E2.2E0.5Cvlib.5Capp.5Cgfx_apps.5Csimple_draw_d1l2.5Ctarget.5Cd1lx_mango_ghs.5Cobj.5Cr_dev_clk.349::
                        6208 .LDWlin349:
0000166a 00ea           6209 	mov	0,r29
0000166c a54d*          6210 	br	.L4559
                        6211 .L4573:
                        6212 --2060:         break;
                        6213 --2061:     case R_DEV_CLK_MLBXCC   :
                        6214 --2062:         /* D1Lx has no MLB */
                        6215 --2063:         freq = 0;
                        6216 --line2063
                        6217 ..lin.D.3A.5CRenesas_Electronics.5CD1x_RGL.5Crgl_ghs_D1Lx_obj_V1.2E2.2E0.5Cvlib.5Capp.5Cgfx_apps.5Csimple_draw_d1l2.5Ctarget.5Cd1lx_mango_ghs.5Cobj.5Cr_dev_clk.350::
                        6218 .LDWlin350:
0000166e 00ea           6219 	mov	0,r29
00001670 854d*          6220 	br	.L4559
                        6221 .L4574:
                        6222 --2064:         break;
                        6223 --2065:     case R_DEV_CLK_RSCANP   :
                        6224 --2066:         freq = R_DEV_ClkFrequencyHz(R_DEV_CKS_CPU) / (2 * ratio) ;
                        6225 --line2066
                        6226 ..lin.D.3A.5CRenesas_Electronics.5CD1x_RGL.5Crgl_ghs_D1Lx_obj_V1.2E2.2E0.5Cvlib.5Capp.5Cgfx_apps.5Csimple_draw_d1l2.5Ctarget.5Cd1lx_mango_ghs.5Cobj.5Cr_dev_clk.351::
                        6227 .LDWlin351:
00001672 0432           6228 	mov	4,r6
                        6229 	jarl	_R_DEV_ClkFrequencyHz,lp
                        6229 <EXPANSION BEGIN>
                        6229 jarl22 _R_DEV_ClkFrequencyHz , lp 
00001674 bfffaefa*      6229 <EXPANSION END>
00001678 1c08           6230 	mov	r28,r1
0000167a c10a           6231 	shl	1,r1
0000167c 0ae8           6232 	mov	r10,r29
0000167e e1effe02       6233 	divqu	r1,r29,zero
                        6234 --line2067
                        6235 ..lin.D.3A.5CRenesas_Electronics.5CD1x_RGL.5Crgl_ghs_D1Lx_obj_V1.2E2.2E0.5Cvlib.5Capp.5Cgfx_apps.5Csimple_draw_d1l2.5Ctarget.5Cd1lx_mango_ghs.5Cobj.5Cr_dev_clk.352::
                        6236 .LDWlin352:
00001682 f53d*          6237 	br	.L4559
                        6238 .L4575:
                        6239 --2067:         break;
                        6240 --2068:     case R_DEV_CLK_CPU      :
                        6241 --2069:         freq = R_DEV_ClkFrequencyHz(R_DEV_CKS_CPU);
                        6242 --line2069
                        6243 ..lin.D.3A.5CRenesas_Electronics.5CD1x_RGL.5Crgl_ghs_D1Lx_obj_V1.2E2.2E0.5Cvlib.5Capp.5Cgfx_apps.5Csimple_draw_d1l2.5Ctarget.5Cd1lx_mango_ghs.5Cobj.5Cr_dev_clk.353::
                        6244 .LDWlin353:
00001684 0432           6245 	mov	4,r6
                        6246 	jarl	_R_DEV_ClkFrequencyHz,lp
                        6246 <EXPANSION BEGIN>
                        6246 jarl22 _R_DEV_ClkFrequencyHz , lp 
00001686 bfff9cfa*      6246 <EXPANSION END>
0000168a 0ae8           6247 	mov	r10,r29
                        6248 --line2070
                        6249 ..lin.D.3A.5CRenesas_Electronics.5CD1x_RGL.5Crgl_ghs_D1Lx_obj_V1.2E2.2E0.5Cvlib.5Capp.5Cgfx_apps.5Csimple_draw_d1l2.5Ctarget.5Cd1lx_mango_ghs.5Cobj.5Cr_dev_clk.354::
                        6250 .LDWlin354:
0000168c a53d*          6251 	br	.L4559
                        6252 .L4576:
                        6253 --2070:         break;
                        6254 --2071:     case R_DEV_CLK_ISOPCLK  :
                        6255 --2072:         freq = R_DEV_ClkFrequencyHz(R_DEV_CKS_CPU) / (2 * ratio) ;
                        6256 --line2072
                        6257 ..lin.D.3A.5CRenesas_Electronics.5CD1x_RGL.5Crgl_ghs_D1Lx_obj_V1.2E2.2E0.5Cvlib.5Capp.5Cgfx_apps.5Csimple_draw_d1l2.5Ctarget.5Cd1lx_mango_ghs.5Cobj.5Cr_dev_clk.355::

                                                                      Page 107
                                                              C:\Users\YINGAO~1\AppData\Local\Temp\gh_00007041.si
                        6258 .LDWlin355:
0000168e 0432           6259 	mov	4,r6
                        6260 	jarl	_R_DEV_ClkFrequencyHz,lp
                        6260 <EXPANSION BEGIN>
                        6260 jarl22 _R_DEV_ClkFrequencyHz , lp 
00001690 bfff92fa*      6260 <EXPANSION END>
00001694 1c08           6261 	mov	r28,r1
00001696 c10a           6262 	shl	1,r1
00001698 0ae8           6263 	mov	r10,r29
0000169a e1effe02       6264 	divqu	r1,r29,zero
                        6265 --line2073
                        6266 ..lin.D.3A.5CRenesas_Electronics.5CD1x_RGL.5Crgl_ghs_D1Lx_obj_V1.2E2.2E0.5Cvlib.5Capp.5Cgfx_apps.5Csimple_draw_d1l2.5Ctarget.5Cd1lx_mango_ghs.5Cobj.5Cr_dev_clk.356::
                        6267 .LDWlin356:
0000169e 9535*          6268 	br	.L4559
                        6269 .L4577:
                        6270 --2073:         break;
                        6271 --2074:     case R_DEV_CLK_FIX      :
                        6272 --2075:         freq = R_DEV_ClkFrequencyHz(R_DEV_CKS_CLKFIX);
                        6273 --line2075
                        6274 ..lin.D.3A.5CRenesas_Electronics.5CD1x_RGL.5Crgl_ghs_D1Lx_obj_V1.2E2.2E0.5Cvlib.5Capp.5Cgfx_apps.5Csimple_draw_d1l2.5Ctarget.5Cd1lx_mango_ghs.5Cobj.5Cr_dev_clk.357::
                        6275 .LDWlin357:
000016a0 20361300       6276 	movea	19,zero,r6
                        6277 	jarl	_R_DEV_ClkFrequencyHz,lp
                        6277 <EXPANSION BEGIN>
                        6277 jarl22 _R_DEV_ClkFrequencyHz , lp 
000016a4 bfff7efa*      6277 <EXPANSION END>
000016a8 0ae8           6278 	mov	r10,r29
                        6279 --line2076
                        6280 ..lin.D.3A.5CRenesas_Electronics.5CD1x_RGL.5Crgl_ghs_D1Lx_obj_V1.2E2.2E0.5Cvlib.5Capp.5Cgfx_apps.5Csimple_draw_d1l2.5Ctarget.5Cd1lx_mango_ghs.5Cobj.5Cr_dev_clk.358::
                        6281 .LDWlin358:
000016aa b52d*          6282 	br	.L4559
                        6283 .L4578:
                        6284 --2076:         break;
                        6285 --2077:     case R_DEV_CLK_JIT      :
                        6286 --2078:         freq = R_DEV_ClkFrequencyHz(R_DEV_CKS_CLKJIT);
                        6287 --line2078
                        6288 ..lin.D.3A.5CRenesas_Electronics.5CD1x_RGL.5Crgl_ghs_D1Lx_obj_V1.2E2.2E0.5Cvlib.5Capp.5Cgfx_apps.5Csimple_draw_d1l2.5Ctarget.5Cd1lx_mango_ghs.5Cobj.5Cr_dev_clk.359::
                        6289 .LDWlin359:
000016ac 20361200       6290 	movea	18,zero,r6
                        6291 	jarl	_R_DEV_ClkFrequencyHz,lp
                        6291 <EXPANSION BEGIN>
                        6291 jarl22 _R_DEV_ClkFrequencyHz , lp 
000016b0 bfff72fa*      6291 <EXPANSION END>
000016b4 0ae8           6292 	mov	r10,r29
                        6293 --line2079
                        6294 ..lin.D.3A.5CRenesas_Electronics.5CD1x_RGL.5Crgl_ghs_D1Lx_obj_V1.2E2.2E0.5Cvlib.5Capp.5Cgfx_apps.5Csimple_draw_d1l2.5Ctarget.5Cd1lx_mango_ghs.5Cobj.5Cr_dev_clk.360::
                        6295 .LDWlin360:
000016b6 d525*          6296 	br	.L4559
                        6297 .L4579:
                        6298 --2079:         break;
                        6299 --2080:     case R_DEV_CLK_PLLFIX   :
                        6300 --2081:         freq = R_DEV_ClkFrequencyHz(R_DEV_CKS_PLLFIX);
                        6301 --line2081
                        6302 ..lin.D.3A.5CRenesas_Electronics.5CD1x_RGL.5Crgl_ghs_D1Lx_obj_V1.2E2.2E0.5Cvlib.5Capp.5Cgfx_apps.5Csimple_draw_d1l2.5Ctarget.5Cd1lx_mango_ghs.5Cobj.5Cr_dev_clk.361::
                        6303 .LDWlin361:
000016b8 20361400       6304 	movea	20,zero,r6
                        6305 	jarl	_R_DEV_ClkFrequencyHz,lp
                        6305 <EXPANSION BEGIN>
                        6305 jarl22 _R_DEV_ClkFrequencyHz , lp 
000016bc bfff66fa*      6305 <EXPANSION END>
000016c0 0ae8           6306 	mov	r10,r29

                                                                      Page 108
                                                              C:\Users\YINGAO~1\AppData\Local\Temp\gh_00007041.si
                        6307 --line2082
                        6308 ..lin.D.3A.5CRenesas_Electronics.5CD1x_RGL.5Crgl_ghs_D1Lx_obj_V1.2E2.2E0.5Cvlib.5Capp.5Cgfx_apps.5Csimple_draw_d1l2.5Ctarget.5Cd1lx_mango_ghs.5Cobj.5Cr_dev_clk.362::
                        6309 .LDWlin362:
000016c2 f51d*          6310 	br	.L4559
                        6311 .L4580:
                        6312 --2082:         break;
                        6313 --2083:     case R_DEV_CLK_LRNG     :
                        6314 --2084:         freq = loc_SrcFrequencyHz(R_DEV_CKS_SRC_LRNG);
                        6315 --line2084
                        6316 ..lin.D.3A.5CRenesas_Electronics.5CD1x_RGL.5Crgl_ghs_D1Lx_obj_V1.2E2.2E0.5Cvlib.5Capp.5Cgfx_apps.5Csimple_draw_d1l2.5Ctarget.5Cd1lx_mango_ghs.5Cobj.5Cr_dev_clk.363::
                        6317 .LDWlin363:
000016c4 0132           6318 	mov	1,r6
                        6319 	jarl	_loc_SrcFrequencyHz,lp
                        6319 <EXPANSION BEGIN>
                        6319 jarl22 _loc_SrcFrequencyHz , lp 
000016c6 bfffa4f2*      6319 <EXPANSION END>
000016ca 0ae8           6320 	mov	r10,r29
                        6321 --line2085
                        6322 ..lin.D.3A.5CRenesas_Electronics.5CD1x_RGL.5Crgl_ghs_D1Lx_obj_V1.2E2.2E0.5Cvlib.5Capp.5Cgfx_apps.5Csimple_draw_d1l2.5Ctarget.5Cd1lx_mango_ghs.5Cobj.5Cr_dev_clk.364::
                        6323 .LDWlin364:
000016cc a51d*          6324 	br	.L4559
                        6325 .L4581:
                        6326 --2085:         break;
                        6327 --2086:     case R_DEV_CLK_HRING    :
                        6328 --2087:         freq = loc_SrcFrequencyHz(R_DEV_CKS_SRC_HRING);
                        6329 --line2087
                        6330 ..lin.D.3A.5CRenesas_Electronics.5CD1x_RGL.5Crgl_ghs_D1Lx_obj_V1.2E2.2E0.5Cvlib.5Capp.5Cgfx_apps.5Csimple_draw_d1l2.5Ctarget.5Cd1lx_mango_ghs.5Cobj.5Cr_dev_clk.365::
                        6331 .LDWlin365:
000016ce 0232           6332 	mov	2,r6
                        6333 	jarl	_loc_SrcFrequencyHz,lp
                        6333 <EXPANSION BEGIN>
                        6333 jarl22 _loc_SrcFrequencyHz , lp 
000016d0 bfff9af2*      6333 <EXPANSION END>
000016d4 0ae8           6334 	mov	r10,r29
                        6335 --line2088
                        6336 ..lin.D.3A.5CRenesas_Electronics.5CD1x_RGL.5Crgl_ghs_D1Lx_obj_V1.2E2.2E0.5Cvlib.5Capp.5Cgfx_apps.5Csimple_draw_d1l2.5Ctarget.5Cd1lx_mango_ghs.5Cobj.5Cr_dev_clk.366::
                        6337 .LDWlin366:
000016d6 d515*          6338 	br	.L4559
                        6339 .L4582:
                        6340 --2088:         break;
                        6341 --2089:     case R_DEV_CLK_ERING    :
                        6342 --2090:         freq = loc_SrcFrequencyHz(R_DEV_CKS_SRC_ERING);
                        6343 --line2090
                        6344 ..lin.D.3A.5CRenesas_Electronics.5CD1x_RGL.5Crgl_ghs_D1Lx_obj_V1.2E2.2E0.5Cvlib.5Capp.5Cgfx_apps.5Csimple_draw_d1l2.5Ctarget.5Cd1lx_mango_ghs.5Cobj.5Cr_dev_clk.367::
                        6345 .LDWlin367:
000016d8 0332           6346 	mov	3,r6
                        6347 	jarl	_loc_SrcFrequencyHz,lp
                        6347 <EXPANSION BEGIN>
                        6347 jarl22 _loc_SrcFrequencyHz , lp 
000016da bfff90f2*      6347 <EXPANSION END>
000016de 0ae8           6348 	mov	r10,r29
                        6349 --line2091
                        6350 ..lin.D.3A.5CRenesas_Electronics.5CD1x_RGL.5Crgl_ghs_D1Lx_obj_V1.2E2.2E0.5Cvlib.5Capp.5Cgfx_apps.5Csimple_draw_d1l2.5Ctarget.5Cd1lx_mango_ghs.5Cobj.5Cr_dev_clk.368::
                        6351 .LDWlin368:
000016e0 8515*          6352 	br	.L4559
                        6353 .L4583:
                        6354 --2091:         break;
                        6355 --2092:     case R_DEV_CLK_MOSC     :
                        6356 --2093:         freq = loc_SrcFrequencyHz(R_DEV_CKS_SRC_MOSC);
                        6357 --line2093
                        6358 ..lin.D.3A.5CRenesas_Electronics.5CD1x_RGL.5Crgl_ghs_D1Lx_obj_V1.2E2.2E0.5Cvlib.5Capp.5Cgfx_apps.5Csimple_draw_d1l2.5Ctarget.5Cd1lx_mango_ghs.5Cobj.5Cr_dev_clk.369::

                                                                      Page 109
                                                              C:\Users\YINGAO~1\AppData\Local\Temp\gh_00007041.si
                        6359 .LDWlin369:
000016e2 0432           6360 	mov	4,r6
                        6361 	jarl	_loc_SrcFrequencyHz,lp
                        6361 <EXPANSION BEGIN>
                        6361 jarl22 _loc_SrcFrequencyHz , lp 
000016e4 bfff86f2*      6361 <EXPANSION END>
000016e8 0ae8           6362 	mov	r10,r29
                        6363 --line2094
                        6364 ..lin.D.3A.5CRenesas_Electronics.5CD1x_RGL.5Crgl_ghs_D1Lx_obj_V1.2E2.2E0.5Cvlib.5Capp.5Cgfx_apps.5Csimple_draw_d1l2.5Ctarget.5Cd1lx_mango_ghs.5Cobj.5Cr_dev_clk.370::
                        6365 .LDWlin370:
000016ea b50d*          6366 	br	.L4559
                        6367 .L4584:
                        6368 --2094:         break;
                        6369 --2095:     case R_DEV_CLK_SOSC     :
                        6370 --2096:         freq = loc_SrcFrequencyHz(R_DEV_CKS_SRC_SOSC);
                        6371 --line2096
                        6372 ..lin.D.3A.5CRenesas_Electronics.5CD1x_RGL.5Crgl_ghs_D1Lx_obj_V1.2E2.2E0.5Cvlib.5Capp.5Cgfx_apps.5Csimple_draw_d1l2.5Ctarget.5Cd1lx_mango_ghs.5Cobj.5Cr_dev_clk.371::
                        6373 .LDWlin371:
000016ec 0532           6374 	mov	5,r6
                        6375 	jarl	_loc_SrcFrequencyHz,lp
                        6375 <EXPANSION BEGIN>
                        6375 jarl22 _loc_SrcFrequencyHz , lp 
000016ee bfff7cf2*      6375 <EXPANSION END>
000016f2 0ae8           6376 	mov	r10,r29
                        6377 --line2097
                        6378 ..lin.D.3A.5CRenesas_Electronics.5CD1x_RGL.5Crgl_ghs_D1Lx_obj_V1.2E2.2E0.5Cvlib.5Capp.5Cgfx_apps.5Csimple_draw_d1l2.5Ctarget.5Cd1lx_mango_ghs.5Cobj.5Cr_dev_clk.372::
                        6379 .LDWlin372:
000016f4 e505*          6380 	br	.L4559
                        6381 .L4585:
                        6382 --2097:         break;
                        6383 --2098:     default                 :
                        6384 --2099:         R_DEV_ERROR((uint32_t)Bus, R_DEV_ERR_UNIT, "Wher's the Bus!");
                        6385 --line2099
                        6386 ..lin.D.3A.5CRenesas_Electronics.5CD1x_RGL.5Crgl_ghs_D1Lx_obj_V1.2E2.2E0.5Cvlib.5Capp.5Cgfx_apps.5Csimple_draw_d1l2.5Ctarget.5Cd1lx_mango_ghs.5Cobj.5Cr_dev_clk.373::
                        6387 .LDWlin373:
000016f6 1b30           6388 	mov	r27,r6
000016f8 023a           6389 	mov	2,r7
                        6390 	jarl	_R_DEV_ErrorHandler,lp
                        6390 <EXPANSION BEGIN>
                        6390 jarl22 _R_DEV_ErrorHandler , lp 
000016fa 80ff0000*      6390 <EXPANSION END>
                        6391 --line2100
                        6392 ..lin.D.3A.5CRenesas_Electronics.5CD1x_RGL.5Crgl_ghs_D1Lx_obj_V1.2E2.2E0.5Cvlib.5Capp.5Cgfx_apps.5Csimple_draw_d1l2.5Ctarget.5Cd1lx_mango_ghs.5Cobj.5Cr_dev_clk.374::
                        6393 .LDWlin374:
000016fe 0000           6394 	nop
                        6395 .L4559:
                        6396 --2100:         break;
                        6397 --2101:     }
                        6398 --2102:     return (freq);
00001700 1d50           6399 	mov	r29,r10
                        6400 .L4552:
                        6401 --	    .ef
                        6402 .LDW17:
00001702 4006ff30       6403 	dispose	0,{r26,r27,r28,r29,r31},[lp]
                        6404 	.type	_R_DEV_BusFrequencyHz,@function
                        6405 	.size	_R_DEV_BusFrequencyHz,.-_R_DEV_BusFrequencyHz
                        6406 	.align	2
                        6407 .LDW27:
                        6408 --_freq	r29	local
                        6409 --_ratio	r28	local
                        6410 

                                                                      Page 110
                                                              C:\Users\YINGAO~1\AppData\Local\Temp\gh_00007041.si
                        6411 --_Bus	r27	param
                        6412 
                        6413 	.data
                        6414 	.ghsnote jtable,2097156,.L4707,.L4707,.L4707,21
                        6415 	.text
                        6416 
                        6417 --2103: }
                        6418 
                        6419 --2105: /*******************************************************************************
                        6420 --2106:   Function: R_DEV_BusEnable
                        6421 --2108:   see: <r_dev_clk_types.h> for details
                        6422 --2109: */
                        6423 --2110: r_Error_t R_DEV_BusEnable(r_dev_Bus_t BusClk, uint8_t EnDis)
                        6424 	.align	2
                        6425 	.align	2
                        6426 	.global	_R_DEV_BusEnable
                        6427 _R_DEV_BusEnable:
00001706 0670           6428 	mov	r6,r14
00001708 c74eff00       6429 	andi	255,r7,r9
0000170c 2d0600000000*  6430 	mov	_locBusRegAddr,r13
                        6431 --	    .bf
                        6432 .LDW37:
                        6433 --2111: {
                        6434 --2112:     uint32_t   regval = 0;
00001712 000a           6435 	mov	0,r1
                        6436 --2113:     r_Error_t  retval = R_ERR_OK;
00001714 0062           6437 	mov	0,r12
                        6438 --2114:     regval     = (0 != EnDis)? 1:0;
00001716 e049           6439 	cmp	zero,r9
00001718 ea0f0000       6440 	setfne	r1
                        6441 --2116:     if (BusClk < R_DEV_CLK_BUS_LAST)
0000171c 6b72           6442 	cmp	11,r14
0000171e de55*          6443 	bge	.L4883
                        6444 --2117:     {
                        6445 --2118:         if (BusClk < R_DEV_CLK_PLL2)
                        6446 --line2118
                        6447 ..lin.D.3A.5CRenesas_Electronics.5CD1x_RGL.5Crgl_ghs_D1Lx_obj_V1.2E2.2E0.5Cvlib.5Capp.5Cgfx_apps.5Csimple_draw_d1l2.5Ctarget.5Cd1lx_mango_ghs.5Cobj.5Cr_dev_clk.375::
                        6448 .LDWlin375:
00001720 6272           6449 	cmp	2,r14
00001722 ee25*          6450 	bge	.L4885
                        6451 --2119:         {
                        6452 --2120:             R_DEV_WRITE_PROT_REG(LOC_PROTCMD1, locBusRegAddr[BusClk],regval);
                        6453 --	    .bs
                        6454 .LDW47:
                        6455 --line2120
                        6456 ..lin.D.3A.5CRenesas_Electronics.5CD1x_RGL.5Crgl_ghs_D1Lx_obj_V1.2E2.2E0.5Cvlib.5Capp.5Cgfx_apps.5Csimple_draw_d1l2.5Ctarget.5Cd1lx_mango_ghs.5Cobj.5Cr_dev_clk.376::
                        6457 .LDWlin376:
00001724 005a           6458 	mov	0,r11
00001726 0052           6459 	mov	0,r10
00001728 0000           6460 	nop
                        6461 .L4889:
0000172a 2046a500       6462 	movea	165,zero,r8
0000172e 80070f4000f1   6463 	st.w	r8,4294475776[zero]
00001734 0ef0           6464 	mov	r14,ep
00001736 c2f2           6465 	shl	2,ep
00001738 cdf1           6466 	add	r13,ep
0000173a 00f5           6467 	sld.w	0[ep],ep
0000173c 010d           6468 	sst.w	r1,0[ep]
0000173e 0ef0           6469 	mov	r14,ep
00001740 c2f2           6470 	shl	2,ep
00001742 cdf1           6471 	add	r13,ep

                                                                      Page 111
                                                              C:\Users\YINGAO~1\AppData\Local\Temp\gh_00007041.si
00001744 2140           6472 	not	r1,r8
00001746 00f5           6473 	sld.w	0[ep],ep
00001748 0145           6474 	sst.w	r8,0[ep]
0000174a 0ef0           6475 	mov	r14,ep
0000174c c2f2           6476 	shl	2,ep
0000174e cdf1           6477 	add	r13,ep
00001750 00f5           6478 	sld.w	0[ep],ep
00001752 010d           6479 	sst.w	r1,0[ep]
00001754 8007495800f1   6480 	ld.w	4294475780[zero],r11
0000175a 0ef0           6481 	mov	r14,ep
0000175c c2f2           6482 	shl	2,ep
0000175e cdf1           6483 	add	r13,ep
00001760 00f5           6484 	sld.w	0[ep],ep
00001762 0055           6485 	sld.w	0[ep],r10
00001764 e151           6486 	cmp	r1,r10
00001766 822d*          6487 	be	.L4891
00001768 e059           6488 	cmp	zero,r11
0000176a 8ae5*          6489 	bne	.L4889
                        6490 --	    .es
                        6491 .LDW57:
                        6492 --line2120
                        6493 ..lin.D.3A.5CRenesas_Electronics.5CD1x_RGL.5Crgl_ghs_D1Lx_obj_V1.2E2.2E0.5Cvlib.5Capp.5Cgfx_apps.5Csimple_draw_d1l2.5Ctarget.5Cd1lx_mango_ghs.5Cobj.5Cr_dev_clk.377::
                        6494 .LDWlin377:
0000176c d525*          6495 	br	.L4891
                        6496 .L4885:
                        6497 --2121:         }
                        6498 --2122:         else
                        6499 --2123:         {
                        6500 --2124:             R_DEV_WRITE_PROT_REG(LOC_PROTCMDD1, locBusRegAddr[BusClk],regval);
                        6501 --	    .bs
                        6502 .LDW67:
                        6503 --line2124
                        6504 ..lin.D.3A.5CRenesas_Electronics.5CD1x_RGL.5Crgl_ghs_D1Lx_obj_V1.2E2.2E0.5Cvlib.5Capp.5Cgfx_apps.5Csimple_draw_d1l2.5Ctarget.5Cd1lx_mango_ghs.5Cobj.5Cr_dev_clk.378::
                        6505 .LDWlin378:
0000176e 005a           6506 	mov	0,r11
00001770 0052           6507 	mov	0,r10
00001772 0000           6508 	nop
                        6509 .L4894:
00001774 2046a500       6510 	movea	165,zero,r8
00001778 80070f40e0f0   6511 	st.w	r8,4294471680[zero]
0000177e 0ef0           6512 	mov	r14,ep
00001780 c2f2           6513 	shl	2,ep
00001782 cdf1           6514 	add	r13,ep
00001784 00f5           6515 	sld.w	0[ep],ep
00001786 010d           6516 	sst.w	r1,0[ep]
00001788 0ef0           6517 	mov	r14,ep
0000178a c2f2           6518 	shl	2,ep
0000178c cdf1           6519 	add	r13,ep
0000178e 2140           6520 	not	r1,r8
00001790 00f5           6521 	sld.w	0[ep],ep
00001792 0145           6522 	sst.w	r8,0[ep]
00001794 0ef0           6523 	mov	r14,ep
00001796 c2f2           6524 	shl	2,ep
00001798 cdf1           6525 	add	r13,ep
0000179a 00f5           6526 	sld.w	0[ep],ep
0000179c 010d           6527 	sst.w	r1,0[ep]
0000179e 80074958e0f0   6528 	ld.w	4294471684[zero],r11
000017a4 0ef0           6529 	mov	r14,ep
000017a6 c2f2           6530 	shl	2,ep
000017a8 cdf1           6531 	add	r13,ep
000017aa 00f5           6532 	sld.w	0[ep],ep

                                                                      Page 112
                                                              C:\Users\YINGAO~1\AppData\Local\Temp\gh_00007041.si
000017ac 0055           6533 	sld.w	0[ep],r10
000017ae e151           6534 	cmp	r1,r10
000017b0 b205*          6535 	be	.L4891
000017b2 e059           6536 	cmp	zero,r11
000017b4 8ae5*          6537 	bne	.L4894
                        6538 --	    .es
                        6539 .LDW77:
                        6540 .L4891:
                        6541 --2125:         }
                        6542 --2127:         while (R_DEV_READ_REG(32, locBusRegAddr[BusClk]+ LOC_CKS_A) != regval)
                        6543 --line2127
                        6544 ..lin.D.3A.5CRenesas_Electronics.5CD1x_RGL.5Crgl_ghs_D1Lx_obj_V1.2E2.2E0.5Cvlib.5Capp.5Cgfx_apps.5Csimple_draw_d1l2.5Ctarget.5Cd1lx_mango_ghs.5Cobj.5Cr_dev_clk.379::
                        6545 .LDWlin379:
000017b6 0000           6546 	nop
                        6547 .L4896:
                        6548 --2128:         {
000017b8 0ef0           6549 	mov	r14,ep
000017ba c2f2           6550 	shl	2,ep
000017bc cdf1           6551 	add	r13,ep
000017be 00f5           6552 	sld.w	0[ep],ep
000017c0 0445           6553 	sld.w	8[ep],r8
000017c2 e141           6554 	cmp	r1,r8
000017c4 aafd*          6555 	bne	.L4896
000017c6 a505*          6556 	br	.L4899
                        6557 .L4883:
                        6558 --2129:             /* Just wait until setting becomes active */
                        6559 --2130:         }
                        6560 --2131:     }
                        6561 --2132:     else
                        6562 --2133:     {
                        6563 --2134:         retval = R_PARAMETER_RANGE;
                        6564 --line2134
                        6565 ..lin.D.3A.5CRenesas_Electronics.5CD1x_RGL.5Crgl_ghs_D1Lx_obj_V1.2E2.2E0.5Cvlib.5Capp.5Cgfx_apps.5Csimple_draw_d1l2.5Ctarget.5Cd1lx_mango_ghs.5Cobj.5Cr_dev_clk.380::
                        6566 .LDWlin380:
000017c8 0362           6567 	mov	3,r12
                        6568 .L4899:
                        6569 --2135:     }
                        6570 --2136:     return retval;
000017ca 0000           6571 	nop
                        6572 --	    .ef
                        6573 .LDW87:
000017cc 0c50           6574 	mov	r12,r10
000017ce 7f00           6575 	jmp	[lp]
                        6576 	.type	_R_DEV_BusEnable,@function
                        6577 	.size	_R_DEV_BusEnable,.-_R_DEV_BusEnable
                        6578 	.align	2
                        6579 .LDW97:
                        6580 --_regval	r1	local
                        6581 --_retval	r12	local
                        6582 --_prot_stat	r11	local
                        6583 --_new_val	r10	local
                        6584 --_prot_stat	r11	local
                        6585 --_new_val	r10	local
                        6586 
                        6587 --_BusClk	r14	param
                        6588 --_EnDis	r9	param
                        6589 
                        6590 	.section ".bss","awb"
                        6591 .L5003:
                        6592 	.type	.L5003,@object
                        6593 	.size	.L5003,0

                                                                      Page 113
                                                              C:\Users\YINGAO~1\AppData\Local\Temp\gh_00007041.si
                        6594 	.data
                        6595 	.text
                        6596 
                        6597 --2137: }
                        6598 
                        6599 --2139: /*******************************************************************************
                        6600 --2140:   Function: R_DEV_ClkGenStop
                        6601 --2142:     se: <r_dev_api.h> for details
                        6602 --2143: */
                        6603 --2145: r_Error_t R_DEV_ClkGenStop(r_dev_ClkGen_t ClkGen)
                        6604 	.align	2
                        6605 	.align	2
                        6606 	.global	_R_DEV_ClkGenStop
                        6607 _R_DEV_ClkGenStop:
000017d0 8407e170       6608 	prepare	{r25,r26,r27,r28,r29,r31},2
000017d4 63370500       6609 	st.w	r6,4[sp]
                        6610 --	    .bf
                        6611 .LDW08:
                        6612 --2146: {
                        6613 --2147:     uint32_t addr      = loc_Base[ClkGen] + LOC_GEN_E;
000017d8 230f0500       6614 	ld.w	4[sp],r1
000017dc 3e0600000000*  6615 	mov	_loc_Base,ep
000017e2 c20a           6616 	shl	2,r1
000017e4 c1f1           6617 	add	r1,ep
000017e6 00d5           6618 	sld.w	0[ep],r26
                        6619 --2148:     uint32_t reg_val   = 0;
000017e8 00e2           6620 	mov	0,r28
                        6621 --2149:     uint32_t prot_addr = 0;
000017ea 00ea           6622 	mov	0,r29
                        6623 --2150:     r_Error_t ret_val = R_NG;
000017ec 01da           6624 	mov	1,r27
                        6625 --2151:     switch (ClkGen)
000017ee 230f0500       6626 	ld.w	4[sp],r1
000017f2 620a           6627 	cmp	2,r1
000017f4 f105*          6628 	bl	.L5118
000017f6 a20d*          6629 	be	.L5119
000017f8 650a           6630 	cmp	5,r1
000017fa cb0d*          6631 	bh	.L5120
                        6632 --2152:     {
                        6633 --2153:     case R_DEV_HS_RING:
                        6634 --2154:     case R_DEV_MOSC:
                        6635 --2155:     case R_DEV_SOSC:
                        6636 --2156:         prot_addr = LOC_PROTCMD0;
                        6637 --line2156
                        6638 ..lin.D.3A.5CRenesas_Electronics.5CD1x_RGL.5Crgl_ghs_D1Lx_obj_V1.2E2.2E0.5Cvlib.5Capp.5Cgfx_apps.5Csimple_draw_d1l2.5Ctarget.5Cd1lx_mango_ghs.5Cobj.5Cr_dev_clk.381::
                        6639 .LDWlin381:
000017fc 40eef8ff       6640 	movhi	hi(-524288),zero,r29
00001800 b50d*          6641 	br	.L5115
                        6642 .L5118:
                        6643 --2157:         break;
                        6644 --2158:     case R_DEV_PLL0:
                        6645 --2159:     case R_DEV_PLL1:
                        6646 --2160:         prot_addr = LOC_PROTCMD1;
                        6647 --line2160
                        6648 ..lin.D.3A.5CRenesas_Electronics.5CD1x_RGL.5Crgl_ghs_D1Lx_obj_V1.2E2.2E0.5Cvlib.5Capp.5Cgfx_apps.5Csimple_draw_d1l2.5Ctarget.5Cd1lx_mango_ghs.5Cobj.5Cr_dev_clk.382::
                        6649 .LDWlin382:
00001802 3d060080f8ff   6650 	mov	-491520,r29
00001808 f505*          6651 	br	.L5115
                        6652 .L5119:
                        6653 --2161:         break;
                        6654 --2162:     case R_DEV_PLL2:

                                                                      Page 114
                                                              C:\Users\YINGAO~1\AppData\Local\Temp\gh_00007041.si
                        6655 --2163:         prot_addr = LOC_PROTCMDD1;
                        6656 --line2163
                        6657 ..lin.D.3A.5CRenesas_Electronics.5CD1x_RGL.5Crgl_ghs_D1Lx_obj_V1.2E2.2E0.5Cvlib.5Capp.5Cgfx_apps.5Csimple_draw_d1l2.5Ctarget.5Cd1lx_mango_ghs.5Cobj.5Cr_dev_clk.383::
                        6658 .LDWlin383:
0000180a 3d060070f8ff   6659 	mov	-495616,r29
00001810 b505*          6660 	br	.L5115
                        6661 .L5120:
                        6662 --2164:         break;
                        6663 --2165:     default:
                        6664 --2166:        ret_val = R_PARAMETER_RANGE;
                        6665 --line2166
                        6666 ..lin.D.3A.5CRenesas_Electronics.5CD1x_RGL.5Crgl_ghs_D1Lx_obj_V1.2E2.2E0.5Cvlib.5Capp.5Cgfx_apps.5Csimple_draw_d1l2.5Ctarget.5Cd1lx_mango_ghs.5Cobj.5Cr_dev_clk.384::
                        6667 .LDWlin384:
00001812 03da           6668 	mov	3,r27
00001814 0000           6669 	nop
                        6670 .L5115:
                        6671 --2167:         break;
                        6672 --2168:     }
                        6673 --2169:     if (R_PARAMETER_RANGE != ret_val)
00001816 63da           6674 	cmp	3,r27
00001818 f225*          6675 	be	.L5121
                        6676 --2170:     {
                        6677 --2171:         /* now set stop trigger */
                        6678 --2172:         reg_val |= 0x2u;
                        6679 --line2172
                        6680 ..lin.D.3A.5CRenesas_Electronics.5CD1x_RGL.5Crgl_ghs_D1Lx_obj_V1.2E2.2E0.5Cvlib.5Capp.5Cgfx_apps.5Csimple_draw_d1l2.5Ctarget.5Cd1lx_mango_ghs.5Cobj.5Cr_dev_clk.385::
                        6681 .LDWlin385:
0000181a 9ce60200       6682 	ori	2,r28,r28
                        6683 --2173:         R_DEV_WRITE_PROT_REG(prot_addr, addr, reg_val);
                        6684 --	    .bs
                        6685 .LDW18:
0000181e 00ca           6686 	mov	0,r25
00001820 63070100       6687 	st.w	zero,0[sp]
00001824 005a           6688 	mov	0,r11
00001826 0000           6689 	nop
                        6690 .L5125:
00001828 200ea500       6691 	movea	165,zero,r1
0000182c 7d0f0100       6692 	st.w	r1,0[r29]
00001830 7ae70100       6693 	st.w	r28,0[r26]
00001834 3c08           6694 	not	r28,r1
00001836 7a0f0100       6695 	st.w	r1,0[r26]
0000183a 7ae70100       6696 	st.w	r28,0[r26]
0000183e 3dcf0500       6697 	ld.w	4[r29],r25
00001842 3a5f0100       6698 	ld.w	0[r26],r11
00001846 635f0100       6699 	st.w	r11,0[sp]
0000184a 235f0100       6700 	ld.w	0[sp],r11
0000184e fc59           6701 	cmp	r28,r11
00001850 b205*          6702 	be	.L5123
00001852 e0c9           6703 	cmp	zero,r25
00001854 aaed*          6704 	bne	.L5125
                        6705 .L5123:
                        6706 --	    .es
                        6707 .LDW28:
                        6708 --2174:         /* wait for status */
                        6709 --2175:         while (0 != R_DEV_ClkGenActive(ClkGen))
                        6710 --line2175
                        6711 ..lin.D.3A.5CRenesas_Electronics.5CD1x_RGL.5Crgl_ghs_D1Lx_obj_V1.2E2.2E0.5Cvlib.5Capp.5Cgfx_apps.5Csimple_draw_d1l2.5Ctarget.5Cd1lx_mango_ghs.5Cobj.5Cr_dev_clk.386::
                        6712 .LDWlin386:
00001856 0000           6713 	nop
                        6714 .L5127:
                        6715 --2176:         {

                                                                      Page 115
                                                              C:\Users\YINGAO~1\AppData\Local\Temp\gh_00007041.si
00001858 23370500       6716 	ld.w	4[sp],r6
                        6717 	jarl	_R_DEV_ClkGenActive,lp
                        6717 <EXPANSION BEGIN>
                        6717 jarl22 _R_DEV_ClkGenActive , lp 
0000185c bfffe2f3*      6717 <EXPANSION END>
00001860 e051           6718 	cmp	zero,r10
00001862 bafd*          6719 	bne	.L5127
                        6720 --2177:         }
                        6721 --2178:         ret_val = R_ERR_OK;
                        6722 --line2178
                        6723 ..lin.D.3A.5CRenesas_Electronics.5CD1x_RGL.5Crgl_ghs_D1Lx_obj_V1.2E2.2E0.5Cvlib.5Capp.5Cgfx_apps.5Csimple_draw_d1l2.5Ctarget.5Cd1lx_mango_ghs.5Cobj.5Cr_dev_clk.387::
                        6724 .LDWlin387:
00001864 00da           6725 	mov	0,r27
                        6726 .L5121:
                        6727 --2179:     }
                        6728 --2180:     return ret_val;
00001866 1b50           6729 	mov	r27,r10
                        6730 --	    .ef
                        6731 .LDW38:
00001868 4406ff70       6732 	dispose	2,{r25,r26,r27,r28,r29,r31},[lp]
                        6733 	.type	_R_DEV_ClkGenStop,@function
                        6734 	.size	_R_DEV_ClkGenStop,.-_R_DEV_ClkGenStop
                        6735 	.align	2
                        6736 .LDW48:
                        6737 --_addr	r26	local
                        6738 --_reg_val	r28	local
                        6739 --_prot_addr	r29	local
                        6740 --_ret_val	r27	local
                        6741 --_prot_stat	r25	local
                        6742 --_new_val	0[sp]	local
                        6743 
                        6744 --_ClkGen	4[sp]	param
                        6745 
                        6746 	.section ".bss","awb"
                        6747 .L5202:
                        6748 	.type	.L5202,@object
                        6749 	.size	.L5202,0
                        6750 	.data
                        6751 	.text
                        6752 
                        6753 --2181: }
                        6754 
                        6755 --2183: /*******************************************************************************
                        6756 --2184:   Function: R_DEV_ClkGenStart
                        6757 --2186:     se: <r_dev_api.h> for details
                        6758 --2187: */
                        6759 --2189: r_Error_t R_DEV_ClkGenStart(r_dev_ClkGen_t ClkGen)
                        6760 	.align	2
                        6761 	.align	2
                        6762 	.global	_R_DEV_ClkGenStart
                        6763 _R_DEV_ClkGenStart:
0000186c 8407e170       6764 	prepare	{r25,r26,r27,r28,r29,r31},2
00001870 63370500       6765 	st.w	r6,4[sp]
                        6766 --	    .bf
                        6767 .LDW58:
                        6768 --2190: {
                        6769 --2191:     uint32_t addr      = loc_Base[ClkGen] + LOC_GEN_E;
00001874 230f0500       6770 	ld.w	4[sp],r1
00001878 3e0600000000*  6771 	mov	_loc_Base,ep
0000187e c20a           6772 	shl	2,r1
00001880 c1f1           6773 	add	r1,ep

                                                                      Page 116
                                                              C:\Users\YINGAO~1\AppData\Local\Temp\gh_00007041.si
00001882 00d5           6774 	sld.w	0[ep],r26
                        6775 --2192:     uint32_t reg_val   = 0;
00001884 00e2           6776 	mov	0,r28
                        6777 --2193:     uint32_t prot_addr = 0;
00001886 00ea           6778 	mov	0,r29
                        6779 --2195:     r_Error_t ret_val = R_NG;
00001888 01da           6780 	mov	1,r27
                        6781 --2196:     switch (ClkGen)
0000188a 230f0500       6782 	ld.w	4[sp],r1
0000188e 620a           6783 	cmp	2,r1
00001890 f105*          6784 	bl	.L5313
00001892 a20d*          6785 	be	.L5314
00001894 650a           6786 	cmp	5,r1
00001896 cb0d*          6787 	bh	.L5315
                        6788 --2197:     {
                        6789 --2198:     case R_DEV_HS_RING:
                        6790 --2199:     case R_DEV_MOSC:
                        6791 --2200:     case R_DEV_SOSC:
                        6792 --2201:         prot_addr = LOC_PROTCMD0;
                        6793 --line2201
                        6794 ..lin.D.3A.5CRenesas_Electronics.5CD1x_RGL.5Crgl_ghs_D1Lx_obj_V1.2E2.2E0.5Cvlib.5Capp.5Cgfx_apps.5Csimple_draw_d1l2.5Ctarget.5Cd1lx_mango_ghs.5Cobj.5Cr_dev_clk.388::
                        6795 .LDWlin388:
00001898 40eef8ff       6796 	movhi	hi(-524288),zero,r29
0000189c b50d*          6797 	br	.L5310
                        6798 .L5313:
                        6799 --2202:         break;
                        6800 --2203:     case R_DEV_PLL0:
                        6801 --2204:     case R_DEV_PLL1:
                        6802 --2205:         prot_addr = LOC_PROTCMD1;
                        6803 --line2205
                        6804 ..lin.D.3A.5CRenesas_Electronics.5CD1x_RGL.5Crgl_ghs_D1Lx_obj_V1.2E2.2E0.5Cvlib.5Capp.5Cgfx_apps.5Csimple_draw_d1l2.5Ctarget.5Cd1lx_mango_ghs.5Cobj.5Cr_dev_clk.389::
                        6805 .LDWlin389:
0000189e 3d060080f8ff   6806 	mov	-491520,r29
000018a4 f505*          6807 	br	.L5310
                        6808 .L5314:
                        6809 --2206:         break;
                        6810 --2207:     case R_DEV_PLL2:
                        6811 --2208:         prot_addr = LOC_PROTCMDD1;
                        6812 --line2208
                        6813 ..lin.D.3A.5CRenesas_Electronics.5CD1x_RGL.5Crgl_ghs_D1Lx_obj_V1.2E2.2E0.5Cvlib.5Capp.5Cgfx_apps.5Csimple_draw_d1l2.5Ctarget.5Cd1lx_mango_ghs.5Cobj.5Cr_dev_clk.390::
                        6814 .LDWlin390:
000018a6 3d060070f8ff   6815 	mov	-495616,r29
000018ac b505*          6816 	br	.L5310
                        6817 .L5315:
                        6818 --2209:         break;
                        6819 --2210:     default:
                        6820 --2211:        ret_val = R_PARAMETER_RANGE;
                        6821 --line2211
                        6822 ..lin.D.3A.5CRenesas_Electronics.5CD1x_RGL.5Crgl_ghs_D1Lx_obj_V1.2E2.2E0.5Cvlib.5Capp.5Cgfx_apps.5Csimple_draw_d1l2.5Ctarget.5Cd1lx_mango_ghs.5Cobj.5Cr_dev_clk.391::
                        6823 .LDWlin391:
000018ae 03da           6824 	mov	3,r27
000018b0 0000           6825 	nop
                        6826 .L5310:
                        6827 --2212:        break;
                        6828 --2213:     }
                        6829 --2214:     if (R_PARAMETER_RANGE != ret_val)
000018b2 63da           6830 	cmp	3,r27
000018b4 f225*          6831 	be	.L5316
                        6832 --2215:     {
                        6833 --2216:         /* now set start trigger */
                        6834 --2217:         reg_val |= 0x1u;

                                                                      Page 117
                                                              C:\Users\YINGAO~1\AppData\Local\Temp\gh_00007041.si
                        6835 --line2217
                        6836 ..lin.D.3A.5CRenesas_Electronics.5CD1x_RGL.5Crgl_ghs_D1Lx_obj_V1.2E2.2E0.5Cvlib.5Capp.5Cgfx_apps.5Csimple_draw_d1l2.5Ctarget.5Cd1lx_mango_ghs.5Cobj.5Cr_dev_clk.392::
                        6837 .LDWlin392:
000018b6 9ce60100       6838 	ori	1,r28,r28
                        6839 --2218:         R_DEV_WRITE_PROT_REG(prot_addr, addr, reg_val);
                        6840 --	    .bs
                        6841 .LDW68:
000018ba 00ca           6842 	mov	0,r25
000018bc 63070100       6843 	st.w	zero,0[sp]
000018c0 005a           6844 	mov	0,r11
000018c2 0000           6845 	nop
                        6846 .L5320:
000018c4 200ea500       6847 	movea	165,zero,r1
000018c8 7d0f0100       6848 	st.w	r1,0[r29]
000018cc 7ae70100       6849 	st.w	r28,0[r26]
000018d0 3c08           6850 	not	r28,r1
000018d2 7a0f0100       6851 	st.w	r1,0[r26]
000018d6 7ae70100       6852 	st.w	r28,0[r26]
000018da 3dcf0500       6853 	ld.w	4[r29],r25
000018de 3a5f0100       6854 	ld.w	0[r26],r11
000018e2 635f0100       6855 	st.w	r11,0[sp]
000018e6 235f0100       6856 	ld.w	0[sp],r11
000018ea fc59           6857 	cmp	r28,r11
000018ec b205*          6858 	be	.L5318
000018ee e0c9           6859 	cmp	zero,r25
000018f0 aaed*          6860 	bne	.L5320
                        6861 .L5318:
                        6862 --	    .es
                        6863 .LDW78:
                        6864 --2219:         /* wait for status */
                        6865 --2220:         while (0 == R_DEV_ClkGenActive(ClkGen))
                        6866 --line2220
                        6867 ..lin.D.3A.5CRenesas_Electronics.5CD1x_RGL.5Crgl_ghs_D1Lx_obj_V1.2E2.2E0.5Cvlib.5Capp.5Cgfx_apps.5Csimple_draw_d1l2.5Ctarget.5Cd1lx_mango_ghs.5Cobj.5Cr_dev_clk.393::
                        6868 .LDWlin393:
000018f2 0000           6869 	nop
                        6870 .L5322:
                        6871 --2221:         {
000018f4 23370500       6872 	ld.w	4[sp],r6
                        6873 	jarl	_R_DEV_ClkGenActive,lp
                        6873 <EXPANSION BEGIN>
                        6873 jarl22 _R_DEV_ClkGenActive , lp 
000018f8 bfff46f3*      6873 <EXPANSION END>
000018fc e051           6874 	cmp	zero,r10
000018fe b2fd*          6875 	be	.L5322
                        6876 --2223:         }
                        6877 --2224:         ret_val = R_ERR_OK;
                        6878 --line2224
                        6879 ..lin.D.3A.5CRenesas_Electronics.5CD1x_RGL.5Crgl_ghs_D1Lx_obj_V1.2E2.2E0.5Cvlib.5Capp.5Cgfx_apps.5Csimple_draw_d1l2.5Ctarget.5Cd1lx_mango_ghs.5Cobj.5Cr_dev_clk.394::
                        6880 .LDWlin394:
00001900 00da           6881 	mov	0,r27
                        6882 .L5316:
                        6883 --2225:     }
                        6884 --2226:     return ret_val;
00001902 1b50           6885 	mov	r27,r10
                        6886 --	    .ef
                        6887 .LDW88:
00001904 4406ff70       6888 	dispose	2,{r25,r26,r27,r28,r29,r31},[lp]
                        6889 	.type	_R_DEV_ClkGenStart,@function
                        6890 	.size	_R_DEV_ClkGenStart,.-_R_DEV_ClkGenStart
                        6891 	.align	2
                        6892 .LDW98:

                                                                      Page 118
                                                              C:\Users\YINGAO~1\AppData\Local\Temp\gh_00007041.si
                        6893 --_addr	r26	local
                        6894 --_reg_val	r28	local
                        6895 --_prot_addr	r29	local
                        6896 --_ret_val	r27	local
                        6897 --_prot_stat	r25	local
                        6898 --_new_val	0[sp]	local
                        6899 
                        6900 --_ClkGen	4[sp]	param
                        6901 
                        6902 	.section ".bss","awb"
                        6903 .L5394:
                        6904 	.type	.L5394,@object
                        6905 	.size	.L5394,0
                        6906 	.data
                        6907 	.text
                        6908 
                        6909 --2227: }
                        6910 
                        6911 --2229: /*******************************************************************************
                        6912 --2230:   Function: R_DEV_MoscCfg
                        6913 --2232:   see: <r_dev_clk_types.h> for details
                        6914 --2233: */
                        6915 --2234: r_Error_t R_DEV_MoscCfg(const r_dev_MoscCfg_t * ClkCfg)
                        6916 	.align	2
                        6917 	.align	2
                        6918 	.global	_R_DEV_MoscCfg
                        6919 _R_DEV_MoscCfg:
00001908 8407e170       6920 	prepare	{r25,r26,r27,r28,r29,r31},2
0000190c 210600000000*  6921 	mov	_loc_Base+16,r1
00001912 630f0500       6922 	st.w	r1,4[sp]
00001916 06d8           6923 	mov	r6,r27
                        6924 --	    .bf
                        6925 .LDW09:
                        6926 --2235: {
                        6927 --2236:     uint32_t  addr    = 0 ;
00001918 00ea           6928 	mov	0,r29
                        6929 --2237:     uint32_t  reg_val = 0 ;
0000191a 00e2           6930 	mov	0,r28
                        6931 --2238:     r_Error_t ret_val = R_NG;
0000191c 01d2           6932 	mov	1,r26
                        6933 --2240:     /* We have to stop before the settings can be written  */
                        6934 --2241:     if (0 != R_DEV_ClkGenActive(R_DEV_MOSC))
0000191e 0432           6935 	mov	4,r6
                        6936 	jarl	_R_DEV_ClkGenActive,lp
                        6936 <EXPANSION BEGIN>
                        6936 jarl22 _R_DEV_ClkGenActive , lp 
00001920 bfff1ef3*      6936 <EXPANSION END>
00001924 e051           6937 	cmp	zero,r10
00001926 a20d*          6938 	be	.L5502
                        6939 --2242:     {
                        6940 --2243:          R_DEV_ClkGenStop(R_DEV_MOSC);
                        6941 --line2243
                        6942 ..lin.D.3A.5CRenesas_Electronics.5CD1x_RGL.5Crgl_ghs_D1Lx_obj_V1.2E2.2E0.5Cvlib.5Capp.5Cgfx_apps.5Csimple_draw_d1l2.5Ctarget.5Cd1lx_mango_ghs.5Cobj.5Cr_dev_clk.395::
                        6943 .LDWlin395:
00001928 0432           6944 	mov	4,r6
                        6945 	jarl	_R_DEV_ClkGenStop,lp
                        6945 <EXPANSION BEGIN>
                        6945 jarl22 _R_DEV_ClkGenStop , lp 
0000192a bfffa6fe*      6945 <EXPANSION END>
                        6946 --2244:          while (0 != R_DEV_ClkGenActive(R_DEV_MOSC))
                        6947 --line2244

                                                                      Page 119
                                                              C:\Users\YINGAO~1\AppData\Local\Temp\gh_00007041.si
                        6948 ..lin.D.3A.5CRenesas_Electronics.5CD1x_RGL.5Crgl_ghs_D1Lx_obj_V1.2E2.2E0.5Cvlib.5Capp.5Cgfx_apps.5Csimple_draw_d1l2.5Ctarget.5Cd1lx_mango_ghs.5Cobj.5Cr_dev_clk.396::
                        6949 .LDWlin396:
0000192e 0000           6950 	nop
                        6951 .L5504:
                        6952 --2245:          {
00001930 0432           6953 	mov	4,r6
                        6954 	jarl	_R_DEV_ClkGenActive,lp
                        6954 <EXPANSION BEGIN>
                        6954 jarl22 _R_DEV_ClkGenActive , lp 
00001932 bfff0cf3*      6954 <EXPANSION END>
00001936 e051           6955 	cmp	zero,r10
00001938 cafd*          6956 	bne	.L5504
                        6957 .L5502:
                        6958 --2246:          }
                        6959 --2247:     }
                        6960 --2248:     /* Stabi time: for X1X it's
                        6961 --2249:         reg_val = (ClkCfg->StabiTimeNs * 8) /  1000   HS ring active:
                        6962 --2250:         or      = (ClkCfg->StabiTimeNs *24) / 100000 HS ring stopped :
                        6963 --2251:     */
                        6964 --2252:     if (0 != R_DEV_ClkGenActive(R_DEV_HS_RING))
                        6965 --line2252
                        6966 ..lin.D.3A.5CRenesas_Electronics.5CD1x_RGL.5Crgl_ghs_D1Lx_obj_V1.2E2.2E0.5Cvlib.5Capp.5Cgfx_apps.5Csimple_draw_d1l2.5Ctarget.5Cd1lx_mango_ghs.5Cobj.5Cr_dev_clk.397::
                        6967 .LDWlin397:
0000193a 0332           6968 	mov	3,r6
                        6969 	jarl	_R_DEV_ClkGenActive,lp
                        6969 <EXPANSION BEGIN>
                        6969 jarl22 _R_DEV_ClkGenActive , lp 
0000193c bfff02f3*      6969 <EXPANSION END>
00001940 e051           6970 	cmp	zero,r10
00001942 a20d*          6971 	be	.L5507
                        6972 --2253:     {
                        6973 --2254:         reg_val = (ClkCfg->StabiTimeNs * 8u) /  1000u;
                        6974 --line2254
                        6975 ..lin.D.3A.5CRenesas_Electronics.5CD1x_RGL.5Crgl_ghs_D1Lx_obj_V1.2E2.2E0.5Cvlib.5Capp.5Cgfx_apps.5Csimple_draw_d1l2.5Ctarget.5Cd1lx_mango_ghs.5Cobj.5Cr_dev_clk.398::
                        6976 .LDWlin398:
00001944 3b0f0500       6977 	ld.w	4[r27],r1
00001948 c30a           6978 	shl	3,r1
0000194a 01e0           6979 	mov	r1,r28
0000194c 200ee803       6980 	movea	1000,zero,r1
00001950 e1e7fe02       6981 	divqu	r1,r28,zero
00001954 b50d*          6982 	br	.L5509
                        6983 .L5507:
                        6984 --2255:     }
                        6985 --2256:     else
                        6986 --2257:     {
                        6987 --2258:         reg_val = (ClkCfg->StabiTimeNs * 24u) /  100000u;
                        6988 --line2258
                        6989 ..lin.D.3A.5CRenesas_Electronics.5CD1x_RGL.5Crgl_ghs_D1Lx_obj_V1.2E2.2E0.5Cvlib.5Capp.5Cgfx_apps.5Csimple_draw_d1l2.5Ctarget.5Cd1lx_mango_ghs.5Cobj.5Cr_dev_clk.399::
                        6990 .LDWlin399:
00001956 3b0f0500       6991 	ld.w	4[r27],r1
0000195a f80f4202       6992 	mulu	24,r1,zero
0000195e 01e0           6993 	mov	r1,r28
00001960 2106a0860100   6994 	mov	100000,r1
00001966 e1e7fe02       6995 	divqu	r1,r28,zero
                        6996 .L5509:
                        6997 --2259:     }
                        6998 --2260:     addr    = loc_Base[R_DEV_MOSC] + LOC_GEN_STABI;
0000196a 23ef0500       6999 	ld.w	4[sp],r29
0000196e 3def0100       7000 	ld.w	0[r29],r29
00001972 4cea           7001 	add	12,r29
                        7002 --2261:     R_DEV_WRITE_REG(32, addr, reg_val);

                                                                      Page 120
                                                              C:\Users\YINGAO~1\AppData\Local\Temp\gh_00007041.si
00001974 7de70100       7003 	st.w	r28,0[r29]
                        7004 --2263:     /* Gain: */
                        7005 --2264:     reg_val = ClkCfg->Gain;
00001978 9be70900       7006 	ld.bu	8[r27],r28
                        7007 --2265:     /* required setting according to UM */
                        7008 --2266:     reg_val |= 0x4u;
0000197c 9ce60400       7009 	ori	4,r28,r28
                        7010 --2267:     addr    = loc_Base[R_DEV_MOSC] + LOC_GEN_C;
00001980 23ef0500       7011 	ld.w	4[sp],r29
00001984 3def0100       7012 	ld.w	0[r29],r29
00001988 48ea           7013 	add	8,r29
                        7014 --2268:     R_DEV_WRITE_REG(32, addr, reg_val);
0000198a 7de70100       7015 	st.w	r28,0[r29]
                        7016 --2270:     /* Check if register values fit  */
                        7017 --2271:     if (R_DEV_READ_REG(32, addr) == reg_val)
0000198e 3d0f0100       7018 	ld.w	0[r29],r1
00001992 fc09           7019 	cmp	r28,r1
00001994 9a45*          7020 	bne	.L5510
                        7021 --2272:     {
                        7022 --2273:         /* Continue configuraton */
                        7023 --2274:         if (0 != ClkCfg->Running)
                        7024 --line2274
                        7025 ..lin.D.3A.5CRenesas_Electronics.5CD1x_RGL.5Crgl_ghs_D1Lx_obj_V1.2E2.2E0.5Cvlib.5Capp.5Cgfx_apps.5Csimple_draw_d1l2.5Ctarget.5Cd1lx_mango_ghs.5Cobj.5Cr_dev_clk.400::
                        7026 .LDWlin400:
00001996 bb0f0900       7027 	ld.bu	9[r27],r1
0000199a e009           7028 	cmp	zero,r1
0000199c d225*          7029 	be	.L5512
                        7030 --2275:         {
                        7031 --2276:             addr    = loc_Base[R_DEV_MOSC] + LOC_GEN_E;
                        7032 --line2276
                        7033 ..lin.D.3A.5CRenesas_Electronics.5CD1x_RGL.5Crgl_ghs_D1Lx_obj_V1.2E2.2E0.5Cvlib.5Capp.5Cgfx_apps.5Csimple_draw_d1l2.5Ctarget.5Cd1lx_mango_ghs.5Cobj.5Cr_dev_clk.401::
                        7034 .LDWlin401:
0000199e 23ef0500       7035 	ld.w	4[sp],r29
000019a2 3def0100       7036 	ld.w	0[r29],r29
                        7037 --2277:             R_DEV_WRITE_PROT_REG(LOC_PROTCMD0, addr, (uint32_t)1u);
                        7038 --	    .bs
                        7039 .LDW19:
000019a6 00ca           7040 	mov	0,r25
000019a8 63070100       7041 	st.w	zero,0[sp]
000019ac 005a           7042 	mov	0,r11
000019ae 0000           7043 	nop
                        7044 .L5516:
000019b0 200ea500       7045 	movea	165,zero,r1
000019b4 80070f0800f0   7046 	st.w	r1,4294443008[zero]
000019ba 010a           7047 	mov	1,r1
000019bc 7d0f0100       7048 	st.w	r1,0[r29]
000019c0 1e0a           7049 	mov	-2,r1
000019c2 7d0f0100       7050 	st.w	r1,0[r29]
000019c6 010a           7051 	mov	1,r1
000019c8 7d0f0100       7052 	st.w	r1,0[r29]
000019cc 800749c800f0   7053 	ld.w	4294443012[zero],r25
000019d2 3d5f0100       7054 	ld.w	0[r29],r11
000019d6 635f0100       7055 	st.w	r11,0[sp]
000019da 235f0100       7056 	ld.w	0[sp],r11
000019de 615a           7057 	cmp	1,r11
000019e0 b205*          7058 	be	.L5512
000019e2 e0c9           7059 	cmp	zero,r25
000019e4 eae5*          7060 	bne	.L5516
                        7061 --	    .es
                        7062 .LDW29:
                        7063 .L5512:

                                                                      Page 121
                                                              C:\Users\YINGAO~1\AppData\Local\Temp\gh_00007041.si
                        7064 --2278:         }
                        7065 --2279:         /* It is mandatory to set bit 1 in  any case */
                        7066 --2280:         if (0 != ClkCfg->StpReqMsk)
                        7067 --line2280
                        7068 ..lin.D.3A.5CRenesas_Electronics.5CD1x_RGL.5Crgl_ghs_D1Lx_obj_V1.2E2.2E0.5Cvlib.5Capp.5Cgfx_apps.5Csimple_draw_d1l2.5Ctarget.5Cd1lx_mango_ghs.5Cobj.5Cr_dev_clk.402::
                        7069 .LDWlin402:
000019e6 9b0f0b00       7070 	ld.bu	10[r27],r1
000019ea e009           7071 	cmp	zero,r1
000019ec b205*          7072 	be	.L5518
                        7073 --2281:         {
                        7074 --2283:             reg_val = 0x03u;
                        7075 --line2283
                        7076 ..lin.D.3A.5CRenesas_Electronics.5CD1x_RGL.5Crgl_ghs_D1Lx_obj_V1.2E2.2E0.5Cvlib.5Capp.5Cgfx_apps.5Csimple_draw_d1l2.5Ctarget.5Cd1lx_mango_ghs.5Cobj.5Cr_dev_clk.403::
                        7077 .LDWlin403:
000019ee 03e2           7078 	mov	3,r28
000019f0 a505*          7079 	br	.L5520
                        7080 .L5518:
                        7081 --2284:         }
                        7082 --2285:         else
                        7083 --2286:         {
                        7084 --2287:             reg_val = 0x02u;
                        7085 --line2287
                        7086 ..lin.D.3A.5CRenesas_Electronics.5CD1x_RGL.5Crgl_ghs_D1Lx_obj_V1.2E2.2E0.5Cvlib.5Capp.5Cgfx_apps.5Csimple_draw_d1l2.5Ctarget.5Cd1lx_mango_ghs.5Cobj.5Cr_dev_clk.404::
                        7087 .LDWlin404:
000019f2 02e2           7088 	mov	2,r28
                        7089 .L5520:
                        7090 --2288:         }
                        7091 --2289:         addr    = loc_Base[R_DEV_MOSC] + LOC_GEN_STPMSK;
000019f4 23ef0500       7092 	ld.w	4[sp],r29
000019f8 3def0100       7093 	ld.w	0[r29],r29
000019fc 1dee1800       7094 	addi	24,r29,r29
                        7095 --2290:         R_DEV_WRITE_REG(32, addr, reg_val);
00001a00 7de70100       7096 	st.w	r28,0[r29]
                        7097 --2292:         /* Do not store the settings - this has to be done separately  */
                        7098 --2294:         /* Proceed - wait for the setting to take effect */
                        7099 --2295:         R_DBG_PRINT(R_DBG_MSG_INFO, "Wait for setting to take effect");
                        7100 --2296:         while (R_DEV_ClkGenActive(R_DEV_MOSC) != ClkCfg->Running)
00001a04 0000           7101 	nop
                        7102 .L5521:
                        7103 --2297:         {
00001a06 0432           7104 	mov	4,r6
                        7105 	jarl	_R_DEV_ClkGenActive,lp
                        7105 <EXPANSION BEGIN>
                        7105 jarl22 _R_DEV_ClkGenActive , lp 
00001a08 bfff36f2*      7105 <EXPANSION END>
00001a0c bb0f0900       7106 	ld.bu	9[r27],r1
00001a10 e151           7107 	cmp	r1,r10
00001a12 aafd*          7108 	bne	.L5521
                        7109 --2299:         }
                        7110 --2300:         ret_val = R_ERR_OK;
                        7111 --line2300
                        7112 ..lin.D.3A.5CRenesas_Electronics.5CD1x_RGL.5Crgl_ghs_D1Lx_obj_V1.2E2.2E0.5Cvlib.5Capp.5Cgfx_apps.5Csimple_draw_d1l2.5Ctarget.5Cd1lx_mango_ghs.5Cobj.5Cr_dev_clk.405::
                        7113 .LDWlin405:
00001a14 00d2           7114 	mov	0,r26
                        7115 .L5510:
                        7116 --2301:     }
                        7117 --2302:     return ret_val;
00001a16 1a50           7118 	mov	r26,r10
                        7119 --	    .ef
                        7120 .LDW39:
00001a18 4406ff70       7121 	dispose	2,{r25,r26,r27,r28,r29,r31},[lp]

                                                                      Page 122
                                                              C:\Users\YINGAO~1\AppData\Local\Temp\gh_00007041.si
                        7122 	.type	_R_DEV_MoscCfg,@function
                        7123 	.size	_R_DEV_MoscCfg,.-_R_DEV_MoscCfg
                        7124 	.align	2
                        7125 .LDW49:
                        7126 --_addr	r29	local
                        7127 --_reg_val	r28	local
                        7128 --_ret_val	r26	local
                        7129 --_prot_stat	r25	local
                        7130 --_new_val	0[sp]	local
                        7131 
                        7132 --_ClkCfg	r27	param
                        7133 
                        7134 	.section ".bss","awb"
                        7135 .L5646:
                        7136 	.type	.L5646,@object
                        7137 	.size	.L5646,0
                        7138 	.data
                        7139 	.text
                        7140 
                        7141 --2303: }
                        7142 
                        7143 --2305: /*******************************************************************************
                        7144 --2306:   Function: R_DEV_SubOscCfg
                        7145 --2308:     see: <r_dev_clk_types.h> for details
                        7146 --2310: */
                        7147 --2311: r_Error_t R_DEV_SubOscCfg(const r_dev_SubOscCfg_t * ClkCfg)
                        7148 	.align	2
                        7149 	.align	2
                        7150 	.global	_R_DEV_SubOscCfg
                        7151 _R_DEV_SubOscCfg:
00001a1c 8207e170       7152 	prepare	{r25,r26,r27,r28,r29,r31},1
00001a20 63370100       7153 	st.w	r6,0[sp]
                        7154 --	    .bf
                        7155 .LDW59:
                        7156 --2312: {
                        7157 --2313:     uint32_t  addr    = 0 ;
00001a24 00e2           7158 	mov	0,r28
                        7159 --2314:     uint32_t  reg_val = 0 ;
00001a26 00ea           7160 	mov	0,r29
                        7161 --2315:     r_Error_t ret_val = R_NG;
00001a28 01da           7162 	mov	1,r27
                        7163 --2317:     addr    = loc_Base[R_DEV_SOSC] + LOC_GEN_E;
00001a2a 3c0600000000*  7164 	mov	_loc_Base+20,r28
00001a30 3ce70100       7165 	ld.w	0[r28],r28
                        7166 --2318:     /* Do we have a status change? */
                        7167 --2319:     if (0u != ClkCfg->Running)
00001a34 235f0100       7168 	ld.w	0[sp],r11
00001a38 8b0f0500       7169 	ld.bu	4[r11],r1
00001a3c e009           7170 	cmp	zero,r1
00001a3e c205*          7171 	be	.L5779
                        7172 --2320:     {
                        7173 --2321:         reg_val |= 0x01u;
                        7174 --line2321
                        7175 ..lin.D.3A.5CRenesas_Electronics.5CD1x_RGL.5Crgl_ghs_D1Lx_obj_V1.2E2.2E0.5Cvlib.5Capp.5Cgfx_apps.5Csimple_draw_d1l2.5Ctarget.5Cd1lx_mango_ghs.5Cobj.5Cr_dev_clk.406::
                        7176 .LDWlin406:
00001a40 9dee0100       7177 	ori	1,r29,r29
00001a44 b505*          7178 	br	.L5781
                        7179 .L5779:
                        7180 --2322:     }
                        7181 --2323:     else
                        7182 --2324:     {

                                                                      Page 123
                                                              C:\Users\YINGAO~1\AppData\Local\Temp\gh_00007041.si
                        7183 --2325:         reg_val |= 0x02u;
                        7184 --line2325
                        7185 ..lin.D.3A.5CRenesas_Electronics.5CD1x_RGL.5Crgl_ghs_D1Lx_obj_V1.2E2.2E0.5Cvlib.5Capp.5Cgfx_apps.5Csimple_draw_d1l2.5Ctarget.5Cd1lx_mango_ghs.5Cobj.5Cr_dev_clk.407::
                        7186 .LDWlin407:
00001a46 9dee0200       7187 	ori	2,r29,r29
                        7188 .L5781:
                        7189 --2326:     }
                        7190 --2327:     R_DEV_WRITE_PROT_REG(LOC_PROTCMD0, addr, reg_val);
                        7191 --	    .bs
                        7192 .LDW69:
00001a4a 00d2           7193 	mov	0,r26
00001a4c 00ca           7194 	mov	0,r25
00001a4e 0000           7195 	nop
                        7196 .L5784:
00001a50 200ea500       7197 	movea	165,zero,r1
00001a54 80070f0800f0   7198 	st.w	r1,4294443008[zero]
00001a5a 7cef0100       7199 	st.w	r29,0[r28]
00001a5e 3d08           7200 	not	r29,r1
00001a60 7c0f0100       7201 	st.w	r1,0[r28]
00001a64 7cef0100       7202 	st.w	r29,0[r28]
00001a68 800749d000f0   7203 	ld.w	4294443012[zero],r26
00001a6e 3ccf0100       7204 	ld.w	0[r28],r25
00001a72 fdc9           7205 	cmp	r29,r25
00001a74 b205*          7206 	be	.L5782
00001a76 e0d1           7207 	cmp	zero,r26
00001a78 caed*          7208 	bne	.L5784
                        7209 .L5782:
                        7210 --	    .es
                        7211 .LDW79:
                        7212 --2328:     /* Do not store the settings - this has to be done separately  */
                        7213 --2330:     /* Proceed - wait for the setting to take effect */
                        7214 --2331:     while (R_DEV_ClkGenActive(R_DEV_SOSC) != ClkCfg->Running)
                        7215 --line2331
                        7216 ..lin.D.3A.5CRenesas_Electronics.5CD1x_RGL.5Crgl_ghs_D1Lx_obj_V1.2E2.2E0.5Cvlib.5Capp.5Cgfx_apps.5Csimple_draw_d1l2.5Ctarget.5Cd1lx_mango_ghs.5Cobj.5Cr_dev_clk.408::
                        7217 .LDWlin408:
00001a7a 0000           7218 	nop
                        7219 .L5786:
                        7220 --2332:     {
00001a7c 0532           7221 	mov	5,r6
                        7222 	jarl	_R_DEV_ClkGenActive,lp
                        7222 <EXPANSION BEGIN>
                        7222 jarl22 _R_DEV_ClkGenActive , lp 
00001a7e bfffc0f1*      7222 <EXPANSION END>
00001a82 235f0100       7223 	ld.w	0[sp],r11
00001a86 8b0f0500       7224 	ld.bu	4[r11],r1
00001a8a e151           7225 	cmp	r1,r10
00001a8c 8afd*          7226 	bne	.L5786
                        7227 --2334:     }
                        7228 --2335:     ret_val = R_ERR_OK;
                        7229 --line2335
                        7230 ..lin.D.3A.5CRenesas_Electronics.5CD1x_RGL.5Crgl_ghs_D1Lx_obj_V1.2E2.2E0.5Cvlib.5Capp.5Cgfx_apps.5Csimple_draw_d1l2.5Ctarget.5Cd1lx_mango_ghs.5Cobj.5Cr_dev_clk.409::
                        7231 .LDWlin409:
00001a8e 00da           7232 	mov	0,r27
                        7233 --2336:     return ret_val;
00001a90 1b50           7234 	mov	r27,r10
                        7235 --	    .ef
                        7236 .LDW89:
00001a92 4206ff70       7237 	dispose	1,{r25,r26,r27,r28,r29,r31},[lp]
                        7238 	.type	_R_DEV_SubOscCfg,@function
                        7239 	.size	_R_DEV_SubOscCfg,.-_R_DEV_SubOscCfg
                        7240 	.align	2

                                                                      Page 124
                                                              C:\Users\YINGAO~1\AppData\Local\Temp\gh_00007041.si
                        7241 .LDW99:
                        7242 --_addr	r28	local
                        7243 --_reg_val	r29	local
                        7244 --_ret_val	r27	local
                        7245 --_prot_stat	r26	local
                        7246 --_new_val	r25	local
                        7247 
                        7248 --_ClkCfg	0[sp]	param
                        7249 
                        7250 	.section ".bss","awb"
                        7251 .L5842:
                        7252 	.type	.L5842,@object
                        7253 	.size	.L5842,0
                        7254 	.data
                        7255 	.text
                        7256 
                        7257 --2337: }
                        7258 
                        7259 --2339: /*******************************************************************************
                        7260 --2340:   Function: R_DEV_SetGenStopMask
                        7261 --2342:     se: <r_dev_api.h> for details
                        7262 --2344: */
                        7263 --2345: r_Error_t R_DEV_SetGenStopMask(r_dev_ClkGen_t ClkGen, uint8_t Val)
                        7264 	.align	2
                        7265 	.align	2
                        7266 	.global	_R_DEV_SetGenStopMask
                        7267 _R_DEV_SetGenStopMask:
00001a96 210600000000*  7268 	mov	_loc_ClkGenCfg,r1
00001a9c 0658           7269 	mov	r6,r11
00001a9e c766ff00       7270 	andi	255,r7,r12
00001aa2 0148           7271 	mov	r1,r9
                        7272 --	    .bf
                        7273 .LDW001:
                        7274 --2346: {
                        7275 --2347:     uint32_t  addr    = 0 ;
00001aa4 00f2           7276 	mov	0,ep
                        7277 --2348:     uint32_t  reg_val = 0 ;
00001aa6 0072           7278 	mov	0,r14
                        7279 --2349:     r_Error_t ret_val = R_NG;
00001aa8 016a           7280 	mov	1,r13
                        7281 --2351:     addr    = loc_Base[ClkGen] + LOC_GEN_STPMSK;
00001aaa 0b50           7282 	mov	r11,r10
00001aac c252           7283 	shl	2,r10
00001aae 280600000000*  7284 	mov	_loc_Base,r8
00001ab4 c851           7285 	add	r8,r10
00001ab6 2af70100       7286 	ld.w	0[r10],ep
00001aba 1ef61800       7287 	addi	24,ep,ep
                        7288 --2352:     switch (ClkGen)
00001abe 635a           7289 	cmp	3,r11
00001ac0 c205*          7290 	be	.L5921
00001ac2 645a           7291 	cmp	4,r11
00001ac4 8a0d*          7292 	bne	.L5923
00001ac6 c505*          7293 	br	.L5922
                        7294 .L5921:
                        7295 --2353:     {
                        7296 --2354:     case R_DEV_HS_RING:
                        7297 --2355:         loc_ClkGenCfg.RoscStpReqMsk       = Val;
                        7298 --line2355
                        7299 ..lin.D.3A.5CRenesas_Electronics.5CD1x_RGL.5Crgl_ghs_D1Lx_obj_V1.2E2.2E0.5Cvlib.5Capp.5Cgfx_apps.5Csimple_draw_d1l2.5Ctarget.5Cd1lx_mango_ghs.5Cobj.5Cr_dev_clk.410::
                        7300 .LDWlin410:
00001ac8 41676800       7301 	st.b	r12,104[r1]

                                                                      Page 125
                                                              C:\Users\YINGAO~1\AppData\Local\Temp\gh_00007041.si
00001acc e505*          7302 	br	.L5919
                        7303 .L5922:
                        7304 --2356:         break;
                        7305 --2357:     case R_DEV_MOSC:
                        7306 --2358:         loc_ClkGenCfg.MainOsc.StpReqMsk   = Val;
                        7307 --line2358
                        7308 ..lin.D.3A.5CRenesas_Electronics.5CD1x_RGL.5Crgl_ghs_D1Lx_obj_V1.2E2.2E0.5Cvlib.5Capp.5Cgfx_apps.5Csimple_draw_d1l2.5Ctarget.5Cd1lx_mango_ghs.5Cobj.5Cr_dev_clk.411::
                        7309 .LDWlin411:
00001ace 41670a00       7310 	st.b	r12,10[r1]
00001ad2 b505*          7311 	br	.L5919
                        7312 .L5923:
                        7313 --2359:         break;
                        7314 --2360:     default:
                        7315 --2361:         ret_val = R_PARAMETER_RANGE;
                        7316 --line2361
                        7317 ..lin.D.3A.5CRenesas_Electronics.5CD1x_RGL.5Crgl_ghs_D1Lx_obj_V1.2E2.2E0.5Cvlib.5Capp.5Cgfx_apps.5Csimple_draw_d1l2.5Ctarget.5Cd1lx_mango_ghs.5Cobj.5Cr_dev_clk.412::
                        7318 .LDWlin412:
00001ad4 036a           7319 	mov	3,r13
00001ad6 0000           7320 	nop
                        7321 .L5919:
                        7322 --2362:         break;
                        7323 --2363:     }
                        7324 --2364:     if (R_PARAMETER_RANGE != ret_val)
00001ad8 636a           7325 	cmp	3,r13
00001ada d20d*          7326 	be	.L5924
                        7327 --2365:     {
                        7328 --2366:         if (0u != Val)
                        7329 --line2366
                        7330 ..lin.D.3A.5CRenesas_Electronics.5CD1x_RGL.5Crgl_ghs_D1Lx_obj_V1.2E2.2E0.5Cvlib.5Capp.5Cgfx_apps.5Csimple_draw_d1l2.5Ctarget.5Cd1lx_mango_ghs.5Cobj.5Cr_dev_clk.413::
                        7331 .LDWlin413:
00001adc e061           7332 	cmp	zero,r12
00001ade a205*          7333 	be	.L5926
                        7334 --2367:         {
                        7335 --2368:             reg_val = LOC_STOP_MASKED_SET;
                        7336 --line2368
                        7337 ..lin.D.3A.5CRenesas_Electronics.5CD1x_RGL.5Crgl_ghs_D1Lx_obj_V1.2E2.2E0.5Cvlib.5Capp.5Cgfx_apps.5Csimple_draw_d1l2.5Ctarget.5Cd1lx_mango_ghs.5Cobj.5Cr_dev_clk.414::
                        7338 .LDWlin414:
00001ae0 0172           7339 	mov	1,r14
                        7340 .L5926:
                        7341 --2369:         }
                        7342 --2370:         /* It is mandatory to set bit 1 in  any case */
                        7343 --2371:         reg_val |= 0x2u;
00001ae2 8e760200       7344 	ori	2,r14,r14
                        7345 --2372:         /* Write the value */
                        7346 --2373:         R_DEV_WRITE_REG(32, addr, reg_val);
00001ae6 0175           7347 	sst.w	r14,0[ep]
                        7348 --2374:         /* Check the value */
                        7349 --2375:         if ((R_DEV_READ_REG(32, addr) & (LOC_STOP_MASKED_SET | 0x2u)) == reg_val)
00001ae8 0055           7350 	sld.w	0[ep],r10
00001aea ca560300       7351 	andi	3,r10,r10
00001aee ee51           7352 	cmp	r14,r10
00001af0 aa05*          7353 	bne	.L5924
                        7354 --2376:         {
                        7355 --2377:             ret_val = R_ERR_OK;
                        7356 --line2377
                        7357 ..lin.D.3A.5CRenesas_Electronics.5CD1x_RGL.5Crgl_ghs_D1Lx_obj_V1.2E2.2E0.5Cvlib.5Capp.5Cgfx_apps.5Csimple_draw_d1l2.5Ctarget.5Cd1lx_mango_ghs.5Cobj.5Cr_dev_clk.415::
                        7358 .LDWlin415:
00001af2 006a           7359 	mov	0,r13
                        7360 .L5924:
                        7361 --2378:         }
                        7362 --2379:     }

                                                                      Page 126
                                                              C:\Users\YINGAO~1\AppData\Local\Temp\gh_00007041.si
                        7363 --2380:     return ret_val;
00001af4 0d50           7364 	mov	r13,r10
                        7365 --	    .ef
                        7366 .LDW101:
00001af6 7f00           7367 	jmp	[lp]
                        7368 	.type	_R_DEV_SetGenStopMask,@function
                        7369 	.size	_R_DEV_SetGenStopMask,.-_R_DEV_SetGenStopMask
                        7370 	.align	2
                        7371 .LDW201:
                        7372 --_addr	ep	local
                        7373 --_reg_val	r14	local
                        7374 --_ret_val	r13	local
                        7375 
                        7376 --_ClkGen	r11	param
                        7377 --_Val	r12	param
                        7378 
                        7379 	.data
                        7380 	.text
                        7381 
                        7382 --2381: }
                        7383 
                        7384 --2383: /*******************************************************************************
                        7385 --2384:   Function: R_DEV_ClkPllCfg
                        7386 --2386:     se: <r_dev_clk_types.h> for details
                        7387 --2387: */
                        7388 --2389: r_Error_t R_DEV_PllCfg(uint32_t FrqIn, r_dev_ClkGen_t Pll, const r_dev_PllCfg_t *PllCfg)
                        7389 	.align	2
                        7390 	.align	2
                        7391 	.global	_R_DEV_PllCfg
                        7392 _R_DEV_PllCfg:
00001af8 8407e170       7393 	prepare	{r25,r26,r27,r28,r29,r31},2
00001afc 06d0           7394 	mov	r6,r26
00001afe 07e0           7395 	mov	r7,r28
00001b00 08c8           7396 	mov	r8,r25
                        7397 --	    .bf
                        7398 .LDW301:
                        7399 --2390: {
                        7400 --2391:     uint32_t          freq_out  = PllCfg->FrequencyHz/1000000u;
00001b02 390f1100       7401 	ld.w	16[r25],r1
00001b06 2e0640420f00   7402 	mov	1000000,r14
00001b0c ee0ffe02       7403 	divqu	r14,r1,zero
00001b10 630f0100       7404 	st.w	r1,0[sp]
                        7405 --2392:     r_Error_t         ret_val   = R_NG;
00001b14 01ea           7406 	mov	1,r29
                        7407 --2393:     uint32_t          regval    = 0;
00001b16 00da           7408 	mov	0,r27
                        7409 --2394:     loc_PllCfgReg_t   pllcfg_reg;
                        7410 --2395:     /* This one is not needed here */
                        7411 --2396:     Pll = Pll;
00001b18 0000           7412 	nop
                        7413 --2398:     /* Clear Config */
                        7414 --2399:     pllcfg_reg.NI       = 0;
00001b1a 830f0500       7415 	ld.bu	4[sp],r1
00001b1e c10e8000       7416 	andi	128,r1,r1
00001b22 430f0400       7417 	st.b	r1,4[sp]
                        7418 --2400:     pllcfg_reg.P        = 0;
00001b26 e30f0500       7419 	ld.hu	4[sp],r1
00001b2a c10e7ffc       7420 	andi	64639,r1,r1
00001b2e 630f0400       7421 	st.h	r1,4[sp]
                        7422 --2401:     pllcfg_reg.M        = 0;
00001b32 a30f0500       7423 	ld.bu	5[sp],r1

                                                                      Page 127
                                                              C:\Users\YINGAO~1\AppData\Local\Temp\gh_00007041.si
00001b36 c10ef300       7424 	andi	243,r1,r1
00001b3a 430f0500       7425 	st.b	r1,5[sp]
                        7426 --2402:     pllcfg_reg.NF       = 0;
00001b3e 230f0500       7427 	ld.w	4[sp],r1
00001b42 2e06ff3ffcff   7428 	mov	-245761,r14
00001b48 4e09           7429 	and	r14,r1
00001b4a 630f0500       7430 	st.w	r1,4[sp]
                        7431 --2403:     pllcfg_reg.SSMode   = 0;
00001b4e a30f0500       7432 	ld.bu	5[sp],r1
00001b52 c10ecf00       7433 	andi	207,r1,r1
00001b56 430f0500       7434 	st.b	r1,5[sp]
                        7435 --2404:     pllcfg_reg.SSPerc   = 0;
00001b5a 830f0700       7436 	ld.bu	6[sp],r1
00001b5e c10ee300       7437 	andi	227,r1,r1
00001b62 430f0600       7438 	st.b	r1,6[sp]
                        7439 --2405:     pllcfg_reg.SMFreq   = 0;
00001b66 e30f0700       7440 	ld.hu	6[sp],r1
00001b6a c10e1ffc       7441 	andi	64543,r1,r1
00001b6e 630f0600       7442 	st.h	r1,6[sp]
                        7443 --2407:     /* VC= freq = fin * Nr/Pr */
                        7444 --2408:     /* Set/Check the frequency  */
                        7445 --2409:     switch (Pll)
00001b72 1c08           7446 	mov	r28,r1
00001b74 610a           7447 	cmp	1,r1
00001b76 d105*          7448 	bl	.L6056
00001b78 d225*          7449 	be	.L6060
00001b7a 620a           7450 	cmp	2,r1
00001b7c ea55*          7451 	bne	.L6062
00001b7e 9535*          7452 	br	.L6061
                        7453 .L6056:
                        7454 --2410:     {
                        7455 --2411:     case R_DEV_PLL0:
                        7456 --2412:         ret_val =  loc_CalcFreqPll0(FrqIn/1000000, &pllcfg_reg, &freq_out);
                        7457 --line2412
                        7458 ..lin.D.3A.5CRenesas_Electronics.5CD1x_RGL.5Crgl_ghs_D1Lx_obj_V1.2E2.2E0.5Cvlib.5Capp.5Cgfx_apps.5Csimple_draw_d1l2.5Ctarget.5Cd1lx_mango_ghs.5Cobj.5Cr_dev_clk.416::
                        7459 .LDWlin416:
00001b80 1a08           7460 	mov	r26,r1
00001b82 233e0400       7461 	movea	4,sp,r7
00001b86 2e0640420f00   7462 	mov	1000000,r14
00001b8c ee0ffe02       7463 	divqu	r14,r1,zero
00001b90 23460000       7464 	movea	0,sp,r8
00001b94 0130           7465 	mov	r1,r6
                        7466 	jarl	_loc_CalcFreqPll0,lp
                        7466 <EXPANSION BEGIN>
                        7466 jarl22 _loc_CalcFreqPll0 , lp 
00001b96 bfffb4e7*      7466 <EXPANSION END>
00001b9a 0ae8           7467 	mov	r10,r29
                        7468 --2413:         if ((R_ERR_OK == ret_val) && (R_DEV_PLL_SSCG == PllCfg->Mode))
                        7469 --line2413
                        7470 ..lin.D.3A.5CRenesas_Electronics.5CD1x_RGL.5Crgl_ghs_D1Lx_obj_V1.2E2.2E0.5Cvlib.5Capp.5Cgfx_apps.5Csimple_draw_d1l2.5Ctarget.5Cd1lx_mango_ghs.5Cobj.5Cr_dev_clk.417::
                        7471 .LDWlin417:
00001b9c e0e9           7472 	cmp	zero,r29
00001b9e 9a15*          7473 	bne	.L6057
00001ba0 390f0100       7474 	ld.w	0[r25],r1
00001ba4 610a           7475 	cmp	1,r1
00001ba6 da0d*          7476 	bne	.L6057
                        7477 --2414:         {
                        7478 --2415:             /*The input frequency is provided in KHz here */
                        7479 --2416:             ret_val = loc_CalcSscgPll0(FrqIn/1000, &pllcfg_reg, PllCfg);
                        7480 --line2416
                        7481 ..lin.D.3A.5CRenesas_Electronics.5CD1x_RGL.5Crgl_ghs_D1Lx_obj_V1.2E2.2E0.5Cvlib.5Capp.5Cgfx_apps.5Csimple_draw_d1l2.5Ctarget.5Cd1lx_mango_ghs.5Cobj.5Cr_dev_clk.418::

                                                                      Page 128
                                                              C:\Users\YINGAO~1\AppData\Local\Temp\gh_00007041.si
                        7482 .LDWlin418:
00001ba8 1a08           7483 	mov	r26,r1
00001baa 2076e803       7484 	movea	1000,zero,r14
00001bae ee0ffe02       7485 	divqu	r14,r1,zero
00001bb2 1940           7486 	mov	r25,r8
00001bb4 233e0400       7487 	movea	4,sp,r7
00001bb8 0130           7488 	mov	r1,r6
                        7489 	jarl	_loc_CalcSscgPll0,lp
                        7489 <EXPANSION BEGIN>
                        7489 jarl22 _loc_CalcSscgPll0 , lp 
00001bba bfff7ae6*      7489 <EXPANSION END>
00001bbe 0ae8           7490 	mov	r10,r29
                        7491 .L6057:
                        7492 --line2418
                        7493 ..lin.D.3A.5CRenesas_Electronics.5CD1x_RGL.5Crgl_ghs_D1Lx_obj_V1.2E2.2E0.5Cvlib.5Capp.5Cgfx_apps.5Csimple_draw_d1l2.5Ctarget.5Cd1lx_mango_ghs.5Cobj.5Cr_dev_clk.419::
                        7494 .LDWlin419:
00001bc0 e535*          7495 	br	.L6054
                        7496 .L6060:
                        7497 --2417:         }
                        7498 --2418:         break;
                        7499 --2419:     case R_DEV_PLL1:
                        7500 --2420:         ret_val =  loc_CalcFreqPll1(FrqIn/1000000, &pllcfg_reg, &freq_out);
                        7501 --line2420
                        7502 ..lin.D.3A.5CRenesas_Electronics.5CD1x_RGL.5Crgl_ghs_D1Lx_obj_V1.2E2.2E0.5Cvlib.5Capp.5Cgfx_apps.5Csimple_draw_d1l2.5Ctarget.5Cd1lx_mango_ghs.5Cobj.5Cr_dev_clk.420::
                        7503 .LDWlin420:
00001bc2 1a08           7504 	mov	r26,r1
00001bc4 233e0400       7505 	movea	4,sp,r7
00001bc8 2e0640420f00   7506 	mov	1000000,r14
00001bce ee0ffe02       7507 	divqu	r14,r1,zero
00001bd2 23460000       7508 	movea	0,sp,r8
00001bd6 0130           7509 	mov	r1,r6
                        7510 	jarl	_loc_CalcFreqPll1,lp
                        7510 <EXPANSION BEGIN>
                        7510 jarl22 _loc_CalcFreqPll1 , lp 
00001bd8 bfff1ee9*      7510 <EXPANSION END>
00001bdc 0ae8           7511 	mov	r10,r29
                        7512 --line2421
                        7513 ..lin.D.3A.5CRenesas_Electronics.5CD1x_RGL.5Crgl_ghs_D1Lx_obj_V1.2E2.2E0.5Cvlib.5Capp.5Cgfx_apps.5Csimple_draw_d1l2.5Ctarget.5Cd1lx_mango_ghs.5Cobj.5Cr_dev_clk.421::
                        7514 .LDWlin421:
00001bde f525*          7515 	br	.L6054
                        7516 .L6061:
                        7517 --2421:         break;
                        7518 --2422:     case R_DEV_PLL2 :
                        7519 --2423:         /* First, get the input frquency  */
                        7520 --2424:         regval  =  R_DEV_ClkFrequencyHz(R_DEV_CKS_PLL2IN);
                        7521 --line2424
                        7522 ..lin.D.3A.5CRenesas_Electronics.5CD1x_RGL.5Crgl_ghs_D1Lx_obj_V1.2E2.2E0.5Cvlib.5Capp.5Cgfx_apps.5Csimple_draw_d1l2.5Ctarget.5Cd1lx_mango_ghs.5Cobj.5Cr_dev_clk.422::
                        7523 .LDWlin422:
00001be0 20361500       7524 	movea	21,zero,r6
                        7525 	jarl	_R_DEV_ClkFrequencyHz,lp
                        7525 <EXPANSION BEGIN>
                        7525 jarl22 _R_DEV_ClkFrequencyHz , lp 
00001be4 bfff3ef5*      7525 <EXPANSION END>
00001be8 0ad8           7526 	mov	r10,r27
                        7527 --2425:         ret_val =  loc_CalcFreqPll2(regval/1000000, &pllcfg_reg, &freq_out);
                        7528 --line2425
                        7529 ..lin.D.3A.5CRenesas_Electronics.5CD1x_RGL.5Crgl_ghs_D1Lx_obj_V1.2E2.2E0.5Cvlib.5Capp.5Cgfx_apps.5Csimple_draw_d1l2.5Ctarget.5Cd1lx_mango_ghs.5Cobj.5Cr_dev_clk.423::
                        7530 .LDWlin423:
00001bea 1b08           7531 	mov	r27,r1
00001bec 233e0400       7532 	movea	4,sp,r7
00001bf0 2e0640420f00   7533 	mov	1000000,r14

                                                                      Page 129
                                                              C:\Users\YINGAO~1\AppData\Local\Temp\gh_00007041.si
00001bf6 ee0ffe02       7534 	divqu	r14,r1,zero
00001bfa 23460000       7535 	movea	0,sp,r8
00001bfe 0130           7536 	mov	r1,r6
                        7537 	jarl	_loc_CalcFreqPll2,lp
                        7537 <EXPANSION BEGIN>
                        7537 jarl22 _loc_CalcFreqPll2 , lp 
00001c00 bffff6eb*      7537 <EXPANSION END>
00001c04 0ae8           7538 	mov	r10,r29
                        7539 --2426:         pllcfg_reg.FVV       = 0; /* Init value */
                        7540 --line2426
                        7541 ..lin.D.3A.5CRenesas_Electronics.5CD1x_RGL.5Crgl_ghs_D1Lx_obj_V1.2E2.2E0.5Cvlib.5Capp.5Cgfx_apps.5Csimple_draw_d1l2.5Ctarget.5Cd1lx_mango_ghs.5Cobj.5Cr_dev_clk.424::
                        7542 .LDWlin424:
00001c06 a30f0700       7543 	ld.bu	7[sp],r1
00001c0a c10ee300       7544 	andi	227,r1,r1
00001c0e 430f0700       7545 	st.b	r1,7[sp]
                        7546 --2427:         pllcfg_reg.NF        = 1;
00001c12 230f0500       7547 	ld.w	4[sp],r1
00001c16 2e06ff3ffcff   7548 	mov	-245761,r14
00001c1c 4e09           7549 	and	r14,r1
00001c1e 810e0040       7550 	ori	16384,r1,r1
00001c22 630f0500       7551 	st.w	r1,4[sp]
00001c26 b505*          7552 	br	.L6054
                        7553 .L6062:
                        7554 --2428:         break;
                        7555 --2429:     default:
                        7556 --2430:         ret_val = R_PARAMETER_RANGE;
                        7557 --line2430
                        7558 ..lin.D.3A.5CRenesas_Electronics.5CD1x_RGL.5Crgl_ghs_D1Lx_obj_V1.2E2.2E0.5Cvlib.5Capp.5Cgfx_apps.5Csimple_draw_d1l2.5Ctarget.5Cd1lx_mango_ghs.5Cobj.5Cr_dev_clk.425::
                        7559 .LDWlin425:
00001c28 03ea           7560 	mov	3,r29
00001c2a 0000           7561 	nop
                        7562 .L6054:
                        7563 --2431:         break;
                        7564 --2432:     }
                        7565 --2433:     /* If everything went smooth, store the values */
                        7566 --2434:     if (R_ERR_OK == ret_val)
00001c2c e0e9           7567 	cmp	zero,r29
00001c2e ea0d*          7568 	bne	.L6063
                        7569 --2435:     {
                        7570 --2436:         /* Do NOT Store the config here, use the store function instead */
                        7571 --2437:         /* .bss area is not working */
                        7572 --2439:         /* Make sure that PLL is stopped */
                        7573 --2440:         if (0 != R_DEV_ClkGenActive(Pll))
                        7574 --line2440
                        7575 ..lin.D.3A.5CRenesas_Electronics.5CD1x_RGL.5Crgl_ghs_D1Lx_obj_V1.2E2.2E0.5Cvlib.5Capp.5Cgfx_apps.5Csimple_draw_d1l2.5Ctarget.5Cd1lx_mango_ghs.5Cobj.5Cr_dev_clk.426::
                        7576 .LDWlin426:
00001c30 1c30           7577 	mov	r28,r6
                        7578 	jarl	_R_DEV_ClkGenActive,lp
                        7578 <EXPANSION BEGIN>
                        7578 jarl22 _R_DEV_ClkGenActive , lp 
00001c32 bfff0cf0*      7578 <EXPANSION END>
00001c36 e051           7579 	cmp	zero,r10
00001c38 c205*          7580 	be	.L6065
                        7581 --2441:         {
                        7582 --2442:             R_DEV_ClkGenStop(Pll);
                        7583 --line2442
                        7584 ..lin.D.3A.5CRenesas_Electronics.5CD1x_RGL.5Crgl_ghs_D1Lx_obj_V1.2E2.2E0.5Cvlib.5Capp.5Cgfx_apps.5Csimple_draw_d1l2.5Ctarget.5Cd1lx_mango_ghs.5Cobj.5Cr_dev_clk.427::
                        7585 .LDWlin427:
00001c3a 1c30           7586 	mov	r28,r6
                        7587 	jarl	_R_DEV_ClkGenStop,lp
                        7587 <EXPANSION BEGIN>

                                                                      Page 130
                                                              C:\Users\YINGAO~1\AppData\Local\Temp\gh_00007041.si
                        7587 jarl22 _R_DEV_ClkGenStop , lp 
00001c3c bfff94fb*      7587 <EXPANSION END>
                        7588 .L6065:
                        7589 --2443:         }
                        7590 --2445:         loc_WritePllCfg(Pll, &pllcfg_reg);
                        7591 --line2445
                        7592 ..lin.D.3A.5CRenesas_Electronics.5CD1x_RGL.5Crgl_ghs_D1Lx_obj_V1.2E2.2E0.5Cvlib.5Capp.5Cgfx_apps.5Csimple_draw_d1l2.5Ctarget.5Cd1lx_mango_ghs.5Cobj.5Cr_dev_clk.428::
                        7593 .LDWlin428:
00001c40 1c30           7594 	mov	r28,r6
00001c42 233e0400       7595 	movea	4,sp,r7
                        7596 	jarl	_loc_WritePllCfg,lp
                        7596 <EXPANSION BEGIN>
                        7596 jarl22 _loc_WritePllCfg , lp 
00001c46 bfff7ee5*      7596 <EXPANSION END>
                        7597 .L6063:
                        7598 --2446:     }
                        7599 --2447:     return ret_val;
                        7600 --line2447
                        7601 ..lin.D.3A.5CRenesas_Electronics.5CD1x_RGL.5Crgl_ghs_D1Lx_obj_V1.2E2.2E0.5Cvlib.5Capp.5Cgfx_apps.5Csimple_draw_d1l2.5Ctarget.5Cd1lx_mango_ghs.5Cobj.5Cr_dev_clk.429::
                        7602 .LDWlin429:
00001c4a 1d50           7603 	mov	r29,r10
                        7604 --	    .ef
                        7605 .LDW401:
00001c4c 4406ff70       7606 	dispose	2,{r25,r26,r27,r28,r29,r31},[lp]
                        7607 	.type	_R_DEV_PllCfg,@function
                        7608 	.size	_R_DEV_PllCfg,.-_R_DEV_PllCfg
                        7609 	.align	2
                        7610 .LDW501:
                        7611 --_freq_out	0[sp]	local
                        7612 --_ret_val	r29	local
                        7613 --_regval	r27	local
                        7614 --_pllcfg_reg	4[sp]	local
                        7615 
                        7616 --_FrqIn	r26	param
                        7617 --_Pll	r28	param
                        7618 --_PllCfg	r25	param
                        7619 
                        7620 	.section ".bss","awb"
                        7621 .L6148:
                        7622 	.type	.L6148,@object
                        7623 	.size	.L6148,0
                        7624 	.data
                        7625 	.text
                        7626 
                        7627 --2448: }
                        7628 
                        7629 --2450: /*******************************************************************************
                        7630 --2451:   Function: R_DEV_ClkPrepare
                        7631 --2453:     se: <r_dev_api.h> for details
                        7632 --2454: */
                        7633 --2455: void R_DEV_ClkPrepare(void)
                        7634 	.align	2
                        7635 	.align	2
                        7636 	.global	_R_DEV_ClkPrepare
                        7637 _R_DEV_ClkPrepare:
00001c50 210600000000*  7638 	mov	_loc_ClkGenCfg,r1
00001c56 0168           7639 	mov	r1,r13
00001c58 2e06000e2707   7640 	mov	120000000,r14
                        7641 --	    .bf
                        7642 .LDW601:
                        7643 --2456: {

                                                                      Page 131
                                                              C:\Users\YINGAO~1\AppData\Local\Temp\gh_00007041.si
                        7644 --2458:         /* Init Device Clocks  */
                        7645 --2459:     loc_ClkGenCfg.MainOsc.FrequencyHz          = 8000000;
00001c5e 2c0600127a00   7646 	mov	8000000,r12
00001c64 61670100       7647 	st.w	r12,0[r1]
                        7648 --2460:     loc_ClkGenCfg.MainOsc.StabiTimeNs          = 4000000;
00001c68 2c0600093d00   7649 	mov	4000000,r12
00001c6e 61670500       7650 	st.w	r12,4[r1]
                        7651 --2461:     loc_ClkGenCfg.MainOsc.Gain                 = 3;
00001c72 0362           7652 	mov	3,r12
00001c74 41670800       7653 	st.b	r12,8[r1]
                        7654 --2462:     loc_ClkGenCfg.MainOsc.Running              = 0;
00001c78 41070900       7655 	st.b	zero,9[r1]
                        7656 --2463:     loc_ClkGenCfg.MainOsc.StpReqMsk            = 1;
00001c7c 0162           7657 	mov	1,r12
00001c7e 41670a00       7658 	st.b	r12,10[r1]
                        7659 --2464:                                                  ;
                        7660 --2465:     loc_ClkGenCfg.SubOsc.FrequencyHz           = 32768;
00001c82 80660080       7661 	ori	32768,zero,r12
00001c86 61670d00       7662 	st.w	r12,12[r1]
                        7663 --2466:     loc_ClkGenCfg.SubOsc.Running               = 0;
00001c8a 41071000       7664 	st.b	zero,16[r1]
                        7665 --2468:     loc_ClkGenCfg.RoscStpReqMsk                = 0;
00001c8e 41076800       7666 	st.b	zero,104[r1]
                        7667 --2470:     loc_ClkGenCfg.Pll[0].Mode                  = R_DEV_PLL_OFF;
00001c92 61071500       7668 	st.w	zero,20[r1]
                        7669 --2471:     loc_ClkGenCfg.Pll[0].DithMode              = R_DEV_PLL_DITH_CENTER;
00001c96 0462           7670 	mov	4,r12
00001c98 61671900       7671 	st.w	r12,24[r1]
                        7672 --2472:     loc_ClkGenCfg.Pll[0].DithRange             = 3;
00001c9c 0362           7673 	mov	3,r12
00001c9e 41671c00       7674 	st.b	r12,28[r1]
                        7675 --2473:     loc_ClkGenCfg.Pll[0].ModFreq               = 50;
00001ca2 20663200       7676 	movea	50,zero,r12
00001ca6 61672100       7677 	st.w	r12,32[r1]
                        7678 --2474:     loc_ClkGenCfg.Pll[0].FrequencyHz           = 120000000;
00001caa 61772500       7679 	st.w	r14,36[r1]
                        7680 --2475:     loc_ClkGenCfg.Pll[0].StabiTimeNs           = 4000000;
00001cae 2c0600093d00   7681 	mov	4000000,r12
00001cb4 61672900       7682 	st.w	r12,40[r1]
                        7683 --2476:     loc_ClkGenCfg.Pll[0].StpReqMsk              =0;
00001cb8 41072c00       7684 	st.b	zero,44[r1]
                        7685 --2478:     loc_ClkGenCfg.Pll[1].Mode                  = R_DEV_PLL_OFF;
00001cbc 61073100       7686 	st.w	zero,48[r1]
                        7687 --2479:     loc_ClkGenCfg.Pll[1].DithMode              = R_DEV_PLL_DITH_FIXED;
00001cc0 61073500       7688 	st.w	zero,52[r1]
                        7689 --2480:     loc_ClkGenCfg.Pll[1].DithRange             = 0;
00001cc4 41073800       7690 	st.b	zero,56[r1]
                        7691 --2481:     loc_ClkGenCfg.Pll[1].ModFreq               = 0;
00001cc8 61073d00       7692 	st.w	zero,60[r1]
                        7693 --2482:     loc_ClkGenCfg.Pll[1].FrequencyHz           = 120000000;
00001ccc 61774100       7694 	st.w	r14,64[r1]
                        7695 --2483:     loc_ClkGenCfg.Pll[1].StabiTimeNs           = 1000000;
00001cd0 2c0640420f00   7696 	mov	1000000,r12
00001cd6 61674500       7697 	st.w	r12,68[r1]
                        7698 --2484:     loc_ClkGenCfg.Pll[1].StpReqMsk             = 0;
00001cda 41074800       7699 	st.b	zero,72[r1]
                        7700 --2486:     loc_ClkGenCfg.Pll[2].Mode                  = R_DEV_PLL_OFF;
00001cde 61074d00       7701 	st.w	zero,76[r1]
                        7702 --2487:     loc_ClkGenCfg.Pll[2].DithMode              = R_DEV_PLL_DITH_FIXED;
00001ce2 61075100       7703 	st.w	zero,80[r1]
                        7704 --2488:     loc_ClkGenCfg.Pll[2].DithRange             = 0;

                                                                      Page 132
                                                              C:\Users\YINGAO~1\AppData\Local\Temp\gh_00007041.si
00001ce6 41075400       7705 	st.b	zero,84[r1]
                        7706 --2489:     loc_ClkGenCfg.Pll[2].ModFreq               = 00;
00001cea 61075900       7707 	st.w	zero,88[r1]
                        7708 --2490:     loc_ClkGenCfg.Pll[2].FrequencyHz           = 120000000;
00001cee 61775d00       7709 	st.w	r14,92[r1]
                        7710 --2491:     loc_ClkGenCfg.Pll[2].StabiTimeNs           = 1000000;
00001cf2 2c0640420f00   7711 	mov	1000000,r12
00001cf8 61676100       7712 	st.w	r12,96[r1]
                        7713 --2492:     loc_ClkGenCfg.Pll[2].StpReqMsk             = 0;
00001cfc 41076400       7714 	st.b	zero,100[r1]
                        7715 --2494:     loc_ClkGenCfg.BusEnable[R_DEV_CLK_XCC]     = 0;
00001d00 41077100       7716 	st.b	zero,113[r1]
                        7717 --2495:     loc_ClkGenCfg.BusEnable[R_DEV_CLK_PLL0]    = 0;
00001d04 41076900       7718 	st.b	zero,105[r1]
                        7719 --2496:     loc_ClkGenCfg.BusEnable[R_DEV_CLK_PLL1]    = 0;
00001d08 41076a00       7720 	st.b	zero,106[r1]
                        7721 --2497:     loc_ClkGenCfg.BusEnable[R_DEV_CLK_PLL2]    = 0;
00001d0c 41076b00       7722 	st.b	zero,107[r1]
                        7723 --2498:     loc_ClkGenCfg.BusEnable[R_DEV_CLK_PLL0PIX] = 0;
00001d10 41076c00       7724 	st.b	zero,108[r1]
                        7725 --2499:     loc_ClkGenCfg.BusEnable[R_DEV_CLK_SDRB]    = 0;
00001d14 41076d00       7726 	st.b	zero,109[r1]
                        7727 --2500:     loc_ClkGenCfg.BusEnable[R_DEV_CLK_ETNBP]   = 0;
00001d18 41076e00       7728 	st.b	zero,110[r1]
                        7729 --2501:     loc_ClkGenCfg.BusEnable[R_DEV_CLK_ETNBXCC] = 0;
00001d1c 41077200       7730 	st.b	zero,114[r1]
                        7731 --2502:     loc_ClkGenCfg.BusEnable[R_DEV_CLK_MLBP]    = 0;
00001d20 41076f00       7732 	st.b	zero,111[r1]
                        7733 --2503:     loc_ClkGenCfg.BusEnable[R_DEV_CLK_MLBXCC]  = 0;
00001d24 41077300       7734 	st.b	zero,115[r1]
                        7735 --2504:     loc_ClkGenCfg.BusEnable[R_DEV_CLK_RSCANP]  = 0;
00001d28 41077000       7736 	st.b	zero,112[r1]
                        7737 --2506: }
00001d2c 0000           7738 	nop
                        7739 --	    .ef
                        7740 .LDW701:
00001d2e 7f00           7741 	jmp	[lp]
                        7742 	.type	_R_DEV_ClkPrepare,@function
                        7743 	.size	_R_DEV_ClkPrepare,.-_R_DEV_ClkPrepare
                        7744 	.align	2
                        7745 .LDW801:
                        7746 
                        7747 	.data
                        7748 	.text
                        7749 
                        7750 
                        7751 --2508: //extern void COM_Disable_PLL1(void);
                        7752 --2509: /*******************************************************************************
                        7753 --2510:   Function: R_DEV_ClkGenInit
                        7754 --2512:     se: <r_dev_api.h> for details
                        7755 --2513: */
                        7756 --2514: void R_DEV_ClkGenInit(r_dev_ClkGenConfig_t * ClkGenCfg, const r_dev_ClkSelConfig_t * ClkSelCfg)
                        7757 	.align	2
                        7758 	.align	2
                        7759 	.global	_R_DEV_ClkGenInit
                        7760 _R_DEV_ClkGenInit:
00001d30 8407e170       7761 	prepare	{r25,r26,r27,r28,r29,r31},2
00001d34 633f0500       7762 	st.w	r7,4[sp]
00001d38 06e0           7763 	mov	r6,r28
                        7764 --	    .bf
                        7765 .LDW901:

                                                                      Page 133
                                                              C:\Users\YINGAO~1\AppData\Local\Temp\gh_00007041.si
                        7766 --2515: {
                        7767 --2516:     r_dev_ClkGen_t  i;
                        7768 --2517:     r_dev_Bus_t     bus;
                        7769 --2518:     uint32_t        j = 0;
00001d3a 00d2           7770 	mov	0,r26
                        7771 --2520:     uint32_t  addr    = 0 ;
00001d3c 00ca           7772 	mov	0,r25
                        7773 --2521:     uint32_t  reg_val = 0 ;
00001d3e 63070100       7774 	st.w	zero,0[sp]
00001d42 005a           7775 	mov	0,r11
                        7776 --2523: #if (GRAPE_FBL_ENABLE)
                        7777 --2524:     addr    = loc_Base[R_DEV_MOSC] + LOC_GEN_STPMSK;
00001d44 390600000000*  7778 	mov	_loc_Base+16,r25
00001d4a 39cf0100       7779 	ld.w	0[r25],r25
00001d4e 19ce1800       7780 	addi	24,r25,r25
                        7781 --2525:     reg_val =R_DEV_READ_REG(32, addr);
00001d52 395f0100       7782 	ld.w	0[r25],r11
00001d56 635f0100       7783 	st.w	r11,0[sp]
                        7784 --2526: #else	
                        7785 --2527:     R_DEV_MoscCfg(&(ClkGenCfg->MainOsc));
                        7786 --2528:     R_DEV_SubOscCfg(&(ClkGenCfg->SubOsc));
                        7787 --2529: #endif
                        7788 --2532:     /* Config and start PLL (but not yet PLL2) */
                        7789 --2533: #if (GRAPE_FBL_ENABLE)
                        7790 --2534:   //  COM_Disable_PLL1();//@liuyingying 20170923 modify lin
                        7791 --2535:     for (i = R_DEV_PLL0; i < R_DEV_PLL1; i++)//ARMIN DISABLE 20170721   
00001d5a 00da           7792 	mov	0,r27
00001d5c 0000           7793 	nop
                        7794 .L6495:
                        7795 --2536: #else
                        7796 --2537:     for (i = R_DEV_PLL0; i < R_DEV_PLL2; i++)
                        7797 --2538: #endif
                        7798 --2539:     {
                        7799 --2540:         R_DEV_PllCfg(ClkGenCfg->MainOsc.FrequencyHz, i, &(ClkGenCfg->Pll[i]));
00001d5e 3c370100       7800 	ld.w	0[r28],r6
00001d62 1b08           7801 	mov	r27,r1
00001d64 fc0f4002       7802 	mul	28,r1,zero
00001d68 1c761400       7803 	addi	20,r28,r14
00001d6c 1b38           7804 	mov	r27,r7
00001d6e ce09           7805 	add	r14,r1
00001d70 0140           7806 	mov	r1,r8
                        7807 	jarl	_R_DEV_PllCfg,lp
                        7807 <EXPANSION BEGIN>
                        7807 jarl22 _R_DEV_PllCfg , lp 
00001d72 bfff86fd*      7807 <EXPANSION END>
                        7808 --2541:         if (R_DEV_PLL_OFF != ClkGenCfg->Pll[i].Mode)
                        7809 --line2541
                        7810 ..lin.D.3A.5CRenesas_Electronics.5CD1x_RGL.5Crgl_ghs_D1Lx_obj_V1.2E2.2E0.5Cvlib.5Capp.5Cgfx_apps.5Csimple_draw_d1l2.5Ctarget.5Cd1lx_mango_ghs.5Cobj.5Cr_dev_clk.430::
                        7811 .LDWlin430:
00001d76 1bf0           7812 	mov	r27,ep
00001d78 1c761400       7813 	addi	20,r28,r14
00001d7c fcf74002       7814 	mul	28,ep,zero
00001d80 cef1           7815 	add	r14,ep
00001d82 000d           7816 	sld.w	0[ep],r1
00001d84 e009           7817 	cmp	zero,r1
00001d86 c205*          7818 	be	.L6496
                        7819 --2542:         {
                        7820 --2543:             R_DEV_ClkGenStart(i);
                        7821 --line2543
                        7822 ..lin.D.3A.5CRenesas_Electronics.5CD1x_RGL.5Crgl_ghs_D1Lx_obj_V1.2E2.2E0.5Cvlib.5Capp.5Cgfx_apps.5Csimple_draw_d1l2.5Ctarget.5Cd1lx_mango_ghs.5Cobj.5Cr_dev_clk.431::
                        7823 .LDWlin431:

                                                                      Page 134
                                                              C:\Users\YINGAO~1\AppData\Local\Temp\gh_00007041.si
00001d88 1b30           7824 	mov	r27,r6
                        7825 	jarl	_R_DEV_ClkGenStart,lp
                        7825 <EXPANSION BEGIN>
                        7825 jarl22 _R_DEV_ClkGenStart , lp 
00001d8a bfffe2fa*      7825 <EXPANSION END>
                        7826 .L6496:
                        7827 --line2535
                        7828 ..lin.D.3A.5CRenesas_Electronics.5CD1x_RGL.5Crgl_ghs_D1Lx_obj_V1.2E2.2E0.5Cvlib.5Capp.5Cgfx_apps.5Csimple_draw_d1l2.5Ctarget.5Cd1lx_mango_ghs.5Cobj.5Cr_dev_clk.432::
                        7829 .LDWlin432:
00001d8e 41da           7830 	add	1,r27
00001d90 61da           7831 	cmp	1,r27
00001d92 e6e5*          7832 	blt	.L6495
                        7833 --2545:         }
                        7834 --2546:     }
                        7835 --2547:         /* Switch PLL buses (but not yet PLL2) */
                        7836 --2548: #if (GRAPE_FBL_ENABLE)
                        7837 --2549:     for (bus = R_DEV_CLK_PLL0; bus < R_DEV_CLK_PLL1; bus++)//ARMIN DISABLE 20170721
                        7838 --line2549
                        7839 ..lin.D.3A.5CRenesas_Electronics.5CD1x_RGL.5Crgl_ghs_D1Lx_obj_V1.2E2.2E0.5Cvlib.5Capp.5Cgfx_apps.5Csimple_draw_d1l2.5Ctarget.5Cd1lx_mango_ghs.5Cobj.5Cr_dev_clk.433::
                        7840 .LDWlin433:
00001d94 00ea           7841 	mov	0,r29
00001d96 0000           7842 	nop
                        7843 .L6500:
                        7844 --2550: #else
                        7845 --2551:     for (bus = R_DEV_CLK_PLL0; bus < R_DEV_CLK_PLL2; bus++)
                        7846 --2552: #endif
                        7847 --2553:     {
                        7848 --2554:         R_DEV_BusEnable(bus, ClkGenCfg->BusEnable[bus]);
00001d98 1cf66900       7849 	addi	105,r28,ep
00001d9c 1d30           7850 	mov	r29,r6
00001d9e ddf1           7851 	add	r29,ep
00001da0 6038           7852 	sld.bu	0[ep],r7
                        7853 	jarl	_R_DEV_BusEnable,lp
                        7853 <EXPANSION BEGIN>
                        7853 jarl22 _R_DEV_BusEnable , lp 
00001da2 bfff64f9*      7853 <EXPANSION END>
                        7854 --line2549
                        7855 ..lin.D.3A.5CRenesas_Electronics.5CD1x_RGL.5Crgl_ghs_D1Lx_obj_V1.2E2.2E0.5Cvlib.5Capp.5Cgfx_apps.5Csimple_draw_d1l2.5Ctarget.5Cd1lx_mango_ghs.5Cobj.5Cr_dev_clk.434::
                        7856 .LDWlin434:
00001da6 41ea           7857 	add	1,r29
00001da8 61ea           7858 	cmp	1,r29
00001daa f6f5*          7859 	blt	.L6500
                        7860 --2555:     }
                        7861 --2557:     /*
                        7862 --2558:     First we need to configure the input selector for PLL2 */
                        7863 --2559:     j = 0;
                        7864 --line2559
                        7865 ..lin.D.3A.5CRenesas_Electronics.5CD1x_RGL.5Crgl_ghs_D1Lx_obj_V1.2E2.2E0.5Cvlib.5Capp.5Cgfx_apps.5Csimple_draw_d1l2.5Ctarget.5Cd1lx_mango_ghs.5Cobj.5Cr_dev_clk.435::
                        7866 .LDWlin435:
00001dac 00d2           7867 	mov	0,r26
                        7868 --2560:     while (R_DEV_CKS_LAST != ClkSelCfg[j].Cks)
00001dae e515*          7869 	br	.L6501
                        7870 .L6503:
                        7871 --2561:     {
                        7872 --2562:          if (R_DEV_CKS_PLL2IN == ClkSelCfg[j].Cks)
                        7873 --line2562
                        7874 ..lin.D.3A.5CRenesas_Electronics.5CD1x_RGL.5Crgl_ghs_D1Lx_obj_V1.2E2.2E0.5Cvlib.5Capp.5Cgfx_apps.5Csimple_draw_d1l2.5Ctarget.5Cd1lx_mango_ghs.5Cobj.5Cr_dev_clk.436::
                        7875 .LDWlin436:
00001db0 235f0500       7876 	ld.w	4[sp],r11
00001db4 1af0           7877 	mov	r26,ep
00001db6 ecf74202       7878 	mulu	12,ep,zero

                                                                      Page 135
                                                              C:\Users\YINGAO~1\AppData\Local\Temp\gh_00007041.si
00001dba cbf1           7879 	add	r11,ep
00001dbc 000d           7880 	sld.w	0[ep],r1
00001dbe 0106ebff       7881 	addi	-21,r1,zero
00001dc2 ba0d*          7882 	bne	.L6504
                        7883 --2563:          {
                        7884 --2564:             R_DEV_ClkIdSet(&(ClkSelCfg[j]));
                        7885 --line2564
                        7886 ..lin.D.3A.5CRenesas_Electronics.5CD1x_RGL.5Crgl_ghs_D1Lx_obj_V1.2E2.2E0.5Cvlib.5Capp.5Cgfx_apps.5Csimple_draw_d1l2.5Ctarget.5Cd1lx_mango_ghs.5Cobj.5Cr_dev_clk.437::
                        7887 .LDWlin437:
00001dc4 235f0500       7888 	ld.w	4[sp],r11
00001dc8 1a08           7889 	mov	r26,r1
00001dca ec0f4202       7890 	mulu	12,r1,zero
00001dce cb09           7891 	add	r11,r1
00001dd0 0130           7892 	mov	r1,r6
                        7893 	jarl	_R_DEV_ClkIdSet,lp
                        7893 <EXPANSION BEGIN>
                        7893 jarl22 _R_DEV_ClkIdSet , lp 
00001dd2 bfffa4ee*      7893 <EXPANSION END>
                        7894 --2565:             break;
                        7895 --line2565
                        7896 ..lin.D.3A.5CRenesas_Electronics.5CD1x_RGL.5Crgl_ghs_D1Lx_obj_V1.2E2.2E0.5Cvlib.5Capp.5Cgfx_apps.5Csimple_draw_d1l2.5Ctarget.5Cd1lx_mango_ghs.5Cobj.5Cr_dev_clk.438::
                        7897 .LDWlin438:
00001dd6 c50d*          7898 	br	.L6506
                        7899 .L6504:
                        7900 --2566:          }
                        7901 --2567:          j++;
                        7902 --line2567
                        7903 ..lin.D.3A.5CRenesas_Electronics.5CD1x_RGL.5Crgl_ghs_D1Lx_obj_V1.2E2.2E0.5Cvlib.5Capp.5Cgfx_apps.5Csimple_draw_d1l2.5Ctarget.5Cd1lx_mango_ghs.5Cobj.5Cr_dev_clk.439::
                        7904 .LDWlin439:
00001dd8 41d2           7905 	add	1,r26
                        7906 .L6501:
00001dda 235f0500       7907 	ld.w	4[sp],r11
00001dde 1af0           7908 	mov	r26,ep
00001de0 ecf74202       7909 	mulu	12,ep,zero
00001de4 cbf1           7910 	add	r11,ep
00001de6 000d           7911 	sld.w	0[ep],r1
00001de8 0106e2ff       7912 	addi	-30,r1,zero
00001dec aae5*          7913 	bne	.L6503
                        7914 .L6506:
                        7915 --2568:     }
                        7916 --2570:     /* Now the PLL2 */
                        7917 --2571:     R_DEV_PllCfg(ClkGenCfg->MainOsc.FrequencyHz, R_DEV_PLL2, &(ClkGenCfg->Pll[R_DEV_PLL2]));
                        7918 --line2571
                        7919 ..lin.D.3A.5CRenesas_Electronics.5CD1x_RGL.5Crgl_ghs_D1Lx_obj_V1.2E2.2E0.5Cvlib.5Capp.5Cgfx_apps.5Csimple_draw_d1l2.5Ctarget.5Cd1lx_mango_ghs.5Cobj.5Cr_dev_clk.440::
                        7920 .LDWlin440:
00001dee 3c370100       7921 	ld.w	0[r28],r6
00001df2 1c464c00       7922 	addi	76,r28,r8
00001df6 023a           7923 	mov	2,r7
                        7924 	jarl	_R_DEV_PllCfg,lp
                        7924 <EXPANSION BEGIN>
                        7924 jarl22 _R_DEV_PllCfg , lp 
00001df8 bfff00fd*      7924 <EXPANSION END>
                        7925 --2572:     if (R_DEV_PLL_OFF != ClkGenCfg->Pll[R_DEV_PLL2].Mode)
                        7926 --line2572
                        7927 ..lin.D.3A.5CRenesas_Electronics.5CD1x_RGL.5Crgl_ghs_D1Lx_obj_V1.2E2.2E0.5Cvlib.5Capp.5Cgfx_apps.5Csimple_draw_d1l2.5Ctarget.5Cd1lx_mango_ghs.5Cobj.5Cr_dev_clk.441::
                        7928 .LDWlin441:
00001dfc 3c0f4d00       7929 	ld.w	76[r28],r1
00001e00 e009           7930 	cmp	zero,r1
00001e02 c205*          7931 	be	.L6508
                        7932 --2573:     {
                        7933 --2574:         R_DEV_ClkGenStart(R_DEV_PLL2);

                                                                      Page 136
                                                              C:\Users\YINGAO~1\AppData\Local\Temp\gh_00007041.si
                        7934 --line2574
                        7935 ..lin.D.3A.5CRenesas_Electronics.5CD1x_RGL.5Crgl_ghs_D1Lx_obj_V1.2E2.2E0.5Cvlib.5Capp.5Cgfx_apps.5Csimple_draw_d1l2.5Ctarget.5Cd1lx_mango_ghs.5Cobj.5Cr_dev_clk.442::
                        7936 .LDWlin442:
00001e04 0232           7937 	mov	2,r6
                        7938 	jarl	_R_DEV_ClkGenStart,lp
                        7938 <EXPANSION BEGIN>
                        7938 jarl22 _R_DEV_ClkGenStart , lp 
00001e06 bfff66fa*      7938 <EXPANSION END>
                        7939 .L6508:
                        7940 --2575:     }
                        7941 --2577:     /* And finally its bus */
                        7942 --2578:     R_DEV_BusEnable(R_DEV_CLK_PLL2, ClkGenCfg->BusEnable[R_DEV_CLK_PLL2]);
                        7943 --line2578
                        7944 ..lin.D.3A.5CRenesas_Electronics.5CD1x_RGL.5Crgl_ghs_D1Lx_obj_V1.2E2.2E0.5Cvlib.5Capp.5Cgfx_apps.5Csimple_draw_d1l2.5Ctarget.5Cd1lx_mango_ghs.5Cobj.5Cr_dev_clk.443::
                        7945 .LDWlin443:
00001e0a bc3f6b00       7946 	ld.bu	107[r28],r7
00001e0e 0232           7947 	mov	2,r6
                        7948 	jarl	_R_DEV_BusEnable,lp
                        7948 <EXPANSION BEGIN>
                        7948 jarl22 _R_DEV_BusEnable , lp 
00001e10 bffff6f8*      7948 <EXPANSION END>
                        7949 --2580:     /* Last but not least, config all clock domians */
                        7950 --2581:     R_DEV_ClkSelection(ClkSelCfg);
                        7951 --line2581
                        7952 ..lin.D.3A.5CRenesas_Electronics.5CD1x_RGL.5Crgl_ghs_D1Lx_obj_V1.2E2.2E0.5Cvlib.5Capp.5Cgfx_apps.5Csimple_draw_d1l2.5Ctarget.5Cd1lx_mango_ghs.5Cobj.5Cr_dev_clk.444::
                        7953 .LDWlin444:
00001e14 23370500       7954 	ld.w	4[sp],r6
                        7955 	jarl	_R_DEV_ClkSelection,lp
                        7955 <EXPANSION BEGIN>
                        7955 jarl22 _R_DEV_ClkSelection , lp 
00001e18 80fffe00*      7955 <EXPANSION END>
                        7956 --2583:     /* ... and switch remaining buses */
                        7957 --2584:     for (bus = R_DEV_CLK_PLL0PIX; bus < R_DEV_CLK_BUS_LAST; bus++)
                        7958 --line2584
                        7959 ..lin.D.3A.5CRenesas_Electronics.5CD1x_RGL.5Crgl_ghs_D1Lx_obj_V1.2E2.2E0.5Cvlib.5Capp.5Cgfx_apps.5Csimple_draw_d1l2.5Ctarget.5Cd1lx_mango_ghs.5Cobj.5Cr_dev_clk.445::
                        7960 .LDWlin445:
00001e1c 03ea           7961 	mov	3,r29
00001e1e 0000           7962 	nop
                        7963 .L6512:
                        7964 --2585:     {
                        7965 --2586:         R_DEV_BusEnable(bus, ClkGenCfg->BusEnable[bus]);
00001e20 1cf66900       7966 	addi	105,r28,ep
00001e24 1d30           7967 	mov	r29,r6
00001e26 ddf1           7968 	add	r29,ep
00001e28 6038           7969 	sld.bu	0[ep],r7
                        7970 	jarl	_R_DEV_BusEnable,lp
                        7970 <EXPANSION BEGIN>
                        7970 jarl22 _R_DEV_BusEnable , lp 
00001e2a bfffdcf8*      7970 <EXPANSION END>
                        7971 --line2584
                        7972 ..lin.D.3A.5CRenesas_Electronics.5CD1x_RGL.5Crgl_ghs_D1Lx_obj_V1.2E2.2E0.5Cvlib.5Capp.5Cgfx_apps.5Csimple_draw_d1l2.5Ctarget.5Cd1lx_mango_ghs.5Cobj.5Cr_dev_clk.446::
                        7973 .LDWlin446:
00001e2e 41ea           7974 	add	1,r29
00001e30 6bea           7975 	cmp	11,r29
00001e32 f6f5*          7976 	blt	.L6512
                        7977 --2587:     }
                        7978 --2589: }
                        7979 --line2589
                        7980 ..lin.D.3A.5CRenesas_Electronics.5CD1x_RGL.5Crgl_ghs_D1Lx_obj_V1.2E2.2E0.5Cvlib.5Capp.5Cgfx_apps.5Csimple_draw_d1l2.5Ctarget.5Cd1lx_mango_ghs.5Cobj.5Cr_dev_clk.447::
                        7981 .LDWlin447:
00001e34 0000           7982 	nop

                                                                      Page 137
                                                              C:\Users\YINGAO~1\AppData\Local\Temp\gh_00007041.si
                        7983 --	    .ef
                        7984 .LDW011:
00001e36 4406ff70       7985 	dispose	2,{r25,r26,r27,r28,r29,r31},[lp]
                        7986 	.type	_R_DEV_ClkGenInit,@function
                        7987 	.size	_R_DEV_ClkGenInit,.-_R_DEV_ClkGenInit
                        7988 	.align	2
                        7989 .LDW111:
                        7990 --_i	r27	local
                        7991 --_bus	r29	local
                        7992 --_j	r26	local
                        7993 --_addr	r25	local
                        7994 --_reg_val	0[sp]	local
                        7995 
                        7996 --_ClkGenCfg	r28	param
                        7997 --_ClkSelCfg	4[sp]	param
                        7998 
                        7999 	.section ".bss","awb"
                        8000 .L6590:
                        8001 	.type	.L6590,@object
                        8002 	.size	.L6590,0
                        8003 	.data
                        8004 	.text
                        8005 
                        8006 
                        8007 --2591: /*******************************************************************************
                        8008 --2592:   Function: R_DEV_ClkGenInitStore
                        8009 --2594:     se: <r_dev_api.h> for details
                        8010 --2595: */
                        8011 --2596: void R_DEV_ClkGenInitStore(r_dev_ClkGenConfig_t * ClkGenCfg)
                        8012 	.align	2
                        8013 	.align	2
                        8014 	.global	_R_DEV_ClkGenInitStore
                        8015 _R_DEV_ClkGenInitStore:
00001e3a 8007e130       8016 	prepare	{r26,r27,r28,r29,r31},0
00001e3e 3d0600000000*  8017 	mov	_loc_ClkGenCfg,r29
00001e44 06e0           8018 	mov	r6,r28
00001e46 1dd0           8019 	mov	r29,r26
                        8020 --	    .bf
                        8021 .LDW211:
                        8022 --2597: {
                        8023 --2598:     r_dev_ClkGen_t  i;
                        8024 --2600:     /* Just to be clean */
                        8025 --2601:     R_DEV_ClkPrepare();
                        8026 	jarl	_R_DEV_ClkPrepare,lp
                        8026 <EXPANSION BEGIN>
                        8026 jarl22 _R_DEV_ClkPrepare , lp 
00001e48 bfff08fe*      8026 <EXPANSION END>
                        8027 --2602:     loc_ClkGenCfg.MainOsc.FrequencyHz          = ClkGenCfg->MainOsc.FrequencyHz ;
                        8028 --line2602
                        8029 ..lin.D.3A.5CRenesas_Electronics.5CD1x_RGL.5Crgl_ghs_D1Lx_obj_V1.2E2.2E0.5Cvlib.5Capp.5Cgfx_apps.5Csimple_draw_d1l2.5Ctarget.5Cd1lx_mango_ghs.5Cobj.5Cr_dev_clk.448::
                        8030 .LDWlin448:
00001e4c 3c0f0100       8031 	ld.w	0[r28],r1
00001e50 7d0f0100       8032 	st.w	r1,0[r29]
                        8033 --2603:     loc_ClkGenCfg.MainOsc.StabiTimeNs          = ClkGenCfg->MainOsc.StabiTimeNs ;
00001e54 3c0f0500       8034 	ld.w	4[r28],r1
00001e58 7d0f0500       8035 	st.w	r1,4[r29]
                        8036 --2604:     loc_ClkGenCfg.MainOsc.Gain                 = ClkGenCfg->MainOsc.Gain        ;
00001e5c 9c0f0900       8037 	ld.bu	8[r28],r1
00001e60 5d0f0800       8038 	st.b	r1,8[r29]
                        8039 --2605:     loc_ClkGenCfg.MainOsc.Running              = ClkGenCfg->MainOsc.Running     ;
00001e64 bc0f0900       8040 	ld.bu	9[r28],r1

                                                                      Page 138
                                                              C:\Users\YINGAO~1\AppData\Local\Temp\gh_00007041.si
00001e68 5d0f0900       8041 	st.b	r1,9[r29]
                        8042 --2606:     loc_ClkGenCfg.MainOsc.StpReqMsk            = ClkGenCfg->MainOsc.StpReqMsk   ;
00001e6c 9c0f0b00       8043 	ld.bu	10[r28],r1
00001e70 5d0f0a00       8044 	st.b	r1,10[r29]
                        8045 --2608:     loc_ClkGenCfg.SubOsc.FrequencyHz           = ClkGenCfg->SubOsc.FrequencyHz  ;
00001e74 3c0f0d00       8046 	ld.w	12[r28],r1
00001e78 7d0f0d00       8047 	st.w	r1,12[r29]
                        8048 --2609:     loc_ClkGenCfg.SubOsc.Running               = ClkGenCfg->SubOsc.Running      ;
00001e7c 9c0f1100       8049 	ld.bu	16[r28],r1
00001e80 5d0f1000       8050 	st.b	r1,16[r29]
                        8051 --2610:     loc_ClkGenCfg.RoscStpReqMsk                = ClkGenCfg->RoscStpReqMsk;
00001e84 9c0f6900       8052 	ld.bu	104[r28],r1
00001e88 5d0f6800       8053 	st.b	r1,104[r29]
                        8054 --2612:     loc_ClkGenCfg.BusEnable[R_DEV_CLK_XCC]     = ClkGenCfg->BusEnable[R_DEV_CLK_XCC]     ;
00001e8c bc0f7100       8055 	ld.bu	113[r28],r1
00001e90 5d0f7100       8056 	st.b	r1,113[r29]
                        8057 --2613:     loc_ClkGenCfg.BusEnable[R_DEV_CLK_PLL0]    = ClkGenCfg->BusEnable[R_DEV_CLK_PLL0]    ;
00001e94 bc0f6900       8058 	ld.bu	105[r28],r1
00001e98 5d0f6900       8059 	st.b	r1,105[r29]
                        8060 --2614:     loc_ClkGenCfg.BusEnable[R_DEV_CLK_PLL1]    = ClkGenCfg->BusEnable[R_DEV_CLK_PLL1]    ;
00001e9c 9c0f6b00       8061 	ld.bu	106[r28],r1
00001ea0 5d0f6a00       8062 	st.b	r1,106[r29]
                        8063 --2615:     loc_ClkGenCfg.BusEnable[R_DEV_CLK_PLL2]    = ClkGenCfg->BusEnable[R_DEV_CLK_PLL2]    ;
00001ea4 bc0f6b00       8064 	ld.bu	107[r28],r1
00001ea8 5d0f6b00       8065 	st.b	r1,107[r29]
                        8066 --2616:     loc_ClkGenCfg.BusEnable[R_DEV_CLK_PLL0PIX] = ClkGenCfg->BusEnable[R_DEV_CLK_PLL0PIX] ;
00001eac 9c0f6d00       8067 	ld.bu	108[r28],r1
00001eb0 5d0f6c00       8068 	st.b	r1,108[r29]
                        8069 --2617:     loc_ClkGenCfg.BusEnable[R_DEV_CLK_SDRB]    = ClkGenCfg->BusEnable[R_DEV_CLK_SDRB]    ;
00001eb4 bc0f6d00       8070 	ld.bu	109[r28],r1
00001eb8 5d0f6d00       8071 	st.b	r1,109[r29]
                        8072 --2618:     loc_ClkGenCfg.BusEnable[R_DEV_CLK_ETNBP]   = ClkGenCfg->BusEnable[R_DEV_CLK_ETNBP]   ;
00001ebc 9c0f6f00       8073 	ld.bu	110[r28],r1
00001ec0 5d0f6e00       8074 	st.b	r1,110[r29]
                        8075 --2619:     loc_ClkGenCfg.BusEnable[R_DEV_CLK_ETNBXCC] = ClkGenCfg->BusEnable[R_DEV_CLK_ETNBXCC] ;
00001ec4 9c0f7300       8076 	ld.bu	114[r28],r1
00001ec8 5d0f7200       8077 	st.b	r1,114[r29]
                        8078 --2620:     loc_ClkGenCfg.BusEnable[R_DEV_CLK_MLBP]    = ClkGenCfg->BusEnable[R_DEV_CLK_MLBP]    ;
00001ecc bc0f6f00       8079 	ld.bu	111[r28],r1
00001ed0 5d0f6f00       8080 	st.b	r1,111[r29]
                        8081 --2621:     loc_ClkGenCfg.BusEnable[R_DEV_CLK_MLBXCC]  = ClkGenCfg->BusEnable[R_DEV_CLK_MLBXCC]  ;
00001ed4 bc0f7300       8082 	ld.bu	115[r28],r1
00001ed8 5d0f7300       8083 	st.b	r1,115[r29]
                        8084 --2622:     loc_ClkGenCfg.BusEnable[R_DEV_CLK_RSCANP]  = ClkGenCfg->BusEnable[R_DEV_CLK_RSCANP]  ;
00001edc 9c0f7100       8085 	ld.bu	112[r28],r1
00001ee0 5d0f7000       8086 	st.b	r1,112[r29]
                        8087 --2624:     R_DEV_SetGenStopMask(R_DEV_HS_RING, ClkGenCfg->RoscStpReqMsk);
00001ee4 9c3f6900       8088 	ld.bu	104[r28],r7
00001ee8 0332           8089 	mov	3,r6
                        8090 	jarl	_R_DEV_SetGenStopMask,lp
                        8090 <EXPANSION BEGIN>
                        8090 jarl22 _R_DEV_SetGenStopMask , lp 
00001eea bfffacfb*      8090 <EXPANSION END>
                        8091 --2626:     for (i = R_DEV_PLL0; i <= R_DEV_PLL2; i++)
                        8092 --line2626
                        8093 ..lin.D.3A.5CRenesas_Electronics.5CD1x_RGL.5Crgl_ghs_D1Lx_obj_V1.2E2.2E0.5Cvlib.5Capp.5Cgfx_apps.5Csimple_draw_d1l2.5Ctarget.5Cd1lx_mango_ghs.5Cobj.5Cr_dev_clk.449::
                        8094 .LDWlin449:
00001eee 00da           8095 	mov	0,r27
00001ef0 0000           8096 	nop
                        8097 .L6711:
                        8098 --2627:     {

                                                                      Page 139
                                                              C:\Users\YINGAO~1\AppData\Local\Temp\gh_00007041.si
                        8099 --2628:         loc_PllCfgStore(ClkGenCfg->MainOsc.FrequencyHz, i, &(ClkGenCfg->Pll[i]));
00001ef2 3c370100       8100 	ld.w	0[r28],r6
00001ef6 1b08           8101 	mov	r27,r1
00001ef8 fc0f4002       8102 	mul	28,r1,zero
00001efc 1c761400       8103 	addi	20,r28,r14
00001f00 1b38           8104 	mov	r27,r7
00001f02 ce09           8105 	add	r14,r1
00001f04 0140           8106 	mov	r1,r8
                        8107 	jarl	_loc_PllCfgStore,lp
                        8107 <EXPANSION BEGIN>
                        8107 jarl22 _loc_PllCfgStore , lp 
00001f06 bffffae0*      8107 <EXPANSION END>
                        8108 --line2626
                        8109 ..lin.D.3A.5CRenesas_Electronics.5CD1x_RGL.5Crgl_ghs_D1Lx_obj_V1.2E2.2E0.5Cvlib.5Capp.5Cgfx_apps.5Csimple_draw_d1l2.5Ctarget.5Cd1lx_mango_ghs.5Cobj.5Cr_dev_clk.450::
                        8110 .LDWlin450:
00001f0a 41da           8111 	add	1,r27
00001f0c 62da           8112 	cmp	2,r27
00001f0e a7f5*          8113 	ble	.L6711
                        8114 --2629:     }
                        8115 --2630: }
                        8116 --line2630
                        8117 ..lin.D.3A.5CRenesas_Electronics.5CD1x_RGL.5Crgl_ghs_D1Lx_obj_V1.2E2.2E0.5Cvlib.5Capp.5Cgfx_apps.5Csimple_draw_d1l2.5Ctarget.5Cd1lx_mango_ghs.5Cobj.5Cr_dev_clk.451::
                        8118 .LDWlin451:
00001f10 0000           8119 	nop
                        8120 --	    .ef
                        8121 .LDW311:
00001f12 4006ff30       8122 	dispose	0,{r26,r27,r28,r29,r31},[lp]
                        8123 	.type	_R_DEV_ClkGenInitStore,@function
                        8124 	.size	_R_DEV_ClkGenInitStore,.-_R_DEV_ClkGenInitStore
                        8125 	.align	2
                        8126 .LDW411:
                        8127 --_i	r27	local
                        8128 
                        8129 --_ClkGenCfg	r28	param
                        8130 
                        8131 	.data
                        8132 	.text
                        8133 
                        8134 
                        8135 --2634: /*******************************************************************************
                        8136 --2635:   Function: R_DEV_ClkSelection
                        8137 --2637:     se: <r_dev_api.h> for details
                        8138 --2638: */
                        8139 --2639: void R_DEV_ClkSelection(const r_dev_ClkSelConfig_t * ClkSelCfg)
                        8140 	.align	2
                        8141 	.align	2
                        8142 	.global	_R_DEV_ClkSelection
                        8143 _R_DEV_ClkSelection:
00001f16 8007e100       8144 	prepare	{r28,r29,r31},0
00001f1a 06e0           8145 	mov	r6,r28
                        8146 --	    .bf
                        8147 .LDW511:
                        8148 --2640: {
                        8149 --2641:     uint16_t i = 0;
00001f1c 00ea           8150 	mov	0,r29
                        8151 --2643:      /* assuming we got a config table, we go through it until
                        8152 --2644:      we see the delimiter */
                        8153 --2645:      while (R_DEV_CKS_LAST != ClkSelCfg[i].Cks)
00001f1e a50d*          8154 	br	.L6871
                        8155 .L6873:
                        8156 --2646:      {

                                                                      Page 140
                                                              C:\Users\YINGAO~1\AppData\Local\Temp\gh_00007041.si
                        8157 --2647:          R_DEV_ClkIdSet(&(ClkSelCfg[i]));
                        8158 --line2647
                        8159 ..lin.D.3A.5CRenesas_Electronics.5CD1x_RGL.5Crgl_ghs_D1Lx_obj_V1.2E2.2E0.5Cvlib.5Capp.5Cgfx_apps.5Csimple_draw_d1l2.5Ctarget.5Cd1lx_mango_ghs.5Cobj.5Cr_dev_clk.452::
                        8160 .LDWlin452:
00001f20 1d08           8161 	mov	r29,r1
00001f22 ec0f4002       8162 	mul	12,r1,zero
00001f26 dc09           8163 	add	r28,r1
00001f28 0130           8164 	mov	r1,r6
                        8165 	jarl	_R_DEV_ClkIdSet,lp
                        8165 <EXPANSION BEGIN>
                        8165 jarl22 _R_DEV_ClkIdSet , lp 
00001f2a bfff4ced*      8165 <EXPANSION END>
                        8166 --2648:          i++;
                        8167 --line2648
                        8168 ..lin.D.3A.5CRenesas_Electronics.5CD1x_RGL.5Crgl_ghs_D1Lx_obj_V1.2E2.2E0.5Cvlib.5Capp.5Cgfx_apps.5Csimple_draw_d1l2.5Ctarget.5Cd1lx_mango_ghs.5Cobj.5Cr_dev_clk.453::
                        8169 .LDWlin453:
00001f2e 41ea           8170 	add	1,r29
00001f30 dd00           8171 	zxh	r29
                        8172 .L6871:
00001f32 1df0           8173 	mov	r29,ep
00001f34 ecf74002       8174 	mul	12,ep,zero
00001f38 dcf1           8175 	add	r28,ep
00001f3a 000d           8176 	sld.w	0[ep],r1
00001f3c 0106e2ff       8177 	addi	-30,r1,zero
00001f40 8af5*          8178 	bne	.L6873
                        8179 --2649:      }
                        8180 --2650: }
                        8181 --line2650
                        8182 ..lin.D.3A.5CRenesas_Electronics.5CD1x_RGL.5Crgl_ghs_D1Lx_obj_V1.2E2.2E0.5Cvlib.5Capp.5Cgfx_apps.5Csimple_draw_d1l2.5Ctarget.5Cd1lx_mango_ghs.5Cobj.5Cr_dev_clk.454::
                        8183 .LDWlin454:
00001f42 0000           8184 	nop
                        8185 --	    .ef
                        8186 .LDW611:
00001f44 4006ff00       8187 	dispose	0,{r28,r29,r31},[lp]
                        8188 	.type	_R_DEV_ClkSelection,@function
                        8189 	.size	_R_DEV_ClkSelection,.-_R_DEV_ClkSelection
                        8190 	.align	2
                        8191 .LDW711:
                        8192 --_i	r29	local
                        8193 
                        8194 --_ClkSelCfg	r28	param
                        8195 
                        8196 	.section ".bss","awb"
                        8197 .L6900:
                        8198 	.type	.L6900,@object
                        8199 	.size	.L6900,0
                        8200 	.data
                        8201 	.text
                        8202 
                        8203 	.align	2
                        8204 --_loc_Base	_loc_Base	static
                        8205 --_locBusRegAddr	_locBusRegAddr	static
                        8206 --_loc_CkcsBaseAddr	_loc_CkcsBaseAddr	static
                        8207 --_loc_ClockTree	_loc_ClockTree	static
                        8208 --_loc_ClkSelDiv	_loc_ClkSelDiv	static
                        8209 --_loc_SscgDiv	_loc_SscgDiv	static
                        8210 --_loc_SscgPercent	_loc_SscgPercent	static
                        8211 --_loc_ClkGenCfg	_loc_ClkGenCfg	static
                        8212 --_loc_Vdce0ViFreq	_loc_Vdce0ViFreq	static
                        8213 --_loc_Vdce1ViFreq	_loc_Vdce1ViFreq	static
                        8214 

                                                                      Page 141
                                                              C:\Users\YINGAO~1\AppData\Local\Temp\gh_00007041.si
                        8215 	.data
                        8216 	.ghsnote version,14
                        8217 	.ghsnote tools,3
                        8218 	.ghsnote options,144
                        8219 	.text
                        8220 	.align	2
                        8221 ..eof.D.3A.5CRenesas_Electronics.5CD1x_RGL.5Crgl_ghs_D1Lx_obj_V1.2E2.2E0.5Cvlib.5Capp.5Cgfx_apps.5Csimple_draw_d1l2.5Ctarget.5Cd1lx_mango_ghs.5Cobj.5Cr_dev_clk...44.3A.5CRenesas_Electronics.5CD1x_RGL.5Crgl_ghs_D1Lx_obj_V1.2E2.2E0.5Cvlib.5Capp.5Cgfx_apps.5Csimple_draw_d1l2.5Ctarget.5Cd1lx_mango_ghs..5A74037C..0::
                        8222 .rh850_flags REGMODE22,DATA_ALIGN8,GP_FIX,EP_NONFIX,TP_FIX,REG2_RESERVE,G3M
