                                                                      Page 1
                                                              C:\Users\YINGAO~1\AppData\Local\Temp\gh_000047o1.si
Command Line: C:\ghs\comp_201355\ease850.exe -w -elf -b0 -ID:\Renesas_Electronics\D1x_RGL\rgl_ghs_D1Lx_obj_V1.2.0\vlib\macro\flashc\sfma\lib -I../../../../../Device -I../../../../../Driver/ADCE -I../../../../../Driver/CLOCK -I../../../../../Driver/DIO -I../../../../../Driver/DSPI -I../../../../../Driver/Interrupt -I../../../../../Driver/ISM -I../../../../../Driver/OSTM -I../../../../../Driver/PWM -I../../../../../Driver/RSTC -I../../../../../Driver/RTCA -I../../../../../Driver/STBC -I../../../../../Driver/TAUB -I../../../../../Driver/WDT -I../../../../../middleware\ADM -I../../../../../middleware\BPM -I../../../../../middleware\EED -I../../../../../middleware\IOM -I../../../../../middleware\LRM -I../../../../../middleware\MOM -I../../../../../middleware\PWMM -I../../../../../Common -I../../../../../Applayer\DSM -I../../../../../Applayer\FM -I../../../../../Applayer\TPM -I../../../../../Applayer\ACC -I../../../../../Applayer\ASS -I../../../../../Applayer\BAT -I../../../../../Applayer\COM -I../../../../../Applayer\COM\vtp -I../../../../../Applayer\COM\vtp\lib -I../../../../../Applayer\CRUS -I../../../../../Applayer\DIAG -I../../../../../Applayer\FC -I../../../../../Applayer\FL -I../../../../../Applayer\HSD -I../../../../../Applayer\IDLE -I../../../../../Applayer\ILLU -I../../../../../Applayer\LED -I../../../../../Applayer\MSG -I../../../../../Applayer\NVM -I../../../../../Applayer\ODO -I../../../../../Applayer\PWR -I../../../../../Applayer\RANG -I../../../../../Applayer\RST -I../../../../../Applayer\RTC -I../../../../../Applayer\SCS -I../../../../../Applayer\SSB -I../../../../../Applayer\ST -I../../../../../Applayer\STSMG -I../../../../../Applayer\SYS -I../../../../../Applayer\TIP -I../../../../../Applayer\TRIP -I../../../../../Applayer\CHM -I../../../../../Applayer\DM -I../../../../../Applayer\EVT -I../../../../../Applayer\FTR -I../../../../../Applayer\SLF -I../../../../../Applayer\NWD -I../../../../../Applayer\TPMS -I../../../../../Applayer\WFM -I../../../../../Applayer\NZM -I../../../../../app/gfx_apps/simple_draw_d1l2/src -I../../../../../bsp/board//config -I../../../../../bsp/board//src/gfx -I../../../../../bsp/board//src/hmi -I../../../../../bsp/board//src/stdio -I../../../../../bsp/board/d1lx_mango/config -I../../../../../bsp/board/d1lx_mango/src -I../../../../../bsp/board/d1lx_mango/src/gfx -I../../../../../bsp/board/d1lx_mango/src/hmi -I../../../../../bsp/board/d1lx_mango/src/stdio -I../../../../../bsp/gfx/lib -I../../../../../bsp/gfx/src -I../../../../../bsp/hmi/lib -I../../../../../bsp/hmi/src -I../../../../../bsp/lib -I../../../../../bsp/stdio/lib -I../../../../../bsp/stdio/src -I../../../../../cdi/lib -I../../../../../cdi/src -I../../../../../compiler/rh850_ghs/inc -I../../../../../device/d1lx/lib -I../../../../../device/d1lx/macro_cfg -I../../../../../device/d1lx/src/dev -I../../../../../device/d1lx/src/rh850_ghs -I../../../../../device/d1x_common/macro_cfg -I../../../../../device/d1x_common/src/csisw -I../../../../../device/d1x_common/src/ddb -I../../../../../device/d1x_common/src/dev -I../../../../../device/d1x_common/src/gfxbus -I../../../../../device/d1x_common/src/gpio -I../../../../../device/d1x_common/src/ostm -I../../../../../device/d1x_common/src/pbg -I../../../../../device/d1x_common/src/riic -I../../../../../device/d1x_common/src/sfma -I../../../../../device/d1x_common/src/spea -I../../../../../device/d1x_common/src/tauj -I../../../../../device/d1x_common/src/tick -I../../../../../device/d1x_common/src/vdce -I../../../../../device/d1x_common/src/wm -I../../../../../device/d1x_common/src/xbus -I../../../../../device/lib -I../../../../../macro/bus/pbg/lib -I../../../../../macro/bus/pbg/src -I../../../../../macro/csi/csisw/lib -I../../../../../macro/csi/csisw/src -I../../../../../macro/drw2d/lib -I../../../../../macro/drw2d/platform/cpu -I../../../../../macro/drw2d/platform/os/no_os -I../../../../../macro/drw2d/src -I../../../../../macro/flashc/sfcdb/lib -I../../../../../macro/flashc/sfcdb/src -I../../../../../macro/flashc/sfma/lib -I../../../../../macro/flashc/sfma/src -I../../../../../macro/gfxbus/lib -I../../../../../macro/gfxbus/src -I../../../../../macro/gfxbus/xbus/lib -I../../../../../macro/gfxbus/xbus/src -I../../../../../macro/gpio/lib -I../../../../../macro/gpio/src -I../../../../../macro/i2c/riic/lib -I../../../../../macro/i2c/riic/src -I../../../../../macro/tick/lib -I../../../../../macro/tick/src -I../../../../../macro/timer/ostm/lib -I../../../../../macro/timer/ostm/src -I../../../../../macro/timer/tauj/lib -I../../../../../macro/timer/tauj/src -I../../../../../macro/vdce/lib -I../../../../../macro/vdce/src -I../../../../../macro/vo/ddb/lib -I../../../../../macro/vo/ddb/src -I../../../../../macro/vo/spea/lib -I../../../../../macro/vo/spea/src -I../../../../../macro/wm/lib -I../../../../../macro/wm/src -I../../../../../app/gfx_apps/simple_draw_d1l2/src/QD_HMI -I../../../../../app/gfx_apps/simple_draw_d1l2/src/QD_HMI/HMI_Data -IC:\ghs\comp_201355\lib\rh850_22 -cg_underscore -cpu=rh850g3m -no_v850_simd -nomacro -patch_dbo=D:\Renesas_Electronics\D1x_RGL\rgl_ghs_D1Lx_obj_V1.2.0\vlib\app\gfx_apps\simple_draw_d1l2\target\d1lx_mango_ghs\obj\r_gpio_isr.dbo -source=r_gpio_isr.c -o .\obj\gh_000047o1.o -list=.\obj\r_gpio_isr.lst C:\Users\YINGAO~1\AppData\Local\Temp\gh_000047o1.si 
Original File: C:\Users\YINGAO~1\AppData\Local\Temp\gh_000047o1.si
Source File: r_gpio_isr.c
Directory: D:\Renesas_Electronics\D1x_RGL\rgl_ghs_D1Lx_obj_V1.2.0\vlib\app\gfx_apps\simple_draw_d1l2\target\d1lx_mango_ghs
Host OS: Windows 7 Service Pack 1
EASE: Copyright (C) 1983-2013 Green Hills Software.  All Rights Reversed.
Release: Compiler v2013.5.5
Build Directory: [Directory] BTOWINBOX:c:/build_2013_5_bto/2013-10-04.1311-2013_5_bto/win32-comp-ecom
Revision: [VCInfo] http://toolsvc/branches/release-branch-2013-5-bto/src@496240 (built by build)
Revision Date: Sat Oct 05 04:54:43 2013

Release Date: Sat Oct 05 05:20:49 2013

                           1 --Driver Command: ccv850 -c -MD
                           2 --		-ID:\Renesas_Electronics\D1x_RGL\rgl_ghs_D1Lx_obj_V1.2.0\vlib\macro\flashc\sfma\lib
                           3 --		-I../../../../../Device -I../../../../../Driver/ADCE
                           4 --		-I../../../../../Driver/CLOCK -I../../../../../Driver/DIO
                           5 --		-I../../../../../Driver/DSPI -I../../../../../Driver/Interrupt
                           6 --		-I../../../../../Driver/ISM -I../../../../../Driver/OSTM
                           7 --		-I../../../../../Driver/PWM -I../../../../../Driver/RSTC
                           8 --		-I../../../../../Driver/RTCA -I../../../../../Driver/STBC
                           9 --		-I../../../../../Driver/TAUB -I../../../../../Driver/WDT
                          10 --		-I../../../../../middleware\ADM -I../../../../../middleware\BPM
                          11 --		-I../../../../../middleware\EED -I../../../../../middleware\IOM
                          12 --		-I../../../../../middleware\LRM -I../../../../../middleware\MOM
                          13 --		-I../../../../../middleware\PWMM -I../../../../../Common
                          14 --		-I../../../../../Applayer\DSM -I../../../../../Applayer\FM
                          15 --		-I../../../../../Applayer\TPM -I../../../../../Applayer\ACC
                          16 --		-I../../../../../Applayer\ASS -I../../../../../Applayer\BAT
                          17 --		-I../../../../../Applayer\COM -I../../../../../Applayer\COM\vtp
                          18 --		-I../../../../../Applayer\COM\vtp\lib
                          19 --		-I../../../../../Applayer\CRUS -I../../../../../Applayer\DIAG
                          20 --		-I../../../../../Applayer\FC -I../../../../../Applayer\FL
                          21 --		-I../../../../../Applayer\HSD -I../../../../../Applayer\IDLE
                          22 --		-I../../../../../Applayer\ILLU -I../../../../../Applayer\LED
                          23 --		-I../../../../../Applayer\MSG -I../../../../../Applayer\NVM
                          24 --		-I../../../../../Applayer\ODO -I../../../../../Applayer\PWR
                          25 --		-I../../../../../Applayer\RANG -I../../../../../Applayer\RST
                          26 --		-I../../../../../Applayer\RTC -I../../../../../Applayer\SCS
                          27 --		-I../../../../../Applayer\SSB -I../../../../../Applayer\ST
                          28 --		-I../../../../../Applayer\STSMG -I../../../../../Applayer\SYS
                          29 --		-I../../../../../Applayer\TIP -I../../../../../Applayer\TRIP
                          30 --		-I../../../../../Applayer\CHM -I../../../../../Applayer\DM
                          31 --		-I../../../../../Applayer\EVT -I../../../../../Applayer\FTR
                          32 --		-I../../../../../Applayer\SLF -I../../../../../Applayer\NWD
                          33 --		-I../../../../../Applayer\TPMS -I../../../../../Applayer\WFM
                          34 --		-I../../../../../Applayer\NZM
                          35 --		-I../../../../../app/gfx_apps/simple_draw_d1l2/src
                          36 --		-I../../../../../bsp/board//config
                          37 --		-I../../../../../bsp/board//src/gfx
                          38 --		-I../../../../../bsp/board//src/hmi
                          39 --		-I../../../../../bsp/board//src/stdio
                          40 --		-I../../../../../bsp/board/d1lx_mango/config
                          41 --		-I../../../../../bsp/board/d1lx_mango/src
                          42 --		-I../../../../../bsp/board/d1lx_mango/src/gfx
                          43 --		-I../../../../../bsp/board/d1lx_mango/src/hmi
                          44 --		-I../../../../../bsp/board/d1lx_mango/src/stdio
                          45 --		-I../../../../../bsp/gfx/lib -I../../../../../bsp/gfx/src
                          46 --		-I../../../../../bsp/hmi/lib -I../../../../../bsp/hmi/src
                          47 --		-I../../../../../bsp/lib -I../../../../../bsp/stdio/lib
                          48 --		-I../../../../../bsp/stdio/src -I../../../../../cdi/lib
                          49 --		-I../../../../../cdi/src -I../../../../../compiler/rh850_ghs/inc
                          50 --		-I../../../../../device/d1lx/lib

                                                                      Page 2
                                                              C:\Users\YINGAO~1\AppData\Local\Temp\gh_000047o1.si
                          51 --		-I../../../../../device/d1lx/macro_cfg
                          52 --		-I../../../../../device/d1lx/src/dev
                          53 --		-I../../../../../device/d1lx/src/rh850_ghs
                          54 --		-I../../../../../device/d1x_common/macro_cfg
                          55 --		-I../../../../../device/d1x_common/src/csisw
                          56 --		-I../../../../../device/d1x_common/src/ddb
                          57 --		-I../../../../../device/d1x_common/src/dev
                          58 --		-I../../../../../device/d1x_common/src/gfxbus
                          59 --		-I../../../../../device/d1x_common/src/gpio
                          60 --		-I../../../../../device/d1x_common/src/ostm
                          61 --		-I../../../../../device/d1x_common/src/pbg
                          62 --		-I../../../../../device/d1x_common/src/riic
                          63 --		-I../../../../../device/d1x_common/src/sfma
                          64 --		-I../../../../../device/d1x_common/src/spea
                          65 --		-I../../../../../device/d1x_common/src/tauj
                          66 --		-I../../../../../device/d1x_common/src/tick
                          67 --		-I../../../../../device/d1x_common/src/vdce
                          68 --		-I../../../../../device/d1x_common/src/wm
                          69 --		-I../../../../../device/d1x_common/src/xbus
                          70 --		-I../../../../../device/lib -I../../../../../macro/bus/pbg/lib
                          71 --		-I../../../../../macro/bus/pbg/src
                          72 --		-I../../../../../macro/csi/csisw/lib
                          73 --		-I../../../../../macro/csi/csisw/src
                          74 --		-I../../../../../macro/drw2d/lib
                          75 --		-I../../../../../macro/drw2d/platform/cpu
                          76 --		-I../../../../../macro/drw2d/platform/os/no_os
                          77 --		-I../../../../../macro/drw2d/src
                          78 --		-I../../../../../macro/flashc/sfcdb/lib
                          79 --		-I../../../../../macro/flashc/sfcdb/src
                          80 --		-I../../../../../macro/flashc/sfma/lib
                          81 --		-I../../../../../macro/flashc/sfma/src
                          82 --		-I../../../../../macro/gfxbus/lib
                          83 --		-I../../../../../macro/gfxbus/src
                          84 --		-I../../../../../macro/gfxbus/xbus/lib
                          85 --		-I../../../../../macro/gfxbus/xbus/src
                          86 --		-I../../../../../macro/gpio/lib -I../../../../../macro/gpio/src
                          87 --		-I../../../../../macro/i2c/riic/lib
                          88 --		-I../../../../../macro/i2c/riic/src
                          89 --		-I../../../../../macro/tick/lib -I../../../../../macro/tick/src
                          90 --		-I../../../../../macro/timer/ostm/lib
                          91 --		-I../../../../../macro/timer/ostm/src
                          92 --		-I../../../../../macro/timer/tauj/lib
                          93 --		-I../../../../../macro/timer/tauj/src
                          94 --		-I../../../../../macro/vdce/lib -I../../../../../macro/vdce/src
                          95 --		-I../../../../../macro/vo/ddb/lib
                          96 --		-I../../../../../macro/vo/ddb/src
                          97 --		-I../../../../../macro/vo/spea/lib
                          98 --		-I../../../../../macro/vo/spea/src -I../../../../../macro/wm/lib
                          99 --		-I../../../../../macro/wm/src
                         100 --		-I../../../../../app/gfx_apps/simple_draw_d1l2/src/QD_HMI
                         101 --		-I../../../../../app/gfx_apps/simple_draw_d1l2/src/QD_HMI/HMI_Data
                         102 --		-G --no_commons --no_implicit_include --prototype_errors
                         103 --		-DR_DRW2D_OS_NO_OS -DR_DRW2D_SYS_CPU -DUSED_CPU=RH850G3M
                         104 --		-DUSE_BSP_GFX -DUSE_BSP_HMI -DUSE_BSP_STDIO -DUSE_CDI -DUSE_CSISW
                         105 --		-DUSE_DDB -DUSE_DRW2D -DUSE_GFXBUS -DUSE_GPIO -DUSE_OSTM
                         106 --		-DUSE_PBG -DUSE_RIIC -DUSE_SFCDB -DUSE_SFMA -DUSE_SPEA -DUSE_TAUJ
                         107 --		-DUSE_TICK -DUSE_VDCE -DUSE_WM -DUSE_XBUS -MD -Mn -Mx -Zuse1bit
                         108 --		-allocate_ep -cpu=rh850g3m -entry=_RESET -large_sda -list
                         109 --		-no_callt -notda -passsource -preprocess_assembly_files
                         110 --		-registermode=22 -reserve_r2 --diag_warning 1 -object_dir=./obj
                         111 --		-filetype.c ..\..\..\..\..\macro\gpio\src\r_gpio_isr.c -o

                                                                      Page 3
                                                              C:\Users\YINGAO~1\AppData\Local\Temp\gh_000047o1.si
                         112 --		.\obj\r_gpio_isr.o
                         113 --Source File:   ..\..\..\..\..\macro\gpio\src\r_gpio_isr.c
                         114 --Directory:     
                         115 --		D:\Renesas_Electronics\D1x_RGL\rgl_ghs_D1Lx_obj_V1.2.0\vlib\app\gfx_apps\simple_draw_d1l2\target\d1lx_mango_ghs
                         116 --Compile Date:  Fri Feb 02 14:21:58 2018
                         117 --Host OS:       Win32
                         118 --Version:       C-RH850 2013.5.5 DEVELOPMENT VERSION
                         119 --Release:       Compiler v2013.5.5
                         120 --Revision Date: Sat Oct 05 05:01:20 2013
                         121 --Release Date:  Sat Oct 05 05:22:44 2013
                         122 -- ecom  -g -w
                         123 
                         124 --1: /*
                         125 --2: ****************************************************************************
                         126 --3: PROJECT : GPIO driver
                         127 --4: FILE    : $Id: r_gpio_isr.c 7402 2016-01-27 15:43:39Z florian.zimmermann $
                         128 --5: ============================================================================
                         129 --6: DESCRIPTION
                         130 --7: Driver for GPIO macro
                         131 --8: ============================================================================
                         132 --9:                             C O P Y R I G H T
                         133 --10: ============================================================================
                         134 --11:                        Copyright (c) 2013 - 2014
                         135 --12:                                   by
                         136 --13:                        Renesas Electronics (Europe) GmbH.
                         137 --14:                            Arcadiastrasse 10
                         138 --15:                           D-40472 Duesseldorf
                         139 --16:                                Germany
                         140 --17:                           All rights reserved.
                         141 --18: ============================================================================
                         142 --19: Purpose: only for testing, not for mass production
                         143 --21: DISCLAIMER
                         144 --23: LICENSEE has read, understood and accepted the terms and conditions defined in
                         145 --24: the license agreement, especially the usage rights. In any case, it is
                         146 --25: LICENSEE's responsibility to make sure that any user of the software complies
                         147 --26: with the terms and conditions of the signed license agreement.
                         148 --28: SAMPLE CODE is not part of the licensed software, as such it must not be used in
                         149 --29: mass-production applications. It can only be used for evaluation and
                         150 --30: demonstration purposes at customer's premises listed in the signed license
                         151 --31: agreement.
                         152 --33: ****************************************************************************
                         153 --34: */
                         154 --37: /***********************************************************************************************
                         155 --38:                             Macro description
                         156 --39: GPIO functions 
                         157 --40: Set/reset read pin
                         158 --41: Configure and activcate external portpin interrupts  
                         159 --43: */
                         160 --45: /*******************************************************************************
                         161 --46:   Section: Includes
                         162 --47: */
                         163 --48: #include "r_typedefs.h"
                         164 --49: #include "r_gpio_api.h"
                         165 --50: #include "r_gpio_sys.h"
                         166 --51: #include "r_config_gpio.h"
                         167 --52: #include "r_dev_api.h"
                         168 --55: /*******************************************************************************
                         169 --56:   Section: Local Functions
                         170 --57: */
                         171 --59: /*******************************************************************************
                         172 --60:   Section: Global Functions

                                                                      Page 4
                                                              C:\Users\YINGAO~1\AppData\Local\Temp\gh_000047o1.si
                         173 --61: */
                         174 --63: /*******************************************************************************
                         175 --64:   Section: Local Defines
                         176 --65:   
                         177 --66: */
                         178 --68: /*******************************************************************************
                         179 --69:   Section: Local Types
                         180 --70:   
                         181 --71: */
                         182 --73: /*******************************************************************************
                         183 --74:     struct R_GPIO_Int_t
                         184 --75:     For information about configured external interrupts 
                         185 --76:    Values:
                         186 --77:     Port     - Port Number 
                         187 --78:     Pin      - Pin  Number 
                         188 --79:     Callback - Callback (notification) function 
                         189 --80:   
                         190 --81: */
                         191 --82: typedef struct {
                         192 --83:     int32_t Port; 
                         193 --84:     int32_t Pin;
                         194 --85:     void (*Callback)(void);
                         195 --86: } loc_Int_t; 
                         196 --88: /*******************************************************************************
                         197 --89:   Section: Local Variables
                         198 --90: */
                         199 --92: /*******************************************************************************
                         200 --93:   Variable: loc_IntConfig
                         201 --95:   Stores the Port/Pin configuration for external Interrupts  
                         202 --96: */
                         203 --97: static loc_Int_t loc_IntConfig[R_GPIO_EXT_INT_NUM]; 
                         204 --100: /*******************************************************************************
                         205 --101:   Section: Global Functions
                         206 --102: */
                         207 --104: /*******************************************************************************
                         208 --105:   Function: R_GPIO_SetIntCallback
                         209 --106:   
                         210 --107:   see <r_gpio_api.h> for details 
                         211 --108: */
                         212 --109: r_Error_t R_GPIO_SetIntCallback(uint32_t Unit, void (*Isr)(void)) 
                         213 	.text
                         214 ..bof.D.3A.5CRenesas_Electronics.5CD1x_RGL.5Crgl_ghs_D1Lx_obj_V1.2E2.2E0.5Cvlib.5Capp.5Cgfx_apps.5Csimple_draw_d1l2.5Ctarget.5Cd1lx_mango_ghs.5Cobj.5Cr_gpio_isr...44.3A.5CRenesas_Electronics.5CD1x_RGL.5Crgl_ghs_D1Lx_obj_V1.2E2.2E0.5Cvlib.5Capp.5Cgfx_apps.5Csimple_draw_d1l2.5Ctarget.5Cd1lx_mango_ghs..5A740386..0::
                         215 	.align	2
                         216 	.global	_R_GPIO_SetIntCallback
                         217 _R_GPIO_SetIntCallback:
00000000 0608            218 	mov	r6,r1
00000002 0770            219 	mov	r7,r14
                         220 --	    .bf
                         221 .LDW01:
                         222 --110: {
                         223 --111:     if (Unit >= R_GPIO_EXT_INT_NUM) 
00000004 6b0a            224 	cmp	11,r1
00000006 b105*           225 	bl	.L4
                         226 --112:     {
                         227 --113:         return R_PARAMETER_INCORRECT; 
                         228 --line113
                         229 ..lin.D.3A.5CRenesas_Electronics.5CD1x_RGL.5Crgl_ghs_D1Lx_obj_V1.2E2.2E0.5Cvlib.5Capp.5Cgfx_apps.5Csimple_draw_d1l2.5Ctarget.5Cd1lx_mango_ghs.5Cobj.5Cr_gpio_isr.1::
                         230 .LDWlin1:
00000008 0452            231 	mov	4,r10
0000000a b50d*           232 	br	.L2
                         233 .L4:

                                                                      Page 5
                                                              C:\Users\YINGAO~1\AppData\Local\Temp\gh_000047o1.si
                         234 --114:     }
                         235 --115:     else
                         236 --116:     {
                         237 --117:         loc_IntConfig[Unit].Callback = Isr;
                         238 --line117
                         239 ..lin.D.3A.5CRenesas_Electronics.5CD1x_RGL.5Crgl_ghs_D1Lx_obj_V1.2E2.2E0.5Cvlib.5Capp.5Cgfx_apps.5Csimple_draw_d1l2.5Ctarget.5Cd1lx_mango_ghs.5Cobj.5Cr_gpio_isr.2::
                         240 .LDWlin2:
0000000c 01f0            241 	mov	r1,ep
0000000e fe00            242 	sxh	ep
00000010 fef60c00        243 	mulhi	12,ep,ep
00000014 2c0600000000*   244 	mov	_loc_IntConfig,r12
0000001a ccf1            245 	add	r12,ep
0000001c 0575            246 	sst.w	r14,8[ep]
                         247 --118:     }
                         248 --119:     return R_ERR_OK;
0000001e 0052            249 	mov	0,r10
                         250 .L2:
                         251 --	    .ef
                         252 .LDW11:
00000020 7f00            253 	jmp	[lp]
                         254 	.type	_R_GPIO_SetIntCallback,@function
                         255 	.size	_R_GPIO_SetIntCallback,.-_R_GPIO_SetIntCallback
                         256 	.align	2
                         257 .LDW21:
                         258 
                         259 --_Unit	r1	param
                         260 --_Isr	r14	param
                         261 
                         262 	.section ".bss","awb"
                         263 	.align	4
                         264 .L30:
                         265 	.type	.L30,@object
                         266 	.size	.L30,0
                         267 	.global	_loc_IntConfig..D.3A.5CRenesas_Electronics.5CD1x_RGL.5Crgl_ghs_D1Lx_obj_V1.2E2.2E0.5Cvlib.5Capp.5Cgfx_apps.5Csimple_draw_d1l2.5Ctarget.5Cd1lx_mango_ghs.5Cobj.5Cr_gpio_isr.
                         268 _loc_IntConfig..D.3A.5CRenesas_Electronics.5CD1x_RGL.5Crgl_ghs_D1Lx_obj_V1.2E2.2E0.5Cvlib.5Capp.5Cgfx_apps.5Csimple_draw_d1l2.5Ctarget.5Cd1lx_mango_ghs.5Cobj.5Cr_gpio_isr.:
                         269 	.type	_loc_IntConfig..D.3A.5CRenesas_Electronics.5CD1x_RGL.5Crgl_ghs_D1Lx_obj_V1.2E2.2E0.5Cvlib.5Capp.5Cgfx_apps.5Csimple_draw_d1l2.5Ctarget.5Cd1lx_mango_ghs.5Cobj.5Cr_gpio_isr.,@object
                         270 	.size	_loc_IntConfig..D.3A.5CRenesas_Electronics.5CD1x_RGL.5Crgl_ghs_D1Lx_obj_V1.2E2.2E0.5Cvlib.5Capp.5Cgfx_apps.5Csimple_draw_d1l2.5Ctarget.5Cd1lx_mango_ghs.5Cobj.5Cr_gpio_isr.,132
00000000 000000000000    271 _loc_IntConfig:	.space	132
00000006 000000000000 
0000000c 000000000000 
00000012 000000000000 
00000018 000000000000 
0000001e 000000000000 
00000024 000000000000 
0000002a 000000000000 
00000030 000000000000 
00000036 000000000000 
0000003c 000000000000 
00000042 000000000000 
00000048 000000000000 
0000004e 000000000000 
00000054 000000000000 
0000005a 000000000000 
00000060 000000000000 
00000066 000000000000 
0000006c 000000000000 
00000072 000000000000 
00000078 000000000000 
0000007e 000000000000 
                         272 	.type	_loc_IntConfig,@object
                         273 	.size	_loc_IntConfig,132

                                                                      Page 6
                                                              C:\Users\YINGAO~1\AppData\Local\Temp\gh_000047o1.si
                         274 	.data
                         275 	.text
                         276 
                         277 --120: }
                         278 
                         279 --122: /*******************************************************************************
                         280 --123:   Function: R_GPIO_IntIsr
                         281 --125:   see <r_gpio_api.h> for details 
                         282 --126: */
                         283 --127: void R_GPIO_IntIsr(uint32_t Unit) 
                         284 	.align	2
                         285 	.align	2
                         286 	.global	_R_GPIO_IntIsr
                         287 _R_GPIO_IntIsr:
00000022 8007e130        288 	prepare	{r26,r27,r28,r29,r31},0
00000026 3d0600000000*   289 	mov	_loc_IntConfig,r29
0000002c 06e0            290 	mov	r6,r28
0000002e 1dd8            291 	mov	r29,r27
                         292 --	    .bf
                         293 .LDW31:
                         294 --128: {
                         295 --129:     if (Unit >= R_GPIO_EXT_INT_NUM)
00000030 6be2            296 	cmp	11,r28
00000032 e105*           297 	bl	.L53
                         298 --130:     {
                         299 --131:         /* ISR Called for non existant INT*/
                         300 --132:         R_DEV_ErrorHandler(Unit, (uint32_t)R_DEV_ERR_UNIT); 
                         301 --line132
                         302 ..lin.D.3A.5CRenesas_Electronics.5CD1x_RGL.5Crgl_ghs_D1Lx_obj_V1.2E2.2E0.5Cvlib.5Capp.5Cgfx_apps.5Csimple_draw_d1l2.5Ctarget.5Cd1lx_mango_ghs.5Cobj.5Cr_gpio_isr.3::
                         303 .LDWlin3:
00000034 1c30            304 	mov	r28,r6
00000036 023a            305 	mov	2,r7
                         306 	jarl	_R_DEV_ErrorHandler,lp
                         306 <EXPANSION BEGIN>
                         306 jarl22 _R_DEV_ErrorHandler , lp 
00000038 80ff0000*       306 <EXPANSION END>
0000003c 9515*           307 	br	.L55
                         308 .L53:
                         309 --133:     }
                         310 --134:     else
                         311 --135:     {
                         312 --136:         if (0u != loc_IntConfig[Unit].Callback)
                         313 --line136
                         314 ..lin.D.3A.5CRenesas_Electronics.5CD1x_RGL.5Crgl_ghs_D1Lx_obj_V1.2E2.2E0.5Cvlib.5Capp.5Cgfx_apps.5Csimple_draw_d1l2.5Ctarget.5Cd1lx_mango_ghs.5Cobj.5Cr_gpio_isr.4::
                         315 .LDWlin4:
0000003e 1cf0            316 	mov	r28,ep
00000040 fe00            317 	sxh	ep
00000042 fef60c00        318 	mulhi	12,ep,ep
00000046 dbf1            319 	add	r27,ep
00000048 040d            320 	sld.w	8[ep],r1
0000004a e009            321 	cmp	zero,r1
0000004c 920d*           322 	be	.L55
                         323 --137:         {
                         324 --138:             loc_IntConfig[Unit].Callback();
                         325 --line138
                         326 ..lin.D.3A.5CRenesas_Electronics.5CD1x_RGL.5Crgl_ghs_D1Lx_obj_V1.2E2.2E0.5Cvlib.5Capp.5Cgfx_apps.5Csimple_draw_d1l2.5Ctarget.5Cd1lx_mango_ghs.5Cobj.5Cr_gpio_isr.5::
                         327 .LDWlin5:
0000004e 1cf0            328 	mov	r28,ep
00000050 fe00            329 	sxh	ep
00000052 fef60c00        330 	mulhi	12,ep,ep
00000056 dbf1            331 	add	r27,ep

                                                                      Page 7
                                                              C:\Users\YINGAO~1\AppData\Local\Temp\gh_000047o1.si
00000058 04d5            332 	sld.w	8[ep],r26
0000005a fac760f9        333 	jarl	[r26],lp
                         334 .L55:
                         335 --139:         }
                         336 --140:     }
                         337 --141: }
                         338 --line141
                         339 ..lin.D.3A.5CRenesas_Electronics.5CD1x_RGL.5Crgl_ghs_D1Lx_obj_V1.2E2.2E0.5Cvlib.5Capp.5Cgfx_apps.5Csimple_draw_d1l2.5Ctarget.5Cd1lx_mango_ghs.5Cobj.5Cr_gpio_isr.6::
                         340 .LDWlin6:
0000005e 0000            341 	nop
                         342 --	    .ef
                         343 .LDW41:
00000060 4006ff30        344 	dispose	0,{r26,r27,r28,r29,r31},[lp]
                         345 	.type	_R_GPIO_IntIsr,@function
                         346 	.size	_R_GPIO_IntIsr,.-_R_GPIO_IntIsr
                         347 	.align	2
                         348 .LDW51:
                         349 
                         350 --_Unit	r28	param
                         351 
                         352 	.data
                         353 	.text
                         354 
                         355 
                         356 --144: /*******************************************************************************
                         357 --145:   Function: R_GPIO_ReadIntPin
                         358 --147:   see <r_gpio_api.h> for details 
                         359 --148: */
                         360 --149: uint8_t R_GPIO_ReadIntPin(uint32_t Unit) 
                         361 	.align	2
                         362 	.align	2
                         363 	.global	_R_GPIO_ReadIntPin
                         364 _R_GPIO_ReadIntPin:
00000064 8007e110        365 	prepare	{r27,r28,r29,r31},0
00000068 3d0600000000*   366 	mov	_loc_IntConfig,r29
0000006e 06e0            367 	mov	r6,r28
00000070 1dd8            368 	mov	r29,r27
                         369 --	    .bf
                         370 .LDW61:
                         371 --150: {
                         372 --151:     if (Unit < R_GPIO_EXT_INT_NUM) 
00000072 6be2            373 	cmp	11,r28
00000074 f90d*           374 	bnl	.L105
                         375 --152:     {
                         376 --153:         return R_SYS_GPIO_GetPin(loc_IntConfig[Unit].Port, loc_IntConfig[Unit].Pin);
                         377 --line153
                         378 ..lin.D.3A.5CRenesas_Electronics.5CD1x_RGL.5Crgl_ghs_D1Lx_obj_V1.2E2.2E0.5Cvlib.5Capp.5Cgfx_apps.5Csimple_draw_d1l2.5Ctarget.5Cd1lx_mango_ghs.5Cobj.5Cr_gpio_isr.7::
                         379 .LDWlin7:
00000076 1cf0            380 	mov	r28,ep
00000078 fe00            381 	sxh	ep
0000007a fef60c00        382 	mulhi	12,ep,ep
0000007e 1e08            383 	mov	ep,r1
00000080 dbf1            384 	add	r27,ep
00000082 0035            385 	sld.w	0[ep],r6
00000084 01f0            386 	mov	r1,ep
00000086 dbf1            387 	add	r27,ep
00000088 6438            388 	sld.bu	4[ep],r7
                         389 	jarl	_R_SYS_GPIO_GetPin,lp
                         389 <EXPANSION BEGIN>
                         389 jarl22 _R_SYS_GPIO_GetPin , lp 
0000008a 80ff0000*       389 <EXPANSION END>

                                                                      Page 8
                                                              C:\Users\YINGAO~1\AppData\Local\Temp\gh_000047o1.si
0000008e 8a00            390 	zxb	r10
00000090 e505*           391 	br	.L103
                         392 .L105:
                         393 --154:     }
                         394 --155:     else
                         395 --156:     {
                         396 --157:         /* ERROR - HALT right here */
                         397 --158:         /*  I Don't know what to do - the unit you ask for does not exist! */
                         398 --159:         R_DEV_ErrorHandler(Unit, R_DEV_ERR_UNIT); 
                         399 --line159
                         400 ..lin.D.3A.5CRenesas_Electronics.5CD1x_RGL.5Crgl_ghs_D1Lx_obj_V1.2E2.2E0.5Cvlib.5Capp.5Cgfx_apps.5Csimple_draw_d1l2.5Ctarget.5Cd1lx_mango_ghs.5Cobj.5Cr_gpio_isr.8::
                         401 .LDWlin8:
00000092 1c30            402 	mov	r28,r6
00000094 023a            403 	mov	2,r7
                         404 	jarl	_R_DEV_ErrorHandler,lp
                         404 <EXPANSION BEGIN>
                         404 jarl22 _R_DEV_ErrorHandler , lp 
00000096 80ff0000*       404 <EXPANSION END>
                         405 --160:         return 0u; 
                         406 --line160
                         407 ..lin.D.3A.5CRenesas_Electronics.5CD1x_RGL.5Crgl_ghs_D1Lx_obj_V1.2E2.2E0.5Cvlib.5Capp.5Cgfx_apps.5Csimple_draw_d1l2.5Ctarget.5Cd1lx_mango_ghs.5Cobj.5Cr_gpio_isr.9::
                         408 .LDWlin9:
0000009a 0052            409 	mov	0,r10
                         410 .L103:
                         411 --	    .ef
                         412 .LDW71:
0000009c 4006ff10        413 	dispose	0,{r27,r28,r29,r31},[lp]
                         414 	.type	_R_GPIO_ReadIntPin,@function
                         415 	.size	_R_GPIO_ReadIntPin,.-_R_GPIO_ReadIntPin
                         416 	.align	2
                         417 .LDW81:
                         418 
                         419 --_Unit	r28	param
                         420 
                         421 	.data
                         422 	.text
                         423 
                         424 --161:     }
                         425 --162: }
                         426 
                         427 --165: /*******************************************************************************
                         428 --166:   Function: R_GPIO_EnableInt
                         429 --168:   see <r_gpio_api.h> for details 
                         430 --169: */
                         431 --170: void R_GPIO_EnableInt(uint32_t Unit) 
                         432 	.align	2
                         433 	.align	2
                         434 	.global	_R_GPIO_EnableInt
                         435 _R_GPIO_EnableInt:
000000a0 80076100        436 	prepare	{r29,r31},0
000000a4 06e8            437 	mov	r6,r29
                         438 --	    .bf
                         439 .LDW91:
                         440 --171: {
                         441 --172:     R_SYS_GPIO_EnableInt(Unit);
000000a6 1d30            442 	mov	r29,r6
                         443 	jarl	_R_SYS_GPIO_EnableInt,lp
                         443 <EXPANSION BEGIN>
                         443 jarl22 _R_SYS_GPIO_EnableInt , lp 
000000a8 80ff0000*       443 <EXPANSION END>
                         444 --173: }

                                                                      Page 9
                                                              C:\Users\YINGAO~1\AppData\Local\Temp\gh_000047o1.si
                         445 --line173
                         446 ..lin.D.3A.5CRenesas_Electronics.5CD1x_RGL.5Crgl_ghs_D1Lx_obj_V1.2E2.2E0.5Cvlib.5Capp.5Cgfx_apps.5Csimple_draw_d1l2.5Ctarget.5Cd1lx_mango_ghs.5Cobj.5Cr_gpio_isr.10::
                         447 .LDWlin10:
000000ac 0000            448 	nop
                         449 --	    .ef
                         450 .LDW02:
000000ae 40067f00        451 	dispose	0,{r29,r31},[lp]
                         452 	.type	_R_GPIO_EnableInt,@function
                         453 	.size	_R_GPIO_EnableInt,.-_R_GPIO_EnableInt
                         454 	.align	2
                         455 .LDW12:
                         456 
                         457 --_Unit	r29	param
                         458 
                         459 	.section ".bss","awb"
                         460 .L170:
                         461 	.type	.L170,@object
                         462 	.size	.L170,0
                         463 	.data
                         464 	.text
                         465 
                         466 
                         467 --176: /*******************************************************************************
                         468 --177:   Function: R_GPIO_DisableInt
                         469 --179:   see <r_gpio_api.h> for details 
                         470 --180: */
                         471 --181: void R_GPIO_DisableInt(uint32_t Unit)
                         472 	.align	2
                         473 	.align	2
                         474 	.global	_R_GPIO_DisableInt
                         475 _R_GPIO_DisableInt:
000000b2 80076100        476 	prepare	{r29,r31},0
000000b6 06e8            477 	mov	r6,r29
                         478 --	    .bf
                         479 .LDW22:
                         480 --182: {
                         481 --183:     R_SYS_GPIO_DisableInt(Unit);
000000b8 1d30            482 	mov	r29,r6
                         483 	jarl	_R_SYS_GPIO_DisableInt,lp
                         483 <EXPANSION BEGIN>
                         483 jarl22 _R_SYS_GPIO_DisableInt , lp 
000000ba 80ff0000*       483 <EXPANSION END>
                         484 --184: }
                         485 --line184
                         486 ..lin.D.3A.5CRenesas_Electronics.5CD1x_RGL.5Crgl_ghs_D1Lx_obj_V1.2E2.2E0.5Cvlib.5Capp.5Cgfx_apps.5Csimple_draw_d1l2.5Ctarget.5Cd1lx_mango_ghs.5Cobj.5Cr_gpio_isr.11::
                         487 .LDWlin11:
000000be 0000            488 	nop
                         489 --	    .ef
                         490 .LDW32:
000000c0 40067f00        491 	dispose	0,{r29,r31},[lp]
                         492 	.type	_R_GPIO_DisableInt,@function
                         493 	.size	_R_GPIO_DisableInt,.-_R_GPIO_DisableInt
                         494 	.align	2
                         495 .LDW42:
                         496 
                         497 --_Unit	r29	param
                         498 
                         499 	.section ".bss","awb"
                         500 .L202:
                         501 	.type	.L202,@object
                         502 	.size	.L202,0

                                                                      Page 10
                                                              C:\Users\YINGAO~1\AppData\Local\Temp\gh_000047o1.si
                         503 	.data
                         504 	.text
                         505 
                         506 
                         507 --186: /*******************************************************************************
                         508 --187:   Function: R_GPIO_InitInt
                         509 --188:   see <r_gpio_api.h> for details 
                         510 --189: */
                         511 --190: r_Error_t R_GPIO_InitInt(uint32_t Unit, r_gpio_IntConfig_t *Config) 
                         512 	.align	2
                         513 	.align	2
                         514 	.global	_R_GPIO_InitInt
                         515 _R_GPIO_InitInt:
000000c4 8007e130        516 	prepare	{r26,r27,r28,r29,r31},0
000000c8 3d0600000000*   517 	mov	_loc_IntConfig,r29
000000ce 06e0            518 	mov	r6,r28
000000d0 07d8            519 	mov	r7,r27
000000d2 1dd0            520 	mov	r29,r26
                         521 --	    .bf
                         522 .LDW52:
                         523 --191: {
                         524 --192:     if (Unit < R_GPIO_EXT_INT_NUM) 
000000d4 6be2            525 	cmp	11,r28
000000d6 b925*           526 	bnl	.L219
                         527 --193:     {
                         528 --194:         /* Store configuration */
                         529 --195:         loc_IntConfig[Unit].Port     = Config->Port; 
                         530 --line195
                         531 ..lin.D.3A.5CRenesas_Electronics.5CD1x_RGL.5Crgl_ghs_D1Lx_obj_V1.2E2.2E0.5Cvlib.5Capp.5Cgfx_apps.5Csimple_draw_d1l2.5Ctarget.5Cd1lx_mango_ghs.5Cobj.5Cr_gpio_isr.12::
                         532 .LDWlin12:
000000d8 1cf0            533 	mov	r28,ep
000000da fe00            534 	sxh	ep
000000dc fef60c00        535 	mulhi	12,ep,ep
000000e0 3b0f0100        536 	ld.w	0[r27],r1
000000e4 daf1            537 	add	r26,ep
000000e6 010d            538 	sst.w	r1,0[ep]
                         539 --196:         loc_IntConfig[Unit].Pin      = Config->Pin; 
000000e8 1cf0            540 	mov	r28,ep
000000ea fe00            541 	sxh	ep
000000ec fef60c00        542 	mulhi	12,ep,ep
000000f0 3b0f0500        543 	ld.w	4[r27],r1
000000f4 daf1            544 	add	r26,ep
000000f6 030d            545 	sst.w	r1,4[ep]
                         546 --197:         loc_IntConfig[Unit].Callback = Config->Callback; 
000000f8 1cf0            547 	mov	r28,ep
000000fa fe00            548 	sxh	ep
000000fc fef60c00        549 	mulhi	12,ep,ep
00000100 3b0f0d00        550 	ld.w	12[r27],r1
00000104 daf1            551 	add	r26,ep
00000106 050d            552 	sst.w	r1,8[ep]
                         553 --198:         
                         554 --199:         
                         555 --200:         /* init interrupt */
                         556 --201:         R_SYS_GPIO_SetIntFilter(Unit, Config->Trigger);   
00000108 3b3f0900        557 	ld.w	8[r27],r7
0000010c 1c30            558 	mov	r28,r6
                         559 	jarl	_R_SYS_GPIO_SetIntFilter,lp
                         559 <EXPANSION BEGIN>
                         559 jarl22 _R_SYS_GPIO_SetIntFilter , lp 
0000010e 80ff0000*       559 <EXPANSION END>
                         560 --202:         R_SYS_GPIO_ClearIntPendingFlag(Unit); 

                                                                      Page 11
                                                              C:\Users\YINGAO~1\AppData\Local\Temp\gh_000047o1.si
                         561 --line202
                         562 ..lin.D.3A.5CRenesas_Electronics.5CD1x_RGL.5Crgl_ghs_D1Lx_obj_V1.2E2.2E0.5Cvlib.5Capp.5Cgfx_apps.5Csimple_draw_d1l2.5Ctarget.5Cd1lx_mango_ghs.5Cobj.5Cr_gpio_isr.13::
                         563 .LDWlin13:
00000112 1c30            564 	mov	r28,r6
                         565 	jarl	_R_SYS_GPIO_ClearIntPendingFlag,lp
                         565 <EXPANSION BEGIN>
                         565 jarl22 _R_SYS_GPIO_ClearIntPendingFlag , lp 
00000114 80ff0000*       565 <EXPANSION END>
                         566 --203:         return R_ERR_OK; 
                         567 --line203
                         568 ..lin.D.3A.5CRenesas_Electronics.5CD1x_RGL.5Crgl_ghs_D1Lx_obj_V1.2E2.2E0.5Cvlib.5Capp.5Cgfx_apps.5Csimple_draw_d1l2.5Ctarget.5Cd1lx_mango_ghs.5Cobj.5Cr_gpio_isr.14::
                         569 .LDWlin14:
00000118 0052            570 	mov	0,r10
0000011a a505*           571 	br	.L217
                         572 .L219:
                         573 --204:     }
                         574 --205:     else 
                         575 --206:     {
                         576 --207:         return R_PARAMETER_INCORRECT;
                         577 --line207
                         578 ..lin.D.3A.5CRenesas_Electronics.5CD1x_RGL.5Crgl_ghs_D1Lx_obj_V1.2E2.2E0.5Cvlib.5Capp.5Cgfx_apps.5Csimple_draw_d1l2.5Ctarget.5Cd1lx_mango_ghs.5Cobj.5Cr_gpio_isr.15::
                         579 .LDWlin15:
0000011c 0452            580 	mov	4,r10
                         581 .L217:
                         582 --	    .ef
                         583 .LDW62:
0000011e 4006ff30        584 	dispose	0,{r26,r27,r28,r29,r31},[lp]
                         585 	.type	_R_GPIO_InitInt,@function
                         586 	.size	_R_GPIO_InitInt,.-_R_GPIO_InitInt
                         587 	.align	2
                         588 .LDW72:
                         589 
                         590 --_Unit	r28	param
                         591 --_Config	r27	param
                         592 
                         593 	.data
                         594 	.text
                         595 
                         596 --208:     }
                         597 --209: }
                         598 
                         599 --211: /*******************************************************************************
                         600 --212:   Function: R_GPIO_DeInitInt
                         601 --214:   see <r_gpio_api.h> for details 
                         602 --215: */
                         603 --216: r_Error_t R_GPIO_DeInitInt(uint32_t Unit) 
                         604 	.align	2
                         605 	.align	2
                         606 	.global	_R_GPIO_DeInitInt
                         607 _R_GPIO_DeInitInt:
00000122 80076100        608 	prepare	{r29,r31},0
00000126 06e8            609 	mov	r6,r29
                         610 --	    .bf
                         611 .LDW82:
                         612 --217: {
                         613 --218:     if (Unit < R_GPIO_EXT_INT_NUM) 
00000128 6bea            614 	cmp	11,r29
0000012a 990d*           615 	bnl	.L280
                         616 --219:     {
                         617 --220:         /* init interrupt */
                         618 --221:         R_SYS_GPIO_ClearIntPendingFlag(Unit); 

                                                                      Page 12
                                                              C:\Users\YINGAO~1\AppData\Local\Temp\gh_000047o1.si
                         619 --line221
                         620 ..lin.D.3A.5CRenesas_Electronics.5CD1x_RGL.5Crgl_ghs_D1Lx_obj_V1.2E2.2E0.5Cvlib.5Capp.5Cgfx_apps.5Csimple_draw_d1l2.5Ctarget.5Cd1lx_mango_ghs.5Cobj.5Cr_gpio_isr.16::
                         621 .LDWlin16:
0000012c 1d30            622 	mov	r29,r6
                         623 	jarl	_R_SYS_GPIO_ClearIntPendingFlag,lp
                         623 <EXPANSION BEGIN>
                         623 jarl22 _R_SYS_GPIO_ClearIntPendingFlag , lp 
0000012e 80ff0000*       623 <EXPANSION END>
                         624 --222:         R_SYS_GPIO_DisableInt(Unit);
                         625 --line222
                         626 ..lin.D.3A.5CRenesas_Electronics.5CD1x_RGL.5Crgl_ghs_D1Lx_obj_V1.2E2.2E0.5Cvlib.5Capp.5Cgfx_apps.5Csimple_draw_d1l2.5Ctarget.5Cd1lx_mango_ghs.5Cobj.5Cr_gpio_isr.17::
                         627 .LDWlin17:
00000132 1d30            628 	mov	r29,r6
                         629 	jarl	_R_SYS_GPIO_DisableInt,lp
                         629 <EXPANSION BEGIN>
                         629 jarl22 _R_SYS_GPIO_DisableInt , lp 
00000134 80ff0000*       629 <EXPANSION END>
                         630 --223:         return R_ERR_OK; 
                         631 --line223
                         632 ..lin.D.3A.5CRenesas_Electronics.5CD1x_RGL.5Crgl_ghs_D1Lx_obj_V1.2E2.2E0.5Cvlib.5Capp.5Cgfx_apps.5Csimple_draw_d1l2.5Ctarget.5Cd1lx_mango_ghs.5Cobj.5Cr_gpio_isr.18::
                         633 .LDWlin18:
00000138 0052            634 	mov	0,r10
0000013a a505*           635 	br	.L278
                         636 .L280:
                         637 --224:     }
                         638 --225:     else 
                         639 --226:     {
                         640 --227:         return R_PARAMETER_INCORRECT;
                         641 --line227
                         642 ..lin.D.3A.5CRenesas_Electronics.5CD1x_RGL.5Crgl_ghs_D1Lx_obj_V1.2E2.2E0.5Cvlib.5Capp.5Cgfx_apps.5Csimple_draw_d1l2.5Ctarget.5Cd1lx_mango_ghs.5Cobj.5Cr_gpio_isr.19::
                         643 .LDWlin19:
0000013c 0452            644 	mov	4,r10
                         645 .L278:
                         646 --	    .ef
                         647 .LDW92:
0000013e 40067f00        648 	dispose	0,{r29,r31},[lp]
                         649 	.type	_R_GPIO_DeInitInt,@function
                         650 	.size	_R_GPIO_DeInitInt,.-_R_GPIO_DeInitInt
                         651 	.align	2
                         652 .LDW03:
                         653 
                         654 --_Unit	r29	param
                         655 
                         656 	.section ".bss","awb"
                         657 .L304:
                         658 	.type	.L304,@object
                         659 	.size	.L304,0
                         660 	.data
                         661 	.text
                         662 
                         663 --228:     }
                         664 --229: }
                         665 	.align	2
                         666 --_loc_IntConfig	_loc_IntConfig	static
                         667 
                         668 	.data
                         669 	.ghsnote version,14
                         670 	.ghsnote tools,3
                         671 	.ghsnote options,144
                         672 	.text
                         673 	.align	2

                                                                      Page 13
                                                              C:\Users\YINGAO~1\AppData\Local\Temp\gh_000047o1.si
                         674 ..eof.D.3A.5CRenesas_Electronics.5CD1x_RGL.5Crgl_ghs_D1Lx_obj_V1.2E2.2E0.5Cvlib.5Capp.5Cgfx_apps.5Csimple_draw_d1l2.5Ctarget.5Cd1lx_mango_ghs.5Cobj.5Cr_gpio_isr...44.3A.5CRenesas_Electronics.5CD1x_RGL.5Crgl_ghs_D1Lx_obj_V1.2E2.2E0.5Cvlib.5Capp.5Cgfx_apps.5Csimple_draw_d1l2.5Ctarget.5Cd1lx_mango_ghs..5A740386..0::
                         675 .rh850_flags REGMODE22,DATA_ALIGN8,GP_FIX,EP_NONFIX,TP_FIX,REG2_RESERVE,G3M
