                                                                      Page 1
                                                              C:\Users\YINGAO~1\AppData\Local\Temp\gh_00007uk1.si
Command Line: C:\ghs\comp_201355\ease850.exe -w -elf -b0 -ID:\Renesas_Electronics\D1x_RGL\rgl_ghs_D1Lx_obj_V1.2.0\vlib\macro\flashc\sfma\lib -I../../../../../Device -I../../../../../Driver/ADCE -I../../../../../Driver/CLOCK -I../../../../../Driver/DIO -I../../../../../Driver/DSPI -I../../../../../Driver/Interrupt -I../../../../../Driver/ISM -I../../../../../Driver/OSTM -I../../../../../Driver/PWM -I../../../../../Driver/RSTC -I../../../../../Driver/RTCA -I../../../../../Driver/STBC -I../../../../../Driver/TAUB -I../../../../../Driver/WDT -I../../../../../middleware\ADM -I../../../../../middleware\BPM -I../../../../../middleware\EED -I../../../../../middleware\IOM -I../../../../../middleware\LRM -I../../../../../middleware\MOM -I../../../../../middleware\PWMM -I../../../../../Common -I../../../../../Applayer\DSM -I../../../../../Applayer\FM -I../../../../../Applayer\TPM -I../../../../../Applayer\ACC -I../../../../../Applayer\ASS -I../../../../../Applayer\BAT -I../../../../../Applayer\COM -I../../../../../Applayer\COM\vtp -I../../../../../Applayer\COM\vtp\lib -I../../../../../Applayer\CRUS -I../../../../../Applayer\DIAG -I../../../../../Applayer\FC -I../../../../../Applayer\FL -I../../../../../Applayer\HSD -I../../../../../Applayer\IDLE -I../../../../../Applayer\ILLU -I../../../../../Applayer\LED -I../../../../../Applayer\MSG -I../../../../../Applayer\NVM -I../../../../../Applayer\ODO -I../../../../../Applayer\PWR -I../../../../../Applayer\RANG -I../../../../../Applayer\RST -I../../../../../Applayer\RTC -I../../../../../Applayer\SCS -I../../../../../Applayer\SSB -I../../../../../Applayer\ST -I../../../../../Applayer\STSMG -I../../../../../Applayer\SYS -I../../../../../Applayer\TIP -I../../../../../Applayer\TRIP -I../../../../../Applayer\CHM -I../../../../../Applayer\DM -I../../../../../Applayer\EVT -I../../../../../Applayer\FTR -I../../../../../Applayer\SLF -I../../../../../Applayer\NWD -I../../../../../Applayer\TPMS -I../../../../../Applayer\WFM -I../../../../../Applayer\NZM -I../../../../../app/gfx_apps/simple_draw_d1l2/src -I../../../../../bsp/board//config -I../../../../../bsp/board//src/gfx -I../../../../../bsp/board//src/hmi -I../../../../../bsp/board//src/stdio -I../../../../../bsp/board/d1lx_mango/config -I../../../../../bsp/board/d1lx_mango/src -I../../../../../bsp/board/d1lx_mango/src/gfx -I../../../../../bsp/board/d1lx_mango/src/hmi -I../../../../../bsp/board/d1lx_mango/src/stdio -I../../../../../bsp/gfx/lib -I../../../../../bsp/gfx/src -I../../../../../bsp/hmi/lib -I../../../../../bsp/hmi/src -I../../../../../bsp/lib -I../../../../../bsp/stdio/lib -I../../../../../bsp/stdio/src -I../../../../../cdi/lib -I../../../../../cdi/src -I../../../../../compiler/rh850_ghs/inc -I../../../../../device/d1lx/lib -I../../../../../device/d1lx/macro_cfg -I../../../../../device/d1lx/src/dev -I../../../../../device/d1lx/src/rh850_ghs -I../../../../../device/d1x_common/macro_cfg -I../../../../../device/d1x_common/src/csisw -I../../../../../device/d1x_common/src/ddb -I../../../../../device/d1x_common/src/dev -I../../../../../device/d1x_common/src/gfxbus -I../../../../../device/d1x_common/src/gpio -I../../../../../device/d1x_common/src/ostm -I../../../../../device/d1x_common/src/pbg -I../../../../../device/d1x_common/src/riic -I../../../../../device/d1x_common/src/sfma -I../../../../../device/d1x_common/src/spea -I../../../../../device/d1x_common/src/tauj -I../../../../../device/d1x_common/src/tick -I../../../../../device/d1x_common/src/vdce -I../../../../../device/d1x_common/src/wm -I../../../../../device/d1x_common/src/xbus -I../../../../../device/lib -I../../../../../macro/bus/pbg/lib -I../../../../../macro/bus/pbg/src -I../../../../../macro/csi/csisw/lib -I../../../../../macro/csi/csisw/src -I../../../../../macro/drw2d/lib -I../../../../../macro/drw2d/platform/cpu -I../../../../../macro/drw2d/platform/os/no_os -I../../../../../macro/drw2d/src -I../../../../../macro/flashc/sfcdb/lib -I../../../../../macro/flashc/sfcdb/src -I../../../../../macro/flashc/sfma/lib -I../../../../../macro/flashc/sfma/src -I../../../../../macro/gfxbus/lib -I../../../../../macro/gfxbus/src -I../../../../../macro/gfxbus/xbus/lib -I../../../../../macro/gfxbus/xbus/src -I../../../../../macro/gpio/lib -I../../../../../macro/gpio/src -I../../../../../macro/i2c/riic/lib -I../../../../../macro/i2c/riic/src -I../../../../../macro/tick/lib -I../../../../../macro/tick/src -I../../../../../macro/timer/ostm/lib -I../../../../../macro/timer/ostm/src -I../../../../../macro/timer/tauj/lib -I../../../../../macro/timer/tauj/src -I../../../../../macro/vdce/lib -I../../../../../macro/vdce/src -I../../../../../macro/vo/ddb/lib -I../../../../../macro/vo/ddb/src -I../../../../../macro/vo/spea/lib -I../../../../../macro/vo/spea/src -I../../../../../macro/wm/lib -I../../../../../macro/wm/src -I../../../../../app/gfx_apps/simple_draw_d1l2/src/QD_HMI -I../../../../../app/gfx_apps/simple_draw_d1l2/src/QD_HMI/HMI_Data -IC:\ghs\comp_201355\lib\rh850_22 -cg_underscore -cpu=rh850g3m -no_v850_simd -nomacro -patch_dbo=D:\Renesas_Electronics\D1x_RGL\rgl_ghs_D1Lx_obj_V1.2.0\vlib\app\gfx_apps\simple_draw_d1l2\target\d1lx_mango_ghs\obj\r_pbg_sys.dbo -source=r_pbg_sys.c -o .\obj\gh_00007uk1.o -list=.\obj\r_pbg_sys.lst C:\Users\YINGAO~1\AppData\Local\Temp\gh_00007uk1.si 
Original File: C:\Users\YINGAO~1\AppData\Local\Temp\gh_00007uk1.si
Source File: r_pbg_sys.c
Directory: D:\Renesas_Electronics\D1x_RGL\rgl_ghs_D1Lx_obj_V1.2.0\vlib\app\gfx_apps\simple_draw_d1l2\target\d1lx_mango_ghs
Host OS: Windows 7 Service Pack 1
EASE: Copyright (C) 1983-2013 Green Hills Software.  All Rights Reversed.
Release: Compiler v2013.5.5
Build Directory: [Directory] BTOWINBOX:c:/build_2013_5_bto/2013-10-04.1311-2013_5_bto/win32-comp-ecom
Revision: [VCInfo] http://toolsvc/branches/release-branch-2013-5-bto/src@496240 (built by build)
Revision Date: Sat Oct 05 04:54:43 2013

Release Date: Sat Oct 05 05:20:49 2013

                           1 --Driver Command: ccv850 -c -MD
                           2 --		-ID:\Renesas_Electronics\D1x_RGL\rgl_ghs_D1Lx_obj_V1.2.0\vlib\macro\flashc\sfma\lib
                           3 --		-I../../../../../Device -I../../../../../Driver/ADCE
                           4 --		-I../../../../../Driver/CLOCK -I../../../../../Driver/DIO
                           5 --		-I../../../../../Driver/DSPI -I../../../../../Driver/Interrupt
                           6 --		-I../../../../../Driver/ISM -I../../../../../Driver/OSTM
                           7 --		-I../../../../../Driver/PWM -I../../../../../Driver/RSTC
                           8 --		-I../../../../../Driver/RTCA -I../../../../../Driver/STBC
                           9 --		-I../../../../../Driver/TAUB -I../../../../../Driver/WDT
                          10 --		-I../../../../../middleware\ADM -I../../../../../middleware\BPM
                          11 --		-I../../../../../middleware\EED -I../../../../../middleware\IOM
                          12 --		-I../../../../../middleware\LRM -I../../../../../middleware\MOM
                          13 --		-I../../../../../middleware\PWMM -I../../../../../Common
                          14 --		-I../../../../../Applayer\DSM -I../../../../../Applayer\FM
                          15 --		-I../../../../../Applayer\TPM -I../../../../../Applayer\ACC
                          16 --		-I../../../../../Applayer\ASS -I../../../../../Applayer\BAT
                          17 --		-I../../../../../Applayer\COM -I../../../../../Applayer\COM\vtp
                          18 --		-I../../../../../Applayer\COM\vtp\lib
                          19 --		-I../../../../../Applayer\CRUS -I../../../../../Applayer\DIAG
                          20 --		-I../../../../../Applayer\FC -I../../../../../Applayer\FL
                          21 --		-I../../../../../Applayer\HSD -I../../../../../Applayer\IDLE
                          22 --		-I../../../../../Applayer\ILLU -I../../../../../Applayer\LED
                          23 --		-I../../../../../Applayer\MSG -I../../../../../Applayer\NVM
                          24 --		-I../../../../../Applayer\ODO -I../../../../../Applayer\PWR
                          25 --		-I../../../../../Applayer\RANG -I../../../../../Applayer\RST
                          26 --		-I../../../../../Applayer\RTC -I../../../../../Applayer\SCS
                          27 --		-I../../../../../Applayer\SSB -I../../../../../Applayer\ST
                          28 --		-I../../../../../Applayer\STSMG -I../../../../../Applayer\SYS
                          29 --		-I../../../../../Applayer\TIP -I../../../../../Applayer\TRIP
                          30 --		-I../../../../../Applayer\CHM -I../../../../../Applayer\DM
                          31 --		-I../../../../../Applayer\EVT -I../../../../../Applayer\FTR
                          32 --		-I../../../../../Applayer\SLF -I../../../../../Applayer\NWD
                          33 --		-I../../../../../Applayer\TPMS -I../../../../../Applayer\WFM
                          34 --		-I../../../../../Applayer\NZM
                          35 --		-I../../../../../app/gfx_apps/simple_draw_d1l2/src
                          36 --		-I../../../../../bsp/board//config
                          37 --		-I../../../../../bsp/board//src/gfx
                          38 --		-I../../../../../bsp/board//src/hmi
                          39 --		-I../../../../../bsp/board//src/stdio
                          40 --		-I../../../../../bsp/board/d1lx_mango/config
                          41 --		-I../../../../../bsp/board/d1lx_mango/src
                          42 --		-I../../../../../bsp/board/d1lx_mango/src/gfx
                          43 --		-I../../../../../bsp/board/d1lx_mango/src/hmi
                          44 --		-I../../../../../bsp/board/d1lx_mango/src/stdio
                          45 --		-I../../../../../bsp/gfx/lib -I../../../../../bsp/gfx/src
                          46 --		-I../../../../../bsp/hmi/lib -I../../../../../bsp/hmi/src
                          47 --		-I../../../../../bsp/lib -I../../../../../bsp/stdio/lib
                          48 --		-I../../../../../bsp/stdio/src -I../../../../../cdi/lib
                          49 --		-I../../../../../cdi/src -I../../../../../compiler/rh850_ghs/inc
                          50 --		-I../../../../../device/d1lx/lib

                                                                      Page 2
                                                              C:\Users\YINGAO~1\AppData\Local\Temp\gh_00007uk1.si
                          51 --		-I../../../../../device/d1lx/macro_cfg
                          52 --		-I../../../../../device/d1lx/src/dev
                          53 --		-I../../../../../device/d1lx/src/rh850_ghs
                          54 --		-I../../../../../device/d1x_common/macro_cfg
                          55 --		-I../../../../../device/d1x_common/src/csisw
                          56 --		-I../../../../../device/d1x_common/src/ddb
                          57 --		-I../../../../../device/d1x_common/src/dev
                          58 --		-I../../../../../device/d1x_common/src/gfxbus
                          59 --		-I../../../../../device/d1x_common/src/gpio
                          60 --		-I../../../../../device/d1x_common/src/ostm
                          61 --		-I../../../../../device/d1x_common/src/pbg
                          62 --		-I../../../../../device/d1x_common/src/riic
                          63 --		-I../../../../../device/d1x_common/src/sfma
                          64 --		-I../../../../../device/d1x_common/src/spea
                          65 --		-I../../../../../device/d1x_common/src/tauj
                          66 --		-I../../../../../device/d1x_common/src/tick
                          67 --		-I../../../../../device/d1x_common/src/vdce
                          68 --		-I../../../../../device/d1x_common/src/wm
                          69 --		-I../../../../../device/d1x_common/src/xbus
                          70 --		-I../../../../../device/lib -I../../../../../macro/bus/pbg/lib
                          71 --		-I../../../../../macro/bus/pbg/src
                          72 --		-I../../../../../macro/csi/csisw/lib
                          73 --		-I../../../../../macro/csi/csisw/src
                          74 --		-I../../../../../macro/drw2d/lib
                          75 --		-I../../../../../macro/drw2d/platform/cpu
                          76 --		-I../../../../../macro/drw2d/platform/os/no_os
                          77 --		-I../../../../../macro/drw2d/src
                          78 --		-I../../../../../macro/flashc/sfcdb/lib
                          79 --		-I../../../../../macro/flashc/sfcdb/src
                          80 --		-I../../../../../macro/flashc/sfma/lib
                          81 --		-I../../../../../macro/flashc/sfma/src
                          82 --		-I../../../../../macro/gfxbus/lib
                          83 --		-I../../../../../macro/gfxbus/src
                          84 --		-I../../../../../macro/gfxbus/xbus/lib
                          85 --		-I../../../../../macro/gfxbus/xbus/src
                          86 --		-I../../../../../macro/gpio/lib -I../../../../../macro/gpio/src
                          87 --		-I../../../../../macro/i2c/riic/lib
                          88 --		-I../../../../../macro/i2c/riic/src
                          89 --		-I../../../../../macro/tick/lib -I../../../../../macro/tick/src
                          90 --		-I../../../../../macro/timer/ostm/lib
                          91 --		-I../../../../../macro/timer/ostm/src
                          92 --		-I../../../../../macro/timer/tauj/lib
                          93 --		-I../../../../../macro/timer/tauj/src
                          94 --		-I../../../../../macro/vdce/lib -I../../../../../macro/vdce/src
                          95 --		-I../../../../../macro/vo/ddb/lib
                          96 --		-I../../../../../macro/vo/ddb/src
                          97 --		-I../../../../../macro/vo/spea/lib
                          98 --		-I../../../../../macro/vo/spea/src -I../../../../../macro/wm/lib
                          99 --		-I../../../../../macro/wm/src
                         100 --		-I../../../../../app/gfx_apps/simple_draw_d1l2/src/QD_HMI
                         101 --		-I../../../../../app/gfx_apps/simple_draw_d1l2/src/QD_HMI/HMI_Data
                         102 --		-G --no_commons --no_implicit_include --prototype_errors
                         103 --		-DR_DRW2D_OS_NO_OS -DR_DRW2D_SYS_CPU -DUSED_CPU=RH850G3M
                         104 --		-DUSE_BSP_GFX -DUSE_BSP_HMI -DUSE_BSP_STDIO -DUSE_CDI -DUSE_CSISW
                         105 --		-DUSE_DDB -DUSE_DRW2D -DUSE_GFXBUS -DUSE_GPIO -DUSE_OSTM
                         106 --		-DUSE_PBG -DUSE_RIIC -DUSE_SFCDB -DUSE_SFMA -DUSE_SPEA -DUSE_TAUJ
                         107 --		-DUSE_TICK -DUSE_VDCE -DUSE_WM -DUSE_XBUS -MD -Mn -Mx -Zuse1bit
                         108 --		-allocate_ep -cpu=rh850g3m -entry=_RESET -large_sda -list
                         109 --		-no_callt -notda -passsource -preprocess_assembly_files
                         110 --		-registermode=22 -reserve_r2 --diag_warning 1 -object_dir=./obj
                         111 --		-filetype.c ..\..\..\..\..\device\d1x_common\src\pbg\r_pbg_sys.c

                                                                      Page 3
                                                              C:\Users\YINGAO~1\AppData\Local\Temp\gh_00007uk1.si
                         112 --		-o .\obj\r_pbg_sys.o
                         113 --Source File:   ..\..\..\..\..\device\d1x_common\src\pbg\r_pbg_sys.c
                         114 --Directory:     
                         115 --		D:\Renesas_Electronics\D1x_RGL\rgl_ghs_D1Lx_obj_V1.2.0\vlib\app\gfx_apps\simple_draw_d1l2\target\d1lx_mango_ghs
                         116 --Compile Date:  Fri Feb 02 14:21:56 2018
                         117 --Host OS:       Win32
                         118 --Version:       C-RH850 2013.5.5 DEVELOPMENT VERSION
                         119 --Release:       Compiler v2013.5.5
                         120 --Revision Date: Sat Oct 05 05:01:20 2013
                         121 --Release Date:  Sat Oct 05 05:22:44 2013
                         122 -- ecom  -g -w
                         123 
                         124 --1: /*
                         125 --2: ****************************************************************************
                         126 --3: PROJECT : VLIB macro device level driver
                         127 --4: FILE    : $Id: r_pbg_sys.c 7186 2016-01-08 10:53:03Z tobyas.hennig $
                         128 --5: ============================================================================ 
                         129 --6: DESCRIPTION
                         130 --7: PBus GUARD system functions for D1x
                         131 --8: ============================================================================
                         132 --9:                             C O P Y R I G H T                            
                         133 --10: ============================================================================
                         134 --11:                            Copyright (c) 2015
                         135 --12:                                   by 
                         136 --13:                        Renesas Electronics (Europe) GmbH. 
                         137 --14:                            Arcadiastrasse 10
                         138 --15:                           D-40472 Duesseldorf
                         139 --16:                                Germany
                         140 --17:                           All rights reserved.
                         141 --18: ============================================================================
                         142 --19: Purpose: only for testing
                         143 --21: DISCLAIMER                                                                   
                         144 --22: This software is supplied by Renesas Electronics Corporation and is only     
                         145 --23: intended for use with Renesas products. No other uses are authorized. This   
                         146 --24: software is owned by Renesas Electronics Corporation and is protected under  
                         147 --25: all applicable laws, including copyright laws.                               
                         148 --26: THIS SOFTWARE IS PROVIDED "AS IS" AND RENESAS MAKES NO WARRANTIES REGARDING  
                         149 --27: THIS SOFTWARE, WHETHER EXPRESS, IMPLIED OR STATUTORY, INCLUDING BUT NOT      
                         150 --28: LIMITED TO WARRANTIES OF MERCHANTABILITY, FITNESS FOR A PARTICULAR PURPOSE   
                         151 --29: AND NON-INFRINGEMENT. ALL SUCH WARRANTIES ARE EXPRESSLY DISCLAIMED.          
                         152 --30: TO THE MAXIMUM EXTENT PERMITTED NOT PROHIBITED BY LAW, NEITHER RENESAS       
                         153 --31: ELECTRONICS CORPORATION NOR ANY OF ITS AFFILIATED COMPANIES SHALL BE LIABLE  
                         154 --32: FOR ANY DIRECT, INDIRECT, SPECIAL, INCIDENTAL OR CONSEQUENTIAL DAMAGES FOR   
                         155 --33: ANY REASON RELATED TO THIS SOFTWARE, EVEN IF RENESAS OR ITS AFFILIATES HAVE  
                         156 --34: BEEN ADVISED OF THE POSSIBILITY OF SUCH DAMAGES.                             
                         157 --35: Renesas reserves the right, without notice, to make changes to this software 
                         158 --36: and to discontinue the availability of this software. By using this software,
                         159 --37: you agree to the additional terms and conditions found by accessing the      
                         160 --38: following link:                                                              
                         161 --39: http://www.renesas.com/disclaimer *                                          
                         162 --40: Copyright (C) 2011 Renesas Electronics Corporation. All rights reserved.     
                         163 --42: ****************************************************************************
                         164 --43: */
                         165 --46: /*******************************************************************************
                         166 --47:   Title: PBus GUARD device functions
                         167 --49:   Implementation of the PBus GUARD support functions for the device.
                         168 --50: */
                         169 --52: /*******************************************************************************
                         170 --53:   Section: Includes
                         171 --54: */
                         172 --56: #include "r_typedefs.h"

                                                                      Page 4
                                                              C:\Users\YINGAO~1\AppData\Local\Temp\gh_00007uk1.si
                         173 --57: #include "r_dev_api.h"
                         174 --59: #include "r_pbg_api.h"
                         175 --60: #include "r_pbg_sys.h"
                         176 --61: #include "r_config_pbg.h"
                         177 --65: /*******************************************************************************
                         178 --66:   Section: Local Constants
                         179 --67: */
                         180 --69: const r_pbg_t r_pbus_guards[] = {
                         181 --70:     /* bus guard,       channels, base0,      base1 */
                         182 --71:         /* Data Flash, ICU-S, Data Flash ECC, P0A_ERRSLV*/
                         183 --73:     { R_DEV_PBG_PBG0A,  0x00F1u, 0xFFF94000u, 0xFFF95000u }, /* PBG0A  - Ch 0,       4,5 6,7                         */
                         184 --74:         /* INTC2, DMA */
                         185 --75:     { R_DEV_PBG_PBG0B,  0x0003u, 0xFFC4C000u, 0xFFC4C800u }, /* PBG0B  - Ch 0,1                                      */
                         186 --76:         /* SSIF0, SSIF1, LCBI0, P1A_ERRSLV, SDRB0, DRCA0 */
                         187 --77:     { R_DEV_PBG_PBG1A,  0x0077u, 0xFFF9B000u, 0xFFF9C000u }, /* PBG1A  - Ch 0,1,2,   4,5,6                           */
                         188 --78:     { R_DEV_PBG_PBG10A, 0x007Fu, 0xFFF9D000u, 0xFFF9E000u }, /* PBG10A - Ch 0,1,2,3, 4,5,6                           */
                         189 --79:     { R_DEV_PBG_PBG2A,  0x02FFu, 0xFFFC7000u, 0xFFFC8000u }, /* PBG2A  - Ch 0,1,2,3, 4,5,6,7,   9                    */
                         190 --80:     { R_DEV_PBG_PBG3A,  0x01FAu, 0xFFDC0000u, 0xFFDC1000u }, /* PBG3A  - Ch   1,  3, 4,5,6,7, 8                      */
                         191 --81:     { R_DEV_PBG_PBG3B,  0x0DFFu, 0xFFDC2000u, 0xFFDC3000u }, /* PBG3B  - Ch 0,1,2,3, 4,5,6,7, 8,  10,11              */
                         192 --82:     { R_DEV_PBG_PBG30A, 0xFFFFu, 0xFFDC8000u, 0xFFDC9000u }, /* PBG30A - Ch 0,1,2,3, 4,5,6,7, 8,9,10,11 ,12,13,14,15 */
                         193 --83:     { R_DEV_PBG_PBG30B, 0x0003u, 0xFFDCA000u, 0xFFDCB000u }, /* PBG30B - Ch 0,1                                      */
                         194 --84:     { R_DEV_PBG_PBG5A,  0xF78Cu, 0xFFF90000u, 0xFFF90400u }, /* PBG5A  - Ch     2,3,       7, 8,9,10,    12,13,14,15 */
                         195 --85:     { R_DEV_PBG_PBG5B,  0x07FFu, 0xFFF90800u, 0xFFF90C00u }, /* PBG5B  - Ch 0,1,2,3, 4,5,6,7, 8,9,10                 */
                         196 --86:     { R_DEV_PBG_PBG5C,  0x1FFFu, 0xFFF91000u, 0xFFF91400u }, /* PBG5C  - Ch 0,1,2,3, 4,5,6,7, 8,9,10,11 ,12          */
                         197 --88:     { R_DEV_PBG_PBG32A, 0xFFFFu, 0xFFDC4000u, 0xFFDC5000u }, /* PBG32A - Ch 0,1,2,3, 4,5,6,7, 8,9,10,11 ,12,13,14,15 */
                         198 --89:     { R_DEV_PBG_PBG32B, 0x000Fu, 0xFFDC6000u, 0xFFDC7000u }, /* PBG32B - Ch 0,1,2,3,                                 */
                         199 --91:     /* DELIMITER - DO NOT CHANGE */
                         200 --92:     { R_DEV_PBG_NUM, 0, 0, 0   }
                         201 --93: };
                         202 --96: /*******************************************************************************
                         203 --97:   Section: Global Functions
                         204 --99: */
                         205 --101: /*******************************************************************************
                         206 --102:   Function: R_PBG_SYS_BaseAddr
                         207 --103:   
                         208 --104:   See: r_pbg_sys.h for details
                         209 --105: */
                         210 --107: r_pbg_Error_t R_PBG_SYS_GetInstance(r_pbg_Id_t Id, r_pbg_t *Instance)
                         211 	.text
                         212 ..bof.D.3A.5CRenesas_Electronics.5CD1x_RGL.5Crgl_ghs_D1Lx_obj_V1.2E2.2E0.5Cvlib.5Capp.5Cgfx_apps.5Csimple_draw_d1l2.5Ctarget.5Cd1lx_mango_ghs.5Cobj.5Cr_pbg_sys...44.3A.5CRenesas_Electronics.5CD1x_RGL.5Crgl_ghs_D1Lx_obj_V1.2E2.2E0.5Cvlib.5Capp.5Cgfx_apps.5Csimple_draw_d1l2.5Ctarget.5Cd1lx_mango_ghs..5A740384..0::
                         213 	.align	2
                         214 	.global	_R_PBG_SYS_GetInstance
                         215 _R_PBG_SYS_GetInstance:
00000000 501a            216 	add	-16,sp
00000002 0808            217 	mov	r8,r1
00000004 633f0500        218 	st.w	r7,4[sp]
00000008 63370100        219 	st.w	r6,0[sp]
                         220 --	    .bf
                         221 .LDW01:
                         222 --108: {
                         223 --109:     const r_pbg_t * pbus_guard_ptr = r_pbus_guards;
0000000c 3e0600000000*   224 	mov	_r_pbus_guards,ep
                         225 --110:     
                         226 --111:     /* Find the right instance */
                         227 --112:     /* Requested instance exceeds range */
                         228 --113:     if ( Id.Instance >= R_DEV_PBG_NUM )
00000012 23770100        229 	ld.w	0[sp],r14
00000016 6e72            230 	cmp	14,r14
00000018 a605*           231 	blt	.L4
                         232 --114:     {
                         233 --115:         pbus_guard_ptr = 0;

                                                                      Page 5
                                                              C:\Users\YINGAO~1\AppData\Local\Temp\gh_00007uk1.si
                         234 --line115
                         235 ..lin.D.3A.5CRenesas_Electronics.5CD1x_RGL.5Crgl_ghs_D1Lx_obj_V1.2E2.2E0.5Cvlib.5Capp.5Cgfx_apps.5Csimple_draw_d1l2.5Ctarget.5Cd1lx_mango_ghs.5Cobj.5Cr_pbg_sys.1::
                         236 .LDWlin1:
0000001a 00f2            237 	mov	0,ep
                         238 .L4:
                         239 --116:     }
                         240 --118:     while (0 != pbus_guard_ptr)
0000001c 851d*           241 	br	.L6
                         242 .L8:
                         243 --119:     {
                         244 --120:         /* Found requested instance */
                         245 --121:         if ( pbus_guard_ptr->Instance == Id.Instance )
                         246 --line121
                         247 ..lin.D.3A.5CRenesas_Electronics.5CD1x_RGL.5Crgl_ghs_D1Lx_obj_V1.2E2.2E0.5Cvlib.5Capp.5Cgfx_apps.5Csimple_draw_d1l2.5Ctarget.5Cd1lx_mango_ghs.5Cobj.5Cr_pbg_sys.2::
                         248 .LDWlin2:
0000001e 23770100        249 	ld.w	0[sp],r14
00000022 006d            250 	sld.w	0[ep],r13
00000024 ee69            251 	cmp	r14,r13
00000026 ba0d*           252 	bne	.L9
                         253 --122:         {
                         254 --123:             /* Check if the instance has the requested channel */
                         255 --124:             if ( 0 != ((uint32_t)pbus_guard_ptr->ChannelActive & (1ul << Id.Channel)) )
                         256 --line124
                         257 ..lin.D.3A.5CRenesas_Electronics.5CD1x_RGL.5Crgl_ghs_D1Lx_obj_V1.2E2.2E0.5Cvlib.5Capp.5Cgfx_apps.5Csimple_draw_d1l2.5Ctarget.5Cd1lx_mango_ghs.5Cobj.5Cr_pbg_sys.3::
                         258 .LDWlin3:
00000028 236f0500        259 	ld.w	4[sp],r13
0000002c 0172            260 	mov	1,r14
0000002e ed77c270        261 	shl	r13,r14,r14
00000032 7268            262 	sld.hu	4[ep],r13
00000034 4d71            263 	and	r13,r14
00000036 a205*           264 	be	.L11
                         265 --125:             {
                         266 --126:                 /* Found! */
                         267 --127:                 break;
                         268 --line127
                         269 ..lin.D.3A.5CRenesas_Electronics.5CD1x_RGL.5Crgl_ghs_D1Lx_obj_V1.2E2.2E0.5Cvlib.5Capp.5Cgfx_apps.5Csimple_draw_d1l2.5Ctarget.5Cd1lx_mango_ghs.5Cobj.5Cr_pbg_sys.4::
                         270 .LDWlin4:
00000038 c50d*           271 	br	.L13
                         272 .L11:
                         273 --128:             }
                         274 --129:             /* if requested channel does not exist. Zero will be returned.*/
                         275 --130:             else
                         276 --131:             {
                         277 --132:                 pbus_guard_ptr = 0;
                         278 --line132
                         279 ..lin.D.3A.5CRenesas_Electronics.5CD1x_RGL.5Crgl_ghs_D1Lx_obj_V1.2E2.2E0.5Cvlib.5Capp.5Cgfx_apps.5Csimple_draw_d1l2.5Ctarget.5Cd1lx_mango_ghs.5Cobj.5Cr_pbg_sys.5::
                         280 .LDWlin5:
0000003a 00f2            281 	mov	0,ep
                         282 .L9:
                         283 --133:             }
                         284 --134:         }
                         285 --135:         /* Requested instance not found */
                         286 --136:         if ( R_DEV_PBG_NUM == pbus_guard_ptr->Instance )
0000003c 0075            287 	sld.w	0[ep],r14
0000003e 6e72            288 	cmp	14,r14
00000040 aa05*           289 	bne	.L16
                         290 --137:         {
                         291 --138:             pbus_guard_ptr = 0;
                         292 --line138
                         293 ..lin.D.3A.5CRenesas_Electronics.5CD1x_RGL.5Crgl_ghs_D1Lx_obj_V1.2E2.2E0.5Cvlib.5Capp.5Cgfx_apps.5Csimple_draw_d1l2.5Ctarget.5Cd1lx_mango_ghs.5Cobj.5Cr_pbg_sys.6::
                         294 .LDWlin6:

                                                                      Page 6
                                                              C:\Users\YINGAO~1\AppData\Local\Temp\gh_00007uk1.si
00000042 00f2            295 	mov	0,ep
                         296 .L16:
                         297 --139:         }
                         298 --140:         
                         299 --141:         /* Check next entry */
                         300 --142:         if ( 0 != pbus_guard_ptr )
00000044 e0f1            301 	cmp	zero,ep
00000046 b205*           302 	be	.L6
                         303 --143:         {
                         304 --144:             pbus_guard_ptr++;
                         305 --line144
                         306 ..lin.D.3A.5CRenesas_Electronics.5CD1x_RGL.5Crgl_ghs_D1Lx_obj_V1.2E2.2E0.5Cvlib.5Capp.5Cgfx_apps.5Csimple_draw_d1l2.5Ctarget.5Cd1lx_mango_ghs.5Cobj.5Cr_pbg_sys.7::
                         307 .LDWlin7:
00000048 1ef61000        308 	addi	16,ep,ep
                         309 .L6:
0000004c e0f1            310 	cmp	zero,ep
0000004e 8aed*           311 	bne	.L8
                         312 .L13:
                         313 --145:         }
                         314 --146:     }
                         315 --147:     
                         316 --148:     if (0 != pbus_guard_ptr)
                         317 --line148
                         318 ..lin.D.3A.5CRenesas_Electronics.5CD1x_RGL.5Crgl_ghs_D1Lx_obj_V1.2E2.2E0.5Cvlib.5Capp.5Cgfx_apps.5Csimple_draw_d1l2.5Ctarget.5Cd1lx_mango_ghs.5Cobj.5Cr_pbg_sys.8::
                         319 .LDWlin8:
00000050 e0f1            320 	cmp	zero,ep
00000052 f20d*           321 	be	.L20
                         322 --149:     {
                         323 --150:         *Instance = *pbus_guard_ptr;
                         324 --line150
                         325 ..lin.D.3A.5CRenesas_Electronics.5CD1x_RGL.5Crgl_ghs_D1Lx_obj_V1.2E2.2E0.5Cvlib.5Capp.5Cgfx_apps.5Csimple_draw_d1l2.5Ctarget.5Cd1lx_mango_ghs.5Cobj.5Cr_pbg_sys.9::
                         326 .LDWlin9:
00000054 0075            327 	sld.w	0[ep],r14
00000056 026d            328 	sld.w	4[ep],r13
00000058 0465            329 	sld.w	8[ep],r12
0000005a 065d            330 	sld.w	12[ep],r11
0000005c 61770100        331 	st.w	r14,0[r1]
00000060 616f0500        332 	st.w	r13,4[r1]
00000064 61670900        333 	st.w	r12,8[r1]
00000068 615f0d00        334 	st.w	r11,12[r1]
                         335 --151:         return R_PBG_ERR_OK;
0000006c 0052            336 	mov	0,r10
0000006e a505*           337 	br	.L2
                         338 .L20:
                         339 --152:     }
                         340 --153:     else
                         341 --154:     {
                         342 --155:         return R_PBG_ERR_RANGE;
                         343 --line155
                         344 ..lin.D.3A.5CRenesas_Electronics.5CD1x_RGL.5Crgl_ghs_D1Lx_obj_V1.2E2.2E0.5Cvlib.5Capp.5Cgfx_apps.5Csimple_draw_d1l2.5Ctarget.5Cd1lx_mango_ghs.5Cobj.5Cr_pbg_sys.10::
                         345 .LDWlin10:
00000070 0252            346 	mov	2,r10
                         347 .L2:
                         348 --	    .ef
                         349 .LDW11:
00000072 031e1000        350 	addi	16,sp,sp
00000076 7f00            351 	jmp	[lp]
                         352 	.type	_R_PBG_SYS_GetInstance,@function
                         353 	.size	_R_PBG_SYS_GetInstance,.-_R_PBG_SYS_GetInstance
                         354 	.align	2
                         355 .LDW21:

                                                                      Page 7
                                                              C:\Users\YINGAO~1\AppData\Local\Temp\gh_00007uk1.si
                         356 --_pbus_guard_ptr	ep	local
                         357 
                         358 --_Id	0[sp]	param
                         359 --_Instance	r1	param
                         360 
                         361 	.section ".bss","awb"
                         362 .L72:
                         363 	.type	.L72,@object
                         364 	.size	.L72,0
                         365 	.data
                         366 	.text
                         367 
                         368 --156:     }
                         369 --157: }
                         370 
                         371 --160: /*******************************************************************************
                         372 --161:   Function: R_PBG_ConfigureGuardSysCall_Internal
                         373 --163:   For those devices that have no Supervisor/User mode implemented yet, 
                         374 --164:   this call should redirect to <R_PBG_ConfigureGuard>
                         375 --165:     
                         376 --166:   See: <r_pbg_sys.h> 
                         377 --167: */
                         378 --168: r_pbg_Error_t R_PBG_ConfigureGuardSysCall_Internal(r_pbg_Id_t Id, r_pbg_Config_t Config)
                         379 	.align	2
                         380 	.align	2
                         381 	.global	_R_PBG_ConfigureGuardSysCall_Internal
                         382 _R_PBG_ConfigureGuardSysCall_Internal:
00000078 031ee8ff        383 	addi	-24,sp,sp
0000007c 633f0d00        384 	st.w	r7,12[sp]
00000080 63370900        385 	st.w	r6,8[sp]
00000084 63ff0500        386 	st.w	lp,4[sp]
00000088 63470100        387 	st.w	r8,0[sp]
                         388 --	    .bf
                         389 .LDW31:
                         390 --169: {
                         391 --170:     return (r_pbg_Error_t)R_DEV_SysCall(
0000008c 233e0800        392 	movea	8,sp,r7
00000090 23460000        393 	movea	0,sp,r8
00000094 0232            394 	mov	2,r6
00000096 004a            395 	mov	0,r9
                         396 	jarl	_R_DEV_SysCall,lp
                         396 <EXPANSION BEGIN>
                         396 jarl22 _R_DEV_SysCall , lp 
00000098 80ff0000*       396 <EXPANSION END>
                         397 --	    .ef
                         398 .LDW41:
                         399 --line172
                         400 ..lin.D.3A.5CRenesas_Electronics.5CD1x_RGL.5Crgl_ghs_D1Lx_obj_V1.2E2.2E0.5Cvlib.5Capp.5Cgfx_apps.5Csimple_draw_d1l2.5Ctarget.5Cd1lx_mango_ghs.5Cobj.5Cr_pbg_sys.11::
                         401 .LDWlin11:
0000009c 23ff0500        402 	ld.w	4[sp],lp
000000a0 031e1800        403 	addi	24,sp,sp
000000a4 7f00            404 	jmp	[lp]
                         405 	.type	_R_PBG_ConfigureGuardSysCall_Internal,@function
                         406 	.size	_R_PBG_ConfigureGuardSysCall_Internal,.-_R_PBG_ConfigureGuardSysCall_Internal
                         407 	.align	2
                         408 .LDW51:
                         409 
                         410 --_Id	8[sp]	param
                         411 --_Config	0[sp]	param
                         412 
                         413 	.section ".bss","awb"

                                                                      Page 8
                                                              C:\Users\YINGAO~1\AppData\Local\Temp\gh_00007uk1.si
                         414 .L152:
                         415 	.type	.L152,@object
                         416 	.size	.L152,0
                         417 	.data
                         418 	.text
                         419 
                         420 --171:         R_DEV_SYSCALL_CONFIGURE_PBG, (void*)(&Id), (void*)(&Config), 0);
                         421 --172: }
                         422 
                         423 --175: /*******************************************************************************
                         424 --176:   Function: R_PBG_SYS_HardwareInit
                         425 --177:   
                         426 --178:   See: r_PBG_sys.h for details
                         427 --179: */
                         428 --181: r_pbg_Error_t R_PBG_SYS_HardwareInit(uint32_t Unit) 
                         429 	.align	2
                         430 	.align	2
                         431 	.global	_R_PBG_SYS_HardwareInit
                         432 _R_PBG_SYS_HardwareInit:
000000a6 0608            433 	mov	r6,r1
                         434 --	    .bf
                         435 .LDW61:
                         436 --182: {
                         437 --183:     if (Unit >= R_PBG_MACRO_NUM) 
000000a8 6e0a            438 	cmp	14,r1
000000aa b105*           439 	bl	.L166
                         440 --184:     {
                         441 --185:         return R_PBG_ERR_RANGE; 
                         442 --line185
                         443 ..lin.D.3A.5CRenesas_Electronics.5CD1x_RGL.5Crgl_ghs_D1Lx_obj_V1.2E2.2E0.5Cvlib.5Capp.5Cgfx_apps.5Csimple_draw_d1l2.5Ctarget.5Cd1lx_mango_ghs.5Cobj.5Cr_pbg_sys.12::
                         444 .LDWlin12:
000000ac 0252            445 	mov	2,r10
000000ae a505*           446 	br	.L164
                         447 .L166:
                         448 --186:     }
                         449 --187:     else 
                         450 --188:     {
                         451 --189:         return R_PBG_ERR_OK;
                         452 --line189
                         453 ..lin.D.3A.5CRenesas_Electronics.5CD1x_RGL.5Crgl_ghs_D1Lx_obj_V1.2E2.2E0.5Cvlib.5Capp.5Cgfx_apps.5Csimple_draw_d1l2.5Ctarget.5Cd1lx_mango_ghs.5Cobj.5Cr_pbg_sys.13::
                         454 .LDWlin13:
000000b0 0052            455 	mov	0,r10
                         456 .L164:
                         457 --	    .ef
                         458 .LDW71:
000000b2 7f00            459 	jmp	[lp]
                         460 	.type	_R_PBG_SYS_HardwareInit,@function
                         461 	.size	_R_PBG_SYS_HardwareInit,.-_R_PBG_SYS_HardwareInit
                         462 	.align	2
                         463 .LDW81:
                         464 
                         465 --_Unit	r1	param
                         466 
                         467 	.section ".bss","awb"
                         468 .L188:
                         469 	.type	.L188,@object
                         470 	.size	.L188,0
                         471 	.data
                         472 	.text
                         473 
                         474 --190:     } 

                                                                      Page 9
                                                              C:\Users\YINGAO~1\AppData\Local\Temp\gh_00007uk1.si
                         475 --191: }
                         476 
                         477 --192: /*******************************************************************************
                         478 --193:   Function: R_PBG_SYS_HardwareDeInit
                         479 --194:   
                         480 --195:   See: r_PBG_sys.h for details
                         481 --196: */
                         482 --198: r_pbg_Error_t R_PBG_SYS_HardwareDeInit(uint32_t Unit) 
                         483 	.align	2
                         484 	.align	2
                         485 	.global	_R_PBG_SYS_HardwareDeInit
                         486 _R_PBG_SYS_HardwareDeInit:
000000b4 0608            487 	mov	r6,r1
                         488 --	    .bf
                         489 .LDW91:
                         490 --199: {
                         491 --200:     if (Unit >= R_PBG_MACRO_NUM) 
000000b6 6e0a            492 	cmp	14,r1
000000b8 b105*           493 	bl	.L208
                         494 --201:     {
                         495 --202:         return R_PBG_ERR_RANGE; 
                         496 --line202
                         497 ..lin.D.3A.5CRenesas_Electronics.5CD1x_RGL.5Crgl_ghs_D1Lx_obj_V1.2E2.2E0.5Cvlib.5Capp.5Cgfx_apps.5Csimple_draw_d1l2.5Ctarget.5Cd1lx_mango_ghs.5Cobj.5Cr_pbg_sys.14::
                         498 .LDWlin14:
000000ba 0252            499 	mov	2,r10
000000bc a505*           500 	br	.L206
                         501 .L208:
                         502 --203:     }
                         503 --204:     else 
                         504 --205:     {
                         505 --206:         return R_PBG_ERR_OK;
                         506 --line206
                         507 ..lin.D.3A.5CRenesas_Electronics.5CD1x_RGL.5Crgl_ghs_D1Lx_obj_V1.2E2.2E0.5Cvlib.5Capp.5Cgfx_apps.5Csimple_draw_d1l2.5Ctarget.5Cd1lx_mango_ghs.5Cobj.5Cr_pbg_sys.15::
                         508 .LDWlin15:
000000be 0052            509 	mov	0,r10
                         510 .L206:
                         511 --	    .ef
                         512 .LDW02:
000000c0 7f00            513 	jmp	[lp]
                         514 	.type	_R_PBG_SYS_HardwareDeInit,@function
                         515 	.size	_R_PBG_SYS_HardwareDeInit,.-_R_PBG_SYS_HardwareDeInit
                         516 	.align	2
                         517 .LDW12:
                         518 
                         519 --_Unit	r1	param
                         520 
                         521 	.section ".bss","awb"
                         522 .L236:
                         523 	.type	.L236,@object
                         524 	.size	.L236,0
                         525 	.data
                         526 	.text
                         527 
                         528 --207:     } 
                         529 --208: }
                         530 	.align	2
                         531 
                         532 	.section ".rodata","a"
                         533 	.align	4
                         534 	.global	_r_pbus_guards
00000000 00000000        535 _r_pbus_guards:	.space	4

                                                                      Page 10
                                                              C:\Users\YINGAO~1\AppData\Local\Temp\gh_00007uk1.si
00000004 f100            536 	.byte	241,0
00000006 0000            537 	.space	2
00000008 0040f9ff        538 	.byte	0,64,249,255
0000000c 0050f9ff        539 	.byte	0,80,249,255
00000010 01000000        540 	.byte	1,0,0,0
00000014 0300            541 	.byte	3,0
00000016 0000            542 	.space	2
00000018 00c0c4ff        543 	.byte	0,192,196,255
0000001c 00c8c4ff        544 	.byte	0,200,196,255
00000020 02000000        545 	.byte	2,0,0,0
00000024 7700            546 	.byte	119,0
00000026 0000            547 	.space	2
00000028 00b0f9ff        548 	.byte	0,176,249,255
0000002c 00c0f9ff        549 	.byte	0,192,249,255
00000030 03000000        550 	.byte	3,0,0,0
00000034 7f00            551 	.byte	127,0
00000036 0000            552 	.space	2
00000038 00d0f9ff        553 	.byte	0,208,249,255
0000003c 00e0f9ff        554 	.byte	0,224,249,255
00000040 04000000        555 	.byte	4,0,0,0
00000044 ff02            556 	.byte	255,2
00000046 0000            557 	.space	2
00000048 0070fcff        558 	.byte	0,112,252,255
0000004c 0080fcff        559 	.byte	0,128,252,255
00000050 05000000        560 	.byte	5,0,0,0
00000054 fa01            561 	.byte	250,1
00000056 0000            562 	.space	2
00000058 0000dcff        563 	.byte	0,0,220,255
0000005c 0010dcff        564 	.byte	0,16,220,255
00000060 06000000        565 	.byte	6,0,0,0
00000064 ff0d            566 	.byte	255,13
00000066 0000            567 	.space	2
00000068 0020dcff        568 	.byte	0,32,220,255
0000006c 0030dcff        569 	.byte	0,48,220,255
00000070 07000000        570 	.byte	7,0,0,0
00000074 ffff            571 	.byte	255,255
00000076 0000            572 	.space	2
00000078 0080dcff        573 	.byte	0,128,220,255
0000007c 0090dcff        574 	.byte	0,144,220,255
00000080 08000000        575 	.byte	8,0,0,0
00000084 0300            576 	.byte	3,0
00000086 0000            577 	.space	2
00000088 00a0dcff        578 	.byte	0,160,220,255
0000008c 00b0dcff        579 	.byte	0,176,220,255
00000090 09000000        580 	.byte	9,0,0,0
00000094 8cf7            581 	.byte	140,247
00000096 0000            582 	.space	2
00000098 0000f9ff        583 	.byte	0,0,249,255
0000009c 0004f9ff        584 	.byte	0,4,249,255
000000a0 0a000000        585 	.byte	10,0,0,0
000000a4 ff07            586 	.byte	255,7
000000a6 0000            587 	.space	2
000000a8 0008f9ff        588 	.byte	0,8,249,255
000000ac 000cf9ff        589 	.byte	0,12,249,255
000000b0 0b000000        590 	.byte	11,0,0,0
000000b4 ff1f            591 	.byte	255,31
000000b6 0000            592 	.space	2
000000b8 0010f9ff        593 	.byte	0,16,249,255
000000bc 0014f9ff        594 	.byte	0,20,249,255
000000c0 0c000000        595 	.byte	12,0,0,0
000000c4 ffff            596 	.byte	255,255

                                                                      Page 11
                                                              C:\Users\YINGAO~1\AppData\Local\Temp\gh_00007uk1.si
000000c6 0000            597 	.space	2
000000c8 0040dcff        598 	.byte	0,64,220,255
000000cc 0050dcff        599 	.byte	0,80,220,255
000000d0 0d000000        600 	.byte	13,0,0,0
000000d4 0f00            601 	.byte	15,0
000000d6 0000            602 	.space	2
000000d8 0060dcff        603 	.byte	0,96,220,255
000000dc 0070dcff        604 	.byte	0,112,220,255
000000e0 0e000000        605 	.byte	14,0,0,0
000000e4 0000            606 	.space	2
000000e6 0000            607 	.space	2
000000e8 00000000        608 	.space	4
000000ec 00000000        609 	.space	4
                         610 	.type	_r_pbus_guards,@object
                         611 	.size	_r_pbus_guards,240
                         612 	.data
                         613 	.ghsnote version,14
                         614 	.ghsnote tools,3
                         615 	.ghsnote options,144
                         616 	.text
                         617 	.align	2
                         618 ..eof.D.3A.5CRenesas_Electronics.5CD1x_RGL.5Crgl_ghs_D1Lx_obj_V1.2E2.2E0.5Cvlib.5Capp.5Cgfx_apps.5Csimple_draw_d1l2.5Ctarget.5Cd1lx_mango_ghs.5Cobj.5Cr_pbg_sys...44.3A.5CRenesas_Electronics.5CD1x_RGL.5Crgl_ghs_D1Lx_obj_V1.2E2.2E0.5Cvlib.5Capp.5Cgfx_apps.5Csimple_draw_d1l2.5Ctarget.5Cd1lx_mango_ghs..5A740384..0::
                         619 .rh850_flags REGMODE22,DATA_ALIGN8,GP_FIX,EP_NONFIX,TP_FIX,REG2_RESERVE,G3M
