                                                                      Page 1
                                                              C:\Users\YINGAO~1\AppData\Local\Temp\gh_00008vg1.si
Command Line: C:\ghs\comp_201355\ease850.exe -w -elf -b0 -ID:\Renesas_Electronics\D1x_RGL\rgl_ghs_D1Lx_obj_V1.2.0\vlib\macro\flashc\sfma\lib -I../../../../../Device -I../../../../../Driver/ADCE -I../../../../../Driver/CLOCK -I../../../../../Driver/DIO -I../../../../../Driver/DSPI -I../../../../../Driver/Interrupt -I../../../../../Driver/ISM -I../../../../../Driver/OSTM -I../../../../../Driver/PWM -I../../../../../Driver/RSTC -I../../../../../Driver/RTCA -I../../../../../Driver/STBC -I../../../../../Driver/TAUB -I../../../../../Driver/WDT -I../../../../../middleware\ADM -I../../../../../middleware\BPM -I../../../../../middleware\EED -I../../../../../middleware\IOM -I../../../../../middleware\LRM -I../../../../../middleware\MOM -I../../../../../middleware\PWMM -I../../../../../Common -I../../../../../Applayer\DSM -I../../../../../Applayer\FM -I../../../../../Applayer\TPM -I../../../../../Applayer\ACC -I../../../../../Applayer\ASS -I../../../../../Applayer\BAT -I../../../../../Applayer\COM -I../../../../../Applayer\COM\vtp -I../../../../../Applayer\COM\vtp\lib -I../../../../../Applayer\CRUS -I../../../../../Applayer\DIAG -I../../../../../Applayer\FC -I../../../../../Applayer\FL -I../../../../../Applayer\HSD -I../../../../../Applayer\IDLE -I../../../../../Applayer\ILLU -I../../../../../Applayer\LED -I../../../../../Applayer\MSG -I../../../../../Applayer\NVM -I../../../../../Applayer\ODO -I../../../../../Applayer\PWR -I../../../../../Applayer\RANG -I../../../../../Applayer\RST -I../../../../../Applayer\RTC -I../../../../../Applayer\SCS -I../../../../../Applayer\SSB -I../../../../../Applayer\ST -I../../../../../Applayer\STSMG -I../../../../../Applayer\SYS -I../../../../../Applayer\TIP -I../../../../../Applayer\TRIP -I../../../../../Applayer\CHM -I../../../../../Applayer\DM -I../../../../../Applayer\EVT -I../../../../../Applayer\FTR -I../../../../../Applayer\SLF -I../../../../../Applayer\NWD -I../../../../../Applayer\TPMS -I../../../../../Applayer\WFM -I../../../../../Applayer\NZM -I../../../../../app/gfx_apps/simple_draw_d1l2/src -I../../../../../bsp/board//config -I../../../../../bsp/board//src/gfx -I../../../../../bsp/board//src/hmi -I../../../../../bsp/board//src/stdio -I../../../../../bsp/board/d1lx_mango/config -I../../../../../bsp/board/d1lx_mango/src -I../../../../../bsp/board/d1lx_mango/src/gfx -I../../../../../bsp/board/d1lx_mango/src/hmi -I../../../../../bsp/board/d1lx_mango/src/stdio -I../../../../../bsp/gfx/lib -I../../../../../bsp/gfx/src -I../../../../../bsp/hmi/lib -I../../../../../bsp/hmi/src -I../../../../../bsp/lib -I../../../../../bsp/stdio/lib -I../../../../../bsp/stdio/src -I../../../../../cdi/lib -I../../../../../cdi/src -I../../../../../compiler/rh850_ghs/inc -I../../../../../device/d1lx/lib -I../../../../../device/d1lx/macro_cfg -I../../../../../device/d1lx/src/dev -I../../../../../device/d1lx/src/rh850_ghs -I../../../../../device/d1x_common/macro_cfg -I../../../../../device/d1x_common/src/csisw -I../../../../../device/d1x_common/src/ddb -I../../../../../device/d1x_common/src/dev -I../../../../../device/d1x_common/src/gfxbus -I../../../../../device/d1x_common/src/gpio -I../../../../../device/d1x_common/src/ostm -I../../../../../device/d1x_common/src/pbg -I../../../../../device/d1x_common/src/riic -I../../../../../device/d1x_common/src/sfma -I../../../../../device/d1x_common/src/spea -I../../../../../device/d1x_common/src/tauj -I../../../../../device/d1x_common/src/tick -I../../../../../device/d1x_common/src/vdce -I../../../../../device/d1x_common/src/wm -I../../../../../device/d1x_common/src/xbus -I../../../../../device/lib -I../../../../../macro/bus/pbg/lib -I../../../../../macro/bus/pbg/src -I../../../../../macro/csi/csisw/lib -I../../../../../macro/csi/csisw/src -I../../../../../macro/drw2d/lib -I../../../../../macro/drw2d/platform/cpu -I../../../../../macro/drw2d/platform/os/no_os -I../../../../../macro/drw2d/src -I../../../../../macro/flashc/sfcdb/lib -I../../../../../macro/flashc/sfcdb/src -I../../../../../macro/flashc/sfma/lib -I../../../../../macro/flashc/sfma/src -I../../../../../macro/gfxbus/lib -I../../../../../macro/gfxbus/src -I../../../../../macro/gfxbus/xbus/lib -I../../../../../macro/gfxbus/xbus/src -I../../../../../macro/gpio/lib -I../../../../../macro/gpio/src -I../../../../../macro/i2c/riic/lib -I../../../../../macro/i2c/riic/src -I../../../../../macro/tick/lib -I../../../../../macro/tick/src -I../../../../../macro/timer/ostm/lib -I../../../../../macro/timer/ostm/src -I../../../../../macro/timer/tauj/lib -I../../../../../macro/timer/tauj/src -I../../../../../macro/vdce/lib -I../../../../../macro/vdce/src -I../../../../../macro/vo/ddb/lib -I../../../../../macro/vo/ddb/src -I../../../../../macro/vo/spea/lib -I../../../../../macro/vo/spea/src -I../../../../../macro/wm/lib -I../../../../../macro/wm/src -I../../../../../app/gfx_apps/simple_draw_d1l2/src/QD_HMI -I../../../../../app/gfx_apps/simple_draw_d1l2/src/QD_HMI/HMI_Data -IC:\ghs\comp_201355\lib\rh850_22 -cg_underscore -cpu=rh850g3m -no_v850_simd -nomacro -patch_dbo=D:\Renesas_Electronics\D1x_RGL\rgl_ghs_D1Lx_obj_V1.2.0\vlib\app\gfx_apps\simple_draw_d1l2\target\d1lx_mango_ghs\obj\r_sys_gpio.dbo -source=r_sys_gpio.c -o .\obj\gh_00008vg1.o -list=.\obj\r_sys_gpio.lst C:\Users\YINGAO~1\AppData\Local\Temp\gh_00008vg1.si 
Original File: C:\Users\YINGAO~1\AppData\Local\Temp\gh_00008vg1.si
Source File: r_sys_gpio.c
Directory: D:\Renesas_Electronics\D1x_RGL\rgl_ghs_D1Lx_obj_V1.2.0\vlib\app\gfx_apps\simple_draw_d1l2\target\d1lx_mango_ghs
Host OS: Windows 7 Service Pack 1
EASE: Copyright (C) 1983-2013 Green Hills Software.  All Rights Reversed.
Release: Compiler v2013.5.5
Build Directory: [Directory] BTOWINBOX:c:/build_2013_5_bto/2013-10-04.1311-2013_5_bto/win32-comp-ecom
Revision: [VCInfo] http://toolsvc/branches/release-branch-2013-5-bto/src@496240 (built by build)
Revision Date: Sat Oct 05 04:54:43 2013

Release Date: Sat Oct 05 05:20:49 2013

                           1 --Driver Command: ccv850 -c -MD
                           2 --		-ID:\Renesas_Electronics\D1x_RGL\rgl_ghs_D1Lx_obj_V1.2.0\vlib\macro\flashc\sfma\lib
                           3 --		-I../../../../../Device -I../../../../../Driver/ADCE
                           4 --		-I../../../../../Driver/CLOCK -I../../../../../Driver/DIO
                           5 --		-I../../../../../Driver/DSPI -I../../../../../Driver/Interrupt
                           6 --		-I../../../../../Driver/ISM -I../../../../../Driver/OSTM
                           7 --		-I../../../../../Driver/PWM -I../../../../../Driver/RSTC
                           8 --		-I../../../../../Driver/RTCA -I../../../../../Driver/STBC
                           9 --		-I../../../../../Driver/TAUB -I../../../../../Driver/WDT
                          10 --		-I../../../../../middleware\ADM -I../../../../../middleware\BPM
                          11 --		-I../../../../../middleware\EED -I../../../../../middleware\IOM
                          12 --		-I../../../../../middleware\LRM -I../../../../../middleware\MOM
                          13 --		-I../../../../../middleware\PWMM -I../../../../../Common
                          14 --		-I../../../../../Applayer\DSM -I../../../../../Applayer\FM
                          15 --		-I../../../../../Applayer\TPM -I../../../../../Applayer\ACC
                          16 --		-I../../../../../Applayer\ASS -I../../../../../Applayer\BAT
                          17 --		-I../../../../../Applayer\COM -I../../../../../Applayer\COM\vtp
                          18 --		-I../../../../../Applayer\COM\vtp\lib
                          19 --		-I../../../../../Applayer\CRUS -I../../../../../Applayer\DIAG
                          20 --		-I../../../../../Applayer\FC -I../../../../../Applayer\FL
                          21 --		-I../../../../../Applayer\HSD -I../../../../../Applayer\IDLE
                          22 --		-I../../../../../Applayer\ILLU -I../../../../../Applayer\LED
                          23 --		-I../../../../../Applayer\MSG -I../../../../../Applayer\NVM
                          24 --		-I../../../../../Applayer\ODO -I../../../../../Applayer\PWR
                          25 --		-I../../../../../Applayer\RANG -I../../../../../Applayer\RST
                          26 --		-I../../../../../Applayer\RTC -I../../../../../Applayer\SCS
                          27 --		-I../../../../../Applayer\SSB -I../../../../../Applayer\ST
                          28 --		-I../../../../../Applayer\STSMG -I../../../../../Applayer\SYS
                          29 --		-I../../../../../Applayer\TIP -I../../../../../Applayer\TRIP
                          30 --		-I../../../../../Applayer\CHM -I../../../../../Applayer\DM
                          31 --		-I../../../../../Applayer\EVT -I../../../../../Applayer\FTR
                          32 --		-I../../../../../Applayer\SLF -I../../../../../Applayer\NWD
                          33 --		-I../../../../../Applayer\TPMS -I../../../../../Applayer\WFM
                          34 --		-I../../../../../Applayer\NZM
                          35 --		-I../../../../../app/gfx_apps/simple_draw_d1l2/src
                          36 --		-I../../../../../bsp/board//config
                          37 --		-I../../../../../bsp/board//src/gfx
                          38 --		-I../../../../../bsp/board//src/hmi
                          39 --		-I../../../../../bsp/board//src/stdio
                          40 --		-I../../../../../bsp/board/d1lx_mango/config
                          41 --		-I../../../../../bsp/board/d1lx_mango/src
                          42 --		-I../../../../../bsp/board/d1lx_mango/src/gfx
                          43 --		-I../../../../../bsp/board/d1lx_mango/src/hmi
                          44 --		-I../../../../../bsp/board/d1lx_mango/src/stdio
                          45 --		-I../../../../../bsp/gfx/lib -I../../../../../bsp/gfx/src
                          46 --		-I../../../../../bsp/hmi/lib -I../../../../../bsp/hmi/src
                          47 --		-I../../../../../bsp/lib -I../../../../../bsp/stdio/lib
                          48 --		-I../../../../../bsp/stdio/src -I../../../../../cdi/lib
                          49 --		-I../../../../../cdi/src -I../../../../../compiler/rh850_ghs/inc
                          50 --		-I../../../../../device/d1lx/lib

                                                                      Page 2
                                                              C:\Users\YINGAO~1\AppData\Local\Temp\gh_00008vg1.si
                          51 --		-I../../../../../device/d1lx/macro_cfg
                          52 --		-I../../../../../device/d1lx/src/dev
                          53 --		-I../../../../../device/d1lx/src/rh850_ghs
                          54 --		-I../../../../../device/d1x_common/macro_cfg
                          55 --		-I../../../../../device/d1x_common/src/csisw
                          56 --		-I../../../../../device/d1x_common/src/ddb
                          57 --		-I../../../../../device/d1x_common/src/dev
                          58 --		-I../../../../../device/d1x_common/src/gfxbus
                          59 --		-I../../../../../device/d1x_common/src/gpio
                          60 --		-I../../../../../device/d1x_common/src/ostm
                          61 --		-I../../../../../device/d1x_common/src/pbg
                          62 --		-I../../../../../device/d1x_common/src/riic
                          63 --		-I../../../../../device/d1x_common/src/sfma
                          64 --		-I../../../../../device/d1x_common/src/spea
                          65 --		-I../../../../../device/d1x_common/src/tauj
                          66 --		-I../../../../../device/d1x_common/src/tick
                          67 --		-I../../../../../device/d1x_common/src/vdce
                          68 --		-I../../../../../device/d1x_common/src/wm
                          69 --		-I../../../../../device/d1x_common/src/xbus
                          70 --		-I../../../../../device/lib -I../../../../../macro/bus/pbg/lib
                          71 --		-I../../../../../macro/bus/pbg/src
                          72 --		-I../../../../../macro/csi/csisw/lib
                          73 --		-I../../../../../macro/csi/csisw/src
                          74 --		-I../../../../../macro/drw2d/lib
                          75 --		-I../../../../../macro/drw2d/platform/cpu
                          76 --		-I../../../../../macro/drw2d/platform/os/no_os
                          77 --		-I../../../../../macro/drw2d/src
                          78 --		-I../../../../../macro/flashc/sfcdb/lib
                          79 --		-I../../../../../macro/flashc/sfcdb/src
                          80 --		-I../../../../../macro/flashc/sfma/lib
                          81 --		-I../../../../../macro/flashc/sfma/src
                          82 --		-I../../../../../macro/gfxbus/lib
                          83 --		-I../../../../../macro/gfxbus/src
                          84 --		-I../../../../../macro/gfxbus/xbus/lib
                          85 --		-I../../../../../macro/gfxbus/xbus/src
                          86 --		-I../../../../../macro/gpio/lib -I../../../../../macro/gpio/src
                          87 --		-I../../../../../macro/i2c/riic/lib
                          88 --		-I../../../../../macro/i2c/riic/src
                          89 --		-I../../../../../macro/tick/lib -I../../../../../macro/tick/src
                          90 --		-I../../../../../macro/timer/ostm/lib
                          91 --		-I../../../../../macro/timer/ostm/src
                          92 --		-I../../../../../macro/timer/tauj/lib
                          93 --		-I../../../../../macro/timer/tauj/src
                          94 --		-I../../../../../macro/vdce/lib -I../../../../../macro/vdce/src
                          95 --		-I../../../../../macro/vo/ddb/lib
                          96 --		-I../../../../../macro/vo/ddb/src
                          97 --		-I../../../../../macro/vo/spea/lib
                          98 --		-I../../../../../macro/vo/spea/src -I../../../../../macro/wm/lib
                          99 --		-I../../../../../macro/wm/src
                         100 --		-I../../../../../app/gfx_apps/simple_draw_d1l2/src/QD_HMI
                         101 --		-I../../../../../app/gfx_apps/simple_draw_d1l2/src/QD_HMI/HMI_Data
                         102 --		-G --no_commons --no_implicit_include --prototype_errors
                         103 --		-DR_DRW2D_OS_NO_OS -DR_DRW2D_SYS_CPU -DUSED_CPU=RH850G3M
                         104 --		-DUSE_BSP_GFX -DUSE_BSP_HMI -DUSE_BSP_STDIO -DUSE_CDI -DUSE_CSISW
                         105 --		-DUSE_DDB -DUSE_DRW2D -DUSE_GFXBUS -DUSE_GPIO -DUSE_OSTM
                         106 --		-DUSE_PBG -DUSE_RIIC -DUSE_SFCDB -DUSE_SFMA -DUSE_SPEA -DUSE_TAUJ
                         107 --		-DUSE_TICK -DUSE_VDCE -DUSE_WM -DUSE_XBUS -MD -Mn -Mx -Zuse1bit
                         108 --		-allocate_ep -cpu=rh850g3m -entry=_RESET -large_sda -list
                         109 --		-no_callt -notda -passsource -preprocess_assembly_files
                         110 --		-registermode=22 -reserve_r2 --diag_warning 1 -object_dir=./obj
                         111 --		-filetype.c

                                                                      Page 3
                                                              C:\Users\YINGAO~1\AppData\Local\Temp\gh_00008vg1.si
                         112 --		..\..\..\..\..\device\d1x_common\src\gpio\r_sys_gpio.c -o
                         113 --		.\obj\r_sys_gpio.o
                         114 --Source File:   ..\..\..\..\..\device\d1x_common\src\gpio\r_sys_gpio.c
                         115 --Directory:     
                         116 --		D:\Renesas_Electronics\D1x_RGL\rgl_ghs_D1Lx_obj_V1.2.0\vlib\app\gfx_apps\simple_draw_d1l2\target\d1lx_mango_ghs
                         117 --Compile Date:  Fri Feb 02 14:21:58 2018
                         118 --Host OS:       Win32
                         119 --Version:       C-RH850 2013.5.5 DEVELOPMENT VERSION
                         120 --Release:       Compiler v2013.5.5
                         121 --Revision Date: Sat Oct 05 05:01:20 2013
                         122 --Release Date:  Sat Oct 05 05:22:44 2013
                         123 -- ecom  -g -w
                         124 
                         125 --1: /*
                         126 --2: ****************************************************************************
                         127 --3: PROJECT : r7f701412
                         128 --4: FILE    : $Id: r_sys_gpio.c 7402 2016-01-27 15:43:39Z florian.zimmermann $
                         129 --5: ============================================================================ 
                         130 --6: DESCRIPTION
                         131 --7: PORTC system functions for r7f701412
                         132 --8: ============================================================================
                         133 --9:                             C O P Y R I G H T
                         134 --10: ============================================================================
                         135 --11:                        Copyright (c) 2013 - 2014
                         136 --12:                                   by 
                         137 --13:                        Renesas Electronics (Europe) GmbH. 
                         138 --14:                            Arcadiastrasse 10
                         139 --15:                           D-40472 Duesseldorf
                         140 --16:                                Germany
                         141 --17:                           All rights reserved.
                         142 --18: ============================================================================
                         143 --19: Purpose: only for testing, not for mass production
                         144 --21: DISCLAIMER
                         145 --23: LICENSEE has read, understood and accepted the terms and conditions defined in
                         146 --24: the license agreement, especially the usage rights. In any case, it is
                         147 --25: LICENSEE's responsibility to make sure that any user of the software complies
                         148 --26: with the terms and conditions of the signed license agreement.
                         149 --28: SAMPLE CODE is not part of the licensed software, as such it must not be used in
                         150 --29: mass-production applications. It can only be used for evaluation and
                         151 --30: demonstration purposes at customer's premises listed in the signed license
                         152 --31: agreement.
                         153 --33: ****************************************************************************
                         154 --34: */
                         155 --37: /*******************************************************************************
                         156 --38:   Title: r7f701412 GPIO Support Functions
                         157 --40:   Implementation of the GPIO support functions for the 
                         158 --41:   device r7f701412.
                         159 --42: */
                         160 --44: /*******************************************************************************
                         161 --45:   Section: Includes
                         162 --46: */
                         163 --48: #include "r_typedefs.h"
                         164 --49: #include "r_gpio_api.h"
                         165 --50: #include "r_gpio_sys.h"
                         166 --51: #include "r_config_pin.h"
                         167 --52: #include "r_config_gpio.h"
                         168 --54: /* The debug output for register accesses here shall be only active 
                         169 --55: on special request, otherwise the output might get "overloaded"  
                         170 --56: If you want to see all register accesses, activate R_DBG_SHOW_PIN_REGS
                         171 --57: in your application's Makefile */
                         172 --58: #ifndef R_DBG_SHOW_PIN_REGS

                                                                      Page 4
                                                              C:\Users\YINGAO~1\AppData\Local\Temp\gh_00008vg1.si
                         173 --59:   #undef  R_DBG_PRINT_DEV_REGS
                         174 --60: #endif   
                         175 --61: #include "r_dev_api.h"
                         176 --65: /*******************************************************************************
                         177 --66:   Section: Local Constants
                         178 --67: */
                         179 --69: /*******************************************************************************
                         180 --70:   Constant: LOC_FCLA0CTL_BASE
                         181 --71:     
                         182 --72:     Base register address for filter configuration 
                         183 --73: */
                         184 --74: #define LOC_FCLA0CTL_BASE       0xffc34000u
                         185 --75: #define LOC_FCLA1CTL_BASE       0xffc34100u
                         186 --77: /*******************************************************************************
                         187 --78: Array : loc_FclaCtrlRegOffset
                         188 --80: The loc_FclaCtrlRegOffset array specifies FCLAnCTLm Register offsets
                         189 --81: */
                         190 --83: static const uint32_t loc_FclaCtrlRegOffset[12] = {
                         191 --84:     /* 0: INTP0  */             (LOC_FCLA0CTL_BASE + 0x0004u),
                         192 --85:     /* 1: INTP1  */             (LOC_FCLA0CTL_BASE + 0x0008u),
                         193 --86:     /* 2: INTP2  */             (LOC_FCLA0CTL_BASE + 0x000Cu),
                         194 --87:     /* 3: INTP3  */             (LOC_FCLA0CTL_BASE + 0x0010u),
                         195 --88:     /* 4: INTP4  */             (LOC_FCLA0CTL_BASE + 0x0014u),
                         196 --89:     /* 5: INTP5  */             (LOC_FCLA0CTL_BASE + 0x0018u),
                         197 --90:     /* 6: INTP6  */             (LOC_FCLA0CTL_BASE + 0x001Cu),
                         198 --91:     /* 7: INTP7  */             (LOC_FCLA1CTL_BASE + 0x0000u),
                         199 --92:     /* 8: INTP8  */             (LOC_FCLA1CTL_BASE + 0x0004u),
                         200 --93:     /* 9: INTP9  */             (LOC_FCLA1CTL_BASE + 0x0008u),
                         201 --94:     /*10: INTP10 */             (LOC_FCLA1CTL_BASE + 0x000Cu),
                         202 --95:     /*11: NMI    */             (LOC_FCLA0CTL_BASE + 0x0000u),
                         203 --96: };
                         204 --98: /*******************************************************************************
                         205 --99:   Constant: LOC_DNFA0CTL
                         206 --100:     
                         207 --101:     Base register address for filter control 
                         208 --102: */
                         209 --103: #define LOC_DNFA0CTL            0xffc30000u
                         210 --105: /*******************************************************************************
                         211 --106:   Constant: LOC_DNFA0EN
                         212 --107:     
                         213 --108:     Base register address for filter enable 
                         214 --109: */
                         215 --110: #define LOC_DNFA0EN             0xffc30004u
                         216 --112: /*******************************************************************************
                         217 --113:   Constant: loc_FilterSetting
                         218 --114:     Stores required register values for the filter configuration 
                         219 --115: */
                         220 --116: static const uint8_t loc_FilterSetting[R_GPIO_INT_TRIGGER_NUM] = 
                         221 --117: {
                         222 --118: /* R_GPIO_INT_TRIGGER_OFF         */ 0u, 
                         223 --119: /* R_GPIO_INT_RISING_EDGE         */ 0x1u,
                         224 --120: /* R_GPIO_INT_FALLING_EDGE        */ 0x2u, 
                         225 --121: /* R_GPIO_INT_BOTH_EDGES          */ 0x3u,
                         226 --122: /* R_GPIO_INT_LEVEL_HIGH          */ 0x5u,
                         227 --123: /* R_GPIO_INT_LEVEL_LOW           */ 0x4u
                         228 --124: };     
                         229 --126: /*******************************************************************************
                         230 --127:   Section: Global Functions
                         231 --129: */
                         232 --131: /*******************************************************************************
                         233 --132:   Function: R_SYS_GPIO_GetPin

                                                                      Page 5
                                                              C:\Users\YINGAO~1\AppData\Local\Temp\gh_00008vg1.si
                         234 --134:   See: r_gpio_sys.h for details
                         235 --135:  */
                         236 --136:  uint8_t R_SYS_GPIO_GetPin(int32_t Port, uint8_t Pin)
                         237 	.text
                         238 ..bof.D.3A.5CRenesas_Electronics.5CD1x_RGL.5Crgl_ghs_D1Lx_obj_V1.2E2.2E0.5Cvlib.5Capp.5Cgfx_apps.5Csimple_draw_d1l2.5Ctarget.5Cd1lx_mango_ghs.5Cobj.5Cr_sys_gpio...44.3A.5CRenesas_Electronics.5CD1x_RGL.5Crgl_ghs_D1Lx_obj_V1.2E2.2E0.5Cvlib.5Capp.5Cgfx_apps.5Csimple_draw_d1l2.5Ctarget.5Cd1lx_mango_ghs..5A740386..0::
                         239 	.align	2
                         240 	.global	_R_SYS_GPIO_GetPin
                         241 _R_SYS_GPIO_GetPin:
00000000 8007e110        242 	prepare	{r27,r28,r29,r31},0
00000004 06e0            243 	mov	r6,r28
00000006 c7deff00        244 	andi	255,r7,r27
                         245 --	    .bf
                         246 .LDW01:
                         247 --137: {
                         248 --138:     uint32_t  addr         = R_DEV_PinGetRegAddr(R_DEV_PIN_REG_PPR, Port);  
0000000a 1c38            249 	mov	r28,r7
0000000c 0332            250 	mov	3,r6
                         251 	jarl	_R_DEV_PinGetRegAddr,lp
                         251 <EXPANSION BEGIN>
                         251 jarl22 _R_DEV_PinGetRegAddr , lp 
0000000e 80ff0000*       251 <EXPANSION END>
00000012 0ae8            252 	mov	r10,r29
                         253 --139:     uint16_t  pin_position = 1u;
                         254 --line139
                         255 ..lin.D.3A.5CRenesas_Electronics.5CD1x_RGL.5Crgl_ghs_D1Lx_obj_V1.2E2.2E0.5Cvlib.5Capp.5Cgfx_apps.5Csimple_draw_d1l2.5Ctarget.5Cd1lx_mango_ghs.5Cobj.5Cr_sys_gpio.1::
                         256 .LDWlin1:
00000014 010a            257 	mov	1,r1
                         258 --140:     uint16_t  reg_val      = R_DEV_READ_REG(16,addr);
00000016 fd770100        259 	ld.hu	0[r29],r14
                         260 --142:     pin_position = (uint16_t)(pin_position << Pin);
0000001a fb0fc268        261 	shl	r27,r1,r13
0000001e cd00            262 	zxh	r13
00000020 0d08            263 	mov	r13,r1
                         264 --143:     if (0 != (reg_val & pin_position)) 
00000022 0168            265 	mov	r1,r13
00000024 4e69            266 	and	r14,r13
00000026 b205*           267 	be	.L4
                         268 --144:     {
                         269 --145:         return 1; 
                         270 --line145
                         271 ..lin.D.3A.5CRenesas_Electronics.5CD1x_RGL.5Crgl_ghs_D1Lx_obj_V1.2E2.2E0.5Cvlib.5Capp.5Cgfx_apps.5Csimple_draw_d1l2.5Ctarget.5Cd1lx_mango_ghs.5Cobj.5Cr_sys_gpio.2::
                         272 .LDWlin2:
00000028 0152            273 	mov	1,r10
0000002a a505*           274 	br	.L2
                         275 .L4:
                         276 --146:     }
                         277 --147:     else 
                         278 --148:     {
                         279 --149:         return 0; 
                         280 --line149
                         281 ..lin.D.3A.5CRenesas_Electronics.5CD1x_RGL.5Crgl_ghs_D1Lx_obj_V1.2E2.2E0.5Cvlib.5Capp.5Cgfx_apps.5Csimple_draw_d1l2.5Ctarget.5Cd1lx_mango_ghs.5Cobj.5Cr_sys_gpio.3::
                         282 .LDWlin3:
0000002c 0052            283 	mov	0,r10
                         284 .L2:
                         285 --	    .ef
                         286 .LDW11:
0000002e 4006ff10        287 	dispose	0,{r27,r28,r29,r31},[lp]
                         288 	.type	_R_SYS_GPIO_GetPin,@function
                         289 	.size	_R_SYS_GPIO_GetPin,.-_R_SYS_GPIO_GetPin
                         290 	.align	2
                         291 .LDW21:

                                                                      Page 6
                                                              C:\Users\YINGAO~1\AppData\Local\Temp\gh_00008vg1.si
                         292 --_addr	r29	local
                         293 --_pin_position	r1	local
                         294 --_reg_val	r14	local
                         295 
                         296 --_Port	r28	param
                         297 --_Pin	r27	param
                         298 
                         299 	.section ".bss","awb"
                         300 .L36:
                         301 	.type	.L36,@object
                         302 	.size	.L36,0
                         303 	.data
                         304 	.text
                         305 
                         306 --150:     }
                         307 --151: }
                         308 
                         309 --153: /*******************************************************************************
                         310 --154:   Function: R_SYS_GPIO_SetPin
                         311 --156:  See: r_gpio_sys.h for details
                         312 --157: */
                         313 --159: void R_SYS_GPIO_SetPin(int32_t Port, uint8_t Pin, uint8_t Value)
                         314 	.align	2
                         315 	.align	2
                         316 	.global	_R_SYS_GPIO_SetPin
                         317 _R_SYS_GPIO_SetPin:
00000032 8007e130        318 	prepare	{r26,r27,r28,r29,r31},0
00000036 06e0            319 	mov	r6,r28
00000038 c7deff00        320 	andi	255,r7,r27
0000003c c8d6ff00        321 	andi	255,r8,r26
                         322 --	    .bf
                         323 .LDW31:
                         324 --160: {
                         325 --161:     uint32_t  addr         = R_DEV_PinGetRegAddr(R_DEV_PIN_REG_PSR, Port); 
00000040 1c38            326 	mov	r28,r7
00000042 0232            327 	mov	2,r6
                         328 	jarl	_R_DEV_PinGetRegAddr,lp
                         328 <EXPANSION BEGIN>
                         328 jarl22 _R_DEV_PinGetRegAddr , lp 
00000044 80ff0000*       328 <EXPANSION END>
00000048 0ae8            329 	mov	r10,r29
                         330 --162:     uint16_t  pin_position = (uint16_t)((uint16_t)1u << (uint16_t)Pin);
                         331 --line162
                         332 ..lin.D.3A.5CRenesas_Electronics.5CD1x_RGL.5Crgl_ghs_D1Lx_obj_V1.2E2.2E0.5Cvlib.5Capp.5Cgfx_apps.5Csimple_draw_d1l2.5Ctarget.5Cd1lx_mango_ghs.5Cobj.5Cr_sys_gpio.4::
                         333 .LDWlin4:
0000004a 010a            334 	mov	1,r1
0000004c fb0fc270        335 	shl	r27,r1,r14
00000050 ce00            336 	zxh	r14
                         337 --163:     uint32_t  reg_val      = pin_position;
00000052 0e08            338 	mov	r14,r1
                         339 --165:     /* we use masked port reg write 
                         340 --166:             reg_val = Mask<<16 | Port */
                         341 --167:     reg_val    <<= 16; 
00000054 d00a            342 	shl	16,r1
                         343 --169:     
                         344 --170:     /* Set or Clear? */
                         345 --171:     if (0 != Value) /* Set bit*/ 
00000056 e0d1            346 	cmp	zero,r26
00000058 a205*           347 	be	.L70
                         348 --172:     {
                         349 --173:         reg_val |= (uint32_t)pin_position; 

                                                                      Page 7
                                                              C:\Users\YINGAO~1\AppData\Local\Temp\gh_00008vg1.si
                         350 --line173
                         351 ..lin.D.3A.5CRenesas_Electronics.5CD1x_RGL.5Crgl_ghs_D1Lx_obj_V1.2E2.2E0.5Cvlib.5Capp.5Cgfx_apps.5Csimple_draw_d1l2.5Ctarget.5Cd1lx_mango_ghs.5Cobj.5Cr_sys_gpio.5::
                         352 .LDWlin5:
0000005a 0e09            353 	or	r14,r1
                         354 .L70:
                         355 --174:     }
                         356 --175:     else      /* Clear bit*/
                         357 --176:     {
                         358 --177:         /* Nothing to do */ 
                         359 --178:     }
                         360 --179:     R_DEV_WRITE_REG(32, addr, reg_val); 
0000005c 7d0f0100        361 	st.w	r1,0[r29]
                         362 --180: }
00000060 0000            363 	nop
                         364 --	    .ef
                         365 .LDW41:
00000062 4006ff30        366 	dispose	0,{r26,r27,r28,r29,r31},[lp]
                         367 	.type	_R_SYS_GPIO_SetPin,@function
                         368 	.size	_R_SYS_GPIO_SetPin,.-_R_SYS_GPIO_SetPin
                         369 	.align	2
                         370 .LDW51:
                         371 --_addr	r29	local
                         372 --_pin_position	r14	local
                         373 --_reg_val	r1	local
                         374 
                         375 --_Port	r28	param
                         376 --_Pin	r27	param
                         377 --_Value	r26	param
                         378 
                         379 	.section ".bss","awb"
                         380 .L102:
                         381 	.type	.L102,@object
                         382 	.size	.L102,0
                         383 	.data
                         384 	.text
                         385 
                         386 
                         387 --182: /*******************************************************************************
                         388 --183:   Function: R_SYS_GPIO_InvPin
                         389 --185:  See: r_gpio_sys.h for details
                         390 --186: */
                         391 --188: void R_SYS_GPIO_InvPin(int32_t Port, uint8_t Pin)
                         392 	.align	2
                         393 	.align	2
                         394 	.global	_R_SYS_GPIO_InvPin
                         395 _R_SYS_GPIO_InvPin:
00000066 8007e110        396 	prepare	{r27,r28,r29,r31},0
0000006a 06e0            397 	mov	r6,r28
0000006c c7deff00        398 	andi	255,r7,r27
                         399 --	    .bf
                         400 .LDW61:
                         401 --189: {
                         402 --190:     uint32_t  addr     = R_DEV_PinGetRegAddr(R_DEV_PIN_REG_PNOT, Port); 
00000070 1c38            403 	mov	r28,r7
00000072 0832            404 	mov	8,r6
                         405 	jarl	_R_DEV_PinGetRegAddr,lp
                         405 <EXPANSION BEGIN>
                         405 jarl22 _R_DEV_PinGetRegAddr , lp 
00000074 80ff0000*       405 <EXPANSION END>
00000078 0ae8            406 	mov	r10,r29
                         407 --191:     uint16_t  pin_mask = (uint16_t)((uint16_t)1u << (uint16_t)Pin);

                                                                      Page 8
                                                              C:\Users\YINGAO~1\AppData\Local\Temp\gh_00008vg1.si
                         408 --line191
                         409 ..lin.D.3A.5CRenesas_Electronics.5CD1x_RGL.5Crgl_ghs_D1Lx_obj_V1.2E2.2E0.5Cvlib.5Capp.5Cgfx_apps.5Csimple_draw_d1l2.5Ctarget.5Cd1lx_mango_ghs.5Cobj.5Cr_sys_gpio.6::
                         410 .LDWlin6:
0000007a 0172            411 	mov	1,r14
0000007c fb77c208        412 	shl	r27,r14,r1
00000080 c100            413 	zxh	r1
                         414 --192:     R_DEV_WRITE_REG(32, addr, pin_mask); 
00000082 7d0f0100        415 	st.w	r1,0[r29]
                         416 --193: }
00000086 0000            417 	nop
                         418 --	    .ef
                         419 .LDW71:
00000088 4006ff10        420 	dispose	0,{r27,r28,r29,r31},[lp]
                         421 	.type	_R_SYS_GPIO_InvPin,@function
                         422 	.size	_R_SYS_GPIO_InvPin,.-_R_SYS_GPIO_InvPin
                         423 	.align	2
                         424 .LDW81:
                         425 --_addr	r29	local
                         426 --_pin_mask	r1	local
                         427 
                         428 --_Port	r28	param
                         429 --_Pin	r27	param
                         430 
                         431 	.section ".bss","awb"
                         432 .L158:
                         433 	.type	.L158,@object
                         434 	.size	.L158,0
                         435 	.data
                         436 	.text
                         437 
                         438 
                         439 --195: /*******************************************************************************
                         440 --196:   Function: R_SYS_GPIO_InvPort
                         441 --198:  See: r_gpio_sys.h for details
                         442 --199: */
                         443 --201: void R_SYS_GPIO_InvPort(int32_t Port)
                         444 	.align	2
                         445 	.align	2
                         446 	.global	_R_SYS_GPIO_InvPort
                         447 _R_SYS_GPIO_InvPort:
0000008c 8007e100        448 	prepare	{r28,r29,r31},0
00000090 06e0            449 	mov	r6,r28
                         450 --	    .bf
                         451 .LDW91:
                         452 --202: {
                         453 --203:     uint32_t  addr         = R_DEV_PinGetRegAddr(R_DEV_PIN_REG_PNOT, Port); 
00000092 1c38            454 	mov	r28,r7
00000094 0832            455 	mov	8,r6
                         456 	jarl	_R_DEV_PinGetRegAddr,lp
                         456 <EXPANSION BEGIN>
                         456 jarl22 _R_DEV_PinGetRegAddr , lp 
00000096 80ff0000*       456 <EXPANSION END>
0000009a 0ae8            457 	mov	r10,r29
                         458 --204:     R_DEV_WRITE_REG(32, addr, 0xFFFFu); 
                         459 --line204
                         460 ..lin.D.3A.5CRenesas_Electronics.5CD1x_RGL.5Crgl_ghs_D1Lx_obj_V1.2E2.2E0.5Cvlib.5Capp.5Cgfx_apps.5Csimple_draw_d1l2.5Ctarget.5Cd1lx_mango_ghs.5Cobj.5Cr_sys_gpio.7::
                         461 .LDWlin7:
0000009c 800effff        462 	ori	65535,zero,r1
000000a0 7d0f0100        463 	st.w	r1,0[r29]
                         464 --205: }
000000a4 0000            465 	nop

                                                                      Page 9
                                                              C:\Users\YINGAO~1\AppData\Local\Temp\gh_00008vg1.si
                         466 --	    .ef
                         467 .LDW02:
000000a6 4006ff00        468 	dispose	0,{r28,r29,r31},[lp]
                         469 	.type	_R_SYS_GPIO_InvPort,@function
                         470 	.size	_R_SYS_GPIO_InvPort,.-_R_SYS_GPIO_InvPort
                         471 	.align	2
                         472 .LDW12:
                         473 --_addr	r29	local
                         474 
                         475 --_Port	r28	param
                         476 
                         477 	.section ".bss","awb"
                         478 .L204:
                         479 	.type	.L204,@object
                         480 	.size	.L204,0
                         481 	.data
                         482 	.text
                         483 
                         484 
                         485 --207: /*******************************************************************************
                         486 --208:   Function: R_SYS_GPIO_GetPort
                         487 --209:   
                         488 --210:  See: r_gpio_sys.h for details
                         489 --211: */
                         490 --213:  uint16_t R_SYS_GPIO_GetPort(int32_t Port)
                         491 	.align	2
                         492 	.align	2
                         493 	.global	_R_SYS_GPIO_GetPort
                         494 _R_SYS_GPIO_GetPort:
000000aa 8007e100        495 	prepare	{r28,r29,r31},0
000000ae 06e0            496 	mov	r6,r28
                         497 --	    .bf
                         498 .LDW22:
                         499 --214: {
                         500 --215:     uint32_t  addr = R_DEV_PinGetRegAddr(R_DEV_PIN_REG_PPR, Port);  
000000b0 1c38            501 	mov	r28,r7
000000b2 0332            502 	mov	3,r6
                         503 	jarl	_R_DEV_PinGetRegAddr,lp
                         503 <EXPANSION BEGIN>
                         503 jarl22 _R_DEV_PinGetRegAddr , lp 
000000b4 80ff0000*       503 <EXPANSION END>
000000b8 0ae8            504 	mov	r10,r29
                         505 --216:     uint32_t  val = R_DEV_READ_REG(16,addr);  
                         506 --line216
                         507 ..lin.D.3A.5CRenesas_Electronics.5CD1x_RGL.5Crgl_ghs_D1Lx_obj_V1.2E2.2E0.5Cvlib.5Capp.5Cgfx_apps.5Csimple_draw_d1l2.5Ctarget.5Cd1lx_mango_ghs.5Cobj.5Cr_sys_gpio.8::
                         508 .LDWlin8:
000000ba fd0f0100        509 	ld.hu	0[r29],r1
                         510 --217:     return val; 
000000be 0170            511 	mov	r1,r14
000000c0 ce00            512 	zxh	r14
000000c2 0e50            513 	mov	r14,r10
                         514 --	    .ef
                         515 .LDW32:
000000c4 4006ff00        516 	dispose	0,{r28,r29,r31},[lp]
                         517 	.type	_R_SYS_GPIO_GetPort,@function
                         518 	.size	_R_SYS_GPIO_GetPort,.-_R_SYS_GPIO_GetPort
                         519 	.align	2
                         520 .LDW42:
                         521 --_addr	r29	local
                         522 --_val	r1	local
                         523 

                                                                      Page 10
                                                              C:\Users\YINGAO~1\AppData\Local\Temp\gh_00008vg1.si
                         524 --_Port	r28	param
                         525 
                         526 	.section ".bss","awb"
                         527 .L236:
                         528 	.type	.L236,@object
                         529 	.size	.L236,0
                         530 	.data
                         531 	.text
                         532 
                         533 --218: }
                         534 
                         535 --221: /*******************************************************************************
                         536 --222:   Function: R_SYS_GPIO_PinDirection
                         537 --223:   
                         538 --224:  See: r_gpio_sys.h for details
                         539 --226: */
                         540 --228: void R_SYS_GPIO_PinDirection(int32_t Port, uint8_t Pin, uint8_t Dir)
                         541 	.align	2
                         542 	.align	2
                         543 	.global	_R_SYS_GPIO_PinDirection
                         544 _R_SYS_GPIO_PinDirection:
000000c8 8207e170        545 	prepare	{r25,r26,r27,r28,r29,r31},1
000000cc c75eff00        546 	andi	255,r7,r11
000000d0 06d0            547 	mov	r6,r26
000000d2 435f0300        548 	st.b	r11,3[sp]
000000d6 c8ceff00        549 	andi	255,r8,r25
                         550 --	    .bf
                         551 .LDW52:
                         552 --229: {
                         553 --230:     uint32_t  addr = R_DEV_PinGetRegAddr(R_DEV_PIN_REG_PM, Port);  
000000da 1a38            554 	mov	r26,r7
000000dc 0432            555 	mov	4,r6
                         556 	jarl	_R_DEV_PinGetRegAddr,lp
                         556 <EXPANSION BEGIN>
                         556 jarl22 _R_DEV_PinGetRegAddr , lp 
000000de 80ff0000*       556 <EXPANSION END>
000000e2 0ae0            557 	mov	r10,r28
                         558 --231:     uint16_t  reg_val      = 0u;
                         559 --line231
                         560 ..lin.D.3A.5CRenesas_Electronics.5CD1x_RGL.5Crgl_ghs_D1Lx_obj_V1.2E2.2E0.5Cvlib.5Capp.5Cgfx_apps.5Csimple_draw_d1l2.5Ctarget.5Cd1lx_mango_ghs.5Cobj.5Cr_sys_gpio.9::
                         561 .LDWlin9:
000000e4 00ea            562 	mov	0,r29
                         563 --232:     uint16_t  pin_position = 1u;
000000e6 01da            564 	mov	1,r27
                         565 --234:     reg_val = R_DEV_READ_REG(16, addr);
000000e8 fcef0100        566 	ld.hu	0[r28],r29
                         567 --235:     if (0 == Dir) /*  Set direction to output */
000000ec e0c9            568 	cmp	zero,r25
000000ee 8a0d*           569 	bne	.L256
                         570 --236:     {
                         571 --237:         reg_val &= (uint16_t)(~pin_position);
                         572 --line237
                         573 ..lin.D.3A.5CRenesas_Electronics.5CD1x_RGL.5Crgl_ghs_D1Lx_obj_V1.2E2.2E0.5Cvlib.5Capp.5Cgfx_apps.5Csimple_draw_d1l2.5Ctarget.5Cd1lx_mango_ghs.5Cobj.5Cr_sys_gpio.10::
                         574 .LDWlin10:
000000f0 3b08            575 	not	r27,r1
000000f2 c100            576 	zxh	r1
000000f4 41e9            577 	and	r1,r29
000000f6 dd00            578 	zxh	r29
                         579 --238:         R_DEV_WRITE_REG(16, addr, reg_val);
000000f8 7cef0000        580 	st.h	r29,0[r28]
000000fc d505*           581 	br	.L258

                                                                      Page 11
                                                              C:\Users\YINGAO~1\AppData\Local\Temp\gh_00008vg1.si
                         582 .L256:
                         583 --239:     }
                         584 --240:     else /* Set direction to input */
                         585 --241:     {
                         586 --242:         reg_val |= pin_position;
                         587 --line242
                         588 ..lin.D.3A.5CRenesas_Electronics.5CD1x_RGL.5Crgl_ghs_D1Lx_obj_V1.2E2.2E0.5Cvlib.5Capp.5Cgfx_apps.5Csimple_draw_d1l2.5Ctarget.5Cd1lx_mango_ghs.5Cobj.5Cr_sys_gpio.11::
                         589 .LDWlin11:
000000fe 1be9            590 	or	r27,r29
00000100 dd00            591 	zxh	r29
                         592 --243:         R_DEV_WRITE_REG(16, addr, reg_val);
00000102 7cef0000        593 	st.h	r29,0[r28]
                         594 .L258:
                         595 --244:     }
                         596 --245:     
                         597 --246:     /* Activate input buffer in case of GP input  */
                         598 --247:     addr    = R_DEV_PinGetRegAddr(R_DEV_PIN_REG_PIBC, Port);
00000106 1a38            599 	mov	r26,r7
00000108 0b32            600 	mov	11,r6
                         601 	jarl	_R_DEV_PinGetRegAddr,lp
                         601 <EXPANSION BEGIN>
                         601 jarl22 _R_DEV_PinGetRegAddr , lp 
0000010a 80ff0000*       601 <EXPANSION END>
0000010e 0ae0            602 	mov	r10,r28
                         603 --248:     reg_val = R_DEV_READ_REG(16, addr);
                         604 --line248
                         605 ..lin.D.3A.5CRenesas_Electronics.5CD1x_RGL.5Crgl_ghs_D1Lx_obj_V1.2E2.2E0.5Cvlib.5Capp.5Cgfx_apps.5Csimple_draw_d1l2.5Ctarget.5Cd1lx_mango_ghs.5Cobj.5Cr_sys_gpio.12::
                         606 .LDWlin12:
00000110 fcef0100        607 	ld.hu	0[r28],r29
                         608 --249:     if (0 == Dir)
00000114 e0c9            609 	cmp	zero,r25
00000116 ea05*           610 	bne	.L259
                         611 --250:     {
                         612 --251:         reg_val &= (uint16_t)(~pin_position); 
                         613 --line251
                         614 ..lin.D.3A.5CRenesas_Electronics.5CD1x_RGL.5Crgl_ghs_D1Lx_obj_V1.2E2.2E0.5Cvlib.5Capp.5Cgfx_apps.5Csimple_draw_d1l2.5Ctarget.5Cd1lx_mango_ghs.5Cobj.5Cr_sys_gpio.13::
                         615 .LDWlin13:
00000118 3b08            616 	not	r27,r1
0000011a c100            617 	zxh	r1
0000011c 41e9            618 	and	r1,r29
0000011e dd00            619 	zxh	r29
00000120 b505*           620 	br	.L261
                         621 .L259:
                         622 --252:     }
                         623 --253:     else 
                         624 --254:     {
                         625 --255:         reg_val |= pin_position; 
                         626 --line255
                         627 ..lin.D.3A.5CRenesas_Electronics.5CD1x_RGL.5Crgl_ghs_D1Lx_obj_V1.2E2.2E0.5Cvlib.5Capp.5Cgfx_apps.5Csimple_draw_d1l2.5Ctarget.5Cd1lx_mango_ghs.5Cobj.5Cr_sys_gpio.14::
                         628 .LDWlin14:
00000122 1be9            629 	or	r27,r29
00000124 dd00            630 	zxh	r29
                         631 .L261:
                         632 --256:     }
                         633 --257:     R_DEV_WRITE_REG(16, addr, reg_val);
00000126 7cef0000        634 	st.h	r29,0[r28]
                         635 --258:     
                         636 --259: }
0000012a 0000            637 	nop
                         638 --	    .ef
                         639 .LDW62:

                                                                      Page 12
                                                              C:\Users\YINGAO~1\AppData\Local\Temp\gh_00008vg1.si
0000012c 4206ff70        640 	dispose	1,{r25,r26,r27,r28,r29,r31},[lp]
                         641 	.type	_R_SYS_GPIO_PinDirection,@function
                         642 	.size	_R_SYS_GPIO_PinDirection,.-_R_SYS_GPIO_PinDirection
                         643 	.align	2
                         644 .LDW72:
                         645 --_addr	r28	local
                         646 --_reg_val	r29	local
                         647 --_pin_position	r27	local
                         648 
                         649 --_Port	r26	param
                         650 --_Pin	3[sp]	param
                         651 --_Dir	r25	param
                         652 
                         653 	.section ".bss","awb"
                         654 .L310:
                         655 	.type	.L310,@object
                         656 	.size	.L310,0
                         657 	.data
                         658 	.text
                         659 
                         660 
                         661 --261: /*******************************************************************************
                         662 --262:   Function: R_SYS_GPIO_WritePort
                         663 --264:   See: r_gpio_sys.h for details
                         664 --265: */
                         665 --267: void R_SYS_GPIO_WritePort(int32_t Port, uint16_t Mask, uint16_t Value)
                         666 	.align	2
                         667 	.align	2
                         668 	.global	_R_SYS_GPIO_WritePort
                         669 _R_SYS_GPIO_WritePort:
00000130 8007e130        670 	prepare	{r26,r27,r28,r29,r31},0
00000134 06e0            671 	mov	r6,r28
00000136 c7deffff        672 	andi	65535,r7,r27
0000013a c8d6ffff        673 	andi	65535,r8,r26
                         674 --	    .bf
                         675 .LDW82:
                         676 --268: {
                         677 --269:     uint32_t  addr         = R_DEV_PinGetRegAddr(R_DEV_PIN_REG_PSR, Port); 
0000013e 1c38            678 	mov	r28,r7
00000140 0232            679 	mov	2,r6
                         680 	jarl	_R_DEV_PinGetRegAddr,lp
                         680 <EXPANSION BEGIN>
                         680 jarl22 _R_DEV_PinGetRegAddr , lp 
00000142 80ff0000*       680 <EXPANSION END>
00000146 0ae8            681 	mov	r10,r29
                         682 --270:     uint32_t  reg_val      = Mask;
                         683 --line270
                         684 ..lin.D.3A.5CRenesas_Electronics.5CD1x_RGL.5Crgl_ghs_D1Lx_obj_V1.2E2.2E0.5Cvlib.5Capp.5Cgfx_apps.5Csimple_draw_d1l2.5Ctarget.5Cd1lx_mango_ghs.5Cobj.5Cr_sys_gpio.15::
                         685 .LDWlin15:
00000148 1b08            686 	mov	r27,r1
                         687 --272:     /* we use masked port reg write 
                         688 --273:             reg_val = Mask<<16 | Port */
                         689 --274:     reg_val    <<= 16; 
0000014a d00a            690 	shl	16,r1
                         691 --275:     reg_val |= (uint32_t)Value; 
0000014c 1a09            692 	or	r26,r1
                         693 --276:     R_DEV_WRITE_REG(32, addr, reg_val); 
0000014e 7d0f0100        694 	st.w	r1,0[r29]
                         695 --278: }
00000152 0000            696 	nop
                         697 --	    .ef

                                                                      Page 13
                                                              C:\Users\YINGAO~1\AppData\Local\Temp\gh_00008vg1.si
                         698 .LDW92:
00000154 4006ff30        699 	dispose	0,{r26,r27,r28,r29,r31},[lp]
                         700 	.type	_R_SYS_GPIO_WritePort,@function
                         701 	.size	_R_SYS_GPIO_WritePort,.-_R_SYS_GPIO_WritePort
                         702 	.align	2
                         703 .LDW03:
                         704 --_addr	r29	local
                         705 --_reg_val	r1	local
                         706 
                         707 --_Port	r28	param
                         708 --_Mask	r27	param
                         709 --_Value	r26	param
                         710 
                         711 	.section ".bss","awb"
                         712 .L386:
                         713 	.type	.L386,@object
                         714 	.size	.L386,0
                         715 	.data
                         716 	.text
                         717 
                         718 
                         719 --279: /*******************************************************************************
                         720 --280:   Function: R_SYS_GPIO_EnableInt
                         721 --282:   See: r_gpio_sys.h for details
                         722 --283: */
                         723 --285: void R_SYS_GPIO_EnableInt(uint32_t Unit) 
                         724 	.align	2
                         725 	.align	2
                         726 	.global	_R_SYS_GPIO_EnableInt
                         727 _R_SYS_GPIO_EnableInt:
00000158 80076100        728 	prepare	{r29,r31},0
0000015c 06e8            729 	mov	r6,r29
                         730 --	    .bf
                         731 .LDW13:
                         732 --286: {
                         733 --287:     if (Unit < R_GPIO_EXT_INT_NUM) 
0000015e 6bea            734 	cmp	11,r29
00000160 f905*           735 	bnl	.L415
                         736 --289:     {
                         737 --290:         R_DEV_IntEnable((r_dev_IntSel_t)(R_DEV_INT_P0 + Unit) ,1); 
                         738 --line290
                         739 ..lin.D.3A.5CRenesas_Electronics.5CD1x_RGL.5Crgl_ghs_D1Lx_obj_V1.2E2.2E0.5Cvlib.5Capp.5Cgfx_apps.5Csimple_draw_d1l2.5Ctarget.5Cd1lx_mango_ghs.5Cobj.5Cr_sys_gpio.16::
                         740 .LDWlin16:
00000162 1d360600        741 	addi	6,r29,r6
00000166 013a            742 	mov	1,r7
                         743 	jarl	_R_DEV_IntEnable,lp
                         743 <EXPANSION BEGIN>
                         743 jarl22 _R_DEV_IntEnable , lp 
00000168 80ff0000*       743 <EXPANSION END>
0000016c d505*           744 	br	.L417
                         745 .L415:
                         746 --291:     }
                         747 --292:     else 
                         748 --293:     {
                         749 --294:         R_DEV_ERROR(Unit, R_DEV_ERR_INTR, "GPIO: We do not have this Ext. Int");      
                         750 --line294
                         751 ..lin.D.3A.5CRenesas_Electronics.5CD1x_RGL.5Crgl_ghs_D1Lx_obj_V1.2E2.2E0.5Cvlib.5Capp.5Cgfx_apps.5Csimple_draw_d1l2.5Ctarget.5Cd1lx_mango_ghs.5Cobj.5Cr_sys_gpio.17::
                         752 .LDWlin17:
0000016e 1d30            753 	mov	r29,r6
00000170 043a            754 	mov	4,r7
                         755 	jarl	_R_DEV_ErrorHandler,lp

                                                                      Page 14
                                                              C:\Users\YINGAO~1\AppData\Local\Temp\gh_00008vg1.si
                         755 <EXPANSION BEGIN>
                         755 jarl22 _R_DEV_ErrorHandler , lp 
00000172 80ff0000*       755 <EXPANSION END>
                         756 .L417:
                         757 --295:     }
                         758 --296: }
                         759 --line296
                         760 ..lin.D.3A.5CRenesas_Electronics.5CD1x_RGL.5Crgl_ghs_D1Lx_obj_V1.2E2.2E0.5Cvlib.5Capp.5Cgfx_apps.5Csimple_draw_d1l2.5Ctarget.5Cd1lx_mango_ghs.5Cobj.5Cr_sys_gpio.18::
                         761 .LDWlin18:
00000176 0000            762 	nop
                         763 --	    .ef
                         764 .LDW23:
00000178 40067f00        765 	dispose	0,{r29,r31},[lp]
                         766 	.type	_R_SYS_GPIO_EnableInt,@function
                         767 	.size	_R_SYS_GPIO_EnableInt,.-_R_SYS_GPIO_EnableInt
                         768 	.align	2
                         769 .LDW33:
                         770 
                         771 --_Unit	r29	param
                         772 
                         773 	.section ".bss","awb"
                         774 .L446:
                         775 	.type	.L446,@object
                         776 	.size	.L446,0
                         777 	.data
                         778 	.text
                         779 
                         780 
                         781 --299: /*******************************************************************************
                         782 --300:   Function: R_SYS_GPIO_DisableInt
                         783 --302:   See: r_gpio_sys.h for details
                         784 --303: */
                         785 --305: void R_SYS_GPIO_DisableInt(uint32_t Unit) 
                         786 	.align	2
                         787 	.align	2
                         788 	.global	_R_SYS_GPIO_DisableInt
                         789 _R_SYS_GPIO_DisableInt:
0000017c 80076100        790 	prepare	{r29,r31},0
00000180 06e8            791 	mov	r6,r29
                         792 --	    .bf
                         793 .LDW43:
                         794 --306: {
                         795 --307:     if (Unit < R_GPIO_EXT_INT_NUM) 
00000182 6bea            796 	cmp	11,r29
00000184 f905*           797 	bnl	.L469
                         798 --308:     {
                         799 --309:         R_DEV_IntEnable((r_dev_IntSel_t)(R_DEV_INT_P0 + Unit), 0);
                         800 --line309
                         801 ..lin.D.3A.5CRenesas_Electronics.5CD1x_RGL.5Crgl_ghs_D1Lx_obj_V1.2E2.2E0.5Cvlib.5Capp.5Cgfx_apps.5Csimple_draw_d1l2.5Ctarget.5Cd1lx_mango_ghs.5Cobj.5Cr_sys_gpio.19::
                         802 .LDWlin19:
00000186 1d360600        803 	addi	6,r29,r6
0000018a 003a            804 	mov	0,r7
                         805 	jarl	_R_DEV_IntEnable,lp
                         805 <EXPANSION BEGIN>
                         805 jarl22 _R_DEV_IntEnable , lp 
0000018c 80ff0000*       805 <EXPANSION END>
00000190 d505*           806 	br	.L471
                         807 .L469:
                         808 --310:     }
                         809 --311:     else 
                         810 --312:     {

                                                                      Page 15
                                                              C:\Users\YINGAO~1\AppData\Local\Temp\gh_00008vg1.si
                         811 --313:         R_DEV_ERROR(Unit, R_DEV_ERR_INTR, "GPIO: We do not have this Ext. Int");      
                         812 --line313
                         813 ..lin.D.3A.5CRenesas_Electronics.5CD1x_RGL.5Crgl_ghs_D1Lx_obj_V1.2E2.2E0.5Cvlib.5Capp.5Cgfx_apps.5Csimple_draw_d1l2.5Ctarget.5Cd1lx_mango_ghs.5Cobj.5Cr_sys_gpio.20::
                         814 .LDWlin20:
00000192 1d30            815 	mov	r29,r6
00000194 043a            816 	mov	4,r7
                         817 	jarl	_R_DEV_ErrorHandler,lp
                         817 <EXPANSION BEGIN>
                         817 jarl22 _R_DEV_ErrorHandler , lp 
00000196 80ff0000*       817 <EXPANSION END>
                         818 .L471:
                         819 --314:     }
                         820 --315: }
                         821 --line315
                         822 ..lin.D.3A.5CRenesas_Electronics.5CD1x_RGL.5Crgl_ghs_D1Lx_obj_V1.2E2.2E0.5Cvlib.5Capp.5Cgfx_apps.5Csimple_draw_d1l2.5Ctarget.5Cd1lx_mango_ghs.5Cobj.5Cr_sys_gpio.21::
                         823 .LDWlin21:
0000019a 0000            824 	nop
                         825 --	    .ef
                         826 .LDW53:
0000019c 40067f00        827 	dispose	0,{r29,r31},[lp]
                         828 	.type	_R_SYS_GPIO_DisableInt,@function
                         829 	.size	_R_SYS_GPIO_DisableInt,.-_R_SYS_GPIO_DisableInt
                         830 	.align	2
                         831 .LDW63:
                         832 
                         833 --_Unit	r29	param
                         834 
                         835 	.section ".bss","awb"
                         836 .L494:
                         837 	.type	.L494,@object
                         838 	.size	.L494,0
                         839 	.data
                         840 	.text
                         841 
                         842 
                         843 --317: /*******************************************************************************
                         844 --318:   Function: R_SYS_GPIO_SetIntFilter
                         845 --320:   See: r_gpio_sys.h for details
                         846 --321: */
                         847 --322: void R_SYS_GPIO_SetIntFilter(uint32_t Unit, r_gpio_IntTrigger_t Trigger)
                         848 	.align	2
                         849 	.align	2
                         850 	.align	2
                         851 	.global	_R_SYS_GPIO_SetIntFilter
                         852 _R_SYS_GPIO_SetIntFilter:
000001a0 8007e100        853 	prepare	{r28,r29,r31},0
000001a4 06e8            854 	mov	r6,r29
000001a6 07e0            855 	mov	r7,r28
                         856 --	    .bf
                         857 .LDW73:
                         858 --323: {
                         859 --324:     if (Trigger < R_GPIO_INT_TRIGGER_NUM)
000001a8 66e2            860 	cmp	6,r28
000001aa 8e15*           861 	bge	.L517
                         862 --325:     {
                         863 --326:         R_DEV_WRITE_REG(8, loc_FclaCtrlRegOffset[Unit], loc_FilterSetting[Trigger]);
                         864 --line326
                         865 ..lin.D.3A.5CRenesas_Electronics.5CD1x_RGL.5Crgl_ghs_D1Lx_obj_V1.2E2.2E0.5Cvlib.5Capp.5Cgfx_apps.5Csimple_draw_d1l2.5Ctarget.5Cd1lx_mango_ghs.5Cobj.5Cr_sys_gpio.22::
                         866 .LDWlin22:
000001ac 1df0            867 	mov	r29,ep
000001ae c2f2            868 	shl	2,ep

                                                                      Page 16
                                                              C:\Users\YINGAO~1\AppData\Local\Temp\gh_00008vg1.si
000001b0 2e0600000000*   869 	mov	_loc_FclaCtrlRegOffset,r14
000001b6 cef1            870 	add	r14,ep
000001b8 210600000000*   871 	mov	_loc_FilterSetting,r1
000001be 00f5            872 	sld.w	0[ep],ep
000001c0 dc09            873 	add	r28,r1
000001c2 810f0100        874 	ld.bu	0[r1],r1
000001c6 800b            875 	sst.b	r1,0[ep]
000001c8 d505*           876 	br	.L519
                         877 .L517:
                         878 --327:     }
                         879 --328:     else 
                         880 --329:     {
                         881 --330:         R_DEV_ERROR(Unit, R_DEV_ERR_INTR, "GPIO: We do not have this Ext. Int"); 
                         882 --line330
                         883 ..lin.D.3A.5CRenesas_Electronics.5CD1x_RGL.5Crgl_ghs_D1Lx_obj_V1.2E2.2E0.5Cvlib.5Capp.5Cgfx_apps.5Csimple_draw_d1l2.5Ctarget.5Cd1lx_mango_ghs.5Cobj.5Cr_sys_gpio.23::
                         884 .LDWlin23:
000001ca 1d30            885 	mov	r29,r6
000001cc 043a            886 	mov	4,r7
                         887 	jarl	_R_DEV_ErrorHandler,lp
                         887 <EXPANSION BEGIN>
                         887 jarl22 _R_DEV_ErrorHandler , lp 
000001ce 80ff0000*       887 <EXPANSION END>
                         888 .L519:
                         889 --331:     }
                         890 --332: }
                         891 --line332
                         892 ..lin.D.3A.5CRenesas_Electronics.5CD1x_RGL.5Crgl_ghs_D1Lx_obj_V1.2E2.2E0.5Cvlib.5Capp.5Cgfx_apps.5Csimple_draw_d1l2.5Ctarget.5Cd1lx_mango_ghs.5Cobj.5Cr_sys_gpio.24::
                         893 .LDWlin24:
000001d2 0000            894 	nop
                         895 --	    .ef
                         896 .LDW83:
000001d4 4006ff00        897 	dispose	0,{r28,r29,r31},[lp]
                         898 	.type	_R_SYS_GPIO_SetIntFilter,@function
                         899 	.size	_R_SYS_GPIO_SetIntFilter,.-_R_SYS_GPIO_SetIntFilter
                         900 	.align	2
                         901 .LDW93:
                         902 
                         903 --_Unit	r29	param
                         904 --_Trigger	r28	param
                         905 
                         906 	.section ".bss","awb"
                         907 .L542:
                         908 	.type	.L542,@object
                         909 	.size	.L542,0
                         910 	.section ".rodata","a"
                         911 	.align	4
                         912 	.global	_loc_FilterSetting..D.3A.5CRenesas_Electronics.5CD1x_RGL.5Crgl_ghs_D1Lx_obj_V1.2E2.2E0.5Cvlib.5Capp.5Cgfx_apps.5Csimple_draw_d1l2.5Ctarget.5Cd1lx_mango_ghs.5Cobj.5Cr_sys_gpio.
                         913 _loc_FilterSetting..D.3A.5CRenesas_Electronics.5CD1x_RGL.5Crgl_ghs_D1Lx_obj_V1.2E2.2E0.5Cvlib.5Capp.5Cgfx_apps.5Csimple_draw_d1l2.5Ctarget.5Cd1lx_mango_ghs.5Cobj.5Cr_sys_gpio.:
                         914 	.type	_loc_FilterSetting..D.3A.5CRenesas_Electronics.5CD1x_RGL.5Crgl_ghs_D1Lx_obj_V1.2E2.2E0.5Cvlib.5Capp.5Cgfx_apps.5Csimple_draw_d1l2.5Ctarget.5Cd1lx_mango_ghs.5Cobj.5Cr_sys_gpio.,@object
                         915 	.size	_loc_FilterSetting..D.3A.5CRenesas_Electronics.5CD1x_RGL.5Crgl_ghs_D1Lx_obj_V1.2E2.2E0.5Cvlib.5Capp.5Cgfx_apps.5Csimple_draw_d1l2.5Ctarget.5Cd1lx_mango_ghs.5Cobj.5Cr_sys_gpio.,6
00000000 00              916 _loc_FilterSetting:	.space	1
00000001 01020305        917 	.byte	1,2,3,5
00000005 04              918 	.byte	4
                         919 	.type	_loc_FilterSetting,@object
                         920 	.size	_loc_FilterSetting,6
00000006 0000            921 	.space	2
                         922 	.global	_loc_FclaCtrlRegOffset..D.3A.5CRenesas_Electronics.5CD1x_RGL.5Crgl_ghs_D1Lx_obj_V1.2E2.2E0.5Cvlib.5Capp.5Cgfx_apps.5Csimple_draw_d1l2.5Ctarget.5Cd1lx_mango_ghs.5Cobj.5Cr_sys_gpio.
                         923 _loc_FclaCtrlRegOffset..D.3A.5CRenesas_Electronics.5CD1x_RGL.5Crgl_ghs_D1Lx_obj_V1.2E2.2E0.5Cvlib.5Capp.5Cgfx_apps.5Csimple_draw_d1l2.5Ctarget.5Cd1lx_mango_ghs.5Cobj.5Cr_sys_gpio.:
                         924 	.type	_loc_FclaCtrlRegOffset..D.3A.5CRenesas_Electronics.5CD1x_RGL.5Crgl_ghs_D1Lx_obj_V1.2E2.2E0.5Cvlib.5Capp.5Cgfx_apps.5Csimple_draw_d1l2.5Ctarget.5Cd1lx_mango_ghs.5Cobj.5Cr_sys_gpio.,@object
                         925 	.size	_loc_FclaCtrlRegOffset..D.3A.5CRenesas_Electronics.5CD1x_RGL.5Crgl_ghs_D1Lx_obj_V1.2E2.2E0.5Cvlib.5Capp.5Cgfx_apps.5Csimple_draw_d1l2.5Ctarget.5Cd1lx_mango_ghs.5Cobj.5Cr_sys_gpio.,48
00000008 0440c3ff        926 _loc_FclaCtrlRegOffset:	.byte	4,64,195,255

                                                                      Page 17
                                                              C:\Users\YINGAO~1\AppData\Local\Temp\gh_00008vg1.si
0000000c 0840c3ff        927 	.byte	8,64,195,255
00000010 0c40c3ff        928 	.byte	12,64,195,255
00000014 1040c3ff        929 	.byte	16,64,195,255
00000018 1440c3ff        930 	.byte	20,64,195,255
0000001c 1840c3ff        931 	.byte	24,64,195,255
00000020 1c40c3ff        932 	.byte	28,64,195,255
00000024 0041c3ff        933 	.byte	0,65,195,255
00000028 0441c3ff        934 	.byte	4,65,195,255
0000002c 0841c3ff        935 	.byte	8,65,195,255
00000030 0c41c3ff        936 	.byte	12,65,195,255
00000034 0040c3ff        937 	.byte	0,64,195,255
                         938 	.type	_loc_FclaCtrlRegOffset,@object
                         939 	.size	_loc_FclaCtrlRegOffset,48
                         940 	.data
                         941 	.text
                         942 
                         943 
                         944 --334: /*******************************************************************************
                         945 --335:   Function: R_SYS_GPIO_ClearIntPendingFlag
                         946 --337:   See: r_gpio_sys.h for details
                         947 --338: */
                         948 --339: void R_SYS_GPIO_ClearIntPendingFlag(uint32_t Unit)
                         949 	.align	2
                         950 	.align	2
                         951 	.global	_R_SYS_GPIO_ClearIntPendingFlag
                         952 _R_SYS_GPIO_ClearIntPendingFlag:
000001d8 80076100        953 	prepare	{r29,r31},0
000001dc 06e8            954 	mov	r6,r29
                         955 --	    .bf
                         956 .LDW04:
                         957 --340: {
                         958 --341:     R_DEV_IntClearFlag((r_dev_IntSel_t)(R_DEV_INT_P0 + Unit)); 
000001de 1d360600        959 	addi	6,r29,r6
                         960 	jarl	_R_DEV_IntClearFlag,lp
                         960 <EXPANSION BEGIN>
                         960 jarl22 _R_DEV_IntClearFlag , lp 
000001e2 80ff0000*       960 <EXPANSION END>
                         961 --342: } 
                         962 --line342
                         963 ..lin.D.3A.5CRenesas_Electronics.5CD1x_RGL.5Crgl_ghs_D1Lx_obj_V1.2E2.2E0.5Cvlib.5Capp.5Cgfx_apps.5Csimple_draw_d1l2.5Ctarget.5Cd1lx_mango_ghs.5Cobj.5Cr_sys_gpio.25::
                         964 .LDWlin25:
000001e6 0000            965 	nop
                         966 --	    .ef
                         967 .LDW14:
000001e8 40067f00        968 	dispose	0,{r29,r31},[lp]
                         969 	.type	_R_SYS_GPIO_ClearIntPendingFlag,@function
                         970 	.size	_R_SYS_GPIO_ClearIntPendingFlag,.-_R_SYS_GPIO_ClearIntPendingFlag
                         971 	.align	2
                         972 .LDW24:
                         973 
                         974 --_Unit	r29	param
                         975 
                         976 	.section ".bss","awb"
                         977 .L586:
                         978 	.type	.L586,@object
                         979 	.size	.L586,0
                         980 	.data
                         981 	.text
                         982 
                         983 
                         984 --345: /*******************************************************************************

                                                                      Page 18
                                                              C:\Users\YINGAO~1\AppData\Local\Temp\gh_00008vg1.si
                         985 --346:   Function: R_SYS_GPIO_IOReset
                         986 --347:   
                         987 --348:   See: r_gpio_sys.h for details
                         988 --349: */
                         989 --351: void R_SYS_GPIO_IOReset(uint8_t SetRelease) 
                         990 	.align	2
                         991 	.align	2
                         992 	.global	_R_SYS_GPIO_IOReset
                         993 _R_SYS_GPIO_IOReset:
000001ec c60eff00        994 	andi	255,r6,r1
                         995 --	    .bf
                         996 .LDW34:
                         997 --352: {
                         998 --353:     /* functionality not implemented, please implement if you need */
                         999 --355: }
000001f0 0000           1000 	nop
                        1001 --	    .ef
                        1002 .LDW44:
000001f2 7f00           1003 	jmp	[lp]
                        1004 	.type	_R_SYS_GPIO_IOReset,@function
                        1005 	.size	_R_SYS_GPIO_IOReset,.-_R_SYS_GPIO_IOReset
                        1006 	.align	2
                        1007 .LDW54:
                        1008 
                        1009 --_SetRelease	r1	param
                        1010 
                        1011 	.section ".bss","awb"
                        1012 .L616:
                        1013 	.type	.L616,@object
                        1014 	.size	.L616,0
                        1015 	.data
                        1016 	.text
                        1017 
                        1018 	.align	2
                        1019 --_loc_FclaCtrlRegOffset	_loc_FclaCtrlRegOffset	static
                        1020 --_loc_FilterSetting	_loc_FilterSetting	static
                        1021 
                        1022 	.data
                        1023 	.ghsnote version,14
                        1024 	.ghsnote tools,3
                        1025 	.ghsnote options,144
                        1026 	.text
                        1027 	.align	2
                        1028 ..eof.D.3A.5CRenesas_Electronics.5CD1x_RGL.5Crgl_ghs_D1Lx_obj_V1.2E2.2E0.5Cvlib.5Capp.5Cgfx_apps.5Csimple_draw_d1l2.5Ctarget.5Cd1lx_mango_ghs.5Cobj.5Cr_sys_gpio...44.3A.5CRenesas_Electronics.5CD1x_RGL.5Crgl_ghs_D1Lx_obj_V1.2E2.2E0.5Cvlib.5Capp.5Cgfx_apps.5Csimple_draw_d1l2.5Ctarget.5Cd1lx_mango_ghs..5A740386..0::
                        1029 .rh850_flags REGMODE22,DATA_ALIGN8,GP_FIX,EP_NONFIX,TP_FIX,REG2_RESERVE,G3M
