                                                                      Page 1
                                                              C:\Users\YINGAO~1\AppData\Local\Temp\gh_000084c1.si
Command Line: C:\ghs\comp_201355\ease850.exe -w -elf -b0 -ID:\Renesas_Electronics\D1x_RGL\rgl_ghs_D1Lx_obj_V1.2.0\vlib\macro\flashc\sfma\lib -I../../../../../Device -I../../../../../Driver/ADCE -I../../../../../Driver/CLOCK -I../../../../../Driver/DIO -I../../../../../Driver/DSPI -I../../../../../Driver/Interrupt -I../../../../../Driver/ISM -I../../../../../Driver/OSTM -I../../../../../Driver/PWM -I../../../../../Driver/RSTC -I../../../../../Driver/RTCA -I../../../../../Driver/STBC -I../../../../../Driver/TAUB -I../../../../../Driver/WDT -I../../../../../middleware\ADM -I../../../../../middleware\BPM -I../../../../../middleware\EED -I../../../../../middleware\IOM -I../../../../../middleware\LRM -I../../../../../middleware\MOM -I../../../../../middleware\PWMM -I../../../../../Common -I../../../../../Applayer\DSM -I../../../../../Applayer\FM -I../../../../../Applayer\TPM -I../../../../../Applayer\ACC -I../../../../../Applayer\ASS -I../../../../../Applayer\BAT -I../../../../../Applayer\COM -I../../../../../Applayer\COM\vtp -I../../../../../Applayer\COM\vtp\lib -I../../../../../Applayer\CRUS -I../../../../../Applayer\DIAG -I../../../../../Applayer\FC -I../../../../../Applayer\FL -I../../../../../Applayer\HSD -I../../../../../Applayer\IDLE -I../../../../../Applayer\ILLU -I../../../../../Applayer\LED -I../../../../../Applayer\MSG -I../../../../../Applayer\NVM -I../../../../../Applayer\ODO -I../../../../../Applayer\PWR -I../../../../../Applayer\RANG -I../../../../../Applayer\RST -I../../../../../Applayer\RTC -I../../../../../Applayer\SCS -I../../../../../Applayer\SSB -I../../../../../Applayer\ST -I../../../../../Applayer\STSMG -I../../../../../Applayer\SYS -I../../../../../Applayer\TIP -I../../../../../Applayer\TRIP -I../../../../../Applayer\CHM -I../../../../../Applayer\DM -I../../../../../Applayer\EVT -I../../../../../Applayer\FTR -I../../../../../Applayer\SLF -I../../../../../Applayer\NWD -I../../../../../Applayer\TPMS -I../../../../../Applayer\WFM -I../../../../../Applayer\NZM -I../../../../../app/gfx_apps/simple_draw_d1l2/src -I../../../../../bsp/board//config -I../../../../../bsp/board//src/gfx -I../../../../../bsp/board//src/hmi -I../../../../../bsp/board//src/stdio -I../../../../../bsp/board/d1lx_mango/config -I../../../../../bsp/board/d1lx_mango/src -I../../../../../bsp/board/d1lx_mango/src/gfx -I../../../../../bsp/board/d1lx_mango/src/hmi -I../../../../../bsp/board/d1lx_mango/src/stdio -I../../../../../bsp/gfx/lib -I../../../../../bsp/gfx/src -I../../../../../bsp/hmi/lib -I../../../../../bsp/hmi/src -I../../../../../bsp/lib -I../../../../../bsp/stdio/lib -I../../../../../bsp/stdio/src -I../../../../../cdi/lib -I../../../../../cdi/src -I../../../../../compiler/rh850_ghs/inc -I../../../../../device/d1lx/lib -I../../../../../device/d1lx/macro_cfg -I../../../../../device/d1lx/src/dev -I../../../../../device/d1lx/src/rh850_ghs -I../../../../../device/d1x_common/macro_cfg -I../../../../../device/d1x_common/src/csisw -I../../../../../device/d1x_common/src/ddb -I../../../../../device/d1x_common/src/dev -I../../../../../device/d1x_common/src/gfxbus -I../../../../../device/d1x_common/src/gpio -I../../../../../device/d1x_common/src/ostm -I../../../../../device/d1x_common/src/pbg -I../../../../../device/d1x_common/src/riic -I../../../../../device/d1x_common/src/sfma -I../../../../../device/d1x_common/src/spea -I../../../../../device/d1x_common/src/tauj -I../../../../../device/d1x_common/src/tick -I../../../../../device/d1x_common/src/vdce -I../../../../../device/d1x_common/src/wm -I../../../../../device/d1x_common/src/xbus -I../../../../../device/lib -I../../../../../macro/bus/pbg/lib -I../../../../../macro/bus/pbg/src -I../../../../../macro/csi/csisw/lib -I../../../../../macro/csi/csisw/src -I../../../../../macro/drw2d/lib -I../../../../../macro/drw2d/platform/cpu -I../../../../../macro/drw2d/platform/os/no_os -I../../../../../macro/drw2d/src -I../../../../../macro/flashc/sfcdb/lib -I../../../../../macro/flashc/sfcdb/src -I../../../../../macro/flashc/sfma/lib -I../../../../../macro/flashc/sfma/src -I../../../../../macro/gfxbus/lib -I../../../../../macro/gfxbus/src -I../../../../../macro/gfxbus/xbus/lib -I../../../../../macro/gfxbus/xbus/src -I../../../../../macro/gpio/lib -I../../../../../macro/gpio/src -I../../../../../macro/i2c/riic/lib -I../../../../../macro/i2c/riic/src -I../../../../../macro/tick/lib -I../../../../../macro/tick/src -I../../../../../macro/timer/ostm/lib -I../../../../../macro/timer/ostm/src -I../../../../../macro/timer/tauj/lib -I../../../../../macro/timer/tauj/src -I../../../../../macro/vdce/lib -I../../../../../macro/vdce/src -I../../../../../macro/vo/ddb/lib -I../../../../../macro/vo/ddb/src -I../../../../../macro/vo/spea/lib -I../../../../../macro/vo/spea/src -I../../../../../macro/wm/lib -I../../../../../macro/wm/src -I../../../../../app/gfx_apps/simple_draw_d1l2/src/QD_HMI -I../../../../../app/gfx_apps/simple_draw_d1l2/src/QD_HMI/HMI_Data -IC:\ghs\comp_201355\lib\rh850_22 -cg_underscore -cpu=rh850g3m -no_v850_simd -nomacro -patch_dbo=D:\Renesas_Electronics\D1x_RGL\rgl_ghs_D1Lx_obj_V1.2.0\vlib\app\gfx_apps\simple_draw_d1l2\target\d1lx_mango_ghs\obj\r_sys_wm.dbo -source=r_sys_wm.c -o .\obj\gh_000084c1.o -list=.\obj\r_sys_wm.lst C:\Users\YINGAO~1\AppData\Local\Temp\gh_000084c1.si 
Original File: C:\Users\YINGAO~1\AppData\Local\Temp\gh_000084c1.si
Source File: r_sys_wm.c
Directory: D:\Renesas_Electronics\D1x_RGL\rgl_ghs_D1Lx_obj_V1.2.0\vlib\app\gfx_apps\simple_draw_d1l2\target\d1lx_mango_ghs
Host OS: Windows 7 Service Pack 1
EASE: Copyright (C) 1983-2013 Green Hills Software.  All Rights Reversed.
Release: Compiler v2013.5.5
Build Directory: [Directory] BTOWINBOX:c:/build_2013_5_bto/2013-10-04.1311-2013_5_bto/win32-comp-ecom
Revision: [VCInfo] http://toolsvc/branches/release-branch-2013-5-bto/src@496240 (built by build)
Revision Date: Sat Oct 05 04:54:43 2013

Release Date: Sat Oct 05 05:20:49 2013

                           1 --Driver Command: ccv850 -c -MD
                           2 --		-ID:\Renesas_Electronics\D1x_RGL\rgl_ghs_D1Lx_obj_V1.2.0\vlib\macro\flashc\sfma\lib
                           3 --		-I../../../../../Device -I../../../../../Driver/ADCE
                           4 --		-I../../../../../Driver/CLOCK -I../../../../../Driver/DIO
                           5 --		-I../../../../../Driver/DSPI -I../../../../../Driver/Interrupt
                           6 --		-I../../../../../Driver/ISM -I../../../../../Driver/OSTM
                           7 --		-I../../../../../Driver/PWM -I../../../../../Driver/RSTC
                           8 --		-I../../../../../Driver/RTCA -I../../../../../Driver/STBC
                           9 --		-I../../../../../Driver/TAUB -I../../../../../Driver/WDT
                          10 --		-I../../../../../middleware\ADM -I../../../../../middleware\BPM
                          11 --		-I../../../../../middleware\EED -I../../../../../middleware\IOM
                          12 --		-I../../../../../middleware\LRM -I../../../../../middleware\MOM
                          13 --		-I../../../../../middleware\PWMM -I../../../../../Common
                          14 --		-I../../../../../Applayer\DSM -I../../../../../Applayer\FM
                          15 --		-I../../../../../Applayer\TPM -I../../../../../Applayer\ACC
                          16 --		-I../../../../../Applayer\ASS -I../../../../../Applayer\BAT
                          17 --		-I../../../../../Applayer\COM -I../../../../../Applayer\COM\vtp
                          18 --		-I../../../../../Applayer\COM\vtp\lib
                          19 --		-I../../../../../Applayer\CRUS -I../../../../../Applayer\DIAG
                          20 --		-I../../../../../Applayer\FC -I../../../../../Applayer\FL
                          21 --		-I../../../../../Applayer\HSD -I../../../../../Applayer\IDLE
                          22 --		-I../../../../../Applayer\ILLU -I../../../../../Applayer\LED
                          23 --		-I../../../../../Applayer\MSG -I../../../../../Applayer\NVM
                          24 --		-I../../../../../Applayer\ODO -I../../../../../Applayer\PWR
                          25 --		-I../../../../../Applayer\RANG -I../../../../../Applayer\RST
                          26 --		-I../../../../../Applayer\RTC -I../../../../../Applayer\SCS
                          27 --		-I../../../../../Applayer\SSB -I../../../../../Applayer\ST
                          28 --		-I../../../../../Applayer\STSMG -I../../../../../Applayer\SYS
                          29 --		-I../../../../../Applayer\TIP -I../../../../../Applayer\TRIP
                          30 --		-I../../../../../Applayer\CHM -I../../../../../Applayer\DM
                          31 --		-I../../../../../Applayer\EVT -I../../../../../Applayer\FTR
                          32 --		-I../../../../../Applayer\SLF -I../../../../../Applayer\NWD
                          33 --		-I../../../../../Applayer\TPMS -I../../../../../Applayer\WFM
                          34 --		-I../../../../../Applayer\NZM
                          35 --		-I../../../../../app/gfx_apps/simple_draw_d1l2/src
                          36 --		-I../../../../../bsp/board//config
                          37 --		-I../../../../../bsp/board//src/gfx
                          38 --		-I../../../../../bsp/board//src/hmi
                          39 --		-I../../../../../bsp/board//src/stdio
                          40 --		-I../../../../../bsp/board/d1lx_mango/config
                          41 --		-I../../../../../bsp/board/d1lx_mango/src
                          42 --		-I../../../../../bsp/board/d1lx_mango/src/gfx
                          43 --		-I../../../../../bsp/board/d1lx_mango/src/hmi
                          44 --		-I../../../../../bsp/board/d1lx_mango/src/stdio
                          45 --		-I../../../../../bsp/gfx/lib -I../../../../../bsp/gfx/src
                          46 --		-I../../../../../bsp/hmi/lib -I../../../../../bsp/hmi/src
                          47 --		-I../../../../../bsp/lib -I../../../../../bsp/stdio/lib
                          48 --		-I../../../../../bsp/stdio/src -I../../../../../cdi/lib
                          49 --		-I../../../../../cdi/src -I../../../../../compiler/rh850_ghs/inc
                          50 --		-I../../../../../device/d1lx/lib

                                                                      Page 2
                                                              C:\Users\YINGAO~1\AppData\Local\Temp\gh_000084c1.si
                          51 --		-I../../../../../device/d1lx/macro_cfg
                          52 --		-I../../../../../device/d1lx/src/dev
                          53 --		-I../../../../../device/d1lx/src/rh850_ghs
                          54 --		-I../../../../../device/d1x_common/macro_cfg
                          55 --		-I../../../../../device/d1x_common/src/csisw
                          56 --		-I../../../../../device/d1x_common/src/ddb
                          57 --		-I../../../../../device/d1x_common/src/dev
                          58 --		-I../../../../../device/d1x_common/src/gfxbus
                          59 --		-I../../../../../device/d1x_common/src/gpio
                          60 --		-I../../../../../device/d1x_common/src/ostm
                          61 --		-I../../../../../device/d1x_common/src/pbg
                          62 --		-I../../../../../device/d1x_common/src/riic
                          63 --		-I../../../../../device/d1x_common/src/sfma
                          64 --		-I../../../../../device/d1x_common/src/spea
                          65 --		-I../../../../../device/d1x_common/src/tauj
                          66 --		-I../../../../../device/d1x_common/src/tick
                          67 --		-I../../../../../device/d1x_common/src/vdce
                          68 --		-I../../../../../device/d1x_common/src/wm
                          69 --		-I../../../../../device/d1x_common/src/xbus
                          70 --		-I../../../../../device/lib -I../../../../../macro/bus/pbg/lib
                          71 --		-I../../../../../macro/bus/pbg/src
                          72 --		-I../../../../../macro/csi/csisw/lib
                          73 --		-I../../../../../macro/csi/csisw/src
                          74 --		-I../../../../../macro/drw2d/lib
                          75 --		-I../../../../../macro/drw2d/platform/cpu
                          76 --		-I../../../../../macro/drw2d/platform/os/no_os
                          77 --		-I../../../../../macro/drw2d/src
                          78 --		-I../../../../../macro/flashc/sfcdb/lib
                          79 --		-I../../../../../macro/flashc/sfcdb/src
                          80 --		-I../../../../../macro/flashc/sfma/lib
                          81 --		-I../../../../../macro/flashc/sfma/src
                          82 --		-I../../../../../macro/gfxbus/lib
                          83 --		-I../../../../../macro/gfxbus/src
                          84 --		-I../../../../../macro/gfxbus/xbus/lib
                          85 --		-I../../../../../macro/gfxbus/xbus/src
                          86 --		-I../../../../../macro/gpio/lib -I../../../../../macro/gpio/src
                          87 --		-I../../../../../macro/i2c/riic/lib
                          88 --		-I../../../../../macro/i2c/riic/src
                          89 --		-I../../../../../macro/tick/lib -I../../../../../macro/tick/src
                          90 --		-I../../../../../macro/timer/ostm/lib
                          91 --		-I../../../../../macro/timer/ostm/src
                          92 --		-I../../../../../macro/timer/tauj/lib
                          93 --		-I../../../../../macro/timer/tauj/src
                          94 --		-I../../../../../macro/vdce/lib -I../../../../../macro/vdce/src
                          95 --		-I../../../../../macro/vo/ddb/lib
                          96 --		-I../../../../../macro/vo/ddb/src
                          97 --		-I../../../../../macro/vo/spea/lib
                          98 --		-I../../../../../macro/vo/spea/src -I../../../../../macro/wm/lib
                          99 --		-I../../../../../macro/wm/src
                         100 --		-I../../../../../app/gfx_apps/simple_draw_d1l2/src/QD_HMI
                         101 --		-I../../../../../app/gfx_apps/simple_draw_d1l2/src/QD_HMI/HMI_Data
                         102 --		-G --no_commons --no_implicit_include --prototype_errors
                         103 --		-DR_DRW2D_OS_NO_OS -DR_DRW2D_SYS_CPU -DUSED_CPU=RH850G3M
                         104 --		-DUSE_BSP_GFX -DUSE_BSP_HMI -DUSE_BSP_STDIO -DUSE_CDI -DUSE_CSISW
                         105 --		-DUSE_DDB -DUSE_DRW2D -DUSE_GFXBUS -DUSE_GPIO -DUSE_OSTM
                         106 --		-DUSE_PBG -DUSE_RIIC -DUSE_SFCDB -DUSE_SFMA -DUSE_SPEA -DUSE_TAUJ
                         107 --		-DUSE_TICK -DUSE_VDCE -DUSE_WM -DUSE_XBUS -MD -Mn -Mx -Zuse1bit
                         108 --		-allocate_ep -cpu=rh850g3m -entry=_RESET -large_sda -list
                         109 --		-no_callt -notda -passsource -preprocess_assembly_files
                         110 --		-registermode=22 -reserve_r2 --diag_warning 1 -object_dir=./obj
                         111 --		-filetype.c ..\..\..\..\..\device\d1x_common\src\wm\r_sys_wm.c -o

                                                                      Page 3
                                                              C:\Users\YINGAO~1\AppData\Local\Temp\gh_000084c1.si
                         112 --		.\obj\r_sys_wm.o
                         113 --Source File:   ..\..\..\..\..\device\d1x_common\src\wm\r_sys_wm.c
                         114 --Directory:     
                         115 --		D:\Renesas_Electronics\D1x_RGL\rgl_ghs_D1Lx_obj_V1.2.0\vlib\app\gfx_apps\simple_draw_d1l2\target\d1lx_mango_ghs
                         116 --Compile Date:  Fri Feb 02 14:22:02 2018
                         117 --Host OS:       Win32
                         118 --Version:       C-RH850 2013.5.5 DEVELOPMENT VERSION
                         119 --Release:       Compiler v2013.5.5
                         120 --Revision Date: Sat Oct 05 05:01:20 2013
                         121 --Release Date:  Sat Oct 05 05:22:44 2013
                         122 -- ecom  -g -w
                         123 
                         124 --1: /*
                         125 --2: ****************************************************************************
                         126 --3: PROJECT : WM
                         127 --4: FILE    : $Id: r_sys_wm.c 7909 2016-03-09 10:08:44Z matthias.nippert $
                         128 --5: ============================================================================ 
                         129 --6: DESCRIPTION
                         130 --7: WM system functions for D1x
                         131 --8: ============================================================================
                         132 --9:                             C O P Y R I G H T
                         133 --10: ============================================================================
                         134 --11:                        Copyright (c) 2013 - 2014
                         135 --12:                                   by 
                         136 --13:                        Renesas Electronics (Europe) GmbH. 
                         137 --14:                            Arcadiastrasse 10
                         138 --15:                           D-40472 Duesseldorf
                         139 --16:                                Germany
                         140 --17:                           All rights reserved.
                         141 --18: ============================================================================
                         142 --19: Purpose: only for testing, not for mass production
                         143 --21: DISCLAIMER
                         144 --23: LICENSEE has read, understood and accepted the terms and conditions defined in
                         145 --24: the license agreement, especially the usage rights. In any case, it is
                         146 --25: LICENSEE's responsibility to make sure that any user of the software complies
                         147 --26: with the terms and conditions of the signed license agreement.
                         148 --27: ****************************************************************************
                         149 --28: */
                         150 --30: /***********************************************************
                         151 --31:   Title: D1Mx and D1Lx WM SYS API implementation  
                         152 --32: */
                         153 --34: /***********************************************************
                         154 --35:   Section: Includes
                         155 --36: */
                         156 --38: #include "r_typedefs.h"
                         157 --39: #include "r_cdi_api.h"
                         158 --41: #include "r_ddb_api.h"      /* display database with display timings */
                         159 --42: #include "r_config_wm.h"
                         160 --43: #include "r_wm_api.h"
                         161 --44: #include "r_wm_sys.h"
                         162 --45: #include "r_sys_wm.h"
                         163 --47: #include "r_tick_api.h"
                         164 --48: #ifdef USE_ROS
                         165 --49: #include "r_os_api.h"
                         166 --50: #endif
                         167 --52: #include "r_vdce_api.h"
                         168 --53: #include "r_spea_api.h"
                         169 --54: #include "r_dev_pin_types.h"
                         170 --55: #include "r_dev_api.h"
                         171 --57: #if defined R_WM_MSQ_DEQUEUE_PROFILING || defined R_WM_MSQ_ENQUEUE_PROFILING
                         172 --58: #include "r_profile.h"

                                                                      Page 4
                                                              C:\Users\YINGAO~1\AppData\Local\Temp\gh_000084c1.si
                         173 --59: #endif
                         174 --62: /***********************************************************
                         175 --63:   Section: Local Defines
                         176 --64: */
                         177 --66: /* #define R_WM_SYS_ERROR_TRACKING */
                         178 --68: #ifdef R_WM_SYS_ERROR_TRACKING
                         179 --69:     #include "r_bsp_stdio_api.h"
                         180 --70: #endif
                         181 --72: /***********************************************************
                         182 --73:   Macro: LOC_INVALID_LAYER
                         183 --74:   
                         184 --75:   Defines an invalid layer constant.
                         185 --76: */
                         186 --77: #define LOC_INVALID_LAYER 0xffffffffu
                         187 --79: /***********************************************************
                         188 --80:   Macro: LOC_INVALID_SPRITE 
                         189 --81:   
                         190 --82:   Defines an invalid sprite constant.
                         191 --83: */
                         192 --84: #define LOC_INVALID_SPRITE 16
                         193 --86: /***********************************************************
                         194 --87:   Macro: LOC_USE_OS
                         195 --89:   Flag signaling if the OS is used
                         196 --90: */
                         197 --92: #ifdef USE_ROS
                         198 --93:   #define LOC_USE_OS
                         199 --94: #endif
                         200 --96:    
                         201 --97: /***********************************************************
                         202 --98:   Macro: VDCECTL
                         203 --99:   
                         204 --100:   ITU 656 register.
                         205 --101: */
                         206 --102: #define VDCECTL         0xFFC0601Cu
                         207 --104: /***********************************************************
                         208 --105:   Macro: VDCECTL_VISL1
                         209 --106:   
                         210 --107:   ITU 656 register.
                         211 --108: */
                         212 --110: #define VDCECTL_VISL0   (1ul<<0)
                         213 --111: #define VDCECTL_VISL1   (1ul<<1)
                         214 --112: #define VDCECTL_PXSL    (1ul<<3)
                         215 --113: #define VDCECTL_UPDT0   (1ul<<4)
                         216 --114: #define VDCECTL_UPDT1   (1ul<<5)
                         217 --117: /***********************************************************
                         218 --118:   Section: Global Variables
                         219 --119: */
                         220 --121: /***********************************************************
                         221 --122:   Variable : r_wm_DevSys
                         222 --123:   
                         223 --124:   Sys layer device object.
                         224 --125: */
                         225 --127: r_wm_DevSys_t r_wm_DevSys[R_WM_DEV_NUM];
                         226 --129: /***********************************************************
                         227 --130:   Section: Local Function Declarations
                         228 --131: */
                         229 --133: static float32_t loc_floorf( float32_t x );
                         230 --134: static int32_t   loc_iroundf( float32_t f );
                         231 --135: static float32_t loc_minf( float32_t a, float32_t b );
                         232 --136: static float32_t loc_maxf( float32_t a, float32_t b );
                         233 --137: static float32_t loc_log2( float32_t i );

                                                                      Page 5
                                                              C:\Users\YINGAO~1\AppData\Local\Temp\gh_000084c1.si
                         234 --138: static float32_t loc_pow2( float32_t i );
                         235 --139: static float32_t loc_powf( float32_t a, float32_t b );
                         236 --142: static void loc_VblankIsr(uint32_t Unit);
                         237 --143: static void loc_ScanlineIsr(uint32_t Unit);
                         238 --144: static void loc_VI_VblankIsr(uint32_t Unit);
                         239 --145: static void locIsr_VO_0_Vblank(void);
                         240 --146: static void locIsr_VO_0_Scanline(void);
                         241 --147: static void locIsr_VI_0_Vblank(void);
                         242 --148: static void locIsr_VO_1_Vblank(void);
                         243 --149: static void locIsr_VO_1_Scanline(void);
                         244 --150: static void locIsr_VI_1_Vblank(void);
                         245 --151: static r_vdce_Format_t loc_GetVdceFormat(r_wm_WinColorFmt_t Format);
                         246 --152: static void loc_Layer2Spea (    uint32_t        Unit,
                         247 --153:                                 uint32_t        Layer,
                         248 --154:                                 r_spea_Unit_t  *SpeaUnit,
                         249 --155:                                 uint8_t        *SpeaUnitOrdinal
                         250 --156:                            );
                         251 --157: static void loc_SpeaOrdinal2Layer ( uint32_t    Unit,
                         252 --158:                                     uint8_t     SpeaUnitOrdinal,
                         253 --159:                                     uint32_t   *Layer
                         254 --160:                                   );
                         255 --161: static uint8_t loc_FindSpriteOrdinal   (   uint32_t            Unit,
                         256 --162:                                     const r_wm_Sprite_t *Sprite
                         257 --163:                                 );
                         258 --164: static uint32_t loc_ReassignAllSprites(uint32_t Unit, r_wm_Sprite_t* RootSprite, uint32_t Layer);
                         259 --165: static uint32_t loc_WinGetCount(uint32_t Unit);
                         260 --166: static r_wm_sys_vdce_WinLayerPair_t* loc_WinLayerPairGet(uint32_t Unit, const r_wm_Window_t* Win);
                         261 --167: static r_wm_sys_vdce_WinLayerPair_t* loc_WinLayerPairGetByLayer(uint32_t Unit, const uint32_t Layer);
                         262 --168: static uint32_t loc_SetRle(uint32_t Unit, r_wm_WinColorFmt_t Fmt, uint32_t Buf);
                         263 --169: static uint32_t loc_CheckHWLayerCapabilities(uint32_t Layer, const r_wm_Window_t* Win);
                         264 --170: static uint32_t loc_WinReconfAll(uint32_t Unit);
                         265 --171: static uint32_t loc_WinSetViewportAndGeom  (   uint32_t            Unit,
                         266 --172:                                         const r_wm_Window_t *Win,
                         267 --173:                                         uint32_t            Layer,
                         268 --174:                                         int32_t             PosX,
                         269 --175:                                         int32_t             PosY,
                         270 --176:                                         int32_t             Pitch,
                         271 --177:                                         int32_t             Width,
                         272 --178:                                         int32_t             Height,
                         273 --179:                                         int32_t             Bpp
                         274 --180:                                     );
                         275 --182: static uint32_t loc_WinSetFb   (   uint32_t            Unit,
                         276 --183:                             const r_wm_Window_t *Win,
                         277 --184:                             int32_t             PosX,
                         278 --185:                             int32_t             PosY,
                         279 --186:                             const void          *Fb
                         280 --187:                         );
                         281 --188: static const void* loc_WinGetOnScreenFb(const r_wm_Window_t *Win);
                         282 --189: static const r_vdce_Error_t loc_VDCE_LayerEnable(uint32_t Unit, uint32_t Layer);
                         283 --190: static const r_vdce_Error_t loc_VDCE_LayerDisable(uint32_t Unit, uint32_t Layer);
                         284 --191: static void loc_VDCE_ErrorCallback(const uint32_t Unit, const r_vdce_Error_t Error);
                         285 --192: static void loc_SPEA_ErrorCallback(const uint32_t Unit, uint32_t Error);
                         286 --193: static uint32_t loc_WindowIsYUVLayer(const r_wm_Window_t *Window);
                         287 --195: static uint32_t loc_fitCurveForVdce( uint16_t *InValue, float32_t  *OutValue, uint32_t NumEntries,
                         288 --196:                                      r_vdce_GammaCorrect_t *FittedCurve );
                         289 --197: static uint32_t loc_getGammaCurve( uint32_t Unit, uint8_t Gamma, r_vdce_GammaCorrect_t *Curve );
                         290 --201: /***********************************************************
                         291 --202:   Section: Local Variables
                         292 --203: */
                         293 --205: #ifdef LOC_USE_OS
                         294 --206:     static R_OS_ThreadMutex_t     locMutexMsgQueue[R_WM_DEV_NUM];

                                                                      Page 6
                                                              C:\Users\YINGAO~1\AppData\Local\Temp\gh_000084c1.si
                         295 --207:     static R_OS_ThreadMutex_t     locMutexBufferMgmnt[R_WM_DEV_NUM];
                         296 --208:     static R_OS_ThreadMutex_t     locMutexWindows[R_WM_DEV_NUM];
                         297 --209:     static R_OS_ThreadMutex_t     locMutexDevice[R_WM_DEV_NUM];
                         298 --210:     static uint32_t               locMutexInitCreated[R_WM_DEV_NUM] = {0};
                         299 --211:     static R_OS_Sem_t             locSemaMsgTrigger[R_WM_DEV_NUM];
                         300 --212:     
                         301 --213:     static R_OS_Sem_t             locSemaISRTrigger[R_WM_DEV_NUM][R_WM_EVENT_LAST];
                         302 --214: #endif
                         303 --216: static volatile uint32_t loc_WaitVblankInt[R_WM_DEV_NUM];
                         304 --217: static volatile uint32_t loc_WaitScanlineInt[R_WM_DEV_NUM];
                         305 --219: #ifdef R_WM_SYS_ERROR_TRACKING
                         306 --220:     static volatile r_wm_Error_t loc_LastError_Code = R_WM_ERR_OK;
                         307 --221:     static volatile uint32_t     loc_LastError_Info = 0;
                         308 --222:     static volatile uint32_t     loc_LastError_Unit = 0;
                         309 --223:     static volatile uint32_t     loc_LastError_Line = 0;
                         310 --224:     static volatile uint32_t     loc_LastError_Overflow = 0;
                         311 --225:     static volatile uint32_t     loc_LastError_NewError = 0;
                         312 --226: #endif /* R_WM_SYS_ERROR_TRACKING */
                         313 --228: static void (*loc_Isr[R_WM_DEV_NUM][R_WM_EVENT_LAST])(void) =
                         314 --229: {
                         315 --230:     /* The member with value zero of r_wm_EventId_t is not used */
                         316 --231:     {0, &locIsr_VO_0_Vblank, &locIsr_VO_0_Scanline, &locIsr_VI_0_Vblank}
                         317 --232: #if (R_WM_DEV_NUM > 1)
                         318 --233:     ,
                         319 --234:     {0, &locIsr_VO_1_Vblank, &locIsr_VO_1_Scanline, &locIsr_VI_1_Vblank}
                         320 --235: #endif
                         321 --236: };
                         322 --238: static r_cdi_Heap_t *loc_CpuHeap_WM = 0;
                         323 --239: static r_cdi_Heap_t *loc_VidHeap_WM = 0;
                         324 --241: /***********************************************************
                         325 --242:   Section: Local Functions
                         326 --243: */
                         327 --245: /*
                         328 --246: The following function are a replacement for math.h to ensure, the drivers are stdlib-free.
                         329 --247: You may replace these functions by a library implementation if available.
                         330 --249: MISRA disabled due to binary fiddling with floating point variables in <loc_log2> and <loc_pow2>.
                         331 --250: */
                         332 --251: #pragma ghs startnomisra
                         333 --253: /***********************************************************
                         334 --254:   Function: loc_floorf
                         335 --255:   
                         336 --256:   You may replace this by a library implementation if available.
                         337 --257: */
                         338 --258: static float32_t loc_floorf( float32_t x )
                         339 	.text
                         340 ..bof.D.3A.5CRenesas_Electronics.5CD1x_RGL.5Crgl_ghs_D1Lx_obj_V1.2E2.2E0.5Cvlib.5Capp.5Cgfx_apps.5Csimple_draw_d1l2.5Ctarget.5Cd1lx_mango_ghs.5Cobj.5Cr_sys_wm...44.3A.5CRenesas_Electronics.5CD1x_RGL.5Crgl_ghs_D1Lx_obj_V1.2E2.2E0.5Cvlib.5Capp.5Cgfx_apps.5Csimple_draw_d1l2.5Ctarget.5Cd1lx_mango_ghs..5A74038B..0::
                         341 	.align	2
                         342 	.global	_loc_floorf..D.3A.5CRenesas_Electronics.5CD1x_RGL.5Crgl_ghs_D1Lx_obj_V1.2E2.2E0.5Cvlib.5Capp.5Cgfx_apps.5Csimple_draw_d1l2.5Ctarget.5Cd1lx_mango_ghs.5Cobj.5Cr_sys_wm.
                         343 _loc_floorf..D.3A.5CRenesas_Electronics.5CD1x_RGL.5Crgl_ghs_D1Lx_obj_V1.2E2.2E0.5Cvlib.5Capp.5Cgfx_apps.5Csimple_draw_d1l2.5Ctarget.5Cd1lx_mango_ghs.5Cobj.5Cr_sys_wm.:
                         344 _loc_floorf:
00000000 0608            345 	mov	r6,r1
                         346 --	    .bf
                         347 .LDW01:
                         348 --259: {
                         349 --260:     int64_t y = (int64_t)x;
00000002 e10f4454        350 	trncf.sl	r1,r10
00000006 0a60            351 	mov	r10,r12
00000008 0b68            352 	mov	r11,r13
                         353 --261:     if (x < 0) {
0000000a 405e8080        354 	movhi	hi(-2139095040),zero,r11
0000000e eb09            355 	cmp	r11,r1

                                                                      Page 7
                                                              C:\Users\YINGAO~1\AppData\Local\Temp\gh_000084c1.si
00000010 810d*           356 	bl	.L4
                         357 --262:         y--;
                         358 --line262
                         359 ..lin.D.3A.5CRenesas_Electronics.5CD1x_RGL.5Crgl_ghs_D1Lx_obj_V1.2E2.2E0.5Cvlib.5Capp.5Cgfx_apps.5Csimple_draw_d1l2.5Ctarget.5Cd1lx_mango_ghs.5Cobj.5Cr_sys_wm.1::
                         360 .LDWlin1:
00000012 0c50            361 	mov	r12,r10
00000014 014a            362 	mov	1,r9
00000016 a951            363 	sub	r9,r10
00000018 e06f825b        364 	sbfl	zero,r13,r11
0000001c 0a60            365 	mov	r10,r12
0000001e 0b68            366 	mov	r11,r13
                         367 .L4:
                         368 --263:     }
                         369 --264:     return y;
00000020 e1674254        370 	cvtf.ls	r12,r10
                         371 --	    .ef
                         372 .LDW11:
00000024 7f00            373 	jmp	[lp]
                         374 	.type	_loc_floorf,@function
                         375 	.size	_loc_floorf,.-_loc_floorf
                         376 	.type	_loc_floorf..D.3A.5CRenesas_Electronics.5CD1x_RGL.5Crgl_ghs_D1Lx_obj_V1.2E2.2E0.5Cvlib.5Capp.5Cgfx_apps.5Csimple_draw_d1l2.5Ctarget.5Cd1lx_mango_ghs.5Cobj.5Cr_sys_wm.,@function
                         377 	.size	_loc_floorf..D.3A.5CRenesas_Electronics.5CD1x_RGL.5Crgl_ghs_D1Lx_obj_V1.2E2.2E0.5Cvlib.5Capp.5Cgfx_apps.5Csimple_draw_d1l2.5Ctarget.5Cd1lx_mango_ghs.5Cobj.5Cr_sys_wm.,.-_loc_floorf..D.3A.5CRenesas_Electronics.5CD1x_RGL.5Crgl_ghs_D1Lx_obj_V1.2E2.2E0.5Cvlib.5Capp.5Cgfx_apps.5Csimple_draw_d1l2.5Ctarget.5Cd1lx_mango_ghs.5Cobj.5Cr_sys_wm.
                         378 	.align	2
                         379 .LDW21:
                         380 --_y	r12	local
                         381 
                         382 --_x	r1	param
                         383 
                         384 	.section ".bss","awb"
                         385 .L30:
                         386 	.type	.L30,@object
                         387 	.size	.L30,0
                         388 	.data
                         389 	.text
                         390 
                         391 --265: }
                         392 
                         393 --267: /***********************************************************
                         394 --268:   Function: loc_iroundf
                         395 --269:   
                         396 --270:   You may replace this by a library implementation if available.
                         397 --271: */
                         398 --272: static int32_t loc_iroundf( float32_t f )
                         399 	.align	2
                         400 	.align	2
                         401 	.global	_loc_iroundf..D.3A.5CRenesas_Electronics.5CD1x_RGL.5Crgl_ghs_D1Lx_obj_V1.2E2.2E0.5Cvlib.5Capp.5Cgfx_apps.5Csimple_draw_d1l2.5Ctarget.5Cd1lx_mango_ghs.5Cobj.5Cr_sys_wm.
                         402 _loc_iroundf..D.3A.5CRenesas_Electronics.5CD1x_RGL.5Crgl_ghs_D1Lx_obj_V1.2E2.2E0.5Cvlib.5Capp.5Cgfx_apps.5Csimple_draw_d1l2.5Ctarget.5Cd1lx_mango_ghs.5Cobj.5Cr_sys_wm.:
                         403 _loc_iroundf:
00000026 0608            404 	mov	r6,r1
                         405 --	    .bf
                         406 .LDW31:
                         407 --273: {
                         408 --274:     f += (f>0) ? 0.5f : -0.5f;
00000028 406e8000        409 	movhi	hi(8388608),zero,r13
0000002c 407600bf        410 	movhi	hi(-1090519040),zero,r14
00000030 ed09            411 	cmp	r13,r1
00000032 406e003f        412 	movhi	hi(1056964608),zero,r13
00000036 ee6f2c73        413 	cmovlt	r14,r13,r14
0000003a ee0f600c        414 	addf.s	r14,r1,r1
                         415 --275:     return (int32_t)f;
0000003e e10f4074        416 	trncf.sw	r1,r14

                                                                      Page 8
                                                              C:\Users\YINGAO~1\AppData\Local\Temp\gh_000084c1.si
00000042 0e50            417 	mov	r14,r10
                         418 --	    .ef
                         419 .LDW41:
00000044 7f00            420 	jmp	[lp]
                         421 	.type	_loc_iroundf,@function
                         422 	.size	_loc_iroundf,.-_loc_iroundf
                         423 	.type	_loc_iroundf..D.3A.5CRenesas_Electronics.5CD1x_RGL.5Crgl_ghs_D1Lx_obj_V1.2E2.2E0.5Cvlib.5Capp.5Cgfx_apps.5Csimple_draw_d1l2.5Ctarget.5Cd1lx_mango_ghs.5Cobj.5Cr_sys_wm.,@function
                         424 	.size	_loc_iroundf..D.3A.5CRenesas_Electronics.5CD1x_RGL.5Crgl_ghs_D1Lx_obj_V1.2E2.2E0.5Cvlib.5Capp.5Cgfx_apps.5Csimple_draw_d1l2.5Ctarget.5Cd1lx_mango_ghs.5Cobj.5Cr_sys_wm.,.-_loc_iroundf..D.3A.5CRenesas_Electronics.5CD1x_RGL.5Crgl_ghs_D1Lx_obj_V1.2E2.2E0.5Cvlib.5Capp.5Cgfx_apps.5Csimple_draw_d1l2.5Ctarget.5Cd1lx_mango_ghs.5Cobj.5Cr_sys_wm.
                         425 	.align	2
                         426 .LDW51:
                         427 
                         428 --_f	r1	param
                         429 
                         430 	.section ".bss","awb"
                         431 .L80:
                         432 	.type	.L80,@object
                         433 	.size	.L80,0
                         434 	.data
                         435 	.text
                         436 
                         437 --276: }
                         438 
                         439 --279: /*******************************************************************************
                         440 --280:   Function: minf
                         441 --282:   Return the minimum of the two supplied integer values
                         442 --284:   You may replace this by a library implementation if available.
                         443 --286:   Parameters:
                         444 --287:   a,b  - Values to be compared
                         445 --288:   
                         446 --289:   Returns:
                         447 --290:   int32_t
                         448 --291: */
                         449 --292: static float32_t loc_minf( float32_t a, float32_t b )
                         450 	.align	2
                         451 	.align	2
                         452 	.global	_loc_minf..D.3A.5CRenesas_Electronics.5CD1x_RGL.5Crgl_ghs_D1Lx_obj_V1.2E2.2E0.5Cvlib.5Capp.5Cgfx_apps.5Csimple_draw_d1l2.5Ctarget.5Cd1lx_mango_ghs.5Cobj.5Cr_sys_wm.
                         453 _loc_minf..D.3A.5CRenesas_Electronics.5CD1x_RGL.5Crgl_ghs_D1Lx_obj_V1.2E2.2E0.5Cvlib.5Capp.5Cgfx_apps.5Csimple_draw_d1l2.5Ctarget.5Cd1lx_mango_ghs.5Cobj.5Cr_sys_wm.:
                         454 _loc_minf:
00000046 0608            455 	mov	r6,r1
00000048 0770            456 	mov	r7,r14
                         457 --	    .bf
                         458 .LDW61:
                         459 --293: {
                         460 --294:     return ( a < b ) ? a : b;
0000004a e1776a54        461 	minf.s	r1,r14,r10
                         462 --	    .ef
                         463 .LDW71:
0000004e 7f00            464 	jmp	[lp]
                         465 	.type	_loc_minf,@function
                         466 	.size	_loc_minf,.-_loc_minf
                         467 	.type	_loc_minf..D.3A.5CRenesas_Electronics.5CD1x_RGL.5Crgl_ghs_D1Lx_obj_V1.2E2.2E0.5Cvlib.5Capp.5Cgfx_apps.5Csimple_draw_d1l2.5Ctarget.5Cd1lx_mango_ghs.5Cobj.5Cr_sys_wm.,@function
                         468 	.size	_loc_minf..D.3A.5CRenesas_Electronics.5CD1x_RGL.5Crgl_ghs_D1Lx_obj_V1.2E2.2E0.5Cvlib.5Capp.5Cgfx_apps.5Csimple_draw_d1l2.5Ctarget.5Cd1lx_mango_ghs.5Cobj.5Cr_sys_wm.,.-_loc_minf..D.3A.5CRenesas_Electronics.5CD1x_RGL.5Crgl_ghs_D1Lx_obj_V1.2E2.2E0.5Cvlib.5Capp.5Cgfx_apps.5Csimple_draw_d1l2.5Ctarget.5Cd1lx_mango_ghs.5Cobj.5Cr_sys_wm.
                         469 	.align	2
                         470 .LDW81:
                         471 
                         472 --_a	r1	param
                         473 --_b	r14	param
                         474 
                         475 	.section ".bss","awb"
                         476 .L120:
                         477 	.type	.L120,@object

                                                                      Page 9
                                                              C:\Users\YINGAO~1\AppData\Local\Temp\gh_000084c1.si
                         478 	.size	.L120,0
                         479 	.data
                         480 	.text
                         481 
                         482 --295: }
                         483 
                         484 --297: /***********************************************************
                         485 --298:   Function: loc_maxf
                         486 --299:   
                         487 --300:   You may replace this by a library implementation if available.
                         488 --301: */
                         489 --302: static float32_t loc_maxf( float32_t a, float32_t b )
                         490 	.align	2
                         491 	.align	2
                         492 	.global	_loc_maxf..D.3A.5CRenesas_Electronics.5CD1x_RGL.5Crgl_ghs_D1Lx_obj_V1.2E2.2E0.5Cvlib.5Capp.5Cgfx_apps.5Csimple_draw_d1l2.5Ctarget.5Cd1lx_mango_ghs.5Cobj.5Cr_sys_wm.
                         493 _loc_maxf..D.3A.5CRenesas_Electronics.5CD1x_RGL.5Crgl_ghs_D1Lx_obj_V1.2E2.2E0.5Cvlib.5Capp.5Cgfx_apps.5Csimple_draw_d1l2.5Ctarget.5Cd1lx_mango_ghs.5Cobj.5Cr_sys_wm.:
                         494 _loc_maxf:
00000050 0608            495 	mov	r6,r1
00000052 0770            496 	mov	r7,r14
                         497 --	    .bf
                         498 .LDW91:
                         499 --303: {
                         500 --304:     return ( a > b ) ? a : b;
00000054 e1776854        501 	maxf.s	r1,r14,r10
                         502 --	    .ef
                         503 .LDW02:
00000058 7f00            504 	jmp	[lp]
                         505 	.type	_loc_maxf,@function
                         506 	.size	_loc_maxf,.-_loc_maxf
                         507 	.type	_loc_maxf..D.3A.5CRenesas_Electronics.5CD1x_RGL.5Crgl_ghs_D1Lx_obj_V1.2E2.2E0.5Cvlib.5Capp.5Cgfx_apps.5Csimple_draw_d1l2.5Ctarget.5Cd1lx_mango_ghs.5Cobj.5Cr_sys_wm.,@function
                         508 	.size	_loc_maxf..D.3A.5CRenesas_Electronics.5CD1x_RGL.5Crgl_ghs_D1Lx_obj_V1.2E2.2E0.5Cvlib.5Capp.5Cgfx_apps.5Csimple_draw_d1l2.5Ctarget.5Cd1lx_mango_ghs.5Cobj.5Cr_sys_wm.,.-_loc_maxf..D.3A.5CRenesas_Electronics.5CD1x_RGL.5Crgl_ghs_D1Lx_obj_V1.2E2.2E0.5Cvlib.5Capp.5Cgfx_apps.5Csimple_draw_d1l2.5Ctarget.5Cd1lx_mango_ghs.5Cobj.5Cr_sys_wm.
                         509 	.align	2
                         510 .LDW12:
                         511 
                         512 --_a	r1	param
                         513 --_b	r14	param
                         514 
                         515 	.section ".bss","awb"
                         516 .L152:
                         517 	.type	.L152,@object
                         518 	.size	.L152,0
                         519 	.data
                         520 	.text
                         521 
                         522 --305: }
                         523 
                         524 --307: typedef union intfloat32_tag
                         525 --308: {
                         526 --309: 	float32_t fVal;
                         527 --310: 	uint32_t  i32Val;
                         528 --312: } intfloat32_t;
                         529 --314: /***********************************************************
                         530 --315:   Function: loc_log2
                         531 --316:   
                         532 --317:   Needed by <loc_powf>.
                         533 --318: */
                         534 --319: static float32_t loc_log2( float32_t i )
                         535 	.align	2
                         536 	.align	2
                         537 	.global	_loc_log2..D.3A.5CRenesas_Electronics.5CD1x_RGL.5Crgl_ghs_D1Lx_obj_V1.2E2.2E0.5Cvlib.5Capp.5Cgfx_apps.5Csimple_draw_d1l2.5Ctarget.5Cd1lx_mango_ghs.5Cobj.5Cr_sys_wm.
                         538 _loc_log2..D.3A.5CRenesas_Electronics.5CD1x_RGL.5Crgl_ghs_D1Lx_obj_V1.2E2.2E0.5Cvlib.5Capp.5Cgfx_apps.5Csimple_draw_d1l2.5Ctarget.5Cd1lx_mango_ghs.5Cobj.5Cr_sys_wm.:

                                                                      Page 10
                                                              C:\Users\YINGAO~1\AppData\Local\Temp\gh_000084c1.si
                         539 _loc_log2:
0000005a 8207e170        540 	prepare	{r25,r26,r27,r28,r29,r31},1
0000005e 06c8            541 	mov	r6,r25
00000060 40de0034        542 	movhi	hi(872415232),zero,r27
00000064 3a067976b13e    543 	mov	1051817593,r26
                         544 --	    .bf
                         545 .LDW22:
                         546 --320: {
                         547 --321:     const float32_t OOshift23 = 1.0f / (1uL<<23);
                         548 --322:     const float32_t LogBodge  = 0.346607f;
                         549 --324:     intfloat32_t _i;
                         550 --325:     float32_t x;
                         551 --326:     float32_t y;
                         552 --327:     
                         553 --328:     /* Cast types via union as we want to keep the bits as they are */
                         554 --329:     _i.fVal = i;
0000006a 63cf0100        555 	st.w	r25,0[sp]
                         556 --330:     
                         557 --331:     x  = (float32_t)_i.i32Val;
0000006e 230f0100        558 	ld.w	0[sp],r1
00000072 f00f42ec        559 	cvtf.uws	r1,r29
                         560 --332:     x *=  OOshift23; /* 1/(2^23) */
00000076 400e0034        561 	movhi	hi(872415232),zero,r1
0000007a e1ef64ec        562 	mulf.s	r1,r29,r29
                         563 --333:     x  =  x - 127;
0000007e 400efe42        564 	movhi	hi(1123942400),zero,r1
00000082 e1ef62ec        565 	subf.s	r1,r29,r29
                         566 --334:     
                         567 --335:     y = x - loc_floorf(x);
00000086 1d30            568 	mov	r29,r6
                         569 	jarl	_loc_floorf,lp
                         569 <EXPANSION BEGIN>
                         569 jarl22 _loc_floorf , lp 
00000088 bfff78ff*       569 <EXPANSION END>
0000008c eaef62e4        570 	subf.s	r10,r29,r28
                         571 --336:     y = (y-(y*y) ) * LogBodge;
                         572 --line336
                         573 ..lin.D.3A.5CRenesas_Electronics.5CD1x_RGL.5Crgl_ghs_D1Lx_obj_V1.2E2.2E0.5Cvlib.5Capp.5Cgfx_apps.5Csimple_draw_d1l2.5Ctarget.5Cd1lx_mango_ghs.5Cobj.5Cr_sys_wm.2::
                         574 .LDWlin2:
00000090 1c08            575 	mov	r28,r1
00000092 fce7e60c        576 	fnmsf.s	r28,r28,r1
00000096 2e067976b13e    577 	mov	1051817593,r14
0000009c ee0f640c        578 	mulf.s	r14,r1,r1
000000a0 01e0            579 	mov	r1,r28
                         580 --337:     
                         581 --338:     return x+y;
000000a2 fcef6054        582 	addf.s	r28,r29,r10
                         583 --	    .ef
                         584 .LDW32:
000000a6 4206ff70        585 	dispose	1,{r25,r26,r27,r28,r29,r31},[lp]
                         586 	.type	_loc_log2,@function
                         587 	.size	_loc_log2,.-_loc_log2
                         588 	.type	_loc_log2..D.3A.5CRenesas_Electronics.5CD1x_RGL.5Crgl_ghs_D1Lx_obj_V1.2E2.2E0.5Cvlib.5Capp.5Cgfx_apps.5Csimple_draw_d1l2.5Ctarget.5Cd1lx_mango_ghs.5Cobj.5Cr_sys_wm.,@function
                         589 	.size	_loc_log2..D.3A.5CRenesas_Electronics.5CD1x_RGL.5Crgl_ghs_D1Lx_obj_V1.2E2.2E0.5Cvlib.5Capp.5Cgfx_apps.5Csimple_draw_d1l2.5Ctarget.5Cd1lx_mango_ghs.5Cobj.5Cr_sys_wm.,.-_loc_log2..D.3A.5CRenesas_Electronics.5CD1x_RGL.5Crgl_ghs_D1Lx_obj_V1.2E2.2E0.5Cvlib.5Capp.5Cgfx_apps.5Csimple_draw_d1l2.5Ctarget.5Cd1lx_mango_ghs.5Cobj.5Cr_sys_wm.
                         590 	.align	2
                         591 .LDW42:
                         592 --_OOshift23	r27	local
                         593 --_LogBodge	r26	local
                         594 --__i	0[sp]	local
                         595 --_x	r29	local
                         596 --_y	r28	local

                                                                      Page 11
                                                              C:\Users\YINGAO~1\AppData\Local\Temp\gh_000084c1.si
                         597 
                         598 --_i	r25	param
                         599 
                         600 	.section ".bss","awb"
                         601 .L196:
                         602 	.type	.L196,@object
                         603 	.size	.L196,0
                         604 	.data
                         605 	.text
                         606 
                         607 --339: }
                         608 
                         609 --341: /***********************************************************
                         610 --342:   Function: loc_pow2
                         611 --343:   
                         612 --344:   Needed by <loc_powf>.
                         613 --345: */
                         614 --346: static float32_t loc_pow2( float32_t i )
                         615 	.align	2
                         616 	.align	2
                         617 	.global	_loc_pow2..D.3A.5CRenesas_Electronics.5CD1x_RGL.5Crgl_ghs_D1Lx_obj_V1.2E2.2E0.5Cvlib.5Capp.5Cgfx_apps.5Csimple_draw_d1l2.5Ctarget.5Cd1lx_mango_ghs.5Cobj.5Cr_sys_wm.
                         618 _loc_pow2..D.3A.5CRenesas_Electronics.5CD1x_RGL.5Crgl_ghs_D1Lx_obj_V1.2E2.2E0.5Cvlib.5Capp.5Cgfx_apps.5Csimple_draw_d1l2.5Ctarget.5Cd1lx_mango_ghs.5Cobj.5Cr_sys_wm.:
                         619 _loc_pow2:
000000aa 8207e130        620 	prepare	{r26,r27,r28,r29,r31},1
000000ae 06e0            621 	mov	r6,r28
000000b0 40de004b        622 	movhi	hi(1258291200),zero,r27
000000b4 3a0678eead3e    623 	mov	1051586168,r26
                         624 --	    .bf
                         625 .LDW52:
                         626 --347: {
                         627 --348:     const float32_t shift23  = (1uL<<23);
                         628 --349:     const float32_t PowBodge = 0.33971f;
                         629 --351:     intfloat32_t _x;
                         630 --352:     float32_t x;
                         631 --353:     float32_t y;
                         632 --354:     
                         633 --355:     y = i - loc_floorf(i);
000000ba 1c30            634 	mov	r28,r6
                         635 	jarl	_loc_floorf,lp
                         635 <EXPANSION BEGIN>
                         635 jarl22 _loc_floorf , lp 
000000bc bfff44ff*       635 <EXPANSION END>
000000c0 eae762ec        636 	subf.s	r10,r28,r29
                         637 --356:     y = (y-(y*y)) * PowBodge;
                         638 --line356
                         639 ..lin.D.3A.5CRenesas_Electronics.5CD1x_RGL.5Crgl_ghs_D1Lx_obj_V1.2E2.2E0.5Cvlib.5Capp.5Cgfx_apps.5Csimple_draw_d1l2.5Ctarget.5Cd1lx_mango_ghs.5Cobj.5Cr_sys_wm.3::
                         640 .LDWlin3:
000000c4 1d08            641 	mov	r29,r1
000000c6 fdefe60c        642 	fnmsf.s	r29,r29,r1
000000ca 2e0678eead3e    643 	mov	1051586168,r14
000000d0 ee0f640c        644 	mulf.s	r14,r1,r1
000000d4 01e8            645 	mov	r1,r29
                         646 --357:     
                         647 --358:     x  = (i + 127) - y;
000000d6 4076fe42        648 	movhi	hi(1123942400),zero,r14
000000da eee76074        649 	addf.s	r14,r28,r14
000000de fd77620c        650 	subf.s	r29,r14,r1
                         651 --359:     x *= shift23; /* 2^23 */
000000e2 4076004b        652 	movhi	hi(1258291200),zero,r14
000000e6 ee0f640c        653 	mulf.s	r14,r1,r1
                         654 --361:     /* Cast types via union as we want to keep the bits as they are */

                                                                      Page 12
                                                              C:\Users\YINGAO~1\AppData\Local\Temp\gh_000084c1.si
                         655 --362:     _x.i32Val = (int32_t)x;
000000ea e10f4074        656 	trncf.sw	r1,r14
000000ee 63770100        657 	st.w	r14,0[sp]
                         658 --363:     
                         659 --364: 	return _x.fVal;
000000f2 23570100        660 	ld.w	0[sp],r10
                         661 --	    .ef
                         662 .LDW62:
000000f6 4206ff30        663 	dispose	1,{r26,r27,r28,r29,r31},[lp]
                         664 	.type	_loc_pow2,@function
                         665 	.size	_loc_pow2,.-_loc_pow2
                         666 	.type	_loc_pow2..D.3A.5CRenesas_Electronics.5CD1x_RGL.5Crgl_ghs_D1Lx_obj_V1.2E2.2E0.5Cvlib.5Capp.5Cgfx_apps.5Csimple_draw_d1l2.5Ctarget.5Cd1lx_mango_ghs.5Cobj.5Cr_sys_wm.,@function
                         667 	.size	_loc_pow2..D.3A.5CRenesas_Electronics.5CD1x_RGL.5Crgl_ghs_D1Lx_obj_V1.2E2.2E0.5Cvlib.5Capp.5Cgfx_apps.5Csimple_draw_d1l2.5Ctarget.5Cd1lx_mango_ghs.5Cobj.5Cr_sys_wm.,.-_loc_pow2..D.3A.5CRenesas_Electronics.5CD1x_RGL.5Crgl_ghs_D1Lx_obj_V1.2E2.2E0.5Cvlib.5Capp.5Cgfx_apps.5Csimple_draw_d1l2.5Ctarget.5Cd1lx_mango_ghs.5Cobj.5Cr_sys_wm.
                         668 	.align	2
                         669 .LDW72:
                         670 --_shift23	r27	local
                         671 --_PowBodge	r26	local
                         672 --__x	0[sp]	local
                         673 --_x	r1	local
                         674 --_y	r29	local
                         675 
                         676 --_i	r28	param
                         677 
                         678 	.section ".bss","awb"
                         679 .L258:
                         680 	.type	.L258,@object
                         681 	.size	.L258,0
                         682 	.data
                         683 	.text
                         684 
                         685 --365: }
                         686 
                         687 --367: /***********************************************************
                         688 --368:   Function: loc_powf
                         689 --369:   
                         690 --370:   The maximum error for this implementation of powf for the range of [0.5 .. 4] is 0.7%
                         691 --371:   This is sufficient for its intended purpose.
                         692 --372:   You may replace this by a library implementation if available.
                         693 --373: */
                         694 --374: static float32_t loc_powf( float32_t a, float32_t b )
                         695 	.align	2
                         696 	.align	2
                         697 	.global	_loc_powf..D.3A.5CRenesas_Electronics.5CD1x_RGL.5Crgl_ghs_D1Lx_obj_V1.2E2.2E0.5Cvlib.5Capp.5Cgfx_apps.5Csimple_draw_d1l2.5Ctarget.5Cd1lx_mango_ghs.5Cobj.5Cr_sys_wm.
                         698 _loc_powf..D.3A.5CRenesas_Electronics.5CD1x_RGL.5Crgl_ghs_D1Lx_obj_V1.2E2.2E0.5Cvlib.5Capp.5Cgfx_apps.5Csimple_draw_d1l2.5Ctarget.5Cd1lx_mango_ghs.5Cobj.5Cr_sys_wm.:
                         699 _loc_powf:
000000fa 8007e100        700 	prepare	{r28,r29,r31},0
000000fe 06e8            701 	mov	r6,r29
00000100 07e0            702 	mov	r7,r28
                         703 --	    .bf
                         704 .LDW82:
                         705 --375: {
                         706 --376:     return loc_pow2( b * loc_log2(a) );
00000102 1d30            707 	mov	r29,r6
                         708 	jarl	_loc_log2,lp
                         708 <EXPANSION BEGIN>
                         708 jarl22 _loc_log2 , lp 
00000104 bfff56ff*       708 <EXPANSION END>
00000108 fc576434        709 	mulf.s	r28,r10,r6
                         710 	jarl	_loc_pow2,lp
                         710 <EXPANSION BEGIN>
                         710 jarl22 _loc_pow2 , lp 

                                                                      Page 13
                                                              C:\Users\YINGAO~1\AppData\Local\Temp\gh_000084c1.si
0000010c bfff9eff*       710 <EXPANSION END>
                         711 --	    .ef
                         712 .LDW92:
                         713 --line377
                         714 ..lin.D.3A.5CRenesas_Electronics.5CD1x_RGL.5Crgl_ghs_D1Lx_obj_V1.2E2.2E0.5Cvlib.5Capp.5Cgfx_apps.5Csimple_draw_d1l2.5Ctarget.5Cd1lx_mango_ghs.5Cobj.5Cr_sys_wm.4::
                         715 .LDWlin4:
00000110 4006ff00        716 	dispose	0,{r28,r29,r31},[lp]
                         717 	.type	_loc_powf,@function
                         718 	.size	_loc_powf,.-_loc_powf
                         719 	.type	_loc_powf..D.3A.5CRenesas_Electronics.5CD1x_RGL.5Crgl_ghs_D1Lx_obj_V1.2E2.2E0.5Cvlib.5Capp.5Cgfx_apps.5Csimple_draw_d1l2.5Ctarget.5Cd1lx_mango_ghs.5Cobj.5Cr_sys_wm.,@function
                         720 	.size	_loc_powf..D.3A.5CRenesas_Electronics.5CD1x_RGL.5Crgl_ghs_D1Lx_obj_V1.2E2.2E0.5Cvlib.5Capp.5Cgfx_apps.5Csimple_draw_d1l2.5Ctarget.5Cd1lx_mango_ghs.5Cobj.5Cr_sys_wm.,.-_loc_powf..D.3A.5CRenesas_Electronics.5CD1x_RGL.5Crgl_ghs_D1Lx_obj_V1.2E2.2E0.5Cvlib.5Capp.5Cgfx_apps.5Csimple_draw_d1l2.5Ctarget.5Cd1lx_mango_ghs.5Cobj.5Cr_sys_wm.
                         721 	.align	2
                         722 .LDW03:
                         723 
                         724 --_a	r29	param
                         725 --_b	r28	param
                         726 
                         727 	.section ".bss","awb"
                         728 .L296:
                         729 	.type	.L296,@object
                         730 	.size	.L296,0
                         731 	.data
                         732 	.text
                         733 
                         734 --377: }
                         735 
                         736 --379: #pragma ghs endnomisra
                         737 --383: /***********************************************************
                         738 --384:   Function: loc_IsrVblank
                         739 --385:   
                         740 --386:   Generic handler for the VBLANK interrupt.
                         741 --387: */
                         742 --388: static void loc_VblankIsr(uint32_t Unit)
                         743 	.align	2
                         744 	.align	2
                         745 	.align	2
                         746 	.global	_loc_VblankIsr..D.3A.5CRenesas_Electronics.5CD1x_RGL.5Crgl_ghs_D1Lx_obj_V1.2E2.2E0.5Cvlib.5Capp.5Cgfx_apps.5Csimple_draw_d1l2.5Ctarget.5Cd1lx_mango_ghs.5Cobj.5Cr_sys_wm.
                         747 _loc_VblankIsr..D.3A.5CRenesas_Electronics.5CD1x_RGL.5Crgl_ghs_D1Lx_obj_V1.2E2.2E0.5Cvlib.5Capp.5Cgfx_apps.5Csimple_draw_d1l2.5Ctarget.5Cd1lx_mango_ghs.5Cobj.5Cr_sys_wm.:
                         748 _loc_VblankIsr:
00000114 8607e170        749 	prepare	{r25,r26,r27,r28,r29,r31},3
00000118 3d0600000000*   750 	mov	.L368,r29
0000011e 06e0            751 	mov	r6,r28
00000120 1dc8            752 	mov	r29,r25
00000122 3b0600000000*   753 	mov	_r_wm_DevSys,r27
                         754 --	    .bf
                         755 .LDW13:
                         756 --389: {
                         757 --390:     r_wm_Event_t event = { R_WM_EVENT_VBLANK };
00000128 3e0600000000*   758 	mov	.L402,ep
0000012e 0075            759 	sld.w	0[ep],r14
00000130 230e0400        760 	movea	4,sp,r1
00000134 026d            761 	sld.w	4[ep],r13
00000136 61770100        762 	st.w	r14,0[r1]
0000013a 616f0500        763 	st.w	r13,4[r1]
                         764 --392: #if defined R_WM_SKIP_FRAME_ON_SPEA_BUSY
                         765 --393:     uint32_t spea_update_pending;
                         766 --394:     
                         767 --395:     /* get update flag and filter for unit - if flag is set, do not process this interrupt */
                         768 --396:     spea_update_pending = R_SPEA_UnitUpdateActive(0, R_SPEA_SU0);
                         769 --397:     spea_update_pending &= (1uL<<Unit);
                         770 --398:     if (0 != spea_update_pending)

                                                                      Page 14
                                                              C:\Users\YINGAO~1\AppData\Local\Temp\gh_000084c1.si
                         771 --399:     {
                         772 --400: #if defined R_WM_MSQ_DEQUEUE_PROFILING || defined R_WM_MSQ_ENQUEUE_PROFILING
                         773 --401:         R_WM_Profile_Log_VBLANK_Skipped();
                         774 --402: #endif
                         775 --403:         return;
                         776 --404:     }
                         777 --405: #endif
                         778 --406: #ifdef LOC_USE_OS
                         779 --407:     while (loc_WaitVblankInt[Unit] != 0)
                         780 --408:     {
                         781 --409:         R_OS_SemPost(&locSemaISRTrigger[Unit][R_WM_EVENT_VBLANK]);
                         782 --410:         loc_WaitVblankInt[Unit]--;
                         783 --411:     }
                         784 --412: #else
                         785 --413:     if (loc_WaitVblankInt[Unit] == 1)
0000013e 1cf0            786 	mov	r28,ep
00000140 c2f2            787 	shl	2,ep
00000142 d9f1            788 	add	r25,ep
00000144 000d            789 	sld.w	0[ep],r1
00000146 610a            790 	cmp	1,r1
00000148 da05*           791 	bne	.L310
                         792 --414:     {
                         793 --415:         loc_WaitVblankInt[Unit] = 0;
                         794 --line415
                         795 ..lin.D.3A.5CRenesas_Electronics.5CD1x_RGL.5Crgl_ghs_D1Lx_obj_V1.2E2.2E0.5Cvlib.5Capp.5Cgfx_apps.5Csimple_draw_d1l2.5Ctarget.5Cd1lx_mango_ghs.5Cobj.5Cr_sys_wm.5::
                         796 .LDWlin5:
0000014a 1cf0            797 	mov	r28,ep
0000014c c2f2            798 	shl	2,ep
0000014e d9f1            799 	add	r25,ep
00000150 0105            800 	sst.w	zero,0[ep]
                         801 .L310:
                         802 --416:     }
                         803 --417: #endif
                         804 --419:     if (0 != (r_wm_DevSys[Unit].GlobalStatusFlags & R_WM_SYS_GLOBAL_STATUS_FLAG_CAPTURE_ACTIVE) )
00000152 1cf0            805 	mov	r28,ep
00000154 fe00            806 	sxh	ep
00000156 fef66000        807 	mulhi	96,ep,ep
0000015a dbf1            808 	add	r27,ep
0000015c 2c0d            809 	sld.w	88[ep],r1
0000015e 830a            810 	shr	3,r1
00000160 d925*           811 	bnl	.L312
                         812 --420:     {
                         813 --421:         /* Can we do triple buffering? */
                         814 --422:         if (r_wm_DevSys[Unit].RootCapt->Window->Surface.Fb.BufNum > 2)
                         815 --line422
                         816 ..lin.D.3A.5CRenesas_Electronics.5CD1x_RGL.5Crgl_ghs_D1Lx_obj_V1.2E2.2E0.5Cvlib.5Capp.5Cgfx_apps.5Csimple_draw_d1l2.5Ctarget.5Cd1lx_mango_ghs.5Cobj.5Cr_sys_wm.6::
                         817 .LDWlin6:
00000162 1cf0            818 	mov	r28,ep
00000164 fe00            819 	sxh	ep
00000166 fef66000        820 	mulhi	96,ep,ep
0000016a dbf1            821 	add	r27,ep
0000016c 24f5            822 	sld.w	72[ep],ep
0000016e 000d            823 	sld.w	0[ep],r1
00000170 810f2900        824 	ld.bu	40[r1],r1
00000174 620a            825 	cmp	2,r1
00000176 a31d*           826 	bnh	.L312
                         827 --423:         {
                         828 --	    .bs
                         829 .LDW23:
                         830 --424:             r_wm_WinBuffer_t *buf;
                         831 --425:             

                                                                      Page 15
                                                              C:\Users\YINGAO~1\AppData\Local\Temp\gh_000084c1.si
                         832 --426:             /* Get a free buffer */
                         833 --427:             buf = R_WM_Cap_CapBufGet (Unit, r_wm_DevSys[Unit].RootCapt->Window);
                         834 --line427
                         835 ..lin.D.3A.5CRenesas_Electronics.5CD1x_RGL.5Crgl_ghs_D1Lx_obj_V1.2E2.2E0.5Cvlib.5Capp.5Cgfx_apps.5Csimple_draw_d1l2.5Ctarget.5Cd1lx_mango_ghs.5Cobj.5Cr_sys_wm.7::
                         836 .LDWlin7:
00000178 1cf0            837 	mov	r28,ep
0000017a fe00            838 	sxh	ep
0000017c fef66000        839 	mulhi	96,ep,ep
00000180 1c30            840 	mov	r28,r6
00000182 dbf1            841 	add	r27,ep
00000184 24f5            842 	sld.w	72[ep],ep
00000186 003d            843 	sld.w	0[ep],r7
                         844 	jarl	_R_WM_Cap_CapBufGet,lp
                         844 <EXPANSION BEGIN>
                         844 jarl22 _R_WM_Cap_CapBufGet , lp 
00000188 80ff0000*       844 <EXPANSION END>
0000018c 0ad0            845 	mov	r10,r26
                         846 --429:             if (buf != 0)
                         847 --line429
                         848 ..lin.D.3A.5CRenesas_Electronics.5CD1x_RGL.5Crgl_ghs_D1Lx_obj_V1.2E2.2E0.5Cvlib.5Capp.5Cgfx_apps.5Csimple_draw_d1l2.5Ctarget.5Cd1lx_mango_ghs.5Cobj.5Cr_sys_wm.8::
                         849 .LDWlin8:
0000018e e0d1            850 	cmp	zero,r26
00000190 d20d*           851 	be	.L312
                         852 --430:             {
                         853 --431:                 /* And capture into it starting with the next frame */
                         854 --432:                 R_VDCE_CapBufSet(r_wm_DevSys[Unit].RootCapt->CapUnit,
                         855 --line432
                         856 ..lin.D.3A.5CRenesas_Electronics.5CD1x_RGL.5Crgl_ghs_D1Lx_obj_V1.2E2.2E0.5Cvlib.5Capp.5Cgfx_apps.5Csimple_draw_d1l2.5Ctarget.5Cd1lx_mango_ghs.5Cobj.5Cr_sys_wm.9::
                         857 .LDWlin9:
00000192 1cf0            858 	mov	r28,ep
00000194 fe00            859 	sxh	ep
00000196 fef66000        860 	mulhi	96,ep,ep
0000019a 3a3f0100        861 	ld.w	0[r26],r7
0000019e dbf1            862 	add	r27,ep
000001a0 24f5            863 	sld.w	72[ep],ep
000001a2 1635            864 	sld.w	44[ep],r6
000001a4 0740            865 	mov	r7,r8
                         866 	jarl	_R_VDCE_CapBufSet,lp
                         866 <EXPANSION BEGIN>
                         866 jarl22 _R_VDCE_CapBufSet , lp 
000001a6 80ff0000*       866 <EXPANSION END>
                         867 --	    .es
                         868 .LDW33:
                         869 .L312:
                         870 --433:                                  (uint32_t)buf->Data,
                         871 --434:                                  (uint32_t)buf->Data);
                         872 --435:             }
                         873 --436:         }
                         874 --437:     }
                         875 --439:     if ((r_wm_DevSys[Unit].RegEvents & (uint32_t)(1uL << R_WM_EVENT_VBLANK)) != 0)
                         876 --line439
                         877 ..lin.D.3A.5CRenesas_Electronics.5CD1x_RGL.5Crgl_ghs_D1Lx_obj_V1.2E2.2E0.5Cvlib.5Capp.5Cgfx_apps.5Csimple_draw_d1l2.5Ctarget.5Cd1lx_mango_ghs.5Cobj.5Cr_sys_wm.10::
                         878 .LDWlin10:
000001aa 1cf0            879 	mov	r28,ep
000001ac fe00            880 	sxh	ep
000001ae fef66000        881 	mulhi	96,ep,ep
000001b2 dbf1            882 	add	r27,ep
000001b4 260d            883 	sld.w	76[ep],r1
000001b6 820a            884 	shr	2,r1
000001b8 c915*           885 	bnl	.L318
                         886 --440:     {

                                                                      Page 16
                                                              C:\Users\YINGAO~1\AppData\Local\Temp\gh_000084c1.si
                         887 --441:         if (r_wm_DevSys[Unit].EventCb != 0)
                         888 --line441
                         889 ..lin.D.3A.5CRenesas_Electronics.5CD1x_RGL.5Crgl_ghs_D1Lx_obj_V1.2E2.2E0.5Cvlib.5Capp.5Cgfx_apps.5Csimple_draw_d1l2.5Ctarget.5Cd1lx_mango_ghs.5Cobj.5Cr_sys_wm.11::
                         890 .LDWlin11:
000001ba 1cf0            891 	mov	r28,ep
000001bc fe00            892 	sxh	ep
000001be fef66000        893 	mulhi	96,ep,ep
000001c2 dbf1            894 	add	r27,ep
000001c4 280d            895 	sld.w	80[ep],r1
000001c6 e009            896 	cmp	zero,r1
000001c8 c20d*           897 	be	.L318
                         898 --442:         {
                         899 --443:             r_wm_DevSys[Unit].EventCb(Unit, &event);
                         900 --line443
                         901 ..lin.D.3A.5CRenesas_Electronics.5CD1x_RGL.5Crgl_ghs_D1Lx_obj_V1.2E2.2E0.5Cvlib.5Capp.5Cgfx_apps.5Csimple_draw_d1l2.5Ctarget.5Cd1lx_mango_ghs.5Cobj.5Cr_sys_wm.12::
                         902 .LDWlin12:
000001ca 1cf0            903 	mov	r28,ep
000001cc fe00            904 	sxh	ep
000001ce fef66000        905 	mulhi	96,ep,ep
000001d2 1c30            906 	mov	r28,r6
000001d4 233e0400        907 	movea	4,sp,r7
000001d8 dbf1            908 	add	r27,ep
000001da 2865            909 	sld.w	80[ep],r12
000001dc ecc760f9        910 	jarl	[r12],lp
                         911 .L318:
                         912 --444:         }
                         913 --445:     }
                         914 --446: }
                         915 --line446
                         916 ..lin.D.3A.5CRenesas_Electronics.5CD1x_RGL.5Crgl_ghs_D1Lx_obj_V1.2E2.2E0.5Cvlib.5Capp.5Cgfx_apps.5Csimple_draw_d1l2.5Ctarget.5Cd1lx_mango_ghs.5Cobj.5Cr_sys_wm.13::
                         917 .LDWlin13:
000001e0 0000            918 	nop
                         919 --	    .ef
                         920 .LDW43:
000001e2 4606ff70        921 	dispose	3,{r25,r26,r27,r28,r29,r31},[lp]
                         922 	.type	_loc_VblankIsr,@function
                         923 	.size	_loc_VblankIsr,.-_loc_VblankIsr
                         924 	.type	_loc_VblankIsr..D.3A.5CRenesas_Electronics.5CD1x_RGL.5Crgl_ghs_D1Lx_obj_V1.2E2.2E0.5Cvlib.5Capp.5Cgfx_apps.5Csimple_draw_d1l2.5Ctarget.5Cd1lx_mango_ghs.5Cobj.5Cr_sys_wm.,@function
                         925 	.size	_loc_VblankIsr..D.3A.5CRenesas_Electronics.5CD1x_RGL.5Crgl_ghs_D1Lx_obj_V1.2E2.2E0.5Cvlib.5Capp.5Cgfx_apps.5Csimple_draw_d1l2.5Ctarget.5Cd1lx_mango_ghs.5Cobj.5Cr_sys_wm.,.-_loc_VblankIsr..D.3A.5CRenesas_Electronics.5CD1x_RGL.5Crgl_ghs_D1Lx_obj_V1.2E2.2E0.5Cvlib.5Capp.5Cgfx_apps.5Csimple_draw_d1l2.5Ctarget.5Cd1lx_mango_ghs.5Cobj.5Cr_sys_wm.
                         926 	.align	2
                         927 .LDW53:
                         928 --_event	4[sp]	local
                         929 --.L369	.L402	static
                         930 --_buf	r26	local
                         931 
                         932 --_Unit	r28	param
                         933 
                         934 	.section ".bss","awb"
                         935 	.align	4
                         936 .L368:
                         937 	.type	.L368,@object
                         938 	.size	.L368,0
                         939 	.global	_loc_WaitVblankInt..D.3A.5CRenesas_Electronics.5CD1x_RGL.5Crgl_ghs_D1Lx_obj_V1.2E2.2E0.5Cvlib.5Capp.5Cgfx_apps.5Csimple_draw_d1l2.5Ctarget.5Cd1lx_mango_ghs.5Cobj.5Cr_sys_wm.
                         940 _loc_WaitVblankInt..D.3A.5CRenesas_Electronics.5CD1x_RGL.5Crgl_ghs_D1Lx_obj_V1.2E2.2E0.5Cvlib.5Capp.5Cgfx_apps.5Csimple_draw_d1l2.5Ctarget.5Cd1lx_mango_ghs.5Cobj.5Cr_sys_wm.:
                         941 	.type	_loc_WaitVblankInt..D.3A.5CRenesas_Electronics.5CD1x_RGL.5Crgl_ghs_D1Lx_obj_V1.2E2.2E0.5Cvlib.5Capp.5Cgfx_apps.5Csimple_draw_d1l2.5Ctarget.5Cd1lx_mango_ghs.5Cobj.5Cr_sys_wm.,@object
                         942 	.size	_loc_WaitVblankInt..D.3A.5CRenesas_Electronics.5CD1x_RGL.5Crgl_ghs_D1Lx_obj_V1.2E2.2E0.5Cvlib.5Capp.5Cgfx_apps.5Csimple_draw_d1l2.5Ctarget.5Cd1lx_mango_ghs.5Cobj.5Cr_sys_wm.,8
00000000 000000000000    943 _loc_WaitVblankInt:	.space	8
00000006 0000 
                         944 	.type	_loc_WaitVblankInt,@object
                         945 	.size	_loc_WaitVblankInt,8
                         946 	.global	_loc_WaitScanlineInt..D.3A.5CRenesas_Electronics.5CD1x_RGL.5Crgl_ghs_D1Lx_obj_V1.2E2.2E0.5Cvlib.5Capp.5Cgfx_apps.5Csimple_draw_d1l2.5Ctarget.5Cd1lx_mango_ghs.5Cobj.5Cr_sys_wm.

                                                                      Page 17
                                                              C:\Users\YINGAO~1\AppData\Local\Temp\gh_000084c1.si
                         947 _loc_WaitScanlineInt..D.3A.5CRenesas_Electronics.5CD1x_RGL.5Crgl_ghs_D1Lx_obj_V1.2E2.2E0.5Cvlib.5Capp.5Cgfx_apps.5Csimple_draw_d1l2.5Ctarget.5Cd1lx_mango_ghs.5Cobj.5Cr_sys_wm.:
                         948 	.type	_loc_WaitScanlineInt..D.3A.5CRenesas_Electronics.5CD1x_RGL.5Crgl_ghs_D1Lx_obj_V1.2E2.2E0.5Cvlib.5Capp.5Cgfx_apps.5Csimple_draw_d1l2.5Ctarget.5Cd1lx_mango_ghs.5Cobj.5Cr_sys_wm.,@object
                         949 	.size	_loc_WaitScanlineInt..D.3A.5CRenesas_Electronics.5CD1x_RGL.5Crgl_ghs_D1Lx_obj_V1.2E2.2E0.5Cvlib.5Capp.5Cgfx_apps.5Csimple_draw_d1l2.5Ctarget.5Cd1lx_mango_ghs.5Cobj.5Cr_sys_wm.,8
00000008 000000000000    950 _loc_WaitScanlineInt:	.space	8
0000000e 0000 
                         951 	.type	_loc_WaitScanlineInt,@object
                         952 	.size	_loc_WaitScanlineInt,8
                         953 	.data
                         954 	.align	4
                         955 	.global	_loc_CpuHeap_WM..D.3A.5CRenesas_Electronics.5CD1x_RGL.5Crgl_ghs_D1Lx_obj_V1.2E2.2E0.5Cvlib.5Capp.5Cgfx_apps.5Csimple_draw_d1l2.5Ctarget.5Cd1lx_mango_ghs.5Cobj.5Cr_sys_wm.
                         956 _loc_CpuHeap_WM..D.3A.5CRenesas_Electronics.5CD1x_RGL.5Crgl_ghs_D1Lx_obj_V1.2E2.2E0.5Cvlib.5Capp.5Cgfx_apps.5Csimple_draw_d1l2.5Ctarget.5Cd1lx_mango_ghs.5Cobj.5Cr_sys_wm.:
                         957 	.type	_loc_CpuHeap_WM..D.3A.5CRenesas_Electronics.5CD1x_RGL.5Crgl_ghs_D1Lx_obj_V1.2E2.2E0.5Cvlib.5Capp.5Cgfx_apps.5Csimple_draw_d1l2.5Ctarget.5Cd1lx_mango_ghs.5Cobj.5Cr_sys_wm.,@object
                         958 	.size	_loc_CpuHeap_WM..D.3A.5CRenesas_Electronics.5CD1x_RGL.5Crgl_ghs_D1Lx_obj_V1.2E2.2E0.5Cvlib.5Capp.5Cgfx_apps.5Csimple_draw_d1l2.5Ctarget.5Cd1lx_mango_ghs.5Cobj.5Cr_sys_wm.,4
00000000 00000000        959 _loc_CpuHeap_WM:	.byte	0,0,0,0
                         960 	.type	_loc_CpuHeap_WM,@object
                         961 	.size	_loc_CpuHeap_WM,4
                         962 	.global	_loc_VidHeap_WM..D.3A.5CRenesas_Electronics.5CD1x_RGL.5Crgl_ghs_D1Lx_obj_V1.2E2.2E0.5Cvlib.5Capp.5Cgfx_apps.5Csimple_draw_d1l2.5Ctarget.5Cd1lx_mango_ghs.5Cobj.5Cr_sys_wm.
                         963 _loc_VidHeap_WM..D.3A.5CRenesas_Electronics.5CD1x_RGL.5Crgl_ghs_D1Lx_obj_V1.2E2.2E0.5Cvlib.5Capp.5Cgfx_apps.5Csimple_draw_d1l2.5Ctarget.5Cd1lx_mango_ghs.5Cobj.5Cr_sys_wm.:
                         964 	.type	_loc_VidHeap_WM..D.3A.5CRenesas_Electronics.5CD1x_RGL.5Crgl_ghs_D1Lx_obj_V1.2E2.2E0.5Cvlib.5Capp.5Cgfx_apps.5Csimple_draw_d1l2.5Ctarget.5Cd1lx_mango_ghs.5Cobj.5Cr_sys_wm.,@object
                         965 	.size	_loc_VidHeap_WM..D.3A.5CRenesas_Electronics.5CD1x_RGL.5Crgl_ghs_D1Lx_obj_V1.2E2.2E0.5Cvlib.5Capp.5Cgfx_apps.5Csimple_draw_d1l2.5Ctarget.5Cd1lx_mango_ghs.5Cobj.5Cr_sys_wm.,4
00000004 00000000        966 _loc_VidHeap_WM:	.byte	0,0,0,0
                         967 	.type	_loc_VidHeap_WM,@object
                         968 	.size	_loc_VidHeap_WM,4
                         969 	.global	_loc_Isr..D.3A.5CRenesas_Electronics.5CD1x_RGL.5Crgl_ghs_D1Lx_obj_V1.2E2.2E0.5Cvlib.5Capp.5Cgfx_apps.5Csimple_draw_d1l2.5Ctarget.5Cd1lx_mango_ghs.5Cobj.5Cr_sys_wm.
                         970 _loc_Isr..D.3A.5CRenesas_Electronics.5CD1x_RGL.5Crgl_ghs_D1Lx_obj_V1.2E2.2E0.5Cvlib.5Capp.5Cgfx_apps.5Csimple_draw_d1l2.5Ctarget.5Cd1lx_mango_ghs.5Cobj.5Cr_sys_wm.:
                         971 	.type	_loc_Isr..D.3A.5CRenesas_Electronics.5CD1x_RGL.5Crgl_ghs_D1Lx_obj_V1.2E2.2E0.5Cvlib.5Capp.5Cgfx_apps.5Csimple_draw_d1l2.5Ctarget.5Cd1lx_mango_ghs.5Cobj.5Cr_sys_wm.,@object
                         972 	.size	_loc_Isr..D.3A.5CRenesas_Electronics.5CD1x_RGL.5Crgl_ghs_D1Lx_obj_V1.2E2.2E0.5Cvlib.5Capp.5Cgfx_apps.5Csimple_draw_d1l2.5Ctarget.5Cd1lx_mango_ghs.5Cobj.5Cr_sys_wm.,32
00000008 00000000        973 _loc_Isr:	.space	4
0000000c 00000000*       974 	.word	_locIsr_VO_0_Vblank
00000010 00000000*       975 	.word	_locIsr_VO_0_Scanline
00000014 00000000*       976 	.word	_locIsr_VI_0_Vblank
00000018 00000000        977 	.space	4
0000001c 00000000*       978 	.word	_locIsr_VO_1_Vblank
00000020 00000000*       979 	.word	_locIsr_VO_1_Scanline
00000024 00000000*       980 	.word	_locIsr_VI_1_Vblank
                         981 	.type	_loc_Isr,@object
                         982 	.size	_loc_Isr,32
                         983 	.section ".rodata","a"
                         984 	.align	4
                         985 	.global	_loc_capture1PinConfig..D.3A.5CRenesas_Electronics.5CD1x_RGL.5Crgl_ghs_D1Lx_obj_V1.2E2.2E0.5Cvlib.5Capp.5Cgfx_apps.5Csimple_draw_d1l2.5Ctarget.5Cd1lx_mango_ghs.5Cobj.5Cr_sys_wm.
                         986 _loc_capture1PinConfig..D.3A.5CRenesas_Electronics.5CD1x_RGL.5Crgl_ghs_D1Lx_obj_V1.2E2.2E0.5Cvlib.5Capp.5Cgfx_apps.5Csimple_draw_d1l2.5Ctarget.5Cd1lx_mango_ghs.5Cobj.5Cr_sys_wm.:
                         987 	.type	_loc_capture1PinConfig..D.3A.5CRenesas_Electronics.5CD1x_RGL.5Crgl_ghs_D1Lx_obj_V1.2E2.2E0.5Cvlib.5Capp.5Cgfx_apps.5Csimple_draw_d1l2.5Ctarget.5Cd1lx_mango_ghs.5Cobj.5Cr_sys_wm.,@object
                         988 	.size	_loc_capture1PinConfig..D.3A.5CRenesas_Electronics.5CD1x_RGL.5Crgl_ghs_D1Lx_obj_V1.2E2.2E0.5Cvlib.5Capp.5Cgfx_apps.5Csimple_draw_d1l2.5Ctarget.5Cd1lx_mango_ghs.5Cobj.5Cr_sys_wm.,200
00000000 2b02            989 _loc_capture1PinConfig:	.byte	43,2
00000002 02              990 	.byte	2
00000003 00              991 	.space	1
00000004 01000000        992 	.byte	1,0,0,0
00000008 00              993 	.space	1
00000009 000000          994 	.space	3
0000000c 00000000        995 	.space	4
00000010 00              996 	.space	1
00000011 00              997 	.space	1
00000012 00              998 	.space	1
00000013 03              999 	.byte	3
00000014 2b03           1000 	.byte	43,3
00000016 02             1001 	.byte	2
00000017 00             1002 	.space	1
00000018 01000000       1003 	.byte	1,0,0,0
0000001c 00             1004 	.space	1
0000001d 000000         1005 	.space	3
00000020 00000000       1006 	.space	4

                                                                      Page 18
                                                              C:\Users\YINGAO~1\AppData\Local\Temp\gh_000084c1.si
00000024 00             1007 	.space	1
00000025 00             1008 	.space	1
00000026 00             1009 	.space	1
00000027 03             1010 	.byte	3
00000028 2b04           1011 	.byte	43,4
0000002a 02             1012 	.byte	2
0000002b 00             1013 	.space	1
0000002c 01000000       1014 	.byte	1,0,0,0
00000030 00             1015 	.space	1
00000031 000000         1016 	.space	3
00000034 00000000       1017 	.space	4
00000038 00             1018 	.space	1
00000039 00             1019 	.space	1
0000003a 00             1020 	.space	1
0000003b 03             1021 	.byte	3
0000003c 2b05           1022 	.byte	43,5
0000003e 02             1023 	.byte	2
0000003f 00             1024 	.space	1
00000040 01000000       1025 	.byte	1,0,0,0
00000044 00             1026 	.space	1
00000045 000000         1027 	.space	3
00000048 00000000       1028 	.space	4
0000004c 00             1029 	.space	1
0000004d 00             1030 	.space	1
0000004e 00             1031 	.space	1
0000004f 03             1032 	.byte	3
00000050 2b06           1033 	.byte	43,6
00000052 02             1034 	.byte	2
00000053 00             1035 	.space	1
00000054 01000000       1036 	.byte	1,0,0,0
00000058 00             1037 	.space	1
00000059 000000         1038 	.space	3
0000005c 00000000       1039 	.space	4
00000060 00             1040 	.space	1
00000061 00             1041 	.space	1
00000062 00             1042 	.space	1
00000063 03             1043 	.byte	3
00000064 2b07           1044 	.byte	43,7
00000066 02             1045 	.byte	2
00000067 00             1046 	.space	1
00000068 01000000       1047 	.byte	1,0,0,0
0000006c 00             1048 	.space	1
0000006d 000000         1049 	.space	3
00000070 00000000       1050 	.space	4
00000074 00             1051 	.space	1
00000075 00             1052 	.space	1
00000076 00             1053 	.space	1
00000077 03             1054 	.byte	3
00000078 2b08           1055 	.byte	43,8
0000007a 02             1056 	.byte	2
0000007b 00             1057 	.space	1
0000007c 01000000       1058 	.byte	1,0,0,0
00000080 00             1059 	.space	1
00000081 000000         1060 	.space	3
00000084 00000000       1061 	.space	4
00000088 00             1062 	.space	1
00000089 00             1063 	.space	1
0000008a 00             1064 	.space	1
0000008b 03             1065 	.byte	3
0000008c 2b09           1066 	.byte	43,9
0000008e 02             1067 	.byte	2

                                                                      Page 19
                                                              C:\Users\YINGAO~1\AppData\Local\Temp\gh_000084c1.si
0000008f 00             1068 	.space	1
00000090 01000000       1069 	.byte	1,0,0,0
00000094 00             1070 	.space	1
00000095 000000         1071 	.space	3
00000098 00000000       1072 	.space	4
0000009c 00             1073 	.space	1
0000009d 00             1074 	.space	1
0000009e 00             1075 	.space	1
0000009f 03             1076 	.byte	3
000000a0 2b0a           1077 	.byte	43,10
000000a2 02             1078 	.byte	2
000000a3 00             1079 	.space	1
000000a4 01000000       1080 	.byte	1,0,0,0
000000a8 00             1081 	.space	1
000000a9 000000         1082 	.space	3
000000ac 00000000       1083 	.space	4
000000b0 00             1084 	.space	1
000000b1 00             1085 	.space	1
000000b2 00             1086 	.space	1
000000b3 03             1087 	.byte	3
000000b4 00             1088 	.space	1
000000b5 ff             1089 	.byte	255
000000b6 00             1090 	.space	1
000000b7 00             1091 	.space	1
000000b8 00000000       1092 	.space	4
000000bc 00             1093 	.space	1
000000bd 000000         1094 	.space	3
000000c0 00000000       1095 	.space	4
000000c4 00             1096 	.space	1
000000c5 00             1097 	.space	1
000000c6 00             1098 	.space	1
000000c7 01             1099 	.byte	1
                        1100 	.type	_loc_capture1PinConfig,@object
                        1101 	.size	_loc_capture1PinConfig,200
                        1102 	.global	_loc_capture0PinConfig..D.3A.5CRenesas_Electronics.5CD1x_RGL.5Crgl_ghs_D1Lx_obj_V1.2E2.2E0.5Cvlib.5Capp.5Cgfx_apps.5Csimple_draw_d1l2.5Ctarget.5Cd1lx_mango_ghs.5Cobj.5Cr_sys_wm.
                        1103 _loc_capture0PinConfig..D.3A.5CRenesas_Electronics.5CD1x_RGL.5Crgl_ghs_D1Lx_obj_V1.2E2.2E0.5Cvlib.5Capp.5Cgfx_apps.5Csimple_draw_d1l2.5Ctarget.5Cd1lx_mango_ghs.5Cobj.5Cr_sys_wm.:
                        1104 	.type	_loc_capture0PinConfig..D.3A.5CRenesas_Electronics.5CD1x_RGL.5Crgl_ghs_D1Lx_obj_V1.2E2.2E0.5Cvlib.5Capp.5Cgfx_apps.5Csimple_draw_d1l2.5Ctarget.5Cd1lx_mango_ghs.5Cobj.5Cr_sys_wm.,@object
                        1105 	.size	_loc_capture0PinConfig..D.3A.5CRenesas_Electronics.5CD1x_RGL.5Crgl_ghs_D1Lx_obj_V1.2E2.2E0.5Cvlib.5Capp.5Cgfx_apps.5Csimple_draw_d1l2.5Ctarget.5Cd1lx_mango_ghs.5Cobj.5Cr_sys_wm.,200
000000c8 2a             1106 _loc_capture0PinConfig:	.byte	42
000000c9 00             1107 	.space	1
000000ca 02             1108 	.byte	2
000000cb 00             1109 	.space	1
000000cc 01000000       1110 	.byte	1,0,0,0
000000d0 00             1111 	.space	1
000000d1 000000         1112 	.space	3
000000d4 00000000       1113 	.space	4
000000d8 00             1114 	.space	1
000000d9 00             1115 	.space	1
000000da 00             1116 	.space	1
000000db 03             1117 	.byte	3
000000dc 2a01           1118 	.byte	42,1
000000de 02             1119 	.byte	2
000000df 00             1120 	.space	1
000000e0 01000000       1121 	.byte	1,0,0,0
000000e4 00             1122 	.space	1
000000e5 000000         1123 	.space	3
000000e8 00000000       1124 	.space	4
000000ec 00             1125 	.space	1
000000ed 00             1126 	.space	1
000000ee 00             1127 	.space	1
000000ef 03             1128 	.byte	3

                                                                      Page 20
                                                              C:\Users\YINGAO~1\AppData\Local\Temp\gh_000084c1.si
000000f0 2a02           1129 	.byte	42,2
000000f2 02             1130 	.byte	2
000000f3 00             1131 	.space	1
000000f4 01000000       1132 	.byte	1,0,0,0
000000f8 00             1133 	.space	1
000000f9 000000         1134 	.space	3
000000fc 00000000       1135 	.space	4
00000100 00             1136 	.space	1
00000101 00             1137 	.space	1
00000102 00             1138 	.space	1
00000103 03             1139 	.byte	3
00000104 2a03           1140 	.byte	42,3
00000106 02             1141 	.byte	2
00000107 00             1142 	.space	1
00000108 01000000       1143 	.byte	1,0,0,0
0000010c 00             1144 	.space	1
0000010d 000000         1145 	.space	3
00000110 00000000       1146 	.space	4
00000114 00             1147 	.space	1
00000115 00             1148 	.space	1
00000116 00             1149 	.space	1
00000117 03             1150 	.byte	3
00000118 2a04           1151 	.byte	42,4
0000011a 02             1152 	.byte	2
0000011b 00             1153 	.space	1
0000011c 01000000       1154 	.byte	1,0,0,0
00000120 00             1155 	.space	1
00000121 000000         1156 	.space	3
00000124 00000000       1157 	.space	4
00000128 00             1158 	.space	1
00000129 00             1159 	.space	1
0000012a 00             1160 	.space	1
0000012b 03             1161 	.byte	3
0000012c 2a05           1162 	.byte	42,5
0000012e 02             1163 	.byte	2
0000012f 00             1164 	.space	1
00000130 01000000       1165 	.byte	1,0,0,0
00000134 00             1166 	.space	1
00000135 000000         1167 	.space	3
00000138 00000000       1168 	.space	4
0000013c 00             1169 	.space	1
0000013d 00             1170 	.space	1
0000013e 00             1171 	.space	1
0000013f 03             1172 	.byte	3
00000140 2a06           1173 	.byte	42,6
00000142 02             1174 	.byte	2
00000143 00             1175 	.space	1
00000144 01000000       1176 	.byte	1,0,0,0
00000148 00             1177 	.space	1
00000149 000000         1178 	.space	3
0000014c 00000000       1179 	.space	4
00000150 00             1180 	.space	1
00000151 00             1181 	.space	1
00000152 00             1182 	.space	1
00000153 03             1183 	.byte	3
00000154 2a07           1184 	.byte	42,7
00000156 02             1185 	.byte	2
00000157 00             1186 	.space	1
00000158 01000000       1187 	.byte	1,0,0,0
0000015c 00             1188 	.space	1
0000015d 000000         1189 	.space	3

                                                                      Page 21
                                                              C:\Users\YINGAO~1\AppData\Local\Temp\gh_000084c1.si
00000160 00000000       1190 	.space	4
00000164 00             1191 	.space	1
00000165 00             1192 	.space	1
00000166 00             1193 	.space	1
00000167 03             1194 	.byte	3
00000168 2a08           1195 	.byte	42,8
0000016a 02             1196 	.byte	2
0000016b 00             1197 	.space	1
0000016c 01000000       1198 	.byte	1,0,0,0
00000170 00             1199 	.space	1
00000171 000000         1200 	.space	3
00000174 00000000       1201 	.space	4
00000178 00             1202 	.space	1
00000179 00             1203 	.space	1
0000017a 00             1204 	.space	1
0000017b 03             1205 	.byte	3
0000017c 00             1206 	.space	1
0000017d ff             1207 	.byte	255
0000017e 00             1208 	.space	1
0000017f 00             1209 	.space	1
00000180 00000000       1210 	.space	4
00000184 00             1211 	.space	1
00000185 000000         1212 	.space	3
00000188 00000000       1213 	.space	4
0000018c 00             1214 	.space	1
0000018d 00             1215 	.space	1
0000018e 00             1216 	.space	1
0000018f 01             1217 	.byte	1
                        1218 	.type	_loc_capture0PinConfig,@object
                        1219 	.size	_loc_capture0PinConfig,200
00000190 01000000       1220 .L402:	.byte	1,0,0,0
00000194 00000000       1221 	.space	4
                        1222 	.type	.L402,@object
                        1223 	.size	.L402,8
                        1224 	.data
                        1225 	.text
                        1226 
                        1227 
                        1228 --448: /***********************************************************
                        1229 --449:   Function: loc_IsrScanline
                        1230 --450:   
                        1231 --451:   Generic handler for the SCANLINE interrupt.
                        1232 --452: */
                        1233 --454: static void loc_ScanlineIsr(uint32_t Unit)
                        1234 	.align	2
                        1235 	.align	2
                        1236 	.global	_loc_ScanlineIsr..D.3A.5CRenesas_Electronics.5CD1x_RGL.5Crgl_ghs_D1Lx_obj_V1.2E2.2E0.5Cvlib.5Capp.5Cgfx_apps.5Csimple_draw_d1l2.5Ctarget.5Cd1lx_mango_ghs.5Cobj.5Cr_sys_wm.
                        1237 _loc_ScanlineIsr..D.3A.5CRenesas_Electronics.5CD1x_RGL.5Crgl_ghs_D1Lx_obj_V1.2E2.2E0.5Cvlib.5Capp.5Cgfx_apps.5Csimple_draw_d1l2.5Ctarget.5Cd1lx_mango_ghs.5Cobj.5Cr_sys_wm.:
                        1238 _loc_ScanlineIsr:
000001e6 8407e170       1239 	prepare	{r25,r26,r27,r28,r29,r31},2
000001ea 3d0600000000*  1240 	mov	_loc_WaitScanlineInt,r29
000001f0 06e0           1241 	mov	r6,r28
000001f2 1dd0           1242 	mov	r29,r26
000001f4 3b0600000000*  1243 	mov	_r_wm_DevSys,r27
                        1244 --	    .bf
                        1245 .LDW63:
                        1246 --455: {
                        1247 --456:     r_wm_Event_t event = { R_WM_EVENT_SCANLINE };
000001fa 3e0600000000*  1248 	mov	.L473,ep
00000200 0075           1249 	sld.w	0[ep],r14
00000202 230e0000       1250 	movea	0,sp,r1

                                                                      Page 22
                                                              C:\Users\YINGAO~1\AppData\Local\Temp\gh_000084c1.si
00000206 026d           1251 	sld.w	4[ep],r13
00000208 61770100       1252 	st.w	r14,0[r1]
0000020c 616f0500       1253 	st.w	r13,4[r1]
                        1254 --457:     if ((r_wm_DevSys[Unit].RegEvents & (uint32_t)(1uL << R_WM_EVENT_SCANLINE)) != 0)
00000210 1cf0           1255 	mov	r28,ep
00000212 fe00           1256 	sxh	ep
00000214 fef66000       1257 	mulhi	96,ep,ep
00000218 dbf1           1258 	add	r27,ep
0000021a 260d           1259 	sld.w	76[ep],r1
0000021c 830a           1260 	shr	3,r1
0000021e c915*          1261 	bnl	.L420
                        1262 --458:     {
                        1263 --459:         if (r_wm_DevSys[Unit].EventCb != 0)
                        1264 --line459
                        1265 ..lin.D.3A.5CRenesas_Electronics.5CD1x_RGL.5Crgl_ghs_D1Lx_obj_V1.2E2.2E0.5Cvlib.5Capp.5Cgfx_apps.5Csimple_draw_d1l2.5Ctarget.5Cd1lx_mango_ghs.5Cobj.5Cr_sys_wm.14::
                        1266 .LDWlin14:
00000220 1cf0           1267 	mov	r28,ep
00000222 fe00           1268 	sxh	ep
00000224 fef66000       1269 	mulhi	96,ep,ep
00000228 dbf1           1270 	add	r27,ep
0000022a 280d           1271 	sld.w	80[ep],r1
0000022c e009           1272 	cmp	zero,r1
0000022e c20d*          1273 	be	.L420
                        1274 --460:         {
                        1275 --461:             r_wm_DevSys[Unit].EventCb(Unit, &event);
                        1276 --line461
                        1277 ..lin.D.3A.5CRenesas_Electronics.5CD1x_RGL.5Crgl_ghs_D1Lx_obj_V1.2E2.2E0.5Cvlib.5Capp.5Cgfx_apps.5Csimple_draw_d1l2.5Ctarget.5Cd1lx_mango_ghs.5Cobj.5Cr_sys_wm.15::
                        1278 .LDWlin15:
00000230 1cf0           1279 	mov	r28,ep
00000232 fe00           1280 	sxh	ep
00000234 fef66000       1281 	mulhi	96,ep,ep
00000238 1c30           1282 	mov	r28,r6
0000023a 233e0000       1283 	movea	0,sp,r7
0000023e dbf1           1284 	add	r27,ep
00000240 28cd           1285 	sld.w	80[ep],r25
00000242 f9c760f9       1286 	jarl	[r25],lp
                        1287 .L420:
                        1288 --462:         }
                        1289 --463:     }
                        1290 --465: #ifdef LOC_USE_OS
                        1291 --466:     while (loc_WaitScanlineInt[Unit] != 0)
                        1292 --467:     {
                        1293 --468:         R_OS_SemPost(&locSemaISRTrigger[Unit][R_WM_EVENT_SCANLINE]);
                        1294 --469:         loc_WaitScanlineInt[Unit]--;
                        1295 --470:     }
                        1296 --471: #else
                        1297 --472:     if (loc_WaitScanlineInt[Unit] == 1)
                        1298 --line472
                        1299 ..lin.D.3A.5CRenesas_Electronics.5CD1x_RGL.5Crgl_ghs_D1Lx_obj_V1.2E2.2E0.5Cvlib.5Capp.5Cgfx_apps.5Csimple_draw_d1l2.5Ctarget.5Cd1lx_mango_ghs.5Cobj.5Cr_sys_wm.16::
                        1300 .LDWlin16:
00000246 1cf0           1301 	mov	r28,ep
00000248 c2f2           1302 	shl	2,ep
0000024a daf1           1303 	add	r26,ep
0000024c 000d           1304 	sld.w	0[ep],r1
0000024e 610a           1305 	cmp	1,r1
00000250 da05*          1306 	bne	.L424
                        1307 --473:     {
                        1308 --474:         loc_WaitScanlineInt[Unit] = 0;
                        1309 --line474
                        1310 ..lin.D.3A.5CRenesas_Electronics.5CD1x_RGL.5Crgl_ghs_D1Lx_obj_V1.2E2.2E0.5Cvlib.5Capp.5Cgfx_apps.5Csimple_draw_d1l2.5Ctarget.5Cd1lx_mango_ghs.5Cobj.5Cr_sys_wm.17::
                        1311 .LDWlin17:

                                                                      Page 23
                                                              C:\Users\YINGAO~1\AppData\Local\Temp\gh_000084c1.si
00000252 1cf0           1312 	mov	r28,ep
00000254 c2f2           1313 	shl	2,ep
00000256 daf1           1314 	add	r26,ep
00000258 0105           1315 	sst.w	zero,0[ep]
                        1316 .L424:
                        1317 --475:     }
                        1318 --476: #endif
                        1319 --477: }
0000025a 0000           1320 	nop
                        1321 --	    .ef
                        1322 .LDW73:
0000025c 4406ff70       1323 	dispose	2,{r25,r26,r27,r28,r29,r31},[lp]
                        1324 	.type	_loc_ScanlineIsr,@function
                        1325 	.size	_loc_ScanlineIsr,.-_loc_ScanlineIsr
                        1326 	.type	_loc_ScanlineIsr..D.3A.5CRenesas_Electronics.5CD1x_RGL.5Crgl_ghs_D1Lx_obj_V1.2E2.2E0.5Cvlib.5Capp.5Cgfx_apps.5Csimple_draw_d1l2.5Ctarget.5Cd1lx_mango_ghs.5Cobj.5Cr_sys_wm.,@function
                        1327 	.size	_loc_ScanlineIsr..D.3A.5CRenesas_Electronics.5CD1x_RGL.5Crgl_ghs_D1Lx_obj_V1.2E2.2E0.5Cvlib.5Capp.5Cgfx_apps.5Csimple_draw_d1l2.5Ctarget.5Cd1lx_mango_ghs.5Cobj.5Cr_sys_wm.,.-_loc_ScanlineIsr..D.3A.5CRenesas_Electronics.5CD1x_RGL.5Crgl_ghs_D1Lx_obj_V1.2E2.2E0.5Cvlib.5Capp.5Cgfx_apps.5Csimple_draw_d1l2.5Ctarget.5Cd1lx_mango_ghs.5Cobj.5Cr_sys_wm.
                        1328 	.align	2
                        1329 .LDW83:
                        1330 --_event	0[sp]	local
                        1331 --.L452	.L473	static
                        1332 
                        1333 --_Unit	r28	param
                        1334 
                        1335 	.section ".rodata","a"
00000198 02000000       1336 .L473:	.byte	2,0,0,0
0000019c 00000000       1337 	.space	4
                        1338 	.type	.L473,@object
                        1339 	.size	.L473,8
                        1340 	.data
                        1341 	.text
                        1342 
                        1343 
                        1344 --479: /***********************************************************
                        1345 --480:   Function: loc_VI_VblankIsr
                        1346 --481:   
                        1347 --482:   Generic handler for the Video Input VBLANK interrupt.
                        1348 --483: */
                        1349 --484: static void loc_VI_VblankIsr(uint32_t Unit)
                        1350 	.align	2
                        1351 	.align	2
                        1352 	.global	_loc_VI_VblankIsr..D.3A.5CRenesas_Electronics.5CD1x_RGL.5Crgl_ghs_D1Lx_obj_V1.2E2.2E0.5Cvlib.5Capp.5Cgfx_apps.5Csimple_draw_d1l2.5Ctarget.5Cd1lx_mango_ghs.5Cobj.5Cr_sys_wm.
                        1353 _loc_VI_VblankIsr..D.3A.5CRenesas_Electronics.5CD1x_RGL.5Crgl_ghs_D1Lx_obj_V1.2E2.2E0.5Cvlib.5Capp.5Cgfx_apps.5Csimple_draw_d1l2.5Ctarget.5Cd1lx_mango_ghs.5Cobj.5Cr_sys_wm.:
                        1354 _loc_VI_VblankIsr:
00000260 8407e130       1355 	prepare	{r26,r27,r28,r29,r31},2
00000264 06e8           1356 	mov	r6,r29
00000266 3c0600000000*  1357 	mov	_r_wm_DevSys,r28
                        1358 --	    .bf
                        1359 .LDW93:
                        1360 --485: {
                        1361 --486:     r_wm_Event_t event = { R_WM_EVENT_VI_VBLANK };
0000026c 3e0600000000*  1362 	mov	.L554,ep
00000272 0075           1363 	sld.w	0[ep],r14
00000274 230e0000       1364 	movea	0,sp,r1
00000278 026d           1365 	sld.w	4[ep],r13
0000027a 61770100       1366 	st.w	r14,0[r1]
0000027e 616f0500       1367 	st.w	r13,4[r1]
                        1368 --487:     
                        1369 --488:     if (0 != (r_wm_DevSys[Unit].GlobalStatusFlags & R_WM_SYS_GLOBAL_STATUS_FLAG_CAPTURE_ACTIVE) )
00000282 1df0           1370 	mov	r29,ep
00000284 fe00           1371 	sxh	ep
00000286 fef66000       1372 	mulhi	96,ep,ep

                                                                      Page 24
                                                              C:\Users\YINGAO~1\AppData\Local\Temp\gh_000084c1.si
0000028a dcf1           1373 	add	r28,ep
0000028c 2c0d           1374 	sld.w	88[ep],r1
0000028e 830a           1375 	shr	3,r1
00000290 d925*          1376 	bnl	.L485
                        1377 --489:     {
                        1378 --490:         /* Can we do triple buffering? */
                        1379 --491:         if (r_wm_DevSys[Unit].RootCapt->Window->Surface.Fb.BufNum > 2)
                        1380 --line491
                        1381 ..lin.D.3A.5CRenesas_Electronics.5CD1x_RGL.5Crgl_ghs_D1Lx_obj_V1.2E2.2E0.5Cvlib.5Capp.5Cgfx_apps.5Csimple_draw_d1l2.5Ctarget.5Cd1lx_mango_ghs.5Cobj.5Cr_sys_wm.18::
                        1382 .LDWlin18:
00000292 1df0           1383 	mov	r29,ep
00000294 fe00           1384 	sxh	ep
00000296 fef66000       1385 	mulhi	96,ep,ep
0000029a dcf1           1386 	add	r28,ep
0000029c 24f5           1387 	sld.w	72[ep],ep
0000029e 000d           1388 	sld.w	0[ep],r1
000002a0 810f2900       1389 	ld.bu	40[r1],r1
000002a4 620a           1390 	cmp	2,r1
000002a6 a31d*          1391 	bnh	.L485
                        1392 --492:         {
                        1393 --	    .bs
                        1394 .LDW04:
                        1395 --493:             r_wm_WinBuffer_t *buf;
                        1396 --494:             
                        1397 --495:             /* Get freshly captured buffer */
                        1398 --496:             buf = R_WM_Cap_DispBufGet(Unit,r_wm_DevSys[Unit].RootCapt->Window);
                        1399 --line496
                        1400 ..lin.D.3A.5CRenesas_Electronics.5CD1x_RGL.5Crgl_ghs_D1Lx_obj_V1.2E2.2E0.5Cvlib.5Capp.5Cgfx_apps.5Csimple_draw_d1l2.5Ctarget.5Cd1lx_mango_ghs.5Cobj.5Cr_sys_wm.19::
                        1401 .LDWlin19:
000002a8 1df0           1402 	mov	r29,ep
000002aa fe00           1403 	sxh	ep
000002ac fef66000       1404 	mulhi	96,ep,ep
000002b0 1d30           1405 	mov	r29,r6
000002b2 dcf1           1406 	add	r28,ep
000002b4 24f5           1407 	sld.w	72[ep],ep
000002b6 003d           1408 	sld.w	0[ep],r7
                        1409 	jarl	_R_WM_Cap_DispBufGet,lp
                        1409 <EXPANSION BEGIN>
                        1409 jarl22 _R_WM_Cap_DispBufGet , lp 
000002b8 80ff0000*      1409 <EXPANSION END>
000002bc 0ad8           1410 	mov	r10,r27
                        1411 --497:             
                        1412 --498:             if (buf != 0)
                        1413 --line498
                        1414 ..lin.D.3A.5CRenesas_Electronics.5CD1x_RGL.5Crgl_ghs_D1Lx_obj_V1.2E2.2E0.5Cvlib.5Capp.5Cgfx_apps.5Csimple_draw_d1l2.5Ctarget.5Cd1lx_mango_ghs.5Cobj.5Cr_sys_wm.20::
                        1415 .LDWlin20:
000002be e0d9           1416 	cmp	zero,r27
000002c0 d20d*          1417 	be	.L485
                        1418 --499:             {
                        1419 --500:                 /* And display it with the next frame */
                        1420 --501:                 if (R_FALSE == R_WM_Sys_WindowSetFb(Unit, r_wm_DevSys[Unit].RootCapt->Window, buf->Data))
                        1421 --line501
                        1422 ..lin.D.3A.5CRenesas_Electronics.5CD1x_RGL.5Crgl_ghs_D1Lx_obj_V1.2E2.2E0.5Cvlib.5Capp.5Cgfx_apps.5Csimple_draw_d1l2.5Ctarget.5Cd1lx_mango_ghs.5Cobj.5Cr_sys_wm.21::
                        1423 .LDWlin21:
000002c2 1df0           1424 	mov	r29,ep
000002c4 fe00           1425 	sxh	ep
000002c6 fef66000       1426 	mulhi	96,ep,ep
000002ca 1d30           1427 	mov	r29,r6
000002cc 3b470100       1428 	ld.w	0[r27],r8
000002d0 dcf1           1429 	add	r28,ep
000002d2 24f5           1430 	sld.w	72[ep],ep

                                                                      Page 25
                                                              C:\Users\YINGAO~1\AppData\Local\Temp\gh_000084c1.si
000002d4 003d           1431 	sld.w	0[ep],r7
                        1432 	jarl	_R_WM_Sys_WindowSetFb,lp
                        1432 <EXPANSION BEGIN>
                        1432 jarl22 _R_WM_Sys_WindowSetFb , lp 
000002d6 80ffa414*      1432 <EXPANSION END>
                        1433 --502:                 {
                        1434 --	    .es
                        1435 .LDW14:
                        1436 .L485:
                        1437 --503:                     /*err = R_WM_ERR_SYS_WIN_SWAP_FAILED;*/
                        1438 --504:                 }
                        1439 --505:             }
                        1440 --506:         }
                        1441 --507:     }
                        1442 --509:     
                        1443 --510:     if ((r_wm_DevSys[Unit].RegEvents & (uint32_t)(1uL << R_WM_EVENT_VI_VBLANK)) != 0)
                        1444 --line510
                        1445 ..lin.D.3A.5CRenesas_Electronics.5CD1x_RGL.5Crgl_ghs_D1Lx_obj_V1.2E2.2E0.5Cvlib.5Capp.5Cgfx_apps.5Csimple_draw_d1l2.5Ctarget.5Cd1lx_mango_ghs.5Cobj.5Cr_sys_wm.22::
                        1446 .LDWlin22:
000002da 1df0           1447 	mov	r29,ep
000002dc fe00           1448 	sxh	ep
000002de fef66000       1449 	mulhi	96,ep,ep
000002e2 dcf1           1450 	add	r28,ep
000002e4 260d           1451 	sld.w	76[ep],r1
000002e6 840a           1452 	shr	4,r1
000002e8 c915*          1453 	bnl	.L493
                        1454 --511:     {
                        1455 --512:         if (r_wm_DevSys[Unit].EventCb != 0)
                        1456 --line512
                        1457 ..lin.D.3A.5CRenesas_Electronics.5CD1x_RGL.5Crgl_ghs_D1Lx_obj_V1.2E2.2E0.5Cvlib.5Capp.5Cgfx_apps.5Csimple_draw_d1l2.5Ctarget.5Cd1lx_mango_ghs.5Cobj.5Cr_sys_wm.23::
                        1458 .LDWlin23:
000002ea 1df0           1459 	mov	r29,ep
000002ec fe00           1460 	sxh	ep
000002ee fef66000       1461 	mulhi	96,ep,ep
000002f2 dcf1           1462 	add	r28,ep
000002f4 280d           1463 	sld.w	80[ep],r1
000002f6 e009           1464 	cmp	zero,r1
000002f8 c20d*          1465 	be	.L493
                        1466 --513:         {
                        1467 --514:             r_wm_DevSys[Unit].EventCb(Unit, &event);
                        1468 --line514
                        1469 ..lin.D.3A.5CRenesas_Electronics.5CD1x_RGL.5Crgl_ghs_D1Lx_obj_V1.2E2.2E0.5Cvlib.5Capp.5Cgfx_apps.5Csimple_draw_d1l2.5Ctarget.5Cd1lx_mango_ghs.5Cobj.5Cr_sys_wm.24::
                        1470 .LDWlin24:
000002fa 1df0           1471 	mov	r29,ep
000002fc fe00           1472 	sxh	ep
000002fe fef66000       1473 	mulhi	96,ep,ep
00000302 1d30           1474 	mov	r29,r6
00000304 233e0000       1475 	movea	0,sp,r7
00000308 dcf1           1476 	add	r28,ep
0000030a 28d5           1477 	sld.w	80[ep],r26
0000030c fac760f9       1478 	jarl	[r26],lp
                        1479 .L493:
                        1480 --515:         }
                        1481 --516:     }
                        1482 --517: }
                        1483 --line517
                        1484 ..lin.D.3A.5CRenesas_Electronics.5CD1x_RGL.5Crgl_ghs_D1Lx_obj_V1.2E2.2E0.5Cvlib.5Capp.5Cgfx_apps.5Csimple_draw_d1l2.5Ctarget.5Cd1lx_mango_ghs.5Cobj.5Cr_sys_wm.25::
                        1485 .LDWlin25:
00000310 0000           1486 	nop
                        1487 --	    .ef
                        1488 .LDW24:

                                                                      Page 26
                                                              C:\Users\YINGAO~1\AppData\Local\Temp\gh_000084c1.si
00000312 4406ff30       1489 	dispose	2,{r26,r27,r28,r29,r31},[lp]
                        1490 	.type	_loc_VI_VblankIsr,@function
                        1491 	.size	_loc_VI_VblankIsr,.-_loc_VI_VblankIsr
                        1492 	.type	_loc_VI_VblankIsr..D.3A.5CRenesas_Electronics.5CD1x_RGL.5Crgl_ghs_D1Lx_obj_V1.2E2.2E0.5Cvlib.5Capp.5Cgfx_apps.5Csimple_draw_d1l2.5Ctarget.5Cd1lx_mango_ghs.5Cobj.5Cr_sys_wm.,@function
                        1493 	.size	_loc_VI_VblankIsr..D.3A.5CRenesas_Electronics.5CD1x_RGL.5Crgl_ghs_D1Lx_obj_V1.2E2.2E0.5Cvlib.5Capp.5Cgfx_apps.5Csimple_draw_d1l2.5Ctarget.5Cd1lx_mango_ghs.5Cobj.5Cr_sys_wm.,.-_loc_VI_VblankIsr..D.3A.5CRenesas_Electronics.5CD1x_RGL.5Crgl_ghs_D1Lx_obj_V1.2E2.2E0.5Cvlib.5Capp.5Cgfx_apps.5Csimple_draw_d1l2.5Ctarget.5Cd1lx_mango_ghs.5Cobj.5Cr_sys_wm.
                        1494 	.align	2
                        1495 .LDW34:
                        1496 --_event	0[sp]	local
                        1497 --.L525	.L554	static
                        1498 --_buf	r27	local
                        1499 
                        1500 --_Unit	r29	param
                        1501 
                        1502 	.section ".bss","awb"
                        1503 .L524:
                        1504 	.type	.L524,@object
                        1505 	.size	.L524,0
                        1506 	.section ".rodata","a"
000001a0 03000000       1507 .L554:	.byte	3,0,0,0
000001a4 00000000       1508 	.space	4
                        1509 	.type	.L554,@object
                        1510 	.size	.L554,8
                        1511 	.data
                        1512 	.text
                        1513 
                        1514 
                        1515 --519: /***********************************************************
                        1516 --520:   Function: locIsr_VO_0_Vblank
                        1517 --521:   
                        1518 --522:   VDCE VBLANK ISR for VOUT unit 0.
                        1519 --523: */
                        1520 --524: static void locIsr_VO_0_Vblank(void)
                        1521 	.align	2
                        1522 	.align	2
                        1523 	.global	_locIsr_VO_0_Vblank..D.3A.5CRenesas_Electronics.5CD1x_RGL.5Crgl_ghs_D1Lx_obj_V1.2E2.2E0.5Cvlib.5Capp.5Cgfx_apps.5Csimple_draw_d1l2.5Ctarget.5Cd1lx_mango_ghs.5Cobj.5Cr_sys_wm.
                        1524 _locIsr_VO_0_Vblank..D.3A.5CRenesas_Electronics.5CD1x_RGL.5Crgl_ghs_D1Lx_obj_V1.2E2.2E0.5Cvlib.5Capp.5Cgfx_apps.5Csimple_draw_d1l2.5Ctarget.5Cd1lx_mango_ghs.5Cobj.5Cr_sys_wm.:
                        1525 _locIsr_VO_0_Vblank:
00000316 80072100       1526 	prepare	{r31},0
                        1527 --	    .bf
                        1528 .LDW44:
                        1529 --525: {
                        1530 --526:     loc_VblankIsr(0);
0000031a 0032           1531 	mov	0,r6
                        1532 	jarl	_loc_VblankIsr,lp
                        1532 <EXPANSION BEGIN>
                        1532 jarl22 _loc_VblankIsr , lp 
0000031c bffff8fd*      1532 <EXPANSION END>
                        1533 --527: }
                        1534 --line527
                        1535 ..lin.D.3A.5CRenesas_Electronics.5CD1x_RGL.5Crgl_ghs_D1Lx_obj_V1.2E2.2E0.5Cvlib.5Capp.5Cgfx_apps.5Csimple_draw_d1l2.5Ctarget.5Cd1lx_mango_ghs.5Cobj.5Cr_sys_wm.26::
                        1536 .LDWlin26:
00000320 0000           1537 	nop
                        1538 --	    .ef
                        1539 .LDW54:
00000322 40063f00       1540 	dispose	0,{r31},[lp]
                        1541 	.type	_locIsr_VO_0_Vblank,@function
                        1542 	.size	_locIsr_VO_0_Vblank,.-_locIsr_VO_0_Vblank
                        1543 	.type	_locIsr_VO_0_Vblank..D.3A.5CRenesas_Electronics.5CD1x_RGL.5Crgl_ghs_D1Lx_obj_V1.2E2.2E0.5Cvlib.5Capp.5Cgfx_apps.5Csimple_draw_d1l2.5Ctarget.5Cd1lx_mango_ghs.5Cobj.5Cr_sys_wm.,@function
                        1544 	.size	_locIsr_VO_0_Vblank..D.3A.5CRenesas_Electronics.5CD1x_RGL.5Crgl_ghs_D1Lx_obj_V1.2E2.2E0.5Cvlib.5Capp.5Cgfx_apps.5Csimple_draw_d1l2.5Ctarget.5Cd1lx_mango_ghs.5Cobj.5Cr_sys_wm.,.-_locIsr_VO_0_Vblank..D.3A.5CRenesas_Electronics.5CD1x_RGL.5Crgl_ghs_D1Lx_obj_V1.2E2.2E0.5Cvlib.5Capp.5Cgfx_apps.5Csimple_draw_d1l2.5Ctarget.5Cd1lx_mango_ghs.5Cobj.5Cr_sys_wm.
                        1545 	.align	2
                        1546 .LDW64:

                                                                      Page 27
                                                              C:\Users\YINGAO~1\AppData\Local\Temp\gh_000084c1.si
                        1547 
                        1548 	.section ".bss","awb"
                        1549 .L586:
                        1550 	.type	.L586,@object
                        1551 	.size	.L586,0
                        1552 	.data
                        1553 	.text
                        1554 
                        1555 
                        1556 --529: /***********************************************************
                        1557 --530:   Function: locIsr_VO_0_Scanline
                        1558 --531:   
                        1559 --532:   VDCE SCANLINE ISR for VOUT unit 0.
                        1560 --533: */
                        1561 --535: static void locIsr_VO_0_Scanline(void)
                        1562 	.align	2
                        1563 	.align	2
                        1564 	.global	_locIsr_VO_0_Scanline..D.3A.5CRenesas_Electronics.5CD1x_RGL.5Crgl_ghs_D1Lx_obj_V1.2E2.2E0.5Cvlib.5Capp.5Cgfx_apps.5Csimple_draw_d1l2.5Ctarget.5Cd1lx_mango_ghs.5Cobj.5Cr_sys_wm.
                        1565 _locIsr_VO_0_Scanline..D.3A.5CRenesas_Electronics.5CD1x_RGL.5Crgl_ghs_D1Lx_obj_V1.2E2.2E0.5Cvlib.5Capp.5Cgfx_apps.5Csimple_draw_d1l2.5Ctarget.5Cd1lx_mango_ghs.5Cobj.5Cr_sys_wm.:
                        1566 _locIsr_VO_0_Scanline:
00000326 80072100       1567 	prepare	{r31},0
                        1568 --	    .bf
                        1569 .LDW74:
                        1570 --536: {
                        1571 --537:     loc_ScanlineIsr(0);
0000032a 0032           1572 	mov	0,r6
                        1573 	jarl	_loc_ScanlineIsr,lp
                        1573 <EXPANSION BEGIN>
                        1573 jarl22 _loc_ScanlineIsr , lp 
0000032c bfffbafe*      1573 <EXPANSION END>
                        1574 --538: }
                        1575 --line538
                        1576 ..lin.D.3A.5CRenesas_Electronics.5CD1x_RGL.5Crgl_ghs_D1Lx_obj_V1.2E2.2E0.5Cvlib.5Capp.5Cgfx_apps.5Csimple_draw_d1l2.5Ctarget.5Cd1lx_mango_ghs.5Cobj.5Cr_sys_wm.27::
                        1577 .LDWlin27:
00000330 0000           1578 	nop
                        1579 --	    .ef
                        1580 .LDW84:
00000332 40063f00       1581 	dispose	0,{r31},[lp]
                        1582 	.type	_locIsr_VO_0_Scanline,@function
                        1583 	.size	_locIsr_VO_0_Scanline,.-_locIsr_VO_0_Scanline
                        1584 	.type	_locIsr_VO_0_Scanline..D.3A.5CRenesas_Electronics.5CD1x_RGL.5Crgl_ghs_D1Lx_obj_V1.2E2.2E0.5Cvlib.5Capp.5Cgfx_apps.5Csimple_draw_d1l2.5Ctarget.5Cd1lx_mango_ghs.5Cobj.5Cr_sys_wm.,@function
                        1585 	.size	_locIsr_VO_0_Scanline..D.3A.5CRenesas_Electronics.5CD1x_RGL.5Crgl_ghs_D1Lx_obj_V1.2E2.2E0.5Cvlib.5Capp.5Cgfx_apps.5Csimple_draw_d1l2.5Ctarget.5Cd1lx_mango_ghs.5Cobj.5Cr_sys_wm.,.-_locIsr_VO_0_Scanline..D.3A.5CRenesas_Electronics.5CD1x_RGL.5Crgl_ghs_D1Lx_obj_V1.2E2.2E0.5Cvlib.5Capp.5Cgfx_apps.5Csimple_draw_d1l2.5Ctarget.5Cd1lx_mango_ghs.5Cobj.5Cr_sys_wm.
                        1586 	.align	2
                        1587 .LDW94:
                        1588 
                        1589 	.section ".bss","awb"
                        1590 .L618:
                        1591 	.type	.L618,@object
                        1592 	.size	.L618,0
                        1593 	.data
                        1594 	.text
                        1595 
                        1596 
                        1597 --540: /***********************************************************
                        1598 --541:   Function: locIsr_VI_0_Vblank
                        1599 --542:   
                        1600 --543:   VDCE VBLANK ISR for VIN unit 0.
                        1601 --544: */
                        1602 --545: static void locIsr_VI_0_Vblank(void)
                        1603 	.align	2
                        1604 	.align	2

                                                                      Page 28
                                                              C:\Users\YINGAO~1\AppData\Local\Temp\gh_000084c1.si
                        1605 	.global	_locIsr_VI_0_Vblank..D.3A.5CRenesas_Electronics.5CD1x_RGL.5Crgl_ghs_D1Lx_obj_V1.2E2.2E0.5Cvlib.5Capp.5Cgfx_apps.5Csimple_draw_d1l2.5Ctarget.5Cd1lx_mango_ghs.5Cobj.5Cr_sys_wm.
                        1606 _locIsr_VI_0_Vblank..D.3A.5CRenesas_Electronics.5CD1x_RGL.5Crgl_ghs_D1Lx_obj_V1.2E2.2E0.5Cvlib.5Capp.5Cgfx_apps.5Csimple_draw_d1l2.5Ctarget.5Cd1lx_mango_ghs.5Cobj.5Cr_sys_wm.:
                        1607 _locIsr_VI_0_Vblank:
00000336 80072100       1608 	prepare	{r31},0
                        1609 --	    .bf
                        1610 .LDW05:
                        1611 --546: {
                        1612 --547:     loc_VI_VblankIsr(0);
0000033a 0032           1613 	mov	0,r6
                        1614 	jarl	_loc_VI_VblankIsr,lp
                        1614 <EXPANSION BEGIN>
                        1614 jarl22 _loc_VI_VblankIsr , lp 
0000033c bfff24ff*      1614 <EXPANSION END>
                        1615 --548: }
                        1616 --line548
                        1617 ..lin.D.3A.5CRenesas_Electronics.5CD1x_RGL.5Crgl_ghs_D1Lx_obj_V1.2E2.2E0.5Cvlib.5Capp.5Cgfx_apps.5Csimple_draw_d1l2.5Ctarget.5Cd1lx_mango_ghs.5Cobj.5Cr_sys_wm.28::
                        1618 .LDWlin28:
00000340 0000           1619 	nop
                        1620 --	    .ef
                        1621 .LDW15:
00000342 40063f00       1622 	dispose	0,{r31},[lp]
                        1623 	.type	_locIsr_VI_0_Vblank,@function
                        1624 	.size	_locIsr_VI_0_Vblank,.-_locIsr_VI_0_Vblank
                        1625 	.type	_locIsr_VI_0_Vblank..D.3A.5CRenesas_Electronics.5CD1x_RGL.5Crgl_ghs_D1Lx_obj_V1.2E2.2E0.5Cvlib.5Capp.5Cgfx_apps.5Csimple_draw_d1l2.5Ctarget.5Cd1lx_mango_ghs.5Cobj.5Cr_sys_wm.,@function
                        1626 	.size	_locIsr_VI_0_Vblank..D.3A.5CRenesas_Electronics.5CD1x_RGL.5Crgl_ghs_D1Lx_obj_V1.2E2.2E0.5Cvlib.5Capp.5Cgfx_apps.5Csimple_draw_d1l2.5Ctarget.5Cd1lx_mango_ghs.5Cobj.5Cr_sys_wm.,.-_locIsr_VI_0_Vblank..D.3A.5CRenesas_Electronics.5CD1x_RGL.5Crgl_ghs_D1Lx_obj_V1.2E2.2E0.5Cvlib.5Capp.5Cgfx_apps.5Csimple_draw_d1l2.5Ctarget.5Cd1lx_mango_ghs.5Cobj.5Cr_sys_wm.
                        1627 	.align	2
                        1628 .LDW25:
                        1629 
                        1630 	.section ".bss","awb"
                        1631 .L650:
                        1632 	.type	.L650,@object
                        1633 	.size	.L650,0
                        1634 	.data
                        1635 	.text
                        1636 
                        1637 
                        1638 --551: #if (R_WM_DEV_NUM > 1)
                        1639 --553: /***********************************************************
                        1640 --554:   Function: locIsr_VO_1_Vblank
                        1641 --555:   
                        1642 --556:   VDCE VBLANK ISR for VOUT unit 1.
                        1643 --557: */
                        1644 --559: static void locIsr_VO_1_Vblank(void)
                        1645 	.align	2
                        1646 	.align	2
                        1647 	.global	_locIsr_VO_1_Vblank..D.3A.5CRenesas_Electronics.5CD1x_RGL.5Crgl_ghs_D1Lx_obj_V1.2E2.2E0.5Cvlib.5Capp.5Cgfx_apps.5Csimple_draw_d1l2.5Ctarget.5Cd1lx_mango_ghs.5Cobj.5Cr_sys_wm.
                        1648 _locIsr_VO_1_Vblank..D.3A.5CRenesas_Electronics.5CD1x_RGL.5Crgl_ghs_D1Lx_obj_V1.2E2.2E0.5Cvlib.5Capp.5Cgfx_apps.5Csimple_draw_d1l2.5Ctarget.5Cd1lx_mango_ghs.5Cobj.5Cr_sys_wm.:
                        1649 _locIsr_VO_1_Vblank:
00000346 80072100       1650 	prepare	{r31},0
                        1651 --	    .bf
                        1652 .LDW35:
                        1653 --560: {
                        1654 --561:     loc_VblankIsr(1);
0000034a 0132           1655 	mov	1,r6
                        1656 	jarl	_loc_VblankIsr,lp
                        1656 <EXPANSION BEGIN>
                        1656 jarl22 _loc_VblankIsr , lp 
0000034c bfffc8fd*      1656 <EXPANSION END>
                        1657 --562: }
                        1658 --line562
                        1659 ..lin.D.3A.5CRenesas_Electronics.5CD1x_RGL.5Crgl_ghs_D1Lx_obj_V1.2E2.2E0.5Cvlib.5Capp.5Cgfx_apps.5Csimple_draw_d1l2.5Ctarget.5Cd1lx_mango_ghs.5Cobj.5Cr_sys_wm.29::

                                                                      Page 29
                                                              C:\Users\YINGAO~1\AppData\Local\Temp\gh_000084c1.si
                        1660 .LDWlin29:
00000350 0000           1661 	nop
                        1662 --	    .ef
                        1663 .LDW45:
00000352 40063f00       1664 	dispose	0,{r31},[lp]
                        1665 	.type	_locIsr_VO_1_Vblank,@function
                        1666 	.size	_locIsr_VO_1_Vblank,.-_locIsr_VO_1_Vblank
                        1667 	.type	_locIsr_VO_1_Vblank..D.3A.5CRenesas_Electronics.5CD1x_RGL.5Crgl_ghs_D1Lx_obj_V1.2E2.2E0.5Cvlib.5Capp.5Cgfx_apps.5Csimple_draw_d1l2.5Ctarget.5Cd1lx_mango_ghs.5Cobj.5Cr_sys_wm.,@function
                        1668 	.size	_locIsr_VO_1_Vblank..D.3A.5CRenesas_Electronics.5CD1x_RGL.5Crgl_ghs_D1Lx_obj_V1.2E2.2E0.5Cvlib.5Capp.5Cgfx_apps.5Csimple_draw_d1l2.5Ctarget.5Cd1lx_mango_ghs.5Cobj.5Cr_sys_wm.,.-_locIsr_VO_1_Vblank..D.3A.5CRenesas_Electronics.5CD1x_RGL.5Crgl_ghs_D1Lx_obj_V1.2E2.2E0.5Cvlib.5Capp.5Cgfx_apps.5Csimple_draw_d1l2.5Ctarget.5Cd1lx_mango_ghs.5Cobj.5Cr_sys_wm.
                        1669 	.align	2
                        1670 .LDW55:
                        1671 
                        1672 	.section ".bss","awb"
                        1673 .L682:
                        1674 	.type	.L682,@object
                        1675 	.size	.L682,0
                        1676 	.data
                        1677 	.text
                        1678 
                        1679 
                        1680 --564: /***********************************************************
                        1681 --565:   Function: locIsr_VO_0_Scanline
                        1682 --566:   
                        1683 --567:   VDCE SCANLINE ISR for VOUT unit 1.
                        1684 --568: */
                        1685 --570: static void locIsr_VO_1_Scanline(void)
                        1686 	.align	2
                        1687 	.align	2
                        1688 	.global	_locIsr_VO_1_Scanline..D.3A.5CRenesas_Electronics.5CD1x_RGL.5Crgl_ghs_D1Lx_obj_V1.2E2.2E0.5Cvlib.5Capp.5Cgfx_apps.5Csimple_draw_d1l2.5Ctarget.5Cd1lx_mango_ghs.5Cobj.5Cr_sys_wm.
                        1689 _locIsr_VO_1_Scanline..D.3A.5CRenesas_Electronics.5CD1x_RGL.5Crgl_ghs_D1Lx_obj_V1.2E2.2E0.5Cvlib.5Capp.5Cgfx_apps.5Csimple_draw_d1l2.5Ctarget.5Cd1lx_mango_ghs.5Cobj.5Cr_sys_wm.:
                        1690 _locIsr_VO_1_Scanline:
00000356 80072100       1691 	prepare	{r31},0
                        1692 --	    .bf
                        1693 .LDW65:
                        1694 --571: {
                        1695 --572:     loc_ScanlineIsr(1);
0000035a 0132           1696 	mov	1,r6
                        1697 	jarl	_loc_ScanlineIsr,lp
                        1697 <EXPANSION BEGIN>
                        1697 jarl22 _loc_ScanlineIsr , lp 
0000035c bfff8afe*      1697 <EXPANSION END>
                        1698 --573: }
                        1699 --line573
                        1700 ..lin.D.3A.5CRenesas_Electronics.5CD1x_RGL.5Crgl_ghs_D1Lx_obj_V1.2E2.2E0.5Cvlib.5Capp.5Cgfx_apps.5Csimple_draw_d1l2.5Ctarget.5Cd1lx_mango_ghs.5Cobj.5Cr_sys_wm.30::
                        1701 .LDWlin30:
00000360 0000           1702 	nop
                        1703 --	    .ef
                        1704 .LDW75:
00000362 40063f00       1705 	dispose	0,{r31},[lp]
                        1706 	.type	_locIsr_VO_1_Scanline,@function
                        1707 	.size	_locIsr_VO_1_Scanline,.-_locIsr_VO_1_Scanline
                        1708 	.type	_locIsr_VO_1_Scanline..D.3A.5CRenesas_Electronics.5CD1x_RGL.5Crgl_ghs_D1Lx_obj_V1.2E2.2E0.5Cvlib.5Capp.5Cgfx_apps.5Csimple_draw_d1l2.5Ctarget.5Cd1lx_mango_ghs.5Cobj.5Cr_sys_wm.,@function
                        1709 	.size	_locIsr_VO_1_Scanline..D.3A.5CRenesas_Electronics.5CD1x_RGL.5Crgl_ghs_D1Lx_obj_V1.2E2.2E0.5Cvlib.5Capp.5Cgfx_apps.5Csimple_draw_d1l2.5Ctarget.5Cd1lx_mango_ghs.5Cobj.5Cr_sys_wm.,.-_locIsr_VO_1_Scanline..D.3A.5CRenesas_Electronics.5CD1x_RGL.5Crgl_ghs_D1Lx_obj_V1.2E2.2E0.5Cvlib.5Capp.5Cgfx_apps.5Csimple_draw_d1l2.5Ctarget.5Cd1lx_mango_ghs.5Cobj.5Cr_sys_wm.
                        1710 	.align	2
                        1711 .LDW85:
                        1712 
                        1713 	.section ".bss","awb"
                        1714 .L714:
                        1715 	.type	.L714,@object
                        1716 	.size	.L714,0
                        1717 	.data

                                                                      Page 30
                                                              C:\Users\YINGAO~1\AppData\Local\Temp\gh_000084c1.si
                        1718 	.text
                        1719 
                        1720 
                        1721 --575: /***********************************************************
                        1722 --576:   Function: locIsr_VI_1_Vblank
                        1723 --577:   
                        1724 --578:   VDCE VBLANK ISR for VIN unit 1.
                        1725 --579: */
                        1726 --580: static void locIsr_VI_1_Vblank(void)
                        1727 	.align	2
                        1728 	.align	2
                        1729 	.global	_locIsr_VI_1_Vblank..D.3A.5CRenesas_Electronics.5CD1x_RGL.5Crgl_ghs_D1Lx_obj_V1.2E2.2E0.5Cvlib.5Capp.5Cgfx_apps.5Csimple_draw_d1l2.5Ctarget.5Cd1lx_mango_ghs.5Cobj.5Cr_sys_wm.
                        1730 _locIsr_VI_1_Vblank..D.3A.5CRenesas_Electronics.5CD1x_RGL.5Crgl_ghs_D1Lx_obj_V1.2E2.2E0.5Cvlib.5Capp.5Cgfx_apps.5Csimple_draw_d1l2.5Ctarget.5Cd1lx_mango_ghs.5Cobj.5Cr_sys_wm.:
                        1731 _locIsr_VI_1_Vblank:
00000366 80072100       1732 	prepare	{r31},0
                        1733 --	    .bf
                        1734 .LDW95:
                        1735 --581: {
                        1736 --582:     loc_VI_VblankIsr(1);
0000036a 0132           1737 	mov	1,r6
                        1738 	jarl	_loc_VI_VblankIsr,lp
                        1738 <EXPANSION BEGIN>
                        1738 jarl22 _loc_VI_VblankIsr , lp 
0000036c bffff4fe*      1738 <EXPANSION END>
                        1739 --583: }
                        1740 --line583
                        1741 ..lin.D.3A.5CRenesas_Electronics.5CD1x_RGL.5Crgl_ghs_D1Lx_obj_V1.2E2.2E0.5Cvlib.5Capp.5Cgfx_apps.5Csimple_draw_d1l2.5Ctarget.5Cd1lx_mango_ghs.5Cobj.5Cr_sys_wm.31::
                        1742 .LDWlin31:
00000370 0000           1743 	nop
                        1744 --	    .ef
                        1745 .LDW06:
00000372 40063f00       1746 	dispose	0,{r31},[lp]
                        1747 	.type	_locIsr_VI_1_Vblank,@function
                        1748 	.size	_locIsr_VI_1_Vblank,.-_locIsr_VI_1_Vblank
                        1749 	.type	_locIsr_VI_1_Vblank..D.3A.5CRenesas_Electronics.5CD1x_RGL.5Crgl_ghs_D1Lx_obj_V1.2E2.2E0.5Cvlib.5Capp.5Cgfx_apps.5Csimple_draw_d1l2.5Ctarget.5Cd1lx_mango_ghs.5Cobj.5Cr_sys_wm.,@function
                        1750 	.size	_locIsr_VI_1_Vblank..D.3A.5CRenesas_Electronics.5CD1x_RGL.5Crgl_ghs_D1Lx_obj_V1.2E2.2E0.5Cvlib.5Capp.5Cgfx_apps.5Csimple_draw_d1l2.5Ctarget.5Cd1lx_mango_ghs.5Cobj.5Cr_sys_wm.,.-_locIsr_VI_1_Vblank..D.3A.5CRenesas_Electronics.5CD1x_RGL.5Crgl_ghs_D1Lx_obj_V1.2E2.2E0.5Cvlib.5Capp.5Cgfx_apps.5Csimple_draw_d1l2.5Ctarget.5Cd1lx_mango_ghs.5Cobj.5Cr_sys_wm.
                        1751 	.align	2
                        1752 .LDW16:
                        1753 
                        1754 	.section ".bss","awb"
                        1755 .L746:
                        1756 	.type	.L746,@object
                        1757 	.size	.L746,0
                        1758 	.data
                        1759 	.text
                        1760 
                        1761 
                        1762 --586: #endif /* (R_WM_DEV_NUM > 1) */
                        1763 --587:  
                        1764 --590: #ifdef R_WM_SYS_ERROR_TRACKING
                        1765 --591:     
                        1766 --592:     #define R_WM_SYS_REPORT_ERROR(Unit,Error,AdditionalInfo)    \
                        1767 --593:                 (loc_SetLastError((Unit),(Error),(AdditionalInfo), __LINE__))
                        1768 --594:     
                        1769 --595:     /***********************************************************
                        1770 --596:       Function: R_WM_Sys_GetLastError
                        1771 --597:     */
                        1772 --598:     r_wm_Error_t R_WM_Sys_GetLastError(uint32_t *Unit, uint32_t *AdditionalInfo, uint32_t *Overflow, uint32_t *New)
                        1773 --599:     {
                        1774 --600:         if (Unit != 0)
                        1775 --601:         {

                                                                      Page 31
                                                              C:\Users\YINGAO~1\AppData\Local\Temp\gh_000084c1.si
                        1776 --602:             *Unit = loc_LastError_Unit;
                        1777 --603:         }
                        1778 --604:         if (AdditionalInfo != 0)
                        1779 --605:         {
                        1780 --606:             *AdditionalInfo = loc_LastError_Info;
                        1781 --607:         }
                        1782 --608:         if (Overflow != 0)
                        1783 --609:         {
                        1784 --610:             *Overflow = loc_LastError_Overflow;
                        1785 --611:         }
                        1786 --612:         if (New != 0)
                        1787 --613:         {
                        1788 --614:             *New = loc_LastError_NewError;
                        1789 --615:         }
                        1790 --616:         
                        1791 --617:         loc_LastError_NewError = 0;
                        1792 --618:         loc_LastError_Overflow = 0;
                        1793 --619:         
                        1794 --620:         return loc_LastError_Code;
                        1795 --621:     }
                        1796 --622:     
                        1797 --623:     /***********************************************************
                        1798 --624:       Function: loc_SetLastError
                        1799 --625:     */
                        1800 --626:     static void loc_SetLastError(uint32_t Unit, r_wm_Error_t Error, uint32_t AdditionalInfo, uint32_t Line);
                        1801 --627:     
                        1802 --628:     static void loc_SetLastError(uint32_t Unit, r_wm_Error_t Error, uint32_t AdditionalInfo, uint32_t Line)
                        1803 --629:     {
                        1804 --630:         if (AdditionalInfo != 0)
                        1805 --631:         {
                        1806 --632:             R_BSP_STDIO_Printf("ERROR in R_SYS_WM, Line %u, Unit %u, Code %u/%u\n", Line, Unit, Error, AdditionalInfo);
                        1807 --633:         }
                        1808 --634:         else
                        1809 --635:         {
                        1810 --636:             R_BSP_STDIO_Printf("ERROR in R_SYS_WM, Line %u, Unit %u, Code %u\n", Line, Unit, Error);
                        1811 --637:         }
                        1812 --638:         
                        1813 --639:         if (0 == loc_LastError_NewError)
                        1814 --640:         {
                        1815 --641:             loc_LastError_Code = Error;
                        1816 --642:             loc_LastError_Info = AdditionalInfo;
                        1817 --643:             loc_LastError_Unit = Unit;
                        1818 --644:             loc_LastError_Line = Line;
                        1819 --645:             loc_LastError_NewError = 1;
                        1820 --646:         }
                        1821 --647:         else
                        1822 --648:         {
                        1823 --649:             loc_LastError_Overflow = 1;
                        1824 --650:         }
                        1825 --651:     }
                        1826 --653: #else /* R_WM_SYS_ERROR_TRACKING */
                        1827 --654:     #define R_WM_SYS_REPORT_ERROR(x,y,z)
                        1828 --655:   
                        1829 --656: #endif /* R_WM_SYS_ERROR_TRACKING */
                        1830 --658: /***********************************************************
                        1831 --659:   Function: loc_GetVdceFormat
                        1832 --660: */
                        1833 --661: static r_vdce_Format_t loc_GetVdceFormat(r_wm_WinColorFmt_t Format)
                        1834 	.align	2
                        1835 	.align	2
                        1836 	.global	_loc_GetVdceFormat..D.3A.5CRenesas_Electronics.5CD1x_RGL.5Crgl_ghs_D1Lx_obj_V1.2E2.2E0.5Cvlib.5Capp.5Cgfx_apps.5Csimple_draw_d1l2.5Ctarget.5Cd1lx_mango_ghs.5Cobj.5Cr_sys_wm.

                                                                      Page 32
                                                              C:\Users\YINGAO~1\AppData\Local\Temp\gh_000084c1.si
                        1837 _loc_GetVdceFormat..D.3A.5CRenesas_Electronics.5CD1x_RGL.5Crgl_ghs_D1Lx_obj_V1.2E2.2E0.5Cvlib.5Capp.5Cgfx_apps.5Csimple_draw_d1l2.5Ctarget.5Cd1lx_mango_ghs.5Cobj.5Cr_sys_wm.:
                        1838 _loc_GetVdceFormat:
00000376 0670           1839 	mov	r6,r14
                        1840 --	    .bf
                        1841 .LDW26:
                        1842 --662: {
                        1843 --663:     r_vdce_Format_t  vdcosim_format;
                        1844 --665:     switch (Format) {
00000378 0e08           1845 	mov	r14,r1
0000037a 0106e7ff       1846 	addi	-25,r1,zero
0000037e f155*          1847 	bl	.L781
00000380 c20a           1848 	shl	2,r1
00000382 e10600000000*  1849 	jmp	.L864[r1]
                        1850 .L864:
00000388 80076400*      1851 	jr	.L765
0000038c 80076400*      1852 	jr	.L766
00000390 80076800*      1853 	jr	.L768
00000394 80076400*      1854 	jr	.L768
00000398 80076400*      1855 	jr	.L769
0000039c 80076400*      1856 	jr	.L770
000003a0 80075400*      1857 	jr	.L767
000003a4 80078800*      1858 	jr	.L781
000003a8 80075c00*      1859 	jr	.L771
000003ac 80075c00*      1860 	jr	.L772
000003b0 80075c00*      1861 	jr	.L773
000003b4 80075c00*      1862 	jr	.L774
000003b8 80074800*      1863 	jr	.L770
000003bc 80077000*      1864 	jr	.L781
000003c0 80073c00*      1865 	jr	.L769
000003c4 80076800*      1866 	jr	.L781
000003c8 80076400*      1867 	jr	.L781
000003cc 80076000*      1868 	jr	.L781
000003d0 80075c00*      1869 	jr	.L781
000003d4 80074000*      1870 	jr	.L775
000003d8 80074000*      1871 	jr	.L776
000003dc 80074000*      1872 	jr	.L777
000003e0 80074000*      1873 	jr	.L778
000003e4 80074000*      1874 	jr	.L779
000003e8 80074000*      1875 	jr	.L780
                        1876 .L765:
                        1877 --666:     case R_WM_COLORFMT_RGB565:
                        1878 --667:         vdcosim_format = R_VDCE_RGB565;
                        1879 --line667
                        1880 ..lin.D.3A.5CRenesas_Electronics.5CD1x_RGL.5Crgl_ghs_D1Lx_obj_V1.2E2.2E0.5Cvlib.5Capp.5Cgfx_apps.5Csimple_draw_d1l2.5Ctarget.5Cd1lx_mango_ghs.5Cobj.5Cr_sys_wm.32::
                        1881 .LDWlin32:
000003ec 000a           1882 	mov	0,r1
000003ee a525*          1883 	br	.L763
                        1884 .L766:
                        1885 --668:         break;
                        1886 --669:     case R_WM_COLORFMT_ARGB1555:
                        1887 --670:         vdcosim_format = R_VDCE_ARGB1555;
                        1888 --line670
                        1889 ..lin.D.3A.5CRenesas_Electronics.5CD1x_RGL.5Crgl_ghs_D1Lx_obj_V1.2E2.2E0.5Cvlib.5Capp.5Cgfx_apps.5Csimple_draw_d1l2.5Ctarget.5Cd1lx_mango_ghs.5Cobj.5Cr_sys_wm.33::
                        1890 .LDWlin33:
000003f0 020a           1891 	mov	2,r1
000003f2 8525*          1892 	br	.L763
                        1893 .L767:
                        1894 --671:         break;
                        1895 --672:     case R_WM_COLORFMT_RGBA5551:
                        1896 --673:         vdcosim_format = R_VDCE_RGBA5551;
                        1897 --line673

                                                                      Page 33
                                                              C:\Users\YINGAO~1\AppData\Local\Temp\gh_000084c1.si
                        1898 ..lin.D.3A.5CRenesas_Electronics.5CD1x_RGL.5Crgl_ghs_D1Lx_obj_V1.2E2.2E0.5Cvlib.5Capp.5Cgfx_apps.5Csimple_draw_d1l2.5Ctarget.5Cd1lx_mango_ghs.5Cobj.5Cr_sys_wm.34::
                        1899 .LDWlin34:
000003f4 0a0a           1900 	mov	10,r1
000003f6 e51d*          1901 	br	.L763
                        1902 .L768:
                        1903 --674:         break;
                        1904 --675:     case R_WM_COLORFMT_RGB0444:
                        1905 --676:     case R_WM_COLORFMT_ARGB4444:
                        1906 --677:         vdcosim_format = R_VDCE_ARGB4444;
                        1907 --line677
                        1908 ..lin.D.3A.5CRenesas_Electronics.5CD1x_RGL.5Crgl_ghs_D1Lx_obj_V1.2E2.2E0.5Cvlib.5Capp.5Cgfx_apps.5Csimple_draw_d1l2.5Ctarget.5Cd1lx_mango_ghs.5Cobj.5Cr_sys_wm.35::
                        1909 .LDWlin35:
000003f8 030a           1910 	mov	3,r1
000003fa c51d*          1911 	br	.L763
                        1912 .L769:
                        1913 --678:         break;
                        1914 --679:     case R_WM_COLORFMT_RGB0888:
                        1915 --680:     case R_WM_COLORFMT_RLE24RGB0888:
                        1916 --681:         vdcosim_format = R_VDCE_RGB0888;
                        1917 --line681
                        1918 ..lin.D.3A.5CRenesas_Electronics.5CD1x_RGL.5Crgl_ghs_D1Lx_obj_V1.2E2.2E0.5Cvlib.5Capp.5Cgfx_apps.5Csimple_draw_d1l2.5Ctarget.5Cd1lx_mango_ghs.5Cobj.5Cr_sys_wm.36::
                        1919 .LDWlin36:
000003fc 010a           1920 	mov	1,r1
000003fe a51d*          1921 	br	.L763
                        1922 .L770:
                        1923 --682:         break;
                        1924 --683:     case R_WM_COLORFMT_ARGB8888:
                        1925 --684:     case R_WM_COLORFMT_RLE24ARGB8888:
                        1926 --685:         vdcosim_format = R_VDCE_ARGB8888; 
                        1927 --line685
                        1928 ..lin.D.3A.5CRenesas_Electronics.5CD1x_RGL.5Crgl_ghs_D1Lx_obj_V1.2E2.2E0.5Cvlib.5Capp.5Cgfx_apps.5Csimple_draw_d1l2.5Ctarget.5Cd1lx_mango_ghs.5Cobj.5Cr_sys_wm.37::
                        1929 .LDWlin37:
00000400 040a           1930 	mov	4,r1
00000402 851d*          1931 	br	.L763
                        1932 .L771:
                        1933 --686:         break;
                        1934 --687:     case R_WM_COLORFMT_RGBA8888:
                        1935 --688:        vdcosim_format = R_VDCE_RGBA8888;
                        1936 --line688
                        1937 ..lin.D.3A.5CRenesas_Electronics.5CD1x_RGL.5Crgl_ghs_D1Lx_obj_V1.2E2.2E0.5Cvlib.5Capp.5Cgfx_apps.5Csimple_draw_d1l2.5Ctarget.5Cd1lx_mango_ghs.5Cobj.5Cr_sys_wm.38::
                        1938 .LDWlin38:
00000404 0b0a           1939 	mov	11,r1
00000406 e515*          1940 	br	.L763
                        1941 .L772:
                        1942 --689:        break;
                        1943 --690:     case R_WM_COLORFMT_CLUT8:
                        1944 --691:         vdcosim_format = R_VDCE_CLUT8;
                        1945 --line691
                        1946 ..lin.D.3A.5CRenesas_Electronics.5CD1x_RGL.5Crgl_ghs_D1Lx_obj_V1.2E2.2E0.5Cvlib.5Capp.5Cgfx_apps.5Csimple_draw_d1l2.5Ctarget.5Cd1lx_mango_ghs.5Cobj.5Cr_sys_wm.39::
                        1947 .LDWlin39:
00000408 050a           1948 	mov	5,r1
0000040a c515*          1949 	br	.L763
                        1950 .L773:
                        1951 --692:         break;
                        1952 --693:     case R_WM_COLORFMT_CLUT4:
                        1953 --694:         vdcosim_format = R_VDCE_CLUT4;
                        1954 --line694
                        1955 ..lin.D.3A.5CRenesas_Electronics.5CD1x_RGL.5Crgl_ghs_D1Lx_obj_V1.2E2.2E0.5Cvlib.5Capp.5Cgfx_apps.5Csimple_draw_d1l2.5Ctarget.5Cd1lx_mango_ghs.5Cobj.5Cr_sys_wm.40::
                        1956 .LDWlin40:
0000040c 060a           1957 	mov	6,r1
0000040e a515*          1958 	br	.L763

                                                                      Page 34
                                                              C:\Users\YINGAO~1\AppData\Local\Temp\gh_000084c1.si
                        1959 .L774:
                        1960 --695:         break;
                        1961 --696:     case R_WM_COLORFMT_CLUT1:
                        1962 --697:         vdcosim_format = R_VDCE_CLUT1;
                        1963 --line697
                        1964 ..lin.D.3A.5CRenesas_Electronics.5CD1x_RGL.5Crgl_ghs_D1Lx_obj_V1.2E2.2E0.5Cvlib.5Capp.5Cgfx_apps.5Csimple_draw_d1l2.5Ctarget.5Cd1lx_mango_ghs.5Cobj.5Cr_sys_wm.41::
                        1965 .LDWlin41:
00000410 070a           1966 	mov	7,r1
00000412 8515*          1967 	br	.L763
                        1968 .L775:
                        1969 --698:         break;
                        1970 --699:     case R_WM_COLORFMT_YCBCR_422:
                        1971 --700:         vdcosim_format = R_VDCE_YCBCR_422;
                        1972 --line700
                        1973 ..lin.D.3A.5CRenesas_Electronics.5CD1x_RGL.5Crgl_ghs_D1Lx_obj_V1.2E2.2E0.5Cvlib.5Capp.5Cgfx_apps.5Csimple_draw_d1l2.5Ctarget.5Cd1lx_mango_ghs.5Cobj.5Cr_sys_wm.42::
                        1974 .LDWlin42:
00000414 080a           1975 	mov	8,r1
00000416 e50d*          1976 	br	.L763
                        1977 .L776:
                        1978 --701:         break;
                        1979 --702:     case R_WM_COLORFMT_YCBCR_444:
                        1980 --703:         vdcosim_format = R_VDCE_YCBCR_444;
                        1981 --line703
                        1982 ..lin.D.3A.5CRenesas_Electronics.5CD1x_RGL.5Crgl_ghs_D1Lx_obj_V1.2E2.2E0.5Cvlib.5Capp.5Cgfx_apps.5Csimple_draw_d1l2.5Ctarget.5Cd1lx_mango_ghs.5Cobj.5Cr_sys_wm.43::
                        1983 .LDWlin43:
00000418 090a           1984 	mov	9,r1
0000041a c50d*          1985 	br	.L763
                        1986 .L777:
                        1987 --704:         break;
                        1988 --705:     case R_WM_COLORFMT_YUV_YUYV:
                        1989 --706:         vdcosim_format = R_VDCE_YUV_YUYV;
                        1990 --line706
                        1991 ..lin.D.3A.5CRenesas_Electronics.5CD1x_RGL.5Crgl_ghs_D1Lx_obj_V1.2E2.2E0.5Cvlib.5Capp.5Cgfx_apps.5Csimple_draw_d1l2.5Ctarget.5Cd1lx_mango_ghs.5Cobj.5Cr_sys_wm.44::
                        1992 .LDWlin44:
0000041c 0c0a           1993 	mov	12,r1
0000041e a50d*          1994 	br	.L763
                        1995 .L778:
                        1996 --707:         break;
                        1997 --708:     case R_WM_COLORFMT_YUV_UYVY:
                        1998 --709:         vdcosim_format = R_VDCE_YUV_UYVY;
                        1999 --line709
                        2000 ..lin.D.3A.5CRenesas_Electronics.5CD1x_RGL.5Crgl_ghs_D1Lx_obj_V1.2E2.2E0.5Cvlib.5Capp.5Cgfx_apps.5Csimple_draw_d1l2.5Ctarget.5Cd1lx_mango_ghs.5Cobj.5Cr_sys_wm.45::
                        2001 .LDWlin45:
00000420 0d0a           2002 	mov	13,r1
00000422 850d*          2003 	br	.L763
                        2004 .L779:
                        2005 --710:         break;
                        2006 --711:     case R_WM_COLORFMT_YUV_YVYU:
                        2007 --712:         vdcosim_format = R_VDCE_YUV_YVYU;
                        2008 --line712
                        2009 ..lin.D.3A.5CRenesas_Electronics.5CD1x_RGL.5Crgl_ghs_D1Lx_obj_V1.2E2.2E0.5Cvlib.5Capp.5Cgfx_apps.5Csimple_draw_d1l2.5Ctarget.5Cd1lx_mango_ghs.5Cobj.5Cr_sys_wm.46::
                        2010 .LDWlin46:
00000424 0e0a           2011 	mov	14,r1
00000426 e505*          2012 	br	.L763
                        2013 .L780:
                        2014 --713:         break;
                        2015 --714:     case R_WM_COLORFMT_YUV_VYUY:
                        2016 --715:         vdcosim_format = R_VDCE_YUV_VYUY;
                        2017 --line715
                        2018 ..lin.D.3A.5CRenesas_Electronics.5CD1x_RGL.5Crgl_ghs_D1Lx_obj_V1.2E2.2E0.5Cvlib.5Capp.5Cgfx_apps.5Csimple_draw_d1l2.5Ctarget.5Cd1lx_mango_ghs.5Cobj.5Cr_sys_wm.47::
                        2019 .LDWlin47:

                                                                      Page 35
                                                              C:\Users\YINGAO~1\AppData\Local\Temp\gh_000084c1.si
00000428 0f0a           2020 	mov	15,r1
0000042a c505*          2021 	br	.L763
                        2022 .L781:
                        2023 --716:         break;
                        2024 --717:     default:
                        2025 --718:         vdcosim_format = R_VDCE_FORMAT_LAST;
                        2026 --line718
                        2027 ..lin.D.3A.5CRenesas_Electronics.5CD1x_RGL.5Crgl_ghs_D1Lx_obj_V1.2E2.2E0.5Cvlib.5Capp.5Cgfx_apps.5Csimple_draw_d1l2.5Ctarget.5Cd1lx_mango_ghs.5Cobj.5Cr_sys_wm.48::
                        2028 .LDWlin48:
0000042c 200e1000       2029 	movea	16,zero,r1
00000430 0000           2030 	nop
                        2031 .L763:
                        2032 --719:         break;
                        2033 --720:     }
                        2034 --721:     return vdcosim_format;
00000432 0150           2035 	mov	r1,r10
                        2036 --	    .ef
                        2037 .LDW36:
00000434 7f00           2038 	jmp	[lp]
                        2039 	.type	_loc_GetVdceFormat,@function
                        2040 	.size	_loc_GetVdceFormat,.-_loc_GetVdceFormat
                        2041 	.type	_loc_GetVdceFormat..D.3A.5CRenesas_Electronics.5CD1x_RGL.5Crgl_ghs_D1Lx_obj_V1.2E2.2E0.5Cvlib.5Capp.5Cgfx_apps.5Csimple_draw_d1l2.5Ctarget.5Cd1lx_mango_ghs.5Cobj.5Cr_sys_wm.,@function
                        2042 	.size	_loc_GetVdceFormat..D.3A.5CRenesas_Electronics.5CD1x_RGL.5Crgl_ghs_D1Lx_obj_V1.2E2.2E0.5Cvlib.5Capp.5Cgfx_apps.5Csimple_draw_d1l2.5Ctarget.5Cd1lx_mango_ghs.5Cobj.5Cr_sys_wm.,.-_loc_GetVdceFormat..D.3A.5CRenesas_Electronics.5CD1x_RGL.5Crgl_ghs_D1Lx_obj_V1.2E2.2E0.5Cvlib.5Capp.5Cgfx_apps.5Csimple_draw_d1l2.5Ctarget.5Cd1lx_mango_ghs.5Cobj.5Cr_sys_wm.
                        2043 	.align	2
                        2044 .LDW46:
                        2045 --_vdcosim_format	r1	local
                        2046 
                        2047 --_Format	r14	param
                        2048 
                        2049 	.section ".bss","awb"
                        2050 .L862:
                        2051 	.type	.L862,@object
                        2052 	.size	.L862,0
                        2053 	.data
                        2054 	.ghsnote jtable,2097156,.L864,.L864,.L864,25
                        2055 	.text
                        2056 
                        2057 --722: }
                        2058 
                        2059 --724: uint32_t R_WM_Priv_WindowIsRleLayer(const r_wm_Window_t  *Window);
                        2060 --728: /***********************************************************
                        2061 --729:   Function: loc_WindowIsYUVLayer
                        2062 --730: */
                        2063 --731: static uint32_t loc_WindowIsYUVLayer(const r_wm_Window_t *Window)
                        2064 	.align	2
                        2065 	.align	2
                        2066 	.global	_loc_WindowIsYUVLayer..D.3A.5CRenesas_Electronics.5CD1x_RGL.5Crgl_ghs_D1Lx_obj_V1.2E2.2E0.5Cvlib.5Capp.5Cgfx_apps.5Csimple_draw_d1l2.5Ctarget.5Cd1lx_mango_ghs.5Cobj.5Cr_sys_wm.
                        2067 _loc_WindowIsYUVLayer..D.3A.5CRenesas_Electronics.5CD1x_RGL.5Crgl_ghs_D1Lx_obj_V1.2E2.2E0.5Cvlib.5Capp.5Cgfx_apps.5Csimple_draw_d1l2.5Ctarget.5Cd1lx_mango_ghs.5Cobj.5Cr_sys_wm.:
                        2068 _loc_WindowIsYUVLayer:
00000436 06f0           2069 	mov	r6,ep
                        2070 --	    .bf
                        2071 .LDW56:
                        2072 --732: {
                        2073 --733:     uint32_t ret_val;
                        2074 --734:     switch (Window->ColorFmt)
00000438 040d           2075 	sld.w	8[ep],r1
0000043a 010eedff       2076 	addi	-19,r1,r1
0000043e 650a           2077 	cmp	5,r1
00000440 bb05*          2078 	bh	.L989
                        2079 --735:     {
                        2080 --736:         case R_WM_COLORFMT_YUV_YUYV:

                                                                      Page 36
                                                              C:\Users\YINGAO~1\AppData\Local\Temp\gh_000084c1.si
                        2081 --737:         case R_WM_COLORFMT_YUV_UYVY:
                        2082 --738:         case R_WM_COLORFMT_YUV_YVYU:
                        2083 --739:         case R_WM_COLORFMT_YUV_VYUY:
                        2084 --740:         case R_WM_COLORFMT_YCBCR_422:
                        2085 --741:         case R_WM_COLORFMT_YCBCR_444:
                        2086 --742:             ret_val = 1;
                        2087 --line742
                        2088 ..lin.D.3A.5CRenesas_Electronics.5CD1x_RGL.5Crgl_ghs_D1Lx_obj_V1.2E2.2E0.5Cvlib.5Capp.5Cgfx_apps.5Csimple_draw_d1l2.5Ctarget.5Cd1lx_mango_ghs.5Cobj.5Cr_sys_wm.49::
                        2089 .LDWlin49:
00000442 010a           2090 	mov	1,r1
00000444 b505*          2091 	br	.L986
                        2092 .L989:
                        2093 --743:             break;
                        2094 --744:         default:
                        2095 --745:             ret_val = 0;
                        2096 --line745
                        2097 ..lin.D.3A.5CRenesas_Electronics.5CD1x_RGL.5Crgl_ghs_D1Lx_obj_V1.2E2.2E0.5Cvlib.5Capp.5Cgfx_apps.5Csimple_draw_d1l2.5Ctarget.5Cd1lx_mango_ghs.5Cobj.5Cr_sys_wm.50::
                        2098 .LDWlin50:
00000446 000a           2099 	mov	0,r1
00000448 0000           2100 	nop
                        2101 .L986:
                        2102 --746:             break;
                        2103 --747:     }
                        2104 --748:     return ret_val;
0000044a 0150           2105 	mov	r1,r10
                        2106 --	    .ef
                        2107 .LDW66:
0000044c 7f00           2108 	jmp	[lp]
                        2109 	.type	_loc_WindowIsYUVLayer,@function
                        2110 	.size	_loc_WindowIsYUVLayer,.-_loc_WindowIsYUVLayer
                        2111 	.type	_loc_WindowIsYUVLayer..D.3A.5CRenesas_Electronics.5CD1x_RGL.5Crgl_ghs_D1Lx_obj_V1.2E2.2E0.5Cvlib.5Capp.5Cgfx_apps.5Csimple_draw_d1l2.5Ctarget.5Cd1lx_mango_ghs.5Cobj.5Cr_sys_wm.,@function
                        2112 	.size	_loc_WindowIsYUVLayer..D.3A.5CRenesas_Electronics.5CD1x_RGL.5Crgl_ghs_D1Lx_obj_V1.2E2.2E0.5Cvlib.5Capp.5Cgfx_apps.5Csimple_draw_d1l2.5Ctarget.5Cd1lx_mango_ghs.5Cobj.5Cr_sys_wm.,.-_loc_WindowIsYUVLayer..D.3A.5CRenesas_Electronics.5CD1x_RGL.5Crgl_ghs_D1Lx_obj_V1.2E2.2E0.5Cvlib.5Capp.5Cgfx_apps.5Csimple_draw_d1l2.5Ctarget.5Cd1lx_mango_ghs.5Cobj.5Cr_sys_wm.
                        2113 	.align	2
                        2114 .LDW76:
                        2115 --_ret_val	r1	local
                        2116 
                        2117 --_Window	ep	param
                        2118 
                        2119 	.section ".bss","awb"
                        2120 .L1010:
                        2121 	.type	.L1010,@object
                        2122 	.size	.L1010,0
                        2123 	.data
                        2124 	.text
                        2125 
                        2126 --749: }
                        2127 
                        2128 --752: /***********************************************************
                        2129 --753:   Function: loc_GetVdceCapFormat
                        2130 --754: */
                        2131 --756: static void loc_Layer2Spea (    uint32_t        Unit,
                        2132 	.align	2
                        2133 	.align	2
                        2134 	.global	_loc_Layer2Spea..D.3A.5CRenesas_Electronics.5CD1x_RGL.5Crgl_ghs_D1Lx_obj_V1.2E2.2E0.5Cvlib.5Capp.5Cgfx_apps.5Csimple_draw_d1l2.5Ctarget.5Cd1lx_mango_ghs.5Cobj.5Cr_sys_wm.
                        2135 _loc_Layer2Spea..D.3A.5CRenesas_Electronics.5CD1x_RGL.5Crgl_ghs_D1Lx_obj_V1.2E2.2E0.5Cvlib.5Capp.5Cgfx_apps.5Csimple_draw_d1l2.5Ctarget.5Cd1lx_mango_ghs.5Cobj.5Cr_sys_wm.:
                        2136 _loc_Layer2Spea:
0000044e 0670           2137 	mov	r6,r14
00000450 0708           2138 	mov	r7,r1
00000452 0868           2139 	mov	r8,r13
00000454 09f0           2140 	mov	r9,ep
                        2141 --	    .bf

                                                                      Page 37
                                                              C:\Users\YINGAO~1\AppData\Local\Temp\gh_000084c1.si
                        2142 .LDW86:
                        2143 --757:                                 uint32_t        Layer,
                        2144 --758:                                 r_spea_Unit_t  *SpeaUnit,
                        2145 --759:                                 uint8_t        *SpeaUnitOrdinal
                        2146 --760:                            )
                        2147 --761: {
                        2148 --762:     if (Unit == 0)
00000456 e071           2149 	cmp	zero,r14
00000458 da05*          2150 	bne	.L1042
                        2151 --763:     {
                        2152 --764:         *SpeaUnitOrdinal = Layer - 1;
                        2153 --line764
                        2154 ..lin.D.3A.5CRenesas_Electronics.5CD1x_RGL.5Crgl_ghs_D1Lx_obj_V1.2E2.2E0.5Cvlib.5Capp.5Cgfx_apps.5Csimple_draw_d1l2.5Ctarget.5Cd1lx_mango_ghs.5Cobj.5Cr_sys_wm.51::
                        2155 .LDWlin51:
0000045a 0166ffff       2156 	addi	-1,r1,r12
0000045e 8063           2157 	sst.b	r12,0[ep]
00000460 c505*          2158 	br	.L1044
                        2159 .L1042:
                        2160 --765:     }
                        2161 --766:     else
                        2162 --767:     {
                        2163 --768:         *SpeaUnitOrdinal = 3 - Layer;
                        2164 --line768
                        2165 ..lin.D.3A.5CRenesas_Electronics.5CD1x_RGL.5Crgl_ghs_D1Lx_obj_V1.2E2.2E0.5Cvlib.5Capp.5Cgfx_apps.5Csimple_draw_d1l2.5Ctarget.5Cd1lx_mango_ghs.5Cobj.5Cr_sys_wm.52::
                        2166 .LDWlin52:
00000462 0362           2167 	mov	3,r12
00000464 a161           2168 	sub	r1,r12
00000466 8063           2169 	sst.b	r12,0[ep]
                        2170 .L1044:
                        2171 --769:     }
                        2172 --770:     *SpeaUnit = (r_spea_Unit_t)(R_SPEA_SU0 + *SpeaUnitOrdinal);
00000468 6060           2173 	sld.bu	0[ep],r12
0000046a 4262           2174 	add	2,r12
0000046c 6d670100       2175 	st.w	r12,0[r13]
                        2176 --771: }
00000470 0000           2177 	nop
                        2178 --	    .ef
                        2179 .LDW96:
00000472 7f00           2180 	jmp	[lp]
                        2181 	.type	_loc_Layer2Spea,@function
                        2182 	.size	_loc_Layer2Spea,.-_loc_Layer2Spea
                        2183 	.type	_loc_Layer2Spea..D.3A.5CRenesas_Electronics.5CD1x_RGL.5Crgl_ghs_D1Lx_obj_V1.2E2.2E0.5Cvlib.5Capp.5Cgfx_apps.5Csimple_draw_d1l2.5Ctarget.5Cd1lx_mango_ghs.5Cobj.5Cr_sys_wm.,@function
                        2184 	.size	_loc_Layer2Spea..D.3A.5CRenesas_Electronics.5CD1x_RGL.5Crgl_ghs_D1Lx_obj_V1.2E2.2E0.5Cvlib.5Capp.5Cgfx_apps.5Csimple_draw_d1l2.5Ctarget.5Cd1lx_mango_ghs.5Cobj.5Cr_sys_wm.,.-_loc_Layer2Spea..D.3A.5CRenesas_Electronics.5CD1x_RGL.5Crgl_ghs_D1Lx_obj_V1.2E2.2E0.5Cvlib.5Capp.5Cgfx_apps.5Csimple_draw_d1l2.5Ctarget.5Cd1lx_mango_ghs.5Cobj.5Cr_sys_wm.
                        2185 	.align	2
                        2186 .LDW07:
                        2187 
                        2188 --_Unit	r14	param
                        2189 --_Layer	r1	param
                        2190 --_SpeaUnit	r13	param
                        2191 --_SpeaUnitOrdinal	ep	param
                        2192 
                        2193 	.section ".bss","awb"
                        2194 .L1072:
                        2195 	.type	.L1072,@object
                        2196 	.size	.L1072,0
                        2197 	.data
                        2198 	.text
                        2199 
                        2200 
                        2201 --773: static void loc_SpeaOrdinal2Layer ( uint32_t    Unit,
                        2202 	.align	2

                                                                      Page 38
                                                              C:\Users\YINGAO~1\AppData\Local\Temp\gh_000084c1.si
                        2203 	.align	2
                        2204 	.global	_loc_SpeaOrdinal2Layer..D.3A.5CRenesas_Electronics.5CD1x_RGL.5Crgl_ghs_D1Lx_obj_V1.2E2.2E0.5Cvlib.5Capp.5Cgfx_apps.5Csimple_draw_d1l2.5Ctarget.5Cd1lx_mango_ghs.5Cobj.5Cr_sys_wm.
                        2205 _loc_SpeaOrdinal2Layer..D.3A.5CRenesas_Electronics.5CD1x_RGL.5Crgl_ghs_D1Lx_obj_V1.2E2.2E0.5Cvlib.5Capp.5Cgfx_apps.5Csimple_draw_d1l2.5Ctarget.5Cd1lx_mango_ghs.5Cobj.5Cr_sys_wm.:
                        2206 _loc_SpeaOrdinal2Layer:
00000474 0670           2207 	mov	r6,r14
00000476 c70eff00       2208 	andi	255,r7,r1
0000047a 08f0           2209 	mov	r8,ep
                        2210 --	    .bf
                        2211 .LDW17:
                        2212 --774:                                     uint8_t     SpeaUnitOrdinal,
                        2213 --775:                                     uint32_t   *Layer
                        2214 --776:                                   )
                        2215 --777: {
                        2216 --778:     if (Unit == 0)
0000047c e071           2217 	cmp	zero,r14
0000047e da05*          2218 	bne	.L1098
                        2219 --779:     {
                        2220 --780:         *Layer = SpeaUnitOrdinal + 1;
                        2221 --line780
                        2222 ..lin.D.3A.5CRenesas_Electronics.5CD1x_RGL.5Crgl_ghs_D1Lx_obj_V1.2E2.2E0.5Cvlib.5Capp.5Cgfx_apps.5Csimple_draw_d1l2.5Ctarget.5Cd1lx_mango_ghs.5Cobj.5Cr_sys_wm.53::
                        2223 .LDWlin53:
00000480 016e0100       2224 	addi	1,r1,r13
00000484 016d           2225 	sst.w	r13,0[ep]
00000486 c505*          2226 	br	.L1100
                        2227 .L1098:
                        2228 --781:     }
                        2229 --782:     else
                        2230 --783:     {
                        2231 --784:         *Layer = 3 - SpeaUnitOrdinal;
                        2232 --line784
                        2233 ..lin.D.3A.5CRenesas_Electronics.5CD1x_RGL.5Crgl_ghs_D1Lx_obj_V1.2E2.2E0.5Cvlib.5Capp.5Cgfx_apps.5Csimple_draw_d1l2.5Ctarget.5Cd1lx_mango_ghs.5Cobj.5Cr_sys_wm.54::
                        2234 .LDWlin54:
00000488 036a           2235 	mov	3,r13
0000048a a169           2236 	sub	r1,r13
0000048c 016d           2237 	sst.w	r13,0[ep]
                        2238 .L1100:
                        2239 --785:     }
                        2240 --786: }
0000048e 0000           2241 	nop
                        2242 --	    .ef
                        2243 .LDW27:
00000490 7f00           2244 	jmp	[lp]
                        2245 	.type	_loc_SpeaOrdinal2Layer,@function
                        2246 	.size	_loc_SpeaOrdinal2Layer,.-_loc_SpeaOrdinal2Layer
                        2247 	.type	_loc_SpeaOrdinal2Layer..D.3A.5CRenesas_Electronics.5CD1x_RGL.5Crgl_ghs_D1Lx_obj_V1.2E2.2E0.5Cvlib.5Capp.5Cgfx_apps.5Csimple_draw_d1l2.5Ctarget.5Cd1lx_mango_ghs.5Cobj.5Cr_sys_wm.,@function
                        2248 	.size	_loc_SpeaOrdinal2Layer..D.3A.5CRenesas_Electronics.5CD1x_RGL.5Crgl_ghs_D1Lx_obj_V1.2E2.2E0.5Cvlib.5Capp.5Cgfx_apps.5Csimple_draw_d1l2.5Ctarget.5Cd1lx_mango_ghs.5Cobj.5Cr_sys_wm.,.-_loc_SpeaOrdinal2Layer..D.3A.5CRenesas_Electronics.5CD1x_RGL.5Crgl_ghs_D1Lx_obj_V1.2E2.2E0.5Cvlib.5Capp.5Cgfx_apps.5Csimple_draw_d1l2.5Ctarget.5Cd1lx_mango_ghs.5Cobj.5Cr_sys_wm.
                        2249 	.align	2
                        2250 .LDW37:
                        2251 
                        2252 --_Unit	r14	param
                        2253 --_SpeaUnitOrdinal	r1	param
                        2254 --_Layer	ep	param
                        2255 
                        2256 	.section ".bss","awb"
                        2257 .L1118:
                        2258 	.type	.L1118,@object
                        2259 	.size	.L1118,0
                        2260 	.data
                        2261 	.text
                        2262 
                        2263 

                                                                      Page 39
                                                              C:\Users\YINGAO~1\AppData\Local\Temp\gh_000084c1.si
                        2264 --788: static uint8_t loc_FindSpriteOrdinal   (   uint32_t            Unit,
                        2265 	.align	2
                        2266 	.align	2
                        2267 	.global	_loc_FindSpriteOrdinal..D.3A.5CRenesas_Electronics.5CD1x_RGL.5Crgl_ghs_D1Lx_obj_V1.2E2.2E0.5Cvlib.5Capp.5Cgfx_apps.5Csimple_draw_d1l2.5Ctarget.5Cd1lx_mango_ghs.5Cobj.5Cr_sys_wm.
                        2268 _loc_FindSpriteOrdinal..D.3A.5CRenesas_Electronics.5CD1x_RGL.5Crgl_ghs_D1Lx_obj_V1.2E2.2E0.5Cvlib.5Capp.5Cgfx_apps.5Csimple_draw_d1l2.5Ctarget.5Cd1lx_mango_ghs.5Cobj.5Cr_sys_wm.:
                        2269 _loc_FindSpriteOrdinal:
00000492 0668           2270 	mov	r6,r13
00000494 0770           2271 	mov	r7,r14
                        2272 --	    .bf
                        2273 .LDW47:
                        2274 --789:                                     const r_wm_Sprite_t *Sprite
                        2275 --790:                                 )
                        2276 --791: {
                        2277 --792:     const r_wm_Sprite_t* tmp_sprite = Sprite->Window->Surface.SpritesRoot;
00000496 2ef70100       2278 	ld.w	0[r14],ep
0000049a 12f5           2279 	sld.w	36[ep],ep
                        2280 --793:     uint8_t sprite_no = 0;
0000049c 000a           2281 	mov	0,r1
                        2282 --794:     while   (   (tmp_sprite != R_NULL)
0000049e 850d*          2283 	br	.L1141
                        2284 .L1143:
                        2285 --795:                 &&
                        2286 --796:                 (sprite_no < R_VDCE_MAX_SPRITES_PER_LAYER)
                        2287 --797:             )
                        2288 --798:     {
                        2289 --799:         if (tmp_sprite == Sprite)
                        2290 --line799
                        2291 ..lin.D.3A.5CRenesas_Electronics.5CD1x_RGL.5Crgl_ghs_D1Lx_obj_V1.2E2.2E0.5Cvlib.5Capp.5Cgfx_apps.5Csimple_draw_d1l2.5Ctarget.5Cd1lx_mango_ghs.5Cobj.5Cr_sys_wm.55::
                        2292 .LDWlin55:
000004a0 eef1           2293 	cmp	r14,ep
000004a2 aa05*          2294 	bne	.L1144
                        2295 --800:         {
                        2296 --801:             break;
                        2297 --line801
                        2298 ..lin.D.3A.5CRenesas_Electronics.5CD1x_RGL.5Crgl_ghs_D1Lx_obj_V1.2E2.2E0.5Cvlib.5Capp.5Cgfx_apps.5Csimple_draw_d1l2.5Ctarget.5Cd1lx_mango_ghs.5Cobj.5Cr_sys_wm.56::
                        2299 .LDWlin56:
000004a4 a50d*          2300 	br	.L1146
                        2301 .L1144:
                        2302 --802:         }
                        2303 --803:         ++sprite_no;
                        2304 --line803
                        2305 ..lin.D.3A.5CRenesas_Electronics.5CD1x_RGL.5Crgl_ghs_D1Lx_obj_V1.2E2.2E0.5Cvlib.5Capp.5Cgfx_apps.5Csimple_draw_d1l2.5Ctarget.5Cd1lx_mango_ghs.5Cobj.5Cr_sys_wm.57::
                        2306 .LDWlin57:
000004a6 410a           2307 	add	1,r1
000004a8 8100           2308 	zxb	r1
                        2309 --804:         tmp_sprite = tmp_sprite->Next;
000004aa 0265           2310 	sld.w	4[ep],r12
000004ac 0cf0           2311 	mov	r12,ep
                        2312 .L1141:
000004ae e0f1           2313 	cmp	zero,ep
000004b0 c205*          2314 	be	.L1146
000004b2 0106f0ff       2315 	addi	-16,r1,zero
000004b6 d9f5*          2316 	bnl	.L1143
                        2317 .L1146:
                        2318 --805:     }
                        2319 --806:     return sprite_no;
                        2320 --line806
                        2321 ..lin.D.3A.5CRenesas_Electronics.5CD1x_RGL.5Crgl_ghs_D1Lx_obj_V1.2E2.2E0.5Cvlib.5Capp.5Cgfx_apps.5Csimple_draw_d1l2.5Ctarget.5Cd1lx_mango_ghs.5Cobj.5Cr_sys_wm.58::
                        2322 .LDWlin58:
000004b8 0150           2323 	mov	r1,r10
                        2324 --	    .ef

                                                                      Page 40
                                                              C:\Users\YINGAO~1\AppData\Local\Temp\gh_000084c1.si
                        2325 .LDW57:
000004ba 7f00           2326 	jmp	[lp]
                        2327 	.type	_loc_FindSpriteOrdinal,@function
                        2328 	.size	_loc_FindSpriteOrdinal,.-_loc_FindSpriteOrdinal
                        2329 	.type	_loc_FindSpriteOrdinal..D.3A.5CRenesas_Electronics.5CD1x_RGL.5Crgl_ghs_D1Lx_obj_V1.2E2.2E0.5Cvlib.5Capp.5Cgfx_apps.5Csimple_draw_d1l2.5Ctarget.5Cd1lx_mango_ghs.5Cobj.5Cr_sys_wm.,@function
                        2330 	.size	_loc_FindSpriteOrdinal..D.3A.5CRenesas_Electronics.5CD1x_RGL.5Crgl_ghs_D1Lx_obj_V1.2E2.2E0.5Cvlib.5Capp.5Cgfx_apps.5Csimple_draw_d1l2.5Ctarget.5Cd1lx_mango_ghs.5Cobj.5Cr_sys_wm.,.-_loc_FindSpriteOrdinal..D.3A.5CRenesas_Electronics.5CD1x_RGL.5Crgl_ghs_D1Lx_obj_V1.2E2.2E0.5Cvlib.5Capp.5Cgfx_apps.5Csimple_draw_d1l2.5Ctarget.5Cd1lx_mango_ghs.5Cobj.5Cr_sys_wm.
                        2331 	.align	2
                        2332 .LDW67:
                        2333 --_tmp_sprite	ep	local
                        2334 --_sprite_no	r1	local
                        2335 
                        2336 --_Unit	r13	param
                        2337 --_Sprite	r14	param
                        2338 
                        2339 	.section ".bss","awb"
                        2340 .L1180:
                        2341 	.type	.L1180,@object
                        2342 	.size	.L1180,0
                        2343 	.data
                        2344 	.text
                        2345 
                        2346 --807: }
                        2347 
                        2348 --809: static uint32_t loc_ReassignAllSprites(uint32_t Unit, r_wm_Sprite_t* RootSprite, uint32_t Layer)
                        2349 	.align	2
                        2350 	.align	2
                        2351 	.global	_loc_ReassignAllSprites..D.3A.5CRenesas_Electronics.5CD1x_RGL.5Crgl_ghs_D1Lx_obj_V1.2E2.2E0.5Cvlib.5Capp.5Cgfx_apps.5Csimple_draw_d1l2.5Ctarget.5Cd1lx_mango_ghs.5Cobj.5Cr_sys_wm.
                        2352 _loc_ReassignAllSprites..D.3A.5CRenesas_Electronics.5CD1x_RGL.5Crgl_ghs_D1Lx_obj_V1.2E2.2E0.5Cvlib.5Capp.5Cgfx_apps.5Csimple_draw_d1l2.5Ctarget.5Cd1lx_mango_ghs.5Cobj.5Cr_sys_wm.:
                        2353 _loc_ReassignAllSprites:
000004bc 8e07e170       2354 	prepare	{r25,r26,r27,r28,r29,r31},7
000004c0 06d8           2355 	mov	r6,r27
000004c2 07d0           2356 	mov	r7,r26
000004c4 08c8           2357 	mov	r8,r25
                        2358 --	    .bf
                        2359 .LDW77:
                        2360 --810: {
                        2361 --811:     /* reassign all the sprites  */
                        2362 --812:     r_spea_SpriteConfig_t sprite_conf;
                        2363 --813:     uint32_t sprite_no = 0;
000004c6 00ea           2364 	mov	0,r29
                        2365 --814:     r_wm_Sprite_t* sprite = RootSprite;
000004c8 1ae0           2366 	mov	r26,r28
                        2367 --815:     
                        2368 --816:     r_spea_Unit_t spea_unit;
                        2369 --817:     uint8_t spea_unit_ordinal = 0;
000004ca 43070700       2370 	st.b	zero,7[sp]
                        2371 --818:     
                        2372 --819:     loc_Layer2Spea(Unit, Layer, &spea_unit, &spea_unit_ordinal);
000004ce 1b30           2373 	mov	r27,r6
000004d0 1938           2374 	mov	r25,r7
000004d2 23460800       2375 	movea	8,sp,r8
000004d6 234e0700       2376 	movea	7,sp,r9
                        2377 	jarl	_loc_Layer2Spea,lp
                        2377 <EXPANSION BEGIN>
                        2377 jarl22 _loc_Layer2Spea , lp 
000004da bfff74ff*      2377 <EXPANSION END>
                        2378 --820:     
                        2379 --821:     while   (   (sprite != R_NULL)
                        2380 --line821
                        2381 ..lin.D.3A.5CRenesas_Electronics.5CD1x_RGL.5Crgl_ghs_D1Lx_obj_V1.2E2.2E0.5Cvlib.5Capp.5Cgfx_apps.5Csimple_draw_d1l2.5Ctarget.5Cd1lx_mango_ghs.5Cobj.5Cr_sys_wm.59::
                        2382 .LDWlin59:

                                                                      Page 41
                                                              C:\Users\YINGAO~1\AppData\Local\Temp\gh_000084c1.si
000004de 953d*          2383 	br	.L1224
                        2384 .L1226:
                        2385 --822:                 &&
                        2386 --823:                 (sprite_no < R_VDCE_MAX_SPRITES_PER_LAYER)
                        2387 --824:             )
                        2388 --825:             
                        2389 --826:     {
                        2390 --827:         sprite_conf.PosX = sprite->PosX;
                        2391 --line827
                        2392 ..lin.D.3A.5CRenesas_Electronics.5CD1x_RGL.5Crgl_ghs_D1Lx_obj_V1.2E2.2E0.5Cvlib.5Capp.5Cgfx_apps.5Csimple_draw_d1l2.5Ctarget.5Cd1lx_mango_ghs.5Cobj.5Cr_sys_wm.60::
                        2393 .LDWlin60:
000004e0 3c0f1100       2394 	ld.w	16[r28],r1
000004e4 630f1800       2395 	st.h	r1,24[sp]
                        2396 --828:         sprite_conf.PosY = sprite->PosY;
000004e8 3c0f1500       2397 	ld.w	20[r28],r1
000004ec 630f1a00       2398 	st.h	r1,26[sp]
                        2399 --829:         sprite_conf.Width = sprite->Width;
000004f0 3c0f1d00       2400 	ld.w	28[r28],r1
000004f4 630f1600       2401 	st.h	r1,22[sp]
                        2402 --830:         sprite_conf.Height = sprite->Height;
000004f8 3c0f2100       2403 	ld.w	32[r28],r1
000004fc 630f1400       2404 	st.h	r1,20[sp]
                        2405 --831:         sprite_conf.SrcAddr = (uint32_t)sprite->Data; 
00000500 3c0f0d00       2406 	ld.w	12[r28],r1
00000504 630f1100       2407 	st.w	r1,16[sp]
                        2408 --832:         sprite_conf.VSync = Unit;
00000508 43df0d00       2409 	st.b	r27,13[sp]
                        2410 --833:         if (sprite->Status == R_WM_SPRITESTATUS_ENABLED)
0000050c 3c0f0900       2411 	ld.w	8[r28],r1
00000510 620a           2412 	cmp	2,r1
00000512 da05*          2413 	bne	.L1227
                        2414 --834:         {
                        2415 --835:             sprite_conf.Enable = 1;
                        2416 --line835
                        2417 ..lin.D.3A.5CRenesas_Electronics.5CD1x_RGL.5Crgl_ghs_D1Lx_obj_V1.2E2.2E0.5Cvlib.5Capp.5Cgfx_apps.5Csimple_draw_d1l2.5Ctarget.5Cd1lx_mango_ghs.5Cobj.5Cr_sys_wm.61::
                        2418 .LDWlin61:
00000514 010a           2419 	mov	1,r1
00000516 430f0c00       2420 	st.b	r1,12[sp]
0000051a b505*          2421 	br	.L1229
                        2422 .L1227:
                        2423 --836:         }
                        2424 --837:         else
                        2425 --838:         {
                        2426 --839:             sprite_conf.Enable = 0;
                        2427 --line839
                        2428 ..lin.D.3A.5CRenesas_Electronics.5CD1x_RGL.5Crgl_ghs_D1Lx_obj_V1.2E2.2E0.5Cvlib.5Capp.5Cgfx_apps.5Csimple_draw_d1l2.5Ctarget.5Cd1lx_mango_ghs.5Cobj.5Cr_sys_wm.62::
                        2429 .LDWlin62:
0000051c 43070c00       2430 	st.b	zero,12[sp]
                        2431 .L1229:
                        2432 --840:         }
                        2433 --841:         if (R_SPEA_ERR_OK != R_SPEA_SetSprite(0, spea_unit_ordinal, sprite_no, &sprite_conf, R_WM_ColorFmtBitsPerPixGet(sprite->Window->ColorFmt)))
00000520 3cf70100       2434 	ld.w	0[r28],ep
00000524 0435           2435 	sld.w	8[ep],r6
                        2436 	jarl	_R_WM_ColorFmtBitsPerPixGet,lp
                        2436 <EXPANSION BEGIN>
                        2436 jarl22 _R_WM_ColorFmtBitsPerPixGet , lp 
00000526 80ff0000*      2436 <EXPANSION END>
0000052a a33f0700       2437 	ld.bu	7[sp],r7
0000052e 1d40           2438 	mov	r29,r8
00000530 63570100       2439 	st.w	r10,0[sp]
00000534 8800           2440 	zxb	r8

                                                                      Page 42
                                                              C:\Users\YINGAO~1\AppData\Local\Temp\gh_000084c1.si
00000536 0032           2441 	mov	0,r6
00000538 234e0c00       2442 	movea	12,sp,r9
                        2443 	jarl	_R_SPEA_SetSprite,lp
                        2443 <EXPANSION BEGIN>
                        2443 jarl22 _R_SPEA_SetSprite , lp 
0000053c 80ff0000*      2443 <EXPANSION END>
00000540 e051           2444 	cmp	zero,r10
00000542 b205*          2445 	be	.L1230
                        2446 --842:         {
                        2447 --843:             return 0;
                        2448 --line843
                        2449 ..lin.D.3A.5CRenesas_Electronics.5CD1x_RGL.5Crgl_ghs_D1Lx_obj_V1.2E2.2E0.5Cvlib.5Capp.5Cgfx_apps.5Csimple_draw_d1l2.5Ctarget.5Cd1lx_mango_ghs.5Cobj.5Cr_sys_wm.63::
                        2450 .LDWlin63:
00000544 0052           2451 	mov	0,r10
00000546 d52d*          2452 	br	.L1222
                        2453 .L1230:
                        2454 --844:         }
                        2455 --845:         ++sprite_no;
                        2456 --line845
                        2457 ..lin.D.3A.5CRenesas_Electronics.5CD1x_RGL.5Crgl_ghs_D1Lx_obj_V1.2E2.2E0.5Cvlib.5Capp.5Cgfx_apps.5Csimple_draw_d1l2.5Ctarget.5Cd1lx_mango_ghs.5Cobj.5Cr_sys_wm.64::
                        2458 .LDWlin64:
00000548 41ea           2459 	add	1,r29
                        2460 --846:         sprite = sprite->Next;
0000054a 3c0f0500       2461 	ld.w	4[r28],r1
0000054e 01e0           2462 	mov	r1,r28
                        2463 .L1224:
00000550 e0e1           2464 	cmp	zero,r28
00000552 c205*          2465 	be	.L1225
00000554 1d06f0ff       2466 	addi	-16,r29,zero
00000558 c9c5*          2467 	bnl	.L1226
                        2468 .L1225:
                        2469 --847:     }
                        2470 --848:     
                        2471 --849:     for (; sprite_no != R_VDCE_MAX_SPRITES_PER_LAYER; ++sprite_no)
                        2472 --line849
                        2473 ..lin.D.3A.5CRenesas_Electronics.5CD1x_RGL.5Crgl_ghs_D1Lx_obj_V1.2E2.2E0.5Cvlib.5Capp.5Cgfx_apps.5Csimple_draw_d1l2.5Ctarget.5Cd1lx_mango_ghs.5Cobj.5Cr_sys_wm.65::
                        2474 .LDWlin65:
0000055a e50d*          2475 	br	.L1237
                        2476 .L1236:
                        2477 --850:     {
                        2478 --851:         if (R_SPEA_ERR_OK != R_SPEA_SpriteEnable(0, spea_unit_ordinal, sprite_no, 0))
                        2479 --line851
                        2480 ..lin.D.3A.5CRenesas_Electronics.5CD1x_RGL.5Crgl_ghs_D1Lx_obj_V1.2E2.2E0.5Cvlib.5Capp.5Cgfx_apps.5Csimple_draw_d1l2.5Ctarget.5Cd1lx_mango_ghs.5Cobj.5Cr_sys_wm.66::
                        2481 .LDWlin66:
0000055c a33f0700       2482 	ld.bu	7[sp],r7
00000560 1d40           2483 	mov	r29,r8
00000562 8800           2484 	zxb	r8
00000564 0032           2485 	mov	0,r6
00000566 004a           2486 	mov	0,r9
                        2487 	jarl	_R_SPEA_SpriteEnable,lp
                        2487 <EXPANSION BEGIN>
                        2487 jarl22 _R_SPEA_SpriteEnable , lp 
00000568 80ff0000*      2487 <EXPANSION END>
0000056c e051           2488 	cmp	zero,r10
0000056e b205*          2489 	be	.L1235
                        2490 --852:         {
                        2491 --853:             return 0;
                        2492 --line853
                        2493 ..lin.D.3A.5CRenesas_Electronics.5CD1x_RGL.5Crgl_ghs_D1Lx_obj_V1.2E2.2E0.5Cvlib.5Capp.5Cgfx_apps.5Csimple_draw_d1l2.5Ctarget.5Cd1lx_mango_ghs.5Cobj.5Cr_sys_wm.67::
                        2494 .LDWlin67:
00000570 0052           2495 	mov	0,r10

                                                                      Page 43
                                                              C:\Users\YINGAO~1\AppData\Local\Temp\gh_000084c1.si
00000572 f515*          2496 	br	.L1222
                        2497 .L1235:
                        2498 --line849
                        2499 ..lin.D.3A.5CRenesas_Electronics.5CD1x_RGL.5Crgl_ghs_D1Lx_obj_V1.2E2.2E0.5Cvlib.5Capp.5Cgfx_apps.5Csimple_draw_d1l2.5Ctarget.5Cd1lx_mango_ghs.5Cobj.5Cr_sys_wm.68::
                        2500 .LDWlin68:
00000574 41ea           2501 	add	1,r29
                        2502 .L1237:
00000576 1d06f0ff       2503 	addi	-16,r29,zero
0000057a 9af5*          2504 	bne	.L1236
                        2505 --854:         }
                        2506 --855:     }
                        2507 --856:     /* Set respective R_WM_SYS_FRAME_STATUS_SPEA_SUn_UPDATE_BIT */
                        2508 --857:     r_wm_DevSys[Unit].FrameStatusFlags |= (1uL << (R_WM_SYS_FRAME_STATUS_SPEA_SU0_UPDATE_BIT+spea_unit_ordinal));
                        2509 --line857
                        2510 ..lin.D.3A.5CRenesas_Electronics.5CD1x_RGL.5Crgl_ghs_D1Lx_obj_V1.2E2.2E0.5Cvlib.5Capp.5Cgfx_apps.5Csimple_draw_d1l2.5Ctarget.5Cd1lx_mango_ghs.5Cobj.5Cr_sys_wm.69::
                        2511 .LDWlin69:
0000057c a30f0700       2512 	ld.bu	7[sp],r1
00000580 1bf0           2513 	mov	r27,ep
00000582 fe00           2514 	sxh	ep
00000584 0172           2515 	mov	1,r14
00000586 fef66000       2516 	mulhi	96,ep,ep
0000058a 2d0600000000*  2517 	mov	_r_wm_DevSys,r13
00000590 410a           2518 	add	1,r1
00000592 e177c270       2519 	shl	r1,r14,r14
00000596 cdf1           2520 	add	r13,ep
00000598 2a0d           2521 	sld.w	84[ep],r1
0000059a 0e09           2522 	or	r14,r1
0000059c 2b0d           2523 	sst.w	r1,84[ep]
                        2524 --858:     
                        2525 --859:     return 1;
0000059e 0152           2526 	mov	1,r10
                        2527 .L1222:
                        2528 --	    .ef
                        2529 .LDW87:
000005a0 4e06ff70       2530 	dispose	7,{r25,r26,r27,r28,r29,r31},[lp]
                        2531 	.type	_loc_ReassignAllSprites,@function
                        2532 	.size	_loc_ReassignAllSprites,.-_loc_ReassignAllSprites
                        2533 	.type	_loc_ReassignAllSprites..D.3A.5CRenesas_Electronics.5CD1x_RGL.5Crgl_ghs_D1Lx_obj_V1.2E2.2E0.5Cvlib.5Capp.5Cgfx_apps.5Csimple_draw_d1l2.5Ctarget.5Cd1lx_mango_ghs.5Cobj.5Cr_sys_wm.,@function
                        2534 	.size	_loc_ReassignAllSprites..D.3A.5CRenesas_Electronics.5CD1x_RGL.5Crgl_ghs_D1Lx_obj_V1.2E2.2E0.5Cvlib.5Capp.5Cgfx_apps.5Csimple_draw_d1l2.5Ctarget.5Cd1lx_mango_ghs.5Cobj.5Cr_sys_wm.,.-_loc_ReassignAllSprites..D.3A.5CRenesas_Electronics.5CD1x_RGL.5Crgl_ghs_D1Lx_obj_V1.2E2.2E0.5Cvlib.5Capp.5Cgfx_apps.5Csimple_draw_d1l2.5Ctarget.5Cd1lx_mango_ghs.5Cobj.5Cr_sys_wm.
                        2535 	.align	2
                        2536 .LDW97:
                        2537 --_sprite_conf	12[sp]	local
                        2538 --_sprite_no	r29	local
                        2539 --_sprite	r28	local
                        2540 --_spea_unit	8[sp]	local
                        2541 --_spea_unit_ordinal	7[sp]	local
                        2542 
                        2543 --_Unit	r27	param
                        2544 --_RootSprite	r26	param
                        2545 --_Layer	r25	param
                        2546 
                        2547 	.section ".bss","awb"
                        2548 .L1310:
                        2549 	.type	.L1310,@object
                        2550 	.size	.L1310,0
                        2551 	.data
                        2552 	.text
                        2553 
                        2554 --860: }
                        2555 
                        2556 --862: static uint32_t loc_WinGetCount(uint32_t Unit)

                                                                      Page 44
                                                              C:\Users\YINGAO~1\AppData\Local\Temp\gh_000084c1.si
                        2557 	.align	2
                        2558 	.align	2
                        2559 	.global	_loc_WinGetCount..D.3A.5CRenesas_Electronics.5CD1x_RGL.5Crgl_ghs_D1Lx_obj_V1.2E2.2E0.5Cvlib.5Capp.5Cgfx_apps.5Csimple_draw_d1l2.5Ctarget.5Cd1lx_mango_ghs.5Cobj.5Cr_sys_wm.
                        2560 _loc_WinGetCount..D.3A.5CRenesas_Electronics.5CD1x_RGL.5Crgl_ghs_D1Lx_obj_V1.2E2.2E0.5Cvlib.5Capp.5Cgfx_apps.5Csimple_draw_d1l2.5Ctarget.5Cd1lx_mango_ghs.5Cobj.5Cr_sys_wm.:
                        2561 _loc_WinGetCount:
000005a4 0670           2562 	mov	r6,r14
                        2563 --	    .bf
                        2564 .LDW08:
                        2565 --863: {
                        2566 --864:     uint32_t n = 0;
000005a6 000a           2567 	mov	0,r1
                        2568 --865:     r_wm_Window_t* cur_win = r_wm_DevSys[Unit].RootWin;
000005a8 0e68           2569 	mov	r14,r13
000005aa ed00           2570 	sxh	r13
000005ac ed6e6000       2571 	mulhi	96,r13,r13
000005b0 2c0600000000*  2572 	mov	_r_wm_DevSys,r12
000005b6 cc69           2573 	add	r12,r13
000005b8 2df74500       2574 	ld.w	68[r13],ep
                        2575 --867:     while (cur_win != R_NULL)
000005bc c505*          2576 	br	.L1405
                        2577 .L1407:
                        2578 --868:     {
                        2579 --869:         cur_win = cur_win->Next;
                        2580 --line869
                        2581 ..lin.D.3A.5CRenesas_Electronics.5CD1x_RGL.5Crgl_ghs_D1Lx_obj_V1.2E2.2E0.5Cvlib.5Capp.5Cgfx_apps.5Csimple_draw_d1l2.5Ctarget.5Cd1lx_mango_ghs.5Cobj.5Cr_sys_wm.70::
                        2582 .LDWlin70:
000005be 246d           2583 	sld.w	72[ep],r13
000005c0 0df0           2584 	mov	r13,ep
                        2585 --870:         ++n;
000005c2 410a           2586 	add	1,r1
                        2587 .L1405:
000005c4 e0f1           2588 	cmp	zero,ep
000005c6 cafd*          2589 	bne	.L1407
                        2590 --871:     }
                        2591 --872:     return n;
                        2592 --line872
                        2593 ..lin.D.3A.5CRenesas_Electronics.5CD1x_RGL.5Crgl_ghs_D1Lx_obj_V1.2E2.2E0.5Cvlib.5Capp.5Cgfx_apps.5Csimple_draw_d1l2.5Ctarget.5Cd1lx_mango_ghs.5Cobj.5Cr_sys_wm.71::
                        2594 .LDWlin71:
000005c8 0150           2595 	mov	r1,r10
                        2596 --	    .ef
                        2597 .LDW18:
000005ca 7f00           2598 	jmp	[lp]
                        2599 	.type	_loc_WinGetCount,@function
                        2600 	.size	_loc_WinGetCount,.-_loc_WinGetCount
                        2601 	.type	_loc_WinGetCount..D.3A.5CRenesas_Electronics.5CD1x_RGL.5Crgl_ghs_D1Lx_obj_V1.2E2.2E0.5Cvlib.5Capp.5Cgfx_apps.5Csimple_draw_d1l2.5Ctarget.5Cd1lx_mango_ghs.5Cobj.5Cr_sys_wm.,@function
                        2602 	.size	_loc_WinGetCount..D.3A.5CRenesas_Electronics.5CD1x_RGL.5Crgl_ghs_D1Lx_obj_V1.2E2.2E0.5Cvlib.5Capp.5Cgfx_apps.5Csimple_draw_d1l2.5Ctarget.5Cd1lx_mango_ghs.5Cobj.5Cr_sys_wm.,.-_loc_WinGetCount..D.3A.5CRenesas_Electronics.5CD1x_RGL.5Crgl_ghs_D1Lx_obj_V1.2E2.2E0.5Cvlib.5Capp.5Cgfx_apps.5Csimple_draw_d1l2.5Ctarget.5Cd1lx_mango_ghs.5Cobj.5Cr_sys_wm.
                        2603 	.align	2
                        2604 .LDW28:
                        2605 --_n	r1	local
                        2606 --_cur_win	ep	local
                        2607 
                        2608 --_Unit	r14	param
                        2609 
                        2610 	.section ".bss","awb"
                        2611 .L1430:
                        2612 	.type	.L1430,@object
                        2613 	.size	.L1430,0
                        2614 	.data
                        2615 	.text
                        2616 
                        2617 --873: }

                                                                      Page 45
                                                              C:\Users\YINGAO~1\AppData\Local\Temp\gh_000084c1.si
                        2618 
                        2619 --875: static r_wm_sys_vdce_WinLayerPair_t* loc_WinLayerPairGet(uint32_t Unit, const r_wm_Window_t* Win)
                        2620 	.align	2
                        2621 	.align	2
                        2622 	.global	_loc_WinLayerPairGet..D.3A.5CRenesas_Electronics.5CD1x_RGL.5Crgl_ghs_D1Lx_obj_V1.2E2.2E0.5Cvlib.5Capp.5Cgfx_apps.5Csimple_draw_d1l2.5Ctarget.5Cd1lx_mango_ghs.5Cobj.5Cr_sys_wm.
                        2623 _loc_WinLayerPairGet..D.3A.5CRenesas_Electronics.5CD1x_RGL.5Crgl_ghs_D1Lx_obj_V1.2E2.2E0.5Cvlib.5Capp.5Cgfx_apps.5Csimple_draw_d1l2.5Ctarget.5Cd1lx_mango_ghs.5Cobj.5Cr_sys_wm.:
                        2624 _loc_WinLayerPairGet:
000005cc 0670           2625 	mov	r6,r14
000005ce 0760           2626 	mov	r7,r12
000005d0 2d0600000000*  2627 	mov	_r_wm_DevSys,r13
                        2628 --	    .bf
                        2629 .LDW38:
                        2630 --876: {
                        2631 --877:     uint32_t i;
                        2632 --878:     for (i = 0; i < R_VDCE_MAX_LAYERS; ++i)
000005d6 000a           2633 	mov	0,r1
000005d8 0000           2634 	nop
                        2635 .L1467:
                        2636 --879:     {
                        2637 --880:         if (r_wm_DevSys[Unit].WinToLayerMap[i].Win == Win)
000005da 0e58           2638 	mov	r14,r11
000005dc eb00           2639 	sxh	r11
000005de eb5e6000       2640 	mulhi	96,r11,r11
000005e2 01f0           2641 	mov	r1,ep
000005e4 c3f2           2642 	shl	3,ep
000005e6 cd59           2643 	add	r13,r11
000005e8 0b5e1400       2644 	addi	20,r11,r11
000005ec cbf1           2645 	add	r11,ep
000005ee 005d           2646 	sld.w	0[ep],r11
000005f0 ec59           2647 	cmp	r12,r11
000005f2 ca0d*          2648 	bne	.L1468
                        2649 --881:         {
                        2650 --882:             return &r_wm_DevSys[Unit].WinToLayerMap[i];
                        2651 --line882
                        2652 ..lin.D.3A.5CRenesas_Electronics.5CD1x_RGL.5Crgl_ghs_D1Lx_obj_V1.2E2.2E0.5Cvlib.5Capp.5Cgfx_apps.5Csimple_draw_d1l2.5Ctarget.5Cd1lx_mango_ghs.5Cobj.5Cr_sys_wm.72::
                        2653 .LDWlin72:
000005f4 0e58           2654 	mov	r14,r11
000005f6 eb00           2655 	sxh	r11
000005f8 eb5e6000       2656 	mulhi	96,r11,r11
000005fc 0150           2657 	mov	r1,r10
000005fe c352           2658 	shl	3,r10
00000600 cd59           2659 	add	r13,r11
00000602 0b5e1400       2660 	addi	20,r11,r11
00000606 cb51           2661 	add	r11,r10
00000608 d505*          2662 	br	.L1463
                        2663 .L1468:
                        2664 --line878
                        2665 ..lin.D.3A.5CRenesas_Electronics.5CD1x_RGL.5Crgl_ghs_D1Lx_obj_V1.2E2.2E0.5Cvlib.5Capp.5Cgfx_apps.5Csimple_draw_d1l2.5Ctarget.5Cd1lx_mango_ghs.5Cobj.5Cr_sys_wm.73::
                        2666 .LDWlin73:
0000060a 410a           2667 	add	1,r1
0000060c 640a           2668 	cmp	4,r1
0000060e e1e5*          2669 	bl	.L1467
                        2670 --883:         }
                        2671 --884:     }
                        2672 --885:     return R_NULL;
                        2673 --line885
                        2674 ..lin.D.3A.5CRenesas_Electronics.5CD1x_RGL.5Crgl_ghs_D1Lx_obj_V1.2E2.2E0.5Cvlib.5Capp.5Cgfx_apps.5Csimple_draw_d1l2.5Ctarget.5Cd1lx_mango_ghs.5Cobj.5Cr_sys_wm.74::
                        2675 .LDWlin74:
00000610 0052           2676 	mov	0,r10
                        2677 .L1463:
                        2678 --	    .ef

                                                                      Page 46
                                                              C:\Users\YINGAO~1\AppData\Local\Temp\gh_000084c1.si
                        2679 .LDW48:
00000612 7f00           2680 	jmp	[lp]
                        2681 	.type	_loc_WinLayerPairGet,@function
                        2682 	.size	_loc_WinLayerPairGet,.-_loc_WinLayerPairGet
                        2683 	.type	_loc_WinLayerPairGet..D.3A.5CRenesas_Electronics.5CD1x_RGL.5Crgl_ghs_D1Lx_obj_V1.2E2.2E0.5Cvlib.5Capp.5Cgfx_apps.5Csimple_draw_d1l2.5Ctarget.5Cd1lx_mango_ghs.5Cobj.5Cr_sys_wm.,@function
                        2684 	.size	_loc_WinLayerPairGet..D.3A.5CRenesas_Electronics.5CD1x_RGL.5Crgl_ghs_D1Lx_obj_V1.2E2.2E0.5Cvlib.5Capp.5Cgfx_apps.5Csimple_draw_d1l2.5Ctarget.5Cd1lx_mango_ghs.5Cobj.5Cr_sys_wm.,.-_loc_WinLayerPairGet..D.3A.5CRenesas_Electronics.5CD1x_RGL.5Crgl_ghs_D1Lx_obj_V1.2E2.2E0.5Cvlib.5Capp.5Cgfx_apps.5Csimple_draw_d1l2.5Ctarget.5Cd1lx_mango_ghs.5Cobj.5Cr_sys_wm.
                        2685 	.align	2
                        2686 .LDW58:
                        2687 --_i	r1	local
                        2688 
                        2689 --_Unit	r14	param
                        2690 --_Win	r12	param
                        2691 
                        2692 	.section ".bss","awb"
                        2693 .L1492:
                        2694 	.type	.L1492,@object
                        2695 	.size	.L1492,0
                        2696 	.data
                        2697 	.text
                        2698 
                        2699 --886: }
                        2700 
                        2701 --888: static r_wm_sys_vdce_WinLayerPair_t* loc_WinLayerPairGetByLayer(uint32_t Unit, const uint32_t Layer)
                        2702 	.align	2
                        2703 	.align	2
                        2704 	.global	_loc_WinLayerPairGetByLayer..D.3A.5CRenesas_Electronics.5CD1x_RGL.5Crgl_ghs_D1Lx_obj_V1.2E2.2E0.5Cvlib.5Capp.5Cgfx_apps.5Csimple_draw_d1l2.5Ctarget.5Cd1lx_mango_ghs.5Cobj.5Cr_sys_wm.
                        2705 _loc_WinLayerPairGetByLayer..D.3A.5CRenesas_Electronics.5CD1x_RGL.5Crgl_ghs_D1Lx_obj_V1.2E2.2E0.5Cvlib.5Capp.5Cgfx_apps.5Csimple_draw_d1l2.5Ctarget.5Cd1lx_mango_ghs.5Cobj.5Cr_sys_wm.:
                        2706 _loc_WinLayerPairGetByLayer:
00000614 0670           2707 	mov	r6,r14
00000616 0760           2708 	mov	r7,r12
00000618 2d0600000000*  2709 	mov	_r_wm_DevSys,r13
                        2710 --	    .bf
                        2711 .LDW68:
                        2712 --889: {
                        2713 --890:     uint32_t i;
                        2714 --891:     for (i = 0; i < R_VDCE_MAX_LAYERS; ++i)
0000061e 000a           2715 	mov	0,r1
00000620 0000           2716 	nop
                        2717 .L1526:
                        2718 --892:     {
                        2719 --893:         if (r_wm_DevSys[Unit].WinToLayerMap[i].Layer == Layer)
00000622 0e58           2720 	mov	r14,r11
00000624 eb00           2721 	sxh	r11
00000626 eb5e6000       2722 	mulhi	96,r11,r11
0000062a 01f0           2723 	mov	r1,ep
0000062c c3f2           2724 	shl	3,ep
0000062e cd59           2725 	add	r13,r11
00000630 0b5e1400       2726 	addi	20,r11,r11
00000634 cbf1           2727 	add	r11,ep
00000636 025d           2728 	sld.w	4[ep],r11
00000638 ec59           2729 	cmp	r12,r11
0000063a ca0d*          2730 	bne	.L1527
                        2731 --894:         {
                        2732 --895:             return &r_wm_DevSys[Unit].WinToLayerMap[i];
                        2733 --line895
                        2734 ..lin.D.3A.5CRenesas_Electronics.5CD1x_RGL.5Crgl_ghs_D1Lx_obj_V1.2E2.2E0.5Cvlib.5Capp.5Cgfx_apps.5Csimple_draw_d1l2.5Ctarget.5Cd1lx_mango_ghs.5Cobj.5Cr_sys_wm.75::
                        2735 .LDWlin75:
0000063c 0e58           2736 	mov	r14,r11
0000063e eb00           2737 	sxh	r11
00000640 eb5e6000       2738 	mulhi	96,r11,r11
00000644 0150           2739 	mov	r1,r10

                                                                      Page 47
                                                              C:\Users\YINGAO~1\AppData\Local\Temp\gh_000084c1.si
00000646 c352           2740 	shl	3,r10
00000648 cd59           2741 	add	r13,r11
0000064a 0b5e1400       2742 	addi	20,r11,r11
0000064e cb51           2743 	add	r11,r10
00000650 d505*          2744 	br	.L1522
                        2745 .L1527:
                        2746 --line891
                        2747 ..lin.D.3A.5CRenesas_Electronics.5CD1x_RGL.5Crgl_ghs_D1Lx_obj_V1.2E2.2E0.5Cvlib.5Capp.5Cgfx_apps.5Csimple_draw_d1l2.5Ctarget.5Cd1lx_mango_ghs.5Cobj.5Cr_sys_wm.76::
                        2748 .LDWlin76:
00000652 410a           2749 	add	1,r1
00000654 640a           2750 	cmp	4,r1
00000656 e1e5*          2751 	bl	.L1526
                        2752 --896:         }
                        2753 --897:     }
                        2754 --898:     return R_NULL;
                        2755 --line898
                        2756 ..lin.D.3A.5CRenesas_Electronics.5CD1x_RGL.5Crgl_ghs_D1Lx_obj_V1.2E2.2E0.5Cvlib.5Capp.5Cgfx_apps.5Csimple_draw_d1l2.5Ctarget.5Cd1lx_mango_ghs.5Cobj.5Cr_sys_wm.77::
                        2757 .LDWlin77:
00000658 0052           2758 	mov	0,r10
                        2759 .L1522:
                        2760 --	    .ef
                        2761 .LDW78:
0000065a 7f00           2762 	jmp	[lp]
                        2763 	.type	_loc_WinLayerPairGetByLayer,@function
                        2764 	.size	_loc_WinLayerPairGetByLayer,.-_loc_WinLayerPairGetByLayer
                        2765 	.type	_loc_WinLayerPairGetByLayer..D.3A.5CRenesas_Electronics.5CD1x_RGL.5Crgl_ghs_D1Lx_obj_V1.2E2.2E0.5Cvlib.5Capp.5Cgfx_apps.5Csimple_draw_d1l2.5Ctarget.5Cd1lx_mango_ghs.5Cobj.5Cr_sys_wm.,@function
                        2766 	.size	_loc_WinLayerPairGetByLayer..D.3A.5CRenesas_Electronics.5CD1x_RGL.5Crgl_ghs_D1Lx_obj_V1.2E2.2E0.5Cvlib.5Capp.5Cgfx_apps.5Csimple_draw_d1l2.5Ctarget.5Cd1lx_mango_ghs.5Cobj.5Cr_sys_wm.,.-_loc_WinLayerPairGetByLayer..D.3A.5CRenesas_Electronics.5CD1x_RGL.5Crgl_ghs_D1Lx_obj_V1.2E2.2E0.5Cvlib.5Capp.5Cgfx_apps.5Csimple_draw_d1l2.5Ctarget.5Cd1lx_mango_ghs.5Cobj.5Cr_sys_wm.
                        2767 	.align	2
                        2768 .LDW88:
                        2769 --_i	r1	local
                        2770 
                        2771 --_Unit	r14	param
                        2772 --_Layer	r12	param
                        2773 
                        2774 	.section ".bss","awb"
                        2775 .L1556:
                        2776 	.type	.L1556,@object
                        2777 	.size	.L1556,0
                        2778 	.data
                        2779 	.text
                        2780 
                        2781 --899: }
                        2782 
                        2783 --901: static uint32_t loc_SetRle(uint32_t Unit, r_wm_WinColorFmt_t Fmt, uint32_t Buf)
                        2784 	.align	2
                        2785 	.align	2
                        2786 	.global	_loc_SetRle..D.3A.5CRenesas_Electronics.5CD1x_RGL.5Crgl_ghs_D1Lx_obj_V1.2E2.2E0.5Cvlib.5Capp.5Cgfx_apps.5Csimple_draw_d1l2.5Ctarget.5Cd1lx_mango_ghs.5Cobj.5Cr_sys_wm.
                        2787 _loc_SetRle..D.3A.5CRenesas_Electronics.5CD1x_RGL.5Crgl_ghs_D1Lx_obj_V1.2E2.2E0.5Cvlib.5Capp.5Cgfx_apps.5Csimple_draw_d1l2.5Ctarget.5Cd1lx_mango_ghs.5Cobj.5Cr_sys_wm.:
                        2788 _loc_SetRle:
0000065c 8a07e170       2789 	prepare	{r25,r26,r27,r28,r29,r31},5
00000660 06e8           2790 	mov	r6,r29
00000662 07c8           2791 	mov	r7,r25
00000664 63470100       2792 	st.w	r8,0[sp]
00000668 40d60030       2793 	movhi	hi(805306368),zero,r26
0000066c 3b0600000000*  2794 	mov	_r_wm_DevSys,r27
                        2795 --	    .bf
                        2796 .LDW98:
                        2797 --902: {
                        2798 --903:     r_spea_RleConfig_t rle_conf;
                        2799 --904:     uint32_t err_exit = 0;
00000672 00e2           2800 	mov	0,r28

                                                                      Page 48
                                                              C:\Users\YINGAO~1\AppData\Local\Temp\gh_000084c1.si
                        2801 --905:     switch (Fmt)
00000674 1908           2802 	mov	r25,r1
00000676 6e0a           2803 	cmp	14,r1
00000678 e905*          2804 	bnl	.L1684
0000067a 6c0a           2805 	cmp	12,r1
0000067c b20d*          2806 	be	.L1590
0000067e 6d0a           2807 	cmp	13,r1
00000680 ca15*          2808 	bne	.L1593
00000682 c50d*          2809 	br	.L1591
                        2810 .L1684:
00000684 6f0a           2811 	cmp	15,r1
00000686 e105*          2812 	bl	.L1590
00000688 920d*          2813 	be	.L1591
0000068a 0106edff       2814 	addi	-19,r1,zero
0000068e d10d*          2815 	bl	.L1593
00000690 950d*          2816 	br	.L1592
                        2817 .L1590:
                        2818 --906:     {
                        2819 --907:         case R_WM_COLORFMT_RLE24ARGB8888:
                        2820 --908:         case R_WM_COLORFMT_RLE24RGB0888:
                        2821 --909:             rle_conf.ColorMode = R_SPEA_CM_24BPP;
                        2822 --line909
                        2823 ..lin.D.3A.5CRenesas_Electronics.5CD1x_RGL.5Crgl_ghs_D1Lx_obj_V1.2E2.2E0.5Cvlib.5Capp.5Cgfx_apps.5Csimple_draw_d1l2.5Ctarget.5Cd1lx_mango_ghs.5Cobj.5Cr_sys_wm.78::
                        2824 .LDWlin78:
00000692 020a           2825 	mov	2,r1
00000694 630f0d00       2826 	st.w	r1,12[sp]
00000698 d50d*          2827 	br	.L1588
                        2828 .L1591:
                        2829 --910:             break;
                        2830 --911:         case R_WM_COLORFMT_RLE18ARGB8888:
                        2831 --912:         case R_WM_COLORFMT_RLE18RGB0888:
                        2832 --913:             rle_conf.ColorMode = R_SPEA_CM_18BPP;
                        2833 --line913
                        2834 ..lin.D.3A.5CRenesas_Electronics.5CD1x_RGL.5Crgl_ghs_D1Lx_obj_V1.2E2.2E0.5Cvlib.5Capp.5Cgfx_apps.5Csimple_draw_d1l2.5Ctarget.5Cd1lx_mango_ghs.5Cobj.5Cr_sys_wm.79::
                        2835 .LDWlin79:
0000069a 010a           2836 	mov	1,r1
0000069c 630f0d00       2837 	st.w	r1,12[sp]
000006a0 950d*          2838 	br	.L1588
                        2839 .L1592:
                        2840 --914:             break;
                        2841 --915:         case R_WM_COLORFMT_RLE8CLUT8:
                        2842 --916:         case R_WM_COLORFMT_RLE8CLUT4:
                        2843 --917:         case R_WM_COLORFMT_RLE8CLUT1:
                        2844 --918:             rle_conf.ColorMode = R_SPEA_CM_8BPP;
                        2845 --line918
                        2846 ..lin.D.3A.5CRenesas_Electronics.5CD1x_RGL.5Crgl_ghs_D1Lx_obj_V1.2E2.2E0.5Cvlib.5Capp.5Cgfx_apps.5Csimple_draw_d1l2.5Ctarget.5Cd1lx_mango_ghs.5Cobj.5Cr_sys_wm.80::
                        2847 .LDWlin80:
000006a2 63070d00       2848 	st.w	zero,12[sp]
000006a6 e505*          2849 	br	.L1588
                        2850 .L1593:
                        2851 --919:             break;
                        2852 --920:         default:
                        2853 --921:             err_exit = 1;
                        2854 --line921
                        2855 ..lin.D.3A.5CRenesas_Electronics.5CD1x_RGL.5Crgl_ghs_D1Lx_obj_V1.2E2.2E0.5Cvlib.5Capp.5Cgfx_apps.5Csimple_draw_d1l2.5Ctarget.5Cd1lx_mango_ghs.5Cobj.5Cr_sys_wm.81::
                        2856 .LDWlin81:
000006a8 01e2           2857 	mov	1,r28
                        2858 --922:             rle_conf.ColorMode = R_SPEA_CM_24BPP;
000006aa 020a           2859 	mov	2,r1
000006ac 630f0d00       2860 	st.w	r1,12[sp]
000006b0 0000           2861 	nop

                                                                      Page 49
                                                              C:\Users\YINGAO~1\AppData\Local\Temp\gh_000084c1.si
                        2862 .L1588:
                        2863 --923:             break;
                        2864 --924:     }
                        2865 --925:     if (err_exit == 1)
000006b2 61e2           2866 	cmp	1,r28
000006b4 ba05*          2867 	bne	.L1594
                        2868 --926:     {
                        2869 --927:         R_WM_SYS_REPORT_ERROR(Unit, R_WM_ERR_COLORFMT, 0);
                        2870 --928:         return 0;   /* R_WM_ERR_COLORFMT */
                        2871 --line928
                        2872 ..lin.D.3A.5CRenesas_Electronics.5CD1x_RGL.5Crgl_ghs_D1Lx_obj_V1.2E2.2E0.5Cvlib.5Capp.5Cgfx_apps.5Csimple_draw_d1l2.5Ctarget.5Cd1lx_mango_ghs.5Cobj.5Cr_sys_wm.82::
                        2873 .LDWlin82:
000006b6 0052           2874 	mov	0,r10
000006b8 9555*          2875 	br	.L1586
                        2876 .L1594:
                        2877 --929:     }
                        2878 --931:     /* Both RLE units have VideoOutID 0 set as default in HW.
                        2879 --932:        R_SPEA_SetRle is not allowed to set the same VideoOutID
                        2880 --933:        as the other unit already has. Furthermore, R_SPEA_UnitEnable
                        2881 --934:        starts both units, so if the other unit operation is not desired,
                        2882 --935:        its VideoOutID needs to be set to some invalid value.
                        2883 --936:     */
                        2884 --937:     
                        2885 --938:     /* check if the other unit is already in use,
                        2886 --939:        if not, it needs to be setup with an invalid VideoOutID,
                        2887 --940:        if yes, than it already has a (valid) different VideoOutID
                        2888 --941:     */
                        2889 --942:     if  ((r_wm_DevSys[Unit ^ 1u].GlobalStatusFlags & R_WM_SYS_GLOBAL_STATUS_FLAG_RLE) == 0uL)
                        2890 --line942
                        2891 ..lin.D.3A.5CRenesas_Electronics.5CD1x_RGL.5Crgl_ghs_D1Lx_obj_V1.2E2.2E0.5Cvlib.5Capp.5Cgfx_apps.5Csimple_draw_d1l2.5Ctarget.5Cd1lx_mango_ghs.5Cobj.5Cr_sys_wm.83::
                        2892 .LDWlin83:
000006ba bd0e0100       2893 	xori	1,r29,r1
000006be e100           2894 	sxh	r1
000006c0 e1f66000       2895 	mulhi	96,r1,ep
000006c4 dbf1           2896 	add	r27,ep
000006c6 2c0d           2897 	sld.w	88[ep],r1
000006c8 810a           2898 	shr	1,r1
000006ca 911d*          2899 	bl	.L1597
                        2900 --943:     {
                        2901 --944:         /* some foo defaults */
                        2902 --945:         rle_conf.ColorMode = R_SPEA_CM_24BPP;
                        2903 --line945
                        2904 ..lin.D.3A.5CRenesas_Electronics.5CD1x_RGL.5Crgl_ghs_D1Lx_obj_V1.2E2.2E0.5Cvlib.5Capp.5Cgfx_apps.5Csimple_draw_d1l2.5Ctarget.5Cd1lx_mango_ghs.5Cobj.5Cr_sys_wm.84::
                        2905 .LDWlin84:
000006cc 020a           2906 	mov	2,r1
000006ce 630f0d00       2907 	st.w	r1,12[sp]
                        2908 --946:         rle_conf.VirtStart = 0x30000000u;
000006d2 63d70500       2909 	st.w	r26,4[sp]
                        2910 --947:         rle_conf.MemStart = 0xffffffffu;
000006d6 1f0a           2911 	mov	-1,r1
000006d8 630f0900       2912 	st.w	r1,8[sp]
                        2913 --948:         rle_conf.VideoOutID = 0xff; /* an invalid Id */
000006dc 200eff00       2914 	movea	255,zero,r1
000006e0 430f1000       2915 	st.b	r1,16[sp]
                        2916 --949:         if (R_SPEA_ERR_OK != R_SPEA_SetRle(0, Unit ^ 1u, &rle_conf))
000006e4 bd3e0100       2917 	xori	1,r29,r7
000006e8 0032           2918 	mov	0,r6
000006ea 8700           2919 	zxb	r7
000006ec 23460400       2920 	movea	4,sp,r8
                        2921 	jarl	_R_SPEA_SetRle,lp
                        2921 <EXPANSION BEGIN>

                                                                      Page 50
                                                              C:\Users\YINGAO~1\AppData\Local\Temp\gh_000084c1.si
                        2921 jarl22 _R_SPEA_SetRle , lp 
000006f0 80ff0000*      2921 <EXPANSION END>
000006f4 e051           2922 	cmp	zero,r10
000006f6 b205*          2923 	be	.L1597
                        2924 --950:         {
                        2925 --951:             return 0;
                        2926 --line951
                        2927 ..lin.D.3A.5CRenesas_Electronics.5CD1x_RGL.5Crgl_ghs_D1Lx_obj_V1.2E2.2E0.5Cvlib.5Capp.5Cgfx_apps.5Csimple_draw_d1l2.5Ctarget.5Cd1lx_mango_ghs.5Cobj.5Cr_sys_wm.85::
                        2928 .LDWlin85:
000006f8 0052           2929 	mov	0,r10
000006fa 8535*          2930 	br	.L1586
                        2931 .L1597:
                        2932 --952:         }
                        2933 --953:     }
                        2934 --954:    
                        2935 --955:     
                        2936 --956:     rle_conf.VirtStart = 0x30000000u;
                        2937 --line956
                        2938 ..lin.D.3A.5CRenesas_Electronics.5CD1x_RGL.5Crgl_ghs_D1Lx_obj_V1.2E2.2E0.5Cvlib.5Capp.5Cgfx_apps.5Csimple_draw_d1l2.5Ctarget.5Cd1lx_mango_ghs.5Cobj.5Cr_sys_wm.86::
                        2939 .LDWlin86:
000006fc 63d70500       2940 	st.w	r26,4[sp]
                        2941 --957:     rle_conf.MemStart = Buf;
00000700 235f0100       2942 	ld.w	0[sp],r11
00000704 635f0900       2943 	st.w	r11,8[sp]
                        2944 --958:     rle_conf.VideoOutID = Unit;
00000708 43ef1000       2945 	st.b	r29,16[sp]
                        2946 --959:     if (R_SPEA_ERR_OK != R_SPEA_SetRle(0, Unit, &rle_conf))
0000070c 1d38           2947 	mov	r29,r7
0000070e 8700           2948 	zxb	r7
00000710 0032           2949 	mov	0,r6
00000712 23460400       2950 	movea	4,sp,r8
                        2951 	jarl	_R_SPEA_SetRle,lp
                        2951 <EXPANSION BEGIN>
                        2951 jarl22 _R_SPEA_SetRle , lp 
00000716 80ff0000*      2951 <EXPANSION END>
0000071a e051           2952 	cmp	zero,r10
0000071c b205*          2953 	be	.L1602
                        2954 --960:     {
                        2955 --961:         return 0;
                        2956 --line961
                        2957 ..lin.D.3A.5CRenesas_Electronics.5CD1x_RGL.5Crgl_ghs_D1Lx_obj_V1.2E2.2E0.5Cvlib.5Capp.5Cgfx_apps.5Csimple_draw_d1l2.5Ctarget.5Cd1lx_mango_ghs.5Cobj.5Cr_sys_wm.87::
                        2958 .LDWlin87:
0000071e 0052           2959 	mov	0,r10
00000720 d51d*          2960 	br	.L1586
                        2961 .L1602:
                        2962 --962:     }
                        2963 --963:     
                        2964 --964:     /*  R_SPEA_UnitEnable actually turns both units on, but by supplying the
                        2965 --965:         invalid VideoOutID for the one we don't need, it is effectively 'turned off'
                        2966 --966:     */
                        2967 --967:     if (R_SPEA_ERR_OK != R_SPEA_UnitEnable(0, (r_spea_Unit_t)(R_SPEA_RLE0 + Unit), 1))
                        2968 --line967
                        2969 ..lin.D.3A.5CRenesas_Electronics.5CD1x_RGL.5Crgl_ghs_D1Lx_obj_V1.2E2.2E0.5Cvlib.5Capp.5Cgfx_apps.5Csimple_draw_d1l2.5Ctarget.5Cd1lx_mango_ghs.5Cobj.5Cr_sys_wm.88::
                        2970 .LDWlin88:
00000722 1d38           2971 	mov	r29,r7
00000724 0032           2972 	mov	0,r6
00000726 0142           2973 	mov	1,r8
                        2974 	jarl	_R_SPEA_UnitEnable,lp
                        2974 <EXPANSION BEGIN>
                        2974 jarl22 _R_SPEA_UnitEnable , lp 
00000728 80ff0000*      2974 <EXPANSION END>

                                                                      Page 51
                                                              C:\Users\YINGAO~1\AppData\Local\Temp\gh_000084c1.si
0000072c e051           2975 	cmp	zero,r10
0000072e b205*          2976 	be	.L1605
                        2977 --968:     {
                        2978 --969:         return 0;
                        2979 --line969
                        2980 ..lin.D.3A.5CRenesas_Electronics.5CD1x_RGL.5Crgl_ghs_D1Lx_obj_V1.2E2.2E0.5Cvlib.5Capp.5Cgfx_apps.5Csimple_draw_d1l2.5Ctarget.5Cd1lx_mango_ghs.5Cobj.5Cr_sys_wm.89::
                        2981 .LDWlin89:
00000730 0052           2982 	mov	0,r10
00000732 c515*          2983 	br	.L1586
                        2984 .L1605:
                        2985 --970:     }
                        2986 --972:     /* Set respective R_WM_SYS_FRAME_STATUS_SPEA_RLEn_UPDATE_BIT */
                        2987 --973:     r_wm_DevSys[Unit].FrameStatusFlags |= (1uL << (R_WM_SYS_FRAME_STATUS_SPEA_RLE_UPDATE_BIT));
                        2988 --line973
                        2989 ..lin.D.3A.5CRenesas_Electronics.5CD1x_RGL.5Crgl_ghs_D1Lx_obj_V1.2E2.2E0.5Cvlib.5Capp.5Cgfx_apps.5Csimple_draw_d1l2.5Ctarget.5Cd1lx_mango_ghs.5Cobj.5Cr_sys_wm.90::
                        2990 .LDWlin90:
00000734 1df0           2991 	mov	r29,ep
00000736 fe00           2992 	sxh	ep
00000738 fef66000       2993 	mulhi	96,ep,ep
0000073c dbf1           2994 	add	r27,ep
0000073e 2a0d           2995 	sld.w	84[ep],r1
00000740 810e0100       2996 	ori	1,r1,r1
00000744 2b0d           2997 	sst.w	r1,84[ep]
                        2998 --975:     /* set the flag that the unit is in use */
                        2999 --976:     r_wm_DevSys[Unit].GlobalStatusFlags |= R_WM_SYS_GLOBAL_STATUS_FLAG_RLE;
00000746 1df0           3000 	mov	r29,ep
00000748 fe00           3001 	sxh	ep
0000074a fef66000       3002 	mulhi	96,ep,ep
0000074e dbf1           3003 	add	r27,ep
00000750 2c0d           3004 	sld.w	88[ep],r1
00000752 810e0100       3005 	ori	1,r1,r1
00000756 2d0d           3006 	sst.w	r1,88[ep]
                        3007 --977:     
                        3008 --978:     return 1;
00000758 0152           3009 	mov	1,r10
                        3010 .L1586:
                        3011 --	    .ef
                        3012 .LDW09:
0000075a 4a06ff70       3013 	dispose	5,{r25,r26,r27,r28,r29,r31},[lp]
                        3014 	.type	_loc_SetRle,@function
                        3015 	.size	_loc_SetRle,.-_loc_SetRle
                        3016 	.type	_loc_SetRle..D.3A.5CRenesas_Electronics.5CD1x_RGL.5Crgl_ghs_D1Lx_obj_V1.2E2.2E0.5Cvlib.5Capp.5Cgfx_apps.5Csimple_draw_d1l2.5Ctarget.5Cd1lx_mango_ghs.5Cobj.5Cr_sys_wm.,@function
                        3017 	.size	_loc_SetRle..D.3A.5CRenesas_Electronics.5CD1x_RGL.5Crgl_ghs_D1Lx_obj_V1.2E2.2E0.5Cvlib.5Capp.5Cgfx_apps.5Csimple_draw_d1l2.5Ctarget.5Cd1lx_mango_ghs.5Cobj.5Cr_sys_wm.,.-_loc_SetRle..D.3A.5CRenesas_Electronics.5CD1x_RGL.5Crgl_ghs_D1Lx_obj_V1.2E2.2E0.5Cvlib.5Capp.5Cgfx_apps.5Csimple_draw_d1l2.5Ctarget.5Cd1lx_mango_ghs.5Cobj.5Cr_sys_wm.
                        3018 	.align	2
                        3019 .LDW19:
                        3020 --_rle_conf	4[sp]	local
                        3021 --_err_exit	r28	local
                        3022 
                        3023 --_Unit	r29	param
                        3024 --_Fmt	r25	param
                        3025 --_Buf	0[sp]	param
                        3026 
                        3027 	.section ".bss","awb"
                        3028 .L1682:
                        3029 	.type	.L1682,@object
                        3030 	.size	.L1682,0
                        3031 	.data
                        3032 	.text
                        3033 
                        3034 --979: }
                        3035 

                                                                      Page 52
                                                              C:\Users\YINGAO~1\AppData\Local\Temp\gh_000084c1.si
                        3036 --981: static uint32_t loc_CheckHWLayerCapabilities(uint32_t Layer, const r_wm_Window_t* Win)
                        3037 	.align	2
                        3038 	.align	2
                        3039 	.global	_loc_CheckHWLayerCapabilities..D.3A.5CRenesas_Electronics.5CD1x_RGL.5Crgl_ghs_D1Lx_obj_V1.2E2.2E0.5Cvlib.5Capp.5Cgfx_apps.5Csimple_draw_d1l2.5Ctarget.5Cd1lx_mango_ghs.5Cobj.5Cr_sys_wm.
                        3040 _loc_CheckHWLayerCapabilities..D.3A.5CRenesas_Electronics.5CD1x_RGL.5Crgl_ghs_D1Lx_obj_V1.2E2.2E0.5Cvlib.5Capp.5Cgfx_apps.5Csimple_draw_d1l2.5Ctarget.5Cd1lx_mango_ghs.5Cobj.5Cr_sys_wm.:
                        3041 _loc_CheckHWLayerCapabilities:
0000075e 8007e100       3042 	prepare	{r28,r29,r31},0
00000762 06e8           3043 	mov	r6,r29
00000764 07e0           3044 	mov	r7,r28
                        3045 --	    .bf
                        3046 .LDW29:
                        3047 --982: {
                        3048 --983:     if ( ( 0 != R_WM_Priv_WindowIsRleLayer(Win) ) && ( Layer > 0 ) )
00000766 1c30           3049 	mov	r28,r6
                        3050 	jarl	_R_WM_Priv_WindowIsRleLayer,lp
                        3050 <EXPANSION BEGIN>
                        3050 jarl22 _R_WM_Priv_WindowIsRleLayer , lp 
00000768 80ff0000*      3050 <EXPANSION END>
0000076c e051           3051 	cmp	zero,r10
0000076e d205*          3052 	be	.L1806
00000770 e0e9           3053 	cmp	zero,r29
00000772 b305*          3054 	bnh	.L1806
                        3055 --984:     {
                        3056 --985:         /* Only layer 0 may be an RLE layer */
                        3057 --986:         return 0;
                        3058 --line986
                        3059 ..lin.D.3A.5CRenesas_Electronics.5CD1x_RGL.5Crgl_ghs_D1Lx_obj_V1.2E2.2E0.5Cvlib.5Capp.5Cgfx_apps.5Csimple_draw_d1l2.5Ctarget.5Cd1lx_mango_ghs.5Cobj.5Cr_sys_wm.91::
                        3060 .LDWlin91:
00000774 0052           3061 	mov	0,r10
00000776 b515*          3062 	br	.L1804
                        3063 .L1806:
                        3064 --987:     }
                        3065 --988:     
                        3066 --989:     if ( ( 0 != loc_WindowIsYUVLayer(Win) ) && ( Layer > 1 ) )
                        3067 --line989
                        3068 ..lin.D.3A.5CRenesas_Electronics.5CD1x_RGL.5Crgl_ghs_D1Lx_obj_V1.2E2.2E0.5Cvlib.5Capp.5Cgfx_apps.5Csimple_draw_d1l2.5Ctarget.5Cd1lx_mango_ghs.5Cobj.5Cr_sys_wm.92::
                        3069 .LDWlin92:
00000778 1c30           3070 	mov	r28,r6
                        3071 	jarl	_loc_WindowIsYUVLayer,lp
                        3071 <EXPANSION BEGIN>
                        3071 jarl22 _loc_WindowIsYUVLayer , lp 
0000077a bfffbcfc*      3071 <EXPANSION END>
0000077e e051           3072 	cmp	zero,r10
00000780 d205*          3073 	be	.L1810
00000782 61ea           3074 	cmp	1,r29
00000784 b305*          3075 	bnh	.L1810
                        3076 --990:     {
                        3077 --991:         /* Only layer 0 and 1 may be YUV layers */
                        3078 --992:         return 0;
                        3079 --line992
                        3080 ..lin.D.3A.5CRenesas_Electronics.5CD1x_RGL.5Crgl_ghs_D1Lx_obj_V1.2E2.2E0.5Cvlib.5Capp.5Cgfx_apps.5Csimple_draw_d1l2.5Ctarget.5Cd1lx_mango_ghs.5Cobj.5Cr_sys_wm.93::
                        3081 .LDWlin93:
00000786 0052           3082 	mov	0,r10
00000788 a50d*          3083 	br	.L1804
                        3084 .L1810:
                        3085 --993:     }
                        3086 --994:     
                        3087 --995:     if ( ( Win->Mode == R_WM_WINMODE_SPRITES ) && ( Layer < 1 ) )
                        3088 --line995
                        3089 ..lin.D.3A.5CRenesas_Electronics.5CD1x_RGL.5Crgl_ghs_D1Lx_obj_V1.2E2.2E0.5Cvlib.5Capp.5Cgfx_apps.5Csimple_draw_d1l2.5Ctarget.5Cd1lx_mango_ghs.5Cobj.5Cr_sys_wm.94::
                        3090 .LDWlin94:

                                                                      Page 53
                                                              C:\Users\YINGAO~1\AppData\Local\Temp\gh_000084c1.si
0000078a 3c0f0500       3091 	ld.w	4[r28],r1
0000078e 610a           3092 	cmp	1,r1
00000790 da05*          3093 	bne	.L1814
00000792 61ea           3094 	cmp	1,r29
00000794 b905*          3095 	bnl	.L1814
                        3096 --996:     {
                        3097 --997:         /* Only layer 1 to 3 may be SPRITE layers */
                        3098 --998:         return 0;
                        3099 --line998
                        3100 ..lin.D.3A.5CRenesas_Electronics.5CD1x_RGL.5Crgl_ghs_D1Lx_obj_V1.2E2.2E0.5Cvlib.5Capp.5Cgfx_apps.5Csimple_draw_d1l2.5Ctarget.5Cd1lx_mango_ghs.5Cobj.5Cr_sys_wm.95::
                        3101 .LDWlin95:
00000796 0052           3102 	mov	0,r10
00000798 a505*          3103 	br	.L1804
                        3104 .L1814:
                        3105 --999:     }
                        3106 --1000:     
                        3107 --1001:     return 1;
                        3108 --line1001
                        3109 ..lin.D.3A.5CRenesas_Electronics.5CD1x_RGL.5Crgl_ghs_D1Lx_obj_V1.2E2.2E0.5Cvlib.5Capp.5Cgfx_apps.5Csimple_draw_d1l2.5Ctarget.5Cd1lx_mango_ghs.5Cobj.5Cr_sys_wm.96::
                        3110 .LDWlin96:
0000079a 0152           3111 	mov	1,r10
                        3112 .L1804:
                        3113 --	    .ef
                        3114 .LDW39:
0000079c 4006ff00       3115 	dispose	0,{r28,r29,r31},[lp]
                        3116 	.type	_loc_CheckHWLayerCapabilities,@function
                        3117 	.size	_loc_CheckHWLayerCapabilities,.-_loc_CheckHWLayerCapabilities
                        3118 	.type	_loc_CheckHWLayerCapabilities..D.3A.5CRenesas_Electronics.5CD1x_RGL.5Crgl_ghs_D1Lx_obj_V1.2E2.2E0.5Cvlib.5Capp.5Cgfx_apps.5Csimple_draw_d1l2.5Ctarget.5Cd1lx_mango_ghs.5Cobj.5Cr_sys_wm.,@function
                        3119 	.size	_loc_CheckHWLayerCapabilities..D.3A.5CRenesas_Electronics.5CD1x_RGL.5Crgl_ghs_D1Lx_obj_V1.2E2.2E0.5Cvlib.5Capp.5Cgfx_apps.5Csimple_draw_d1l2.5Ctarget.5Cd1lx_mango_ghs.5Cobj.5Cr_sys_wm.,.-_loc_CheckHWLayerCapabilities..D.3A.5CRenesas_Electronics.5CD1x_RGL.5Crgl_ghs_D1Lx_obj_V1.2E2.2E0.5Cvlib.5Capp.5Cgfx_apps.5Csimple_draw_d1l2.5Ctarget.5Cd1lx_mango_ghs.5Cobj.5Cr_sys_wm.
                        3120 	.align	2
                        3121 .LDW49:
                        3122 
                        3123 --_Layer	r29	param
                        3124 --_Win	r28	param
                        3125 
                        3126 	.section ".bss","awb"
                        3127 .L1850:
                        3128 	.type	.L1850,@object
                        3129 	.size	.L1850,0
                        3130 	.data
                        3131 	.text
                        3132 
                        3133 --1002: }
                        3134 
                        3135 --1004: static uint32_t loc_WinReconfAll(uint32_t Unit)
                        3136 	.align	2
                        3137 	.align	2
                        3138 	.global	_loc_WinReconfAll..D.3A.5CRenesas_Electronics.5CD1x_RGL.5Crgl_ghs_D1Lx_obj_V1.2E2.2E0.5Cvlib.5Capp.5Cgfx_apps.5Csimple_draw_d1l2.5Ctarget.5Cd1lx_mango_ghs.5Cobj.5Cr_sys_wm.
                        3139 _loc_WinReconfAll..D.3A.5CRenesas_Electronics.5CD1x_RGL.5Crgl_ghs_D1Lx_obj_V1.2E2.2E0.5Cvlib.5Capp.5Cgfx_apps.5Csimple_draw_d1l2.5Ctarget.5Cd1lx_mango_ghs.5Cobj.5Cr_sys_wm.:
                        3140 _loc_WinReconfAll:
000007a0 9e07e170       3141 	prepare	{r25,r26,r27,r28,r29,r31},15
000007a4 06e0           3142 	mov	r6,r28
000007a6 3a0600000000*  3143 	mov	_r_wm_DevSys,r26
                        3144 --	    .bf
                        3145 .LDW59:
                        3146 --1005: {
                        3147 --1006:     uint32_t slot;
                        3148 --1007:     uint32_t layer;
                        3149 --1008:     const r_wm_Window_t* cur_win;
                        3150 --1009:     r_wm_Window_t* RootWin = r_wm_DevSys[Unit].RootWin;
000007ac 1cf0           3151 	mov	r28,ep

                                                                      Page 54
                                                              C:\Users\YINGAO~1\AppData\Local\Temp\gh_000084c1.si
000007ae fe00           3152 	sxh	ep
000007b0 fef66000       3153 	mulhi	96,ep,ep
000007b4 daf1           3154 	add	r26,ep
000007b6 225d           3155 	sld.w	68[ep],r11
000007b8 635f3900       3156 	st.w	r11,56[sp]
                        3157 --1010:     r_vdce_CkARGB32_t ck_in;
                        3158 --1011:     r_vdce_CkARGB32_t ck_out;
                        3159 --1012:     r_vdce_Error_t vdce_err;
                        3160 --1013:     const void* fb;
                        3161 --1014:     
                        3162 --1015:     uint32_t win_count_cond = (loc_WinGetCount(Unit) == 4);
000007bc 1c30           3163 	mov	r28,r6
                        3164 	jarl	_loc_WinGetCount,lp
                        3164 <EXPANSION BEGIN>
                        3164 jarl22 _loc_WinGetCount , lp 
000007be bfffe6fd*      3164 <EXPANSION END>
000007c2 6452           3165 	cmp	4,r10
000007c4 e25f0000       3166 	setfe	r11
000007c8 635f3100       3167 	st.w	r11,48[sp]
                        3168 --1016:     uint32_t is_rle_layer_cond = (R_WM_Priv_WindowIsRleLayer(RootWin) == 1);
                        3169 --line1016
                        3170 ..lin.D.3A.5CRenesas_Electronics.5CD1x_RGL.5Crgl_ghs_D1Lx_obj_V1.2E2.2E0.5Cvlib.5Capp.5Cgfx_apps.5Csimple_draw_d1l2.5Ctarget.5Cd1lx_mango_ghs.5Cobj.5Cr_sys_wm.97::
                        3171 .LDWlin97:
000007cc 23373900       3172 	ld.w	56[sp],r6
                        3173 	jarl	_R_WM_Priv_WindowIsRleLayer,lp
                        3173 <EXPANSION BEGIN>
                        3173 jarl22 _R_WM_Priv_WindowIsRleLayer , lp 
000007d0 80ff0000*      3173 <EXPANSION END>
000007d4 6152           3174 	cmp	1,r10
000007d6 e25f0000       3175 	setfe	r11
000007da 635f3500       3176 	st.w	r11,52[sp]
                        3177 --1017:     uint32_t is_yuv_layer_cond = 0;
                        3178 --line1017
                        3179 ..lin.D.3A.5CRenesas_Electronics.5CD1x_RGL.5Crgl_ghs_D1Lx_obj_V1.2E2.2E0.5Cvlib.5Capp.5Cgfx_apps.5Csimple_draw_d1l2.5Ctarget.5Cd1lx_mango_ghs.5Cobj.5Cr_sys_wm.98::
                        3180 .LDWlin98:
000007de 63072900       3181 	st.w	zero,40[sp]
000007e2 005a           3182 	mov	0,r11
                        3183 --1018:     
                        3184 --1019:     /* If second window has a YUV format, we need to start at layer zero, as YUV is only supported on 0 and 1, otherwise 2nd window might be mapped onto Layer 2 */
                        3185 --1020:     if (loc_WinGetCount(Unit) >= 2)
000007e4 1c30           3186 	mov	r28,r6
                        3187 	jarl	_loc_WinGetCount,lp
                        3187 <EXPANSION BEGIN>
                        3187 jarl22 _loc_WinGetCount , lp 
000007e6 bfffbefd*      3187 <EXPANSION END>
000007ea 6252           3188 	cmp	2,r10
000007ec c10d*          3189 	bl	.L1891
                        3190 --1021:     {
                        3191 --1022:         if (loc_WindowIsYUVLayer(RootWin->Next) == 1)
                        3192 --line1022
                        3193 ..lin.D.3A.5CRenesas_Electronics.5CD1x_RGL.5Crgl_ghs_D1Lx_obj_V1.2E2.2E0.5Cvlib.5Capp.5Cgfx_apps.5Csimple_draw_d1l2.5Ctarget.5Cd1lx_mango_ghs.5Cobj.5Cr_sys_wm.99::
                        3194 .LDWlin99:
000007ee 235f3900       3195 	ld.w	56[sp],r11
000007f2 2b374900       3196 	ld.w	72[r11],r6
                        3197 	jarl	_loc_WindowIsYUVLayer,lp
                        3197 <EXPANSION BEGIN>
                        3197 jarl22 _loc_WindowIsYUVLayer , lp 
000007f6 bfff40fc*      3197 <EXPANSION END>
000007fa 6152           3198 	cmp	1,r10
000007fc ca05*          3199 	bne	.L1891
                        3200 --1023:         {

                                                                      Page 55
                                                              C:\Users\YINGAO~1\AppData\Local\Temp\gh_000084c1.si
                        3201 --1024:             is_yuv_layer_cond = 1;
                        3202 --line1024
                        3203 ..lin.D.3A.5CRenesas_Electronics.5CD1x_RGL.5Crgl_ghs_D1Lx_obj_V1.2E2.2E0.5Cvlib.5Capp.5Cgfx_apps.5Csimple_draw_d1l2.5Ctarget.5Cd1lx_mango_ghs.5Cobj.5Cr_sys_wm.100::
                        3204 .LDWlin100:
000007fe 015a           3205 	mov	1,r11
00000800 635f2900       3206 	st.w	r11,40[sp]
                        3207 .L1891:
                        3208 --1025:         }
                        3209 --1026:     }
                        3210 --1027:     /* If layers 2 and 3 have YUV format, this is unsupported! */
                        3211 --1028:     
                        3212 --1029:     /* determine the start layer */
                        3213 --1030:     if  (   (win_count_cond != 0)
00000804 235f3100       3214 	ld.w	48[sp],r11
00000808 e059           3215 	cmp	zero,r11
0000080a 9a15*          3216 	bne	.L1896
0000080c 235f3500       3217 	ld.w	52[sp],r11
00000810 e059           3218 	cmp	zero,r11
00000812 da0d*          3219 	bne	.L1896
00000814 235f2900       3220 	ld.w	40[sp],r11
00000818 e059           3221 	cmp	zero,r11
0000081a 9a0d*          3222 	bne	.L1896
0000081c 1cf0           3223 	mov	r28,ep
0000081e fe00           3224 	sxh	ep
00000820 fef66000       3225 	mulhi	96,ep,ep
00000824 daf1           3226 	add	r26,ep
00000826 240d           3227 	sld.w	72[ep],r1
00000828 e009           3228 	cmp	zero,r1
0000082a b205*          3229 	be	.L1895
                        3230 .L1896:
                        3231 --1031:             ||
                        3232 --1032:             (is_rle_layer_cond != 0)
                        3233 --1033:             ||
                        3234 --1034:             (is_yuv_layer_cond != 0)
                        3235 --1035:             ||
                        3236 --1036:             (r_wm_DevSys[Unit].RootCapt != 0)
                        3237 --1037:             
                        3238 --1038:         )
                        3239 --1039:     {
                        3240 --1040:         /* all layers need to be used */
                        3241 --1041:         layer = 0;
                        3242 --line1041
                        3243 ..lin.D.3A.5CRenesas_Electronics.5CD1x_RGL.5Crgl_ghs_D1Lx_obj_V1.2E2.2E0.5Cvlib.5Capp.5Cgfx_apps.5Csimple_draw_d1l2.5Ctarget.5Cd1lx_mango_ghs.5Cobj.5Cr_sys_wm.101::
                        3244 .LDWlin101:
0000082c 00da           3245 	mov	0,r27
0000082e e505*          3246 	br	.L1900
                        3247 .L1895:
                        3248 --1042:     }
                        3249 --1044:     else
                        3250 --1045:     {
                        3251 --1046:         /*  refrain from using the layer 0 until really necessary,
                        3252 --1047:             because of blending
                        3253 --1048:         */
                        3254 --1049:         loc_VDCE_LayerDisable(Unit, 0);
                        3255 --line1049
                        3256 ..lin.D.3A.5CRenesas_Electronics.5CD1x_RGL.5Crgl_ghs_D1Lx_obj_V1.2E2.2E0.5Cvlib.5Capp.5Cgfx_apps.5Csimple_draw_d1l2.5Ctarget.5Cd1lx_mango_ghs.5Cobj.5Cr_sys_wm.102::
                        3257 .LDWlin102:
00000830 1c30           3258 	mov	r28,r6
00000832 003a           3259 	mov	0,r7
                        3260 	jarl	_loc_VDCE_LayerDisable,lp
                        3260 <EXPANSION BEGIN>

                                                                      Page 56
                                                              C:\Users\YINGAO~1\AppData\Local\Temp\gh_000084c1.si
                        3260 jarl22 _loc_VDCE_LayerDisable , lp 
00000834 80ff9206*      3260 <EXPANSION END>
                        3261 --1050:         layer = 1;
                        3262 --line1050
                        3263 ..lin.D.3A.5CRenesas_Electronics.5CD1x_RGL.5Crgl_ghs_D1Lx_obj_V1.2E2.2E0.5Cvlib.5Capp.5Cgfx_apps.5Csimple_draw_d1l2.5Ctarget.5Cd1lx_mango_ghs.5Cobj.5Cr_sys_wm.103::
                        3264 .LDWlin103:
00000838 01da           3265 	mov	1,r27
                        3266 .L1900:
                        3267 --1051:     }
                        3268 --1053:     /* todo: don't need to reconfigure all layers always */
                        3269 --1055:     slot = 0;
0000083a 00ca           3270 	mov	0,r25
                        3271 --1056:     cur_win = RootWin;
0000083c 23ef3900       3272 	ld.w	56[sp],r29
                        3273 --1057:     while (cur_win != R_NULL)
00000840 80075003*      3274 	br	.L1901
                        3275 .L1903:
                        3276 --1058:     {
                        3277 --1059:         r_wm_DevSys[Unit].WinToLayerMap[slot].Win = cur_win; 
                        3278 --line1059
                        3279 ..lin.D.3A.5CRenesas_Electronics.5CD1x_RGL.5Crgl_ghs_D1Lx_obj_V1.2E2.2E0.5Cvlib.5Capp.5Cgfx_apps.5Csimple_draw_d1l2.5Ctarget.5Cd1lx_mango_ghs.5Cobj.5Cr_sys_wm.104::
                        3280 .LDWlin104:
00000844 1c08           3281 	mov	r28,r1
00000846 e100           3282 	sxh	r1
00000848 e10e6000       3283 	mulhi	96,r1,r1
0000084c 19f0           3284 	mov	r25,ep
0000084e c3f2           3285 	shl	3,ep
00000850 da09           3286 	add	r26,r1
00000852 010e1400       3287 	addi	20,r1,r1
00000856 c1f1           3288 	add	r1,ep
00000858 01ed           3289 	sst.w	r29,0[ep]
                        3290 --1060:         r_wm_DevSys[Unit].WinToLayerMap[slot].Layer = layer;
0000085a 1c08           3291 	mov	r28,r1
0000085c e100           3292 	sxh	r1
0000085e e10e6000       3293 	mulhi	96,r1,r1
00000862 19f0           3294 	mov	r25,ep
00000864 c3f2           3295 	shl	3,ep
00000866 da09           3296 	add	r26,r1
00000868 010e1400       3297 	addi	20,r1,r1
0000086c c1f1           3298 	add	r1,ep
0000086e 03dd           3299 	sst.w	r27,4[ep]
                        3300 --1061:         loc_VDCE_LayerDisable(Unit, layer);
00000870 1c30           3301 	mov	r28,r6
00000872 1b38           3302 	mov	r27,r7
                        3303 	jarl	_loc_VDCE_LayerDisable,lp
                        3303 <EXPANSION BEGIN>
                        3303 jarl22 _loc_VDCE_LayerDisable , lp 
00000874 80ff5206*      3303 <EXPANSION END>
                        3304 --1062:         
                        3305 --1063:         /* Check if window's hardware requirements can be fulfilled by selected layer no */
                        3306 --1064:         if (0 == loc_CheckHWLayerCapabilities(layer, cur_win) )
                        3307 --line1064
                        3308 ..lin.D.3A.5CRenesas_Electronics.5CD1x_RGL.5Crgl_ghs_D1Lx_obj_V1.2E2.2E0.5Cvlib.5Capp.5Cgfx_apps.5Csimple_draw_d1l2.5Ctarget.5Cd1lx_mango_ghs.5Cobj.5Cr_sys_wm.105::
                        3309 .LDWlin105:
00000878 1b30           3310 	mov	r27,r6
0000087a 1d38           3311 	mov	r29,r7
                        3312 	jarl	_loc_CheckHWLayerCapabilities,lp
                        3312 <EXPANSION BEGIN>
                        3312 jarl22 _loc_CheckHWLayerCapabilities , lp 
0000087c bfffe2fe*      3312 <EXPANSION END>
00000880 e051           3313 	cmp	zero,r10

                                                                      Page 57
                                                              C:\Users\YINGAO~1\AppData\Local\Temp\gh_000084c1.si
00000882 ca05*          3314 	bne	.L1904
                        3315 --1065:         {
                        3316 --1066:             R_WM_SYS_REPORT_ERROR(Unit, R_WM_ERR_NO_PHYS_WINDOW, 0);
                        3317 --1067:             return 0;
                        3318 --line1067
                        3319 ..lin.D.3A.5CRenesas_Electronics.5CD1x_RGL.5Crgl_ghs_D1Lx_obj_V1.2E2.2E0.5Cvlib.5Capp.5Cgfx_apps.5Csimple_draw_d1l2.5Ctarget.5Cd1lx_mango_ghs.5Cobj.5Cr_sys_wm.106::
                        3320 .LDWlin106:
00000884 0052           3321 	mov	0,r10
00000886 80075603*      3322 	br	.L1889
                        3323 .L1904:
                        3324 --1068:         }
                        3325 --1069:         
                        3326 --1070:         /* chroma key */
                        3327 --1071:         if (cur_win->ColorKey.Enabled != 0)
                        3328 --line1071
                        3329 ..lin.D.3A.5CRenesas_Electronics.5CD1x_RGL.5Crgl_ghs_D1Lx_obj_V1.2E2.2E0.5Cvlib.5Capp.5Cgfx_apps.5Csimple_draw_d1l2.5Ctarget.5Cd1lx_mango_ghs.5Cobj.5Cr_sys_wm.107::
                        3330 .LDWlin107:
0000088a 9d0f3d00       3331 	ld.bu	60[r29],r1
0000088e e009           3332 	cmp	zero,r1
00000890 923d*          3333 	be	.L1907
                        3334 --1072:         {
                        3335 --1073:             ck_in.R = cur_win->ColorKey.In.RgbKey.Red;
                        3336 --line1073
                        3337 ..lin.D.3A.5CRenesas_Electronics.5CD1x_RGL.5Crgl_ghs_D1Lx_obj_V1.2E2.2E0.5Cvlib.5Capp.5Cgfx_apps.5Csimple_draw_d1l2.5Ctarget.5Cd1lx_mango_ghs.5Cobj.5Cr_sys_wm.108::
                        3338 .LDWlin108:
00000892 bd0f3d00       3339 	ld.bu	61[r29],r1
00000896 430f1a00       3340 	st.b	r1,26[sp]
                        3341 --1074:             ck_in.G = cur_win->ColorKey.In.RgbKey.Green;
0000089a 9d0f3f00       3342 	ld.bu	62[r29],r1
0000089e 430f1900       3343 	st.b	r1,25[sp]
                        3344 --1075:             ck_in.B = cur_win->ColorKey.In.RgbKey.Blue;
000008a2 bd0f3f00       3345 	ld.bu	63[r29],r1
000008a6 430f1800       3346 	st.b	r1,24[sp]
                        3347 --1076:             ck_in.A = 0x00;
000008aa 43071b00       3348 	st.b	zero,27[sp]
                        3349 --1077:             
                        3350 --1078:             ck_out.R = cur_win->ColorKey.Out.Red;
000008ae 9d0f4100       3351 	ld.bu	64[r29],r1
000008b2 430f1e00       3352 	st.b	r1,30[sp]
                        3353 --1079:             ck_out.G = cur_win->ColorKey.Out.Green;
000008b6 bd0f4100       3354 	ld.bu	65[r29],r1
000008ba 430f1d00       3355 	st.b	r1,29[sp]
                        3356 --1080:             ck_out.B = cur_win->ColorKey.Out.Blue;
000008be 9d0f4300       3357 	ld.bu	66[r29],r1
000008c2 430f1c00       3358 	st.b	r1,28[sp]
                        3359 --1081:             ck_out.A = cur_win->ColorKey.Out.Alpha;
000008c6 bd0f4300       3360 	ld.bu	67[r29],r1
000008ca 430f1f00       3361 	st.b	r1,31[sp]
                        3362 --1082:             
                        3363 --1083:             /* Layer Alpha and Chroma Keying are exclusive. 
                        3364 --1084:                Chroma Keying overrides Layer Alpha. */
                        3365 --1085:             if((0 < layer) && (layer < 4))
000008ce e0d9           3366 	cmp	zero,r27
000008d0 c30d*          3367 	bnh	.L1909
000008d2 64da           3368 	cmp	4,r27
000008d4 a90d*          3369 	bnl	.L1909
                        3370 --1086:             {
                        3371 --1087:                 if (R_VDCE_ERR_OK != R_VDCE_LayerAlphaConstDisable(Unit,layer))
                        3372 --line1087
                        3373 ..lin.D.3A.5CRenesas_Electronics.5CD1x_RGL.5Crgl_ghs_D1Lx_obj_V1.2E2.2E0.5Cvlib.5Capp.5Cgfx_apps.5Csimple_draw_d1l2.5Ctarget.5Cd1lx_mango_ghs.5Cobj.5Cr_sys_wm.109::
                        3374 .LDWlin109:

                                                                      Page 58
                                                              C:\Users\YINGAO~1\AppData\Local\Temp\gh_000084c1.si
000008d6 1c30           3375 	mov	r28,r6
000008d8 1b38           3376 	mov	r27,r7
                        3377 	jarl	_R_VDCE_LayerAlphaConstDisable,lp
                        3377 <EXPANSION BEGIN>
                        3377 jarl22 _R_VDCE_LayerAlphaConstDisable , lp 
000008da 80ff0000*      3377 <EXPANSION END>
000008de e051           3378 	cmp	zero,r10
000008e0 c205*          3379 	be	.L1909
                        3380 --1088:                 {
                        3381 --1089:                     return 0;
                        3382 --line1089
                        3383 ..lin.D.3A.5CRenesas_Electronics.5CD1x_RGL.5Crgl_ghs_D1Lx_obj_V1.2E2.2E0.5Cvlib.5Capp.5Cgfx_apps.5Csimple_draw_d1l2.5Ctarget.5Cd1lx_mango_ghs.5Cobj.5Cr_sys_wm.110::
                        3384 .LDWlin110:
000008e2 0052           3385 	mov	0,r10
000008e4 8007f802*      3386 	br	.L1889
                        3387 .L1909:
                        3388 --1090:                 }
                        3389 --1091:             }
                        3390 --1092:             if (R_VDCE_ERR_OK != R_VDCE_LayerChromaKeyEnable(Unit, layer, &ck_in, &ck_out))
                        3391 --line1092
                        3392 ..lin.D.3A.5CRenesas_Electronics.5CD1x_RGL.5Crgl_ghs_D1Lx_obj_V1.2E2.2E0.5Cvlib.5Capp.5Cgfx_apps.5Csimple_draw_d1l2.5Ctarget.5Cd1lx_mango_ghs.5Cobj.5Cr_sys_wm.111::
                        3393 .LDWlin111:
000008e8 1c30           3394 	mov	r28,r6
000008ea 1b38           3395 	mov	r27,r7
000008ec 23461800       3396 	movea	24,sp,r8
000008f0 234e1c00       3397 	movea	28,sp,r9
                        3398 	jarl	_R_VDCE_LayerChromaKeyEnable,lp
                        3398 <EXPANSION BEGIN>
                        3398 jarl22 _R_VDCE_LayerChromaKeyEnable , lp 
000008f4 80ff0000*      3398 <EXPANSION END>
000008f8 e051           3399 	cmp	zero,r10
000008fa c205*          3400 	be	.L1907
                        3401 --1093:             {
                        3402 --1094:                 return 0;
                        3403 --line1094
                        3404 ..lin.D.3A.5CRenesas_Electronics.5CD1x_RGL.5Crgl_ghs_D1Lx_obj_V1.2E2.2E0.5Cvlib.5Capp.5Cgfx_apps.5Csimple_draw_d1l2.5Ctarget.5Cd1lx_mango_ghs.5Cobj.5Cr_sys_wm.112::
                        3405 .LDWlin112:
000008fc 0052           3406 	mov	0,r10
000008fe 8007de02*      3407 	br	.L1889
                        3408 .L1907:
                        3409 --1095:             }
                        3410 --1096:         }
                        3411 --1097:         
                        3412 --1098:         if (R_VDCE_ERR_OK != R_VDCE_LayerFormatSet(Unit, layer, loc_GetVdceFormat(cur_win->ColorFmt)))
                        3413 --line1098
                        3414 ..lin.D.3A.5CRenesas_Electronics.5CD1x_RGL.5Crgl_ghs_D1Lx_obj_V1.2E2.2E0.5Cvlib.5Capp.5Cgfx_apps.5Csimple_draw_d1l2.5Ctarget.5Cd1lx_mango_ghs.5Cobj.5Cr_sys_wm.113::
                        3415 .LDWlin113:
00000902 3d370900       3416 	ld.w	8[r29],r6
                        3417 	jarl	_loc_GetVdceFormat,lp
                        3417 <EXPANSION BEGIN>
                        3417 jarl22 _loc_GetVdceFormat , lp 
00000906 bfff70fa*      3417 <EXPANSION END>
0000090a 1c30           3418 	mov	r28,r6
0000090c 1b38           3419 	mov	r27,r7
0000090e 0a40           3420 	mov	r10,r8
                        3421 	jarl	_R_VDCE_LayerFormatSet,lp
                        3421 <EXPANSION BEGIN>
                        3421 jarl22 _R_VDCE_LayerFormatSet , lp 
00000910 80ff0000*      3421 <EXPANSION END>
00000914 e051           3422 	cmp	zero,r10
00000916 c205*          3423 	be	.L1918

                                                                      Page 59
                                                              C:\Users\YINGAO~1\AppData\Local\Temp\gh_000084c1.si
                        3424 --1099:         {
                        3425 --1100:             return 0;
                        3426 --line1100
                        3427 ..lin.D.3A.5CRenesas_Electronics.5CD1x_RGL.5Crgl_ghs_D1Lx_obj_V1.2E2.2E0.5Cvlib.5Capp.5Cgfx_apps.5Csimple_draw_d1l2.5Ctarget.5Cd1lx_mango_ghs.5Cobj.5Cr_sys_wm.114::
                        3428 .LDWlin114:
00000918 0052           3429 	mov	0,r10
0000091a 8007c202*      3430 	br	.L1889
                        3431 .L1918:
                        3432 --1101:         }
                        3433 --1102:         if (0 < cur_win->ClutNumEntries)
                        3434 --line1102
                        3435 ..lin.D.3A.5CRenesas_Electronics.5CD1x_RGL.5Crgl_ghs_D1Lx_obj_V1.2E2.2E0.5Cvlib.5Capp.5Cgfx_apps.5Csimple_draw_d1l2.5Ctarget.5Cd1lx_mango_ghs.5Cobj.5Cr_sys_wm.115::
                        3436 .LDWlin115:
0000091e 3d0f3500       3437 	ld.w	52[r29],r1
00000922 e009           3438 	cmp	zero,r1
00000924 e30d*          3439 	bnh	.L1921
                        3440 --1103:         {
                        3441 --1104:             r_wm_DevSys[Unit].FrameStatusFlags |= (1uL << (R_WM_SYS_FRAME_STATUS_LAYER_0_CLUT_UPDATE_BIT+layer));
                        3442 --line1104
                        3443 ..lin.D.3A.5CRenesas_Electronics.5CD1x_RGL.5Crgl_ghs_D1Lx_obj_V1.2E2.2E0.5Cvlib.5Capp.5Cgfx_apps.5Csimple_draw_d1l2.5Ctarget.5Cd1lx_mango_ghs.5Cobj.5Cr_sys_wm.116::
                        3444 .LDWlin116:
00000926 1cf0           3445 	mov	r28,ep
00000928 fe00           3446 	sxh	ep
0000092a fef66000       3447 	mulhi	96,ep,ep
0000092e 1b0e0700       3448 	addi	7,r27,r1
00000932 0172           3449 	mov	1,r14
00000934 e177c270       3450 	shl	r1,r14,r14
00000938 daf1           3451 	add	r26,ep
0000093a 2a0d           3452 	sld.w	84[ep],r1
0000093c 0e09           3453 	or	r14,r1
0000093e 2b0d           3454 	sst.w	r1,84[ep]
                        3455 .L1921:
                        3456 --1105:         }
                        3457 --1106: 		
                        3458 --1107: 		/* update the scaling */
                        3459 --1108:         if  (   (layer == R_VDCE_LAYER_SCALER0)
00000940 e0d9           3460 	cmp	zero,r27
00000942 b205*          3461 	be	.L1924
00000944 61da           3462 	cmp	1,r27
00000946 ea65*          3463 	bne	.L1923
                        3464 .L1924:
                        3465 --1109:             ||
                        3466 --1110:             (layer == R_VDCE_LAYER_SCALER1)
                        3467 --1111:         )
                        3468 --1112:         {
                        3469 --1113:             if (r_wm_DevSys[Unit].RootCapt->Window == cur_win)
                        3470 --line1113
                        3471 ..lin.D.3A.5CRenesas_Electronics.5CD1x_RGL.5Crgl_ghs_D1Lx_obj_V1.2E2.2E0.5Cvlib.5Capp.5Cgfx_apps.5Csimple_draw_d1l2.5Ctarget.5Cd1lx_mango_ghs.5Cobj.5Cr_sys_wm.117::
                        3472 .LDWlin117:
00000948 1cf0           3473 	mov	r28,ep
0000094a fe00           3474 	sxh	ep
0000094c fef66000       3475 	mulhi	96,ep,ep
00000950 daf1           3476 	add	r26,ep
00000952 24f5           3477 	sld.w	72[ep],ep
00000954 000d           3478 	sld.w	0[ep],r1
00000956 fd09           3479 	cmp	r29,r1
00000958 da45*          3480 	bne	.L1926
                        3481 --1114:             {
                        3482 --1115:                 if (r_wm_DevSys[Unit].RootCapt->ScaledWidth != 0)
                        3483 --line1115
                        3484 ..lin.D.3A.5CRenesas_Electronics.5CD1x_RGL.5Crgl_ghs_D1Lx_obj_V1.2E2.2E0.5Cvlib.5Capp.5Cgfx_apps.5Csimple_draw_d1l2.5Ctarget.5Cd1lx_mango_ghs.5Cobj.5Cr_sys_wm.118::

                                                                      Page 60
                                                              C:\Users\YINGAO~1\AppData\Local\Temp\gh_000084c1.si
                        3485 .LDWlin118:
0000095a 1cf0           3486 	mov	r28,ep
0000095c fe00           3487 	sxh	ep
0000095e fef66000       3488 	mulhi	96,ep,ep
00000962 daf1           3489 	add	r26,ep
00000964 24f5           3490 	sld.w	72[ep],ep
00000966 100d           3491 	sld.w	32[ep],r1
00000968 e009           3492 	cmp	zero,r1
0000096a a21d*          3493 	be	.L1928
                        3494 --1116:                 {
                        3495 --1117:                     if (0 == R_VDCE_LayerImgScaleX(
                        3496 --line1117
                        3497 ..lin.D.3A.5CRenesas_Electronics.5CD1x_RGL.5Crgl_ghs_D1Lx_obj_V1.2E2.2E0.5Cvlib.5Capp.5Cgfx_apps.5Csimple_draw_d1l2.5Ctarget.5Cd1lx_mango_ghs.5Cobj.5Cr_sys_wm.119::
                        3498 .LDWlin119:
0000096c 1cf0           3499 	mov	r28,ep
0000096e fe00           3500 	sxh	ep
00000970 fef66000       3501 	mulhi	96,ep,ep
00000974 daf1           3502 	add	r26,ep
00000976 24f5           3503 	sld.w	72[ep],ep
00000978 160d           3504 	sld.w	44[ep],r1
0000097a 1cf0           3505 	mov	r28,ep
0000097c fe00           3506 	sxh	ep
0000097e fef66000       3507 	mulhi	96,ep,ep
00000982 daf1           3508 	add	r26,ep
00000984 24f5           3509 	sld.w	72[ep],ep
00000986 1045           3510 	sld.w	32[ep],r8
00000988 014a           3511 	mov	1,r9
0000098a 3c09           3512 	xor	r28,r1
0000098c 1c30           3513 	mov	r28,r6
0000098e 0138           3514 	mov	r1,r7
                        3515 	jarl	_R_VDCE_LayerImgScaleX,lp
                        3515 <EXPANSION BEGIN>
                        3515 jarl22 _R_VDCE_LayerImgScaleX , lp 
00000990 80ff0000*      3515 <EXPANSION END>
00000994 e051           3516 	cmp	zero,r10
00000996 ca05*          3517 	bne	.L1928
                        3518 --1118:                                     Unit /*r_wm_DevSys[Unit].RootCapt->CapUnit */, 
                        3519 --1119:                                     Unit ^ r_wm_DevSys[Unit].RootCapt->CapUnit, 
                        3520 --1120:                                     r_wm_DevSys[Unit].RootCapt->ScaledWidth, 
                        3521 --1121:                                     R_VDCE_SCALING_SMALLER))
                        3522 --1122:                     {
                        3523 --1123:                         return 0;
                        3524 --line1123
                        3525 ..lin.D.3A.5CRenesas_Electronics.5CD1x_RGL.5Crgl_ghs_D1Lx_obj_V1.2E2.2E0.5Cvlib.5Capp.5Cgfx_apps.5Csimple_draw_d1l2.5Ctarget.5Cd1lx_mango_ghs.5Cobj.5Cr_sys_wm.120::
                        3526 .LDWlin120:
00000998 0052           3527 	mov	0,r10
0000099a 80074202*      3528 	br	.L1889
                        3529 .L1928:
                        3530 --1124:                     }
                        3531 --1125:                 }
                        3532 --1126:                 if (r_wm_DevSys[Unit].RootCapt->ScaledHeight != 0)
                        3533 --line1126
                        3534 ..lin.D.3A.5CRenesas_Electronics.5CD1x_RGL.5Crgl_ghs_D1Lx_obj_V1.2E2.2E0.5Cvlib.5Capp.5Cgfx_apps.5Csimple_draw_d1l2.5Ctarget.5Cd1lx_mango_ghs.5Cobj.5Cr_sys_wm.121::
                        3535 .LDWlin121:
0000099e 1cf0           3536 	mov	r28,ep
000009a0 fe00           3537 	sxh	ep
000009a2 fef66000       3538 	mulhi	96,ep,ep
000009a6 daf1           3539 	add	r26,ep
000009a8 24f5           3540 	sld.w	72[ep],ep
000009aa 120d           3541 	sld.w	36[ep],r1
000009ac e009           3542 	cmp	zero,r1

                                                                      Page 61
                                                              C:\Users\YINGAO~1\AppData\Local\Temp\gh_000084c1.si
000009ae a235*          3543 	be	.L1923
                        3544 --1127:                 {
                        3545 --1128:                     if (0 == R_VDCE_LayerImgScaleY(
                        3546 --line1128
                        3547 ..lin.D.3A.5CRenesas_Electronics.5CD1x_RGL.5Crgl_ghs_D1Lx_obj_V1.2E2.2E0.5Cvlib.5Capp.5Cgfx_apps.5Csimple_draw_d1l2.5Ctarget.5Cd1lx_mango_ghs.5Cobj.5Cr_sys_wm.122::
                        3548 .LDWlin122:
000009b0 1cf0           3549 	mov	r28,ep
000009b2 fe00           3550 	sxh	ep
000009b4 fef66000       3551 	mulhi	96,ep,ep
000009b8 daf1           3552 	add	r26,ep
000009ba 24f5           3553 	sld.w	72[ep],ep
000009bc 160d           3554 	sld.w	44[ep],r1
000009be 1cf0           3555 	mov	r28,ep
000009c0 fe00           3556 	sxh	ep
000009c2 fef66000       3557 	mulhi	96,ep,ep
000009c6 daf1           3558 	add	r26,ep
000009c8 24f5           3559 	sld.w	72[ep],ep
000009ca 1245           3560 	sld.w	36[ep],r8
000009cc 014a           3561 	mov	1,r9
000009ce 3c09           3562 	xor	r28,r1
000009d0 1c30           3563 	mov	r28,r6
000009d2 0138           3564 	mov	r1,r7
                        3565 	jarl	_R_VDCE_LayerImgScaleY,lp
                        3565 <EXPANSION BEGIN>
                        3565 jarl22 _R_VDCE_LayerImgScaleY , lp 
000009d4 80ff0000*      3565 <EXPANSION END>
000009d8 e051           3566 	cmp	zero,r10
000009da ca1d*          3567 	bne	.L1923
                        3568 --1129:                                     Unit /*r_wm_DevSys[Unit].RootCapt->CapUnit*/, 
                        3569 --1130:                                     Unit ^ r_wm_DevSys[Unit].RootCapt->CapUnit, 
                        3570 --1131:                                     r_wm_DevSys[Unit].RootCapt->ScaledHeight, 
                        3571 --1132:                                     R_VDCE_SCALING_SMALLER))
                        3572 --1133:                     {
                        3573 --1134:                         return 0;
                        3574 --line1134
                        3575 ..lin.D.3A.5CRenesas_Electronics.5CD1x_RGL.5Crgl_ghs_D1Lx_obj_V1.2E2.2E0.5Cvlib.5Capp.5Cgfx_apps.5Csimple_draw_d1l2.5Ctarget.5Cd1lx_mango_ghs.5Cobj.5Cr_sys_wm.123::
                        3576 .LDWlin123:
000009dc 0052           3577 	mov	0,r10
000009de 8007fe01*      3578 	br	.L1889
                        3579 .L1926:
                        3580 --1135:                     }
                        3581 --1136:                 }
                        3582 --1137:             }
                        3583 --1138:             else
                        3584 --1139:             {
                        3585 --1140:                 if (0 == R_VDCE_LayerImgScaleX(Unit, layer, cur_win->Width, R_VDCE_SCALING_DISABLE))
                        3586 --line1140
                        3587 ..lin.D.3A.5CRenesas_Electronics.5CD1x_RGL.5Crgl_ghs_D1Lx_obj_V1.2E2.2E0.5Cvlib.5Capp.5Cgfx_apps.5Csimple_draw_d1l2.5Ctarget.5Cd1lx_mango_ghs.5Cobj.5Cr_sys_wm.124::
                        3588 .LDWlin124:
000009e2 3d471d00       3589 	ld.w	28[r29],r8
000009e6 1c30           3590 	mov	r28,r6
000009e8 1b38           3591 	mov	r27,r7
000009ea 024a           3592 	mov	2,r9
                        3593 	jarl	_R_VDCE_LayerImgScaleX,lp
                        3593 <EXPANSION BEGIN>
                        3593 jarl22 _R_VDCE_LayerImgScaleX , lp 
000009ec 80ff0000*      3593 <EXPANSION END>
000009f0 e051           3594 	cmp	zero,r10
000009f2 ca05*          3595 	bne	.L1939
                        3596 --1141:                 {
                        3597 --1142:                     return 0;

                                                                      Page 62
                                                              C:\Users\YINGAO~1\AppData\Local\Temp\gh_000084c1.si
                        3598 --line1142
                        3599 ..lin.D.3A.5CRenesas_Electronics.5CD1x_RGL.5Crgl_ghs_D1Lx_obj_V1.2E2.2E0.5Cvlib.5Capp.5Cgfx_apps.5Csimple_draw_d1l2.5Ctarget.5Cd1lx_mango_ghs.5Cobj.5Cr_sys_wm.125::
                        3600 .LDWlin125:
000009f4 0052           3601 	mov	0,r10
000009f6 8007e601*      3602 	br	.L1889
                        3603 .L1939:
                        3604 --1143:                 }
                        3605 --1144:                 if (0 == R_VDCE_LayerImgScaleY(Unit, layer, cur_win->Height, R_VDCE_SCALING_DISABLE))
                        3606 --line1144
                        3607 ..lin.D.3A.5CRenesas_Electronics.5CD1x_RGL.5Crgl_ghs_D1Lx_obj_V1.2E2.2E0.5Cvlib.5Capp.5Cgfx_apps.5Csimple_draw_d1l2.5Ctarget.5Cd1lx_mango_ghs.5Cobj.5Cr_sys_wm.126::
                        3608 .LDWlin126:
000009fa 3d472100       3609 	ld.w	32[r29],r8
000009fe 1c30           3610 	mov	r28,r6
00000a00 1b38           3611 	mov	r27,r7
00000a02 024a           3612 	mov	2,r9
                        3613 	jarl	_R_VDCE_LayerImgScaleY,lp
                        3613 <EXPANSION BEGIN>
                        3613 jarl22 _R_VDCE_LayerImgScaleY , lp 
00000a04 80ff0000*      3613 <EXPANSION END>
00000a08 e051           3614 	cmp	zero,r10
00000a0a ca05*          3615 	bne	.L1923
                        3616 --1145:                 {
                        3617 --1146:                     return 0;
                        3618 --line1146
                        3619 ..lin.D.3A.5CRenesas_Electronics.5CD1x_RGL.5Crgl_ghs_D1Lx_obj_V1.2E2.2E0.5Cvlib.5Capp.5Cgfx_apps.5Csimple_draw_d1l2.5Ctarget.5Cd1lx_mango_ghs.5Cobj.5Cr_sys_wm.127::
                        3620 .LDWlin127:
00000a0c 0052           3621 	mov	0,r10
00000a0e 8007ce01*      3622 	br	.L1889
                        3623 .L1923:
                        3624 --1147:                 }
                        3625 --1148:             }
                        3626 --1149:         }
                        3627 --1151:         /* Layer 0 and Layer 4 cannot be assigned constant Alpha */
                        3628 --1152:         if((0 < layer) && (layer < 4) && (cur_win->ColorKey.Enabled == 0))
                        3629 --line1152
                        3630 ..lin.D.3A.5CRenesas_Electronics.5CD1x_RGL.5Crgl_ghs_D1Lx_obj_V1.2E2.2E0.5Cvlib.5Capp.5Cgfx_apps.5Csimple_draw_d1l2.5Ctarget.5Cd1lx_mango_ghs.5Cobj.5Cr_sys_wm.128::
                        3631 .LDWlin128:
00000a12 e0d9           3632 	cmp	zero,r27
00000a14 a315*          3633 	bnh	.L1945
00000a16 64da           3634 	cmp	4,r27
00000a18 8915*          3635 	bnl	.L1945
00000a1a 9d0f3d00       3636 	ld.bu	60[r29],r1
00000a1e e009           3637 	cmp	zero,r1
00000a20 ca0d*          3638 	bne	.L1945
                        3639 --1153:         {
                        3640 --1154:             if (R_VDCE_ERR_OK != R_VDCE_LayerAlphaConstEnable(Unit, layer, cur_win->Alpha))
                        3641 --line1154
                        3642 ..lin.D.3A.5CRenesas_Electronics.5CD1x_RGL.5Crgl_ghs_D1Lx_obj_V1.2E2.2E0.5Cvlib.5Capp.5Cgfx_apps.5Csimple_draw_d1l2.5Ctarget.5Cd1lx_mango_ghs.5Cobj.5Cr_sys_wm.129::
                        3643 .LDWlin129:
00000a22 9d473100       3644 	ld.bu	48[r29],r8
00000a26 1c30           3645 	mov	r28,r6
00000a28 1b38           3646 	mov	r27,r7
                        3647 	jarl	_R_VDCE_LayerAlphaConstEnable,lp
                        3647 <EXPANSION BEGIN>
                        3647 jarl22 _R_VDCE_LayerAlphaConstEnable , lp 
00000a2a 80ff0000*      3647 <EXPANSION END>
00000a2e e051           3648 	cmp	zero,r10
00000a30 c205*          3649 	be	.L1945
                        3650 --1155:             {
                        3651 --1156:                 return 0;
                        3652 --line1156

                                                                      Page 63
                                                              C:\Users\YINGAO~1\AppData\Local\Temp\gh_000084c1.si
                        3653 ..lin.D.3A.5CRenesas_Electronics.5CD1x_RGL.5Crgl_ghs_D1Lx_obj_V1.2E2.2E0.5Cvlib.5Capp.5Cgfx_apps.5Csimple_draw_d1l2.5Ctarget.5Cd1lx_mango_ghs.5Cobj.5Cr_sys_wm.130::
                        3654 .LDWlin130:
00000a32 0052           3655 	mov	0,r10
00000a34 8007a801*      3656 	br	.L1889
                        3657 .L1945:
                        3658 --1157:             }
                        3659 --1158:         }
                        3660 --1159:         if((0 < layer) && (layer < 4))
                        3661 --line1159
                        3662 ..lin.D.3A.5CRenesas_Electronics.5CD1x_RGL.5Crgl_ghs_D1Lx_obj_V1.2E2.2E0.5Cvlib.5Capp.5Cgfx_apps.5Csimple_draw_d1l2.5Ctarget.5Cd1lx_mango_ghs.5Cobj.5Cr_sys_wm.131::
                        3663 .LDWlin131:
00000a38 e0d9           3664 	cmp	zero,r27
00000a3a c325*          3665 	bnh	.L1952
00000a3c 64da           3666 	cmp	4,r27
00000a3e a925*          3667 	bnl	.L1952
                        3668 --1160:         {
                        3669 --1161:             if (R_VDCE_ERR_OK != R_VDCE_LayerAlphaChannelEnable(Unit, layer))
                        3670 --line1161
                        3671 ..lin.D.3A.5CRenesas_Electronics.5CD1x_RGL.5Crgl_ghs_D1Lx_obj_V1.2E2.2E0.5Cvlib.5Capp.5Cgfx_apps.5Csimple_draw_d1l2.5Ctarget.5Cd1lx_mango_ghs.5Cobj.5Cr_sys_wm.132::
                        3672 .LDWlin132:
00000a40 1c30           3673 	mov	r28,r6
00000a42 1b38           3674 	mov	r27,r7
                        3675 	jarl	_R_VDCE_LayerAlphaChannelEnable,lp
                        3675 <EXPANSION BEGIN>
                        3675 jarl22 _R_VDCE_LayerAlphaChannelEnable , lp 
00000a44 80ff0000*      3675 <EXPANSION END>
00000a48 e051           3676 	cmp	zero,r10
00000a4a c205*          3677 	be	.L1955
                        3678 --1162:             {
                        3679 --1163:                 return 0;
                        3680 --line1163
                        3681 ..lin.D.3A.5CRenesas_Electronics.5CD1x_RGL.5Crgl_ghs_D1Lx_obj_V1.2E2.2E0.5Cvlib.5Capp.5Cgfx_apps.5Csimple_draw_d1l2.5Ctarget.5Cd1lx_mango_ghs.5Cobj.5Cr_sys_wm.133::
                        3682 .LDWlin133:
00000a4c 0052           3683 	mov	0,r10
00000a4e 80078e01*      3684 	br	.L1889
                        3685 .L1955:
                        3686 --1164:             }
                        3687 --1165:             
                        3688 --1166:             if (R_FALSE != cur_win->UsePremultipliedAlpha)
                        3689 --line1166
                        3690 ..lin.D.3A.5CRenesas_Electronics.5CD1x_RGL.5Crgl_ghs_D1Lx_obj_V1.2E2.2E0.5Cvlib.5Capp.5Cgfx_apps.5Csimple_draw_d1l2.5Ctarget.5Cd1lx_mango_ghs.5Cobj.5Cr_sys_wm.134::
                        3691 .LDWlin134:
00000a52 bd0f3100       3692 	ld.bu	49[r29],r1
00000a56 e009           3693 	cmp	zero,r1
00000a58 820d*          3694 	be	.L1958
                        3695 --1167:             {
                        3696 --1168:                 vdce_err = R_VDCE_LayerPremultipliedAlphaEnable(Unit, layer);
                        3697 --line1168
                        3698 ..lin.D.3A.5CRenesas_Electronics.5CD1x_RGL.5Crgl_ghs_D1Lx_obj_V1.2E2.2E0.5Cvlib.5Capp.5Cgfx_apps.5Csimple_draw_d1l2.5Ctarget.5Cd1lx_mango_ghs.5Cobj.5Cr_sys_wm.135::
                        3699 .LDWlin135:
00000a5a 1c30           3700 	mov	r28,r6
00000a5c 1b38           3701 	mov	r27,r7
                        3702 	jarl	_R_VDCE_LayerPremultipliedAlphaEnable,lp
                        3702 <EXPANSION BEGIN>
                        3702 jarl22 _R_VDCE_LayerPremultipliedAlphaEnable , lp 
00000a5e 80ff0000*      3702 <EXPANSION END>
00000a62 63572500       3703 	st.w	r10,36[sp]
00000a66 f505*          3704 	br	.L1960
                        3705 .L1958:
                        3706 --1169:             }
                        3707 --1170:             else

                                                                      Page 64
                                                              C:\Users\YINGAO~1\AppData\Local\Temp\gh_000084c1.si
                        3708 --1171:             {
                        3709 --1172:                 vdce_err = R_VDCE_LayerPremultipliedAlphaDisable(Unit, layer);
                        3710 --line1172
                        3711 ..lin.D.3A.5CRenesas_Electronics.5CD1x_RGL.5Crgl_ghs_D1Lx_obj_V1.2E2.2E0.5Cvlib.5Capp.5Cgfx_apps.5Csimple_draw_d1l2.5Ctarget.5Cd1lx_mango_ghs.5Cobj.5Cr_sys_wm.136::
                        3712 .LDWlin136:
00000a68 1c30           3713 	mov	r28,r6
00000a6a 1b38           3714 	mov	r27,r7
                        3715 	jarl	_R_VDCE_LayerPremultipliedAlphaDisable,lp
                        3715 <EXPANSION BEGIN>
                        3715 jarl22 _R_VDCE_LayerPremultipliedAlphaDisable , lp 
00000a6c 80ff0000*      3715 <EXPANSION END>
00000a70 63572500       3716 	st.w	r10,36[sp]
                        3717 .L1960:
                        3718 --1173:             }
                        3719 --1174:             if (vdce_err != R_VDCE_ERR_OK)
                        3720 --line1174
                        3721 ..lin.D.3A.5CRenesas_Electronics.5CD1x_RGL.5Crgl_ghs_D1Lx_obj_V1.2E2.2E0.5Cvlib.5Capp.5Cgfx_apps.5Csimple_draw_d1l2.5Ctarget.5Cd1lx_mango_ghs.5Cobj.5Cr_sys_wm.137::
                        3722 .LDWlin137:
00000a74 235f2500       3723 	ld.w	36[sp],r11
00000a78 e059           3724 	cmp	zero,r11
00000a7a c205*          3725 	be	.L1952
                        3726 --1175:             {
                        3727 --1176:                 return 0;
                        3728 --line1176
                        3729 ..lin.D.3A.5CRenesas_Electronics.5CD1x_RGL.5Crgl_ghs_D1Lx_obj_V1.2E2.2E0.5Cvlib.5Capp.5Cgfx_apps.5Csimple_draw_d1l2.5Ctarget.5Cd1lx_mango_ghs.5Cobj.5Cr_sys_wm.138::
                        3730 .LDWlin138:
00000a7c 0052           3731 	mov	0,r10
00000a7e 80075e01*      3732 	br	.L1889
                        3733 .L1952:
                        3734 --1177:             }
                        3735 --1178:         }
                        3736 --1179:         
                        3737 --1180:         /* Set vertical mirroring */
                        3738 --1181:         /* Enable vertical mirroring */
                        3739 --1182:         if ( 0 != ( ((uint32_t)cur_win->Flags) & ((uint32_t)R_WM_WINFLAG_V_MIRROR) ) )
                        3740 --line1182
                        3741 ..lin.D.3A.5CRenesas_Electronics.5CD1x_RGL.5Crgl_ghs_D1Lx_obj_V1.2E2.2E0.5Cvlib.5Capp.5Cgfx_apps.5Csimple_draw_d1l2.5Ctarget.5Cd1lx_mango_ghs.5Cobj.5Cr_sys_wm.139::
                        3742 .LDWlin139:
00000a82 3d0f4500       3743 	ld.w	68[r29],r1
00000a86 810a           3744 	shr	1,r1
00000a88 b90d*          3745 	bnl	.L1964
                        3746 --1183:         {
                        3747 --1184:             if (R_VDCE_ERR_OK != R_VDCE_LayerModeSet(Unit, layer, R_VDCE_LAYER_MODE_V_MIRORING) )
                        3748 --line1184
                        3749 ..lin.D.3A.5CRenesas_Electronics.5CD1x_RGL.5Crgl_ghs_D1Lx_obj_V1.2E2.2E0.5Cvlib.5Capp.5Cgfx_apps.5Csimple_draw_d1l2.5Ctarget.5Cd1lx_mango_ghs.5Cobj.5Cr_sys_wm.140::
                        3750 .LDWlin140:
00000a8a 1c30           3751 	mov	r28,r6
00000a8c 1b38           3752 	mov	r27,r7
00000a8e 0142           3753 	mov	1,r8
                        3754 	jarl	_R_VDCE_LayerModeSet,lp
                        3754 <EXPANSION BEGIN>
                        3754 jarl22 _R_VDCE_LayerModeSet , lp 
00000a90 80ff0000*      3754 <EXPANSION END>
00000a94 e051           3755 	cmp	zero,r10
00000a96 c205*          3756 	be	.L1964
                        3757 --1185:             {
                        3758 --1186:                 return 0;
                        3759 --line1186
                        3760 ..lin.D.3A.5CRenesas_Electronics.5CD1x_RGL.5Crgl_ghs_D1Lx_obj_V1.2E2.2E0.5Cvlib.5Capp.5Cgfx_apps.5Csimple_draw_d1l2.5Ctarget.5Cd1lx_mango_ghs.5Cobj.5Cr_sys_wm.141::
                        3761 .LDWlin141:
00000a98 0052           3762 	mov	0,r10

                                                                      Page 65
                                                              C:\Users\YINGAO~1\AppData\Local\Temp\gh_000084c1.si
00000a9a 80074201*      3763 	br	.L1889
                        3764 .L1964:
                        3765 --1187:             }
                        3766 --1188:         }
                        3767 --1189:     
                        3768 --1190:         /* Disable vertical mirroring */
                        3769 --1191:         if ( 0 != ( ((uint32_t)cur_win->Flags) & ((uint32_t)R_WM_WINFLAG_V_MIRROR) ) )
                        3770 --line1191
                        3771 ..lin.D.3A.5CRenesas_Electronics.5CD1x_RGL.5Crgl_ghs_D1Lx_obj_V1.2E2.2E0.5Cvlib.5Capp.5Cgfx_apps.5Csimple_draw_d1l2.5Ctarget.5Cd1lx_mango_ghs.5Cobj.5Cr_sys_wm.142::
                        3772 .LDWlin142:
00000a9e 3d0f4500       3773 	ld.w	68[r29],r1
00000aa2 810a           3774 	shr	1,r1
00000aa4 b90d*          3775 	bnl	.L1969
                        3776 --1192:         {
                        3777 --1193:             if (R_VDCE_ERR_OK != R_VDCE_LayerModeSet(Unit, layer, R_VDCE_LAYER_MODE_NONE) )
                        3778 --line1193
                        3779 ..lin.D.3A.5CRenesas_Electronics.5CD1x_RGL.5Crgl_ghs_D1Lx_obj_V1.2E2.2E0.5Cvlib.5Capp.5Cgfx_apps.5Csimple_draw_d1l2.5Ctarget.5Cd1lx_mango_ghs.5Cobj.5Cr_sys_wm.143::
                        3780 .LDWlin143:
00000aa6 1c30           3781 	mov	r28,r6
00000aa8 1b38           3782 	mov	r27,r7
00000aaa 0042           3783 	mov	0,r8
                        3784 	jarl	_R_VDCE_LayerModeSet,lp
                        3784 <EXPANSION BEGIN>
                        3784 jarl22 _R_VDCE_LayerModeSet , lp 
00000aac 80ff0000*      3784 <EXPANSION END>
00000ab0 e051           3785 	cmp	zero,r10
00000ab2 c205*          3786 	be	.L1969
                        3787 --1194:             {
                        3788 --1195:                 return 0;
                        3789 --line1195
                        3790 ..lin.D.3A.5CRenesas_Electronics.5CD1x_RGL.5Crgl_ghs_D1Lx_obj_V1.2E2.2E0.5Cvlib.5Capp.5Cgfx_apps.5Csimple_draw_d1l2.5Ctarget.5Cd1lx_mango_ghs.5Cobj.5Cr_sys_wm.144::
                        3791 .LDWlin144:
00000ab4 0052           3792 	mov	0,r10
00000ab6 80072601*      3793 	br	.L1889
                        3794 .L1969:
                        3795 --1196:             }
                        3796 --1197:         }
                        3797 --1199:         
                        3798 --1200:         /* set the layer base address from the ON_SCREEN fb */
                        3799 --1201:         if (cur_win->Mode != R_WM_WINMODE_SPRITES)
                        3800 --line1201
                        3801 ..lin.D.3A.5CRenesas_Electronics.5CD1x_RGL.5Crgl_ghs_D1Lx_obj_V1.2E2.2E0.5Cvlib.5Capp.5Cgfx_apps.5Csimple_draw_d1l2.5Ctarget.5Cd1lx_mango_ghs.5Cobj.5Cr_sys_wm.145::
                        3802 .LDWlin145:
00000aba 3d0f0500       3803 	ld.w	4[r29],r1
00000abe 610a           3804 	cmp	1,r1
00000ac0 a21d*          3805 	be	.L1974
                        3806 --1202:         {
                        3807 --1203:             fb = loc_WinGetOnScreenFb(cur_win);
                        3808 --line1203
                        3809 ..lin.D.3A.5CRenesas_Electronics.5CD1x_RGL.5Crgl_ghs_D1Lx_obj_V1.2E2.2E0.5Cvlib.5Capp.5Cgfx_apps.5Csimple_draw_d1l2.5Ctarget.5Cd1lx_mango_ghs.5Cobj.5Cr_sys_wm.146::
                        3810 .LDWlin146:
00000ac2 1d30           3811 	mov	r29,r6
                        3812 	jarl	_loc_WinGetOnScreenFb,lp
                        3812 <EXPANSION BEGIN>
                        3812 jarl22 _loc_WinGetOnScreenFb , lp 
00000ac4 80ff7a03*      3812 <EXPANSION END>
00000ac8 63572d00       3813 	st.w	r10,44[sp]
                        3814 --1204:             if (fb != 0)
                        3815 --line1204
                        3816 ..lin.D.3A.5CRenesas_Electronics.5CD1x_RGL.5Crgl_ghs_D1Lx_obj_V1.2E2.2E0.5Cvlib.5Capp.5Cgfx_apps.5Csimple_draw_d1l2.5Ctarget.5Cd1lx_mango_ghs.5Cobj.5Cr_sys_wm.147::
                        3817 .LDWlin147:

                                                                      Page 66
                                                              C:\Users\YINGAO~1\AppData\Local\Temp\gh_000084c1.si
00000acc 235f2d00       3818 	ld.w	44[sp],r11
00000ad0 e059           3819 	cmp	zero,r11
00000ad2 923d*          3820 	be	.L1981
                        3821 --1205:             {
                        3822 --1206:                 if (0 == loc_WinSetFb(Unit, cur_win, cur_win->PosX, cur_win->PosY, fb))
                        3823 --line1206
                        3824 ..lin.D.3A.5CRenesas_Electronics.5CD1x_RGL.5Crgl_ghs_D1Lx_obj_V1.2E2.2E0.5Cvlib.5Capp.5Cgfx_apps.5Csimple_draw_d1l2.5Ctarget.5Cd1lx_mango_ghs.5Cobj.5Cr_sys_wm.148::
                        3825 .LDWlin148:
00000ad4 235f2d00       3826 	ld.w	44[sp],r11
00000ad8 1c30           3827 	mov	r28,r6
00000ada 3d470d00       3828 	ld.w	12[r29],r8
00000ade 1d38           3829 	mov	r29,r7
00000ae0 3d4f1100       3830 	ld.w	16[r29],r9
00000ae4 635f0100       3831 	st.w	r11,0[sp]
                        3832 	jarl	_loc_WinSetFb,lp
                        3832 <EXPANSION BEGIN>
                        3832 jarl22 _loc_WinSetFb , lp 
00000ae8 80ff0402*      3832 <EXPANSION END>
00000aec e051           3833 	cmp	zero,r10
00000aee ba2d*          3834 	bne	.L1981
                        3835 --1207:                 {
                        3836 --1208:                     return 0;
                        3837 --line1208
                        3838 ..lin.D.3A.5CRenesas_Electronics.5CD1x_RGL.5Crgl_ghs_D1Lx_obj_V1.2E2.2E0.5Cvlib.5Capp.5Cgfx_apps.5Csimple_draw_d1l2.5Ctarget.5Cd1lx_mango_ghs.5Cobj.5Cr_sys_wm.149::
                        3839 .LDWlin149:
00000af0 0052           3840 	mov	0,r10
00000af2 d575*          3841 	br	.L1889
                        3842 .L1974:
                        3843 --1209:                 }
                        3844 --1210:             }
                        3845 --1211:         }
                        3846 --1212:         else
                        3847 --1213:         {
                        3848 --1214:             if (0 == loc_WinSetFb(Unit, cur_win, cur_win->PosX, cur_win->PosY, 0 /* will be set in the function */))
                        3849 --line1214
                        3850 ..lin.D.3A.5CRenesas_Electronics.5CD1x_RGL.5Crgl_ghs_D1Lx_obj_V1.2E2.2E0.5Cvlib.5Capp.5Cgfx_apps.5Csimple_draw_d1l2.5Ctarget.5Cd1lx_mango_ghs.5Cobj.5Cr_sys_wm.150::
                        3851 .LDWlin150:
00000af4 3d470d00       3852 	ld.w	12[r29],r8
00000af8 1c30           3853 	mov	r28,r6
00000afa 3d4f1100       3854 	ld.w	16[r29],r9
00000afe 1d38           3855 	mov	r29,r7
00000b00 63070100       3856 	st.w	zero,0[sp]
                        3857 	jarl	_loc_WinSetFb,lp
                        3857 <EXPANSION BEGIN>
                        3857 jarl22 _loc_WinSetFb , lp 
00000b04 80ffe801*      3857 <EXPANSION END>
00000b08 e051           3858 	cmp	zero,r10
00000b0a ba05*          3859 	bne	.L1982
                        3860 --1215:             {
                        3861 --1216:                 return 0;
                        3862 --line1216
                        3863 ..lin.D.3A.5CRenesas_Electronics.5CD1x_RGL.5Crgl_ghs_D1Lx_obj_V1.2E2.2E0.5Cvlib.5Capp.5Cgfx_apps.5Csimple_draw_d1l2.5Ctarget.5Cd1lx_mango_ghs.5Cobj.5Cr_sys_wm.151::
                        3864 .LDWlin151:
00000b0c 0052           3865 	mov	0,r10
00000b0e f565*          3866 	br	.L1889
                        3867 .L1982:
                        3868 --1217:             }
                        3869 --1218:             if (cur_win->Surface.SpritesRoot != 0)
                        3870 --line1218
                        3871 ..lin.D.3A.5CRenesas_Electronics.5CD1x_RGL.5Crgl_ghs_D1Lx_obj_V1.2E2.2E0.5Cvlib.5Capp.5Cgfx_apps.5Csimple_draw_d1l2.5Ctarget.5Cd1lx_mango_ghs.5Cobj.5Cr_sys_wm.152::
                        3872 .LDWlin152:

                                                                      Page 67
                                                              C:\Users\YINGAO~1\AppData\Local\Temp\gh_000084c1.si
00000b10 3d0f2500       3873 	ld.w	36[r29],r1
00000b14 e009           3874 	cmp	zero,r1
00000b16 f215*          3875 	be	.L1981
                        3876 --1219:             {
                        3877 --	    .bs
                        3878 .LDW69:
                        3879 --1220:                 uint8_t spea_unit_ordinal;
                        3880 --1221:                 r_spea_Unit_t spea_unit;
                        3881 --1222:                 
                        3882 --1223:                 loc_Layer2Spea(Unit, layer, &spea_unit, &spea_unit_ordinal);
                        3883 --line1223
                        3884 ..lin.D.3A.5CRenesas_Electronics.5CD1x_RGL.5Crgl_ghs_D1Lx_obj_V1.2E2.2E0.5Cvlib.5Capp.5Cgfx_apps.5Csimple_draw_d1l2.5Ctarget.5Cd1lx_mango_ghs.5Cobj.5Cr_sys_wm.153::
                        3885 .LDWlin153:
00000b18 1c30           3886 	mov	r28,r6
00000b1a 1b38           3887 	mov	r27,r7
00000b1c 23462000       3888 	movea	32,sp,r8
00000b20 234e1700       3889 	movea	23,sp,r9
                        3890 	jarl	_loc_Layer2Spea,lp
                        3890 <EXPANSION BEGIN>
                        3890 jarl22 _loc_Layer2Spea , lp 
00000b24 bfff2af9*      3890 <EXPANSION END>
                        3891 --1224:                 r_wm_DevSys[Unit].FrameStatusFlags |= (1uL << (R_WM_SYS_FRAME_STATUS_SPEA_SU0_REASSIGN_BIT+spea_unit_ordinal));
                        3892 --line1224
                        3893 ..lin.D.3A.5CRenesas_Electronics.5CD1x_RGL.5Crgl_ghs_D1Lx_obj_V1.2E2.2E0.5Cvlib.5Capp.5Cgfx_apps.5Csimple_draw_d1l2.5Ctarget.5Cd1lx_mango_ghs.5Cobj.5Cr_sys_wm.154::
                        3894 .LDWlin154:
00000b28 1cf0           3895 	mov	r28,ep
00000b2a a30f1700       3896 	ld.bu	23[sp],r1
00000b2e fe00           3897 	sxh	ep
00000b30 fef66000       3898 	mulhi	96,ep,ep
00000b34 0172           3899 	mov	1,r14
00000b36 440a           3900 	add	4,r1
00000b38 e177c270       3901 	shl	r1,r14,r14
00000b3c daf1           3902 	add	r26,ep
00000b3e 2a0d           3903 	sld.w	84[ep],r1
00000b40 0e09           3904 	or	r14,r1
00000b42 2b0d           3905 	sst.w	r1,84[ep]
                        3906 --	    .es
                        3907 .LDW79:
                        3908 .L1981:
                        3909 --1225:             }
                        3910 --1226:         }
                        3911 --1227:         /* This will also enable the layer */
                        3912 --1228:         if (0 == loc_WinSetViewportAndGeom( Unit,
00000b44 3d370900       3913 	ld.w	8[r29],r6
                        3914 	jarl	_R_WM_ColorFmtBitsPerPixGet,lp
                        3914 <EXPANSION BEGIN>
                        3914 jarl22 _R_WM_ColorFmtBitsPerPixGet , lp 
00000b48 80ff0000*      3914 <EXPANSION END>
00000b4c 3d771100       3915 	ld.w	16[r29],r14
00000b50 1c30           3916 	mov	r28,r6
00000b52 3d4f0d00       3917 	ld.w	12[r29],r9
00000b56 1d38           3918 	mov	r29,r7
00000b58 1b40           3919 	mov	r27,r8
00000b5a 63770100       3920 	st.w	r14,0[sp]
00000b5e 3d771900       3921 	ld.w	24[r29],r14
00000b62 63770500       3922 	st.w	r14,4[sp]
00000b66 3d771d00       3923 	ld.w	28[r29],r14
00000b6a 63770900       3924 	st.w	r14,8[sp]
00000b6e 3d772100       3925 	ld.w	32[r29],r14
00000b72 63571100       3926 	st.w	r10,16[sp]
00000b76 63770d00       3927 	st.w	r14,12[sp]

                                                                      Page 68
                                                              C:\Users\YINGAO~1\AppData\Local\Temp\gh_000084c1.si
                        3928 	jarl	_loc_WinSetViewportAndGeom,lp
                        3928 <EXPANSION BEGIN>
                        3928 jarl22 _loc_WinSetViewportAndGeom , lp 
00000b7a 80ff6600*      3928 <EXPANSION END>
00000b7e e051           3929 	cmp	zero,r10
00000b80 ba05*          3930 	bne	.L1987
                        3931 --1229:                                             cur_win,
                        3932 --1230:                                             layer,
                        3933 --1231:                                             cur_win->PosX,
                        3934 --1232:                                             cur_win->PosY,
                        3935 --1233:                                             cur_win->Pitch,
                        3936 --1234:                                             cur_win->Width,
                        3937 --1235:                                             cur_win->Height,
                        3938 --1236:                                             R_WM_ColorFmtBitsPerPixGet(cur_win->ColorFmt) ))
                        3939 --1237:         {
                        3940 --1238:             return 0;
                        3941 --line1238
                        3942 ..lin.D.3A.5CRenesas_Electronics.5CD1x_RGL.5Crgl_ghs_D1Lx_obj_V1.2E2.2E0.5Cvlib.5Capp.5Cgfx_apps.5Csimple_draw_d1l2.5Ctarget.5Cd1lx_mango_ghs.5Cobj.5Cr_sys_wm.155::
                        3943 .LDWlin155:
00000b82 0052           3944 	mov	0,r10
00000b84 c52d*          3945 	br	.L1889
                        3946 .L1987:
                        3947 --1239:         }
                        3948 --1241:         cur_win = cur_win->Next;
                        3949 --line1241
                        3950 ..lin.D.3A.5CRenesas_Electronics.5CD1x_RGL.5Crgl_ghs_D1Lx_obj_V1.2E2.2E0.5Cvlib.5Capp.5Cgfx_apps.5Csimple_draw_d1l2.5Ctarget.5Cd1lx_mango_ghs.5Cobj.5Cr_sys_wm.156::
                        3951 .LDWlin156:
00000b86 3d0f4900       3952 	ld.w	72[r29],r1
00000b8a 01e8           3953 	mov	r1,r29
                        3954 --1242:         ++layer;
00000b8c 41da           3955 	add	1,r27
                        3956 --1243:         ++slot;
00000b8e 41ca           3957 	add	1,r25
                        3958 .L1901:
00000b90 e0e9           3959 	cmp	zero,r29
00000b92 fa07b3fc*      3960 	bne	.L1903
                        3961 --1244:     }
                        3962 --1245:     for (; slot < R_VDCE_MAX_LAYERS; ++slot)
                        3963 --line1245
                        3964 ..lin.D.3A.5CRenesas_Electronics.5CD1x_RGL.5Crgl_ghs_D1Lx_obj_V1.2E2.2E0.5Cvlib.5Capp.5Cgfx_apps.5Csimple_draw_d1l2.5Ctarget.5Cd1lx_mango_ghs.5Cobj.5Cr_sys_wm.157::
                        3965 .LDWlin157:
00000b96 8525*          3966 	br	.L1993
                        3967 .L1992:
                        3968 --1246:     {
                        3969 --1247:         if (layer < R_VDCE_MAX_LAYERS)
                        3970 --line1247
                        3971 ..lin.D.3A.5CRenesas_Electronics.5CD1x_RGL.5Crgl_ghs_D1Lx_obj_V1.2E2.2E0.5Cvlib.5Capp.5Cgfx_apps.5Csimple_draw_d1l2.5Ctarget.5Cd1lx_mango_ghs.5Cobj.5Cr_sys_wm.158::
                        3972 .LDWlin158:
00000b98 64da           3973 	cmp	4,r27
00000b9a e905*          3974 	bnl	.L1994
                        3975 --1248:         {
                        3976 --1249:             loc_VDCE_LayerDisable(Unit, layer);
                        3977 --line1249
                        3978 ..lin.D.3A.5CRenesas_Electronics.5CD1x_RGL.5Crgl_ghs_D1Lx_obj_V1.2E2.2E0.5Cvlib.5Capp.5Cgfx_apps.5Csimple_draw_d1l2.5Ctarget.5Cd1lx_mango_ghs.5Cobj.5Cr_sys_wm.159::
                        3979 .LDWlin159:
00000b9c 1c30           3980 	mov	r28,r6
00000b9e 1b38           3981 	mov	r27,r7
                        3982 	jarl	_loc_VDCE_LayerDisable,lp
                        3982 <EXPANSION BEGIN>
                        3982 jarl22 _loc_VDCE_LayerDisable , lp 
00000ba0 80ff2603*      3982 <EXPANSION END>

                                                                      Page 69
                                                              C:\Users\YINGAO~1\AppData\Local\Temp\gh_000084c1.si
                        3983 --1250:             ++layer;
                        3984 --line1250
                        3985 ..lin.D.3A.5CRenesas_Electronics.5CD1x_RGL.5Crgl_ghs_D1Lx_obj_V1.2E2.2E0.5Cvlib.5Capp.5Cgfx_apps.5Csimple_draw_d1l2.5Ctarget.5Cd1lx_mango_ghs.5Cobj.5Cr_sys_wm.160::
                        3986 .LDWlin160:
00000ba4 41da           3987 	add	1,r27
                        3988 .L1994:
                        3989 --1251:         }
                        3990 --1252:         r_wm_DevSys[Unit].WinToLayerMap[slot].Win = R_NULL; 
00000ba6 1c08           3991 	mov	r28,r1
00000ba8 e100           3992 	sxh	r1
00000baa e10e6000       3993 	mulhi	96,r1,r1
00000bae 19f0           3994 	mov	r25,ep
00000bb0 c3f2           3995 	shl	3,ep
00000bb2 da09           3996 	add	r26,r1
00000bb4 010e1400       3997 	addi	20,r1,r1
00000bb8 c1f1           3998 	add	r1,ep
00000bba 0105           3999 	sst.w	zero,0[ep]
                        4000 --1253:         r_wm_DevSys[Unit].WinToLayerMap[slot].Layer = LOC_INVALID_LAYER;
00000bbc 1c08           4001 	mov	r28,r1
00000bbe e100           4002 	sxh	r1
00000bc0 e10e6000       4003 	mulhi	96,r1,r1
00000bc4 19f0           4004 	mov	r25,ep
00000bc6 c3f2           4005 	shl	3,ep
00000bc8 da09           4006 	add	r26,r1
00000bca 010e1400       4007 	addi	20,r1,r1
00000bce c1f1           4008 	add	r1,ep
00000bd0 1f0a           4009 	mov	-1,r1
00000bd2 030d           4010 	sst.w	r1,4[ep]
00000bd4 41ca           4011 	add	1,r25
                        4012 .L1993:
00000bd6 64ca           4013 	cmp	4,r25
00000bd8 81e5*          4014 	bl	.L1992
                        4015 --1254:     }
                        4016 --1255:     return 1;
                        4017 --line1255
                        4018 ..lin.D.3A.5CRenesas_Electronics.5CD1x_RGL.5Crgl_ghs_D1Lx_obj_V1.2E2.2E0.5Cvlib.5Capp.5Cgfx_apps.5Csimple_draw_d1l2.5Ctarget.5Cd1lx_mango_ghs.5Cobj.5Cr_sys_wm.161::
                        4019 .LDWlin161:
00000bda 0152           4020 	mov	1,r10
                        4021 .L1889:
                        4022 --	    .ef
                        4023 .LDW89:
00000bdc 5e06ff70       4024 	dispose	15,{r25,r26,r27,r28,r29,r31},[lp]
                        4025 	.type	_loc_WinReconfAll,@function
                        4026 	.size	_loc_WinReconfAll,.-_loc_WinReconfAll
                        4027 	.type	_loc_WinReconfAll..D.3A.5CRenesas_Electronics.5CD1x_RGL.5Crgl_ghs_D1Lx_obj_V1.2E2.2E0.5Cvlib.5Capp.5Cgfx_apps.5Csimple_draw_d1l2.5Ctarget.5Cd1lx_mango_ghs.5Cobj.5Cr_sys_wm.,@function
                        4028 	.size	_loc_WinReconfAll..D.3A.5CRenesas_Electronics.5CD1x_RGL.5Crgl_ghs_D1Lx_obj_V1.2E2.2E0.5Cvlib.5Capp.5Cgfx_apps.5Csimple_draw_d1l2.5Ctarget.5Cd1lx_mango_ghs.5Cobj.5Cr_sys_wm.,.-_loc_WinReconfAll..D.3A.5CRenesas_Electronics.5CD1x_RGL.5Crgl_ghs_D1Lx_obj_V1.2E2.2E0.5Cvlib.5Capp.5Cgfx_apps.5Csimple_draw_d1l2.5Ctarget.5Cd1lx_mango_ghs.5Cobj.5Cr_sys_wm.
                        4029 	.align	2
                        4030 .LDW99:
                        4031 --_slot	r25	local
                        4032 --_layer	r27	local
                        4033 --_cur_win	r29	local
                        4034 --_RootWin	56[sp]	local
                        4035 --_ck_in	24[sp]	local
                        4036 --_ck_out	28[sp]	local
                        4037 --_vdce_err	36[sp]	local
                        4038 --_fb	44[sp]	local
                        4039 --_win_count_cond	48[sp]	local
                        4040 --_is_rle_layer_cond	52[sp]	local
                        4041 --_is_yuv_layer_cond	40[sp]	local
                        4042 --_spea_unit_ordinal	23[sp]	local
                        4043 --_spea_unit	32[sp]	local

                                                                      Page 70
                                                              C:\Users\YINGAO~1\AppData\Local\Temp\gh_000084c1.si
                        4044 
                        4045 --_Unit	r28	param
                        4046 
                        4047 	.section ".bss","awb"
                        4048 .L2206:
                        4049 	.type	.L2206,@object
                        4050 	.size	.L2206,0
                        4051 	.data
                        4052 	.text
                        4053 
                        4054 --1256: }
                        4055 
                        4056 --1258: static uint32_t loc_WinSetViewportAndGeom ( uint32_t     Unit,
                        4057 	.align	2
                        4058 	.align	2
                        4059 	.global	_loc_WinSetViewportAndGeom..D.3A.5CRenesas_Electronics.5CD1x_RGL.5Crgl_ghs_D1Lx_obj_V1.2E2.2E0.5Cvlib.5Capp.5Cgfx_apps.5Csimple_draw_d1l2.5Ctarget.5Cd1lx_mango_ghs.5Cobj.5Cr_sys_wm.
                        4060 _loc_WinSetViewportAndGeom..D.3A.5CRenesas_Electronics.5CD1x_RGL.5Crgl_ghs_D1Lx_obj_V1.2E2.2E0.5Cvlib.5Capp.5Cgfx_apps.5Csimple_draw_d1l2.5Ctarget.5Cd1lx_mango_ghs.5Cobj.5Cr_sys_wm.:
                        4061 _loc_WinSetViewportAndGeom:
00000be0 8a07e170       4062 	prepare	{r25,r26,r27,r28,r29,r31},5
00000be4 633f1100       4063 	st.w	r7,16[sp]
00000be8 06e8           4064 	mov	r6,r29
00000bea 08d0           4065 	mov	r8,r26
00000bec 09e0           4066 	mov	r9,r28
00000bee 390600000000*  4067 	mov	_r_wm_DevSys,r25
                        4068 --	    .bf
                        4069 .LDW001:
                        4070 --1259:                                             const r_wm_Window_t *Win,
                        4071 --1260:                                             uint32_t            Layer,
                        4072 --1261:                                             int32_t             PosX,
                        4073 --1262:                                             int32_t             PosY,
                        4074 --1263:                                             int32_t             Pitch,
                        4075 --1264:                                             int32_t             Width,
                        4076 --1265:                                             int32_t             Height,
                        4077 --1266:                                             int32_t             Bpp
                        4078 --1267:                                           )
                        4079 --1268: {
                        4080 --1269:     int32_t pix_per_align_step = (128 / Bpp) * 8;
00000bf4 23773d00       4081 	ld.w	60[sp],r14
00000bf8 200e8000       4082 	movea	128,zero,r1
00000bfc ee0ffc02       4083 	divq	r14,r1,zero
00000c00 c30a           4084 	shl	3,r1
00000c02 01d8           4085 	mov	r1,r27
                        4086 --1270:     if (PosY < 0)
00000c04 230f2d00       4087 	ld.w	44[sp],r1
00000c08 e009           4088 	cmp	zero,r1
00000c0a ae0d*          4089 	bge	.L2517
                        4090 --1271:     {
                        4091 --1272:         /* todo neg. height */
                        4092 --1273:         Height += PosY; /* shorten the height */
                        4093 --line1273
                        4094 ..lin.D.3A.5CRenesas_Electronics.5CD1x_RGL.5Crgl_ghs_D1Lx_obj_V1.2E2.2E0.5Cvlib.5Capp.5Cgfx_apps.5Csimple_draw_d1l2.5Ctarget.5Cd1lx_mango_ghs.5Cobj.5Cr_sys_wm.162::
                        4095 .LDWlin162:
00000c0c 230f3900       4096 	ld.w	56[sp],r1
00000c10 23772d00       4097 	ld.w	44[sp],r14
00000c14 ce09           4098 	add	r14,r1
00000c16 630f3900       4099 	st.w	r1,56[sp]
                        4100 --1274:         PosY = 0;
00000c1a 63072d00       4101 	st.w	zero,44[sp]
                        4102 .L2517:
                        4103 --1275:     }
                        4104 --1276:     if (PosX < 0)

                                                                      Page 71
                                                              C:\Users\YINGAO~1\AppData\Local\Temp\gh_000084c1.si
00000c1e e0e1           4105 	cmp	zero,r28
00000c20 8e25*          4106 	bge	.L2519
                        4107 --1277:     {
                        4108 --1278:         /* Instead of directly adjusting the layer's position on the screen, 
                        4109 --1279:            it is also possible to change the base address of the layer.
                        4110 --1280:            By increasing the base address you effectively move the layer to the left.
                        4111 --1281:            
                        4112 --1282:            A crucial point of this method is, the VDCE's Layer Base Adress must 
                        4113 --1283:            be 128Byte aligned. This is 32px for 4BPP, 64px for 2BPP, etc...
                        4114 --1284:            So this method works best, if there is a reserve of 32px, 64px, etc 
                        4115 --1285:            in the blanking width to be used with conventional moving.
                        4116 --1286:            
                        4117 --1287:            As a consequence, moving by changing the base address can only be used 
                        4118 --1288:            when the reserve is equal or bigger than 32px, 64px, etc..
                        4119 --1289:         */
                        4120 --1290:         if ( (0 > (r_wm_DevSys[Unit].HorizontalMoveReserve + PosX)) && 
                        4121 --line1290
                        4122 ..lin.D.3A.5CRenesas_Electronics.5CD1x_RGL.5Crgl_ghs_D1Lx_obj_V1.2E2.2E0.5Cvlib.5Capp.5Cgfx_apps.5Csimple_draw_d1l2.5Ctarget.5Cd1lx_mango_ghs.5Cobj.5Cr_sys_wm.163::
                        4123 .LDWlin163:
00000c22 1df0           4124 	mov	r29,ep
00000c24 fe00           4125 	sxh	ep
00000c26 fef66000       4126 	mulhi	96,ep,ep
00000c2a d9f1           4127 	add	r25,ep
00000c2c 2e0d           4128 	sld.w	92[ep],r1
00000c2e dc09           4129 	add	r28,r1
00000c30 bc0d*          4130 	bp	.L2521
00000c32 1df0           4131 	mov	r29,ep
00000c34 fe00           4132 	sxh	ep
00000c36 fef66000       4133 	mulhi	96,ep,ep
00000c3a d9f1           4134 	add	r25,ep
00000c3c 2e0d           4135 	sld.w	92[ep],r1
00000c3e e1d9           4136 	cmp	r1,r27
00000c40 b705*          4137 	ble	.L2521
                        4138 --1291:              (pix_per_align_step>r_wm_DevSys[Unit].HorizontalMoveReserve) )
                        4139 --1292:         {
                        4140 --1293:             R_WM_SYS_REPORT_ERROR(Unit, R_WM_ERR_SYS_WIN_MOVE_FAILED, 0);
                        4141 --1294:             return 0;
                        4142 --line1294
                        4143 ..lin.D.3A.5CRenesas_Electronics.5CD1x_RGL.5Crgl_ghs_D1Lx_obj_V1.2E2.2E0.5Cvlib.5Capp.5Cgfx_apps.5Csimple_draw_d1l2.5Ctarget.5Cd1lx_mango_ghs.5Cobj.5Cr_sys_wm.164::
                        4144 .LDWlin164:
00000c42 0052           4145 	mov	0,r10
00000c44 a555*          4146 	br	.L2515
                        4147 .L2521:
                        4148 --1295:         }
                        4149 --1296:         /* Shorten the width aligned to 128Byte steps */
                        4150 --1297:         Width -= (int32_t)((uint32_t)-PosX & ~(uint32_t)(pix_per_align_step - 1u));
                        4151 --line1297
                        4152 ..lin.D.3A.5CRenesas_Electronics.5CD1x_RGL.5Crgl_ghs_D1Lx_obj_V1.2E2.2E0.5Cvlib.5Capp.5Cgfx_apps.5Csimple_draw_d1l2.5Ctarget.5Cd1lx_mango_ghs.5Cobj.5Cr_sys_wm.165::
                        4153 .LDWlin165:
00000c46 1c08           4154 	mov	r28,r1
00000c48 1b76ffff       4155 	addi	-1,r27,r14
00000c4c 8009           4156 	subr	zero,r1
00000c4e 2e70           4157 	not	r14,r14
00000c50 4171           4158 	and	r1,r14
00000c52 230f3500       4159 	ld.w	52[sp],r1
00000c56 ae09           4160 	sub	r14,r1
00000c58 630f3500       4161 	st.w	r1,52[sp]
                        4162 --1298:         PosX = PosX % pix_per_align_step;
00000c5c fbe7fce2       4163 	divq	r27,r28,r28
                        4164 .L2519:
                        4165 --1299:     }

                                                                      Page 72
                                                              C:\Users\YINGAO~1\AppData\Local\Temp\gh_000084c1.si
                        4166 --1301:     if((Width > 0)&&(Height > 0))
00000c60 230f3500       4167 	ld.w	52[sp],r1
00000c64 e009           4168 	cmp	zero,r1
00000c66 972d*          4169 	ble	.L2525
00000c68 230f3900       4170 	ld.w	56[sp],r1
00000c6c e009           4171 	cmp	zero,r1
00000c6e d725*          4172 	ble	.L2525
                        4173 --1302:     {
                        4174 --1303:         if (R_VDCE_ERR_OK != R_VDCE_LayerMemGeometrySet(Unit, Layer, Pitch, Height))
                        4175 --line1303
                        4176 ..lin.D.3A.5CRenesas_Electronics.5CD1x_RGL.5Crgl_ghs_D1Lx_obj_V1.2E2.2E0.5Cvlib.5Capp.5Cgfx_apps.5Csimple_draw_d1l2.5Ctarget.5Cd1lx_mango_ghs.5Cobj.5Cr_sys_wm.166::
                        4177 .LDWlin166:
00000c70 23473100       4178 	ld.w	48[sp],r8
00000c74 1d30           4179 	mov	r29,r6
00000c76 234f3900       4180 	ld.w	56[sp],r9
00000c7a 1a38           4181 	mov	r26,r7
                        4182 	jarl	_R_VDCE_LayerMemGeometrySet,lp
                        4182 <EXPANSION BEGIN>
                        4182 jarl22 _R_VDCE_LayerMemGeometrySet , lp 
00000c7c 80ff0000*      4182 <EXPANSION END>
00000c80 e051           4183 	cmp	zero,r10
00000c82 b205*          4184 	be	.L2528
                        4185 --1304:         {
                        4186 --1305:             return 0;
                        4187 --line1305
                        4188 ..lin.D.3A.5CRenesas_Electronics.5CD1x_RGL.5Crgl_ghs_D1Lx_obj_V1.2E2.2E0.5Cvlib.5Capp.5Cgfx_apps.5Csimple_draw_d1l2.5Ctarget.5Cd1lx_mango_ghs.5Cobj.5Cr_sys_wm.167::
                        4189 .LDWlin167:
00000c84 0052           4190 	mov	0,r10
00000c86 9535*          4191 	br	.L2515
                        4192 .L2528:
                        4193 --1306:         }
                        4194 --1307:         if (R_VDCE_ERR_OK != R_VDCE_LayerViewPortSet(Unit, Layer, 0, 0, PosX, PosY, Width, Height))
                        4195 --line1307
                        4196 ..lin.D.3A.5CRenesas_Electronics.5CD1x_RGL.5Crgl_ghs_D1Lx_obj_V1.2E2.2E0.5Cvlib.5Capp.5Cgfx_apps.5Csimple_draw_d1l2.5Ctarget.5Cd1lx_mango_ghs.5Cobj.5Cr_sys_wm.168::
                        4197 .LDWlin168:
00000c88 230f2d00       4198 	ld.w	44[sp],r1
00000c8c 1d30           4199 	mov	r29,r6
00000c8e 63e70100       4200 	st.w	r28,0[sp]
00000c92 1a38           4201 	mov	r26,r7
00000c94 0042           4202 	mov	0,r8
00000c96 004a           4203 	mov	0,r9
00000c98 630f0500       4204 	st.w	r1,4[sp]
00000c9c 230f3500       4205 	ld.w	52[sp],r1
00000ca0 630f0900       4206 	st.w	r1,8[sp]
00000ca4 230f3900       4207 	ld.w	56[sp],r1
00000ca8 630f0d00       4208 	st.w	r1,12[sp]
                        4209 	jarl	_R_VDCE_LayerViewPortSet,lp
                        4209 <EXPANSION BEGIN>
                        4209 jarl22 _R_VDCE_LayerViewPortSet , lp 
00000cac 80ff0000*      4209 <EXPANSION END>
00000cb0 e051           4210 	cmp	zero,r10
00000cb2 b205*          4211 	be	.L2525
                        4212 --1308:         {
                        4213 --1309:             return 0;
                        4214 --line1309
                        4215 ..lin.D.3A.5CRenesas_Electronics.5CD1x_RGL.5Crgl_ghs_D1Lx_obj_V1.2E2.2E0.5Cvlib.5Capp.5Cgfx_apps.5Csimple_draw_d1l2.5Ctarget.5Cd1lx_mango_ghs.5Cobj.5Cr_sys_wm.169::
                        4216 .LDWlin169:
00000cb4 0052           4217 	mov	0,r10
00000cb6 951d*          4218 	br	.L2515
                        4219 .L2525:
                        4220 --1310:         }

                                                                      Page 73
                                                              C:\Users\YINGAO~1\AppData\Local\Temp\gh_000084c1.si
                        4221 --1311:     }
                        4222 --1313:     if (Win->Status == R_WM_WINSTATUS_ENABLED)
                        4223 --line1313
                        4224 ..lin.D.3A.5CRenesas_Electronics.5CD1x_RGL.5Crgl_ghs_D1Lx_obj_V1.2E2.2E0.5Cvlib.5Capp.5Cgfx_apps.5Csimple_draw_d1l2.5Ctarget.5Cd1lx_mango_ghs.5Cobj.5Cr_sys_wm.170::
                        4225 .LDWlin170:
00000cb8 235f1100       4226 	ld.w	16[sp],r11
00000cbc 2b0f0100       4227 	ld.w	0[r11],r1
00000cc0 620a           4228 	cmp	2,r1
00000cc2 aa15*          4229 	bne	.L2534
                        4230 --1314:     {
                        4231 --1315:         if((Width <= 0)||(Height <= 0))
                        4232 --line1315
                        4233 ..lin.D.3A.5CRenesas_Electronics.5CD1x_RGL.5Crgl_ghs_D1Lx_obj_V1.2E2.2E0.5Cvlib.5Capp.5Cgfx_apps.5Csimple_draw_d1l2.5Ctarget.5Cd1lx_mango_ghs.5Cobj.5Cr_sys_wm.171::
                        4234 .LDWlin171:
00000cc4 230f3500       4235 	ld.w	52[sp],r1
00000cc8 e009           4236 	cmp	zero,r1
00000cca d705*          4237 	ble	.L2537
00000ccc 230f3900       4238 	ld.w	56[sp],r1
00000cd0 e009           4239 	cmp	zero,r1
00000cd2 ef05*          4240 	bgt	.L2536
                        4241 .L2537:
                        4242 --1316:         {
                        4243 --1317:             loc_VDCE_LayerDisable(Unit, Layer);
                        4244 --line1317
                        4245 ..lin.D.3A.5CRenesas_Electronics.5CD1x_RGL.5Crgl_ghs_D1Lx_obj_V1.2E2.2E0.5Cvlib.5Capp.5Cgfx_apps.5Csimple_draw_d1l2.5Ctarget.5Cd1lx_mango_ghs.5Cobj.5Cr_sys_wm.172::
                        4246 .LDWlin172:
00000cd4 1d30           4247 	mov	r29,r6
00000cd6 1a38           4248 	mov	r26,r7
                        4249 	jarl	_loc_VDCE_LayerDisable,lp
                        4249 <EXPANSION BEGIN>
                        4249 jarl22 _loc_VDCE_LayerDisable , lp 
00000cd8 80ffee01*      4249 <EXPANSION END>
00000cdc d505*          4250 	br	.L2534
                        4251 .L2536:
                        4252 --1318:         }
                        4253 --1319:         else
                        4254 --1320:         {
                        4255 --1321:             loc_VDCE_LayerEnable(Unit, Layer);
                        4256 --line1321
                        4257 ..lin.D.3A.5CRenesas_Electronics.5CD1x_RGL.5Crgl_ghs_D1Lx_obj_V1.2E2.2E0.5Cvlib.5Capp.5Cgfx_apps.5Csimple_draw_d1l2.5Ctarget.5Cd1lx_mango_ghs.5Cobj.5Cr_sys_wm.173::
                        4258 .LDWlin173:
00000cde 1d30           4259 	mov	r29,r6
00000ce0 1a38           4260 	mov	r26,r7
                        4261 	jarl	_loc_VDCE_LayerEnable,lp
                        4261 <EXPANSION BEGIN>
                        4261 jarl22 _loc_VDCE_LayerEnable , lp 
00000ce2 80ff8e01*      4261 <EXPANSION END>
                        4262 .L2534:
                        4263 --1322:         }
                        4264 --1323:     }
                        4265 --1324:     return 1;
                        4266 --line1324
                        4267 ..lin.D.3A.5CRenesas_Electronics.5CD1x_RGL.5Crgl_ghs_D1Lx_obj_V1.2E2.2E0.5Cvlib.5Capp.5Cgfx_apps.5Csimple_draw_d1l2.5Ctarget.5Cd1lx_mango_ghs.5Cobj.5Cr_sys_wm.174::
                        4268 .LDWlin174:
00000ce6 0152           4269 	mov	1,r10
                        4270 .L2515:
                        4271 --	    .ef
                        4272 .LDW101:
00000ce8 4a06ff70       4273 	dispose	5,{r25,r26,r27,r28,r29,r31},[lp]
                        4274 	.type	_loc_WinSetViewportAndGeom,@function
                        4275 	.size	_loc_WinSetViewportAndGeom,.-_loc_WinSetViewportAndGeom

                                                                      Page 74
                                                              C:\Users\YINGAO~1\AppData\Local\Temp\gh_000084c1.si
                        4276 	.type	_loc_WinSetViewportAndGeom..D.3A.5CRenesas_Electronics.5CD1x_RGL.5Crgl_ghs_D1Lx_obj_V1.2E2.2E0.5Cvlib.5Capp.5Cgfx_apps.5Csimple_draw_d1l2.5Ctarget.5Cd1lx_mango_ghs.5Cobj.5Cr_sys_wm.,@function
                        4277 	.size	_loc_WinSetViewportAndGeom..D.3A.5CRenesas_Electronics.5CD1x_RGL.5Crgl_ghs_D1Lx_obj_V1.2E2.2E0.5Cvlib.5Capp.5Cgfx_apps.5Csimple_draw_d1l2.5Ctarget.5Cd1lx_mango_ghs.5Cobj.5Cr_sys_wm.,.-_loc_WinSetViewportAndGeom..D.3A.5CRenesas_Electronics.5CD1x_RGL.5Crgl_ghs_D1Lx_obj_V1.2E2.2E0.5Cvlib.5Capp.5Cgfx_apps.5Csimple_draw_d1l2.5Ctarget.5Cd1lx_mango_ghs.5Cobj.5Cr_sys_wm.
                        4278 	.align	2
                        4279 .LDW201:
                        4280 --_pix_per_align_step	r27	local
                        4281 
                        4282 --_Unit	r29	param
                        4283 --_Win	16[sp]	param
                        4284 --_Layer	r26	param
                        4285 --_PosX	r28	param
                        4286 --_PosY	44[sp]	param
                        4287 --_Pitch	48[sp]	param
                        4288 --_Width	52[sp]	param
                        4289 --_Height	56[sp]	param
                        4290 --_Bpp	60[sp]	param
                        4291 
                        4292 	.section ".bss","awb"
                        4293 .L2594:
                        4294 	.type	.L2594,@object
                        4295 	.size	.L2594,0
                        4296 	.data
                        4297 	.text
                        4298 
                        4299 --1325: }
                        4300 
                        4301 --1327: static uint32_t loc_WinSetFb   (   uint32_t            Unit,
                        4302 	.align	2
                        4303 	.align	2
                        4304 	.global	_loc_WinSetFb..D.3A.5CRenesas_Electronics.5CD1x_RGL.5Crgl_ghs_D1Lx_obj_V1.2E2.2E0.5Cvlib.5Capp.5Cgfx_apps.5Csimple_draw_d1l2.5Ctarget.5Cd1lx_mango_ghs.5Cobj.5Cr_sys_wm.
                        4305 _loc_WinSetFb..D.3A.5CRenesas_Electronics.5CD1x_RGL.5Crgl_ghs_D1Lx_obj_V1.2E2.2E0.5Cvlib.5Capp.5Cgfx_apps.5Csimple_draw_d1l2.5Ctarget.5Cd1lx_mango_ghs.5Cobj.5Cr_sys_wm.:
                        4306 _loc_WinSetFb:
00000cec 8a07e170       4307 	prepare	{r25,r26,r27,r28,r29,r31},5
00000cf0 06d0           4308 	mov	r6,r26
00000cf2 07e8           4309 	mov	r7,r29
00000cf4 63470d00       4310 	st.w	r8,12[sp]
00000cf8 634f1100       4311 	st.w	r9,16[sp]
                        4312 --	    .bf
                        4313 .LDW301:
                        4314 --1328:                             const r_wm_Window_t *Win,
                        4315 --1329:                             int32_t             PosX,
                        4316 --1330:                             int32_t             PosY,
                        4317 --1331:                             const void          *Fb
                        4318 --1332:                         )
                        4319 --1333: {
                        4320 --1334:     r_wm_sys_vdce_WinLayerPair_t* win_layer_pair = loc_WinLayerPairGet(Unit, Win);
00000cfc 1a30           4321 	mov	r26,r6
00000cfe 1d38           4322 	mov	r29,r7
                        4323 	jarl	_loc_WinLayerPairGet,lp
                        4323 <EXPANSION BEGIN>
                        4323 jarl22 _loc_WinLayerPairGet , lp 
00000d00 bfffccf8*      4323 <EXPANSION END>
00000d04 63570500       4324 	st.w	r10,4[sp]
                        4325 --1335:     uint32_t Bpp = R_WM_ColorFmtBitsPerPixGet(Win->ColorFmt);
                        4326 --line1335
                        4327 ..lin.D.3A.5CRenesas_Electronics.5CD1x_RGL.5Crgl_ghs_D1Lx_obj_V1.2E2.2E0.5Cvlib.5Capp.5Cgfx_apps.5Csimple_draw_d1l2.5Ctarget.5Cd1lx_mango_ghs.5Cobj.5Cr_sys_wm.175::
                        4328 .LDWlin175:
00000d08 3d370900       4329 	ld.w	8[r29],r6
                        4330 	jarl	_R_WM_ColorFmtBitsPerPixGet,lp
                        4330 <EXPANSION BEGIN>
                        4330 jarl22 _R_WM_ColorFmtBitsPerPixGet , lp 
00000d0c 80ff0000*      4330 <EXPANSION END>

                                                                      Page 75
                                                              C:\Users\YINGAO~1\AppData\Local\Temp\gh_000084c1.si
00000d10 0ac8           4331 	mov	r10,r25
                        4332 --1336:     int32_t add_h = 0;
                        4333 --line1336
                        4334 ..lin.D.3A.5CRenesas_Electronics.5CD1x_RGL.5Crgl_ghs_D1Lx_obj_V1.2E2.2E0.5Cvlib.5Capp.5Cgfx_apps.5Csimple_draw_d1l2.5Ctarget.5Cd1lx_mango_ghs.5Cobj.5Cr_sys_wm.176::
                        4335 .LDWlin176:
00000d12 00e2           4336 	mov	0,r28
                        4337 --1337:     int32_t add_v = 0;
00000d14 00da           4338 	mov	0,r27
                        4339 --1338:     if (Bpp == 0)
00000d16 e0c9           4340 	cmp	zero,r25
00000d18 aa05*          4341 	bne	.L2671
                        4342 --1339:     {
                        4343 --1340:         Bpp = 1;
                        4344 --line1340
                        4345 ..lin.D.3A.5CRenesas_Electronics.5CD1x_RGL.5Crgl_ghs_D1Lx_obj_V1.2E2.2E0.5Cvlib.5Capp.5Cgfx_apps.5Csimple_draw_d1l2.5Ctarget.5Cd1lx_mango_ghs.5Cobj.5Cr_sys_wm.177::
                        4346 .LDWlin177:
00000d1a 01ca           4347 	mov	1,r25
                        4348 .L2671:
                        4349 --1341:     }
                        4350 --1342:     
                        4351 --1343:     if (win_layer_pair == R_NULL)
00000d1c 235f0500       4352 	ld.w	4[sp],r11
00000d20 e059           4353 	cmp	zero,r11
00000d22 ca05*          4354 	bne	.L2673
                        4355 --1344:     {
                        4356 --1345:         R_WM_SYS_REPORT_ERROR(Unit, R_WM_ERR_NO_PHYS_WINDOW, 0);
                        4357 --1346:         return 0;
                        4358 --line1346
                        4359 ..lin.D.3A.5CRenesas_Electronics.5CD1x_RGL.5Crgl_ghs_D1Lx_obj_V1.2E2.2E0.5Cvlib.5Capp.5Cgfx_apps.5Csimple_draw_d1l2.5Ctarget.5Cd1lx_mango_ghs.5Cobj.5Cr_sys_wm.178::
                        4360 .LDWlin178:
00000d24 0052           4361 	mov	0,r10
00000d26 80071401*      4362 	br	.L2669
                        4363 .L2673:
                        4364 --1347:     }
                        4365 --1349:     if (R_WM_Priv_WindowIsRleLayer(Win) == 1)
                        4366 --line1349
                        4367 ..lin.D.3A.5CRenesas_Electronics.5CD1x_RGL.5Crgl_ghs_D1Lx_obj_V1.2E2.2E0.5Cvlib.5Capp.5Cgfx_apps.5Csimple_draw_d1l2.5Ctarget.5Cd1lx_mango_ghs.5Cobj.5Cr_sys_wm.179::
                        4368 .LDWlin179:
00000d2a 1d30           4369 	mov	r29,r6
                        4370 	jarl	_R_WM_Priv_WindowIsRleLayer,lp
                        4370 <EXPANSION BEGIN>
                        4370 jarl22 _R_WM_Priv_WindowIsRleLayer , lp 
00000d2c 80ff0000*      4370 <EXPANSION END>
00000d30 6152           4371 	cmp	1,r10
00000d32 ca25*          4372 	bne	.L2676
                        4373 --1350:     {
                        4374 --1351:         /* Only the Root window may be an RLE window */
                        4375 --1352:         if (Win != r_wm_DevSys[Unit].RootWin)
                        4376 --line1352
                        4377 ..lin.D.3A.5CRenesas_Electronics.5CD1x_RGL.5Crgl_ghs_D1Lx_obj_V1.2E2.2E0.5Cvlib.5Capp.5Cgfx_apps.5Csimple_draw_d1l2.5Ctarget.5Cd1lx_mango_ghs.5Cobj.5Cr_sys_wm.180::
                        4378 .LDWlin180:
00000d34 1af0           4379 	mov	r26,ep
00000d36 fe00           4380 	sxh	ep
00000d38 fef66000       4381 	mulhi	96,ep,ep
00000d3c 2b0600000000*  4382 	mov	_r_wm_DevSys,r11
00000d42 cbf1           4383 	add	r11,ep
00000d44 220d           4384 	sld.w	68[ep],r1
00000d46 e1e9           4385 	cmp	r1,r29
00000d48 b205*          4386 	be	.L2678
                        4387 --1353:         {
                        4388 --1354:             R_WM_SYS_REPORT_ERROR(Unit, R_WM_ERR_NO_PHYS_WINDOW, 0);

                                                                      Page 76
                                                              C:\Users\YINGAO~1\AppData\Local\Temp\gh_000084c1.si
                        4389 --1355:             return 0; /* R_WM_ERR_NO_PHYS_WINDOW */
                        4390 --line1355
                        4391 ..lin.D.3A.5CRenesas_Electronics.5CD1x_RGL.5Crgl_ghs_D1Lx_obj_V1.2E2.2E0.5Cvlib.5Capp.5Cgfx_apps.5Csimple_draw_d1l2.5Ctarget.5Cd1lx_mango_ghs.5Cobj.5Cr_sys_wm.181::
                        4392 .LDWlin181:
00000d4a 0052           4393 	mov	0,r10
00000d4c f575*          4394 	br	.L2669
                        4395 .L2678:
                        4396 --1356:         }
                        4397 --1358:         /* RLE Buffers must be 128-byte aligned */
                        4398 --1359:         if (0 != ((uint32_t)Fb&0x0000007Fu) )
                        4399 --line1359
                        4400 ..lin.D.3A.5CRenesas_Electronics.5CD1x_RGL.5Crgl_ghs_D1Lx_obj_V1.2E2.2E0.5Cvlib.5Capp.5Cgfx_apps.5Csimple_draw_d1l2.5Ctarget.5Cd1lx_mango_ghs.5Cobj.5Cr_sys_wm.182::
                        4401 .LDWlin182:
00000d4e 230f2d00       4402 	ld.w	44[sp],r1
00000d52 d90a           4403 	shl	25,r1
00000d54 b205*          4404 	be	.L2681
                        4405 --1360:         {
                        4406 --1361:             R_WM_SYS_REPORT_ERROR(Unit, R_WM_ERR_ADDRESS_ALIGNMENT, 0);
                        4407 --1362:             return 0; /* R_WM_ERR_ADDRESS_ALIGNMENT */
                        4408 --line1362
                        4409 ..lin.D.3A.5CRenesas_Electronics.5CD1x_RGL.5Crgl_ghs_D1Lx_obj_V1.2E2.2E0.5Cvlib.5Capp.5Cgfx_apps.5Csimple_draw_d1l2.5Ctarget.5Cd1lx_mango_ghs.5Cobj.5Cr_sys_wm.183::
                        4410 .LDWlin183:
00000d56 0052           4411 	mov	0,r10
00000d58 9575*          4412 	br	.L2669
                        4413 .L2681:
                        4414 --1363:         }
                        4415 --1365:         if (0 == loc_SetRle(Unit, Win->ColorFmt, (uint32_t)Fb))
                        4416 --line1365
                        4417 ..lin.D.3A.5CRenesas_Electronics.5CD1x_RGL.5Crgl_ghs_D1Lx_obj_V1.2E2.2E0.5Cvlib.5Capp.5Cgfx_apps.5Csimple_draw_d1l2.5Ctarget.5Cd1lx_mango_ghs.5Cobj.5Cr_sys_wm.184::
                        4418 .LDWlin184:
00000d5a 3d3f0900       4419 	ld.w	8[r29],r7
00000d5e 1a30           4420 	mov	r26,r6
00000d60 23472d00       4421 	ld.w	44[sp],r8
                        4422 	jarl	_loc_SetRle,lp
                        4422 <EXPANSION BEGIN>
                        4422 jarl22 _loc_SetRle , lp 
00000d64 bffff8f8*      4422 <EXPANSION END>
00000d68 e051           4423 	cmp	zero,r10
00000d6a ba05*          4424 	bne	.L2684
                        4425 --1366:         {
                        4426 --1367:             return 0;
                        4427 --line1367
                        4428 ..lin.D.3A.5CRenesas_Electronics.5CD1x_RGL.5Crgl_ghs_D1Lx_obj_V1.2E2.2E0.5Cvlib.5Capp.5Cgfx_apps.5Csimple_draw_d1l2.5Ctarget.5Cd1lx_mango_ghs.5Cobj.5Cr_sys_wm.185::
                        4429 .LDWlin185:
00000d6c 0052           4430 	mov	0,r10
00000d6e e565*          4431 	br	.L2669
                        4432 .L2684:
                        4433 --1368:         }
                        4434 --1370:         /* set the address of the virtual layer */
                        4435 --1371:         Fb = (void*)0x30000000u;
                        4436 --line1371
                        4437 ..lin.D.3A.5CRenesas_Electronics.5CD1x_RGL.5Crgl_ghs_D1Lx_obj_V1.2E2.2E0.5Cvlib.5Capp.5Cgfx_apps.5Csimple_draw_d1l2.5Ctarget.5Cd1lx_mango_ghs.5Cobj.5Cr_sys_wm.186::
                        4438 .LDWlin186:
00000d70 400e0030       4439 	movhi	hi(805306368),zero,r1
00000d74 630f2d00       4440 	st.w	r1,44[sp]
00000d78 950d*          4441 	br	.L2687
                        4442 .L2676:
                        4443 --1372:     }
                        4444 --1373:     else if (Win->Mode == R_WM_WINMODE_SPRITES)
                        4445 --line1373
                        4446 ..lin.D.3A.5CRenesas_Electronics.5CD1x_RGL.5Crgl_ghs_D1Lx_obj_V1.2E2.2E0.5Cvlib.5Capp.5Cgfx_apps.5Csimple_draw_d1l2.5Ctarget.5Cd1lx_mango_ghs.5Cobj.5Cr_sys_wm.187::

                                                                      Page 77
                                                              C:\Users\YINGAO~1\AppData\Local\Temp\gh_000084c1.si
                        4447 .LDWlin187:
00000d7a 3d0f0500       4448 	ld.w	4[r29],r1
00000d7e 610a           4449 	cmp	1,r1
00000d80 da05*          4450 	bne	.L2687
                        4451 --1374:     {
                        4452 --1375:         Fb = (void*)0x30000000u;
                        4453 --line1375
                        4454 ..lin.D.3A.5CRenesas_Electronics.5CD1x_RGL.5Crgl_ghs_D1Lx_obj_V1.2E2.2E0.5Cvlib.5Capp.5Cgfx_apps.5Csimple_draw_d1l2.5Ctarget.5Cd1lx_mango_ghs.5Cobj.5Cr_sys_wm.188::
                        4455 .LDWlin188:
00000d82 400e0030       4456 	movhi	hi(805306368),zero,r1
00000d86 630f2d00       4457 	st.w	r1,44[sp]
                        4458 .L2687:
                        4459 --1376:     }
                        4460 --1377:     else
                        4461 --1378:     {
                        4462 --1379:     }
                        4463 --1380:     
                        4464 --1381:     /* check if the negative start position workaround is needed */
                        4465 --1382:     if (R_WM_Priv_WindowIsRleLayer(Win) == 0)
00000d8a 1d30           4466 	mov	r29,r6
                        4467 	jarl	_R_WM_Priv_WindowIsRleLayer,lp
                        4467 <EXPANSION BEGIN>
                        4467 jarl22 _R_WM_Priv_WindowIsRleLayer , lp 
00000d8c 80ff0000*      4467 <EXPANSION END>
00000d90 e051           4468 	cmp	zero,r10
00000d92 ea45*          4469 	bne	.L2691
                        4470 --1383:     {
                        4471 --1384:         if  (PosY < 0)
                        4472 --line1384
                        4473 ..lin.D.3A.5CRenesas_Electronics.5CD1x_RGL.5Crgl_ghs_D1Lx_obj_V1.2E2.2E0.5Cvlib.5Capp.5Cgfx_apps.5Csimple_draw_d1l2.5Ctarget.5Cd1lx_mango_ghs.5Cobj.5Cr_sys_wm.189::
                        4474 .LDWlin189:
00000d94 235f1100       4475 	ld.w	16[sp],r11
00000d98 e059           4476 	cmp	zero,r11
00000d9a ce05*          4477 	bge	.L2693
                        4478 --1385:         {
                        4479 --1386:             /* Move the Window up out of the screen by changing the start address stribe-by-stride */
                        4480 --1387:             add_v = -PosY;
                        4481 --line1387
                        4482 ..lin.D.3A.5CRenesas_Electronics.5CD1x_RGL.5Crgl_ghs_D1Lx_obj_V1.2E2.2E0.5Cvlib.5Capp.5Cgfx_apps.5Csimple_draw_d1l2.5Ctarget.5Cd1lx_mango_ghs.5Cobj.5Cr_sys_wm.190::
                        4483 .LDWlin190:
00000d9c 23df1100       4484 	ld.w	16[sp],r27
00000da0 80d9           4485 	subr	zero,r27
                        4486 .L2693:
                        4487 --1388:         }
                        4488 --1389:         if  (PosX < 0)
00000da2 235f0d00       4489 	ld.w	12[sp],r11
00000da6 e059           4490 	cmp	zero,r11
00000da8 ee2d*          4491 	bge	.L2695
                        4492 --1390:         {
                        4493 --	    .bs
                        4494 .LDW401:
                        4495 --1391:             /* Instead of directly adjusting the layer's position on the screen, 
                        4496 --1392:                it is also possible to change the base address of the layer.
                        4497 --1393:                By increasing the base address you effectively move the layer to the left.
                        4498 --1394:                
                        4499 --1395:                A crucial point of this method is, the VDCE's Layer Base Adress must 
                        4500 --1396:                be 128Byte aligned. This is 32px for 4BPP, 64px for 2BPP, etc...
                        4501 --1397:                So this method works best, if there is a reserve of 32px, 64px, etc 
                        4502 --1398:                in the blanking width to be used with conventional moving.
                        4503 --1399:                
                        4504 --1400:                As a consequence, moving by changing the base address can only be used 

                                                                      Page 78
                                                              C:\Users\YINGAO~1\AppData\Local\Temp\gh_000084c1.si
                        4505 --1401:                when the reserve is equal or bigger than 32px, 64px, etc..
                        4506 --1402:             */
                        4507 --1403:             int32_t pix_per_align_step = (128 / Bpp) * 8;
                        4508 --line1403
                        4509 ..lin.D.3A.5CRenesas_Electronics.5CD1x_RGL.5Crgl_ghs_D1Lx_obj_V1.2E2.2E0.5Cvlib.5Capp.5Cgfx_apps.5Csimple_draw_d1l2.5Ctarget.5Cd1lx_mango_ghs.5Cobj.5Cr_sys_wm.191::
                        4510 .LDWlin191:
00000daa 200e8000       4511 	movea	128,zero,r1
00000dae f90ffe02       4512 	divqu	r25,r1,zero
00000db2 c30a           4513 	shl	3,r1
00000db4 630f0100       4514 	st.w	r1,0[sp]
                        4515 --1404:             
                        4516 --1405:             /* If PosX exceeds conventional moving range, check if requested PosX can be served by address shifting */
                        4517 --1406:             if ( (0 > (r_wm_DevSys[Unit].HorizontalMoveReserve + PosX)) && 
00000db8 1af0           4518 	mov	r26,ep
00000dba fe00           4519 	sxh	ep
00000dbc fef66000       4520 	mulhi	96,ep,ep
00000dc0 2b0600000000*  4521 	mov	_r_wm_DevSys,r11
00000dc6 230f0d00       4522 	ld.w	12[sp],r1
00000dca cbf1           4523 	add	r11,ep
00000dcc 2e75           4524 	sld.w	92[ep],r14
00000dce ce09           4525 	add	r14,r1
00000dd0 8c15*          4526 	bp	.L2697
00000dd2 1af0           4527 	mov	r26,ep
00000dd4 fe00           4528 	sxh	ep
00000dd6 fef66000       4529 	mulhi	96,ep,ep
00000dda 2b0600000000*  4530 	mov	_r_wm_DevSys,r11
00000de0 23670100       4531 	ld.w	0[sp],r12
00000de4 cbf1           4532 	add	r11,ep
00000de6 2e0d           4533 	sld.w	92[ep],r1
00000de8 e161           4534 	cmp	r1,r12
00000dea b705*          4535 	ble	.L2697
                        4536 --1407:                  (pix_per_align_step>r_wm_DevSys[Unit].HorizontalMoveReserve) )
                        4537 --1408:             {
                        4538 --1409:                 R_WM_SYS_REPORT_ERROR(Unit, R_WM_ERR_SYS_WIN_MOVE_FAILED, 0);
                        4539 --1410:                 return 0;
                        4540 --line1410
                        4541 ..lin.D.3A.5CRenesas_Electronics.5CD1x_RGL.5Crgl_ghs_D1Lx_obj_V1.2E2.2E0.5Cvlib.5Capp.5Cgfx_apps.5Csimple_draw_d1l2.5Ctarget.5Cd1lx_mango_ghs.5Cobj.5Cr_sys_wm.192::
                        4542 .LDWlin192:
00000dec 0052           4543 	mov	0,r10
00000dee e525*          4544 	br	.L2669
                        4545 .L2697:
                        4546 --1411:             }
                        4547 --1412:             
                        4548 --1413:             /* Increase address aligned to 128Byte steps */
                        4549 --1414:             add_h = (int32_t)((uint32_t)(-PosX) & ~(uint32_t)(pix_per_align_step - 1u));
                        4550 --line1414
                        4551 ..lin.D.3A.5CRenesas_Electronics.5CD1x_RGL.5Crgl_ghs_D1Lx_obj_V1.2E2.2E0.5Cvlib.5Capp.5Cgfx_apps.5Csimple_draw_d1l2.5Ctarget.5Cd1lx_mango_ghs.5Cobj.5Cr_sys_wm.193::
                        4552 .LDWlin193:
00000df0 235f0100       4553 	ld.w	0[sp],r11
00000df4 230f0d00       4554 	ld.w	12[sp],r1
00000df8 0b76ffff       4555 	addi	-1,r11,r14
00000dfc 2e70           4556 	not	r14,r14
00000dfe 0ee0           4557 	mov	r14,r28
00000e00 8009           4558 	subr	zero,r1
00000e02 41e1           4559 	and	r1,r28
                        4560 --	    .es
                        4561 .LDW501:
                        4562 .L2695:
                        4563 --1415:         }
                        4564 --1416:         Fb = Fb +  (((add_h + (add_v * Win->Pitch)) * Bpp) / 8);
00000e04 3d0f1900       4565 	ld.w	24[r29],r1

                                                                      Page 79
                                                              C:\Users\YINGAO~1\AppData\Local\Temp\gh_000084c1.si
00000e08 23772d00       4566 	ld.w	44[sp],r14
00000e0c fb0f2202       4567 	mulu	r27,r1,zero
00000e10 dc09           4568 	add	r28,r1
00000e12 f90f2202       4569 	mulu	r25,r1,zero
00000e16 830a           4570 	shr	3,r1
00000e18 c171           4571 	add	r1,r14
00000e1a 63772d00       4572 	st.w	r14,44[sp]
                        4573 .L2691:
                        4574 --1417:     }
                        4575 --1418:     
                        4576 --1419:     if (R_VDCE_ERR_OK != R_VDCE_LayerBaseSet(Unit, win_layer_pair->Layer, (uint32_t)Fb))
00000e1e 235f0500       4577 	ld.w	4[sp],r11
00000e22 1a30           4578 	mov	r26,r6
00000e24 23472d00       4579 	ld.w	44[sp],r8
00000e28 2b3f0500       4580 	ld.w	4[r11],r7
                        4581 	jarl	_R_VDCE_LayerBaseSet,lp
                        4581 <EXPANSION BEGIN>
                        4581 jarl22 _R_VDCE_LayerBaseSet , lp 
00000e2c 80ff0000*      4581 <EXPANSION END>
00000e30 e051           4582 	cmp	zero,r10
00000e32 b205*          4583 	be	.L2701
                        4584 --1420:     {
                        4585 --1421:         return 0;
                        4586 --line1421
                        4587 ..lin.D.3A.5CRenesas_Electronics.5CD1x_RGL.5Crgl_ghs_D1Lx_obj_V1.2E2.2E0.5Cvlib.5Capp.5Cgfx_apps.5Csimple_draw_d1l2.5Ctarget.5Cd1lx_mango_ghs.5Cobj.5Cr_sys_wm.194::
                        4588 .LDWlin194:
00000e34 0052           4589 	mov	0,r10
00000e36 a505*          4590 	br	.L2669
                        4591 .L2701:
                        4592 --1422:     }
                        4593 --1423:     return 1;
                        4594 --line1423
                        4595 ..lin.D.3A.5CRenesas_Electronics.5CD1x_RGL.5Crgl_ghs_D1Lx_obj_V1.2E2.2E0.5Cvlib.5Capp.5Cgfx_apps.5Csimple_draw_d1l2.5Ctarget.5Cd1lx_mango_ghs.5Cobj.5Cr_sys_wm.195::
                        4596 .LDWlin195:
00000e38 0152           4597 	mov	1,r10
                        4598 .L2669:
                        4599 --	    .ef
                        4600 .LDW601:
00000e3a 4a06ff70       4601 	dispose	5,{r25,r26,r27,r28,r29,r31},[lp]
                        4602 	.type	_loc_WinSetFb,@function
                        4603 	.size	_loc_WinSetFb,.-_loc_WinSetFb
                        4604 	.type	_loc_WinSetFb..D.3A.5CRenesas_Electronics.5CD1x_RGL.5Crgl_ghs_D1Lx_obj_V1.2E2.2E0.5Cvlib.5Capp.5Cgfx_apps.5Csimple_draw_d1l2.5Ctarget.5Cd1lx_mango_ghs.5Cobj.5Cr_sys_wm.,@function
                        4605 	.size	_loc_WinSetFb..D.3A.5CRenesas_Electronics.5CD1x_RGL.5Crgl_ghs_D1Lx_obj_V1.2E2.2E0.5Cvlib.5Capp.5Cgfx_apps.5Csimple_draw_d1l2.5Ctarget.5Cd1lx_mango_ghs.5Cobj.5Cr_sys_wm.,.-_loc_WinSetFb..D.3A.5CRenesas_Electronics.5CD1x_RGL.5Crgl_ghs_D1Lx_obj_V1.2E2.2E0.5Cvlib.5Capp.5Cgfx_apps.5Csimple_draw_d1l2.5Ctarget.5Cd1lx_mango_ghs.5Cobj.5Cr_sys_wm.
                        4606 	.align	2
                        4607 .LDW701:
                        4608 --_win_layer_pair	4[sp]	local
                        4609 --_Bpp	r25	local
                        4610 --_add_h	r28	local
                        4611 --_add_v	r27	local
                        4612 --_pix_per_align_step	0[sp]	local
                        4613 
                        4614 --_Unit	r26	param
                        4615 --_Win	r29	param
                        4616 --_PosX	12[sp]	param
                        4617 --_PosY	16[sp]	param
                        4618 --_Fb	44[sp]	param
                        4619 
                        4620 	.section ".bss","awb"
                        4621 .L2772:
                        4622 	.type	.L2772,@object
                        4623 	.size	.L2772,0

                                                                      Page 80
                                                              C:\Users\YINGAO~1\AppData\Local\Temp\gh_000084c1.si
                        4624 	.data
                        4625 	.text
                        4626 
                        4627 --1424: }
                        4628 
                        4629 --1426: static const void* loc_WinGetOnScreenFb(const r_wm_Window_t *Win)
                        4630 	.align	2
                        4631 	.align	2
                        4632 	.global	_loc_WinGetOnScreenFb..D.3A.5CRenesas_Electronics.5CD1x_RGL.5Crgl_ghs_D1Lx_obj_V1.2E2.2E0.5Cvlib.5Capp.5Cgfx_apps.5Csimple_draw_d1l2.5Ctarget.5Cd1lx_mango_ghs.5Cobj.5Cr_sys_wm.
                        4633 _loc_WinGetOnScreenFb..D.3A.5CRenesas_Electronics.5CD1x_RGL.5Crgl_ghs_D1Lx_obj_V1.2E2.2E0.5Cvlib.5Capp.5Cgfx_apps.5Csimple_draw_d1l2.5Ctarget.5Cd1lx_mango_ghs.5Cobj.5Cr_sys_wm.:
                        4634 _loc_WinGetOnScreenFb:
00000e3e 06f0           4635 	mov	r6,ep
                        4636 --	    .bf
                        4637 .LDW801:
                        4638 --1427: {
                        4639 --1428:     uint32_t i;
                        4640 --1429:     for (i = 0; i < Win->Surface.Fb.BufNum; ++i)
00000e40 000a           4641 	mov	0,r1
00000e42 9515*          4642 	br	.L2879
                        4643 .L2878:
                        4644 --1430:     {
                        4645 --1431:         if (Win->Surface.Fb.Buffer[i].Status == R_WM_WINBUF_ON_SCREEN)
                        4646 --line1431
                        4647 ..lin.D.3A.5CRenesas_Electronics.5CD1x_RGL.5Crgl_ghs_D1Lx_obj_V1.2E2.2E0.5Cvlib.5Capp.5Cgfx_apps.5Csimple_draw_d1l2.5Ctarget.5Cd1lx_mango_ghs.5Cobj.5Cr_sys_wm.196::
                        4648 .LDWlin196:
00000e44 126d           4649 	sld.w	36[ep],r13
00000e46 0170           4650 	mov	r1,r14
00000e48 c372           4651 	shl	3,r14
00000e4a cd71           4652 	add	r13,r14
00000e4c 2e770500       4653 	ld.w	4[r14],r14
00000e50 6372           4654 	cmp	3,r14
00000e52 8a0d*          4655 	bne	.L2877
                        4656 --1432:         {
                        4657 --1433:             return Win->Surface.Fb.Buffer[i].Data;
                        4658 --line1433
                        4659 ..lin.D.3A.5CRenesas_Electronics.5CD1x_RGL.5Crgl_ghs_D1Lx_obj_V1.2E2.2E0.5Cvlib.5Capp.5Cgfx_apps.5Csimple_draw_d1l2.5Ctarget.5Cd1lx_mango_ghs.5Cobj.5Cr_sys_wm.197::
                        4660 .LDWlin197:
00000e54 126d           4661 	sld.w	36[ep],r13
00000e56 0170           4662 	mov	r1,r14
00000e58 c372           4663 	shl	3,r14
00000e5a cd71           4664 	add	r13,r14
00000e5c 2e570100       4665 	ld.w	0[r14],r10
00000e60 f505*          4666 	br	.L2874
                        4667 .L2877:
                        4668 --line1429
                        4669 ..lin.D.3A.5CRenesas_Electronics.5CD1x_RGL.5Crgl_ghs_D1Lx_obj_V1.2E2.2E0.5Cvlib.5Capp.5Cgfx_apps.5Csimple_draw_d1l2.5Ctarget.5Cd1lx_mango_ghs.5Cobj.5Cr_sys_wm.198::
                        4670 .LDWlin198:
00000e62 410a           4671 	add	1,r1
                        4672 .L2879:
00000e64 9e772900       4673 	ld.bu	40[ep],r14
00000e68 ee09           4674 	cmp	r14,r1
00000e6a d1ed*          4675 	bl	.L2878
                        4676 --1434:         }
                        4677 --1435:     }
                        4678 --1436:     return 0;
                        4679 --line1436
                        4680 ..lin.D.3A.5CRenesas_Electronics.5CD1x_RGL.5Crgl_ghs_D1Lx_obj_V1.2E2.2E0.5Cvlib.5Capp.5Cgfx_apps.5Csimple_draw_d1l2.5Ctarget.5Cd1lx_mango_ghs.5Cobj.5Cr_sys_wm.199::
                        4681 .LDWlin199:
00000e6c 0052           4682 	mov	0,r10
                        4683 .L2874:
                        4684 --	    .ef

                                                                      Page 81
                                                              C:\Users\YINGAO~1\AppData\Local\Temp\gh_000084c1.si
                        4685 .LDW901:
00000e6e 7f00           4686 	jmp	[lp]
                        4687 	.type	_loc_WinGetOnScreenFb,@function
                        4688 	.size	_loc_WinGetOnScreenFb,.-_loc_WinGetOnScreenFb
                        4689 	.type	_loc_WinGetOnScreenFb..D.3A.5CRenesas_Electronics.5CD1x_RGL.5Crgl_ghs_D1Lx_obj_V1.2E2.2E0.5Cvlib.5Capp.5Cgfx_apps.5Csimple_draw_d1l2.5Ctarget.5Cd1lx_mango_ghs.5Cobj.5Cr_sys_wm.,@function
                        4690 	.size	_loc_WinGetOnScreenFb..D.3A.5CRenesas_Electronics.5CD1x_RGL.5Crgl_ghs_D1Lx_obj_V1.2E2.2E0.5Cvlib.5Capp.5Cgfx_apps.5Csimple_draw_d1l2.5Ctarget.5Cd1lx_mango_ghs.5Cobj.5Cr_sys_wm.,.-_loc_WinGetOnScreenFb..D.3A.5CRenesas_Electronics.5CD1x_RGL.5Crgl_ghs_D1Lx_obj_V1.2E2.2E0.5Cvlib.5Capp.5Cgfx_apps.5Csimple_draw_d1l2.5Ctarget.5Cd1lx_mango_ghs.5Cobj.5Cr_sys_wm.
                        4691 	.align	2
                        4692 .LDW011:
                        4693 --_i	r1	local
                        4694 
                        4695 --_Win	ep	param
                        4696 
                        4697 	.section ".bss","awb"
                        4698 .L2916:
                        4699 	.type	.L2916,@object
                        4700 	.size	.L2916,0
                        4701 	.data
                        4702 	.text
                        4703 
                        4704 --1437: }
                        4705 
                        4706 --1440: static const r_vdce_Error_t loc_VDCE_LayerEnable(uint32_t Unit, uint32_t Layer)
                        4707 	.align	2
                        4708 	.align	2
                        4709 	.global	_loc_VDCE_LayerEnable..D.3A.5CRenesas_Electronics.5CD1x_RGL.5Crgl_ghs_D1Lx_obj_V1.2E2.2E0.5Cvlib.5Capp.5Cgfx_apps.5Csimple_draw_d1l2.5Ctarget.5Cd1lx_mango_ghs.5Cobj.5Cr_sys_wm.
                        4710 _loc_VDCE_LayerEnable..D.3A.5CRenesas_Electronics.5CD1x_RGL.5Crgl_ghs_D1Lx_obj_V1.2E2.2E0.5Cvlib.5Capp.5Cgfx_apps.5Csimple_draw_d1l2.5Ctarget.5Cd1lx_mango_ghs.5Cobj.5Cr_sys_wm.:
                        4711 _loc_VDCE_LayerEnable:
00000e70 8007e130       4712 	prepare	{r26,r27,r28,r29,r31},0
00000e74 06e0           4713 	mov	r6,r28
00000e76 07d8           4714 	mov	r7,r27
00000e78 3a0600000000*  4715 	mov	_r_wm_DevSys,r26
                        4716 --	    .bf
                        4717 .LDW111:
                        4718 --1441: {
                        4719 --1442:     r_vdce_Error_t vdce_err = R_VDCE_ERR_OK;
00000e7e 00ea           4720 	mov	0,r29
                        4721 --1443:     if (0 == r_wm_DevSys[Unit].HwLayerEnabled[Layer])
00000e80 1c08           4722 	mov	r28,r1
00000e82 e100           4723 	sxh	r1
00000e84 e10e6000       4724 	mulhi	96,r1,r1
00000e88 1bf0           4725 	mov	r27,ep
00000e8a c2f2           4726 	shl	2,ep
00000e8c da09           4727 	add	r26,r1
00000e8e 010e3400       4728 	addi	52,r1,r1
00000e92 c1f1           4729 	add	r1,ep
00000e94 000d           4730 	sld.w	0[ep],r1
00000e96 e009           4731 	cmp	zero,r1
00000e98 ca15*          4732 	bne	.L2948
                        4733 --1444:     {
                        4734 --1445:         vdce_err = R_VDCE_LayerEnable(Unit, Layer);
                        4735 --line1445
                        4736 ..lin.D.3A.5CRenesas_Electronics.5CD1x_RGL.5Crgl_ghs_D1Lx_obj_V1.2E2.2E0.5Cvlib.5Capp.5Cgfx_apps.5Csimple_draw_d1l2.5Ctarget.5Cd1lx_mango_ghs.5Cobj.5Cr_sys_wm.200::
                        4737 .LDWlin200:
00000e9a 1c30           4738 	mov	r28,r6
00000e9c 1b38           4739 	mov	r27,r7
                        4740 	jarl	_R_VDCE_LayerEnable,lp
                        4740 <EXPANSION BEGIN>
                        4740 jarl22 _R_VDCE_LayerEnable , lp 
00000e9e 80ff0000*      4740 <EXPANSION END>
00000ea2 0ae8           4741 	mov	r10,r29
                        4742 --1446:         

                                                                      Page 82
                                                              C:\Users\YINGAO~1\AppData\Local\Temp\gh_000084c1.si
                        4743 --1447:         if (R_VDCE_ERR_OK == vdce_err)
                        4744 --line1447
                        4745 ..lin.D.3A.5CRenesas_Electronics.5CD1x_RGL.5Crgl_ghs_D1Lx_obj_V1.2E2.2E0.5Cvlib.5Capp.5Cgfx_apps.5Csimple_draw_d1l2.5Ctarget.5Cd1lx_mango_ghs.5Cobj.5Cr_sys_wm.201::
                        4746 .LDWlin201:
00000ea4 e0e9           4747 	cmp	zero,r29
00000ea6 da0d*          4748 	bne	.L2948
                        4749 --1448:         {
                        4750 --1449:             r_wm_DevSys[Unit].HwLayerEnabled[Layer] = 1;
                        4751 --line1449
                        4752 ..lin.D.3A.5CRenesas_Electronics.5CD1x_RGL.5Crgl_ghs_D1Lx_obj_V1.2E2.2E0.5Cvlib.5Capp.5Cgfx_apps.5Csimple_draw_d1l2.5Ctarget.5Cd1lx_mango_ghs.5Cobj.5Cr_sys_wm.202::
                        4753 .LDWlin202:
00000ea8 1c08           4754 	mov	r28,r1
00000eaa e100           4755 	sxh	r1
00000eac e10e6000       4756 	mulhi	96,r1,r1
00000eb0 1bf0           4757 	mov	r27,ep
00000eb2 c2f2           4758 	shl	2,ep
00000eb4 da09           4759 	add	r26,r1
00000eb6 010e3400       4760 	addi	52,r1,r1
00000eba c1f1           4761 	add	r1,ep
00000ebc 010a           4762 	mov	1,r1
00000ebe 010d           4763 	sst.w	r1,0[ep]
                        4764 .L2948:
                        4765 --1450:         }
                        4766 --1451:     }
                        4767 --1452:     
                        4768 --1453:     return vdce_err;
00000ec0 1d50           4769 	mov	r29,r10
                        4770 --	    .ef
                        4771 .LDW211:
00000ec2 4006ff30       4772 	dispose	0,{r26,r27,r28,r29,r31},[lp]
                        4773 	.type	_loc_VDCE_LayerEnable,@function
                        4774 	.size	_loc_VDCE_LayerEnable,.-_loc_VDCE_LayerEnable
                        4775 	.type	_loc_VDCE_LayerEnable..D.3A.5CRenesas_Electronics.5CD1x_RGL.5Crgl_ghs_D1Lx_obj_V1.2E2.2E0.5Cvlib.5Capp.5Cgfx_apps.5Csimple_draw_d1l2.5Ctarget.5Cd1lx_mango_ghs.5Cobj.5Cr_sys_wm.,@function
                        4776 	.size	_loc_VDCE_LayerEnable..D.3A.5CRenesas_Electronics.5CD1x_RGL.5Crgl_ghs_D1Lx_obj_V1.2E2.2E0.5Cvlib.5Capp.5Cgfx_apps.5Csimple_draw_d1l2.5Ctarget.5Cd1lx_mango_ghs.5Cobj.5Cr_sys_wm.,.-_loc_VDCE_LayerEnable..D.3A.5CRenesas_Electronics.5CD1x_RGL.5Crgl_ghs_D1Lx_obj_V1.2E2.2E0.5Cvlib.5Capp.5Cgfx_apps.5Csimple_draw_d1l2.5Ctarget.5Cd1lx_mango_ghs.5Cobj.5Cr_sys_wm.
                        4777 	.align	2
                        4778 .LDW311:
                        4779 --_vdce_err	r29	local
                        4780 
                        4781 --_Unit	r28	param
                        4782 --_Layer	r27	param
                        4783 
                        4784 	.section ".bss","awb"
                        4785 .L2978:
                        4786 	.type	.L2978,@object
                        4787 	.size	.L2978,0
                        4788 	.data
                        4789 	.text
                        4790 
                        4791 --1454: }
                        4792 
                        4793 --1456: static const r_vdce_Error_t loc_VDCE_LayerDisable(uint32_t Unit, uint32_t Layer)
                        4794 	.align	2
                        4795 	.align	2
                        4796 	.global	_loc_VDCE_LayerDisable..D.3A.5CRenesas_Electronics.5CD1x_RGL.5Crgl_ghs_D1Lx_obj_V1.2E2.2E0.5Cvlib.5Capp.5Cgfx_apps.5Csimple_draw_d1l2.5Ctarget.5Cd1lx_mango_ghs.5Cobj.5Cr_sys_wm.
                        4797 _loc_VDCE_LayerDisable..D.3A.5CRenesas_Electronics.5CD1x_RGL.5Crgl_ghs_D1Lx_obj_V1.2E2.2E0.5Cvlib.5Capp.5Cgfx_apps.5Csimple_draw_d1l2.5Ctarget.5Cd1lx_mango_ghs.5Cobj.5Cr_sys_wm.:
                        4798 _loc_VDCE_LayerDisable:
00000ec6 8007e130       4799 	prepare	{r26,r27,r28,r29,r31},0
00000eca 06e0           4800 	mov	r6,r28
00000ecc 07d8           4801 	mov	r7,r27
00000ece 3a0600000000*  4802 	mov	_r_wm_DevSys,r26
                        4803 --	    .bf

                                                                      Page 83
                                                              C:\Users\YINGAO~1\AppData\Local\Temp\gh_000084c1.si
                        4804 .LDW411:
                        4805 --1457: {
                        4806 --1458:     r_vdce_Error_t vdce_err = R_VDCE_ERR_OK;
00000ed4 00ea           4807 	mov	0,r29
                        4808 --1459:     if (1 == r_wm_DevSys[Unit].HwLayerEnabled[Layer])
00000ed6 1c08           4809 	mov	r28,r1
00000ed8 e100           4810 	sxh	r1
00000eda e10e6000       4811 	mulhi	96,r1,r1
00000ede 1bf0           4812 	mov	r27,ep
00000ee0 c2f2           4813 	shl	2,ep
00000ee2 da09           4814 	add	r26,r1
00000ee4 010e3400       4815 	addi	52,r1,r1
00000ee8 c1f1           4816 	add	r1,ep
00000eea 000d           4817 	sld.w	0[ep],r1
00000eec 610a           4818 	cmp	1,r1
00000eee ba15*          4819 	bne	.L3007
                        4820 --1460:     {
                        4821 --1461:         vdce_err = R_VDCE_LayerDisable(Unit, Layer);
                        4822 --line1461
                        4823 ..lin.D.3A.5CRenesas_Electronics.5CD1x_RGL.5Crgl_ghs_D1Lx_obj_V1.2E2.2E0.5Cvlib.5Capp.5Cgfx_apps.5Csimple_draw_d1l2.5Ctarget.5Cd1lx_mango_ghs.5Cobj.5Cr_sys_wm.203::
                        4824 .LDWlin203:
00000ef0 1c30           4825 	mov	r28,r6
00000ef2 1b38           4826 	mov	r27,r7
                        4827 	jarl	_R_VDCE_LayerDisable,lp
                        4827 <EXPANSION BEGIN>
                        4827 jarl22 _R_VDCE_LayerDisable , lp 
00000ef4 80ff0000*      4827 <EXPANSION END>
00000ef8 0ae8           4828 	mov	r10,r29
                        4829 --1463:         if (R_VDCE_ERR_OK == vdce_err)
                        4830 --line1463
                        4831 ..lin.D.3A.5CRenesas_Electronics.5CD1x_RGL.5Crgl_ghs_D1Lx_obj_V1.2E2.2E0.5Cvlib.5Capp.5Cgfx_apps.5Csimple_draw_d1l2.5Ctarget.5Cd1lx_mango_ghs.5Cobj.5Cr_sys_wm.204::
                        4832 .LDWlin204:
00000efa e0e9           4833 	cmp	zero,r29
00000efc ca0d*          4834 	bne	.L3007
                        4835 --1464:         {
                        4836 --1465:             r_wm_DevSys[Unit].HwLayerEnabled[Layer] = 0;
                        4837 --line1465
                        4838 ..lin.D.3A.5CRenesas_Electronics.5CD1x_RGL.5Crgl_ghs_D1Lx_obj_V1.2E2.2E0.5Cvlib.5Capp.5Cgfx_apps.5Csimple_draw_d1l2.5Ctarget.5Cd1lx_mango_ghs.5Cobj.5Cr_sys_wm.205::
                        4839 .LDWlin205:
00000efe 1c08           4840 	mov	r28,r1
00000f00 e100           4841 	sxh	r1
00000f02 e10e6000       4842 	mulhi	96,r1,r1
00000f06 1bf0           4843 	mov	r27,ep
00000f08 c2f2           4844 	shl	2,ep
00000f0a da09           4845 	add	r26,r1
00000f0c 010e3400       4846 	addi	52,r1,r1
00000f10 c1f1           4847 	add	r1,ep
00000f12 0105           4848 	sst.w	zero,0[ep]
                        4849 .L3007:
                        4850 --1466:         }
                        4851 --1467:     }
                        4852 --1468:     
                        4853 --1469:     return vdce_err;
00000f14 1d50           4854 	mov	r29,r10
                        4855 --	    .ef
                        4856 .LDW511:
00000f16 4006ff30       4857 	dispose	0,{r26,r27,r28,r29,r31},[lp]
                        4858 	.type	_loc_VDCE_LayerDisable,@function
                        4859 	.size	_loc_VDCE_LayerDisable,.-_loc_VDCE_LayerDisable
                        4860 	.type	_loc_VDCE_LayerDisable..D.3A.5CRenesas_Electronics.5CD1x_RGL.5Crgl_ghs_D1Lx_obj_V1.2E2.2E0.5Cvlib.5Capp.5Cgfx_apps.5Csimple_draw_d1l2.5Ctarget.5Cd1lx_mango_ghs.5Cobj.5Cr_sys_wm.,@function
                        4861 	.size	_loc_VDCE_LayerDisable..D.3A.5CRenesas_Electronics.5CD1x_RGL.5Crgl_ghs_D1Lx_obj_V1.2E2.2E0.5Cvlib.5Capp.5Cgfx_apps.5Csimple_draw_d1l2.5Ctarget.5Cd1lx_mango_ghs.5Cobj.5Cr_sys_wm.,.-_loc_VDCE_LayerDisable..D.3A.5CRenesas_Electronics.5CD1x_RGL.5Crgl_ghs_D1Lx_obj_V1.2E2.2E0.5Cvlib.5Capp.5Cgfx_apps.5Csimple_draw_d1l2.5Ctarget.5Cd1lx_mango_ghs.5Cobj.5Cr_sys_wm.

                                                                      Page 84
                                                              C:\Users\YINGAO~1\AppData\Local\Temp\gh_000084c1.si
                        4862 	.align	2
                        4863 .LDW611:
                        4864 --_vdce_err	r29	local
                        4865 
                        4866 --_Unit	r28	param
                        4867 --_Layer	r27	param
                        4868 
                        4869 	.section ".bss","awb"
                        4870 .L3042:
                        4871 	.type	.L3042,@object
                        4872 	.size	.L3042,0
                        4873 	.data
                        4874 	.text
                        4875 
                        4876 --1470: }
                        4877 
                        4878 --1473: static void loc_VDCE_ErrorCallback(const uint32_t Unit, const r_vdce_Error_t Error)
                        4879 	.align	2
                        4880 	.align	2
                        4881 	.global	_loc_VDCE_ErrorCallback..D.3A.5CRenesas_Electronics.5CD1x_RGL.5Crgl_ghs_D1Lx_obj_V1.2E2.2E0.5Cvlib.5Capp.5Cgfx_apps.5Csimple_draw_d1l2.5Ctarget.5Cd1lx_mango_ghs.5Cobj.5Cr_sys_wm.
                        4882 _loc_VDCE_ErrorCallback..D.3A.5CRenesas_Electronics.5CD1x_RGL.5Crgl_ghs_D1Lx_obj_V1.2E2.2E0.5Cvlib.5Capp.5Cgfx_apps.5Csimple_draw_d1l2.5Ctarget.5Cd1lx_mango_ghs.5Cobj.5Cr_sys_wm.:
                        4883 _loc_VDCE_ErrorCallback:
00000f1a 8007e100       4884 	prepare	{r28,r29,r31},0
00000f1e 06e8           4885 	mov	r6,r29
00000f20 07e0           4886 	mov	r7,r28
                        4887 --	    .bf
                        4888 .LDW711:
                        4889 --1474: {
                        4890 --1475:     if (R_VDCE_ERR_OK != Error)
00000f22 e0e1           4891 	cmp	zero,r28
00000f24 e205*          4892 	be	.L3071
                        4893 --1476:     {
                        4894 --1477:         R_WM_SYS_REPORT_ERROR(Unit, R_WM_ERR_VOUT_INTERNAL, Error);
                        4895 --1478:         R_WM_ErrorHandler(Unit, R_WM_ERR_VOUT_INTERNAL);
                        4896 --line1478
                        4897 ..lin.D.3A.5CRenesas_Electronics.5CD1x_RGL.5Crgl_ghs_D1Lx_obj_V1.2E2.2E0.5Cvlib.5Capp.5Cgfx_apps.5Csimple_draw_d1l2.5Ctarget.5Cd1lx_mango_ghs.5Cobj.5Cr_sys_wm.206::
                        4898 .LDWlin206:
00000f26 1d30           4899 	mov	r29,r6
00000f28 203e2600       4900 	movea	38,zero,r7
                        4901 	jarl	_R_WM_ErrorHandler,lp
                        4901 <EXPANSION BEGIN>
                        4901 jarl22 _R_WM_ErrorHandler , lp 
00000f2c 80ff0000*      4901 <EXPANSION END>
                        4902 .L3071:
                        4903 --1479:     }
                        4904 --1480: }
                        4905 --line1480
                        4906 ..lin.D.3A.5CRenesas_Electronics.5CD1x_RGL.5Crgl_ghs_D1Lx_obj_V1.2E2.2E0.5Cvlib.5Capp.5Cgfx_apps.5Csimple_draw_d1l2.5Ctarget.5Cd1lx_mango_ghs.5Cobj.5Cr_sys_wm.207::
                        4907 .LDWlin207:
00000f30 0000           4908 	nop
                        4909 --	    .ef
                        4910 .LDW811:
00000f32 4006ff00       4911 	dispose	0,{r28,r29,r31},[lp]
                        4912 	.type	_loc_VDCE_ErrorCallback,@function
                        4913 	.size	_loc_VDCE_ErrorCallback,.-_loc_VDCE_ErrorCallback
                        4914 	.type	_loc_VDCE_ErrorCallback..D.3A.5CRenesas_Electronics.5CD1x_RGL.5Crgl_ghs_D1Lx_obj_V1.2E2.2E0.5Cvlib.5Capp.5Cgfx_apps.5Csimple_draw_d1l2.5Ctarget.5Cd1lx_mango_ghs.5Cobj.5Cr_sys_wm.,@function
                        4915 	.size	_loc_VDCE_ErrorCallback..D.3A.5CRenesas_Electronics.5CD1x_RGL.5Crgl_ghs_D1Lx_obj_V1.2E2.2E0.5Cvlib.5Capp.5Cgfx_apps.5Csimple_draw_d1l2.5Ctarget.5Cd1lx_mango_ghs.5Cobj.5Cr_sys_wm.,.-_loc_VDCE_ErrorCallback..D.3A.5CRenesas_Electronics.5CD1x_RGL.5Crgl_ghs_D1Lx_obj_V1.2E2.2E0.5Cvlib.5Capp.5Cgfx_apps.5Csimple_draw_d1l2.5Ctarget.5Cd1lx_mango_ghs.5Cobj.5Cr_sys_wm.
                        4916 	.align	2
                        4917 .LDW911:
                        4918 
                        4919 --_Unit	r29	param

                                                                      Page 85
                                                              C:\Users\YINGAO~1\AppData\Local\Temp\gh_000084c1.si
                        4920 --_Error	r28	param
                        4921 
                        4922 	.section ".bss","awb"
                        4923 .L3084:
                        4924 	.type	.L3084,@object
                        4925 	.size	.L3084,0
                        4926 	.data
                        4927 	.text
                        4928 
                        4929 
                        4930 --1482: static void loc_SPEA_ErrorCallback(const uint32_t Unit, uint32_t Error)
                        4931 	.align	2
                        4932 	.align	2
                        4933 	.global	_loc_SPEA_ErrorCallback..D.3A.5CRenesas_Electronics.5CD1x_RGL.5Crgl_ghs_D1Lx_obj_V1.2E2.2E0.5Cvlib.5Capp.5Cgfx_apps.5Csimple_draw_d1l2.5Ctarget.5Cd1lx_mango_ghs.5Cobj.5Cr_sys_wm.
                        4934 _loc_SPEA_ErrorCallback..D.3A.5CRenesas_Electronics.5CD1x_RGL.5Crgl_ghs_D1Lx_obj_V1.2E2.2E0.5Cvlib.5Capp.5Cgfx_apps.5Csimple_draw_d1l2.5Ctarget.5Cd1lx_mango_ghs.5Cobj.5Cr_sys_wm.:
                        4935 _loc_SPEA_ErrorCallback:
00000f36 8007e100       4936 	prepare	{r28,r29,r31},0
00000f3a 06e8           4937 	mov	r6,r29
00000f3c 07e0           4938 	mov	r7,r28
                        4939 --	    .bf
                        4940 .LDW021:
                        4941 --1483: {
                        4942 --1484:     if (R_SPEA_ERR_OK != Error)
00000f3e e0e1           4943 	cmp	zero,r28
00000f40 e205*          4944 	be	.L3104
                        4945 --1485:     {
                        4946 --1486:         R_WM_SYS_REPORT_ERROR(Unit, R_WM_ERR_SPEA_INTERNAL, Error);
                        4947 --1487:         R_WM_ErrorHandler(Unit, R_WM_ERR_SPEA_INTERNAL);
                        4948 --line1487
                        4949 ..lin.D.3A.5CRenesas_Electronics.5CD1x_RGL.5Crgl_ghs_D1Lx_obj_V1.2E2.2E0.5Cvlib.5Capp.5Cgfx_apps.5Csimple_draw_d1l2.5Ctarget.5Cd1lx_mango_ghs.5Cobj.5Cr_sys_wm.208::
                        4950 .LDWlin208:
00000f42 1d30           4951 	mov	r29,r6
00000f44 203e3300       4952 	movea	51,zero,r7
                        4953 	jarl	_R_WM_ErrorHandler,lp
                        4953 <EXPANSION BEGIN>
                        4953 jarl22 _R_WM_ErrorHandler , lp 
00000f48 80ff0000*      4953 <EXPANSION END>
                        4954 .L3104:
                        4955 --1488:     }
                        4956 --1489: }
                        4957 --line1489
                        4958 ..lin.D.3A.5CRenesas_Electronics.5CD1x_RGL.5Crgl_ghs_D1Lx_obj_V1.2E2.2E0.5Cvlib.5Capp.5Cgfx_apps.5Csimple_draw_d1l2.5Ctarget.5Cd1lx_mango_ghs.5Cobj.5Cr_sys_wm.209::
                        4959 .LDWlin209:
00000f4c 0000           4960 	nop
                        4961 --	    .ef
                        4962 .LDW121:
00000f4e 4006ff00       4963 	dispose	0,{r28,r29,r31},[lp]
                        4964 	.type	_loc_SPEA_ErrorCallback,@function
                        4965 	.size	_loc_SPEA_ErrorCallback,.-_loc_SPEA_ErrorCallback
                        4966 	.type	_loc_SPEA_ErrorCallback..D.3A.5CRenesas_Electronics.5CD1x_RGL.5Crgl_ghs_D1Lx_obj_V1.2E2.2E0.5Cvlib.5Capp.5Cgfx_apps.5Csimple_draw_d1l2.5Ctarget.5Cd1lx_mango_ghs.5Cobj.5Cr_sys_wm.,@function
                        4967 	.size	_loc_SPEA_ErrorCallback..D.3A.5CRenesas_Electronics.5CD1x_RGL.5Crgl_ghs_D1Lx_obj_V1.2E2.2E0.5Cvlib.5Capp.5Cgfx_apps.5Csimple_draw_d1l2.5Ctarget.5Cd1lx_mango_ghs.5Cobj.5Cr_sys_wm.,.-_loc_SPEA_ErrorCallback..D.3A.5CRenesas_Electronics.5CD1x_RGL.5Crgl_ghs_D1Lx_obj_V1.2E2.2E0.5Cvlib.5Capp.5Cgfx_apps.5Csimple_draw_d1l2.5Ctarget.5Cd1lx_mango_ghs.5Cobj.5Cr_sys_wm.
                        4968 	.align	2
                        4969 .LDW221:
                        4970 
                        4971 --_Unit	r29	param
                        4972 --_Error	r28	param
                        4973 
                        4974 	.section ".bss","awb"
                        4975 .L3132:
                        4976 	.type	.L3132,@object
                        4977 	.size	.L3132,0

                                                                      Page 86
                                                              C:\Users\YINGAO~1\AppData\Local\Temp\gh_000084c1.si
                        4978 	.data
                        4979 	.text
                        4980 
                        4981 
                        4982 --1491: /***************************************************************************
                        4983 --1492:   Function: loc_fitCurveForVdce
                        4984 --1493:   
                        4985 --1494:   Takes two arrays <InValue>, <OutValue> of exactly 33 points, that represent 
                        4986 --1495:   a colour correction curve. 
                        4987 --1496:   
                        4988 --1497:   <InValue> is expected to be in range of [0..256] including 256 for the last element!
                        4989 --1498:   <OutValue is expected to be in range of [0..256] including 256 for the last element!
                        4990 --1499:   
                        4991 --1500:   Both series <InValue>, <OutValue> are required to start in the Origin (0,0), thus <InValue>[0] 
                        4992 --1501:   and <OutValue>[0] need to be zero. 
                        4993 --1502:   Non-matching <InValue> is an error! Non-matching <OutValue> will be fitted!
                        4994 --1503:   
                        4995 --1504:   Both series <InValue>, <OutValue> are required to be monotonically nondecreasing, thus 
                        4996 --1505:   the next value is always bigger than the previous. Non-matching values will be fitted!
                        4997 --1507:   Both series <InValue>, <OutValue> are required to have a slope not bigger than 2, thus 
                        4998 --1508:   for a distance dIn: dOut < 2*dIn . Non-matching values will be fitted!
                        4999 --1509:   
                        5000 --1510:   Parameters:
                        5001 --1511:   InValue       - 33 Reference points starting with ZERO
                        5002 --1512:   OutValue      - 33 Reference points
                        5003 --1513:   NumEntries    - Number of reference points
                        5004 --1514:   FittedCurve   - Reference to the curve to be filled
                        5005 --1515: */
                        5006 --1516: static uint32_t loc_fitCurveForVdce ( 
                        5007 	.align	2
                        5008 	.align	2
                        5009 	.global	_loc_fitCurveForVdce..D.3A.5CRenesas_Electronics.5CD1x_RGL.5Crgl_ghs_D1Lx_obj_V1.2E2.2E0.5Cvlib.5Capp.5Cgfx_apps.5Csimple_draw_d1l2.5Ctarget.5Cd1lx_mango_ghs.5Cobj.5Cr_sys_wm.
                        5010 _loc_fitCurveForVdce..D.3A.5CRenesas_Electronics.5CD1x_RGL.5Crgl_ghs_D1Lx_obj_V1.2E2.2E0.5Cvlib.5Capp.5Cgfx_apps.5Csimple_draw_d1l2.5Ctarget.5Cd1lx_mango_ghs.5Cobj.5Cr_sys_wm.:
                        5011 _loc_fitCurveForVdce:
00000f52 8c07e170       5012 	prepare	{r25,r26,r27,r28,r29,r31},6
00000f56 633f1500       5013 	st.w	r7,20[sp]
00000f5a 06d8           5014 	mov	r6,r27
00000f5c 63471100       5015 	st.w	r8,16[sp]
00000f60 634f0d00       5016 	st.w	r9,12[sp]
                        5017 --	    .bf
                        5018 .LDW321:
                        5019 --1517:                                 uint16_t   *InValue, 
                        5020 --1518:                                 float32_t  *OutValue, 
                        5021 --1519:                                 uint32_t    NumEntries,
                        5022 --1520:                                 r_vdce_GammaCorrect_t *FittedCurve )
                        5023 --1521: {
                        5024 --1522:     const float32_t max_gain = 2047.0f/1024.0f;
                        5025 --1523:     
                        5026 --1524:     float32_t fittedOutValue_last = 0.0f;
00000f64 00d2           5027 	mov	0,r26
                        5028 --1525:     float32_t fittedOutValue = 0.0f;
00000f66 00ca           5029 	mov	0,r25
                        5030 --1527:     uint32_t  i;
                        5031 --1528:     uint8_t   areaSize;
                        5032 --1529:     
                        5033 --1530:     /* Expecting exactly 33 entries */
                        5034 --1531:     if ( 33 != NumEntries )
00000f68 235f1100       5035 	ld.w	16[sp],r11
00000f6c 0b06dfff       5036 	addi	-33,r11,zero
00000f70 b205*          5037 	be	.L3152
                        5038 --1532:     {

                                                                      Page 87
                                                              C:\Users\YINGAO~1\AppData\Local\Temp\gh_000084c1.si
                        5039 --1533:         return 0;
                        5040 --line1533
                        5041 ..lin.D.3A.5CRenesas_Electronics.5CD1x_RGL.5Crgl_ghs_D1Lx_obj_V1.2E2.2E0.5Cvlib.5Capp.5Cgfx_apps.5Csimple_draw_d1l2.5Ctarget.5Cd1lx_mango_ghs.5Cobj.5Cr_sys_wm.210::
                        5042 .LDWlin210:
00000f72 0052           5043 	mov	0,r10
00000f74 e56d*          5044 	br	.L3150
                        5045 .L3152:
                        5046 --1534:     }
                        5047 --1535:     
                        5048 --1536:     /* First entry is expected to start with zero */
                        5049 --1537:     if ( InValue[0] != 0 )
                        5050 --line1537
                        5051 ..lin.D.3A.5CRenesas_Electronics.5CD1x_RGL.5Crgl_ghs_D1Lx_obj_V1.2E2.2E0.5Cvlib.5Capp.5Cgfx_apps.5Csimple_draw_d1l2.5Ctarget.5Cd1lx_mango_ghs.5Cobj.5Cr_sys_wm.211::
                        5052 .LDWlin211:
00000f76 fb0f0100       5053 	ld.hu	0[r27],r1
00000f7a e009           5054 	cmp	zero,r1
00000f7c b205*          5055 	be	.L3155
                        5056 --1538:     {
                        5057 --1539:         return 0;
                        5058 --line1539
                        5059 ..lin.D.3A.5CRenesas_Electronics.5CD1x_RGL.5Crgl_ghs_D1Lx_obj_V1.2E2.2E0.5Cvlib.5Capp.5Cgfx_apps.5Csimple_draw_d1l2.5Ctarget.5Cd1lx_mango_ghs.5Cobj.5Cr_sys_wm.212::
                        5060 .LDWlin212:
00000f7e 0052           5061 	mov	0,r10
00000f80 856d*          5062 	br	.L3150
                        5063 .L3155:
                        5064 --1540:     }
                        5065 --1541:     
                        5066 --1542:     for (i=1; i< NumEntries; i++)
                        5067 --line1542
                        5068 ..lin.D.3A.5CRenesas_Electronics.5CD1x_RGL.5Crgl_ghs_D1Lx_obj_V1.2E2.2E0.5Cvlib.5Capp.5Cgfx_apps.5Csimple_draw_d1l2.5Ctarget.5Cd1lx_mango_ghs.5Cobj.5Cr_sys_wm.213::
                        5069 .LDWlin213:
00000f82 01ea           5070 	mov	1,r29
00000f84 9565*          5071 	br	.L3161
                        5072 .L3160:
                        5073 --1543:     {
                        5074 --1544:         /* Restrict the area size to positive values bigger than zero */
                        5075 --1545:         if ( InValue[i] <= InValue[i-1] )
                        5076 --line1545
                        5077 ..lin.D.3A.5CRenesas_Electronics.5CD1x_RGL.5Crgl_ghs_D1Lx_obj_V1.2E2.2E0.5Cvlib.5Capp.5Cgfx_apps.5Csimple_draw_d1l2.5Ctarget.5Cd1lx_mango_ghs.5Cobj.5Cr_sys_wm.214::
                        5078 .LDWlin214:
00000f86 1df0           5079 	mov	r29,ep
00000f88 1d0effff       5080 	addi	-1,r29,r1
00000f8c c1f2           5081 	shl	1,ep
00000f8e c10a           5082 	shl	1,r1
00000f90 dbf1           5083 	add	r27,ep
00000f92 7070           5084 	sld.hu	0[ep],r14
00000f94 db09           5085 	add	r27,r1
00000f96 e10f0100       5086 	ld.hu	0[r1],r1
00000f9a e171           5087 	cmp	r1,r14
00000f9c bb05*          5088 	bh	.L3162
                        5089 --1546:         {
                        5090 --1547:             areaSize = 1;
                        5091 --line1547
                        5092 ..lin.D.3A.5CRenesas_Electronics.5CD1x_RGL.5Crgl_ghs_D1Lx_obj_V1.2E2.2E0.5Cvlib.5Capp.5Cgfx_apps.5Csimple_draw_d1l2.5Ctarget.5Cd1lx_mango_ghs.5Cobj.5Cr_sys_wm.215::
                        5093 .LDWlin215:
00000f9e 01e2           5094 	mov	1,r28
00000fa0 f50d*          5095 	br	.L3164
                        5096 .L3162:
                        5097 --1548:         }
                        5098 --1549:         else
                        5099 --1550:         {

                                                                      Page 88
                                                              C:\Users\YINGAO~1\AppData\Local\Temp\gh_000084c1.si
                        5100 --1551:             areaSize = InValue[i] - InValue[i-1];
                        5101 --line1551
                        5102 ..lin.D.3A.5CRenesas_Electronics.5CD1x_RGL.5Crgl_ghs_D1Lx_obj_V1.2E2.2E0.5Cvlib.5Capp.5Cgfx_apps.5Csimple_draw_d1l2.5Ctarget.5Cd1lx_mango_ghs.5Cobj.5Cr_sys_wm.216::
                        5103 .LDWlin216:
00000fa2 1df0           5104 	mov	r29,ep
00000fa4 1d0effff       5105 	addi	-1,r29,r1
00000fa8 c1f2           5106 	shl	1,ep
00000faa c10a           5107 	shl	1,r1
00000fac dbf1           5108 	add	r27,ep
00000fae 7070           5109 	sld.hu	0[ep],r14
00000fb0 db09           5110 	add	r27,r1
00000fb2 e10f0100       5111 	ld.hu	0[r1],r1
00000fb6 8e09           5112 	subr	r14,r1
00000fb8 c1e6ff00       5113 	andi	255,r1,r28
00000fbc 9c00           5114 	zxb	r28
                        5115 .L3164:
                        5116 --1552:         }
                        5117 --1553:         
                        5118 --1554:         /* Calculate a (new, if necessary) output value that lies within the HW restrictions */
                        5119 --1555:         fittedOutValue = fittedOutValue_last
00000fbe 235f1500       5120 	ld.w	20[sp],r11
00000fc2 f0e7420c       5121 	cvtf.uws	r28,r1
00000fc6 1df0           5122 	mov	r29,ep
00000fc8 c2f2           5123 	shl	2,ep
00000fca 2e0600e0ff3f   5124 	mov	1073733632,r14
00000fd0 e177643c       5125 	mulf.s	r1,r14,r7
00000fd4 cbf1           5126 	add	r11,ep
00000fd6 000d           5127 	sld.w	0[ep],r1
00000fd8 fa0f6234       5128 	subf.s	r26,r1,r6
                        5129 	jarl	_loc_minf,lp
                        5129 <EXPANSION BEGIN>
                        5129 jarl22 _loc_minf , lp 
00000fdc bfff6af0*      5129 <EXPANSION END>
00000fe0 0a30           5130 	mov	r10,r6
00000fe2 003a           5131 	mov	0,r7
                        5132 	jarl	_loc_maxf,lp
                        5132 <EXPANSION BEGIN>
                        5132 jarl22 _loc_maxf , lp 
00000fe4 bfff6cf0*      5132 <EXPANSION END>
00000fe8 ead760cc       5133 	addf.s	r10,r26,r25
                        5134 --1556:                        + loc_maxf( loc_minf( 
                        5135 --1557:                                         OutValue[i] - fittedOutValue_last, 
                        5136 --1558:                                         areaSize * max_gain ),
                        5137 --1559:                                       0.0f );
                        5138 --1560:         
                        5139 --1561:         /* Calculate the corresponding gain and area */
                        5140 --1562:         FittedCurve->Gain[i-1] = loc_iroundf( loc_minf( 2047.0f,
                        5141 --line1562
                        5142 ..lin.D.3A.5CRenesas_Electronics.5CD1x_RGL.5Crgl_ghs_D1Lx_obj_V1.2E2.2E0.5Cvlib.5Capp.5Cgfx_apps.5Csimple_draw_d1l2.5Ctarget.5Cd1lx_mango_ghs.5Cobj.5Cr_sys_wm.217::
                        5143 .LDWlin217:
00000fec 235f0d00       5144 	ld.w	12[sp],r11
00000ff0 1d08           5145 	mov	r29,r1
00000ff2 c10a           5146 	shl	1,r1
00000ff4 260600e0ff44   5147 	mov	1157619712,r6
00000ffa 0b761e00       5148 	addi	30,r11,r14
00000ffe ce09           5149 	add	r14,r1
00001000 630f0900       5150 	st.w	r1,8[sp]
00001004 40768044       5151 	movhi	hi(1149239296),zero,r14
00001008 facf620c       5152 	subf.s	r26,r25,r1
0000100c ee0f640c       5153 	mulf.s	r14,r1,r1
00001010 f0e74274       5154 	cvtf.uws	r28,r14

                                                                      Page 89
                                                              C:\Users\YINGAO~1\AppData\Local\Temp\gh_000084c1.si
00001014 ee0f6e3c       5155 	divf.s	r14,r1,r7
                        5156 	jarl	_loc_minf,lp
                        5156 <EXPANSION BEGIN>
                        5156 jarl22 _loc_minf , lp 
00001018 bfff2ef0*      5156 <EXPANSION END>
0000101c 0a30           5157 	mov	r10,r6
                        5158 	jarl	_loc_iroundf,lp
                        5158 <EXPANSION BEGIN>
                        5158 jarl22 _loc_iroundf , lp 
0000101e bfff08f0*      5158 <EXPANSION END>
00001022 236f0900       5159 	ld.w	8[sp],r13
00001026 6d570000       5160 	st.h	r10,0[r13]
                        5161 --1563:                                   ((fittedOutValue - fittedOutValue_last) * 1024.0f) / areaSize )  );
                        5162 --1564:         FittedCurve->Area[i-1] = InValue[i-1];
                        5163 --line1564
                        5164 ..lin.D.3A.5CRenesas_Electronics.5CD1x_RGL.5Crgl_ghs_D1Lx_obj_V1.2E2.2E0.5Cvlib.5Capp.5Cgfx_apps.5Csimple_draw_d1l2.5Ctarget.5Cd1lx_mango_ghs.5Cobj.5Cr_sys_wm.218::
                        5165 .LDWlin218:
0000102a 235f0d00       5166 	ld.w	12[sp],r11
0000102e 1d0effff       5167 	addi	-1,r29,r1
00001032 c10a           5168 	shl	1,r1
00001034 db09           5169 	add	r27,r1
00001036 e10f0100       5170 	ld.hu	0[r1],r1
0000103a 0bf6ffff       5171 	addi	-1,r11,ep
0000103e ddf1           5172 	add	r29,ep
00001040 800b           5173 	sst.b	r1,0[ep]
                        5174 --1565:         
                        5175 --1566:         fittedOutValue_last = fittedOutValue;
00001042 19d0           5176 	mov	r25,r26
00001044 41ea           5177 	add	1,r29
                        5178 .L3161:
00001046 235f1100       5179 	ld.w	16[sp],r11
0000104a ebe9           5180 	cmp	r11,r29
0000104c d19d*          5181 	bl	.L3160
                        5182 --1567:     }
                        5183 --1568:     
                        5184 --1569:     return 1;
                        5185 --line1569
                        5186 ..lin.D.3A.5CRenesas_Electronics.5CD1x_RGL.5Crgl_ghs_D1Lx_obj_V1.2E2.2E0.5Cvlib.5Capp.5Cgfx_apps.5Csimple_draw_d1l2.5Ctarget.5Cd1lx_mango_ghs.5Cobj.5Cr_sys_wm.219::
                        5187 .LDWlin219:
0000104e 0152           5188 	mov	1,r10
                        5189 .L3150:
                        5190 --	    .ef
                        5191 .LDW421:
00001050 4c06ff70       5192 	dispose	6,{r25,r26,r27,r28,r29,r31},[lp]
                        5193 	.type	_loc_fitCurveForVdce,@function
                        5194 	.size	_loc_fitCurveForVdce,.-_loc_fitCurveForVdce
                        5195 	.type	_loc_fitCurveForVdce..D.3A.5CRenesas_Electronics.5CD1x_RGL.5Crgl_ghs_D1Lx_obj_V1.2E2.2E0.5Cvlib.5Capp.5Cgfx_apps.5Csimple_draw_d1l2.5Ctarget.5Cd1lx_mango_ghs.5Cobj.5Cr_sys_wm.,@function
                        5196 	.size	_loc_fitCurveForVdce..D.3A.5CRenesas_Electronics.5CD1x_RGL.5Crgl_ghs_D1Lx_obj_V1.2E2.2E0.5Cvlib.5Capp.5Cgfx_apps.5Csimple_draw_d1l2.5Ctarget.5Cd1lx_mango_ghs.5Cobj.5Cr_sys_wm.,.-_loc_fitCurveForVdce..D.3A.5CRenesas_Electronics.5CD1x_RGL.5Crgl_ghs_D1Lx_obj_V1.2E2.2E0.5Cvlib.5Capp.5Cgfx_apps.5Csimple_draw_d1l2.5Ctarget.5Cd1lx_mango_ghs.5Cobj.5Cr_sys_wm.
                        5197 	.align	2
                        5198 .LDW521:
                        5199 --_max_gain	0[sp]	local
                        5200 --_fittedOutValue_last	r26	local
                        5201 --_fittedOutValue	r25	local
                        5202 --_i	r29	local
                        5203 --_areaSize	r28	local
                        5204 
                        5205 --_InValue	r27	param
                        5206 --_OutValue	20[sp]	param
                        5207 --_NumEntries	16[sp]	param
                        5208 --_FittedCurve	12[sp]	param
                        5209 

                                                                      Page 90
                                                              C:\Users\YINGAO~1\AppData\Local\Temp\gh_000084c1.si
                        5210 	.section ".bss","awb"
                        5211 .L3210:
                        5212 	.type	.L3210,@object
                        5213 	.size	.L3210,0
                        5214 	.data
                        5215 	.text
                        5216 
                        5217 --1570: }
                        5218 
                        5219 --1572: /***************************************************************************
                        5220 --1573:   Function: loc_getGammaCurve
                        5221 --1574:   
                        5222 --1575:   Fill the supplied Struct with a color correction curve, that matches the given Gamma Coefficient.
                        5223 --1576:   
                        5224 --1577:   Parameters:
                        5225 --1578:   Gamma     - Gamma coeficcient [32..256]. Internall scaled by 1/128. 
                        5226 --1579:               Floating-point range is [0.25f .. 2.0f]
                        5227 --1580:   Curve     - Color correction curve to be input into VDCE.
                        5228 --1581: */
                        5229 --1582: static uint32_t loc_getGammaCurve( uint32_t Unit, uint8_t Gamma, r_vdce_GammaCorrect_t *Curve )
                        5230 	.align	2
                        5231 	.align	2
                        5232 	.global	_loc_getGammaCurve..D.3A.5CRenesas_Electronics.5CD1x_RGL.5Crgl_ghs_D1Lx_obj_V1.2E2.2E0.5Cvlib.5Capp.5Cgfx_apps.5Csimple_draw_d1l2.5Ctarget.5Cd1lx_mango_ghs.5Cobj.5Cr_sys_wm.
                        5233 _loc_getGammaCurve..D.3A.5CRenesas_Electronics.5CD1x_RGL.5Crgl_ghs_D1Lx_obj_V1.2E2.2E0.5Cvlib.5Capp.5Cgfx_apps.5Csimple_draw_d1l2.5Ctarget.5Cd1lx_mango_ghs.5Cobj.5Cr_sys_wm.:
                        5234 _loc_getGammaCurve:
00001054 be07e170       5235 	prepare	{r25,r26,r27,r28,r29,r31},31
00001058 031ea8ff       5236 	addi	-88,sp,sp
0000105c c75eff00       5237 	andi	255,r7,r11
00001060 63370900       5238 	st.w	r6,8[sp]
00001064 08d0           5239 	mov	r8,r26
00001066 435f0300       5240 	st.b	r11,3[sp]
0000106a 08da           5241 	mov	8,r27
0000106c 40ce7f43       5242 	movhi	hi(1132396544),zero,r25
                        5243 --	    .bf
                        5244 .LDW621:
                        5245 --1583: {
                        5246 --1584:     /* For the gamma correction curve, we take a constant size of the segements so they are equally distributed */
                        5247 --1585:     const uint8_t   seg_size = 8;
                        5248 --1586:     
                        5249 --1587:     float32_t f_gamma;
                        5250 --1588:     uint8_t   segment;
                        5251 --1589:     
                        5252 --1590:     uint16_t  In[33] = {0};
00001070 23369200       5253 	movea	146,sp,r6
00001074 003a           5254 	mov	0,r7
00001076 20464200       5255 	movea	66,zero,r8
                        5256 	jarl	_memset,lp
                        5256 <EXPANSION BEGIN>
                        5256 jarl22 _memset , lp 
0000107a 80ff0000*      5256 <EXPANSION END>
                        5257 --1591:     float32_t Out[33] = {0};
                        5258 --line1591
                        5259 ..lin.D.3A.5CRenesas_Electronics.5CD1x_RGL.5Crgl_ghs_D1Lx_obj_V1.2E2.2E0.5Cvlib.5Capp.5Cgfx_apps.5Csimple_draw_d1l2.5Ctarget.5Cd1lx_mango_ghs.5Cobj.5Cr_sys_wm.220::
                        5260 .LDWlin220:
0000107e 23360c00       5261 	movea	12,sp,r6
00001082 003a           5262 	mov	0,r7
00001084 20468400       5263 	movea	132,zero,r8
                        5264 	jarl	_memset,lp
                        5264 <EXPANSION BEGIN>
                        5264 jarl22 _memset , lp 
00001088 80ff0000*      5264 <EXPANSION END>

                                                                      Page 91
                                                              C:\Users\YINGAO~1\AppData\Local\Temp\gh_000084c1.si
                        5265 --1592:     
                        5266 --1593:     if ( 0 == Curve )
                        5267 --line1593
                        5268 ..lin.D.3A.5CRenesas_Electronics.5CD1x_RGL.5Crgl_ghs_D1Lx_obj_V1.2E2.2E0.5Cvlib.5Capp.5Cgfx_apps.5Csimple_draw_d1l2.5Ctarget.5Cd1lx_mango_ghs.5Cobj.5Cr_sys_wm.221::
                        5269 .LDWlin221:
0000108c e0d1           5270 	cmp	zero,r26
0000108e ba05*          5271 	bne	.L3275
                        5272 --1594:     {
                        5273 --1595:         R_WM_SYS_REPORT_ERROR(Unit, R_WM_ERR_NULL_PTR_ARGUMENT, 0);
                        5274 --1596:         return 0;
                        5275 --line1596
                        5276 ..lin.D.3A.5CRenesas_Electronics.5CD1x_RGL.5Crgl_ghs_D1Lx_obj_V1.2E2.2E0.5Cvlib.5Capp.5Cgfx_apps.5Csimple_draw_d1l2.5Ctarget.5Cd1lx_mango_ghs.5Cobj.5Cr_sys_wm.222::
                        5277 .LDWlin222:
00001090 0052           5278 	mov	0,r10
00001092 c54d*          5279 	br	.L3273
                        5280 .L3275:
                        5281 --1597:     }
                        5282 --1598:     
                        5283 --1599:     f_gamma = Gamma / 128.0f;
                        5284 --line1599
                        5285 ..lin.D.3A.5CRenesas_Electronics.5CD1x_RGL.5Crgl_ghs_D1Lx_obj_V1.2E2.2E0.5Cvlib.5Capp.5Cgfx_apps.5Csimple_draw_d1l2.5Ctarget.5Cd1lx_mango_ghs.5Cobj.5Cr_sys_wm.223::
                        5286 .LDWlin223:
00001094 a35f0300       5287 	ld.bu	3[sp],r11
00001098 4076003c       5288 	movhi	hi(1006632960),zero,r14
0000109c f05f420c       5289 	cvtf.uws	r11,r1
000010a0 ee0f64e4       5290 	mulf.s	r14,r1,r28
                        5291 --1600:     f_gamma = (0.25f > f_gamma) ? 0.25f : f_gamma;
000010a4 400e803e       5292 	movhi	hi(1048576000),zero,r1
000010a8 e1e7680c       5293 	maxf.s	r1,r28,r1
000010ac 01e0           5294 	mov	r1,r28
                        5295 --1602:     /* Step 0 is special. The curve starts always in the origin (0,0) */
                        5296 --1603:     In[0] =   0u;
000010ae 63079200       5297 	st.h	zero,146[sp]
                        5298 --1604:     Out[0] =  0.0f;
000010b2 63070d00       5299 	st.w	zero,12[sp]
                        5300 --1606:     for (segment = 1; segment<33; segment++)
000010b6 01ea           5301 	mov	1,r29
000010b8 0000           5302 	nop
                        5303 .L3280:
                        5304 --1607:     {
                        5305 --1608:         /* Input brightness value */
                        5306 --1609:         In[segment] = (segment) * seg_size;
000010ba 1df0           5307 	mov	r29,ep
000010bc c1f2           5308 	shl	1,ep
000010be 23769200       5309 	movea	146,sp,r14
000010c2 1d08           5310 	mov	r29,r1
000010c4 cef1           5311 	add	r14,ep
000010c6 c30a           5312 	shl	3,r1
000010c8 800c           5313 	sst.h	r1,0[ep]
                        5314 --1610:         
                        5315 --1611:         /* Output value as we want it */
                        5316 --1612:         Out[segment] = 255.0f * loc_powf( In[segment]/255.0f, 1.0f/f_gamma );
000010ca 1d08           5317 	mov	r29,r1
000010cc c20a           5318 	shl	2,r1
000010ce 23760c00       5319 	movea	12,sp,r14
000010d2 1df0           5320 	mov	r29,ep
000010d4 ce09           5321 	add	r14,r1
000010d6 c1f2           5322 	shl	1,ep
000010d8 630f0500       5323 	st.w	r1,4[sp]
000010dc 2e768600       5324 	movea	134,r14,r14
000010e0 cef1           5325 	add	r14,ep

                                                                      Page 92
                                                              C:\Users\YINGAO~1\AppData\Local\Temp\gh_000084c1.si
000010e2 7008           5326 	sld.hu	0[ep],r1
000010e4 f00f420c       5327 	cvtf.uws	r1,r1
000010e8 f90f6e34       5328 	divf.s	r25,r1,r6
000010ec 400e803f       5329 	movhi	hi(1065353216),zero,r1
000010f0 fc0f6e3c       5330 	divf.s	r28,r1,r7
                        5331 	jarl	_loc_powf,lp
                        5331 <EXPANSION BEGIN>
                        5331 jarl22 _loc_powf , lp 
000010f4 bfff06f0*      5331 <EXPANSION END>
000010f8 23670500       5332 	ld.w	4[sp],r12
000010fc eacf640c       5333 	mulf.s	r10,r25,r1
00001100 6c0f0100       5334 	st.w	r1,0[r12]
                        5335 --line1606
                        5336 ..lin.D.3A.5CRenesas_Electronics.5CD1x_RGL.5Crgl_ghs_D1Lx_obj_V1.2E2.2E0.5Cvlib.5Capp.5Cgfx_apps.5Csimple_draw_d1l2.5Ctarget.5Cd1lx_mango_ghs.5Cobj.5Cr_sys_wm.224::
                        5337 .LDWlin224:
00001104 41ea           5338 	add	1,r29
00001106 9d00           5339 	zxb	r29
00001108 1d06dfff       5340 	addi	-33,r29,zero
0000110c f9d5*          5341 	bnl	.L3280
                        5342 --1613:     }
                        5343 --1614:     
                        5344 --1615:     /* Create a curve over the input/output values, staying in the capabilities of the VDCE */
                        5345 --1616:     if (0 == loc_fitCurveForVdce ( In, Out, 33, Curve))
                        5346 --line1616
                        5347 ..lin.D.3A.5CRenesas_Electronics.5CD1x_RGL.5Crgl_ghs_D1Lx_obj_V1.2E2.2E0.5Cvlib.5Capp.5Cgfx_apps.5Csimple_draw_d1l2.5Ctarget.5Cd1lx_mango_ghs.5Cobj.5Cr_sys_wm.225::
                        5348 .LDWlin225:
0000110e 1a48           5349 	mov	r26,r9
00001110 23369200       5350 	movea	146,sp,r6
00001114 233e0c00       5351 	movea	12,sp,r7
00001118 20462100       5352 	movea	33,zero,r8
                        5353 	jarl	_loc_fitCurveForVdce,lp
                        5353 <EXPANSION BEGIN>
                        5353 jarl22 _loc_fitCurveForVdce , lp 
0000111c bfff36fe*      5353 <EXPANSION END>
00001120 e051           5354 	cmp	zero,r10
00001122 ba05*          5355 	bne	.L3281
                        5356 --1617:     {
                        5357 --1618:         R_WM_SYS_REPORT_ERROR(Unit, R_WM_ERR_PARAM_INCORRECT, 0);
                        5358 --1619:         return 0;
                        5359 --line1619
                        5360 ..lin.D.3A.5CRenesas_Electronics.5CD1x_RGL.5Crgl_ghs_D1Lx_obj_V1.2E2.2E0.5Cvlib.5Capp.5Cgfx_apps.5Csimple_draw_d1l2.5Ctarget.5Cd1lx_mango_ghs.5Cobj.5Cr_sys_wm.226::
                        5361 .LDWlin226:
00001124 0052           5362 	mov	0,r10
00001126 a505*          5363 	br	.L3273
                        5364 .L3281:
                        5365 --1620:     }
                        5366 --1621:     
                        5367 --1622:     return 1;
                        5368 --line1622
                        5369 ..lin.D.3A.5CRenesas_Electronics.5CD1x_RGL.5Crgl_ghs_D1Lx_obj_V1.2E2.2E0.5Cvlib.5Capp.5Cgfx_apps.5Csimple_draw_d1l2.5Ctarget.5Cd1lx_mango_ghs.5Cobj.5Cr_sys_wm.227::
                        5370 .LDWlin227:
00001128 0152           5371 	mov	1,r10
                        5372 .L3273:
                        5373 --	    .ef
                        5374 .LDW721:
0000112a 031e5800       5375 	addi	88,sp,sp
0000112e 7e06ff70       5376 	dispose	31,{r25,r26,r27,r28,r29,r31},[lp]
                        5377 	.type	_loc_getGammaCurve,@function
                        5378 	.size	_loc_getGammaCurve,.-_loc_getGammaCurve
                        5379 	.type	_loc_getGammaCurve..D.3A.5CRenesas_Electronics.5CD1x_RGL.5Crgl_ghs_D1Lx_obj_V1.2E2.2E0.5Cvlib.5Capp.5Cgfx_apps.5Csimple_draw_d1l2.5Ctarget.5Cd1lx_mango_ghs.5Cobj.5Cr_sys_wm.,@function
                        5380 	.size	_loc_getGammaCurve..D.3A.5CRenesas_Electronics.5CD1x_RGL.5Crgl_ghs_D1Lx_obj_V1.2E2.2E0.5Cvlib.5Capp.5Cgfx_apps.5Csimple_draw_d1l2.5Ctarget.5Cd1lx_mango_ghs.5Cobj.5Cr_sys_wm.,.-_loc_getGammaCurve..D.3A.5CRenesas_Electronics.5CD1x_RGL.5Crgl_ghs_D1Lx_obj_V1.2E2.2E0.5Cvlib.5Capp.5Cgfx_apps.5Csimple_draw_d1l2.5Ctarget.5Cd1lx_mango_ghs.5Cobj.5Cr_sys_wm.

                                                                      Page 93
                                                              C:\Users\YINGAO~1\AppData\Local\Temp\gh_000084c1.si
                        5381 	.align	2
                        5382 .LDW821:
                        5383 --_seg_size	r27	local
                        5384 --_f_gamma	r28	local
                        5385 --_segment	r29	local
                        5386 --_In	146[sp]	local
                        5387 --_Out	12[sp]	local
                        5388 
                        5389 --_Unit	8[sp]	param
                        5390 --_Gamma	3[sp]	param
                        5391 --_Curve	r26	param
                        5392 
                        5393 	.section ".bss","awb"
                        5394 .L3336:
                        5395 	.type	.L3336,@object
                        5396 	.size	.L3336,0
                        5397 	.data
                        5398 	.text
                        5399 
                        5400 --1623: }
                        5401 
                        5402 --1624: /***********************************************************
                        5403 --1625:   Section: WM Driver Support Functions
                        5404 --1626:   
                        5405 --1627:   Comments see: <WM Support Functions>
                        5406 --1628: */
                        5407 --1631: /***********************************************************
                        5408 --1632:   Group: WM Basic interface functions
                        5409 --1633: */
                        5410 --1636: /***********************************************************
                        5411 --1637:   Function: R_WM_Sys_Init
                        5412 --1638: */
                        5413 --1640: uint32_t R_WM_Sys_DevInit   (   uint32_t Unit,
                        5414 	.align	2
                        5415 	.align	2
                        5416 	.global	_R_WM_Sys_DevInit
                        5417 _R_WM_Sys_DevInit:
00001132 8007e130       5418 	prepare	{r26,r27,r28,r29,r31},0
00001136 06e8           5419 	mov	r6,r29
00001138 07d0           5420 	mov	r7,r26
0000113a 210600000000*  5421 	mov	_loc_WaitVblankInt,r1
00001140 3b0600000000*  5422 	mov	_r_wm_DevSys,r27
                        5423 --	    .bf
                        5424 .LDW921:
                        5425 --1641:                                 void (*EventCb)(uint32_t Unit, const r_wm_Event_t *Event)
                        5426 --1642:                             )
                        5427 --1643: {
                        5428 --1644:     uint32_t i;
                        5429 --1645:     
                        5430 --1646: #ifdef LOC_USE_OS
                        5431 --1648:     /* create a mutex for access to the event queue*/
                        5432 --1649:     R_OS_ThreadMutexInit(&locMutexMsgQueue[Unit], 0);
                        5433 --1651:     /* create a mutex for access to the buffers of a window */
                        5434 --1652:     R_OS_ThreadMutexInit(&locMutexBufferMgmnt[Unit], 0);
                        5435 --1654:     /* create a mutex for global WM locking */
                        5436 --1655:     R_OS_ThreadMutexInit(&locMutexWindows[Unit], 0);
                        5437 --1657:     R_OS_SemInit(&locSemaMsgTrigger[Unit], 0, 0);
                        5438 --1658:     
                        5439 --1659:    for (i = 0; i < R_WM_EVENT_LAST; ++i)
                        5440 --1660:    {		 
                        5441 --1661:        R_OS_SemInit(&locSemaISRTrigger[Unit][i], 0, 0);

                                                                      Page 94
                                                              C:\Users\YINGAO~1\AppData\Local\Temp\gh_000084c1.si
                        5442 --1662:    }
                        5443 --1663: #endif
                        5444 --1665:     loc_WaitVblankInt[Unit] = 0;
00001146 1df0           5445 	mov	r29,ep
00001148 c2f2           5446 	shl	2,ep
0000114a 2d0600000000*  5447 	mov	_loc_WaitVblankInt,r13
00001150 cdf1           5448 	add	r13,ep
00001152 0105           5449 	sst.w	zero,0[ep]
                        5450 --1666:     loc_WaitScanlineInt[Unit] = 0;
00001154 1df0           5451 	mov	r29,ep
00001156 c2f2           5452 	shl	2,ep
00001158 480a           5453 	add	8,r1
0000115a c1f1           5454 	add	r1,ep
0000115c 0105           5455 	sst.w	zero,0[ep]
                        5456 --1668:     for (i = 0; i < R_VDCE_MAX_LAYERS; ++i)
0000115e 00e2           5457 	mov	0,r28
00001160 0000           5458 	nop
                        5459 .L3402:
                        5460 --1669:     {
                        5461 --1670:         r_wm_DevSys[Unit].WinToLayerMap[i].Win = R_NULL;
00001162 1d08           5462 	mov	r29,r1
00001164 e100           5463 	sxh	r1
00001166 e10e6000       5464 	mulhi	96,r1,r1
0000116a 1cf0           5465 	mov	r28,ep
0000116c c3f2           5466 	shl	3,ep
0000116e db09           5467 	add	r27,r1
00001170 010e1400       5468 	addi	20,r1,r1
00001174 c1f1           5469 	add	r1,ep
00001176 0105           5470 	sst.w	zero,0[ep]
                        5471 --1671:         r_wm_DevSys[Unit].WinToLayerMap[i].Layer = LOC_INVALID_LAYER;
00001178 1d08           5472 	mov	r29,r1
0000117a e100           5473 	sxh	r1
0000117c e10e6000       5474 	mulhi	96,r1,r1
00001180 1cf0           5475 	mov	r28,ep
00001182 c3f2           5476 	shl	3,ep
00001184 db09           5477 	add	r27,r1
00001186 010e1400       5478 	addi	20,r1,r1
0000118a c1f1           5479 	add	r1,ep
0000118c 1f0a           5480 	mov	-1,r1
0000118e 030d           5481 	sst.w	r1,4[ep]
                        5482 --1672:         r_wm_DevSys[Unit].HwLayerEnabled[i] = 0;
00001190 1d08           5483 	mov	r29,r1
00001192 e100           5484 	sxh	r1
00001194 e10e6000       5485 	mulhi	96,r1,r1
00001198 1cf0           5486 	mov	r28,ep
0000119a c2f2           5487 	shl	2,ep
0000119c db09           5488 	add	r27,r1
0000119e 010e3400       5489 	addi	52,r1,r1
000011a2 c1f1           5490 	add	r1,ep
000011a4 0105           5491 	sst.w	zero,0[ep]
000011a6 41e2           5492 	add	1,r28
000011a8 64e2           5493 	cmp	4,r28
000011aa c1dd*          5494 	bl	.L3402
                        5495 --1673:     }
                        5496 --1674:     r_wm_DevSys[Unit].EventCb = EventCb;
                        5497 --line1674
                        5498 ..lin.D.3A.5CRenesas_Electronics.5CD1x_RGL.5Crgl_ghs_D1Lx_obj_V1.2E2.2E0.5Cvlib.5Capp.5Cgfx_apps.5Csimple_draw_d1l2.5Ctarget.5Cd1lx_mango_ghs.5Cobj.5Cr_sys_wm.228::
                        5499 .LDWlin228:
000011ac 1df0           5500 	mov	r29,ep
000011ae fe00           5501 	sxh	ep
000011b0 fef66000       5502 	mulhi	96,ep,ep

                                                                      Page 95
                                                              C:\Users\YINGAO~1\AppData\Local\Temp\gh_000084c1.si
000011b4 dbf1           5503 	add	r27,ep
000011b6 29d5           5504 	sst.w	r26,80[ep]
                        5505 --1675:     r_wm_DevSys[Unit].GlobalStatusFlags = 0;
000011b8 1df0           5506 	mov	r29,ep
000011ba fe00           5507 	sxh	ep
000011bc fef66000       5508 	mulhi	96,ep,ep
000011c0 dbf1           5509 	add	r27,ep
000011c2 2d05           5510 	sst.w	zero,88[ep]
                        5511 --1676:     r_wm_DevSys[Unit].HorizontalMoveReserve = 0;
000011c4 1df0           5512 	mov	r29,ep
000011c6 fe00           5513 	sxh	ep
000011c8 fef66000       5514 	mulhi	96,ep,ep
000011cc dbf1           5515 	add	r27,ep
000011ce 2f05           5516 	sst.w	zero,92[ep]
                        5517 --1677:     
                        5518 --1678:     if (R_VDCE_ERR_OK != R_VDCE_Init(Unit))
000011d0 1d30           5519 	mov	r29,r6
                        5520 	jarl	_R_VDCE_Init,lp
                        5520 <EXPANSION BEGIN>
                        5520 jarl22 _R_VDCE_Init , lp 
000011d2 80ff0000*      5520 <EXPANSION END>
000011d6 e051           5521 	cmp	zero,r10
000011d8 b205*          5522 	be	.L3403
                        5523 --1679:     {
                        5524 --1680:         return 0;
                        5525 --line1680
                        5526 ..lin.D.3A.5CRenesas_Electronics.5CD1x_RGL.5Crgl_ghs_D1Lx_obj_V1.2E2.2E0.5Cvlib.5Capp.5Cgfx_apps.5Csimple_draw_d1l2.5Ctarget.5Cd1lx_mango_ghs.5Cobj.5Cr_sys_wm.229::
                        5527 .LDWlin229:
000011da 0052           5528 	mov	0,r10
000011dc 953d*          5529 	br	.L3398
                        5530 .L3403:
                        5531 --1681:     }
                        5532 --1682:     if (R_VDCE_ERR_OK != R_VDCE_ErrorCallbackSet(&loc_VDCE_ErrorCallback))
                        5533 --line1682
                        5534 ..lin.D.3A.5CRenesas_Electronics.5CD1x_RGL.5Crgl_ghs_D1Lx_obj_V1.2E2.2E0.5Cvlib.5Capp.5Cgfx_apps.5Csimple_draw_d1l2.5Ctarget.5Cd1lx_mango_ghs.5Cobj.5Cr_sys_wm.230::
                        5535 .LDWlin230:
000011de 260600000000*  5536 	mov	_loc_VDCE_ErrorCallback,r6
                        5537 	jarl	_R_VDCE_ErrorCallbackSet,lp
                        5537 <EXPANSION BEGIN>
                        5537 jarl22 _R_VDCE_ErrorCallbackSet , lp 
000011e4 80ff0000*      5537 <EXPANSION END>
000011e8 e051           5538 	cmp	zero,r10
000011ea b205*          5539 	be	.L3406
                        5540 --1683:     {
                        5541 --1684:         return 0;
                        5542 --line1684
                        5543 ..lin.D.3A.5CRenesas_Electronics.5CD1x_RGL.5Crgl_ghs_D1Lx_obj_V1.2E2.2E0.5Cvlib.5Capp.5Cgfx_apps.5Csimple_draw_d1l2.5Ctarget.5Cd1lx_mango_ghs.5Cobj.5Cr_sys_wm.231::
                        5544 .LDWlin231:
000011ec 0052           5545 	mov	0,r10
000011ee 8535*          5546 	br	.L3398
                        5547 .L3406:
                        5548 --1685:     }
                        5549 --1687:     if (R_SPEA_ERR_OK != R_SPEA_Init(0))
                        5550 --line1687
                        5551 ..lin.D.3A.5CRenesas_Electronics.5CD1x_RGL.5Crgl_ghs_D1Lx_obj_V1.2E2.2E0.5Cvlib.5Capp.5Cgfx_apps.5Csimple_draw_d1l2.5Ctarget.5Cd1lx_mango_ghs.5Cobj.5Cr_sys_wm.232::
                        5552 .LDWlin232:
000011f0 0032           5553 	mov	0,r6
                        5554 	jarl	_R_SPEA_Init,lp
                        5554 <EXPANSION BEGIN>
                        5554 jarl22 _R_SPEA_Init , lp 
000011f2 80ff0000*      5554 <EXPANSION END>

                                                                      Page 96
                                                              C:\Users\YINGAO~1\AppData\Local\Temp\gh_000084c1.si
000011f6 e051           5555 	cmp	zero,r10
000011f8 b205*          5556 	be	.L3409
                        5557 --1688:     {
                        5558 --1689:         return 0;
                        5559 --line1689
                        5560 ..lin.D.3A.5CRenesas_Electronics.5CD1x_RGL.5Crgl_ghs_D1Lx_obj_V1.2E2.2E0.5Cvlib.5Capp.5Cgfx_apps.5Csimple_draw_d1l2.5Ctarget.5Cd1lx_mango_ghs.5Cobj.5Cr_sys_wm.233::
                        5561 .LDWlin233:
000011fa 0052           5562 	mov	0,r10
000011fc 952d*          5563 	br	.L3398
                        5564 .L3409:
                        5565 --1690:     }
                        5566 --1691:     if (R_SPEA_ERR_OK != R_SPEA_UnitEnable(0, R_SPEA_SU0, 1))
                        5567 --line1691
                        5568 ..lin.D.3A.5CRenesas_Electronics.5CD1x_RGL.5Crgl_ghs_D1Lx_obj_V1.2E2.2E0.5Cvlib.5Capp.5Cgfx_apps.5Csimple_draw_d1l2.5Ctarget.5Cd1lx_mango_ghs.5Cobj.5Cr_sys_wm.234::
                        5569 .LDWlin234:
000011fe 0032           5570 	mov	0,r6
00001200 023a           5571 	mov	2,r7
00001202 0142           5572 	mov	1,r8
                        5573 	jarl	_R_SPEA_UnitEnable,lp
                        5573 <EXPANSION BEGIN>
                        5573 jarl22 _R_SPEA_UnitEnable , lp 
00001204 80ff0000*      5573 <EXPANSION END>
00001208 e051           5574 	cmp	zero,r10
0000120a b205*          5575 	be	.L3412
                        5576 --1692:     {
                        5577 --1693:         return 0;
                        5578 --line1693
                        5579 ..lin.D.3A.5CRenesas_Electronics.5CD1x_RGL.5Crgl_ghs_D1Lx_obj_V1.2E2.2E0.5Cvlib.5Capp.5Cgfx_apps.5Csimple_draw_d1l2.5Ctarget.5Cd1lx_mango_ghs.5Cobj.5Cr_sys_wm.235::
                        5580 .LDWlin235:
0000120c 0052           5581 	mov	0,r10
0000120e 8525*          5582 	br	.L3398
                        5583 .L3412:
                        5584 --1694:     }
                        5585 --1695:     if (R_SPEA_ERR_OK != R_SPEA_UnitEnable(0, R_SPEA_SU1, 1))
                        5586 --line1695
                        5587 ..lin.D.3A.5CRenesas_Electronics.5CD1x_RGL.5Crgl_ghs_D1Lx_obj_V1.2E2.2E0.5Cvlib.5Capp.5Cgfx_apps.5Csimple_draw_d1l2.5Ctarget.5Cd1lx_mango_ghs.5Cobj.5Cr_sys_wm.236::
                        5588 .LDWlin236:
00001210 0032           5589 	mov	0,r6
00001212 033a           5590 	mov	3,r7
00001214 0142           5591 	mov	1,r8
                        5592 	jarl	_R_SPEA_UnitEnable,lp
                        5592 <EXPANSION BEGIN>
                        5592 jarl22 _R_SPEA_UnitEnable , lp 
00001216 80ff0000*      5592 <EXPANSION END>
0000121a e051           5593 	cmp	zero,r10
0000121c b205*          5594 	be	.L3415
                        5595 --1696:     {
                        5596 --1697:         return 0;
                        5597 --line1697
                        5598 ..lin.D.3A.5CRenesas_Electronics.5CD1x_RGL.5Crgl_ghs_D1Lx_obj_V1.2E2.2E0.5Cvlib.5Capp.5Cgfx_apps.5Csimple_draw_d1l2.5Ctarget.5Cd1lx_mango_ghs.5Cobj.5Cr_sys_wm.237::
                        5599 .LDWlin237:
0000121e 0052           5600 	mov	0,r10
00001220 f515*          5601 	br	.L3398
                        5602 .L3415:
                        5603 --1698:     }
                        5604 --1699:     if (R_SPEA_ERR_OK != R_SPEA_UnitEnable(0, R_SPEA_SU2, 1))
                        5605 --line1699
                        5606 ..lin.D.3A.5CRenesas_Electronics.5CD1x_RGL.5Crgl_ghs_D1Lx_obj_V1.2E2.2E0.5Cvlib.5Capp.5Cgfx_apps.5Csimple_draw_d1l2.5Ctarget.5Cd1lx_mango_ghs.5Cobj.5Cr_sys_wm.238::
                        5607 .LDWlin238:
00001222 0032           5608 	mov	0,r6
00001224 043a           5609 	mov	4,r7

                                                                      Page 97
                                                              C:\Users\YINGAO~1\AppData\Local\Temp\gh_000084c1.si
00001226 0142           5610 	mov	1,r8
                        5611 	jarl	_R_SPEA_UnitEnable,lp
                        5611 <EXPANSION BEGIN>
                        5611 jarl22 _R_SPEA_UnitEnable , lp 
00001228 80ff0000*      5611 <EXPANSION END>
0000122c e051           5612 	cmp	zero,r10
0000122e b205*          5613 	be	.L3418
                        5614 --1700:     {
                        5615 --1701:         return 0;
                        5616 --line1701
                        5617 ..lin.D.3A.5CRenesas_Electronics.5CD1x_RGL.5Crgl_ghs_D1Lx_obj_V1.2E2.2E0.5Cvlib.5Capp.5Cgfx_apps.5Csimple_draw_d1l2.5Ctarget.5Cd1lx_mango_ghs.5Cobj.5Cr_sys_wm.239::
                        5618 .LDWlin239:
00001230 0052           5619 	mov	0,r10
00001232 e50d*          5620 	br	.L3398
                        5621 .L3418:
                        5622 --1702:     }
                        5623 --1703:     R_SPEA_SetErrorCallback(&loc_SPEA_ErrorCallback);
                        5624 --line1703
                        5625 ..lin.D.3A.5CRenesas_Electronics.5CD1x_RGL.5Crgl_ghs_D1Lx_obj_V1.2E2.2E0.5Cvlib.5Capp.5Cgfx_apps.5Csimple_draw_d1l2.5Ctarget.5Cd1lx_mango_ghs.5Cobj.5Cr_sys_wm.240::
                        5626 .LDWlin240:
00001234 260600000000*  5627 	mov	_loc_SPEA_ErrorCallback,r6
                        5628 	jarl	_R_SPEA_SetErrorCallback,lp
                        5628 <EXPANSION BEGIN>
                        5628 jarl22 _R_SPEA_SetErrorCallback , lp 
0000123a 80ff0000*      5628 <EXPANSION END>
                        5629 --1704:     
                        5630 --1705:     if (R_VDCE_ERR_OK != R_VDCE_DisplayDisable(Unit))
                        5631 --line1705
                        5632 ..lin.D.3A.5CRenesas_Electronics.5CD1x_RGL.5Crgl_ghs_D1Lx_obj_V1.2E2.2E0.5Cvlib.5Capp.5Cgfx_apps.5Csimple_draw_d1l2.5Ctarget.5Cd1lx_mango_ghs.5Cobj.5Cr_sys_wm.241::
                        5633 .LDWlin241:
0000123e 1d30           5634 	mov	r29,r6
                        5635 	jarl	_R_VDCE_DisplayDisable,lp
                        5635 <EXPANSION BEGIN>
                        5635 jarl22 _R_VDCE_DisplayDisable , lp 
00001240 80ff0000*      5635 <EXPANSION END>
00001244 e051           5636 	cmp	zero,r10
00001246 b205*          5637 	be	.L3421
                        5638 --1706:     {
                        5639 --1707:         return 0;
                        5640 --line1707
                        5641 ..lin.D.3A.5CRenesas_Electronics.5CD1x_RGL.5Crgl_ghs_D1Lx_obj_V1.2E2.2E0.5Cvlib.5Capp.5Cgfx_apps.5Csimple_draw_d1l2.5Ctarget.5Cd1lx_mango_ghs.5Cobj.5Cr_sys_wm.242::
                        5642 .LDWlin242:
00001248 0052           5643 	mov	0,r10
0000124a a505*          5644 	br	.L3398
                        5645 .L3421:
                        5646 --1708:     }
                        5647 --1709:     
                        5648 --1710:     return 1;
                        5649 --line1710
                        5650 ..lin.D.3A.5CRenesas_Electronics.5CD1x_RGL.5Crgl_ghs_D1Lx_obj_V1.2E2.2E0.5Cvlib.5Capp.5Cgfx_apps.5Csimple_draw_d1l2.5Ctarget.5Cd1lx_mango_ghs.5Cobj.5Cr_sys_wm.243::
                        5651 .LDWlin243:
0000124c 0152           5652 	mov	1,r10
                        5653 .L3398:
                        5654 --	    .ef
                        5655 .LDW031:
0000124e 4006ff30       5656 	dispose	0,{r26,r27,r28,r29,r31},[lp]
                        5657 	.type	_R_WM_Sys_DevInit,@function
                        5658 	.size	_R_WM_Sys_DevInit,.-_R_WM_Sys_DevInit
                        5659 	.align	2
                        5660 .LDW131:
                        5661 --_i	r28	local

                                                                      Page 98
                                                              C:\Users\YINGAO~1\AppData\Local\Temp\gh_000084c1.si
                        5662 
                        5663 --_Unit	r29	param
                        5664 --_EventCb	r26	param
                        5665 
                        5666 	.data
                        5667 	.text
                        5668 
                        5669 --1711: }
                        5670 
                        5671 --1712:    
                        5672 --1713: /***********************************************************
                        5673 --1714:   Function: R_WM_Sys_DevRootWinSet
                        5674 --1715: */
                        5675 --1716: void R_WM_Sys_DevRootWindowSet(uint32_t Unit, r_wm_Window_t* RootWin)
                        5676 	.align	2
                        5677 	.align	2
                        5678 	.global	_R_WM_Sys_DevRootWindowSet
                        5679 _R_WM_Sys_DevRootWindowSet:
00001252 0608           5680 	mov	r6,r1
00001254 0770           5681 	mov	r7,r14
                        5682 --	    .bf
                        5683 .LDW231:
                        5684 --1717: {
                        5685 --1718:     r_wm_DevSys[Unit].RootWin = RootWin;
00001256 01f0           5686 	mov	r1,ep
00001258 fe00           5687 	sxh	ep
0000125a fef66000       5688 	mulhi	96,ep,ep
0000125e 2c0600000000*  5689 	mov	_r_wm_DevSys,r12
00001264 ccf1           5690 	add	r12,ep
00001266 2375           5691 	sst.w	r14,68[ep]
                        5692 --1719: }
00001268 0000           5693 	nop
                        5694 --	    .ef
                        5695 .LDW331:
0000126a 7f00           5696 	jmp	[lp]
                        5697 	.type	_R_WM_Sys_DevRootWindowSet,@function
                        5698 	.size	_R_WM_Sys_DevRootWindowSet,.-_R_WM_Sys_DevRootWindowSet
                        5699 	.align	2
                        5700 .LDW431:
                        5701 
                        5702 --_Unit	r1	param
                        5703 --_RootWin	r14	param
                        5704 
                        5705 	.section ".bss","awb"
                        5706 .L3594:
                        5707 	.type	.L3594,@object
                        5708 	.size	.L3594,0
                        5709 	.data
                        5710 	.text
                        5711 
                        5712 
                        5713 --1721: /***********************************************************
                        5714 --1722:   Function: R_WM_Sys_DevRootCaptureSet
                        5715 --1723: */
                        5716 --1724: void R_WM_Sys_DevRootCaptureSet(uint32_t Unit, r_wm_Capture_t* RootCapt)
                        5717 	.align	2
                        5718 	.align	2
                        5719 	.global	_R_WM_Sys_DevRootCaptureSet
                        5720 _R_WM_Sys_DevRootCaptureSet:
0000126c 0608           5721 	mov	r6,r1
0000126e 0770           5722 	mov	r7,r14

                                                                      Page 99
                                                              C:\Users\YINGAO~1\AppData\Local\Temp\gh_000084c1.si
                        5723 --	    .bf
                        5724 .LDW531:
                        5725 --1725: {
                        5726 --1726:     r_wm_DevSys[Unit].RootCapt = RootCapt;
00001270 01f0           5727 	mov	r1,ep
00001272 fe00           5728 	sxh	ep
00001274 fef66000       5729 	mulhi	96,ep,ep
00001278 2c0600000000*  5730 	mov	_r_wm_DevSys,r12
0000127e ccf1           5731 	add	r12,ep
00001280 2575           5732 	sst.w	r14,72[ep]
                        5733 --1727: }
00001282 0000           5734 	nop
                        5735 --	    .ef
                        5736 .LDW631:
00001284 7f00           5737 	jmp	[lp]
                        5738 	.type	_R_WM_Sys_DevRootCaptureSet,@function
                        5739 	.size	_R_WM_Sys_DevRootCaptureSet,.-_R_WM_Sys_DevRootCaptureSet
                        5740 	.align	2
                        5741 .LDW731:
                        5742 
                        5743 --_Unit	r1	param
                        5744 --_RootCapt	r14	param
                        5745 
                        5746 	.section ".bss","awb"
                        5747 .L3626:
                        5748 	.type	.L3626,@object
                        5749 	.size	.L3626,0
                        5750 	.data
                        5751 	.text
                        5752 
                        5753 
                        5754 --1729: /***********************************************************
                        5755 --1730:   Function: R_WM_Sys_DevWaitForHwWriteReady
                        5756 --1731: */
                        5757 --1732: void R_WM_Sys_DevWaitForHwWriteReady(uint32_t Unit)
                        5758 	.align	2
                        5759 	.align	2
                        5760 	.global	_R_WM_Sys_DevWaitForHwWriteReady
                        5761 _R_WM_Sys_DevWaitForHwWriteReady:
00001286 210600000000*  5762 	mov	_loc_WaitScanlineInt,r1
0000128c 0670           5763 	mov	r6,r14
0000128e 0168           5764 	mov	r1,r13
                        5765 --	    .bf
                        5766 .LDW831:
                        5767 --1733: {
                        5768 --1734: 	//uint32_t tick_start,tick_time;
                        5769 --1735: #ifdef LOC_USE_OS
                        5770 --1736:     /* wait for the SCANLINE interrupt */
                        5771 --1737:     loc_WaitScanlineInt[Unit]++;
                        5772 --1739:     /* Don't wait if a shutdown request flag is set */
                        5773 --1740:     if (0 != (r_wm_DevSys[Unit].GlobalStatusFlags & R_WM_SYS_GLOBAL_STATUS_FLAG_SHUTDOWN) )
                        5774 --1741:     {
                        5775 --1742:         return;
                        5776 --1743:     }
                        5777 --1744:     R_OS_SemWait(&locSemaISRTrigger[Unit][R_WM_EVENT_SCANLINE]);
                        5778 --1745: #else
                        5779 --1746:     /* wait for the SCANLINE interrupt */
                        5780 --1747:     loc_WaitScanlineInt[Unit] = 1;
00001290 0ef0           5781 	mov	r14,ep
00001292 c2f2           5782 	shl	2,ep
00001294 cdf1           5783 	add	r13,ep

                                                                      Page 100
                                                              C:\Users\YINGAO~1\AppData\Local\Temp\gh_000084c1.si
00001296 0162           5784 	mov	1,r12
00001298 0165           5785 	sst.w	r12,0[ep]
                        5786 --1748:    // tick_start = R_TICK_GetTimeMS(0);
                        5787 --1749:     while (loc_WaitScanlineInt[Unit] == 1)
0000129a 0000           5788 	nop
                        5789 .L3643:
                        5790 --1750:     {
0000129c 0ef0           5791 	mov	r14,ep
0000129e c2f2           5792 	shl	2,ep
000012a0 cdf1           5793 	add	r13,ep
000012a2 0065           5794 	sld.w	0[ep],r12
000012a4 6162           5795 	cmp	1,r12
000012a6 b2fd*          5796 	be	.L3643
                        5797 --1751:     }	
                        5798 --1752:    // tick_time = R_TICK_GetTimeMS(0) - tick_start; 13ms 
                        5799 --1753:    // printf("ready:%d\r\n",tick_time);
                        5800 --1754: #endif
                        5801 --1755: }
                        5802 --line1755
                        5803 ..lin.D.3A.5CRenesas_Electronics.5CD1x_RGL.5Crgl_ghs_D1Lx_obj_V1.2E2.2E0.5Cvlib.5Capp.5Cgfx_apps.5Csimple_draw_d1l2.5Ctarget.5Cd1lx_mango_ghs.5Cobj.5Cr_sys_wm.244::
                        5804 .LDWlin244:
000012a8 0000           5805 	nop
                        5806 --	    .ef
                        5807 .LDW931:
000012aa 7f00           5808 	jmp	[lp]
                        5809 	.type	_R_WM_Sys_DevWaitForHwWriteReady,@function
                        5810 	.size	_R_WM_Sys_DevWaitForHwWriteReady,.-_R_WM_Sys_DevWaitForHwWriteReady
                        5811 	.align	2
                        5812 .LDW041:
                        5813 
                        5814 --_Unit	r14	param
                        5815 
                        5816 	.data
                        5817 	.text
                        5818 
                        5819 
                        5820 --1757: /***********************************************************
                        5821 --1758:   Function: R_WM_Sys_DevWaitForHwUpdated
                        5822 --1759: */
                        5823 --1760: void R_WM_Sys_DevWaitForHwUpdated(uint32_t Unit)
                        5824 	.align	2
                        5825 	.align	2
                        5826 	.global	_R_WM_Sys_DevWaitForHwUpdated
                        5827 _R_WM_Sys_DevWaitForHwUpdated:
000012ac 210600000000*  5828 	mov	_loc_WaitVblankInt,r1
000012b2 0670           5829 	mov	r6,r14
000012b4 0168           5830 	mov	r1,r13
                        5831 --	    .bf
                        5832 .LDW141:
                        5833 --1761: {
                        5834 --1763: //uint32_t tick_start,tick_time;
                        5835 --1764: #ifdef LOC_USE_OS
                        5836 --1765:     /* wait for the VBLANK interrupt */
                        5837 --1766:     loc_WaitVblankInt[Unit]++;
                        5838 --1768:     /* Don't wait if a shutdown request flag is set */
                        5839 --1769:     if (0 != (r_wm_DevSys[Unit].GlobalStatusFlags & R_WM_SYS_GLOBAL_STATUS_FLAG_SHUTDOWN) )
                        5840 --1770:     {
                        5841 --1771:         return;
                        5842 --1772:     }
                        5843 --1773:     R_OS_SemWait(&locSemaISRTrigger[Unit][R_WM_EVENT_VBLANK]);
                        5844 --1774: #else

                                                                      Page 101
                                                              C:\Users\YINGAO~1\AppData\Local\Temp\gh_000084c1.si
                        5845 --1775:     /* wait for the VBLANK interrupt */
                        5846 --1776:     loc_WaitVblankInt[Unit] = 1;
000012b6 0ef0           5847 	mov	r14,ep
000012b8 c2f2           5848 	shl	2,ep
000012ba cdf1           5849 	add	r13,ep
000012bc 0162           5850 	mov	1,r12
000012be 0165           5851 	sst.w	r12,0[ep]
                        5852 --1777: // tick_start = R_TICK_GetTimeMS(0);
                        5853 --1778:     while (loc_WaitVblankInt[Unit] == 1)
000012c0 0000           5854 	nop
                        5855 .L3684:
                        5856 --1779:     {
000012c2 0ef0           5857 	mov	r14,ep
000012c4 c2f2           5858 	shl	2,ep
000012c6 cdf1           5859 	add	r13,ep
000012c8 0065           5860 	sld.w	0[ep],r12
000012ca 6162           5861 	cmp	1,r12
000012cc b2fd*          5862 	be	.L3684
                        5863 --1780:     }
                        5864 --1781: //tick_time = R_TICK_GetTimeMS(0) - tick_start; 2ms
                        5865 --1782: //printf("update:%d\r\n",tick_time);
                        5866 --1784: #endif
                        5867 --1785: }
                        5868 --line1785
                        5869 ..lin.D.3A.5CRenesas_Electronics.5CD1x_RGL.5Crgl_ghs_D1Lx_obj_V1.2E2.2E0.5Cvlib.5Capp.5Cgfx_apps.5Csimple_draw_d1l2.5Ctarget.5Cd1lx_mango_ghs.5Cobj.5Cr_sys_wm.245::
                        5870 .LDWlin245:
000012ce 0000           5871 	nop
                        5872 --	    .ef
                        5873 .LDW241:
000012d0 7f00           5874 	jmp	[lp]
                        5875 	.type	_R_WM_Sys_DevWaitForHwUpdated,@function
                        5876 	.size	_R_WM_Sys_DevWaitForHwUpdated,.-_R_WM_Sys_DevWaitForHwUpdated
                        5877 	.align	2
                        5878 .LDW341:
                        5879 
                        5880 --_Unit	r14	param
                        5881 
                        5882 	.data
                        5883 	.text
                        5884 
                        5885 
                        5886 --1787: /***********************************************************
                        5887 --1788:   Function: R_WM_Sys_DevFrameStarted
                        5888 --1789: */
                        5889 --1790: void R_WM_Sys_DevFrameStarted(uint32_t Unit)
                        5890 	.align	2
                        5891 	.align	2
                        5892 	.global	_R_WM_Sys_DevFrameStarted
                        5893 _R_WM_Sys_DevFrameStarted:
000012d2 0608           5894 	mov	r6,r1
                        5895 --	    .bf
                        5896 .LDW441:
                        5897 --1791: {
                        5898 --1792:     /* reset the sprite unit update flags */
                        5899 --1793:     r_wm_DevSys[Unit].FrameStatusFlags = 0;
000012d4 01f0           5900 	mov	r1,ep
000012d6 fe00           5901 	sxh	ep
000012d8 fef66000       5902 	mulhi	96,ep,ep
000012dc 2d0600000000*  5903 	mov	_r_wm_DevSys,r13
000012e2 cdf1           5904 	add	r13,ep
000012e4 2b05           5905 	sst.w	zero,84[ep]

                                                                      Page 102
                                                              C:\Users\YINGAO~1\AppData\Local\Temp\gh_000084c1.si
                        5906 --1794: }
000012e6 0000           5907 	nop
                        5908 --	    .ef
                        5909 .LDW541:
000012e8 7f00           5910 	jmp	[lp]
                        5911 	.type	_R_WM_Sys_DevFrameStarted,@function
                        5912 	.size	_R_WM_Sys_DevFrameStarted,.-_R_WM_Sys_DevFrameStarted
                        5913 	.align	2
                        5914 .LDW641:
                        5915 
                        5916 --_Unit	r1	param
                        5917 
                        5918 	.section ".bss","awb"
                        5919 .L3754:
                        5920 	.type	.L3754,@object
                        5921 	.size	.L3754,0
                        5922 	.data
                        5923 	.text
                        5924 
                        5925 
                        5926 --1796: /***********************************************************
                        5927 --1797:   Function: R_WM_Sys_DevFrameFinished
                        5928 --1798: */
                        5929 --1799: static r_wm_sys_vdce_WinLayerPair_t* loc_Spea2WinLayerPair(uint32_t Unit, uint8_t SpeaUnitOrdinal);
                        5930 --1800: static r_wm_sys_vdce_WinLayerPair_t* loc_Spea2WinLayerPair(uint32_t Unit, uint8_t SpeaUnitOrdinal)
                        5931 	.align	2
                        5932 	.align	2
                        5933 	.global	_loc_Spea2WinLayerPair..D.3A.5CRenesas_Electronics.5CD1x_RGL.5Crgl_ghs_D1Lx_obj_V1.2E2.2E0.5Cvlib.5Capp.5Cgfx_apps.5Csimple_draw_d1l2.5Ctarget.5Cd1lx_mango_ghs.5Cobj.5Cr_sys_wm.
                        5934 _loc_Spea2WinLayerPair..D.3A.5CRenesas_Electronics.5CD1x_RGL.5Crgl_ghs_D1Lx_obj_V1.2E2.2E0.5Cvlib.5Capp.5Cgfx_apps.5Csimple_draw_d1l2.5Ctarget.5Cd1lx_mango_ghs.5Cobj.5Cr_sys_wm.:
                        5935 _loc_Spea2WinLayerPair:
000012ea 8407e130       5936 	prepare	{r26,r27,r28,r29,r31},2
000012ee 06e0           5937 	mov	r6,r28
000012f0 c7d6ff00       5938 	andi	255,r7,r26
                        5939 --	    .bf
                        5940 .LDW741:
                        5941 --1801: {
                        5942 --1802:     r_wm_Window_t* cur_win = r_wm_DevSys[Unit].RootWin;
000012f4 1cf0           5943 	mov	r28,ep
000012f6 fe00           5944 	sxh	ep
000012f8 fef66000       5945 	mulhi	96,ep,ep
000012fc 2e0600000000*  5946 	mov	_r_wm_DevSys,r14
00001302 cef1           5947 	add	r14,ep
00001304 22ed           5948 	sld.w	68[ep],r29
                        5949 --1803:     r_wm_sys_vdce_WinLayerPair_t* win_layer_pair;
                        5950 --1804:     uint8_t spea_unit_ordinal;
                        5951 --1805:     r_spea_Unit_t spea_unit;
                        5952 --1806:     
                        5953 --1807:     /* Find Root Win */
                        5954 --1808:     while (cur_win != R_NULL)
00001306 851d*          5955 	br	.L3771
                        5956 .L3773:
                        5957 --1809:     {
                        5958 --1810:         win_layer_pair = loc_WinLayerPairGet(Unit, cur_win);
                        5959 --line1810
                        5960 ..lin.D.3A.5CRenesas_Electronics.5CD1x_RGL.5Crgl_ghs_D1Lx_obj_V1.2E2.2E0.5Cvlib.5Capp.5Cgfx_apps.5Csimple_draw_d1l2.5Ctarget.5Cd1lx_mango_ghs.5Cobj.5Cr_sys_wm.246::
                        5961 .LDWlin246:
00001308 1c30           5962 	mov	r28,r6
0000130a 1d38           5963 	mov	r29,r7
                        5964 	jarl	_loc_WinLayerPairGet,lp
                        5964 <EXPANSION BEGIN>
                        5964 jarl22 _loc_WinLayerPairGet , lp 

                                                                      Page 103
                                                              C:\Users\YINGAO~1\AppData\Local\Temp\gh_000084c1.si
0000130c bfffc0f2*      5964 <EXPANSION END>
00001310 0ad8           5965 	mov	r10,r27
                        5966 --1811:         loc_Layer2Spea(Unit, win_layer_pair->Layer, &spea_unit, &spea_unit_ordinal);
                        5967 --line1811
                        5968 ..lin.D.3A.5CRenesas_Electronics.5CD1x_RGL.5Crgl_ghs_D1Lx_obj_V1.2E2.2E0.5Cvlib.5Capp.5Cgfx_apps.5Csimple_draw_d1l2.5Ctarget.5Cd1lx_mango_ghs.5Cobj.5Cr_sys_wm.247::
                        5969 .LDWlin247:
00001312 3b3f0500       5970 	ld.w	4[r27],r7
00001316 1c30           5971 	mov	r28,r6
00001318 23460400       5972 	movea	4,sp,r8
0000131c 234e0300       5973 	movea	3,sp,r9
                        5974 	jarl	_loc_Layer2Spea,lp
                        5974 <EXPANSION BEGIN>
                        5974 jarl22 _loc_Layer2Spea , lp 
00001320 bfff2ef1*      5974 <EXPANSION END>
                        5975 --1812:         
                        5976 --1813:         if (SpeaUnitOrdinal == spea_unit_ordinal)
                        5977 --line1813
                        5978 ..lin.D.3A.5CRenesas_Electronics.5CD1x_RGL.5Crgl_ghs_D1Lx_obj_V1.2E2.2E0.5Cvlib.5Capp.5Cgfx_apps.5Csimple_draw_d1l2.5Ctarget.5Cd1lx_mango_ghs.5Cobj.5Cr_sys_wm.248::
                        5979 .LDWlin248:
00001324 a30f0300       5980 	ld.bu	3[sp],r1
00001328 e1d1           5981 	cmp	r1,r26
0000132a ba05*          5982 	bne	.L3774
                        5983 --1814:         {
                        5984 --1815:             return win_layer_pair;
                        5985 --line1815
                        5986 ..lin.D.3A.5CRenesas_Electronics.5CD1x_RGL.5Crgl_ghs_D1Lx_obj_V1.2E2.2E0.5Cvlib.5Capp.5Cgfx_apps.5Csimple_draw_d1l2.5Ctarget.5Cd1lx_mango_ghs.5Cobj.5Cr_sys_wm.249::
                        5987 .LDWlin249:
0000132c 1b50           5988 	mov	r27,r10
0000132e f505*          5989 	br	.L3769
                        5990 .L3774:
                        5991 --1816:         }
                        5992 --1817:         
                        5993 --1818:         cur_win = cur_win->Next;
                        5994 --line1818
                        5995 ..lin.D.3A.5CRenesas_Electronics.5CD1x_RGL.5Crgl_ghs_D1Lx_obj_V1.2E2.2E0.5Cvlib.5Capp.5Cgfx_apps.5Csimple_draw_d1l2.5Ctarget.5Cd1lx_mango_ghs.5Cobj.5Cr_sys_wm.250::
                        5996 .LDWlin250:
00001330 3d0f4900       5997 	ld.w	72[r29],r1
00001334 01e8           5998 	mov	r1,r29
                        5999 .L3771:
00001336 e0e9           6000 	cmp	zero,r29
00001338 8aed*          6001 	bne	.L3773
                        6002 --1819:     }
                        6003 --1820:     
                        6004 --1821:     return 0;
                        6005 --line1821
                        6006 ..lin.D.3A.5CRenesas_Electronics.5CD1x_RGL.5Crgl_ghs_D1Lx_obj_V1.2E2.2E0.5Cvlib.5Capp.5Cgfx_apps.5Csimple_draw_d1l2.5Ctarget.5Cd1lx_mango_ghs.5Cobj.5Cr_sys_wm.251::
                        6007 .LDWlin251:
0000133a 0052           6008 	mov	0,r10
                        6009 .L3769:
                        6010 --	    .ef
                        6011 .LDW841:
0000133c 4406ff30       6012 	dispose	2,{r26,r27,r28,r29,r31},[lp]
                        6013 	.type	_loc_Spea2WinLayerPair,@function
                        6014 	.size	_loc_Spea2WinLayerPair,.-_loc_Spea2WinLayerPair
                        6015 	.type	_loc_Spea2WinLayerPair..D.3A.5CRenesas_Electronics.5CD1x_RGL.5Crgl_ghs_D1Lx_obj_V1.2E2.2E0.5Cvlib.5Capp.5Cgfx_apps.5Csimple_draw_d1l2.5Ctarget.5Cd1lx_mango_ghs.5Cobj.5Cr_sys_wm.,@function
                        6016 	.size	_loc_Spea2WinLayerPair..D.3A.5CRenesas_Electronics.5CD1x_RGL.5Crgl_ghs_D1Lx_obj_V1.2E2.2E0.5Cvlib.5Capp.5Cgfx_apps.5Csimple_draw_d1l2.5Ctarget.5Cd1lx_mango_ghs.5Cobj.5Cr_sys_wm.,.-_loc_Spea2WinLayerPair..D.3A.5CRenesas_Electronics.5CD1x_RGL.5Crgl_ghs_D1Lx_obj_V1.2E2.2E0.5Cvlib.5Capp.5Cgfx_apps.5Csimple_draw_d1l2.5Ctarget.5Cd1lx_mango_ghs.5Cobj.5Cr_sys_wm.
                        6017 	.align	2
                        6018 .LDW941:
                        6019 --_cur_win	r29	local
                        6020 --_win_layer_pair	r27	local
                        6021 --_spea_unit_ordinal	3[sp]	local

                                                                      Page 104
                                                              C:\Users\YINGAO~1\AppData\Local\Temp\gh_000084c1.si
                        6022 --_spea_unit	4[sp]	local
                        6023 
                        6024 --_Unit	r28	param
                        6025 --_SpeaUnitOrdinal	r26	param
                        6026 
                        6027 	.section ".bss","awb"
                        6028 .L3802:
                        6029 	.type	.L3802,@object
                        6030 	.size	.L3802,0
                        6031 	.data
                        6032 	.text
                        6033 
                        6034 --1822: }
                        6035 
                        6036 --1825: void R_WM_Sys_DevFrameFinished(uint32_t Unit)
                        6037 	.align	2
                        6038 	.align	2
                        6039 	.global	_R_WM_Sys_DevFrameFinished
                        6040 _R_WM_Sys_DevFrameFinished:
00001340 8807e170       6041 	prepare	{r25,r26,r27,r28,r29,r31},4
00001344 06e8           6042 	mov	r6,r29
00001346 3b0600000000*  6043 	mov	_r_wm_DevSys,r27
                        6044 --	    .bf
                        6045 .LDW051:
                        6046 --1826: {
                        6047 --1827:     /* check the sprite unit update flags */
                        6048 --1828:     uint32_t spea_unit_ordinal;
                        6049 --1829:     r_spea_Unit_t spea_unit;
                        6050 --1830:     uint32_t layer;
                        6051 --1831:     
                        6052 --1832:     /* Rewrite the Sprite configuration for those units that got changed during the last frame */
                        6053 --1833:     for (spea_unit_ordinal = 0; spea_unit_ordinal < 3; ++spea_unit_ordinal)
0000134c 00e2           6054 	mov	0,r28
0000134e 0000           6055 	nop
                        6056 .L3845:
                        6057 --1834:     {
                        6058 --1835:         /* Read respective R_WM_SYS_FRAME_STATUS_SPEA_SUn_REASSIGN_BIT */
                        6059 --1836:         if ((r_wm_DevSys[Unit].FrameStatusFlags & (1uL << (R_WM_SYS_FRAME_STATUS_SPEA_SU0_REASSIGN_BIT+spea_unit_ordinal))) != 0)
00001350 1df0           6060 	mov	r29,ep
00001352 fe00           6061 	sxh	ep
00001354 fef66000       6062 	mulhi	96,ep,ep
00001358 1c0e0400       6063 	addi	4,r28,r1
0000135c 0172           6064 	mov	1,r14
0000135e e177c208       6065 	shl	r1,r14,r1
00001362 dbf1           6066 	add	r27,ep
00001364 2a75           6067 	sld.w	84[ep],r14
00001366 4e09           6068 	and	r14,r1
00001368 8225*          6069 	be	.L3846
                        6070 --1837:         {
                        6071 --	    .bs
                        6072 .LDW151:
                        6073 --1838:             /* Update respective window's sprites */
                        6074 --1839:             r_wm_sys_vdce_WinLayerPair_t* win_layer_pair = loc_Spea2WinLayerPair(Unit, spea_unit_ordinal);
                        6075 --line1839
                        6076 ..lin.D.3A.5CRenesas_Electronics.5CD1x_RGL.5Crgl_ghs_D1Lx_obj_V1.2E2.2E0.5Cvlib.5Capp.5Cgfx_apps.5Csimple_draw_d1l2.5Ctarget.5Cd1lx_mango_ghs.5Cobj.5Cr_sys_wm.252::
                        6077 .LDWlin252:
0000136a 1c38           6078 	mov	r28,r7
0000136c 1d30           6079 	mov	r29,r6
0000136e 8700           6080 	zxb	r7
                        6081 	jarl	_loc_Spea2WinLayerPair,lp
                        6081 <EXPANSION BEGIN>

                                                                      Page 105
                                                              C:\Users\YINGAO~1\AppData\Local\Temp\gh_000084c1.si
                        6081 jarl22 _loc_Spea2WinLayerPair , lp 
00001370 bfff7aff*      6081 <EXPANSION END>
00001374 0ad0           6082 	mov	r10,r26
                        6083 --1840:             
                        6084 --1841:             if ( (win_layer_pair != 0) && (win_layer_pair->Win->Mode != R_WM_WINMODE_SPRITES) )
                        6085 --line1841
                        6086 ..lin.D.3A.5CRenesas_Electronics.5CD1x_RGL.5Crgl_ghs_D1Lx_obj_V1.2E2.2E0.5Cvlib.5Capp.5Cgfx_apps.5Csimple_draw_d1l2.5Ctarget.5Cd1lx_mango_ghs.5Cobj.5Cr_sys_wm.253::
                        6087 .LDWlin253:
00001376 e0d1           6088 	cmp	zero,r26
                        6089 --1842:             {
                        6090 --1843:                 /* Layer is no sprite layer (anymore), deinitialise all sprites */
                        6091 --1844:                 /* Breakpoint here to validate if sprites root is NULL in this case. */
                        6092 --1845:                 /* asm("NOP"); */
                        6093 --1846:             }
                        6094 --1847:             
                        6095 --1848:             if (win_layer_pair != 0)
00001378 e0d1           6096 	cmp	zero,r26
0000137a a20d*          6097 	be	.L3851
                        6098 --1849:             {
                        6099 --1850:                 if (0 == loc_ReassignAllSprites(Unit, win_layer_pair->Win->Surface.SpritesRoot, win_layer_pair->Layer))
                        6100 --line1850
                        6101 ..lin.D.3A.5CRenesas_Electronics.5CD1x_RGL.5Crgl_ghs_D1Lx_obj_V1.2E2.2E0.5Cvlib.5Capp.5Cgfx_apps.5Csimple_draw_d1l2.5Ctarget.5Cd1lx_mango_ghs.5Cobj.5Cr_sys_wm.254::
                        6102 .LDWlin254:
0000137c 3af70100       6103 	ld.w	0[r26],ep
00001380 1d30           6104 	mov	r29,r6
00001382 3a470500       6105 	ld.w	4[r26],r8
00001386 123d           6106 	sld.w	36[ep],r7
                        6107 	jarl	_loc_ReassignAllSprites,lp
                        6107 <EXPANSION BEGIN>
                        6107 jarl22 _loc_ReassignAllSprites , lp 
00001388 bfff34f1*      6107 <EXPANSION END>
0000138c e50d*          6108 	br	.L3846
                        6109 .L3851:
                        6110 --1851:                 {
                        6111 --1852:     #if 0
                        6112 --1853:                     /* This API function <R_WM_Sys_DevFrameFinished> cannot return a value, so just do nothing */
                        6113 --1854:                     return 0;
                        6114 --1855:     #endif
                        6115 --1856:                 }
                        6116 --1857:             }
                        6117 --1858:             else
                        6118 --1859:             {
                        6119 --1860:                 /* No more sprites and no more window */
                        6120 --1861:                 loc_SpeaOrdinal2Layer(Unit, spea_unit_ordinal, &layer);
                        6121 --line1861
                        6122 ..lin.D.3A.5CRenesas_Electronics.5CD1x_RGL.5Crgl_ghs_D1Lx_obj_V1.2E2.2E0.5Cvlib.5Capp.5Cgfx_apps.5Csimple_draw_d1l2.5Ctarget.5Cd1lx_mango_ghs.5Cobj.5Cr_sys_wm.255::
                        6123 .LDWlin255:
0000138e 1c38           6124 	mov	r28,r7
00001390 1d30           6125 	mov	r29,r6
00001392 8700           6126 	zxb	r7
00001394 23460400       6127 	movea	4,sp,r8
                        6128 	jarl	_loc_SpeaOrdinal2Layer,lp
                        6128 <EXPANSION BEGIN>
                        6128 jarl22 _loc_SpeaOrdinal2Layer , lp 
00001398 bfffdcf0*      6128 <EXPANSION END>
                        6129 --1862:                 if (0 == loc_ReassignAllSprites(Unit, R_NULL, layer))
                        6130 --line1862
                        6131 ..lin.D.3A.5CRenesas_Electronics.5CD1x_RGL.5Crgl_ghs_D1Lx_obj_V1.2E2.2E0.5Cvlib.5Capp.5Cgfx_apps.5Csimple_draw_d1l2.5Ctarget.5Cd1lx_mango_ghs.5Cobj.5Cr_sys_wm.256::
                        6132 .LDWlin256:
0000139c 23470500       6133 	ld.w	4[sp],r8
000013a0 1d30           6134 	mov	r29,r6

                                                                      Page 106
                                                              C:\Users\YINGAO~1\AppData\Local\Temp\gh_000084c1.si
000013a2 003a           6135 	mov	0,r7
                        6136 	jarl	_loc_ReassignAllSprites,lp
                        6136 <EXPANSION BEGIN>
                        6136 jarl22 _loc_ReassignAllSprites , lp 
000013a4 bfff18f1*      6136 <EXPANSION END>
                        6137 --1863:                 {
                        6138 --	    .es
                        6139 .LDW251:
                        6140 .L3846:
                        6141 --line1833
                        6142 ..lin.D.3A.5CRenesas_Electronics.5CD1x_RGL.5Crgl_ghs_D1Lx_obj_V1.2E2.2E0.5Cvlib.5Capp.5Cgfx_apps.5Csimple_draw_d1l2.5Ctarget.5Cd1lx_mango_ghs.5Cobj.5Cr_sys_wm.257::
                        6143 .LDWlin257:
000013a8 41e2           6144 	add	1,r28
000013aa 63e2           6145 	cmp	3,r28
000013ac a1d5*          6146 	bl	.L3845
                        6147 --1864:     #if 0
                        6148 --1865:                     /* This API function <R_WM_Sys_DevFrameFinished> cannot return a value, so just do nothing */
                        6149 --1866:                     return 0;
                        6150 --1867:     #endif
                        6151 --1868:                 }
                        6152 --1869:             }
                        6153 --1870:         }
                        6154 --1871:     }
                        6155 --1872:     
                        6156 --1873:     /* Set update request bit for those Sprite Units, that have been written to in the last frame */
                        6157 --1874:     for (spea_unit_ordinal = 0; spea_unit_ordinal < 3; ++spea_unit_ordinal)
                        6158 --line1874
                        6159 ..lin.D.3A.5CRenesas_Electronics.5CD1x_RGL.5Crgl_ghs_D1Lx_obj_V1.2E2.2E0.5Cvlib.5Capp.5Cgfx_apps.5Csimple_draw_d1l2.5Ctarget.5Cd1lx_mango_ghs.5Cobj.5Cr_sys_wm.258::
                        6160 .LDWlin258:
000013ae 00e2           6161 	mov	0,r28
000013b0 0000           6162 	nop
                        6163 .L3860:
                        6164 --1875:     {
                        6165 --1876:         /* Read respective R_WM_SYS_FRAME_STATUS_SPEA_SUn_UPDATE_BIT */
                        6166 --1877:         if ((r_wm_DevSys[Unit].FrameStatusFlags & (1uL << (R_WM_SYS_FRAME_STATUS_SPEA_SU0_UPDATE_BIT+spea_unit_ordinal))) != 0)
000013b2 1df0           6167 	mov	r29,ep
000013b4 fe00           6168 	sxh	ep
000013b6 fef66000       6169 	mulhi	96,ep,ep
000013ba 1c0e0100       6170 	addi	1,r28,r1
000013be 0172           6171 	mov	1,r14
000013c0 e177c208       6172 	shl	r1,r14,r1
000013c4 dbf1           6173 	add	r27,ep
000013c6 2a75           6174 	sld.w	84[ep],r14
000013c8 4e09           6175 	and	r14,r1
000013ca c20d*          6176 	be	.L3861
                        6177 --1878:         {
                        6178 --1879:             spea_unit = (r_spea_Unit_t)(R_SPEA_SU0 + spea_unit_ordinal);
                        6179 --line1879
                        6180 ..lin.D.3A.5CRenesas_Electronics.5CD1x_RGL.5Crgl_ghs_D1Lx_obj_V1.2E2.2E0.5Cvlib.5Capp.5Cgfx_apps.5Csimple_draw_d1l2.5Ctarget.5Cd1lx_mango_ghs.5Cobj.5Cr_sys_wm.259::
                        6181 .LDWlin259:
000013cc 1c5e0200       6182 	addi	2,r28,r11
000013d0 635f0d00       6183 	st.w	r11,12[sp]
                        6184 --1880:             if (R_SPEA_ERR_OK != R_SPEA_UpdateUnit(0, spea_unit, Unit))
000013d4 233f0d00       6185 	ld.w	12[sp],r7
000013d8 1d40           6186 	mov	r29,r8
000013da 8800           6187 	zxb	r8
000013dc 0032           6188 	mov	0,r6
                        6189 	jarl	_R_SPEA_UpdateUnit,lp
                        6189 <EXPANSION BEGIN>
                        6189 jarl22 _R_SPEA_UpdateUnit , lp 
000013de 80ff0000*      6189 <EXPANSION END>

                                                                      Page 107
                                                              C:\Users\YINGAO~1\AppData\Local\Temp\gh_000084c1.si
                        6190 .L3861:
                        6191 --1881:             {
                        6192 --line1874
                        6193 ..lin.D.3A.5CRenesas_Electronics.5CD1x_RGL.5Crgl_ghs_D1Lx_obj_V1.2E2.2E0.5Cvlib.5Capp.5Cgfx_apps.5Csimple_draw_d1l2.5Ctarget.5Cd1lx_mango_ghs.5Cobj.5Cr_sys_wm.260::
                        6194 .LDWlin260:
000013e2 41e2           6195 	add	1,r28
000013e4 63e2           6196 	cmp	3,r28
000013e6 e1e5*          6197 	bl	.L3860
                        6198 --1882:                 /* This API function <R_WM_Sys_DevFrameFinished> cannot return a value, so just do nothing */
                        6199 --1883: #if 0
                        6200 --1884:                 return 0;
                        6201 --1885: #endif
                        6202 --1886:             }
                        6203 --1887:         }
                        6204 --1888:     }
                        6205 --1889:     
                        6206 --1890:     /* Process update request for RLE Unit, if it has been written to in the last frame */
                        6207 --1891:     if ( (r_wm_DevSys[Unit].FrameStatusFlags & (1uL << (R_WM_SYS_FRAME_STATUS_SPEA_RLE_UPDATE_BIT))) != 0 )
                        6208 --line1891
                        6209 ..lin.D.3A.5CRenesas_Electronics.5CD1x_RGL.5Crgl_ghs_D1Lx_obj_V1.2E2.2E0.5Cvlib.5Capp.5Cgfx_apps.5Csimple_draw_d1l2.5Ctarget.5Cd1lx_mango_ghs.5Cobj.5Cr_sys_wm.261::
                        6210 .LDWlin261:
000013e8 1df0           6211 	mov	r29,ep
000013ea fe00           6212 	sxh	ep
000013ec fef66000       6213 	mulhi	96,ep,ep
000013f0 dbf1           6214 	add	r27,ep
000013f2 2a0d           6215 	sld.w	84[ep],r1
000013f4 810a           6216 	shr	1,r1
000013f6 f905*          6217 	bnl	.L3865
                        6218 --1892:     {
                        6219 --1893:         if (R_SPEA_ERR_OK != R_SPEA_UpdateUnit(0, (r_spea_Unit_t)(R_SPEA_RLE0+Unit), Unit))
                        6220 --line1893
                        6221 ..lin.D.3A.5CRenesas_Electronics.5CD1x_RGL.5Crgl_ghs_D1Lx_obj_V1.2E2.2E0.5Cvlib.5Capp.5Cgfx_apps.5Csimple_draw_d1l2.5Ctarget.5Cd1lx_mango_ghs.5Cobj.5Cr_sys_wm.262::
                        6222 .LDWlin262:
000013f8 1d40           6223 	mov	r29,r8
000013fa 1d38           6224 	mov	r29,r7
000013fc 8800           6225 	zxb	r8
000013fe 0032           6226 	mov	0,r6
                        6227 	jarl	_R_SPEA_UpdateUnit,lp
                        6227 <EXPANSION BEGIN>
                        6227 jarl22 _R_SPEA_UpdateUnit , lp 
00001400 80ff0000*      6227 <EXPANSION END>
                        6228 .L3865:
                        6229 --1894:         {
                        6230 --1895:     #if 0
                        6231 --1896:             return 0;
                        6232 --1897:     #endif
                        6233 --1898:         }
                        6234 --1899:     }
                        6235 --1900:     
                        6236 --1901:     /* If no window was visible in this frame, pending SPEA Update Requests cannot be completed immediately.
                        6237 --1902:        => Manually create a SYNC signal. 
                        6238 --1903:           Flickering or artifacts are no problem as nothing is visible on-screen! */
                        6239 --1904:     if ( ((r_wm_DevSys[Unit].FrameStatusFlags & R_WM_SYS_FRAME_STATUS_SPEA_UPDATE_MASK) != 0)
                        6240 --line1904
                        6241 ..lin.D.3A.5CRenesas_Electronics.5CD1x_RGL.5Crgl_ghs_D1Lx_obj_V1.2E2.2E0.5Cvlib.5Capp.5Cgfx_apps.5Csimple_draw_d1l2.5Ctarget.5Cd1lx_mango_ghs.5Cobj.5Cr_sys_wm.263::
                        6242 .LDWlin263:
00001404 1df0           6243 	mov	r29,ep
00001406 fe00           6244 	sxh	ep
00001408 fef66000       6245 	mulhi	96,ep,ep
0000140c dbf1           6246 	add	r27,ep
0000140e 2a0d           6247 	sld.w	84[ep],r1

                                                                      Page 108
                                                              C:\Users\YINGAO~1\AppData\Local\Temp\gh_000084c1.si
00001410 dd0a           6248 	shl	29,r1
00001412 8225*          6249 	be	.L3869
00001414 1df0           6250 	mov	r29,ep
00001416 fe00           6251 	sxh	ep
00001418 fef66000       6252 	mulhi	96,ep,ep
0000141c dbf1           6253 	add	r27,ep
0000141e 2c0d           6254 	sld.w	88[ep],r1
00001420 820a           6255 	shr	2,r1
00001422 811d*          6256 	bl	.L3869
                        6257 --1905:         && ((r_wm_DevSys[Unit].GlobalStatusFlags & R_WM_SYS_GLOBAL_STATUS_FLAG_WINDOWS_VISIBLE) == 0) )
                        6258 --1906:     {
                        6259 --	    .bs
                        6260 .LDW351:
                        6261 --1907:         uint32_t vdcectl = R_DEV_READ_REG(32, VDCECTL);
                        6262 --line1907
                        6263 ..lin.D.3A.5CRenesas_Electronics.5CD1x_RGL.5Crgl_ghs_D1Lx_obj_V1.2E2.2E0.5Cvlib.5Capp.5Cgfx_apps.5Csimple_draw_d1l2.5Ctarget.5Cd1lx_mango_ghs.5Cobj.5Cr_sys_wm.264::
                        6264 .LDWlin264:
00001424 8007c959c080   6265 	ld.w	4290797596[zero],r11
0000142a 635f0900       6266 	st.w	r11,8[sp]
                        6267 --1908:         
                        6268 --1909:     #if defined R_WM_MSQ_DEQUEUE_PROFILING || defined R_WM_MSQ_ENQUEUE_PROFILING
                        6269 --1910:         R_WM_Profile_Log_CheckSPEAUpd();
                        6270 --1911:     #endif
                        6271 --1913:         /* Check UM 37.6 "Hardware and Software Update" about the use of the UPDTn Bit */
                        6272 --1914:         /* Set SYNC(Unit) Signal to 1 */
                        6273 --1915:         R_DEV_WRITE_REG(32, VDCECTL, vdcectl | ((0 == Unit) ? VDCECTL_UPDT0 : VDCECTL_UPDT1) );
0000142e 200e2000       6274 	movea	32,zero,r1
00001432 20761000       6275 	movea	16,zero,r14
00001436 e0e9           6276 	cmp	zero,r29
00001438 e177340b       6277 	cmovne	r1,r14,r1
0000143c 235f0900       6278 	ld.w	8[sp],r11
00001440 0b09           6279 	or	r11,r1
00001442 8007cf09c080   6280 	st.w	r1,4290797596[zero]
                        6281 --1916:         
                        6282 --1917:         /* Set to 0 to create falling edge */
                        6283 --1918:         R_DEV_WRITE_REG(32, VDCECTL, vdcectl);
00001448 235f0900       6284 	ld.w	8[sp],r11
0000144c 8007cf59c080   6285 	st.w	r11,4290797596[zero]
                        6286 --	    .es
                        6287 .LDW451:
                        6288 .L3869:
                        6289 --1919:         
                        6290 --1920:         
                        6291 --1921:     #if defined R_WM_MSQ_DEQUEUE_PROFILING || defined R_WM_MSQ_ENQUEUE_PROFILING
                        6292 --1922:         R_WM_Profile_Log_SPEASWSync();
                        6293 --1923:         for (vdcectl=0; vdcectl<10; vdcectl++) {
                        6294 --1924:             R_WM_Profile_Log_CheckSPEAUpd();
                        6295 --1925:         }
                        6296 --1926:     #endif
                        6297 --1927:     }
                        6298 --1928:     
                        6299 --1929:     /* Check if a CLUT update is pending for any layer */
                        6300 --1930:     if ((r_wm_DevSys[Unit].FrameStatusFlags & R_WM_SYS_FRAME_STATUS_LAYER_CLUT_UPDATE_MASK) != 0)
00001452 1df0           6301 	mov	r29,ep
00001454 fe00           6302 	sxh	ep
00001456 fef66000       6303 	mulhi	96,ep,ep
0000145a dbf1           6304 	add	r27,ep
0000145c 2a0d           6305 	sld.w	84[ep],r1
0000145e c1068007       6306 	andi	1920,r1,zero
00001462 825d*          6307 	be	.L3875
                        6308 --1931:     {

                                                                      Page 109
                                                              C:\Users\YINGAO~1\AppData\Local\Temp\gh_000084c1.si
                        6309 --1932:         for (layer = 0; layer < R_VDCE_MAX_LAYERS; layer++)
                        6310 --line1932
                        6311 ..lin.D.3A.5CRenesas_Electronics.5CD1x_RGL.5Crgl_ghs_D1Lx_obj_V1.2E2.2E0.5Cvlib.5Capp.5Cgfx_apps.5Csimple_draw_d1l2.5Ctarget.5Cd1lx_mango_ghs.5Cobj.5Cr_sys_wm.265::
                        6312 .LDWlin265:
00001464 63070500       6313 	st.w	zero,4[sp]
00001468 0000           6314 	nop
                        6315 .L3879:
                        6316 --1933:         {
                        6317 --1934:             /* Read respective R_WM_SYS_FRAME_STATUS_LAYER_0_CLUT_UPDATE_BIT */
                        6318 --1935:             if ((r_wm_DevSys[Unit].FrameStatusFlags & (1uL << (R_WM_SYS_FRAME_STATUS_LAYER_0_CLUT_UPDATE_BIT+layer))) != 0)
0000146a 230f0500       6319 	ld.w	4[sp],r1
0000146e 1df0           6320 	mov	r29,ep
00001470 fe00           6321 	sxh	ep
00001472 fef66000       6322 	mulhi	96,ep,ep
00001476 0172           6323 	mov	1,r14
00001478 470a           6324 	add	7,r1
0000147a e177c208       6325 	shl	r1,r14,r1
0000147e dbf1           6326 	add	r27,ep
00001480 2a75           6327 	sld.w	84[ep],r14
00001482 4e09           6328 	and	r14,r1
00001484 e23d*          6329 	be	.L3880
                        6330 --1936:             {
                        6331 --	    .bs
                        6332 .LDW551:
                        6333 --1937:                 r_wm_sys_vdce_WinLayerPair_t* win_layer_pair = loc_WinLayerPairGetByLayer(Unit, layer);
                        6334 --line1937
                        6335 ..lin.D.3A.5CRenesas_Electronics.5CD1x_RGL.5Crgl_ghs_D1Lx_obj_V1.2E2.2E0.5Cvlib.5Capp.5Cgfx_apps.5Csimple_draw_d1l2.5Ctarget.5Cd1lx_mango_ghs.5Cobj.5Cr_sys_wm.266::
                        6336 .LDWlin266:
00001486 233f0500       6337 	ld.w	4[sp],r7
0000148a 1d30           6338 	mov	r29,r6
                        6339 	jarl	_loc_WinLayerPairGetByLayer,lp
                        6339 <EXPANSION BEGIN>
                        6339 jarl22 _loc_WinLayerPairGetByLayer , lp 
0000148c bfff88f1*      6339 <EXPANSION END>
00001490 0ac8           6340 	mov	r10,r25
                        6341 --1938:                 
                        6342 --1939:                 if (0 < win_layer_pair->Win->ClutNumEntries)
                        6343 --line1939
                        6344 ..lin.D.3A.5CRenesas_Electronics.5CD1x_RGL.5Crgl_ghs_D1Lx_obj_V1.2E2.2E0.5Cvlib.5Capp.5Cgfx_apps.5Csimple_draw_d1l2.5Ctarget.5Cd1lx_mango_ghs.5Cobj.5Cr_sys_wm.267::
                        6345 .LDWlin267:
00001492 39f70100       6346 	ld.w	0[r25],ep
00001496 1a0d           6347 	sld.w	52[ep],r1
00001498 e009           6348 	cmp	zero,r1
0000149a b335*          6349 	bnh	.L3880
                        6350 --1940:                 {
                        6351 --1941:                     if (1 == r_wm_DevSys[Unit].HwLayerEnabled[layer])
                        6352 --line1941
                        6353 ..lin.D.3A.5CRenesas_Electronics.5CD1x_RGL.5Crgl_ghs_D1Lx_obj_V1.2E2.2E0.5Cvlib.5Capp.5Cgfx_apps.5Csimple_draw_d1l2.5Ctarget.5Cd1lx_mango_ghs.5Cobj.5Cr_sys_wm.268::
                        6354 .LDWlin268:
0000149c 23770500       6355 	ld.w	4[sp],r14
000014a0 1d08           6356 	mov	r29,r1
000014a2 e100           6357 	sxh	r1
000014a4 e10e6000       6358 	mulhi	96,r1,r1
000014a8 db09           6359 	add	r27,r1
000014aa c272           6360 	shl	2,r14
000014ac 01f63400       6361 	addi	52,r1,ep
000014b0 cef1           6362 	add	r14,ep
000014b2 000d           6363 	sld.w	0[ep],r1
000014b4 610a           6364 	cmp	1,r1
000014b6 ea05*          6365 	bne	.L3884
                        6366 --1942:                     {

                                                                      Page 110
                                                              C:\Users\YINGAO~1\AppData\Local\Temp\gh_000084c1.si
                        6367 --1943:                         if (R_VDCE_ERR_OK != R_VDCE_LayerDisable(Unit, layer) )
                        6368 --line1943
                        6369 ..lin.D.3A.5CRenesas_Electronics.5CD1x_RGL.5Crgl_ghs_D1Lx_obj_V1.2E2.2E0.5Cvlib.5Capp.5Cgfx_apps.5Csimple_draw_d1l2.5Ctarget.5Cd1lx_mango_ghs.5Cobj.5Cr_sys_wm.269::
                        6370 .LDWlin269:
000014b8 233f0500       6371 	ld.w	4[sp],r7
000014bc 1d30           6372 	mov	r29,r6
                        6373 	jarl	_R_VDCE_LayerDisable,lp
                        6373 <EXPANSION BEGIN>
                        6373 jarl22 _R_VDCE_LayerDisable , lp 
000014be 80ff0000*      6373 <EXPANSION END>
                        6374 .L3884:
                        6375 --1944:                         {
                        6376 --1945:                     #if 0
                        6377 --1946:                             return 0;
                        6378 --1947:                     #endif
                        6379 --1948:                         }
                        6380 --1949:                     }
                        6381 --1950:                     if (R_VDCE_ERR_OK != R_VDCE_LayerClutSet(Unit, layer, 0, win_layer_pair->Win->ClutNumEntries, (r_vdce_ClutARGB32_t*)(win_layer_pair->Win->Clut)))
                        6382 --line1950
                        6383 ..lin.D.3A.5CRenesas_Electronics.5CD1x_RGL.5Crgl_ghs_D1Lx_obj_V1.2E2.2E0.5Cvlib.5Capp.5Cgfx_apps.5Csimple_draw_d1l2.5Ctarget.5Cd1lx_mango_ghs.5Cobj.5Cr_sys_wm.270::
                        6384 .LDWlin270:
000014c2 39f70100       6385 	ld.w	0[r25],ep
000014c6 1d30           6386 	mov	r29,r6
000014c8 233f0500       6387 	ld.w	4[sp],r7
000014cc 0042           6388 	mov	0,r8
000014ce 1c0d           6389 	sld.w	56[ep],r1
000014d0 1a4d           6390 	sld.w	52[ep],r9
000014d2 630f0100       6391 	st.w	r1,0[sp]
                        6392 	jarl	_R_VDCE_LayerClutSet,lp
                        6392 <EXPANSION BEGIN>
                        6392 jarl22 _R_VDCE_LayerClutSet , lp 
000014d6 80ff0000*      6392 <EXPANSION END>
                        6393 --1951:                     {
                        6394 --1952:                 #if 0
                        6395 --1953:                         return 0;
                        6396 --1954:                 #endif
                        6397 --1955:                     }
                        6398 --1956:                     if (1 == r_wm_DevSys[Unit].HwLayerEnabled[layer])
                        6399 --line1956
                        6400 ..lin.D.3A.5CRenesas_Electronics.5CD1x_RGL.5Crgl_ghs_D1Lx_obj_V1.2E2.2E0.5Cvlib.5Capp.5Cgfx_apps.5Csimple_draw_d1l2.5Ctarget.5Cd1lx_mango_ghs.5Cobj.5Cr_sys_wm.271::
                        6401 .LDWlin271:
000014da 23770500       6402 	ld.w	4[sp],r14
000014de 1d08           6403 	mov	r29,r1
000014e0 e100           6404 	sxh	r1
000014e2 e10e6000       6405 	mulhi	96,r1,r1
000014e6 db09           6406 	add	r27,r1
000014e8 c272           6407 	shl	2,r14
000014ea 01f63400       6408 	addi	52,r1,ep
000014ee cef1           6409 	add	r14,ep
000014f0 000d           6410 	sld.w	0[ep],r1
000014f2 610a           6411 	cmp	1,r1
000014f4 ea05*          6412 	bne	.L3880
                        6413 --1957:                     {
                        6414 --1958:                         if (R_VDCE_ERR_OK != R_VDCE_LayerEnable(Unit, layer) )
                        6415 --line1958
                        6416 ..lin.D.3A.5CRenesas_Electronics.5CD1x_RGL.5Crgl_ghs_D1Lx_obj_V1.2E2.2E0.5Cvlib.5Capp.5Cgfx_apps.5Csimple_draw_d1l2.5Ctarget.5Cd1lx_mango_ghs.5Cobj.5Cr_sys_wm.272::
                        6417 .LDWlin272:
000014f6 233f0500       6418 	ld.w	4[sp],r7
000014fa 1d30           6419 	mov	r29,r6
                        6420 	jarl	_R_VDCE_LayerEnable,lp
                        6420 <EXPANSION BEGIN>

                                                                      Page 111
                                                              C:\Users\YINGAO~1\AppData\Local\Temp\gh_000084c1.si
                        6420 jarl22 _R_VDCE_LayerEnable , lp 
000014fc 80ff0000*      6420 <EXPANSION END>
                        6421 --1959:                         {
                        6422 --	    .es
                        6423 .LDW651:
                        6424 .L3880:
                        6425 --line1932
                        6426 ..lin.D.3A.5CRenesas_Electronics.5CD1x_RGL.5Crgl_ghs_D1Lx_obj_V1.2E2.2E0.5Cvlib.5Capp.5Cgfx_apps.5Csimple_draw_d1l2.5Ctarget.5Cd1lx_mango_ghs.5Cobj.5Cr_sys_wm.273::
                        6427 .LDWlin273:
00001500 230f0500       6428 	ld.w	4[sp],r1
00001504 410a           6429 	add	1,r1
00001506 630f0500       6430 	st.w	r1,4[sp]
0000150a 230f0500       6431 	ld.w	4[sp],r1
0000150e 640a           6432 	cmp	4,r1
00001510 d1ad*          6433 	bl	.L3879
                        6434 .L3875:
                        6435 --1960:                     #if 0
                        6436 --1961:                             return 0;
                        6437 --1962:                     #endif
                        6438 --1963:                         }
                        6439 --1964:                     }
                        6440 --1965:                 }
                        6441 --1966:             }
                        6442 --1967:         }
                        6443 --1968:     }
                        6444 --1969:     
                        6445 --1970:     /* Check if we will have visible windows in the following frame */
                        6446 --1971:     {
                        6447 --	    .bs
                        6448 .LDW751:
                        6449 --1972:         uint32_t status = 0;
                        6450 --line1972
                        6451 ..lin.D.3A.5CRenesas_Electronics.5CD1x_RGL.5Crgl_ghs_D1Lx_obj_V1.2E2.2E0.5Cvlib.5Capp.5Cgfx_apps.5Csimple_draw_d1l2.5Ctarget.5Cd1lx_mango_ghs.5Cobj.5Cr_sys_wm.274::
                        6452 .LDWlin274:
00001512 000a           6453 	mov	0,r1
                        6454 --1973:         
                        6455 --1974:         for(layer = 0; layer < R_VDCE_MAX_LAYERS; layer++)
00001514 63070500       6456 	st.w	zero,4[sp]
00001518 0000           6457 	nop
                        6458 .L3896:
                        6459 --1975:         {
                        6460 --1976:             if (r_wm_DevSys[Unit].HwLayerEnabled[layer] != 0)
0000151a 236f0500       6461 	ld.w	4[sp],r13
0000151e 1d70           6462 	mov	r29,r14
00001520 ee00           6463 	sxh	r14
00001522 ee766000       6464 	mulhi	96,r14,r14
00001526 db71           6465 	add	r27,r14
00001528 c26a           6466 	shl	2,r13
0000152a 0ef63400       6467 	addi	52,r14,ep
0000152e cdf1           6468 	add	r13,ep
00001530 0075           6469 	sld.w	0[ep],r14
00001532 e071           6470 	cmp	zero,r14
00001534 a205*          6471 	be	.L3897
                        6472 --1977:             {
                        6473 --1978:                 status = 1;
                        6474 --line1978
                        6475 ..lin.D.3A.5CRenesas_Electronics.5CD1x_RGL.5Crgl_ghs_D1Lx_obj_V1.2E2.2E0.5Cvlib.5Capp.5Cgfx_apps.5Csimple_draw_d1l2.5Ctarget.5Cd1lx_mango_ghs.5Cobj.5Cr_sys_wm.275::
                        6476 .LDWlin275:
00001536 010a           6477 	mov	1,r1
                        6478 .L3897:
00001538 23770500       6479 	ld.w	4[sp],r14

                                                                      Page 112
                                                              C:\Users\YINGAO~1\AppData\Local\Temp\gh_000084c1.si
0000153c 4172           6480 	add	1,r14
0000153e 63770500       6481 	st.w	r14,4[sp]
00001542 23770500       6482 	ld.w	4[sp],r14
00001546 6472           6483 	cmp	4,r14
00001548 91ed*          6484 	bl	.L3896
                        6485 --1979:             }
                        6486 --1980:         }
                        6487 --1981:         if (status != 0)
                        6488 --line1981
                        6489 ..lin.D.3A.5CRenesas_Electronics.5CD1x_RGL.5Crgl_ghs_D1Lx_obj_V1.2E2.2E0.5Cvlib.5Capp.5Cgfx_apps.5Csimple_draw_d1l2.5Ctarget.5Cd1lx_mango_ghs.5Cobj.5Cr_sys_wm.276::
                        6490 .LDWlin276:
0000154a e009           6491 	cmp	zero,r1
0000154c b20d*          6492 	be	.L3899
                        6493 --1982:         {
                        6494 --1983:             r_wm_DevSys[Unit].GlobalStatusFlags |= R_WM_SYS_GLOBAL_STATUS_FLAG_WINDOWS_VISIBLE;
                        6495 --line1983
                        6496 ..lin.D.3A.5CRenesas_Electronics.5CD1x_RGL.5Crgl_ghs_D1Lx_obj_V1.2E2.2E0.5Cvlib.5Capp.5Cgfx_apps.5Csimple_draw_d1l2.5Ctarget.5Cd1lx_mango_ghs.5Cobj.5Cr_sys_wm.277::
                        6497 .LDWlin277:
0000154e 1df0           6498 	mov	r29,ep
00001550 fe00           6499 	sxh	ep
00001552 fef66000       6500 	mulhi	96,ep,ep
00001556 dbf1           6501 	add	r27,ep
00001558 2c75           6502 	sld.w	88[ep],r14
0000155a 8e760200       6503 	ori	2,r14,r14
0000155e 2d75           6504 	sst.w	r14,88[ep]
00001560 a50d*          6505 	br	.L3901
                        6506 .L3899:
                        6507 --1984:         }
                        6508 --1985:         else
                        6509 --1986:         {
                        6510 --1987:             r_wm_DevSys[Unit].GlobalStatusFlags &= ~R_WM_SYS_GLOBAL_STATUS_FLAG_WINDOWS_VISIBLE;
                        6511 --line1987
                        6512 ..lin.D.3A.5CRenesas_Electronics.5CD1x_RGL.5Crgl_ghs_D1Lx_obj_V1.2E2.2E0.5Cvlib.5Capp.5Cgfx_apps.5Csimple_draw_d1l2.5Ctarget.5Cd1lx_mango_ghs.5Cobj.5Cr_sys_wm.278::
                        6513 .LDWlin278:
00001562 1df0           6514 	mov	r29,ep
00001564 fe00           6515 	sxh	ep
00001566 fef66000       6516 	mulhi	96,ep,ep
0000156a 1d6a           6517 	mov	-3,r13
0000156c dbf1           6518 	add	r27,ep
0000156e 2c75           6519 	sld.w	88[ep],r14
00001570 4d71           6520 	and	r13,r14
00001572 2d75           6521 	sst.w	r14,88[ep]
                        6522 .L3901:
                        6523 --	    .es
                        6524 .LDW851:
                        6525 --1988:         }
                        6526 --1989:     }
                        6527 --1990: }
00001574 0000           6528 	nop
                        6529 --	    .ef
                        6530 .LDW951:
00001576 4806ff70       6531 	dispose	4,{r25,r26,r27,r28,r29,r31},[lp]
                        6532 	.type	_R_WM_Sys_DevFrameFinished,@function
                        6533 	.size	_R_WM_Sys_DevFrameFinished,.-_R_WM_Sys_DevFrameFinished
                        6534 	.align	2
                        6535 .LDW061:
                        6536 --_spea_unit_ordinal	r28	local
                        6537 --_spea_unit	12[sp]	local
                        6538 --_layer	4[sp]	local
                        6539 --_win_layer_pair	r26	local
                        6540 --_vdcectl	8[sp]	local

                                                                      Page 113
                                                              C:\Users\YINGAO~1\AppData\Local\Temp\gh_000084c1.si
                        6541 --_win_layer_pair	r25	local
                        6542 --_status	r1	local
                        6543 
                        6544 --_Unit	r29	param
                        6545 
                        6546 	.section ".bss","awb"
                        6547 .L4065:
                        6548 	.type	.L4065,@object
                        6549 	.size	.L4065,0
                        6550 	.data
                        6551 	.text
                        6552 
                        6553 
                        6554 --1991:    
                        6555 --1992: /***********************************************************
                        6556 --1993:   Function: R_WM_Sys_DeInit
                        6557 --1994: */
                        6558 --1996: uint32_t R_WM_Sys_DevDeinit(uint32_t  Unit)
                        6559 	.align	2
                        6560 	.align	2
                        6561 	.global	_R_WM_Sys_DevDeinit
                        6562 _R_WM_Sys_DevDeinit:
0000157a 80076100       6563 	prepare	{r29,r31},0
0000157e 06e8           6564 	mov	r6,r29
00001580 210600000000*  6565 	mov	_loc_WaitVblankInt,r1
                        6566 --	    .bf
                        6567 .LDW161:
                        6568 --1997: {
                        6569 --1998: #ifdef LOC_USE_OS
                        6570 --1999:     uint32_t i;
                        6571 --2000: #endif
                        6572 --2002: 	/* Preparing shutdown by trying to escape from any wait states */
                        6573 --2003:     r_wm_DevSys[Unit].GlobalStatusFlags |= R_WM_SYS_GLOBAL_STATUS_FLAG_SHUTDOWN;
00001586 1df0           6574 	mov	r29,ep
00001588 fe00           6575 	sxh	ep
0000158a fef66000       6576 	mulhi	96,ep,ep
0000158e 2d0600000000*  6577 	mov	_r_wm_DevSys,r13
00001594 cdf1           6578 	add	r13,ep
00001596 2c75           6579 	sld.w	88[ep],r14
00001598 406e0080       6580 	movhi	hi(-2147483648),zero,r13
0000159c 0d71           6581 	or	r13,r14
0000159e 2d75           6582 	sst.w	r14,88[ep]
                        6583 --2005: #ifdef LOC_USE_OS
                        6584 --2006:     /* Make sure, wm isn't waiting for some events */
                        6585 --2007:     while (loc_WaitVblankInt[Unit] != 0)
                        6586 --2008:     {
                        6587 --2009:         R_OS_SemPost(&locSemaISRTrigger[Unit][R_WM_EVENT_VBLANK]);
                        6588 --2010:         loc_WaitVblankInt[Unit]--;
                        6589 --2011:     }
                        6590 --2012:     while (loc_WaitScanlineInt[Unit] != 0)
                        6591 --2013:     {
                        6592 --2014:         R_OS_SemPost(&locSemaISRTrigger[Unit][R_WM_EVENT_SCANLINE]);
                        6593 --2015:         loc_WaitScanlineInt[Unit]--;
                        6594 --2016:     }
                        6595 --2017:     
                        6596 --2018:     /* delete mutex */
                        6597 --2019:     R_OS_ThreadMutexDestroy(&locMutexWindows[Unit]);
                        6598 --2020:     R_OS_ThreadMutexDestroy(&locMutexMsgQueue[Unit]);
                        6599 --2021:     R_OS_ThreadMutexDestroy(&locMutexBufferMgmnt[Unit]);
                        6600 --2022:     R_OS_ThreadSleep(20);
                        6601 --2023:     R_OS_SemPost(&locSemaMsgTrigger[Unit]);

                                                                      Page 114
                                                              C:\Users\YINGAO~1\AppData\Local\Temp\gh_000084c1.si
                        6602 --2024:     R_OS_ThreadSleep(20); /* (todo) thread sync. via sleep() might cause problems during shutdown */
                        6603 --2025:     R_OS_SemDestroy(&locSemaMsgTrigger[Unit]);
                        6604 --2027:     for (i = 0; i < R_WM_EVENT_LAST; ++i)
                        6605 --2028:     {		 
                        6606 --2029:         R_OS_SemDestroy(&locSemaISRTrigger[Unit][i]);
                        6607 --2030:     }
                        6608 --2031: #else
                        6609 --2032: 	loc_WaitVblankInt[Unit] = 0;
000015a0 1df0           6610 	mov	r29,ep
000015a2 c2f2           6611 	shl	2,ep
000015a4 2d0600000000*  6612 	mov	_loc_WaitVblankInt,r13
000015aa cdf1           6613 	add	r13,ep
000015ac 0105           6614 	sst.w	zero,0[ep]
                        6615 --2033:     loc_WaitScanlineInt[Unit] = 0;
000015ae 1df0           6616 	mov	r29,ep
000015b0 c2f2           6617 	shl	2,ep
000015b2 480a           6618 	add	8,r1
000015b4 c1f1           6619 	add	r1,ep
000015b6 0105           6620 	sst.w	zero,0[ep]
                        6621 --2034: #endif
                        6622 --2036:     if (R_VDCE_ERR_OK != R_VDCE_DeInit(Unit))
000015b8 1d30           6623 	mov	r29,r6
                        6624 	jarl	_R_VDCE_DeInit,lp
                        6624 <EXPANSION BEGIN>
                        6624 jarl22 _R_VDCE_DeInit , lp 
000015ba 80ff0000*      6624 <EXPANSION END>
000015be e051           6625 	cmp	zero,r10
000015c0 b205*          6626 	be	.L4237
                        6627 --2037:     {
                        6628 --2038:         return 0;
                        6629 --line2038
                        6630 ..lin.D.3A.5CRenesas_Electronics.5CD1x_RGL.5Crgl_ghs_D1Lx_obj_V1.2E2.2E0.5Cvlib.5Capp.5Cgfx_apps.5Csimple_draw_d1l2.5Ctarget.5Cd1lx_mango_ghs.5Cobj.5Cr_sys_wm.279::
                        6631 .LDWlin279:
000015c2 0052           6632 	mov	0,r10
000015c4 a505*          6633 	br	.L4235
                        6634 .L4237:
                        6635 --2039:     }
                        6636 --2040:     return 1;
                        6637 --line2040
                        6638 ..lin.D.3A.5CRenesas_Electronics.5CD1x_RGL.5Crgl_ghs_D1Lx_obj_V1.2E2.2E0.5Cvlib.5Capp.5Cgfx_apps.5Csimple_draw_d1l2.5Ctarget.5Cd1lx_mango_ghs.5Cobj.5Cr_sys_wm.280::
                        6639 .LDWlin280:
000015c6 0152           6640 	mov	1,r10
                        6641 .L4235:
                        6642 --	    .ef
                        6643 .LDW261:
000015c8 40067f00       6644 	dispose	0,{r29,r31},[lp]
                        6645 	.type	_R_WM_Sys_DevDeinit,@function
                        6646 	.size	_R_WM_Sys_DevDeinit,.-_R_WM_Sys_DevDeinit
                        6647 	.align	2
                        6648 .LDW361:
                        6649 
                        6650 --_Unit	r29	param
                        6651 
                        6652 	.data
                        6653 	.text
                        6654 
                        6655 --2041: }
                        6656 
                        6657 --2043: /***********************************************************
                        6658 --2044:   Group: WM Memory functions
                        6659 --2045: */

                                                                      Page 115
                                                              C:\Users\YINGAO~1\AppData\Local\Temp\gh_000084c1.si
                        6660 --2046: /***********************************************************
                        6661 --2047:   Function: R_WM_Sys_Heap_Set
                        6662 --2048: */
                        6663 --2049: void R_WM_Sys_Heap_Set(const void *Cpu, const void *Video)
                        6664 	.align	2
                        6665 	.align	2
                        6666 	.global	_R_WM_Sys_Heap_Set
                        6667 _R_WM_Sys_Heap_Set:
000015cc 0670           6668 	mov	r6,r14
000015ce 0768           6669 	mov	r7,r13
000015d0 210600000000*  6670 	mov	_loc_CpuHeap_WM,r1
                        6671 --	    .bf
                        6672 .LDW461:
                        6673 --2050: {
                        6674 --2051:     loc_CpuHeap_WM = (r_cdi_Heap_t*)Cpu;
000015d6 2b0600000000*  6675 	mov	_loc_CpuHeap_WM,r11
000015dc 6b770100       6676 	st.w	r14,0[r11]
                        6677 --2052:     loc_VidHeap_WM = (r_cdi_Heap_t*)Video;
000015e0 616f0500       6678 	st.w	r13,4[r1]
                        6679 --2053: }
000015e4 0000           6680 	nop
                        6681 --	    .ef
                        6682 .LDW561:
000015e6 7f00           6683 	jmp	[lp]
                        6684 	.type	_R_WM_Sys_Heap_Set,@function
                        6685 	.size	_R_WM_Sys_Heap_Set,.-_R_WM_Sys_Heap_Set
                        6686 	.align	2
                        6687 .LDW661:
                        6688 
                        6689 --_Cpu	r14	param
                        6690 --_Video	r13	param
                        6691 
                        6692 	.data
                        6693 	.text
                        6694 
                        6695 
                        6696 --2055: /***********************************************************
                        6697 --2056:   Function: R_WM_Sys_Alloc
                        6698 --2057: */
                        6699 --2059: void* R_WM_Sys_Alloc    (   uint32_t      Size,
                        6700 	.align	2
                        6701 	.align	2
                        6702 	.global	_R_WM_Sys_Alloc
                        6703 _R_WM_Sys_Alloc:
000015e8 8207e170       6704 	prepare	{r25,r26,r27,r28,r29,r31},1
000015ec 3d0600000000*  6705 	mov	_loc_CpuHeap_WM,r29
000015f2 06d8           6706 	mov	r6,r27
000015f4 07d0           6707 	mov	r7,r26
000015f6 3dce0400       6708 	movea	4,r29,r25
                        6709 --	    .bf
                        6710 .LDW761:
                        6711 --2060:                             r_wm_Memory_t MemType
                        6712 --2061:                         )
                        6713 --2062: {
                        6714 --2064:     uint32_t addr;
                        6715 --2065:     switch (MemType)
000015fa 61d2           6716 	cmp	1,r26
000015fc cb1d*          6717 	bh	.L4329
000015fe e90d*          6718 	bnl	.L4325
                        6719 --2066:     {
                        6720 --2067:     case R_WM_MEM_CPU:

                                                                      Page 116
                                                              C:\Users\YINGAO~1\AppData\Local\Temp\gh_000084c1.si
                        6721 --2068:         if (0 == loc_CpuHeap_WM)
                        6722 --line2068
                        6723 ..lin.D.3A.5CRenesas_Electronics.5CD1x_RGL.5Crgl_ghs_D1Lx_obj_V1.2E2.2E0.5Cvlib.5Capp.5Cgfx_apps.5Csimple_draw_d1l2.5Ctarget.5Cd1lx_mango_ghs.5Cobj.5Cr_sys_wm.281::
                        6724 .LDWlin281:
00001600 3d0f0100       6725 	ld.w	0[r29],r1
00001604 e009           6726 	cmp	zero,r1
00001606 ba05*          6727 	bne	.L4322
                        6728 --2069:         {
                        6729 --2070:             addr = 0;
                        6730 --line2070
                        6731 ..lin.D.3A.5CRenesas_Electronics.5CD1x_RGL.5Crgl_ghs_D1Lx_obj_V1.2E2.2E0.5Cvlib.5Capp.5Cgfx_apps.5Csimple_draw_d1l2.5Ctarget.5Cd1lx_mango_ghs.5Cobj.5Cr_sys_wm.282::
                        6732 .LDWlin282:
00001608 00e2           6733 	mov	0,r28
0000160a f505*          6734 	br	.L4324
                        6735 .L4322:
                        6736 --2071:         }
                        6737 --2072:         else
                        6738 --2073:         {
                        6739 --2074:             addr = (uint32_t)R_CDI_Alloc(loc_CpuHeap_WM, Size);
                        6740 --line2074
                        6741 ..lin.D.3A.5CRenesas_Electronics.5CD1x_RGL.5Crgl_ghs_D1Lx_obj_V1.2E2.2E0.5Cvlib.5Capp.5Cgfx_apps.5Csimple_draw_d1l2.5Ctarget.5Cd1lx_mango_ghs.5Cobj.5Cr_sys_wm.283::
                        6742 .LDWlin283:
0000160c 3d370100       6743 	ld.w	0[r29],r6
00001610 1b38           6744 	mov	r27,r7
                        6745 	jarl	_R_CDI_Alloc,lp
                        6745 <EXPANSION BEGIN>
                        6745 jarl22 _R_CDI_Alloc , lp 
00001612 80ff0000*      6745 <EXPANSION END>
00001616 0ae0           6746 	mov	r10,r28
                        6747 .L4324:
                        6748 --line2076
                        6749 ..lin.D.3A.5CRenesas_Electronics.5CD1x_RGL.5Crgl_ghs_D1Lx_obj_V1.2E2.2E0.5Cvlib.5Capp.5Cgfx_apps.5Csimple_draw_d1l2.5Ctarget.5Cd1lx_mango_ghs.5Cobj.5Cr_sys_wm.284::
                        6750 .LDWlin284:
00001618 8515*          6751 	br	.L4319
                        6752 .L4325:
                        6753 --2075:         }
                        6754 --2076:     	break;
                        6755 --2077:     case R_WM_MEM_VIDEO:
                        6756 --2078:         if (0 == loc_VidHeap_WM)
                        6757 --line2078
                        6758 ..lin.D.3A.5CRenesas_Electronics.5CD1x_RGL.5Crgl_ghs_D1Lx_obj_V1.2E2.2E0.5Cvlib.5Capp.5Cgfx_apps.5Csimple_draw_d1l2.5Ctarget.5Cd1lx_mango_ghs.5Cobj.5Cr_sys_wm.285::
                        6759 .LDWlin285:
0000161a 3d0f0500       6760 	ld.w	4[r29],r1
0000161e e009           6761 	cmp	zero,r1
00001620 ba05*          6762 	bne	.L4326
                        6763 --2079:         {
                        6764 --2080:             addr = 0;
                        6765 --line2080
                        6766 ..lin.D.3A.5CRenesas_Electronics.5CD1x_RGL.5Crgl_ghs_D1Lx_obj_V1.2E2.2E0.5Cvlib.5Capp.5Cgfx_apps.5Csimple_draw_d1l2.5Ctarget.5Cd1lx_mango_ghs.5Cobj.5Cr_sys_wm.286::
                        6767 .LDWlin286:
00001622 00e2           6768 	mov	0,r28
00001624 f505*          6769 	br	.L4328
                        6770 .L4326:
                        6771 --2081:         }
                        6772 --2082:         else
                        6773 --2083:         {
                        6774 --2084:             addr = (uint32_t)R_CDI_Alloc(loc_VidHeap_WM, Size);
                        6775 --line2084
                        6776 ..lin.D.3A.5CRenesas_Electronics.5CD1x_RGL.5Crgl_ghs_D1Lx_obj_V1.2E2.2E0.5Cvlib.5Capp.5Cgfx_apps.5Csimple_draw_d1l2.5Ctarget.5Cd1lx_mango_ghs.5Cobj.5Cr_sys_wm.287::
                        6777 .LDWlin287:
00001626 3d370500       6778 	ld.w	4[r29],r6

                                                                      Page 117
                                                              C:\Users\YINGAO~1\AppData\Local\Temp\gh_000084c1.si
0000162a 1b38           6779 	mov	r27,r7
                        6780 	jarl	_R_CDI_Alloc,lp
                        6780 <EXPANSION BEGIN>
                        6780 jarl22 _R_CDI_Alloc , lp 
0000162c 80ff0000*      6780 <EXPANSION END>
00001630 0ae0           6781 	mov	r10,r28
                        6782 .L4328:
                        6783 --line2086
                        6784 ..lin.D.3A.5CRenesas_Electronics.5CD1x_RGL.5Crgl_ghs_D1Lx_obj_V1.2E2.2E0.5Cvlib.5Capp.5Cgfx_apps.5Csimple_draw_d1l2.5Ctarget.5Cd1lx_mango_ghs.5Cobj.5Cr_sys_wm.288::
                        6785 .LDWlin288:
00001632 b505*          6786 	br	.L4319
                        6787 .L4329:
                        6788 --2085:         }
                        6789 --2086:         break;
                        6790 --2087:     default: 
                        6791 --2088:         addr = 0;
                        6792 --line2088
                        6793 ..lin.D.3A.5CRenesas_Electronics.5CD1x_RGL.5Crgl_ghs_D1Lx_obj_V1.2E2.2E0.5Cvlib.5Capp.5Cgfx_apps.5Csimple_draw_d1l2.5Ctarget.5Cd1lx_mango_ghs.5Cobj.5Cr_sys_wm.289::
                        6794 .LDWlin289:
00001634 00e2           6795 	mov	0,r28
00001636 0000           6796 	nop
                        6797 .L4319:
                        6798 --2089:         break;
                        6799 --2090:     }
                        6800 --2091:     return (void*)addr;
00001638 1c50           6801 	mov	r28,r10
                        6802 --	    .ef
                        6803 .LDW861:
0000163a 4206ff70       6804 	dispose	1,{r25,r26,r27,r28,r29,r31},[lp]
                        6805 	.type	_R_WM_Sys_Alloc,@function
                        6806 	.size	_R_WM_Sys_Alloc,.-_R_WM_Sys_Alloc
                        6807 	.align	2
                        6808 .LDW961:
                        6809 --_addr	r28	local
                        6810 
                        6811 --_Size	r27	param
                        6812 --_MemType	r26	param
                        6813 
                        6814 	.data
                        6815 	.text
                        6816 
                        6817 --2093: }
                        6818 
                        6819 --2096: /***********************************************************
                        6820 --2097:   Function: R_WM_Sys_Free
                        6821 --2098: */
                        6822 --2100: uint32_t R_WM_Sys_Free  (   void*           Memory,
                        6823 	.align	2
                        6824 	.align	2
                        6825 	.global	_R_WM_Sys_Free
                        6826 _R_WM_Sys_Free:
0000163e 8007e170       6827 	prepare	{r25,r26,r27,r28,r29,r31},0
00001642 3d0600000000*  6828 	mov	_loc_CpuHeap_WM,r29
00001648 06e0           6829 	mov	r6,r28
0000164a 07d8           6830 	mov	r7,r27
0000164c 1dd0           6831 	mov	r29,r26
0000164e 3dce0400       6832 	movea	4,r29,r25
                        6833 --	    .bf
                        6834 .LDW071:
                        6835 --2101:                             r_wm_Memory_t   MemType
                        6836 --2102:                         )

                                                                      Page 118
                                                              C:\Users\YINGAO~1\AppData\Local\Temp\gh_000084c1.si
                        6837 --2103: {
                        6838 --2104:     if (MemType == R_WM_MEM_CPU)
00001652 e0d9           6839 	cmp	zero,r27
00001654 da0d*          6840 	bne	.L4415
                        6841 --2105:     {
                        6842 --2106:         if (0 == loc_CpuHeap_WM)
                        6843 --line2106
                        6844 ..lin.D.3A.5CRenesas_Electronics.5CD1x_RGL.5Crgl_ghs_D1Lx_obj_V1.2E2.2E0.5Cvlib.5Capp.5Cgfx_apps.5Csimple_draw_d1l2.5Ctarget.5Cd1lx_mango_ghs.5Cobj.5Cr_sys_wm.290::
                        6845 .LDWlin290:
00001656 3d0f0100       6846 	ld.w	0[r29],r1
0000165a e009           6847 	cmp	zero,r1
0000165c ba05*          6848 	bne	.L4417
                        6849 --2107:         {
                        6850 --2108:             R_WM_SYS_REPORT_ERROR(0xff, R_WM_ERR_MALLOC_FAILED, 0);
                        6851 --2109:             return 0;
                        6852 --line2109
                        6853 ..lin.D.3A.5CRenesas_Electronics.5CD1x_RGL.5Crgl_ghs_D1Lx_obj_V1.2E2.2E0.5Cvlib.5Capp.5Cgfx_apps.5Csimple_draw_d1l2.5Ctarget.5Cd1lx_mango_ghs.5Cobj.5Cr_sys_wm.291::
                        6854 .LDWlin291:
0000165e 0052           6855 	mov	0,r10
00001660 851d*          6856 	br	.L4413
                        6857 .L4417:
                        6858 --2110:         }
                        6859 --2111:         R_CDI_Free((uint32_t)Memory, loc_CpuHeap_WM);
                        6860 --line2111
                        6861 ..lin.D.3A.5CRenesas_Electronics.5CD1x_RGL.5Crgl_ghs_D1Lx_obj_V1.2E2.2E0.5Cvlib.5Capp.5Cgfx_apps.5Csimple_draw_d1l2.5Ctarget.5Cd1lx_mango_ghs.5Cobj.5Cr_sys_wm.292::
                        6862 .LDWlin292:
00001662 3d3f0100       6863 	ld.w	0[r29],r7
00001666 1c30           6864 	mov	r28,r6
                        6865 	jarl	_R_CDI_Free,lp
                        6865 <EXPANSION BEGIN>
                        6865 jarl22 _R_CDI_Free , lp 
00001668 80ff0000*      6865 <EXPANSION END>
0000166c 9515*          6866 	br	.L4420
                        6867 .L4415:
                        6868 --2112:     }
                        6869 --2113:     else
                        6870 --2114:     if (MemType == R_WM_MEM_VIDEO)
                        6871 --line2114
                        6872 ..lin.D.3A.5CRenesas_Electronics.5CD1x_RGL.5Crgl_ghs_D1Lx_obj_V1.2E2.2E0.5Cvlib.5Capp.5Cgfx_apps.5Csimple_draw_d1l2.5Ctarget.5Cd1lx_mango_ghs.5Cobj.5Cr_sys_wm.293::
                        6873 .LDWlin293:
0000166e 61da           6874 	cmp	1,r27
00001670 da0d*          6875 	bne	.L4421
                        6876 --2115:     {
                        6877 --2116:         if (0 == loc_VidHeap_WM)
                        6878 --line2116
                        6879 ..lin.D.3A.5CRenesas_Electronics.5CD1x_RGL.5Crgl_ghs_D1Lx_obj_V1.2E2.2E0.5Cvlib.5Capp.5Cgfx_apps.5Csimple_draw_d1l2.5Ctarget.5Cd1lx_mango_ghs.5Cobj.5Cr_sys_wm.294::
                        6880 .LDWlin294:
00001672 3d0f0500       6881 	ld.w	4[r29],r1
00001676 e009           6882 	cmp	zero,r1
00001678 ba05*          6883 	bne	.L4423
                        6884 --2117:         {
                        6885 --2118:             R_WM_SYS_REPORT_ERROR(0xff, R_WM_ERR_MALLOC_FAILED, 0);
                        6886 --2119:             return 0;
                        6887 --line2119
                        6888 ..lin.D.3A.5CRenesas_Electronics.5CD1x_RGL.5Crgl_ghs_D1Lx_obj_V1.2E2.2E0.5Cvlib.5Capp.5Cgfx_apps.5Csimple_draw_d1l2.5Ctarget.5Cd1lx_mango_ghs.5Cobj.5Cr_sys_wm.295::
                        6889 .LDWlin295:
0000167a 0052           6890 	mov	0,r10
0000167c a50d*          6891 	br	.L4413
                        6892 .L4423:
                        6893 --2120:         }
                        6894 --2121:         R_CDI_Free((uint32_t)Memory, loc_VidHeap_WM);

                                                                      Page 119
                                                              C:\Users\YINGAO~1\AppData\Local\Temp\gh_000084c1.si
                        6895 --line2121
                        6896 ..lin.D.3A.5CRenesas_Electronics.5CD1x_RGL.5Crgl_ghs_D1Lx_obj_V1.2E2.2E0.5Cvlib.5Capp.5Cgfx_apps.5Csimple_draw_d1l2.5Ctarget.5Cd1lx_mango_ghs.5Cobj.5Cr_sys_wm.296::
                        6897 .LDWlin296:
0000167e 3d3f0500       6898 	ld.w	4[r29],r7
00001682 1c30           6899 	mov	r28,r6
                        6900 	jarl	_R_CDI_Free,lp
                        6900 <EXPANSION BEGIN>
                        6900 jarl22 _R_CDI_Free , lp 
00001684 80ff0000*      6900 <EXPANSION END>
00001688 b505*          6901 	br	.L4420
                        6902 .L4421:
                        6903 --2122:     }
                        6904 --2123:     else
                        6905 --2124:     {
                        6906 --2125:         R_WM_SYS_REPORT_ERROR(0xff, R_WM_ERR_MALLOC_FAILED, 0);
                        6907 --2126:         return 0;
                        6908 --line2126
                        6909 ..lin.D.3A.5CRenesas_Electronics.5CD1x_RGL.5Crgl_ghs_D1Lx_obj_V1.2E2.2E0.5Cvlib.5Capp.5Cgfx_apps.5Csimple_draw_d1l2.5Ctarget.5Cd1lx_mango_ghs.5Cobj.5Cr_sys_wm.297::
                        6910 .LDWlin297:
0000168a 0052           6911 	mov	0,r10
0000168c a505*          6912 	br	.L4413
                        6913 .L4420:
                        6914 --2127:     }
                        6915 --2128:     return 1;
                        6916 --line2128
                        6917 ..lin.D.3A.5CRenesas_Electronics.5CD1x_RGL.5Crgl_ghs_D1Lx_obj_V1.2E2.2E0.5Cvlib.5Capp.5Cgfx_apps.5Csimple_draw_d1l2.5Ctarget.5Cd1lx_mango_ghs.5Cobj.5Cr_sys_wm.298::
                        6918 .LDWlin298:
0000168e 0152           6919 	mov	1,r10
                        6920 .L4413:
                        6921 --	    .ef
                        6922 .LDW171:
00001690 4006ff70       6923 	dispose	0,{r25,r26,r27,r28,r29,r31},[lp]
                        6924 	.type	_R_WM_Sys_Free,@function
                        6925 	.size	_R_WM_Sys_Free,.-_R_WM_Sys_Free
                        6926 	.align	2
                        6927 .LDW271:
                        6928 
                        6929 --_Memory	r28	param
                        6930 --_MemType	r27	param
                        6931 
                        6932 	.data
                        6933 	.text
                        6934 
                        6935 --2129: }
                        6936 
                        6937 --2131: /***********************************************************
                        6938 --2132:   Group: WM Drawing engine interface
                        6939 --2133: */
                        6940 --2135: /***********************************************************
                        6941 --2136:   Group: WM Video input interface
                        6942 --2137: */
                        6943 --2140: /***********************************************************
                        6944 --2141:   Group: WM OS interface
                        6945 --2142: */
                        6946 --2144: /***********************************************************
                        6947 --2145:   Function: R_WM_Sys_LockWindows
                        6948 --2146: */
                        6949 --2148: void R_WM_Sys_LockWindows(uint32_t Unit)
                        6950 	.align	2
                        6951 	.align	2
                        6952 	.global	_R_WM_Sys_LockWindows

                                                                      Page 120
                                                              C:\Users\YINGAO~1\AppData\Local\Temp\gh_000084c1.si
                        6953 _R_WM_Sys_LockWindows:
00001694 80076100       6954 	prepare	{r29,r31},0
00001698 06e8           6955 	mov	r6,r29
                        6956 --	    .bf
                        6957 .LDW371:
                        6958 --2149: {
                        6959 --2150:      if (Unit >= R_WM_DEV_NUM)
0000169a 62ea           6960 	cmp	2,r29
0000169c f105*          6961 	bl	.L4498
                        6962 --2151:      {
                        6963 --2152:         R_WM_ErrorHandler(Unit, R_WM_ERR_INVALID_WM_UNIT);
                        6964 --line2152
                        6965 ..lin.D.3A.5CRenesas_Electronics.5CD1x_RGL.5Crgl_ghs_D1Lx_obj_V1.2E2.2E0.5Cvlib.5Capp.5Cgfx_apps.5Csimple_draw_d1l2.5Ctarget.5Cd1lx_mango_ghs.5Cobj.5Cr_sys_wm.299::
                        6966 .LDWlin299:
0000169e 1d30           6967 	mov	r29,r6
000016a0 203e1100       6968 	movea	17,zero,r7
                        6969 	jarl	_R_WM_ErrorHandler,lp
                        6969 <EXPANSION BEGIN>
                        6969 jarl22 _R_WM_ErrorHandler , lp 
000016a4 80ff0000*      6969 <EXPANSION END>
                        6970 --2153:         return;
                        6971 --line2153
                        6972 ..lin.D.3A.5CRenesas_Electronics.5CD1x_RGL.5Crgl_ghs_D1Lx_obj_V1.2E2.2E0.5Cvlib.5Capp.5Cgfx_apps.5Csimple_draw_d1l2.5Ctarget.5Cd1lx_mango_ghs.5Cobj.5Cr_sys_wm.300::
                        6973 .LDWlin300:
000016a8 a505*          6974 	br	.L4496
                        6975 .L4498:
                        6976 --2154:      }
                        6977 --2156: #ifdef LOC_USE_OS
                        6978 --2157:     R_OS_ThreadMutexLock(&locMutexWindows[Unit]);
                        6979 --2158: #endif
                        6980 --2159: }
                        6981 --line2159
                        6982 ..lin.D.3A.5CRenesas_Electronics.5CD1x_RGL.5Crgl_ghs_D1Lx_obj_V1.2E2.2E0.5Cvlib.5Capp.5Cgfx_apps.5Csimple_draw_d1l2.5Ctarget.5Cd1lx_mango_ghs.5Cobj.5Cr_sys_wm.301::
                        6983 .LDWlin301:
000016aa 0000           6984 	nop
                        6985 .L4496:
                        6986 --	    .ef
                        6987 .LDW471:
000016ac 40067f00       6988 	dispose	0,{r29,r31},[lp]
                        6989 	.type	_R_WM_Sys_LockWindows,@function
                        6990 	.size	_R_WM_Sys_LockWindows,.-_R_WM_Sys_LockWindows
                        6991 	.align	2
                        6992 .LDW571:
                        6993 
                        6994 --_Unit	r29	param
                        6995 
                        6996 	.section ".bss","awb"
                        6997 .L4526:
                        6998 	.type	.L4526,@object
                        6999 	.size	.L4526,0
                        7000 	.data
                        7001 	.text
                        7002 
                        7003 
                        7004 --2162: /***********************************************************
                        7005 --2163:   Function: R_WM_Sys_UnlockWindows
                        7006 --2164: */
                        7007 --2166: void R_WM_Sys_UnlockWindows(uint32_t Unit)
                        7008 	.align	2
                        7009 	.align	2
                        7010 	.global	_R_WM_Sys_UnlockWindows

                                                                      Page 121
                                                              C:\Users\YINGAO~1\AppData\Local\Temp\gh_000084c1.si
                        7011 _R_WM_Sys_UnlockWindows:
000016b0 80076100       7012 	prepare	{r29,r31},0
000016b4 06e8           7013 	mov	r6,r29
                        7014 --	    .bf
                        7015 .LDW671:
                        7016 --2167: {
                        7017 --2168:      if (Unit >= R_WM_DEV_NUM)
000016b6 62ea           7018 	cmp	2,r29
000016b8 f105*          7019 	bl	.L4549
                        7020 --2169:      {
                        7021 --2170:         R_WM_ErrorHandler(Unit, R_WM_ERR_INVALID_WM_UNIT);
                        7022 --line2170
                        7023 ..lin.D.3A.5CRenesas_Electronics.5CD1x_RGL.5Crgl_ghs_D1Lx_obj_V1.2E2.2E0.5Cvlib.5Capp.5Cgfx_apps.5Csimple_draw_d1l2.5Ctarget.5Cd1lx_mango_ghs.5Cobj.5Cr_sys_wm.302::
                        7024 .LDWlin302:
000016ba 1d30           7025 	mov	r29,r6
000016bc 203e1100       7026 	movea	17,zero,r7
                        7027 	jarl	_R_WM_ErrorHandler,lp
                        7027 <EXPANSION BEGIN>
                        7027 jarl22 _R_WM_ErrorHandler , lp 
000016c0 80ff0000*      7027 <EXPANSION END>
                        7028 --2171:         return;
                        7029 --line2171
                        7030 ..lin.D.3A.5CRenesas_Electronics.5CD1x_RGL.5Crgl_ghs_D1Lx_obj_V1.2E2.2E0.5Cvlib.5Capp.5Cgfx_apps.5Csimple_draw_d1l2.5Ctarget.5Cd1lx_mango_ghs.5Cobj.5Cr_sys_wm.303::
                        7031 .LDWlin303:
000016c4 a505*          7032 	br	.L4547
                        7033 .L4549:
                        7034 --2172:      }
                        7035 --2174: #ifdef LOC_USE_OS
                        7036 --2175:     R_OS_ThreadMutexUnlock(&locMutexWindows[Unit]);
                        7037 --2176: #endif
                        7038 --2177: }
                        7039 --line2177
                        7040 ..lin.D.3A.5CRenesas_Electronics.5CD1x_RGL.5Crgl_ghs_D1Lx_obj_V1.2E2.2E0.5Cvlib.5Capp.5Cgfx_apps.5Csimple_draw_d1l2.5Ctarget.5Cd1lx_mango_ghs.5Cobj.5Cr_sys_wm.304::
                        7041 .LDWlin304:
000016c6 0000           7042 	nop
                        7043 .L4547:
                        7044 --	    .ef
                        7045 .LDW771:
000016c8 40067f00       7046 	dispose	0,{r29,r31},[lp]
                        7047 	.type	_R_WM_Sys_UnlockWindows,@function
                        7048 	.size	_R_WM_Sys_UnlockWindows,.-_R_WM_Sys_UnlockWindows
                        7049 	.align	2
                        7050 .LDW871:
                        7051 
                        7052 --_Unit	r29	param
                        7053 
                        7054 	.section ".bss","awb"
                        7055 .L4574:
                        7056 	.type	.L4574,@object
                        7057 	.size	.L4574,0
                        7058 	.data
                        7059 	.text
                        7060 
                        7061 
                        7062 --2180: /***********************************************************
                        7063 --2181:   Function: R_WM_Sys_LockMsgQueue
                        7064 --2182: */
                        7065 --2184: void R_WM_Sys_LockMsgQueue(uint32_t Unit)
                        7066 	.align	2
                        7067 	.align	2
                        7068 	.global	_R_WM_Sys_LockMsgQueue

                                                                      Page 122
                                                              C:\Users\YINGAO~1\AppData\Local\Temp\gh_000084c1.si
                        7069 _R_WM_Sys_LockMsgQueue:
000016cc 0608           7070 	mov	r6,r1
                        7071 --	    .bf
                        7072 .LDW971:
                        7073 --2185: {
                        7074 --2186: #ifdef LOC_USE_OS
                        7075 --2187:     R_OS_ThreadMutexLock(&locMutexMsgQueue[Unit]);
                        7076 --2188: #endif
                        7077 --2189: }
000016ce 0000           7078 	nop
                        7079 --	    .ef
                        7080 .LDW081:
000016d0 7f00           7081 	jmp	[lp]
                        7082 	.type	_R_WM_Sys_LockMsgQueue,@function
                        7083 	.size	_R_WM_Sys_LockMsgQueue,.-_R_WM_Sys_LockMsgQueue
                        7084 	.align	2
                        7085 .LDW181:
                        7086 
                        7087 --_Unit	r1	param
                        7088 
                        7089 	.section ".bss","awb"
                        7090 .L4616:
                        7091 	.type	.L4616,@object
                        7092 	.size	.L4616,0
                        7093 	.data
                        7094 	.text
                        7095 
                        7096 
                        7097 --2191: /***********************************************************
                        7098 --2192:   Function: R_WM_Sys_LockMsgQueue
                        7099 --2193: */
                        7100 --2195: uint32_t R_WM_Sys_TryLockMsgQueue(uint32_t Unit)
                        7101 	.align	2
                        7102 	.align	2
                        7103 	.global	_R_WM_Sys_TryLockMsgQueue
                        7104 _R_WM_Sys_TryLockMsgQueue:
000016d2 0608           7105 	mov	r6,r1
                        7106 --	    .bf
                        7107 .LDW281:
                        7108 --2196: {
                        7109 --2197: #ifdef LOC_USE_OS
                        7110 --2198:     R_OS_ThreadMutexLock(&locMutexMsgQueue[Unit]);
                        7111 --2199: #endif
                        7112 --2200:     return 1;
000016d4 0152           7113 	mov	1,r10
                        7114 --	    .ef
                        7115 .LDW381:
000016d6 7f00           7116 	jmp	[lp]
                        7117 	.type	_R_WM_Sys_TryLockMsgQueue,@function
                        7118 	.size	_R_WM_Sys_TryLockMsgQueue,.-_R_WM_Sys_TryLockMsgQueue
                        7119 	.align	2
                        7120 .LDW481:
                        7121 
                        7122 --_Unit	r1	param
                        7123 
                        7124 	.section ".bss","awb"
                        7125 .L4648:
                        7126 	.type	.L4648,@object
                        7127 	.size	.L4648,0
                        7128 	.data
                        7129 	.text

                                                                      Page 123
                                                              C:\Users\YINGAO~1\AppData\Local\Temp\gh_000084c1.si
                        7130 
                        7131 --2201: }
                        7132 
                        7133 --2204: /***********************************************************
                        7134 --2205:   Function: R_WM_Sys_UnlockMsgQueue
                        7135 --2206: */
                        7136 --2208: void R_WM_Sys_UnlockMsgQueue(uint32_t Unit)
                        7137 	.align	2
                        7138 	.align	2
                        7139 	.global	_R_WM_Sys_UnlockMsgQueue
                        7140 _R_WM_Sys_UnlockMsgQueue:
000016d8 80076100       7141 	prepare	{r29,r31},0
000016dc 06e8           7142 	mov	r6,r29
                        7143 --	    .bf
                        7144 .LDW581:
                        7145 --2209: {
                        7146 --2210:      if (Unit >= R_WM_DEV_NUM)
000016de 62ea           7147 	cmp	2,r29
000016e0 f105*          7148 	bl	.L4662
                        7149 --2211:      {
                        7150 --2212:         R_WM_ErrorHandler(Unit, R_WM_ERR_INVALID_WM_UNIT);
                        7151 --line2212
                        7152 ..lin.D.3A.5CRenesas_Electronics.5CD1x_RGL.5Crgl_ghs_D1Lx_obj_V1.2E2.2E0.5Cvlib.5Capp.5Cgfx_apps.5Csimple_draw_d1l2.5Ctarget.5Cd1lx_mango_ghs.5Cobj.5Cr_sys_wm.305::
                        7153 .LDWlin305:
000016e2 1d30           7154 	mov	r29,r6
000016e4 203e1100       7155 	movea	17,zero,r7
                        7156 	jarl	_R_WM_ErrorHandler,lp
                        7156 <EXPANSION BEGIN>
                        7156 jarl22 _R_WM_ErrorHandler , lp 
000016e8 80ff0000*      7156 <EXPANSION END>
                        7157 --2213:         return;
                        7158 --line2213
                        7159 ..lin.D.3A.5CRenesas_Electronics.5CD1x_RGL.5Crgl_ghs_D1Lx_obj_V1.2E2.2E0.5Cvlib.5Capp.5Cgfx_apps.5Csimple_draw_d1l2.5Ctarget.5Cd1lx_mango_ghs.5Cobj.5Cr_sys_wm.306::
                        7160 .LDWlin306:
000016ec a505*          7161 	br	.L4660
                        7162 .L4662:
                        7163 --2214:      }
                        7164 --2215: #ifdef LOC_USE_OS
                        7165 --2216:     R_OS_ThreadMutexUnlock(&locMutexMsgQueue[Unit]);
                        7166 --2217: #endif
                        7167 --2218: }
                        7168 --line2218
                        7169 ..lin.D.3A.5CRenesas_Electronics.5CD1x_RGL.5Crgl_ghs_D1Lx_obj_V1.2E2.2E0.5Cvlib.5Capp.5Cgfx_apps.5Csimple_draw_d1l2.5Ctarget.5Cd1lx_mango_ghs.5Cobj.5Cr_sys_wm.307::
                        7170 .LDWlin307:
000016ee 0000           7171 	nop
                        7172 .L4660:
                        7173 --	    .ef
                        7174 .LDW681:
000016f0 40067f00       7175 	dispose	0,{r29,r31},[lp]
                        7176 	.type	_R_WM_Sys_UnlockMsgQueue,@function
                        7177 	.size	_R_WM_Sys_UnlockMsgQueue,.-_R_WM_Sys_UnlockMsgQueue
                        7178 	.align	2
                        7179 .LDW781:
                        7180 
                        7181 --_Unit	r29	param
                        7182 
                        7183 	.section ".bss","awb"
                        7184 .L4686:
                        7185 	.type	.L4686,@object
                        7186 	.size	.L4686,0
                        7187 	.data

                                                                      Page 124
                                                              C:\Users\YINGAO~1\AppData\Local\Temp\gh_000084c1.si
                        7188 	.text
                        7189 
                        7190 
                        7191 --2220: /***********************************************************
                        7192 --2221:   Function: R_WM_Sys_LockBuffers
                        7193 --2222: */
                        7194 --2224: void R_WM_Sys_LockBuffers(uint32_t Unit)
                        7195 	.align	2
                        7196 	.align	2
                        7197 	.global	_R_WM_Sys_LockBuffers
                        7198 _R_WM_Sys_LockBuffers:
000016f4 80076100       7199 	prepare	{r29,r31},0
000016f8 06e8           7200 	mov	r6,r29
                        7201 --	    .bf
                        7202 .LDW881:
                        7203 --2225: {
                        7204 --2226:      if (Unit >= R_WM_DEV_NUM)
000016fa 62ea           7205 	cmp	2,r29
000016fc f105*          7206 	bl	.L4709
                        7207 --2227:      {
                        7208 --2228:         R_WM_ErrorHandler(Unit, R_WM_ERR_INVALID_WM_UNIT);
                        7209 --line2228
                        7210 ..lin.D.3A.5CRenesas_Electronics.5CD1x_RGL.5Crgl_ghs_D1Lx_obj_V1.2E2.2E0.5Cvlib.5Capp.5Cgfx_apps.5Csimple_draw_d1l2.5Ctarget.5Cd1lx_mango_ghs.5Cobj.5Cr_sys_wm.308::
                        7211 .LDWlin308:
000016fe 1d30           7212 	mov	r29,r6
00001700 203e1100       7213 	movea	17,zero,r7
                        7214 	jarl	_R_WM_ErrorHandler,lp
                        7214 <EXPANSION BEGIN>
                        7214 jarl22 _R_WM_ErrorHandler , lp 
00001704 80ff0000*      7214 <EXPANSION END>
                        7215 --2229:         return;
                        7216 --line2229
                        7217 ..lin.D.3A.5CRenesas_Electronics.5CD1x_RGL.5Crgl_ghs_D1Lx_obj_V1.2E2.2E0.5Cvlib.5Capp.5Cgfx_apps.5Csimple_draw_d1l2.5Ctarget.5Cd1lx_mango_ghs.5Cobj.5Cr_sys_wm.309::
                        7218 .LDWlin309:
00001708 a505*          7219 	br	.L4707
                        7220 .L4709:
                        7221 --2230:      }
                        7222 --2232: #ifdef LOC_USE_OS
                        7223 --2233:     R_OS_ThreadMutexLock(&locMutexBufferMgmnt[Unit]);
                        7224 --2234: #endif
                        7225 --2235: }
                        7226 --line2235
                        7227 ..lin.D.3A.5CRenesas_Electronics.5CD1x_RGL.5Crgl_ghs_D1Lx_obj_V1.2E2.2E0.5Cvlib.5Capp.5Cgfx_apps.5Csimple_draw_d1l2.5Ctarget.5Cd1lx_mango_ghs.5Cobj.5Cr_sys_wm.310::
                        7228 .LDWlin310:
0000170a 0000           7229 	nop
                        7230 .L4707:
                        7231 --	    .ef
                        7232 .LDW981:
0000170c 40067f00       7233 	dispose	0,{r29,r31},[lp]
                        7234 	.type	_R_WM_Sys_LockBuffers,@function
                        7235 	.size	_R_WM_Sys_LockBuffers,.-_R_WM_Sys_LockBuffers
                        7236 	.align	2
                        7237 .LDW091:
                        7238 
                        7239 --_Unit	r29	param
                        7240 
                        7241 	.section ".bss","awb"
                        7242 .L4734:
                        7243 	.type	.L4734,@object
                        7244 	.size	.L4734,0
                        7245 	.data

                                                                      Page 125
                                                              C:\Users\YINGAO~1\AppData\Local\Temp\gh_000084c1.si
                        7246 	.text
                        7247 
                        7248 
                        7249 --2238: /***********************************************************
                        7250 --2239:   Function: R_WM_Sys_UnlockBuffers
                        7251 --2240: */
                        7252 --2242: void R_WM_Sys_UnlockBuffers(uint32_t Unit)
                        7253 	.align	2
                        7254 	.align	2
                        7255 	.global	_R_WM_Sys_UnlockBuffers
                        7256 _R_WM_Sys_UnlockBuffers:
00001710 80076100       7257 	prepare	{r29,r31},0
00001714 06e8           7258 	mov	r6,r29
                        7259 --	    .bf
                        7260 .LDW191:
                        7261 --2243: {
                        7262 --2244:      if (Unit >= R_WM_DEV_NUM)
00001716 62ea           7263 	cmp	2,r29
00001718 f105*          7264 	bl	.L4757
                        7265 --2245:      {
                        7266 --2246:         R_WM_ErrorHandler(Unit, R_WM_ERR_INVALID_WM_UNIT);
                        7267 --line2246
                        7268 ..lin.D.3A.5CRenesas_Electronics.5CD1x_RGL.5Crgl_ghs_D1Lx_obj_V1.2E2.2E0.5Cvlib.5Capp.5Cgfx_apps.5Csimple_draw_d1l2.5Ctarget.5Cd1lx_mango_ghs.5Cobj.5Cr_sys_wm.311::
                        7269 .LDWlin311:
0000171a 1d30           7270 	mov	r29,r6
0000171c 203e1100       7271 	movea	17,zero,r7
                        7272 	jarl	_R_WM_ErrorHandler,lp
                        7272 <EXPANSION BEGIN>
                        7272 jarl22 _R_WM_ErrorHandler , lp 
00001720 80ff0000*      7272 <EXPANSION END>
                        7273 --2247:         return;
                        7274 --line2247
                        7275 ..lin.D.3A.5CRenesas_Electronics.5CD1x_RGL.5Crgl_ghs_D1Lx_obj_V1.2E2.2E0.5Cvlib.5Capp.5Cgfx_apps.5Csimple_draw_d1l2.5Ctarget.5Cd1lx_mango_ghs.5Cobj.5Cr_sys_wm.312::
                        7276 .LDWlin312:
00001724 a505*          7277 	br	.L4755
                        7278 .L4757:
                        7279 --2248:      }
                        7280 --2250: #ifdef LOC_USE_OS
                        7281 --2251:     R_OS_ThreadMutexUnlock(&locMutexBufferMgmnt[Unit]);
                        7282 --2252: #endif
                        7283 --2253: }
                        7284 --line2253
                        7285 ..lin.D.3A.5CRenesas_Electronics.5CD1x_RGL.5Crgl_ghs_D1Lx_obj_V1.2E2.2E0.5Cvlib.5Capp.5Cgfx_apps.5Csimple_draw_d1l2.5Ctarget.5Cd1lx_mango_ghs.5Cobj.5Cr_sys_wm.313::
                        7286 .LDWlin313:
00001726 0000           7287 	nop
                        7288 .L4755:
                        7289 --	    .ef
                        7290 .LDW291:
00001728 40067f00       7291 	dispose	0,{r29,r31},[lp]
                        7292 	.type	_R_WM_Sys_UnlockBuffers,@function
                        7293 	.size	_R_WM_Sys_UnlockBuffers,.-_R_WM_Sys_UnlockBuffers
                        7294 	.align	2
                        7295 .LDW391:
                        7296 
                        7297 --_Unit	r29	param
                        7298 
                        7299 	.section ".bss","awb"
                        7300 .L4782:
                        7301 	.type	.L4782,@object
                        7302 	.size	.L4782,0
                        7303 	.data

                                                                      Page 126
                                                              C:\Users\YINGAO~1\AppData\Local\Temp\gh_000084c1.si
                        7304 	.text
                        7305 
                        7306 
                        7307 --2255: /***********************************************************
                        7308 --2256:   Function: R_WM_Sys_LockDevice
                        7309 --2257: */
                        7310 --2259: void R_WM_Sys_LockDevice(uint32_t Unit)
                        7311 	.align	2
                        7312 	.align	2
                        7313 	.global	_R_WM_Sys_LockDevice
                        7314 _R_WM_Sys_LockDevice:
0000172c 80076100       7315 	prepare	{r29,r31},0
00001730 06e8           7316 	mov	r6,r29
                        7317 --	    .bf
                        7318 .LDW491:
                        7319 --2260: {
                        7320 --2261:      if (Unit >= R_WM_DEV_NUM)
00001732 62ea           7321 	cmp	2,r29
00001734 f105*          7322 	bl	.L4805
                        7323 --2262:      {
                        7324 --2263:         R_WM_ErrorHandler(Unit, R_WM_ERR_INVALID_WM_UNIT);
                        7325 --line2263
                        7326 ..lin.D.3A.5CRenesas_Electronics.5CD1x_RGL.5Crgl_ghs_D1Lx_obj_V1.2E2.2E0.5Cvlib.5Capp.5Cgfx_apps.5Csimple_draw_d1l2.5Ctarget.5Cd1lx_mango_ghs.5Cobj.5Cr_sys_wm.314::
                        7327 .LDWlin314:
00001736 1d30           7328 	mov	r29,r6
00001738 203e1100       7329 	movea	17,zero,r7
                        7330 	jarl	_R_WM_ErrorHandler,lp
                        7330 <EXPANSION BEGIN>
                        7330 jarl22 _R_WM_ErrorHandler , lp 
0000173c 80ff0000*      7330 <EXPANSION END>
                        7331 --2264:         return;
                        7332 --line2264
                        7333 ..lin.D.3A.5CRenesas_Electronics.5CD1x_RGL.5Crgl_ghs_D1Lx_obj_V1.2E2.2E0.5Cvlib.5Capp.5Cgfx_apps.5Csimple_draw_d1l2.5Ctarget.5Cd1lx_mango_ghs.5Cobj.5Cr_sys_wm.315::
                        7334 .LDWlin315:
00001740 a505*          7335 	br	.L4803
                        7336 .L4805:
                        7337 --2265:      }
                        7338 --2267: #ifdef LOC_USE_OS
                        7339 --2268:     if (0 == locMutexInitCreated[Unit])
                        7340 --2269:     {
                        7341 --2270:         R_OS_ThreadMutexInit(&locMutexDevice[Unit], 0);
                        7342 --2271:         locMutexInitCreated[Unit] = 1;
                        7343 --2272:     }
                        7344 --2273:     R_OS_ThreadMutexLock(&locMutexDevice[Unit]);
                        7345 --2274: #endif
                        7346 --2275: }
                        7347 --line2275
                        7348 ..lin.D.3A.5CRenesas_Electronics.5CD1x_RGL.5Crgl_ghs_D1Lx_obj_V1.2E2.2E0.5Cvlib.5Capp.5Cgfx_apps.5Csimple_draw_d1l2.5Ctarget.5Cd1lx_mango_ghs.5Cobj.5Cr_sys_wm.316::
                        7349 .LDWlin316:
00001742 0000           7350 	nop
                        7351 .L4803:
                        7352 --	    .ef
                        7353 .LDW591:
00001744 40067f00       7354 	dispose	0,{r29,r31},[lp]
                        7355 	.type	_R_WM_Sys_LockDevice,@function
                        7356 	.size	_R_WM_Sys_LockDevice,.-_R_WM_Sys_LockDevice
                        7357 	.align	2
                        7358 .LDW691:
                        7359 
                        7360 --_Unit	r29	param
                        7361 

                                                                      Page 127
                                                              C:\Users\YINGAO~1\AppData\Local\Temp\gh_000084c1.si
                        7362 	.section ".bss","awb"
                        7363 .L4830:
                        7364 	.type	.L4830,@object
                        7365 	.size	.L4830,0
                        7366 	.data
                        7367 	.text
                        7368 
                        7369 
                        7370 --2278: /***********************************************************
                        7371 --2279:   Function: R_WM_Sys_UnlockDevice
                        7372 --2280: */
                        7373 --2282: void R_WM_Sys_UnlockDevice(uint32_t Unit)
                        7374 	.align	2
                        7375 	.align	2
                        7376 	.global	_R_WM_Sys_UnlockDevice
                        7377 _R_WM_Sys_UnlockDevice:
00001748 0608           7378 	mov	r6,r1
                        7379 --	    .bf
                        7380 .LDW791:
                        7381 --2283: {
                        7382 --2284: #ifdef LOC_USE_OS
                        7383 --2285:     R_OS_ThreadMutexUnlock(&locMutexDevice[Unit]);
                        7384 --2286: #endif
                        7385 --2287: }
0000174a 0000           7386 	nop
                        7387 --	    .ef
                        7388 .LDW891:
0000174c 7f00           7389 	jmp	[lp]
                        7390 	.type	_R_WM_Sys_UnlockDevice,@function
                        7391 	.size	_R_WM_Sys_UnlockDevice,.-_R_WM_Sys_UnlockDevice
                        7392 	.align	2
                        7393 .LDW991:
                        7394 
                        7395 --_Unit	r1	param
                        7396 
                        7397 	.section ".bss","awb"
                        7398 .L4872:
                        7399 	.type	.L4872,@object
                        7400 	.size	.L4872,0
                        7401 	.data
                        7402 	.text
                        7403 
                        7404 
                        7405 --2289: /***********************************************************
                        7406 --2290:   Function: R_WM_Sys_ScreenBgColorSet
                        7407 --2291: */
                        7408 --2293: uint32_t R_WM_Sys_ScreenBgColorSet(uint32_t Unit, 
                        7409 	.align	2
                        7410 	.align	2
                        7411 	.global	_R_WM_Sys_ScreenBgColorSet
                        7412 _R_WM_Sys_ScreenBgColorSet:
0000174e 8007e130       7413 	prepare	{r26,r27,r28,r29,r31},0
00001752 06e8           7414 	mov	r6,r29
00001754 c7e6ff00       7415 	andi	255,r7,r28
00001758 c8deff00       7416 	andi	255,r8,r27
0000175c c9d6ff00       7417 	andi	255,r9,r26
                        7418 --	    .bf
                        7419 .LDW002:
                        7420 --2294:                                        uint8_t  Red, 
                        7421 --2295:                                        uint8_t  Green, 
                        7422 --2296:                                        uint8_t  Blue)

                                                                      Page 128
                                                              C:\Users\YINGAO~1\AppData\Local\Temp\gh_000084c1.si
                        7423 --2297: {
                        7424 --2298:     if ( R_VDCE_ERR_OK != R_VDCE_DisplayColorSet(Unit, Red, Green, Blue) )
00001760 1d30           7425 	mov	r29,r6
00001762 1c38           7426 	mov	r28,r7
00001764 1b40           7427 	mov	r27,r8
00001766 1a48           7428 	mov	r26,r9
                        7429 	jarl	_R_VDCE_DisplayColorSet,lp
                        7429 <EXPANSION BEGIN>
                        7429 jarl22 _R_VDCE_DisplayColorSet , lp 
00001768 80ff0000*      7429 <EXPANSION END>
0000176c e051           7430 	cmp	zero,r10
0000176e b205*          7431 	be	.L4886
                        7432 --2299:     {
                        7433 --2300:         return 0;
                        7434 --line2300
                        7435 ..lin.D.3A.5CRenesas_Electronics.5CD1x_RGL.5Crgl_ghs_D1Lx_obj_V1.2E2.2E0.5Cvlib.5Capp.5Cgfx_apps.5Csimple_draw_d1l2.5Ctarget.5Cd1lx_mango_ghs.5Cobj.5Cr_sys_wm.317::
                        7436 .LDWlin317:
00001770 0052           7437 	mov	0,r10
00001772 a505*          7438 	br	.L4884
                        7439 .L4886:
                        7440 --2301:     }
                        7441 --2302:     return 1;
                        7442 --line2302
                        7443 ..lin.D.3A.5CRenesas_Electronics.5CD1x_RGL.5Crgl_ghs_D1Lx_obj_V1.2E2.2E0.5Cvlib.5Capp.5Cgfx_apps.5Csimple_draw_d1l2.5Ctarget.5Cd1lx_mango_ghs.5Cobj.5Cr_sys_wm.318::
                        7444 .LDWlin318:
00001774 0152           7445 	mov	1,r10
                        7446 .L4884:
                        7447 --	    .ef
                        7448 .LDW102:
00001776 4006ff30       7449 	dispose	0,{r26,r27,r28,r29,r31},[lp]
                        7450 	.type	_R_WM_Sys_ScreenBgColorSet,@function
                        7451 	.size	_R_WM_Sys_ScreenBgColorSet,.-_R_WM_Sys_ScreenBgColorSet
                        7452 	.align	2
                        7453 .LDW202:
                        7454 
                        7455 --_Unit	r29	param
                        7456 --_Red	r28	param
                        7457 --_Green	r27	param
                        7458 --_Blue	r26	param
                        7459 
                        7460 	.section ".bss","awb"
                        7461 .L4908:
                        7462 	.type	.L4908,@object
                        7463 	.size	.L4908,0
                        7464 	.data
                        7465 	.text
                        7466 
                        7467 --2303: }
                        7468 
                        7469 --2305: uint32_t R_WM_Sys_WindowSetFb(uint32_t Unit, const r_wm_Window_t* Win, const void* Fb)
                        7470 	.align	2
                        7471 	.align	2
                        7472 	.global	_R_WM_Sys_WindowSetFb
                        7473 _R_WM_Sys_WindowSetFb:
0000177a 8207e110       7474 	prepare	{r27,r28,r29,r31},1
0000177e 06e0           7475 	mov	r6,r28
00001780 07e8           7476 	mov	r7,r29
00001782 08d8           7477 	mov	r8,r27
                        7478 --	    .bf
                        7479 .LDW302:
                        7480 --2306: {

                                                                      Page 129
                                                              C:\Users\YINGAO~1\AppData\Local\Temp\gh_000084c1.si
                        7481 --2307:     return loc_WinSetFb(Unit, Win, Win->PosX, Win->PosY, Fb);
00001784 3d470d00       7482 	ld.w	12[r29],r8
00001788 1c30           7483 	mov	r28,r6
0000178a 3d4f1100       7484 	ld.w	16[r29],r9
0000178e 1d38           7485 	mov	r29,r7
00001790 63df0100       7486 	st.w	r27,0[sp]
                        7487 	jarl	_loc_WinSetFb,lp
                        7487 <EXPANSION BEGIN>
                        7487 jarl22 _loc_WinSetFb , lp 
00001794 bfff58f5*      7487 <EXPANSION END>
                        7488 --	    .ef
                        7489 .LDW402:
                        7490 --line2308
                        7491 ..lin.D.3A.5CRenesas_Electronics.5CD1x_RGL.5Crgl_ghs_D1Lx_obj_V1.2E2.2E0.5Cvlib.5Capp.5Cgfx_apps.5Csimple_draw_d1l2.5Ctarget.5Cd1lx_mango_ghs.5Cobj.5Cr_sys_wm.319::
                        7492 .LDWlin319:
00001798 4206ff10       7493 	dispose	1,{r27,r28,r29,r31},[lp]
                        7494 	.type	_R_WM_Sys_WindowSetFb,@function
                        7495 	.size	_R_WM_Sys_WindowSetFb,.-_R_WM_Sys_WindowSetFb
                        7496 	.align	2
                        7497 .LDW502:
                        7498 
                        7499 --_Unit	r28	param
                        7500 --_Win	r29	param
                        7501 --_Fb	r27	param
                        7502 
                        7503 	.section ".bss","awb"
                        7504 .L4936:
                        7505 	.type	.L4936,@object
                        7506 	.size	.L4936,0
                        7507 	.data
                        7508 	.text
                        7509 
                        7510 --2308: }
                        7511 
                        7512 --2310: /***********************************************************
                        7513 --2311:   Function: R_WM_Sys_ScreenColorCurveSet
                        7514 --2312: */
                        7515 --2313: uint32_t R_WM_Sys_ScreenColorCurveSet(  uint32_t Unit,
                        7516 	.align	2
                        7517 	.align	2
                        7518 	.global	_R_WM_Sys_ScreenColorCurveSet
                        7519 _R_WM_Sys_ScreenColorCurveSet:
0000179c be07e130       7520 	prepare	{r26,r27,r28,r29,r31},31
000017a0 031e80fd       7521 	addi	-640,sp,sp
000017a4 06d0           7522 	mov	r6,r26
000017a6 07e0           7523 	mov	r7,r28
000017a8 08d8           7524 	mov	r8,r27
                        7525 --	    .bf
                        7526 .LDW602:
                        7527 --2314:                                         const r_wm_ClutEntry_t *ColorCurve,
                        7528 --2315:                                         uint32_t NumEntries
                        7529 --2316:                                       )
                        7530 --2317: {
                        7531 --2318:     r_vdce_GammaCorrect_t R = {0}, G = {0}, B = {0};
000017aa 23369c02       7532 	movea	668,sp,r6
000017ae 003a           7533 	mov	0,r7
000017b0 20466000       7534 	movea	96,zero,r8
                        7535 	jarl	_memset,lp
                        7535 <EXPANSION BEGIN>
                        7535 jarl22 _memset , lp 
000017b4 80ff0000*      7535 <EXPANSION END>

                                                                      Page 130
                                                              C:\Users\YINGAO~1\AppData\Local\Temp\gh_000084c1.si
                        7536 --line2318
                        7537 ..lin.D.3A.5CRenesas_Electronics.5CD1x_RGL.5Crgl_ghs_D1Lx_obj_V1.2E2.2E0.5Cvlib.5Capp.5Cgfx_apps.5Csimple_draw_d1l2.5Ctarget.5Cd1lx_mango_ghs.5Cobj.5Cr_sys_wm.320::
                        7538 .LDWlin320:
000017b8 23363c02       7539 	movea	572,sp,r6
000017bc 003a           7540 	mov	0,r7
000017be 20466000       7541 	movea	96,zero,r8
                        7542 	jarl	_memset,lp
                        7542 <EXPANSION BEGIN>
                        7542 jarl22 _memset , lp 
000017c2 80ff0000*      7542 <EXPANSION END>
                        7543 --line2318
                        7544 ..lin.D.3A.5CRenesas_Electronics.5CD1x_RGL.5Crgl_ghs_D1Lx_obj_V1.2E2.2E0.5Cvlib.5Capp.5Cgfx_apps.5Csimple_draw_d1l2.5Ctarget.5Cd1lx_mango_ghs.5Cobj.5Cr_sys_wm.321::
                        7545 .LDWlin321:
000017c6 2336dc01       7546 	movea	476,sp,r6
000017ca 003a           7547 	mov	0,r7
000017cc 20466000       7548 	movea	96,zero,r8
                        7549 	jarl	_memset,lp
                        7549 <EXPANSION BEGIN>
                        7549 jarl22 _memset , lp 
000017d0 80ff0000*      7549 <EXPANSION END>
                        7550 --2319:     r_vdce_Gamma_t vdceGamma = {0};
                        7551 --line2319
                        7552 ..lin.D.3A.5CRenesas_Electronics.5CD1x_RGL.5Crgl_ghs_D1Lx_obj_V1.2E2.2E0.5Cvlib.5Capp.5Cgfx_apps.5Csimple_draw_d1l2.5Ctarget.5Cd1lx_mango_ghs.5Cobj.5Cr_sys_wm.322::
                        7553 .LDWlin322:
000017d4 3e0600000000*  7554 	mov	.L5101,ep
000017da 0075           7555 	sld.w	0[ep],r14
000017dc 230ed001       7556 	movea	464,sp,r1
000017e0 026d           7557 	sld.w	4[ep],r13
000017e2 0465           7558 	sld.w	8[ep],r12
000017e4 61770100       7559 	st.w	r14,0[r1]
000017e8 616f0500       7560 	st.w	r13,4[r1]
000017ec 61670900       7561 	st.w	r12,8[r1]
                        7562 --2320:     
                        7563 --2321:     uint32_t i;
                        7564 --2322:     
                        7565 --2323:     uint16_t  InValue[33];
                        7566 --2324:     float32_t OutValueR[33], OutValueG[33], OutValueB[33];
                        7567 --2326:     if ( (0 == ColorCurve) || (33 != NumEntries) )
000017f0 e0e1           7568 	cmp	zero,r28
000017f2 c205*          7569 	be	.L4951
000017f4 1b06dfff       7570 	addi	-33,r27,zero
000017f8 b205*          7571 	be	.L4950
                        7572 .L4951:
                        7573 --2327:     {
                        7574 --2328:         R_WM_SYS_REPORT_ERROR(Unit, R_WM_ERR_PARAM_INCORRECT, 0);
                        7575 --2329:         return 0;
                        7576 --line2329
                        7577 ..lin.D.3A.5CRenesas_Electronics.5CD1x_RGL.5Crgl_ghs_D1Lx_obj_V1.2E2.2E0.5Cvlib.5Capp.5Cgfx_apps.5Csimple_draw_d1l2.5Ctarget.5Cd1lx_mango_ghs.5Cobj.5Cr_sys_wm.323::
                        7578 .LDWlin323:
000017fa 0052           7579 	mov	0,r10
000017fc b575*          7580 	br	.L4948
                        7581 .L4950:
                        7582 --2330:     }
                        7583 --2331:     
                        7584 --2332:     vdceGamma.R = &R;
                        7585 --line2332
                        7586 ..lin.D.3A.5CRenesas_Electronics.5CD1x_RGL.5Crgl_ghs_D1Lx_obj_V1.2E2.2E0.5Cvlib.5Capp.5Cgfx_apps.5Csimple_draw_d1l2.5Ctarget.5Cd1lx_mango_ghs.5Cobj.5Cr_sys_wm.324::
                        7587 .LDWlin324:
000017fe 230e9c02       7588 	movea	668,sp,r1
00001802 630fd901       7589 	st.w	r1,472[sp]
                        7590 --2333:     vdceGamma.G = &G;

                                                                      Page 131
                                                              C:\Users\YINGAO~1\AppData\Local\Temp\gh_000084c1.si
00001806 230e3c02       7591 	movea	572,sp,r1
0000180a 630fd501       7592 	st.w	r1,468[sp]
                        7593 --2334:     vdceGamma.B = &B;
0000180e 230edc01       7594 	movea	476,sp,r1
00001812 630fd101       7595 	st.w	r1,464[sp]
                        7596 --2336:     for (i=0; i<33; i++)
00001816 00ea           7597 	mov	0,r29
00001818 0000           7598 	nop
                        7599 .L4956:
                        7600 --2337:     {
                        7601 --2338:         InValue[i] =  i*8;
0000181a 1df0           7602 	mov	r29,ep
0000181c c1f2           7603 	shl	1,ep
0000181e 23768e01       7604 	movea	398,sp,r14
00001822 1d08           7605 	mov	r29,r1
00001824 cef1           7606 	add	r14,ep
00001826 c30a           7607 	shl	3,r1
00001828 800c           7608 	sst.h	r1,0[ep]
                        7609 --2339:         OutValueR[i] = ColorCurve[i].R;
0000182a 1df0           7610 	mov	r29,ep
0000182c c2f2           7611 	shl	2,ep
0000182e 1e08           7612 	mov	ep,r1
00001830 dc09           7613 	add	r28,r1
00001832 810f0300       7614 	ld.bu	2[r1],r1
00001836 23760801       7615 	movea	264,sp,r14
0000183a cef1           7616 	add	r14,ep
0000183c f00f420c       7617 	cvtf.uws	r1,r1
00001840 010d           7618 	sst.w	r1,0[ep]
                        7619 --2340:         OutValueG[i] = ColorCurve[i].G;
00001842 1df0           7620 	mov	r29,ep
00001844 c2f2           7621 	shl	2,ep
00001846 1e08           7622 	mov	ep,r1
00001848 dc09           7623 	add	r28,r1
0000184a a10f0100       7624 	ld.bu	1[r1],r1
0000184e 23768400       7625 	movea	132,sp,r14
00001852 cef1           7626 	add	r14,ep
00001854 f00f420c       7627 	cvtf.uws	r1,r1
00001858 010d           7628 	sst.w	r1,0[ep]
                        7629 --2341:         OutValueB[i] = ColorCurve[i].B;
0000185a 1df0           7630 	mov	r29,ep
0000185c c2f2           7631 	shl	2,ep
0000185e 1e08           7632 	mov	ep,r1
00001860 dc09           7633 	add	r28,r1
00001862 810f0100       7634 	ld.bu	0[r1],r1
00001866 23760000       7635 	movea	0,sp,r14
0000186a cef1           7636 	add	r14,ep
0000186c f00f420c       7637 	cvtf.uws	r1,r1
00001870 010d           7638 	sst.w	r1,0[ep]
00001872 41ea           7639 	add	1,r29
00001874 1d06dfff       7640 	addi	-33,r29,zero
00001878 99d5*          7641 	bnl	.L4956
                        7642 --2342:     }
                        7643 --2343:     
                        7644 --2344:     if (0 == loc_fitCurveForVdce ( InValue, OutValueR, 33, &R ))
                        7645 --line2344
                        7646 ..lin.D.3A.5CRenesas_Electronics.5CD1x_RGL.5Crgl_ghs_D1Lx_obj_V1.2E2.2E0.5Cvlib.5Capp.5Cgfx_apps.5Csimple_draw_d1l2.5Ctarget.5Cd1lx_mango_ghs.5Cobj.5Cr_sys_wm.325::
                        7647 .LDWlin325:
0000187a 23368e01       7648 	movea	398,sp,r6
0000187e 233e0801       7649 	movea	264,sp,r7
00001882 20462100       7650 	movea	33,zero,r8
00001886 234e9c02       7651 	movea	668,sp,r9

                                                                      Page 132
                                                              C:\Users\YINGAO~1\AppData\Local\Temp\gh_000084c1.si
                        7652 	jarl	_loc_fitCurveForVdce,lp
                        7652 <EXPANSION BEGIN>
                        7652 jarl22 _loc_fitCurveForVdce , lp 
0000188a bfffc8f6*      7652 <EXPANSION END>
0000188e e051           7653 	cmp	zero,r10
00001890 ba05*          7654 	bne	.L4957
                        7655 --2345:     {
                        7656 --2346:         R_WM_SYS_REPORT_ERROR(Unit, R_WM_ERR_PARAM_INCORRECT, 0);
                        7657 --2347:         return 0;
                        7658 --line2347
                        7659 ..lin.D.3A.5CRenesas_Electronics.5CD1x_RGL.5Crgl_ghs_D1Lx_obj_V1.2E2.2E0.5Cvlib.5Capp.5Cgfx_apps.5Csimple_draw_d1l2.5Ctarget.5Cd1lx_mango_ghs.5Cobj.5Cr_sys_wm.326::
                        7660 .LDWlin326:
00001892 0052           7661 	mov	0,r10
00001894 f525*          7662 	br	.L4948
                        7663 .L4957:
                        7664 --2348:     }
                        7665 --2349:     if (0 == loc_fitCurveForVdce ( InValue, OutValueG, 33, &G ))
                        7666 --line2349
                        7667 ..lin.D.3A.5CRenesas_Electronics.5CD1x_RGL.5Crgl_ghs_D1Lx_obj_V1.2E2.2E0.5Cvlib.5Capp.5Cgfx_apps.5Csimple_draw_d1l2.5Ctarget.5Cd1lx_mango_ghs.5Cobj.5Cr_sys_wm.327::
                        7668 .LDWlin327:
00001896 23368e01       7669 	movea	398,sp,r6
0000189a 233e8400       7670 	movea	132,sp,r7
0000189e 20462100       7671 	movea	33,zero,r8
000018a2 234e3c02       7672 	movea	572,sp,r9
                        7673 	jarl	_loc_fitCurveForVdce,lp
                        7673 <EXPANSION BEGIN>
                        7673 jarl22 _loc_fitCurveForVdce , lp 
000018a6 bfffacf6*      7673 <EXPANSION END>
000018aa e051           7674 	cmp	zero,r10
000018ac ba05*          7675 	bne	.L4960
                        7676 --2350:     {
                        7677 --2351:         R_WM_SYS_REPORT_ERROR(Unit, R_WM_ERR_PARAM_INCORRECT, 0);
                        7678 --2352:         return 0;
                        7679 --line2352
                        7680 ..lin.D.3A.5CRenesas_Electronics.5CD1x_RGL.5Crgl_ghs_D1Lx_obj_V1.2E2.2E0.5Cvlib.5Capp.5Cgfx_apps.5Csimple_draw_d1l2.5Ctarget.5Cd1lx_mango_ghs.5Cobj.5Cr_sys_wm.328::
                        7681 .LDWlin328:
000018ae 0052           7682 	mov	0,r10
000018b0 951d*          7683 	br	.L4948
                        7684 .L4960:
                        7685 --2353:     }
                        7686 --2354:     if (0 == loc_fitCurveForVdce ( InValue, OutValueB, 33, &B ))
                        7687 --line2354
                        7688 ..lin.D.3A.5CRenesas_Electronics.5CD1x_RGL.5Crgl_ghs_D1Lx_obj_V1.2E2.2E0.5Cvlib.5Capp.5Cgfx_apps.5Csimple_draw_d1l2.5Ctarget.5Cd1lx_mango_ghs.5Cobj.5Cr_sys_wm.329::
                        7689 .LDWlin329:
000018b2 23368e01       7690 	movea	398,sp,r6
000018b6 233e0000       7691 	movea	0,sp,r7
000018ba 20462100       7692 	movea	33,zero,r8
000018be 234edc01       7693 	movea	476,sp,r9
                        7694 	jarl	_loc_fitCurveForVdce,lp
                        7694 <EXPANSION BEGIN>
                        7694 jarl22 _loc_fitCurveForVdce , lp 
000018c2 bfff90f6*      7694 <EXPANSION END>
000018c6 e051           7695 	cmp	zero,r10
000018c8 ba05*          7696 	bne	.L4963
                        7697 --2355:     {
                        7698 --2356:         R_WM_SYS_REPORT_ERROR(Unit, R_WM_ERR_PARAM_INCORRECT, 0);
                        7699 --2357:         return 0;
                        7700 --line2357
                        7701 ..lin.D.3A.5CRenesas_Electronics.5CD1x_RGL.5Crgl_ghs_D1Lx_obj_V1.2E2.2E0.5Cvlib.5Capp.5Cgfx_apps.5Csimple_draw_d1l2.5Ctarget.5Cd1lx_mango_ghs.5Cobj.5Cr_sys_wm.330::
                        7702 .LDWlin330:
000018ca 0052           7703 	mov	0,r10

                                                                      Page 133
                                                              C:\Users\YINGAO~1\AppData\Local\Temp\gh_000084c1.si
000018cc b50d*          7704 	br	.L4948
                        7705 .L4963:
                        7706 --2358:     }
                        7707 --2359:     
                        7708 --2360:     if ( R_VDCE_ERR_OK !=  R_VDCE_DisplayGammaCorrectSet( Unit, &vdceGamma ) )
                        7709 --line2360
                        7710 ..lin.D.3A.5CRenesas_Electronics.5CD1x_RGL.5Crgl_ghs_D1Lx_obj_V1.2E2.2E0.5Cvlib.5Capp.5Cgfx_apps.5Csimple_draw_d1l2.5Ctarget.5Cd1lx_mango_ghs.5Cobj.5Cr_sys_wm.331::
                        7711 .LDWlin331:
000018ce 1a30           7712 	mov	r26,r6
000018d0 233ed001       7713 	movea	464,sp,r7
                        7714 	jarl	_R_VDCE_DisplayGammaCorrectSet,lp
                        7714 <EXPANSION BEGIN>
                        7714 jarl22 _R_VDCE_DisplayGammaCorrectSet , lp 
000018d4 80ff0000*      7714 <EXPANSION END>
000018d8 e051           7715 	cmp	zero,r10
000018da b205*          7716 	be	.L4966
                        7717 --2361:     {
                        7718 --2362:         return 0;
                        7719 --line2362
                        7720 ..lin.D.3A.5CRenesas_Electronics.5CD1x_RGL.5Crgl_ghs_D1Lx_obj_V1.2E2.2E0.5Cvlib.5Capp.5Cgfx_apps.5Csimple_draw_d1l2.5Ctarget.5Cd1lx_mango_ghs.5Cobj.5Cr_sys_wm.332::
                        7721 .LDWlin332:
000018dc 0052           7722 	mov	0,r10
000018de a505*          7723 	br	.L4948
                        7724 .L4966:
                        7725 --2363:     }
                        7726 --2364:     
                        7727 --2365:     return 1;
                        7728 --line2365
                        7729 ..lin.D.3A.5CRenesas_Electronics.5CD1x_RGL.5Crgl_ghs_D1Lx_obj_V1.2E2.2E0.5Cvlib.5Capp.5Cgfx_apps.5Csimple_draw_d1l2.5Ctarget.5Cd1lx_mango_ghs.5Cobj.5Cr_sys_wm.333::
                        7730 .LDWlin333:
000018e0 0152           7731 	mov	1,r10
                        7732 .L4948:
                        7733 --	    .ef
                        7734 .LDW702:
000018e2 031e8002       7735 	addi	640,sp,sp
000018e6 7e06ff30       7736 	dispose	31,{r26,r27,r28,r29,r31},[lp]
                        7737 	.type	_R_WM_Sys_ScreenColorCurveSet,@function
                        7738 	.size	_R_WM_Sys_ScreenColorCurveSet,.-_R_WM_Sys_ScreenColorCurveSet
                        7739 	.align	2
                        7740 .LDW802:
                        7741 --_R	668[sp]	local
                        7742 --_G	572[sp]	local
                        7743 --_B	476[sp]	local
                        7744 --_vdceGamma	464[sp]	local
                        7745 --_i	r29	local
                        7746 --_InValue	398[sp]	local
                        7747 --_OutValueR	264[sp]	local
                        7748 --_OutValueG	132[sp]	local
                        7749 --_OutValueB	0[sp]	local
                        7750 --.L5040	.L5101	static
                        7751 
                        7752 --_Unit	r26	param
                        7753 --_ColorCurve	r28	param
                        7754 --_NumEntries	r27	param
                        7755 
                        7756 	.section ".bss","awb"
                        7757 .L5036:
                        7758 	.type	.L5036,@object
                        7759 	.size	.L5036,0
                        7760 	.section ".rodata","a"
000001a8 00000000       7761 .L5101:	.space	4

                                                                      Page 134
                                                              C:\Users\YINGAO~1\AppData\Local\Temp\gh_000084c1.si
000001ac 00000000       7762 	.space	4
000001b0 00000000       7763 	.space	4
                        7764 	.type	.L5101,@object
                        7765 	.size	.L5101,12
                        7766 	.data
                        7767 	.text
                        7768 
                        7769 --2366: }
                        7770 
                        7771 --2368: /***************************************************************************
                        7772 --2369:   Function: R_WM_Sys_ScreenGammaSet
                        7773 --2370: */
                        7774 --2371: uint32_t R_WM_Sys_ScreenGammaSet(   uint32_t Unit, 
                        7775 	.align	2
                        7776 	.align	2
                        7777 	.global	_R_WM_Sys_ScreenGammaSet
                        7778 _R_WM_Sys_ScreenGammaSet:
000018ea be07e130       7779 	prepare	{r26,r27,r28,r29,r31},31
000018ee 031e50ff       7780 	addi	-176,sp,sp
000018f2 06e8           7781 	mov	r6,r29
000018f4 c7e6ff00       7782 	andi	255,r7,r28
000018f8 c8deff00       7783 	andi	255,r8,r27
000018fc c9d6ff00       7784 	andi	255,r9,r26
                        7785 --	    .bf
                        7786 .LDW902:
                        7787 --2372:                                     const uint8_t GammaRed, 
                        7788 --2373:                                     const uint8_t GammaGreen, 
                        7789 --2374:                                     const uint8_t GammaBlue 
                        7790 --2375:                                 )
                        7791 --2376: {
                        7792 --2377:     r_vdce_GammaCorrect_t vdceGammaRed =   {0};
00001900 2336cc00       7793 	movea	204,sp,r6
00001904 003a           7794 	mov	0,r7
00001906 20466000       7795 	movea	96,zero,r8
                        7796 	jarl	_memset,lp
                        7796 <EXPANSION BEGIN>
                        7796 jarl22 _memset , lp 
0000190a 80ff0000*      7796 <EXPANSION END>
                        7797 --2378:     r_vdce_GammaCorrect_t vdceGammaGreen = {0};
                        7798 --line2378
                        7799 ..lin.D.3A.5CRenesas_Electronics.5CD1x_RGL.5Crgl_ghs_D1Lx_obj_V1.2E2.2E0.5Cvlib.5Capp.5Cgfx_apps.5Csimple_draw_d1l2.5Ctarget.5Cd1lx_mango_ghs.5Cobj.5Cr_sys_wm.334::
                        7800 .LDWlin334:
0000190e 23366c00       7801 	movea	108,sp,r6
00001912 003a           7802 	mov	0,r7
00001914 20466000       7803 	movea	96,zero,r8
                        7804 	jarl	_memset,lp
                        7804 <EXPANSION BEGIN>
                        7804 jarl22 _memset , lp 
00001918 80ff0000*      7804 <EXPANSION END>
                        7805 --2379:     r_vdce_GammaCorrect_t vdceGammaBlue =  {0};
                        7806 --line2379
                        7807 ..lin.D.3A.5CRenesas_Electronics.5CD1x_RGL.5Crgl_ghs_D1Lx_obj_V1.2E2.2E0.5Cvlib.5Capp.5Cgfx_apps.5Csimple_draw_d1l2.5Ctarget.5Cd1lx_mango_ghs.5Cobj.5Cr_sys_wm.335::
                        7808 .LDWlin335:
0000191c 23360c00       7809 	movea	12,sp,r6
00001920 003a           7810 	mov	0,r7
00001922 20466000       7811 	movea	96,zero,r8
                        7812 	jarl	_memset,lp
                        7812 <EXPANSION BEGIN>
                        7812 jarl22 _memset , lp 
00001926 80ff0000*      7812 <EXPANSION END>
                        7813 --2380:     r_vdce_Gamma_t vdceGamma = {0};

                                                                      Page 135
                                                              C:\Users\YINGAO~1\AppData\Local\Temp\gh_000084c1.si
                        7814 --line2380
                        7815 ..lin.D.3A.5CRenesas_Electronics.5CD1x_RGL.5Crgl_ghs_D1Lx_obj_V1.2E2.2E0.5Cvlib.5Capp.5Cgfx_apps.5Csimple_draw_d1l2.5Ctarget.5Cd1lx_mango_ghs.5Cobj.5Cr_sys_wm.336::
                        7816 .LDWlin336:
0000192a 3e0600000000*  7817 	mov	.L5293,ep
00001930 0075           7818 	sld.w	0[ep],r14
00001932 230e0000       7819 	movea	0,sp,r1
00001936 026d           7820 	sld.w	4[ep],r13
00001938 0465           7821 	sld.w	8[ep],r12
0000193a 61770100       7822 	st.w	r14,0[r1]
0000193e 616f0500       7823 	st.w	r13,4[r1]
00001942 61670900       7824 	st.w	r12,8[r1]
                        7825 --2382:     if ( (128 == GammaRed) && (128 == GammaGreen) && (128 == GammaBlue) )
00001946 1c0680ff       7826 	addi	-128,r28,zero
0000194a fa0d*          7827 	bne	.L5133
0000194c 1b0680ff       7828 	addi	-128,r27,zero
00001950 ca0d*          7829 	bne	.L5133
00001952 1a0680ff       7830 	addi	-128,r26,zero
00001956 9a0d*          7831 	bne	.L5133
                        7832 --2383:     {
                        7833 --2384:         /* All one? Then turn off Gamma correction */
                        7834 --2385:         if ( R_VDCE_ERR_OK !=  R_VDCE_DisplayGammaCorrectSet( Unit, R_NULL ) )
                        7835 --line2385
                        7836 ..lin.D.3A.5CRenesas_Electronics.5CD1x_RGL.5Crgl_ghs_D1Lx_obj_V1.2E2.2E0.5Cvlib.5Capp.5Cgfx_apps.5Csimple_draw_d1l2.5Ctarget.5Cd1lx_mango_ghs.5Cobj.5Cr_sys_wm.337::
                        7837 .LDWlin337:
00001958 1d30           7838 	mov	r29,r6
0000195a 003a           7839 	mov	0,r7
                        7840 	jarl	_R_VDCE_DisplayGammaCorrectSet,lp
                        7840 <EXPANSION BEGIN>
                        7840 jarl22 _R_VDCE_DisplayGammaCorrectSet , lp 
0000195c 80ff0000*      7840 <EXPANSION END>
00001960 e051           7841 	cmp	zero,r10
00001962 b24d*          7842 	be	.L5140
                        7843 --2386:         {
                        7844 --2387:             return 0;
                        7845 --line2387
                        7846 ..lin.D.3A.5CRenesas_Electronics.5CD1x_RGL.5Crgl_ghs_D1Lx_obj_V1.2E2.2E0.5Cvlib.5Capp.5Cgfx_apps.5Csimple_draw_d1l2.5Ctarget.5Cd1lx_mango_ghs.5Cobj.5Cr_sys_wm.338::
                        7847 .LDWlin338:
00001964 0052           7848 	mov	0,r10
00001966 a54d*          7849 	br	.L5131
                        7850 .L5133:
                        7851 --2388:         }
                        7852 --2389:     }
                        7853 --2390:     else
                        7854 --2391:     {
                        7855 --2392:         if ( 0 == loc_getGammaCurve( Unit, GammaRed, &vdceGammaRed ))
                        7856 --line2392
                        7857 ..lin.D.3A.5CRenesas_Electronics.5CD1x_RGL.5Crgl_ghs_D1Lx_obj_V1.2E2.2E0.5Cvlib.5Capp.5Cgfx_apps.5Csimple_draw_d1l2.5Ctarget.5Cd1lx_mango_ghs.5Cobj.5Cr_sys_wm.339::
                        7858 .LDWlin339:
00001968 1d30           7859 	mov	r29,r6
0000196a 1c38           7860 	mov	r28,r7
0000196c 2346cc00       7861 	movea	204,sp,r8
                        7862 	jarl	_loc_getGammaCurve,lp
                        7862 <EXPANSION BEGIN>
                        7862 jarl22 _loc_getGammaCurve , lp 
00001970 bfffe4f6*      7862 <EXPANSION END>
00001974 e051           7863 	cmp	zero,r10
00001976 ba05*          7864 	bne	.L5141
                        7865 --2393:         {
                        7866 --2394:             return 0;
                        7867 --line2394
                        7868 ..lin.D.3A.5CRenesas_Electronics.5CD1x_RGL.5Crgl_ghs_D1Lx_obj_V1.2E2.2E0.5Cvlib.5Capp.5Cgfx_apps.5Csimple_draw_d1l2.5Ctarget.5Cd1lx_mango_ghs.5Cobj.5Cr_sys_wm.340::

                                                                      Page 136
                                                              C:\Users\YINGAO~1\AppData\Local\Temp\gh_000084c1.si
                        7869 .LDWlin340:
00001978 0052           7870 	mov	0,r10
0000197a 8545*          7871 	br	.L5131
                        7872 .L5141:
                        7873 --2395:         }
                        7874 --2396:         vdceGamma.R =    &vdceGammaRed;
                        7875 --line2396
                        7876 ..lin.D.3A.5CRenesas_Electronics.5CD1x_RGL.5Crgl_ghs_D1Lx_obj_V1.2E2.2E0.5Cvlib.5Capp.5Cgfx_apps.5Csimple_draw_d1l2.5Ctarget.5Cd1lx_mango_ghs.5Cobj.5Cr_sys_wm.341::
                        7877 .LDWlin341:
0000197c 230ecc00       7878 	movea	204,sp,r1
00001980 630f0900       7879 	st.w	r1,8[sp]
                        7880 --2397:         
                        7881 --2398:         /* Same as red gamma? Reuse red calculation */
                        7882 --2399:         if ( GammaGreen == GammaRed )
00001984 fcd9           7883 	cmp	r28,r27
00001986 ea05*          7884 	bne	.L5144
                        7885 --2400:         {
                        7886 --2401:             vdceGamma.G =    &vdceGammaRed;
                        7887 --line2401
                        7888 ..lin.D.3A.5CRenesas_Electronics.5CD1x_RGL.5Crgl_ghs_D1Lx_obj_V1.2E2.2E0.5Cvlib.5Capp.5Cgfx_apps.5Csimple_draw_d1l2.5Ctarget.5Cd1lx_mango_ghs.5Cobj.5Cr_sys_wm.342::
                        7889 .LDWlin342:
00001988 230ecc00       7890 	movea	204,sp,r1
0000198c 630f0500       7891 	st.w	r1,4[sp]
00001990 f50d*          7892 	br	.L5146
                        7893 .L5144:
                        7894 --2402:         }
                        7895 --2403:         else
                        7896 --2404:         {
                        7897 --2405:             if ( 0 == loc_getGammaCurve( Unit, GammaGreen, &vdceGammaGreen ))
                        7898 --line2405
                        7899 ..lin.D.3A.5CRenesas_Electronics.5CD1x_RGL.5Crgl_ghs_D1Lx_obj_V1.2E2.2E0.5Cvlib.5Capp.5Cgfx_apps.5Csimple_draw_d1l2.5Ctarget.5Cd1lx_mango_ghs.5Cobj.5Cr_sys_wm.343::
                        7900 .LDWlin343:
00001992 1d30           7901 	mov	r29,r6
00001994 1b38           7902 	mov	r27,r7
00001996 23466c00       7903 	movea	108,sp,r8
                        7904 	jarl	_loc_getGammaCurve,lp
                        7904 <EXPANSION BEGIN>
                        7904 jarl22 _loc_getGammaCurve , lp 
0000199a bfffbaf6*      7904 <EXPANSION END>
0000199e e051           7905 	cmp	zero,r10
000019a0 ba05*          7906 	bne	.L5147
                        7907 --2406:             {
                        7908 --2407:                 return 0;
                        7909 --line2407
                        7910 ..lin.D.3A.5CRenesas_Electronics.5CD1x_RGL.5Crgl_ghs_D1Lx_obj_V1.2E2.2E0.5Cvlib.5Capp.5Cgfx_apps.5Csimple_draw_d1l2.5Ctarget.5Cd1lx_mango_ghs.5Cobj.5Cr_sys_wm.344::
                        7911 .LDWlin344:
000019a2 0052           7912 	mov	0,r10
000019a4 b52d*          7913 	br	.L5131
                        7914 .L5147:
                        7915 --2408:             }
                        7916 --2409:             vdceGamma.G =    &vdceGammaGreen;
                        7917 --line2409
                        7918 ..lin.D.3A.5CRenesas_Electronics.5CD1x_RGL.5Crgl_ghs_D1Lx_obj_V1.2E2.2E0.5Cvlib.5Capp.5Cgfx_apps.5Csimple_draw_d1l2.5Ctarget.5Cd1lx_mango_ghs.5Cobj.5Cr_sys_wm.345::
                        7919 .LDWlin345:
000019a6 230e6c00       7920 	movea	108,sp,r1
000019aa 630f0500       7921 	st.w	r1,4[sp]
                        7922 .L5146:
                        7923 --2410:         }
                        7924 --2411:         
                        7925 --2412:         /* Same as red gamma? Reuse red calculation */
                        7926 --2413:         if ( GammaBlue == GammaRed )

                                                                      Page 137
                                                              C:\Users\YINGAO~1\AppData\Local\Temp\gh_000084c1.si
000019ae fcd1           7927 	cmp	r28,r26
000019b0 ea05*          7928 	bne	.L5150
                        7929 --2414:         {
                        7930 --2415:             vdceGamma.B =    &vdceGammaRed;
                        7931 --line2415
                        7932 ..lin.D.3A.5CRenesas_Electronics.5CD1x_RGL.5Crgl_ghs_D1Lx_obj_V1.2E2.2E0.5Cvlib.5Capp.5Cgfx_apps.5Csimple_draw_d1l2.5Ctarget.5Cd1lx_mango_ghs.5Cobj.5Cr_sys_wm.346::
                        7933 .LDWlin346:
000019b2 230ecc00       7934 	movea	204,sp,r1
000019b6 630f0100       7935 	st.w	r1,0[sp]
000019ba e515*          7936 	br	.L5152
                        7937 .L5150:
                        7938 --2416:         }
                        7939 --2417:         /* Same as green gamma? Reuse green calculation */
                        7940 --2418:         else if ( GammaBlue == GammaGreen )
                        7941 --line2418
                        7942 ..lin.D.3A.5CRenesas_Electronics.5CD1x_RGL.5Crgl_ghs_D1Lx_obj_V1.2E2.2E0.5Cvlib.5Capp.5Cgfx_apps.5Csimple_draw_d1l2.5Ctarget.5Cd1lx_mango_ghs.5Cobj.5Cr_sys_wm.347::
                        7943 .LDWlin347:
000019bc fbd1           7944 	cmp	r27,r26
000019be ea05*          7945 	bne	.L5153
                        7946 --2419:         {
                        7947 --2420:             vdceGamma.B =    &vdceGammaGreen;
                        7948 --line2420
                        7949 ..lin.D.3A.5CRenesas_Electronics.5CD1x_RGL.5Crgl_ghs_D1Lx_obj_V1.2E2.2E0.5Cvlib.5Capp.5Cgfx_apps.5Csimple_draw_d1l2.5Ctarget.5Cd1lx_mango_ghs.5Cobj.5Cr_sys_wm.348::
                        7950 .LDWlin348:
000019c0 230e6c00       7951 	movea	108,sp,r1
000019c4 630f0100       7952 	st.w	r1,0[sp]
000019c8 f50d*          7953 	br	.L5152
                        7954 .L5153:
                        7955 --2421:         }
                        7956 --2422:         else
                        7957 --2423:         {
                        7958 --2424:             if ( 0 == loc_getGammaCurve( Unit, GammaBlue, &vdceGammaBlue ))
                        7959 --line2424
                        7960 ..lin.D.3A.5CRenesas_Electronics.5CD1x_RGL.5Crgl_ghs_D1Lx_obj_V1.2E2.2E0.5Cvlib.5Capp.5Cgfx_apps.5Csimple_draw_d1l2.5Ctarget.5Cd1lx_mango_ghs.5Cobj.5Cr_sys_wm.349::
                        7961 .LDWlin349:
000019ca 1d30           7962 	mov	r29,r6
000019cc 1a38           7963 	mov	r26,r7
000019ce 23460c00       7964 	movea	12,sp,r8
                        7965 	jarl	_loc_getGammaCurve,lp
                        7965 <EXPANSION BEGIN>
                        7965 jarl22 _loc_getGammaCurve , lp 
000019d2 bfff82f6*      7965 <EXPANSION END>
000019d6 e051           7966 	cmp	zero,r10
000019d8 ba05*          7967 	bne	.L5156
                        7968 --2425:             {
                        7969 --2426:                 return 0;
                        7970 --line2426
                        7971 ..lin.D.3A.5CRenesas_Electronics.5CD1x_RGL.5Crgl_ghs_D1Lx_obj_V1.2E2.2E0.5Cvlib.5Capp.5Cgfx_apps.5Csimple_draw_d1l2.5Ctarget.5Cd1lx_mango_ghs.5Cobj.5Cr_sys_wm.350::
                        7972 .LDWlin350:
000019da 0052           7973 	mov	0,r10
000019dc f50d*          7974 	br	.L5131
                        7975 .L5156:
                        7976 --2427:             }
                        7977 --2428:             vdceGamma.B =    &vdceGammaBlue;
                        7978 --line2428
                        7979 ..lin.D.3A.5CRenesas_Electronics.5CD1x_RGL.5Crgl_ghs_D1Lx_obj_V1.2E2.2E0.5Cvlib.5Capp.5Cgfx_apps.5Csimple_draw_d1l2.5Ctarget.5Cd1lx_mango_ghs.5Cobj.5Cr_sys_wm.351::
                        7980 .LDWlin351:
000019de 230e0c00       7981 	movea	12,sp,r1
000019e2 630f0100       7982 	st.w	r1,0[sp]
                        7983 .L5152:
                        7984 --2429:         }

                                                                      Page 138
                                                              C:\Users\YINGAO~1\AppData\Local\Temp\gh_000084c1.si
                        7985 --2430:         
                        7986 --2431:         if ( R_VDCE_ERR_OK !=  R_VDCE_DisplayGammaCorrectSet( Unit, &vdceGamma ) )
000019e6 1d30           7987 	mov	r29,r6
000019e8 233e0000       7988 	movea	0,sp,r7
                        7989 	jarl	_R_VDCE_DisplayGammaCorrectSet,lp
                        7989 <EXPANSION BEGIN>
                        7989 jarl22 _R_VDCE_DisplayGammaCorrectSet , lp 
000019ec 80ff0000*      7989 <EXPANSION END>
000019f0 e051           7990 	cmp	zero,r10
000019f2 b205*          7991 	be	.L5140
                        7992 --2432:         {
                        7993 --2433:             return 0;
                        7994 --line2433
                        7995 ..lin.D.3A.5CRenesas_Electronics.5CD1x_RGL.5Crgl_ghs_D1Lx_obj_V1.2E2.2E0.5Cvlib.5Capp.5Cgfx_apps.5Csimple_draw_d1l2.5Ctarget.5Cd1lx_mango_ghs.5Cobj.5Cr_sys_wm.352::
                        7996 .LDWlin352:
000019f4 0052           7997 	mov	0,r10
000019f6 a505*          7998 	br	.L5131
                        7999 .L5140:
                        8000 --2434:         }
                        8001 --2435:     }
                        8002 --2436:     
                        8003 --2437:     return 1;
                        8004 --line2437
                        8005 ..lin.D.3A.5CRenesas_Electronics.5CD1x_RGL.5Crgl_ghs_D1Lx_obj_V1.2E2.2E0.5Cvlib.5Capp.5Cgfx_apps.5Csimple_draw_d1l2.5Ctarget.5Cd1lx_mango_ghs.5Cobj.5Cr_sys_wm.353::
                        8006 .LDWlin353:
000019f8 0152           8007 	mov	1,r10
                        8008 .L5131:
                        8009 --	    .ef
                        8010 .LDW012:
000019fa 031eb000       8011 	addi	176,sp,sp
000019fe 7e06ff30       8012 	dispose	31,{r26,r27,r28,r29,r31},[lp]
                        8013 	.type	_R_WM_Sys_ScreenGammaSet,@function
                        8014 	.size	_R_WM_Sys_ScreenGammaSet,.-_R_WM_Sys_ScreenGammaSet
                        8015 	.align	2
                        8016 .LDW112:
                        8017 --_vdceGammaRed	204[sp]	local
                        8018 --_vdceGammaGreen	108[sp]	local
                        8019 --_vdceGammaBlue	12[sp]	local
                        8020 --_vdceGamma	0[sp]	local
                        8021 --.L5232	.L5293	static
                        8022 
                        8023 --_Unit	r29	param
                        8024 --_GammaRed	r28	param
                        8025 --_GammaGreen	r27	param
                        8026 --_GammaBlue	r26	param
                        8027 
                        8028 	.section ".bss","awb"
                        8029 .L5228:
                        8030 	.type	.L5228,@object
                        8031 	.size	.L5228,0
                        8032 	.section ".rodata","a"
000001b4 00000000       8033 .L5293:	.space	4
000001b8 00000000       8034 	.space	4
000001bc 00000000       8035 	.space	4
                        8036 	.type	.L5293,@object
                        8037 	.size	.L5293,12
                        8038 	.data
                        8039 	.text
                        8040 
                        8041 --2438: }
                        8042 

                                                                      Page 139
                                                              C:\Users\YINGAO~1\AppData\Local\Temp\gh_000084c1.si
                        8043 --2441: /***********************************************************
                        8044 --2442:   Function: R_WM_Sys_DevInfoGet
                        8045 --2443: */
                        8046 --2445: void  R_WM_Sys_DevInfoGet   (   uint32_t  Unit,
                        8047 	.align	2
                        8048 	.align	2
                        8049 	.global	_R_WM_Sys_DevInfoGet
                        8050 _R_WM_Sys_DevInfoGet:
00001a02 0660           8051 	mov	r6,r12
00001a04 0708           8052 	mov	r7,r1
00001a06 0870           8053 	mov	r8,r14
00001a08 0968           8054 	mov	r9,r13
                        8055 --	    .bf
                        8056 .LDW212:
                        8057 --2446:                                 uint32_t* MaxLayers,
                        8058 --2447:                                 uint32_t* MaxPitch, 
                        8059 --2448:                                 uint32_t* MaxWidth, 
                        8060 --2449:                                 uint32_t* MaxHeight,
                        8061 --2450:                                 uint32_t* SpritesOrderAscending
                        8062 --2451:                             )
                        8063 --2452: {
                        8064 --2453:     if (0 != MaxLayers)
00001a0a e009           8065 	cmp	zero,r1
00001a0c c205*          8066 	be	.L5325
                        8067 --2454:     {
                        8068 --2455:         *MaxLayers = R_VDCE_MAX_LAYERS;
                        8069 --line2455
                        8070 ..lin.D.3A.5CRenesas_Electronics.5CD1x_RGL.5Crgl_ghs_D1Lx_obj_V1.2E2.2E0.5Cvlib.5Capp.5Cgfx_apps.5Csimple_draw_d1l2.5Ctarget.5Cd1lx_mango_ghs.5Cobj.5Cr_sys_wm.354::
                        8071 .LDWlin354:
00001a0e 045a           8072 	mov	4,r11
00001a10 615f0100       8073 	st.w	r11,0[r1]
                        8074 .L5325:
                        8075 --2456:     }
                        8076 --2457:     if (0 != MaxPitch)
00001a14 e071           8077 	cmp	zero,r14
00001a16 d205*          8078 	be	.L5327
                        8079 --2458:     {
                        8080 --2459:        *MaxPitch = R_VDCE_MAX_LAYER_PITCH;
                        8081 --line2459
                        8082 ..lin.D.3A.5CRenesas_Electronics.5CD1x_RGL.5Crgl_ghs_D1Lx_obj_V1.2E2.2E0.5Cvlib.5Capp.5Cgfx_apps.5Csimple_draw_d1l2.5Ctarget.5Cd1lx_mango_ghs.5Cobj.5Cr_sys_wm.355::
                        8083 .LDWlin355:
00001a18 205e0020       8084 	movea	8192,zero,r11
00001a1c 6e5f0100       8085 	st.w	r11,0[r14]
                        8086 .L5327:
                        8087 --2460:     }
                        8088 --2461:     if (0 != MaxWidth)
00001a20 e069           8089 	cmp	zero,r13
00001a22 d205*          8090 	be	.L5329
                        8091 --2462:     {
                        8092 --2463:        *MaxWidth = R_VDCE_MAX_LAYER_WIDTH;
                        8093 --line2463
                        8094 ..lin.D.3A.5CRenesas_Electronics.5CD1x_RGL.5Crgl_ghs_D1Lx_obj_V1.2E2.2E0.5Cvlib.5Capp.5Cgfx_apps.5Csimple_draw_d1l2.5Ctarget.5Cd1lx_mango_ghs.5Cobj.5Cr_sys_wm.356::
                        8095 .LDWlin356:
00001a24 205e0005       8096 	movea	1280,zero,r11
00001a28 6d5f0100       8097 	st.w	r11,0[r13]
                        8098 .L5329:
                        8099 --2464:     }
                        8100 --2465:     if (0 != MaxHeight)
00001a2c 235f0100       8101 	ld.w	0[sp],r11
00001a30 e059           8102 	cmp	zero,r11
00001a32 e205*          8103 	be	.L5331

                                                                      Page 140
                                                              C:\Users\YINGAO~1\AppData\Local\Temp\gh_000084c1.si
                        8104 --2466:     {
                        8105 --2467:        *MaxHeight = R_VDCE_MAX_LAYER_HEIGHT;
                        8106 --line2467
                        8107 ..lin.D.3A.5CRenesas_Electronics.5CD1x_RGL.5Crgl_ghs_D1Lx_obj_V1.2E2.2E0.5Cvlib.5Capp.5Cgfx_apps.5Csimple_draw_d1l2.5Ctarget.5Cd1lx_mango_ghs.5Cobj.5Cr_sys_wm.357::
                        8108 .LDWlin357:
00001a34 23f70100       8109 	ld.w	0[sp],ep
00001a38 205e0003       8110 	movea	768,zero,r11
00001a3c 015d           8111 	sst.w	r11,0[ep]
                        8112 .L5331:
                        8113 --2468:     }
                        8114 --2469:     if (0 != SpritesOrderAscending)
00001a3e 235f0500       8115 	ld.w	4[sp],r11
00001a42 e059           8116 	cmp	zero,r11
00001a44 c205*          8117 	be	.L5333
                        8118 --2470:     {
                        8119 --2471:         *SpritesOrderAscending = 0;
                        8120 --line2471
                        8121 ..lin.D.3A.5CRenesas_Electronics.5CD1x_RGL.5Crgl_ghs_D1Lx_obj_V1.2E2.2E0.5Cvlib.5Capp.5Cgfx_apps.5Csimple_draw_d1l2.5Ctarget.5Cd1lx_mango_ghs.5Cobj.5Cr_sys_wm.358::
                        8122 .LDWlin358:
00001a46 23f70500       8123 	ld.w	4[sp],ep
00001a4a 0105           8124 	sst.w	zero,0[ep]
                        8125 .L5333:
                        8126 --2472:     }
                        8127 --2473: }
00001a4c 0000           8128 	nop
                        8129 --	    .ef
                        8130 .LDW312:
00001a4e 7f00           8131 	jmp	[lp]
                        8132 	.type	_R_WM_Sys_DevInfoGet,@function
                        8133 	.size	_R_WM_Sys_DevInfoGet,.-_R_WM_Sys_DevInfoGet
                        8134 	.align	2
                        8135 .LDW412:
                        8136 
                        8137 --_Unit	r12	param
                        8138 --_MaxLayers	r1	param
                        8139 --_MaxPitch	r14	param
                        8140 --_MaxWidth	r13	param
                        8141 --_MaxHeight	0[sp]	param
                        8142 --_SpritesOrderAscending	4[sp]	param
                        8143 
                        8144 	.section ".bss","awb"
                        8145 .L5372:
                        8146 	.type	.L5372,@object
                        8147 	.size	.L5372,0
                        8148 	.data
                        8149 	.text
                        8150 
                        8151 
                        8152 --2475: /***********************************************************
                        8153 --2476:   Function: R_WM_Sys_ScreenEnable
                        8154 --2477: */
                        8155 --2479: uint32_t R_WM_Sys_ScreenEnable(uint32_t Unit, uint32_t Enabled)
                        8156 	.align	2
                        8157 	.align	2
                        8158 	.global	_R_WM_Sys_ScreenEnable
                        8159 _R_WM_Sys_ScreenEnable:
00001a50 8007e110       8160 	prepare	{r27,r28,r29,r31},0
00001a54 06e8           8161 	mov	r6,r29
00001a56 07d8           8162 	mov	r7,r27
                        8163 --	    .bf
                        8164 .LDW512:

                                                                      Page 141
                                                              C:\Users\YINGAO~1\AppData\Local\Temp\gh_000084c1.si
                        8165 --2480: {
                        8166 --2481:     r_vdce_Error_t err;
                        8167 --2482:     if (Enabled == 1)
00001a58 61da           8168 	cmp	1,r27
00001a5a ea15*          8169 	bne	.L5416
                        8170 --2483:     {
                        8171 --2484:         if (R_VDCE_ERR_OK != R_VDCE_IntcEnable(Unit, R_VDCE_INTC_SCANLINE))
                        8172 --line2484
                        8173 ..lin.D.3A.5CRenesas_Electronics.5CD1x_RGL.5Crgl_ghs_D1Lx_obj_V1.2E2.2E0.5Cvlib.5Capp.5Cgfx_apps.5Csimple_draw_d1l2.5Ctarget.5Cd1lx_mango_ghs.5Cobj.5Cr_sys_wm.359::
                        8174 .LDWlin359:
00001a5c 1d30           8175 	mov	r29,r6
00001a5e 043a           8176 	mov	4,r7
                        8177 	jarl	_R_VDCE_IntcEnable,lp
                        8177 <EXPANSION BEGIN>
                        8177 jarl22 _R_VDCE_IntcEnable , lp 
00001a60 80ff0000*      8177 <EXPANSION END>
00001a64 e051           8178 	cmp	zero,r10
00001a66 b205*          8179 	be	.L5418
                        8180 --2485:         {
                        8181 --2486:             return 0;
                        8182 --line2486
                        8183 ..lin.D.3A.5CRenesas_Electronics.5CD1x_RGL.5Crgl_ghs_D1Lx_obj_V1.2E2.2E0.5Cvlib.5Capp.5Cgfx_apps.5Csimple_draw_d1l2.5Ctarget.5Cd1lx_mango_ghs.5Cobj.5Cr_sys_wm.360::
                        8184 .LDWlin360:
00001a68 0052           8185 	mov	0,r10
00001a6a f525*          8186 	br	.L5414
                        8187 .L5418:
                        8188 --2487:         }
                        8189 --2488:         if (R_VDCE_ERR_OK != R_VDCE_IntcEnable(Unit, R_VDCE_INTC_VBLANK))
                        8190 --line2488
                        8191 ..lin.D.3A.5CRenesas_Electronics.5CD1x_RGL.5Crgl_ghs_D1Lx_obj_V1.2E2.2E0.5Cvlib.5Capp.5Cgfx_apps.5Csimple_draw_d1l2.5Ctarget.5Cd1lx_mango_ghs.5Cobj.5Cr_sys_wm.361::
                        8192 .LDWlin361:
00001a6c 1d30           8193 	mov	r29,r6
00001a6e 013a           8194 	mov	1,r7
                        8195 	jarl	_R_VDCE_IntcEnable,lp
                        8195 <EXPANSION BEGIN>
                        8195 jarl22 _R_VDCE_IntcEnable , lp 
00001a70 80ff0000*      8195 <EXPANSION END>
00001a74 e051           8196 	cmp	zero,r10
00001a76 b205*          8197 	be	.L5421
                        8198 --2489:         {
                        8199 --2490:             return 0;
                        8200 --line2490
                        8201 ..lin.D.3A.5CRenesas_Electronics.5CD1x_RGL.5Crgl_ghs_D1Lx_obj_V1.2E2.2E0.5Cvlib.5Capp.5Cgfx_apps.5Csimple_draw_d1l2.5Ctarget.5Cd1lx_mango_ghs.5Cobj.5Cr_sys_wm.362::
                        8202 .LDWlin362:
00001a78 0052           8203 	mov	0,r10
00001a7a f51d*          8204 	br	.L5414
                        8205 .L5421:
                        8206 --2491:         }
                        8207 --2492:         err = R_VDCE_DisplayEnable(Unit);
                        8208 --line2492
                        8209 ..lin.D.3A.5CRenesas_Electronics.5CD1x_RGL.5Crgl_ghs_D1Lx_obj_V1.2E2.2E0.5Cvlib.5Capp.5Cgfx_apps.5Csimple_draw_d1l2.5Ctarget.5Cd1lx_mango_ghs.5Cobj.5Cr_sys_wm.363::
                        8210 .LDWlin363:
00001a7c 1d30           8211 	mov	r29,r6
                        8212 	jarl	_R_VDCE_DisplayEnable,lp
                        8212 <EXPANSION BEGIN>
                        8212 jarl22 _R_VDCE_DisplayEnable , lp 
00001a7e 80ff0000*      8212 <EXPANSION END>
00001a82 0ae0           8213 	mov	r10,r28
00001a84 d515*          8214 	br	.L5424
                        8215 .L5416:
                        8216 --2493:     }

                                                                      Page 142
                                                              C:\Users\YINGAO~1\AppData\Local\Temp\gh_000084c1.si
                        8217 --2494:     else
                        8218 --2495:     {
                        8219 --2496:         if (R_VDCE_ERR_OK != R_VDCE_IntcDisable(Unit, R_VDCE_INTC_SCANLINE))
                        8220 --line2496
                        8221 ..lin.D.3A.5CRenesas_Electronics.5CD1x_RGL.5Crgl_ghs_D1Lx_obj_V1.2E2.2E0.5Cvlib.5Capp.5Cgfx_apps.5Csimple_draw_d1l2.5Ctarget.5Cd1lx_mango_ghs.5Cobj.5Cr_sys_wm.364::
                        8222 .LDWlin364:
00001a86 1d30           8223 	mov	r29,r6
00001a88 043a           8224 	mov	4,r7
                        8225 	jarl	_R_VDCE_IntcDisable,lp
                        8225 <EXPANSION BEGIN>
                        8225 jarl22 _R_VDCE_IntcDisable , lp 
00001a8a 80ff0000*      8225 <EXPANSION END>
00001a8e e051           8226 	cmp	zero,r10
00001a90 b205*          8227 	be	.L5425
                        8228 --2497:         {
                        8229 --2498:             return 0;
                        8230 --line2498
                        8231 ..lin.D.3A.5CRenesas_Electronics.5CD1x_RGL.5Crgl_ghs_D1Lx_obj_V1.2E2.2E0.5Cvlib.5Capp.5Cgfx_apps.5Csimple_draw_d1l2.5Ctarget.5Cd1lx_mango_ghs.5Cobj.5Cr_sys_wm.365::
                        8232 .LDWlin365:
00001a92 0052           8233 	mov	0,r10
00001a94 a515*          8234 	br	.L5414
                        8235 .L5425:
                        8236 --2499:         }
                        8237 --2500:         if (R_VDCE_ERR_OK != R_VDCE_IntcDisable(Unit, R_VDCE_INTC_VBLANK))
                        8238 --line2500
                        8239 ..lin.D.3A.5CRenesas_Electronics.5CD1x_RGL.5Crgl_ghs_D1Lx_obj_V1.2E2.2E0.5Cvlib.5Capp.5Cgfx_apps.5Csimple_draw_d1l2.5Ctarget.5Cd1lx_mango_ghs.5Cobj.5Cr_sys_wm.366::
                        8240 .LDWlin366:
00001a96 1d30           8241 	mov	r29,r6
00001a98 013a           8242 	mov	1,r7
                        8243 	jarl	_R_VDCE_IntcDisable,lp
                        8243 <EXPANSION BEGIN>
                        8243 jarl22 _R_VDCE_IntcDisable , lp 
00001a9a 80ff0000*      8243 <EXPANSION END>
00001a9e e051           8244 	cmp	zero,r10
00001aa0 b205*          8245 	be	.L5428
                        8246 --2501:         {
                        8247 --2502:             return 0;
                        8248 --line2502
                        8249 ..lin.D.3A.5CRenesas_Electronics.5CD1x_RGL.5Crgl_ghs_D1Lx_obj_V1.2E2.2E0.5Cvlib.5Capp.5Cgfx_apps.5Csimple_draw_d1l2.5Ctarget.5Cd1lx_mango_ghs.5Cobj.5Cr_sys_wm.367::
                        8250 .LDWlin367:
00001aa2 0052           8251 	mov	0,r10
00001aa4 a50d*          8252 	br	.L5414
                        8253 .L5428:
                        8254 --2503:         }
                        8255 --2504:         err = R_VDCE_DisplayDisable(Unit);
                        8256 --line2504
                        8257 ..lin.D.3A.5CRenesas_Electronics.5CD1x_RGL.5Crgl_ghs_D1Lx_obj_V1.2E2.2E0.5Cvlib.5Capp.5Cgfx_apps.5Csimple_draw_d1l2.5Ctarget.5Cd1lx_mango_ghs.5Cobj.5Cr_sys_wm.368::
                        8258 .LDWlin368:
00001aa6 1d30           8259 	mov	r29,r6
                        8260 	jarl	_R_VDCE_DisplayDisable,lp
                        8260 <EXPANSION BEGIN>
                        8260 jarl22 _R_VDCE_DisplayDisable , lp 
00001aa8 80ff0000*      8260 <EXPANSION END>
00001aac 0ae0           8261 	mov	r10,r28
                        8262 .L5424:
                        8263 --2505:     }
                        8264 --2506:     
                        8265 --2507:     if (err != R_VDCE_ERR_OK)
                        8266 --line2507
                        8267 ..lin.D.3A.5CRenesas_Electronics.5CD1x_RGL.5Crgl_ghs_D1Lx_obj_V1.2E2.2E0.5Cvlib.5Capp.5Cgfx_apps.5Csimple_draw_d1l2.5Ctarget.5Cd1lx_mango_ghs.5Cobj.5Cr_sys_wm.369::
                        8268 .LDWlin369:

                                                                      Page 143
                                                              C:\Users\YINGAO~1\AppData\Local\Temp\gh_000084c1.si
00001aae e0e1           8269 	cmp	zero,r28
00001ab0 b205*          8270 	be	.L5431
                        8271 --2508:     {
                        8272 --2509:         return 0;
                        8273 --line2509
                        8274 ..lin.D.3A.5CRenesas_Electronics.5CD1x_RGL.5Crgl_ghs_D1Lx_obj_V1.2E2.2E0.5Cvlib.5Capp.5Cgfx_apps.5Csimple_draw_d1l2.5Ctarget.5Cd1lx_mango_ghs.5Cobj.5Cr_sys_wm.370::
                        8275 .LDWlin370:
00001ab2 0052           8276 	mov	0,r10
00001ab4 a505*          8277 	br	.L5414
                        8278 .L5431:
                        8279 --2510:     }
                        8280 --2511:     return 1;
                        8281 --line2511
                        8282 ..lin.D.3A.5CRenesas_Electronics.5CD1x_RGL.5Crgl_ghs_D1Lx_obj_V1.2E2.2E0.5Cvlib.5Capp.5Cgfx_apps.5Csimple_draw_d1l2.5Ctarget.5Cd1lx_mango_ghs.5Cobj.5Cr_sys_wm.371::
                        8283 .LDWlin371:
00001ab6 0152           8284 	mov	1,r10
                        8285 .L5414:
                        8286 --	    .ef
                        8287 .LDW612:
00001ab8 4006ff10       8288 	dispose	0,{r27,r28,r29,r31},[lp]
                        8289 	.type	_R_WM_Sys_ScreenEnable,@function
                        8290 	.size	_R_WM_Sys_ScreenEnable,.-_R_WM_Sys_ScreenEnable
                        8291 	.align	2
                        8292 .LDW712:
                        8293 --_err	r28	local
                        8294 
                        8295 --_Unit	r29	param
                        8296 --_Enabled	r27	param
                        8297 
                        8298 	.section ".bss","awb"
                        8299 .L5474:
                        8300 	.type	.L5474,@object
                        8301 	.size	.L5474,0
                        8302 	.data
                        8303 	.text
                        8304 
                        8305 --2512: }
                        8306 
                        8307 --2514: uint32_t R_WM_Sys_ScreenTimingSetByName     (   uint32_t        Unit,
                        8308 	.align	2
                        8309 	.align	2
                        8310 	.global	_R_WM_Sys_ScreenTimingSetByName
                        8311 _R_WM_Sys_ScreenTimingSetByName:
00001abc 8007e110       8312 	prepare	{r27,r28,r29,r31},0
00001ac0 06d8           8313 	mov	r6,r27
00001ac2 07e8           8314 	mov	r7,r29
                        8315 --	    .bf
                        8316 .LDW812:
                        8317 --2515:                                                 const int8_t*   Name
                        8318 --2516:                                             )
                        8319 --2517: {
                        8320 --2518:     r_ddb_Timing_t *timing;
                        8321 --2520:     if ((Name == 0) || (*Name == 0))
00001ac4 e0e9           8322 	cmp	zero,r29
00001ac6 d205*          8323 	be	.L5528
00001ac8 1d0f0000       8324 	ld.b	0[r29],r1
00001acc e009           8325 	cmp	zero,r1
00001ace ba05*          8326 	bne	.L5527
                        8327 .L5528:
                        8328 --2521:     {
                        8329 --2522:         R_WM_SYS_REPORT_ERROR(Unit, R_WM_ERR_PARAM_INCORRECT, 0);

                                                                      Page 144
                                                              C:\Users\YINGAO~1\AppData\Local\Temp\gh_000084c1.si
                        8330 --2523:         return 0;
                        8331 --line2523
                        8332 ..lin.D.3A.5CRenesas_Electronics.5CD1x_RGL.5Crgl_ghs_D1Lx_obj_V1.2E2.2E0.5Cvlib.5Capp.5Cgfx_apps.5Csimple_draw_d1l2.5Ctarget.5Cd1lx_mango_ghs.5Cobj.5Cr_sys_wm.372::
                        8333 .LDWlin372:
00001ad0 0052           8334 	mov	0,r10
00001ad2 950d*          8335 	br	.L5525
                        8336 .L5527:
                        8337 --2524:     }
                        8338 --2525:     timing = R_DDB_GetDisplayTiming((const char*) Name);
                        8339 --line2525
                        8340 ..lin.D.3A.5CRenesas_Electronics.5CD1x_RGL.5Crgl_ghs_D1Lx_obj_V1.2E2.2E0.5Cvlib.5Capp.5Cgfx_apps.5Csimple_draw_d1l2.5Ctarget.5Cd1lx_mango_ghs.5Cobj.5Cr_sys_wm.373::
                        8341 .LDWlin373:
00001ad4 1d30           8342 	mov	r29,r6
                        8343 	jarl	_R_DDB_GetDisplayTiming,lp
                        8343 <EXPANSION BEGIN>
                        8343 jarl22 _R_DDB_GetDisplayTiming , lp 
00001ad6 80ff0000*      8343 <EXPANSION END>
00001ada 0ae0           8344 	mov	r10,r28
                        8345 --2527:     return R_WM_Sys_ScreenTimingSet(Unit, timing);
                        8346 --line2527
                        8347 ..lin.D.3A.5CRenesas_Electronics.5CD1x_RGL.5Crgl_ghs_D1Lx_obj_V1.2E2.2E0.5Cvlib.5Capp.5Cgfx_apps.5Csimple_draw_d1l2.5Ctarget.5Cd1lx_mango_ghs.5Cobj.5Cr_sys_wm.374::
                        8348 .LDWlin374:
00001adc 1b30           8349 	mov	r27,r6
00001ade 1c38           8350 	mov	r28,r7
                        8351 	jarl	_R_WM_Sys_ScreenTimingSet,lp
                        8351 <EXPANSION BEGIN>
                        8351 jarl22 _R_WM_Sys_ScreenTimingSet , lp 
00001ae0 80ff7c00*      8351 <EXPANSION END>
                        8352 .L5525:
                        8353 --	    .ef
                        8354 .LDW912:
                        8355 --line2528
                        8356 ..lin.D.3A.5CRenesas_Electronics.5CD1x_RGL.5Crgl_ghs_D1Lx_obj_V1.2E2.2E0.5Cvlib.5Capp.5Cgfx_apps.5Csimple_draw_d1l2.5Ctarget.5Cd1lx_mango_ghs.5Cobj.5Cr_sys_wm.375::
                        8357 .LDWlin375:
00001ae4 4006ff10       8358 	dispose	0,{r27,r28,r29,r31},[lp]
                        8359 	.type	_R_WM_Sys_ScreenTimingSetByName,@function
                        8360 	.size	_R_WM_Sys_ScreenTimingSetByName,.-_R_WM_Sys_ScreenTimingSetByName
                        8361 	.align	2
                        8362 .LDW022:
                        8363 --_timing	r28	local
                        8364 
                        8365 --_Unit	r27	param
                        8366 --_Name	r29	param
                        8367 
                        8368 	.section ".bss","awb"
                        8369 .L5552:
                        8370 	.type	.L5552,@object
                        8371 	.size	.L5552,0
                        8372 	.data
                        8373 	.text
                        8374 
                        8375 --2528: }
                        8376 
                        8377 --2531: uint32_t R_WM_Sys_DevEventRegister  (   uint32_t        Unit,
                        8378 	.align	2
                        8379 	.align	2
                        8380 	.global	_R_WM_Sys_DevEventRegister
                        8381 _R_WM_Sys_DevEventRegister:
00001ae8 8007e110       8382 	prepare	{r27,r28,r29,r31},0
00001aec 06e8           8383 	mov	r6,r29
00001aee 07e0           8384 	mov	r7,r28

                                                                      Page 145
                                                              C:\Users\YINGAO~1\AppData\Local\Temp\gh_000084c1.si
00001af0 08d8           8385 	mov	r8,r27
00001af2 210600000000*  8386 	mov	_loc_Isr,r1
                        8387 --	    .bf
                        8388 .LDW122:
                        8389 --2532:                                         r_wm_EventId_t  EventId,
                        8390 --2533:                                         uint32_t        Arg
                        8391 --2534:                                     )
                        8392 --2535: {
                        8393 --2536:     r_wm_DevSys[Unit].RegEvents |= (uint32_t)(1uL << EventId);
00001af8 1df0           8394 	mov	r29,ep
00001afa fe00           8395 	sxh	ep
00001afc fef66000       8396 	mulhi	96,ep,ep
00001b00 0172           8397 	mov	1,r14
00001b02 2c0600000000*  8398 	mov	_r_wm_DevSys,r12
00001b08 fc77c268       8399 	shl	r28,r14,r13
00001b0c ccf1           8400 	add	r12,ep
00001b0e 2675           8401 	sld.w	76[ep],r14
00001b10 0d71           8402 	or	r13,r14
00001b12 2775           8403 	sst.w	r14,76[ep]
                        8404 --2537:     if (EventId == R_WM_EVENT_SCANLINE)
00001b14 62e2           8405 	cmp	2,r28
00001b16 8a25*          8406 	bne	.L5578
                        8407 --2538:     {
                        8408 --2539:         if (R_VDCE_ERR_OK != R_VDCE_IntcCallbackSet(Unit, R_VDCE_INTC_SCANLINE, loc_Isr[Unit][R_WM_EVENT_SCANLINE]))
                        8409 --line2539
                        8410 ..lin.D.3A.5CRenesas_Electronics.5CD1x_RGL.5Crgl_ghs_D1Lx_obj_V1.2E2.2E0.5Cvlib.5Capp.5Cgfx_apps.5Csimple_draw_d1l2.5Ctarget.5Cd1lx_mango_ghs.5Cobj.5Cr_sys_wm.376::
                        8411 .LDWlin376:
00001b18 1d70           8412 	mov	r29,r14
00001b1a c472           8413 	shl	4,r14
00001b1c 3e0600000000*  8414 	mov	_loc_Isr+8,ep
00001b22 cef1           8415 	add	r14,ep
00001b24 1d30           8416 	mov	r29,r6
00001b26 0045           8417 	sld.w	0[ep],r8
00001b28 043a           8418 	mov	4,r7
                        8419 	jarl	_R_VDCE_IntcCallbackSet,lp
                        8419 <EXPANSION BEGIN>
                        8419 jarl22 _R_VDCE_IntcCallbackSet , lp 
00001b2a 80ff0000*      8419 <EXPANSION END>
00001b2e e051           8420 	cmp	zero,r10
00001b30 b205*          8421 	be	.L5580
                        8422 --2540:         {
                        8423 --2541:             return 0;
                        8424 --line2541
                        8425 ..lin.D.3A.5CRenesas_Electronics.5CD1x_RGL.5Crgl_ghs_D1Lx_obj_V1.2E2.2E0.5Cvlib.5Capp.5Cgfx_apps.5Csimple_draw_d1l2.5Ctarget.5Cd1lx_mango_ghs.5Cobj.5Cr_sys_wm.377::
                        8426 .LDWlin377:
00001b32 0052           8427 	mov	0,r10
00001b34 a515*          8428 	br	.L5576
                        8429 .L5580:
                        8430 --2542:         }
                        8431 --2543:         if (R_VDCE_ERR_OK != R_VDCE_IntcScanlineSet(Unit, Arg))
                        8432 --line2543
                        8433 ..lin.D.3A.5CRenesas_Electronics.5CD1x_RGL.5Crgl_ghs_D1Lx_obj_V1.2E2.2E0.5Cvlib.5Capp.5Cgfx_apps.5Csimple_draw_d1l2.5Ctarget.5Cd1lx_mango_ghs.5Cobj.5Cr_sys_wm.378::
                        8434 .LDWlin378:
00001b36 1d30           8435 	mov	r29,r6
00001b38 1b38           8436 	mov	r27,r7
                        8437 	jarl	_R_VDCE_IntcScanlineSet,lp
                        8437 <EXPANSION BEGIN>
                        8437 jarl22 _R_VDCE_IntcScanlineSet , lp 
00001b3a 80ff0000*      8437 <EXPANSION END>
00001b3e e051           8438 	cmp	zero,r10
00001b40 b205*          8439 	be	.L5583

                                                                      Page 146
                                                              C:\Users\YINGAO~1\AppData\Local\Temp\gh_000084c1.si
                        8440 --2544:         {
                        8441 --2545:             return 0;
                        8442 --line2545
                        8443 ..lin.D.3A.5CRenesas_Electronics.5CD1x_RGL.5Crgl_ghs_D1Lx_obj_V1.2E2.2E0.5Cvlib.5Capp.5Cgfx_apps.5Csimple_draw_d1l2.5Ctarget.5Cd1lx_mango_ghs.5Cobj.5Cr_sys_wm.379::
                        8444 .LDWlin379:
00001b42 0052           8445 	mov	0,r10
00001b44 a50d*          8446 	br	.L5576
                        8447 .L5583:
                        8448 --2546:         }
                        8449 --2547:         if (R_VDCE_ERR_OK != R_VDCE_IntcEnable(Unit, R_VDCE_INTC_SCANLINE))
                        8450 --line2547
                        8451 ..lin.D.3A.5CRenesas_Electronics.5CD1x_RGL.5Crgl_ghs_D1Lx_obj_V1.2E2.2E0.5Cvlib.5Capp.5Cgfx_apps.5Csimple_draw_d1l2.5Ctarget.5Cd1lx_mango_ghs.5Cobj.5Cr_sys_wm.380::
                        8452 .LDWlin380:
00001b46 1d30           8453 	mov	r29,r6
00001b48 043a           8454 	mov	4,r7
                        8455 	jarl	_R_VDCE_IntcEnable,lp
                        8455 <EXPANSION BEGIN>
                        8455 jarl22 _R_VDCE_IntcEnable , lp 
00001b4a 80ff0000*      8455 <EXPANSION END>
00001b4e e051           8456 	cmp	zero,r10
00001b50 b205*          8457 	be	.L5578
                        8458 --2548:         {
                        8459 --2549:             return 0;
                        8460 --line2549
                        8461 ..lin.D.3A.5CRenesas_Electronics.5CD1x_RGL.5Crgl_ghs_D1Lx_obj_V1.2E2.2E0.5Cvlib.5Capp.5Cgfx_apps.5Csimple_draw_d1l2.5Ctarget.5Cd1lx_mango_ghs.5Cobj.5Cr_sys_wm.381::
                        8462 .LDWlin381:
00001b52 0052           8463 	mov	0,r10
00001b54 a505*          8464 	br	.L5576
                        8465 .L5578:
                        8466 --2550:         }
                        8467 --2551:     }
                        8468 --2552:     return 1;
                        8469 --line2552
                        8470 ..lin.D.3A.5CRenesas_Electronics.5CD1x_RGL.5Crgl_ghs_D1Lx_obj_V1.2E2.2E0.5Cvlib.5Capp.5Cgfx_apps.5Csimple_draw_d1l2.5Ctarget.5Cd1lx_mango_ghs.5Cobj.5Cr_sys_wm.382::
                        8471 .LDWlin382:
00001b56 0152           8472 	mov	1,r10
                        8473 .L5576:
                        8474 --	    .ef
                        8475 .LDW222:
00001b58 4006ff10       8476 	dispose	0,{r27,r28,r29,r31},[lp]
                        8477 	.type	_R_WM_Sys_DevEventRegister,@function
                        8478 	.size	_R_WM_Sys_DevEventRegister,.-_R_WM_Sys_DevEventRegister
                        8479 	.align	2
                        8480 .LDW322:
                        8481 
                        8482 --_Unit	r29	param
                        8483 --_EventId	r28	param
                        8484 --_Arg	r27	param
                        8485 
                        8486 	.data
                        8487 	.text
                        8488 
                        8489 --2553: }
                        8490 
                        8491 --2555: /***********************************************************
                        8492 --2556:   Function: R_WM_Sys_ScreenTimingSet
                        8493 --2557: */
                        8494 --2559: uint32_t R_WM_Sys_ScreenTimingSet(uint32_t Unit, r_ddb_Timing_t *timing)
                        8495 	.align	2
                        8496 	.align	2
                        8497 	.global	_R_WM_Sys_ScreenTimingSet

                                                                      Page 147
                                                              C:\Users\YINGAO~1\AppData\Local\Temp\gh_000084c1.si
                        8498 _R_WM_Sys_ScreenTimingSet:
00001b5c 8007e130       8499 	prepare	{r26,r27,r28,r29,r31},0
00001b60 3d0600000000*  8500 	mov	_loc_Isr,r29
00001b66 06e0           8501 	mov	r6,r28
00001b68 07d8           8502 	mov	r7,r27
00001b6a 1dd0           8503 	mov	r29,r26
                        8504 --	    .bf
                        8505 .LDW422:
                        8506 --2560: {
                        8507 --2561:     if (timing == 0)
00001b6c e0d9           8508 	cmp	zero,r27
00001b6e ba05*          8509 	bne	.L5661
                        8510 --2562:     {
                        8511 --2563:         R_WM_SYS_REPORT_ERROR(Unit, R_WM_ERR_PARAM_INCORRECT, 0);
                        8512 --2564:         return 0;
                        8513 --line2564
                        8514 ..lin.D.3A.5CRenesas_Electronics.5CD1x_RGL.5Crgl_ghs_D1Lx_obj_V1.2E2.2E0.5Cvlib.5Capp.5Cgfx_apps.5Csimple_draw_d1l2.5Ctarget.5Cd1lx_mango_ghs.5Cobj.5Cr_sys_wm.383::
                        8515 .LDWlin383:
00001b70 0052           8516 	mov	0,r10
00001b72 f55d*          8517 	br	.L5659
                        8518 .L5661:
                        8519 --2565:     }
                        8520 --2567:     if(R_VDCE_ERR_OK != R_VDCE_DisplayTimingSet(Unit, timing))
                        8521 --line2567
                        8522 ..lin.D.3A.5CRenesas_Electronics.5CD1x_RGL.5Crgl_ghs_D1Lx_obj_V1.2E2.2E0.5Cvlib.5Capp.5Cgfx_apps.5Csimple_draw_d1l2.5Ctarget.5Cd1lx_mango_ghs.5Cobj.5Cr_sys_wm.384::
                        8523 .LDWlin384:
00001b74 1c30           8524 	mov	r28,r6
00001b76 1b38           8525 	mov	r27,r7
                        8526 	jarl	_R_VDCE_DisplayTimingSet,lp
                        8526 <EXPANSION BEGIN>
                        8526 jarl22 _R_VDCE_DisplayTimingSet , lp 
00001b78 80ff0000*      8526 <EXPANSION END>
00001b7c e051           8527 	cmp	zero,r10
00001b7e b205*          8528 	be	.L5664
                        8529 --2568:     {
                        8530 --2569: 	    return 0;
                        8531 --line2569
                        8532 ..lin.D.3A.5CRenesas_Electronics.5CD1x_RGL.5Crgl_ghs_D1Lx_obj_V1.2E2.2E0.5Cvlib.5Capp.5Cgfx_apps.5Csimple_draw_d1l2.5Ctarget.5Cd1lx_mango_ghs.5Cobj.5Cr_sys_wm.385::
                        8533 .LDWlin385:
00001b80 0052           8534 	mov	0,r10
00001b82 f555*          8535 	br	.L5659
                        8536 .L5664:
                        8537 --2570: 	}
                        8538 --2571:     /* set the interrupt service routines */
                        8539 --2572:     /* SCANLINE interrupt */
                        8540 --2573:     if (R_VDCE_ERR_OK != R_VDCE_IntcCallbackSet(Unit, R_VDCE_INTC_SCANLINE, loc_Isr[Unit][R_WM_EVENT_SCANLINE]))
                        8541 --line2573
                        8542 ..lin.D.3A.5CRenesas_Electronics.5CD1x_RGL.5Crgl_ghs_D1Lx_obj_V1.2E2.2E0.5Cvlib.5Capp.5Cgfx_apps.5Csimple_draw_d1l2.5Ctarget.5Cd1lx_mango_ghs.5Cobj.5Cr_sys_wm.386::
                        8543 .LDWlin386:
00001b84 1c08           8544 	mov	r28,r1
00001b86 1af60800       8545 	addi	8,r26,ep
00001b8a c40a           8546 	shl	4,r1
00001b8c 1c30           8547 	mov	r28,r6
00001b8e c1f1           8548 	add	r1,ep
00001b90 043a           8549 	mov	4,r7
00001b92 0045           8550 	sld.w	0[ep],r8
                        8551 	jarl	_R_VDCE_IntcCallbackSet,lp
                        8551 <EXPANSION BEGIN>
                        8551 jarl22 _R_VDCE_IntcCallbackSet , lp 
00001b94 80ff0000*      8551 <EXPANSION END>
00001b98 e051           8552 	cmp	zero,r10

                                                                      Page 148
                                                              C:\Users\YINGAO~1\AppData\Local\Temp\gh_000084c1.si
00001b9a b205*          8553 	be	.L5667
                        8554 --2574:     {
                        8555 --2575:         return 0;
                        8556 --line2575
                        8557 ..lin.D.3A.5CRenesas_Electronics.5CD1x_RGL.5Crgl_ghs_D1Lx_obj_V1.2E2.2E0.5Cvlib.5Capp.5Cgfx_apps.5Csimple_draw_d1l2.5Ctarget.5Cd1lx_mango_ghs.5Cobj.5Cr_sys_wm.387::
                        8558 .LDWlin387:
00001b9c 0052           8559 	mov	0,r10
00001b9e 954d*          8560 	br	.L5659
                        8561 .L5667:
                        8562 --2576:     }
                        8563 --2578:     if (timing->ScreenHeight > 240)
                        8564 --line2578
                        8565 ..lin.D.3A.5CRenesas_Electronics.5CD1x_RGL.5Crgl_ghs_D1Lx_obj_V1.2E2.2E0.5Cvlib.5Capp.5Cgfx_apps.5Csimple_draw_d1l2.5Ctarget.5Cd1lx_mango_ghs.5Cobj.5Cr_sys_wm.388::
                        8566 .LDWlin388:
00001ba0 3b0f0900       8567 	ld.w	8[r27],r1
00001ba4 010610ff       8568 	addi	-240,r1,zero
00001ba8 c70d*          8569 	ble	.L5670
                        8570 --2579:     {
                        8571 --2580:         if (R_VDCE_ERR_OK != R_VDCE_IntcScanlineSet(Unit, timing->ScreenHeight-50))
                        8572 --line2580
                        8573 ..lin.D.3A.5CRenesas_Electronics.5CD1x_RGL.5Crgl_ghs_D1Lx_obj_V1.2E2.2E0.5Cvlib.5Capp.5Cgfx_apps.5Csimple_draw_d1l2.5Ctarget.5Cd1lx_mango_ghs.5Cobj.5Cr_sys_wm.389::
                        8574 .LDWlin389:
00001baa 3b0f0900       8575 	ld.w	8[r27],r1
00001bae 1c30           8576 	mov	r28,r6
00001bb0 013eceff       8577 	addi	-50,r1,r7
                        8578 	jarl	_R_VDCE_IntcScanlineSet,lp
                        8578 <EXPANSION BEGIN>
                        8578 jarl22 _R_VDCE_IntcScanlineSet , lp 
00001bb4 80ff0000*      8578 <EXPANSION END>
00001bb8 e051           8579 	cmp	zero,r10
00001bba 8215*          8580 	be	.L5675
                        8581 --2581:         {
                        8582 --2582:             return 0;
                        8583 --line2582
                        8584 ..lin.D.3A.5CRenesas_Electronics.5CD1x_RGL.5Crgl_ghs_D1Lx_obj_V1.2E2.2E0.5Cvlib.5Capp.5Cgfx_apps.5Csimple_draw_d1l2.5Ctarget.5Cd1lx_mango_ghs.5Cobj.5Cr_sys_wm.390::
                        8585 .LDWlin390:
00001bbc 0052           8586 	mov	0,r10
00001bbe 953d*          8587 	br	.L5659
                        8588 .L5670:
                        8589 --2583:         }
                        8590 --2584:     }
                        8591 --2585:     else
                        8592 --2586:     {
                        8593 --2587:         if (R_VDCE_ERR_OK != R_VDCE_IntcScanlineSet(Unit, timing->ScreenHeight/10))
                        8594 --line2587
                        8595 ..lin.D.3A.5CRenesas_Electronics.5CD1x_RGL.5Crgl_ghs_D1Lx_obj_V1.2E2.2E0.5Cvlib.5Capp.5Cgfx_apps.5Csimple_draw_d1l2.5Ctarget.5Cd1lx_mango_ghs.5Cobj.5Cr_sys_wm.391::
                        8596 .LDWlin391:
00001bc0 3b0f0900       8597 	ld.w	8[r27],r1
00001bc4 0a72           8598 	mov	10,r14
00001bc6 1c30           8599 	mov	r28,r6
00001bc8 ee0ffc02       8600 	divq	r14,r1,zero
00001bcc 0138           8601 	mov	r1,r7
                        8602 	jarl	_R_VDCE_IntcScanlineSet,lp
                        8602 <EXPANSION BEGIN>
                        8602 jarl22 _R_VDCE_IntcScanlineSet , lp 
00001bce 80ff0000*      8602 <EXPANSION END>
00001bd2 e051           8603 	cmp	zero,r10
00001bd4 b205*          8604 	be	.L5675
                        8605 --2588:         {
                        8606 --2589:             return 0;
                        8607 --line2589

                                                                      Page 149
                                                              C:\Users\YINGAO~1\AppData\Local\Temp\gh_000084c1.si
                        8608 ..lin.D.3A.5CRenesas_Electronics.5CD1x_RGL.5Crgl_ghs_D1Lx_obj_V1.2E2.2E0.5Cvlib.5Capp.5Cgfx_apps.5Csimple_draw_d1l2.5Ctarget.5Cd1lx_mango_ghs.5Cobj.5Cr_sys_wm.392::
                        8609 .LDWlin392:
00001bd6 0052           8610 	mov	0,r10
00001bd8 c52d*          8611 	br	.L5659
                        8612 .L5675:
                        8613 --2590:         }
                        8614 --2591:     }
                        8615 --2592:     if (R_VDCE_ERR_OK != R_VDCE_IntcEnable(Unit, R_VDCE_INTC_SCANLINE))
                        8616 --line2592
                        8617 ..lin.D.3A.5CRenesas_Electronics.5CD1x_RGL.5Crgl_ghs_D1Lx_obj_V1.2E2.2E0.5Cvlib.5Capp.5Cgfx_apps.5Csimple_draw_d1l2.5Ctarget.5Cd1lx_mango_ghs.5Cobj.5Cr_sys_wm.393::
                        8618 .LDWlin393:
00001bda 1c30           8619 	mov	r28,r6
00001bdc 043a           8620 	mov	4,r7
                        8621 	jarl	_R_VDCE_IntcEnable,lp
                        8621 <EXPANSION BEGIN>
                        8621 jarl22 _R_VDCE_IntcEnable , lp 
00001bde 80ff0000*      8621 <EXPANSION END>
00001be2 e051           8622 	cmp	zero,r10
00001be4 b205*          8623 	be	.L5679
                        8624 --2593:     {
                        8625 --2594:         return 0;
                        8626 --line2594
                        8627 ..lin.D.3A.5CRenesas_Electronics.5CD1x_RGL.5Crgl_ghs_D1Lx_obj_V1.2E2.2E0.5Cvlib.5Capp.5Cgfx_apps.5Csimple_draw_d1l2.5Ctarget.5Cd1lx_mango_ghs.5Cobj.5Cr_sys_wm.394::
                        8628 .LDWlin394:
00001be6 0052           8629 	mov	0,r10
00001be8 c525*          8630 	br	.L5659
                        8631 .L5679:
                        8632 --2595:     }
                        8633 --2597:     /* VBLANK interrupt */
                        8634 --2598:     if (R_VDCE_ERR_OK != R_VDCE_IntcCallbackSet(Unit, R_VDCE_INTC_VBLANK, loc_Isr[Unit][R_WM_EVENT_VBLANK]))
                        8635 --line2598
                        8636 ..lin.D.3A.5CRenesas_Electronics.5CD1x_RGL.5Crgl_ghs_D1Lx_obj_V1.2E2.2E0.5Cvlib.5Capp.5Cgfx_apps.5Csimple_draw_d1l2.5Ctarget.5Cd1lx_mango_ghs.5Cobj.5Cr_sys_wm.395::
                        8637 .LDWlin395:
00001bea 1c08           8638 	mov	r28,r1
00001bec 1af60400       8639 	addi	4,r26,ep
00001bf0 c40a           8640 	shl	4,r1
00001bf2 1c30           8641 	mov	r28,r6
00001bf4 c1f1           8642 	add	r1,ep
00001bf6 013a           8643 	mov	1,r7
00001bf8 0045           8644 	sld.w	0[ep],r8
                        8645 	jarl	_R_VDCE_IntcCallbackSet,lp
                        8645 <EXPANSION BEGIN>
                        8645 jarl22 _R_VDCE_IntcCallbackSet , lp 
00001bfa 80ff0000*      8645 <EXPANSION END>
00001bfe e051           8646 	cmp	zero,r10
00001c00 b205*          8647 	be	.L5682
                        8648 --2599:     {
                        8649 --2600:         return 0;
                        8650 --line2600
                        8651 ..lin.D.3A.5CRenesas_Electronics.5CD1x_RGL.5Crgl_ghs_D1Lx_obj_V1.2E2.2E0.5Cvlib.5Capp.5Cgfx_apps.5Csimple_draw_d1l2.5Ctarget.5Cd1lx_mango_ghs.5Cobj.5Cr_sys_wm.396::
                        8652 .LDWlin396:
00001c02 0052           8653 	mov	0,r10
00001c04 e515*          8654 	br	.L5659
                        8655 .L5682:
                        8656 --2601:     }
                        8657 --2602:     if (R_VDCE_ERR_OK != R_VDCE_IntcEnable(Unit, R_VDCE_INTC_VBLANK))
                        8658 --line2602
                        8659 ..lin.D.3A.5CRenesas_Electronics.5CD1x_RGL.5Crgl_ghs_D1Lx_obj_V1.2E2.2E0.5Cvlib.5Capp.5Cgfx_apps.5Csimple_draw_d1l2.5Ctarget.5Cd1lx_mango_ghs.5Cobj.5Cr_sys_wm.397::
                        8660 .LDWlin397:
00001c06 1c30           8661 	mov	r28,r6
00001c08 013a           8662 	mov	1,r7

                                                                      Page 150
                                                              C:\Users\YINGAO~1\AppData\Local\Temp\gh_000084c1.si
                        8663 	jarl	_R_VDCE_IntcEnable,lp
                        8663 <EXPANSION BEGIN>
                        8663 jarl22 _R_VDCE_IntcEnable , lp 
00001c0a 80ff0000*      8663 <EXPANSION END>
00001c0e e051           8664 	cmp	zero,r10
00001c10 b205*          8665 	be	.L5685
                        8666 --2603:     {
                        8667 --2604:         return 0;
                        8668 --line2604
                        8669 ..lin.D.3A.5CRenesas_Electronics.5CD1x_RGL.5Crgl_ghs_D1Lx_obj_V1.2E2.2E0.5Cvlib.5Capp.5Cgfx_apps.5Csimple_draw_d1l2.5Ctarget.5Cd1lx_mango_ghs.5Cobj.5Cr_sys_wm.398::
                        8670 .LDWlin398:
00001c12 0052           8671 	mov	0,r10
00001c14 e50d*          8672 	br	.L5659
                        8673 .L5685:
                        8674 --2605:     }
                        8675 --2606:     
                        8676 --2607:     r_wm_DevSys[Unit].HorizontalMoveReserve = timing->H.BlankWidth - 16;
                        8677 --line2607
                        8678 ..lin.D.3A.5CRenesas_Electronics.5CD1x_RGL.5Crgl_ghs_D1Lx_obj_V1.2E2.2E0.5Cvlib.5Capp.5Cgfx_apps.5Csimple_draw_d1l2.5Ctarget.5Cd1lx_mango_ghs.5Cobj.5Cr_sys_wm.399::
                        8679 .LDWlin399:
00001c16 1cf0           8680 	mov	r28,ep
00001c18 fe00           8681 	sxh	ep
00001c1a fef66000       8682 	mulhi	96,ep,ep
00001c1e 3b0f1100       8683 	ld.w	16[r27],r1
00001c22 2e0600000000*  8684 	mov	_r_wm_DevSys,r14
00001c28 cef1           8685 	add	r14,ep
00001c2a 500a           8686 	add	-16,r1
00001c2c 2f0d           8687 	sst.w	r1,92[ep]
                        8688 --2609:     return 1;
00001c2e 0152           8689 	mov	1,r10
                        8690 .L5659:
                        8691 --	    .ef
                        8692 .LDW522:
00001c30 4006ff30       8693 	dispose	0,{r26,r27,r28,r29,r31},[lp]
                        8694 	.type	_R_WM_Sys_ScreenTimingSet,@function
                        8695 	.size	_R_WM_Sys_ScreenTimingSet,.-_R_WM_Sys_ScreenTimingSet
                        8696 	.align	2
                        8697 .LDW622:
                        8698 
                        8699 --_Unit	r28	param
                        8700 --_timing	r27	param
                        8701 
                        8702 	.data
                        8703 	.text
                        8704 
                        8705 --2610: }
                        8706 
                        8707 --2613: /***********************************************************
                        8708 --2614:   Function: R_WM_Sys_ScreenColorFormatSet
                        8709 --2615: */
                        8710 --2617: uint32_t R_WM_Sys_ScreenColorFormatSet  (   uint32_t            Unit,
                        8711 	.align	2
                        8712 	.align	2
                        8713 	.global	_R_WM_Sys_ScreenColorFormatSet
                        8714 _R_WM_Sys_ScreenColorFormatSet:
00001c34 8407e170       8715 	prepare	{r25,r26,r27,r28,r29,r31},2
00001c38 63370100       8716 	st.w	r6,0[sp]
00001c3c 633f0500       8717 	st.w	r7,4[sp]
                        8718 --	    .bf
                        8719 .LDW722:
                        8720 --2618:                                                 r_wm_OutColorFmt_t  OutFmt

                                                                      Page 151
                                                              C:\Users\YINGAO~1\AppData\Local\Temp\gh_000084c1.si
                        8721 --2619:                                             )
                        8722 --2620: {
                        8723 --2621:     uint32_t  Format = ((uint32_t)OutFmt&(~(uint32_t)R_WM_OUTCOLORFMT_FLAG_MASK));
00001c40 23cf0500       8724 	ld.w	4[sp],r25
00001c44 2106ffffff9f   8725 	mov	-1610612737,r1
00001c4a 41c9           8726 	and	r1,r25
                        8727 --2622:     uint32_t  Flags  = ((uint32_t)OutFmt&( (uint32_t)R_WM_OUTCOLORFMT_FLAG_MASK));
00001c4c 23ef0500       8728 	ld.w	4[sp],r29
00001c50 400e0060       8729 	movhi	hi(1610612736),zero,r1
00001c54 41e9           8730 	and	r1,r29
                        8731 --2624:     r_vdce_OutEndian_t  VdceOutEndian = R_VDCE_OUT_ENDIAN_LAST;
00001c56 02da           8732 	mov	2,r27
                        8733 --2625:     r_vdce_OutFormat_t  VdceOutFormat = R_VDCE_OUT_FORMAT_LAST;
00001c58 03e2           8734 	mov	3,r28
                        8735 --2626:     r_vdce_OutSwap_t    VdceOutSwap   = R_VDCE_OUT_SWAP_BR_LAST;
00001c5a 02d2           8736 	mov	2,r26
                        8737 --2628:     /* Parse flags endian */
                        8738 --2629:     if (0 == ( Flags & (uint32_t)R_WM_OUTCOLORFMT_FLAG_ENDIAN ) )
00001c5c 1d08           8739 	mov	r29,r1
00001c5e 9f0a           8740 	shr	31,r1
00001c60 b105*          8741 	bl	.L5807
                        8742 --2630:     {
                        8743 --2631:         /* Default value when flag is not set. */
                        8744 --2632:         VdceOutEndian = R_VDCE_OUT_ENDIAN_LITTLE;
                        8745 --line2632
                        8746 ..lin.D.3A.5CRenesas_Electronics.5CD1x_RGL.5Crgl_ghs_D1Lx_obj_V1.2E2.2E0.5Cvlib.5Capp.5Cgfx_apps.5Csimple_draw_d1l2.5Ctarget.5Cd1lx_mango_ghs.5Cobj.5Cr_sys_wm.400::
                        8747 .LDWlin400:
00001c62 00da           8748 	mov	0,r27
00001c64 e505*          8749 	br	.L5809
                        8750 .L5807:
                        8751 --2633:     }
                        8752 --2634:     else
                        8753 --2635:     {
                        8754 --2636:         VdceOutEndian = R_VDCE_OUT_ENDIAN_BIG;
                        8755 --line2636
                        8756 ..lin.D.3A.5CRenesas_Electronics.5CD1x_RGL.5Crgl_ghs_D1Lx_obj_V1.2E2.2E0.5Cvlib.5Capp.5Cgfx_apps.5Csimple_draw_d1l2.5Ctarget.5Cd1lx_mango_ghs.5Cobj.5Cr_sys_wm.401::
                        8757 .LDWlin401:
00001c66 01da           8758 	mov	1,r27
                        8759 --2638:         /* Remove parsed flag */
                        8760 --2639:         Flags = Flags & ~(uint32_t)R_WM_OUTCOLORFMT_FLAG_ENDIAN;
00001c68 2106ffffffbf   8761 	mov	-1073741825,r1
00001c6e 41e9           8762 	and	r1,r29
                        8763 .L5809:
                        8764 --2640:     }
                        8765 --2642:     /* Parse flags SWAP */
                        8766 --2643:     if (0 == ( Flags & (uint32_t)R_WM_OUTCOLORFMT_FLAG_SWAP_BR ) )
00001c70 1d08           8767 	mov	r29,r1
00001c72 9e0a           8768 	shr	30,r1
00001c74 b105*          8769 	bl	.L5810
                        8770 --2644:     {
                        8771 --2645:         /* Default value when flag is not set. */
                        8772 --2646:         VdceOutSwap = R_VDCE_OUT_SWAP_BR_OFF;
                        8773 --line2646
                        8774 ..lin.D.3A.5CRenesas_Electronics.5CD1x_RGL.5Crgl_ghs_D1Lx_obj_V1.2E2.2E0.5Cvlib.5Capp.5Cgfx_apps.5Csimple_draw_d1l2.5Ctarget.5Cd1lx_mango_ghs.5Cobj.5Cr_sys_wm.402::
                        8775 .LDWlin402:
00001c76 00d2           8776 	mov	0,r26
00001c78 e505*          8777 	br	.L5812
                        8778 .L5810:
                        8779 --2647:     }
                        8780 --2648:     else
                        8781 --2649:     {

                                                                      Page 152
                                                              C:\Users\YINGAO~1\AppData\Local\Temp\gh_000084c1.si
                        8782 --2650:         VdceOutSwap = R_VDCE_OUT_SWAP_BR_ON;
                        8783 --line2650
                        8784 ..lin.D.3A.5CRenesas_Electronics.5CD1x_RGL.5Crgl_ghs_D1Lx_obj_V1.2E2.2E0.5Cvlib.5Capp.5Cgfx_apps.5Csimple_draw_d1l2.5Ctarget.5Cd1lx_mango_ghs.5Cobj.5Cr_sys_wm.403::
                        8785 .LDWlin403:
00001c7a 01d2           8786 	mov	1,r26
                        8787 --2652:         /* Remove parsed flag */
                        8788 --2653:         Flags = Flags & ~(uint32_t)R_WM_OUTCOLORFMT_FLAG_SWAP_BR;
00001c7c 2106ffffffdf   8789 	mov	-536870913,r1
00001c82 41e9           8790 	and	r1,r29
                        8791 .L5812:
                        8792 --2654:     }
                        8793 --2656:     /* Parse color formats */
                        8794 --2657:     switch(Format)
00001c84 1908           8795 	mov	r25,r1
00001c86 610a           8796 	cmp	1,r1
00001c88 d105*          8797 	bl	.L5815
00001c8a e205*          8798 	be	.L5816
00001c8c 620a           8799 	cmp	2,r1
00001c8e 8a0d*          8800 	bne	.L5818
00001c90 d505*          8801 	br	.L5817
                        8802 .L5815:
                        8803 --2658:     {
                        8804 --2659:         case R_WM_OUTCOLORFMT_RGB888:
                        8805 --2660:             VdceOutFormat = R_VDCE_OUT_FORMAT_RGB888;
                        8806 --line2660
                        8807 ..lin.D.3A.5CRenesas_Electronics.5CD1x_RGL.5Crgl_ghs_D1Lx_obj_V1.2E2.2E0.5Cvlib.5Capp.5Cgfx_apps.5Csimple_draw_d1l2.5Ctarget.5Cd1lx_mango_ghs.5Cobj.5Cr_sys_wm.404::
                        8808 .LDWlin404:
00001c92 00e2           8809 	mov	0,r28
00001c94 f505*          8810 	br	.L5813
                        8811 .L5816:
                        8812 --2661:             break;
                        8813 --2662:         case R_WM_OUTCOLORFMT_RGB666:
                        8814 --2663:             VdceOutFormat = R_VDCE_OUT_FORMAT_RGB666;
                        8815 --line2663
                        8816 ..lin.D.3A.5CRenesas_Electronics.5CD1x_RGL.5Crgl_ghs_D1Lx_obj_V1.2E2.2E0.5Cvlib.5Capp.5Cgfx_apps.5Csimple_draw_d1l2.5Ctarget.5Cd1lx_mango_ghs.5Cobj.5Cr_sys_wm.405::
                        8817 .LDWlin405:
00001c96 01e2           8818 	mov	1,r28
00001c98 d505*          8819 	br	.L5813
                        8820 .L5817:
                        8821 --2664:             break;
                        8822 --2665:         case R_WM_OUTCOLORFMT_RGB565:
                        8823 --2666:             VdceOutFormat = R_VDCE_OUT_FORMAT_RGB565;
                        8824 --line2666
                        8825 ..lin.D.3A.5CRenesas_Electronics.5CD1x_RGL.5Crgl_ghs_D1Lx_obj_V1.2E2.2E0.5Cvlib.5Capp.5Cgfx_apps.5Csimple_draw_d1l2.5Ctarget.5Cd1lx_mango_ghs.5Cobj.5Cr_sys_wm.406::
                        8826 .LDWlin406:
00001c9a 02e2           8827 	mov	2,r28
00001c9c b505*          8828 	br	.L5813
                        8829 .L5818:
                        8830 --2667:             break;
                        8831 --2668:         default:
                        8832 --2669:             VdceOutFormat = R_VDCE_OUT_FORMAT_LAST;
                        8833 --line2669
                        8834 ..lin.D.3A.5CRenesas_Electronics.5CD1x_RGL.5Crgl_ghs_D1Lx_obj_V1.2E2.2E0.5Cvlib.5Capp.5Cgfx_apps.5Csimple_draw_d1l2.5Ctarget.5Cd1lx_mango_ghs.5Cobj.5Cr_sys_wm.407::
                        8835 .LDWlin407:
00001c9e 03e2           8836 	mov	3,r28
00001ca0 0000           8837 	nop
                        8838 .L5813:
                        8839 --2670:             break;
                        8840 --2671:     }
                        8841 --2672:     
                        8842 --2673:     /* Check if we could assign valid values */

                                                                      Page 153
                                                              C:\Users\YINGAO~1\AppData\Local\Temp\gh_000084c1.si
                        8843 --2674:     if ( (0 != Flags) || (R_VDCE_OUT_ENDIAN_LAST == VdceOutEndian) ||
00001ca2 e0e9           8844 	cmp	zero,r29
00001ca4 da05*          8845 	bne	.L5820
00001ca6 62da           8846 	cmp	2,r27
00001ca8 b205*          8847 	be	.L5820
00001caa 62d2           8848 	cmp	2,r26
00001cac ba05*          8849 	bne	.L5819
                        8850 .L5820:
                        8851 --2675:                          (R_VDCE_OUT_SWAP_BR_LAST == VdceOutSwap))
                        8852 --2676:     {
                        8853 --2677:         /* Unsupported flags */
                        8854 --2678:         R_WM_SYS_REPORT_ERROR(Unit, R_WM_ERR_DISPLAY_OUTPUT_FORMAT_SET, 0);
                        8855 --2679:         return 0; /* R_WM_ERR_DISPLAY_OUTPUT_FORMAT_SET */
                        8856 --line2679
                        8857 ..lin.D.3A.5CRenesas_Electronics.5CD1x_RGL.5Crgl_ghs_D1Lx_obj_V1.2E2.2E0.5Cvlib.5Capp.5Cgfx_apps.5Csimple_draw_d1l2.5Ctarget.5Cd1lx_mango_ghs.5Cobj.5Cr_sys_wm.408::
                        8858 .LDWlin408:
00001cae 0052           8859 	mov	0,r10
00001cb0 9525*          8860 	br	.L5805
                        8861 .L5819:
                        8862 --2680:     }
                        8863 --2682:     if (R_VDCE_OUT_FORMAT_LAST == VdceOutFormat)
                        8864 --line2682
                        8865 ..lin.D.3A.5CRenesas_Electronics.5CD1x_RGL.5Crgl_ghs_D1Lx_obj_V1.2E2.2E0.5Cvlib.5Capp.5Cgfx_apps.5Csimple_draw_d1l2.5Ctarget.5Cd1lx_mango_ghs.5Cobj.5Cr_sys_wm.409::
                        8866 .LDWlin409:
00001cb2 63e2           8867 	cmp	3,r28
00001cb4 ba05*          8868 	bne	.L5824
                        8869 --2683:     {
                        8870 --2684:         /* Unsupported color format */
                        8871 --2685:         R_WM_SYS_REPORT_ERROR(Unit, R_WM_ERR_DISPLAY_OUTPUT_FORMAT_SET, 0);
                        8872 --2686:         return 0; /* R_WM_ERR_DISPLAY_OUTPUT_FORMAT_SET */
                        8873 --line2686
                        8874 ..lin.D.3A.5CRenesas_Electronics.5CD1x_RGL.5Crgl_ghs_D1Lx_obj_V1.2E2.2E0.5Cvlib.5Capp.5Cgfx_apps.5Csimple_draw_d1l2.5Ctarget.5Cd1lx_mango_ghs.5Cobj.5Cr_sys_wm.410::
                        8875 .LDWlin410:
00001cb6 0052           8876 	mov	0,r10
00001cb8 d51d*          8877 	br	.L5805
                        8878 .L5824:
                        8879 --2687:     }
                        8880 --2688:     
                        8881 --2689:     
                        8882 --2690:     
                        8883 --2691:     /* Configure VDCE */
                        8884 --2692:     if(R_VDCE_ERR_OK != R_VDCE_DisplayOutEndianSet(Unit, VdceOutEndian))
                        8885 --line2692
                        8886 ..lin.D.3A.5CRenesas_Electronics.5CD1x_RGL.5Crgl_ghs_D1Lx_obj_V1.2E2.2E0.5Cvlib.5Capp.5Cgfx_apps.5Csimple_draw_d1l2.5Ctarget.5Cd1lx_mango_ghs.5Cobj.5Cr_sys_wm.411::
                        8887 .LDWlin411:
00001cba 23370100       8888 	ld.w	0[sp],r6
00001cbe 1b38           8889 	mov	r27,r7
                        8890 	jarl	_R_VDCE_DisplayOutEndianSet,lp
                        8890 <EXPANSION BEGIN>
                        8890 jarl22 _R_VDCE_DisplayOutEndianSet , lp 
00001cc0 80ff0000*      8890 <EXPANSION END>
00001cc4 e051           8891 	cmp	zero,r10
00001cc6 b205*          8892 	be	.L5827
                        8893 --2693:     {
                        8894 --2694:         return 0;
                        8895 --line2694
                        8896 ..lin.D.3A.5CRenesas_Electronics.5CD1x_RGL.5Crgl_ghs_D1Lx_obj_V1.2E2.2E0.5Cvlib.5Capp.5Cgfx_apps.5Csimple_draw_d1l2.5Ctarget.5Cd1lx_mango_ghs.5Cobj.5Cr_sys_wm.412::
                        8897 .LDWlin412:
00001cc8 0052           8898 	mov	0,r10
00001cca c515*          8899 	br	.L5805
                        8900 .L5827:

                                                                      Page 154
                                                              C:\Users\YINGAO~1\AppData\Local\Temp\gh_000084c1.si
                        8901 --2695:     }
                        8902 --2697:     if(R_VDCE_ERR_OK != R_VDCE_DisplayOutSwapBR(Unit, VdceOutSwap))
                        8903 --line2697
                        8904 ..lin.D.3A.5CRenesas_Electronics.5CD1x_RGL.5Crgl_ghs_D1Lx_obj_V1.2E2.2E0.5Cvlib.5Capp.5Cgfx_apps.5Csimple_draw_d1l2.5Ctarget.5Cd1lx_mango_ghs.5Cobj.5Cr_sys_wm.413::
                        8905 .LDWlin413:
00001ccc 23370100       8906 	ld.w	0[sp],r6
00001cd0 1a38           8907 	mov	r26,r7
                        8908 	jarl	_R_VDCE_DisplayOutSwapBR,lp
                        8908 <EXPANSION BEGIN>
                        8908 jarl22 _R_VDCE_DisplayOutSwapBR , lp 
00001cd2 80ff0000*      8908 <EXPANSION END>
00001cd6 e051           8909 	cmp	zero,r10
00001cd8 b205*          8910 	be	.L5830
                        8911 --2698:     {
                        8912 --2699:         return 0;
                        8913 --line2699
                        8914 ..lin.D.3A.5CRenesas_Electronics.5CD1x_RGL.5Crgl_ghs_D1Lx_obj_V1.2E2.2E0.5Cvlib.5Capp.5Cgfx_apps.5Csimple_draw_d1l2.5Ctarget.5Cd1lx_mango_ghs.5Cobj.5Cr_sys_wm.414::
                        8915 .LDWlin414:
00001cda 0052           8916 	mov	0,r10
00001cdc b50d*          8917 	br	.L5805
                        8918 .L5830:
                        8919 --2700:     }
                        8920 --2702:     if(R_VDCE_ERR_OK != R_VDCE_DisplayOutFormatSet(Unit, VdceOutFormat))
                        8921 --line2702
                        8922 ..lin.D.3A.5CRenesas_Electronics.5CD1x_RGL.5Crgl_ghs_D1Lx_obj_V1.2E2.2E0.5Cvlib.5Capp.5Cgfx_apps.5Csimple_draw_d1l2.5Ctarget.5Cd1lx_mango_ghs.5Cobj.5Cr_sys_wm.415::
                        8923 .LDWlin415:
00001cde 23370100       8924 	ld.w	0[sp],r6
00001ce2 1c38           8925 	mov	r28,r7
                        8926 	jarl	_R_VDCE_DisplayOutFormatSet,lp
                        8926 <EXPANSION BEGIN>
                        8926 jarl22 _R_VDCE_DisplayOutFormatSet , lp 
00001ce4 80ff0000*      8926 <EXPANSION END>
00001ce8 e051           8927 	cmp	zero,r10
00001cea b205*          8928 	be	.L5833
                        8929 --2703:     {
                        8930 --2704:         return 0;
                        8931 --line2704
                        8932 ..lin.D.3A.5CRenesas_Electronics.5CD1x_RGL.5Crgl_ghs_D1Lx_obj_V1.2E2.2E0.5Cvlib.5Capp.5Cgfx_apps.5Csimple_draw_d1l2.5Ctarget.5Cd1lx_mango_ghs.5Cobj.5Cr_sys_wm.416::
                        8933 .LDWlin416:
00001cec 0052           8934 	mov	0,r10
00001cee a505*          8935 	br	.L5805
                        8936 .L5833:
                        8937 --2705:     }
                        8938 --2707:     return 1;
                        8939 --line2707
                        8940 ..lin.D.3A.5CRenesas_Electronics.5CD1x_RGL.5Crgl_ghs_D1Lx_obj_V1.2E2.2E0.5Cvlib.5Capp.5Cgfx_apps.5Csimple_draw_d1l2.5Ctarget.5Cd1lx_mango_ghs.5Cobj.5Cr_sys_wm.417::
                        8941 .LDWlin417:
00001cf0 0152           8942 	mov	1,r10
                        8943 .L5805:
                        8944 --	    .ef
                        8945 .LDW822:
00001cf2 4406ff70       8946 	dispose	2,{r25,r26,r27,r28,r29,r31},[lp]
                        8947 	.type	_R_WM_Sys_ScreenColorFormatSet,@function
                        8948 	.size	_R_WM_Sys_ScreenColorFormatSet,.-_R_WM_Sys_ScreenColorFormatSet
                        8949 	.align	2
                        8950 .LDW922:
                        8951 --_Format	r25	local
                        8952 --_Flags	r29	local
                        8953 --_VdceOutEndian	r27	local
                        8954 --_VdceOutFormat	r28	local
                        8955 --_VdceOutSwap	r26	local

                                                                      Page 155
                                                              C:\Users\YINGAO~1\AppData\Local\Temp\gh_000084c1.si
                        8956 
                        8957 --_Unit	0[sp]	param
                        8958 --_OutFmt	4[sp]	param
                        8959 
                        8960 	.section ".bss","awb"
                        8961 .L5916:
                        8962 	.type	.L5916,@object
                        8963 	.size	.L5916,0
                        8964 	.data
                        8965 	.text
                        8966 
                        8967 --2708: }
                        8968 
                        8969 --2711: uint32_t R_WM_Sys_WindowCreate(uint32_t Unit, const r_wm_Window_t* Win)
                        8970 	.align	2
                        8971 	.align	2
                        8972 	.global	_R_WM_Sys_WindowCreate
                        8973 _R_WM_Sys_WindowCreate:
00001cf6 8007e100       8974 	prepare	{r28,r29,r31},0
00001cfa 06e8           8975 	mov	r6,r29
00001cfc 07e0           8976 	mov	r7,r28
                        8977 --	    .bf
                        8978 .LDW032:
                        8979 --2712: {
                        8980 --2713:     return loc_WinReconfAll(Unit);
00001cfe 1d30           8981 	mov	r29,r6
                        8982 	jarl	_loc_WinReconfAll,lp
                        8982 <EXPANSION BEGIN>
                        8982 jarl22 _loc_WinReconfAll , lp 
00001d00 bfffa0ea*      8982 <EXPANSION END>
                        8983 --	    .ef
                        8984 .LDW132:
                        8985 --line2714
                        8986 ..lin.D.3A.5CRenesas_Electronics.5CD1x_RGL.5Crgl_ghs_D1Lx_obj_V1.2E2.2E0.5Cvlib.5Capp.5Cgfx_apps.5Csimple_draw_d1l2.5Ctarget.5Cd1lx_mango_ghs.5Cobj.5Cr_sys_wm.418::
                        8987 .LDWlin418:
00001d04 4006ff00       8988 	dispose	0,{r28,r29,r31},[lp]
                        8989 	.type	_R_WM_Sys_WindowCreate,@function
                        8990 	.size	_R_WM_Sys_WindowCreate,.-_R_WM_Sys_WindowCreate
                        8991 	.align	2
                        8992 .LDW232:
                        8993 
                        8994 --_Unit	r29	param
                        8995 --_Win	r28	param
                        8996 
                        8997 	.section ".bss","awb"
                        8998 .L6056:
                        8999 	.type	.L6056,@object
                        9000 	.size	.L6056,0
                        9001 	.data
                        9002 	.text
                        9003 
                        9004 --2714: }
                        9005 
                        9006 --2716: uint32_t R_WM_Sys_WindowDelete(uint32_t Unit, const r_wm_Window_t* Win)
                        9007 	.align	2
                        9008 	.align	2
                        9009 	.global	_R_WM_Sys_WindowDelete
                        9010 _R_WM_Sys_WindowDelete:
00001d08 8007e110       9011 	prepare	{r27,r28,r29,r31},0
00001d0c 06e0           9012 	mov	r6,r28
00001d0e 07d8           9013 	mov	r7,r27

                                                                      Page 156
                                                              C:\Users\YINGAO~1\AppData\Local\Temp\gh_000084c1.si
                        9014 --	    .bf
                        9015 .LDW332:
                        9016 --2717: {
                        9017 --2718:     r_wm_sys_vdce_WinLayerPair_t* win_layer_pair = loc_WinLayerPairGet(Unit, Win);
00001d10 1c30           9018 	mov	r28,r6
00001d12 1b38           9019 	mov	r27,r7
                        9020 	jarl	_loc_WinLayerPairGet,lp
                        9020 <EXPANSION BEGIN>
                        9020 jarl22 _loc_WinLayerPairGet , lp 
00001d14 bfffb8e8*      9020 <EXPANSION END>
00001d18 0ae8           9021 	mov	r10,r29
                        9022 --2719:     
                        9023 --2720:     if (win_layer_pair == R_NULL)
                        9024 --line2720
                        9025 ..lin.D.3A.5CRenesas_Electronics.5CD1x_RGL.5Crgl_ghs_D1Lx_obj_V1.2E2.2E0.5Cvlib.5Capp.5Cgfx_apps.5Csimple_draw_d1l2.5Ctarget.5Cd1lx_mango_ghs.5Cobj.5Cr_sys_wm.419::
                        9026 .LDWlin419:
00001d1a e0e9           9027 	cmp	zero,r29
00001d1c ba05*          9028 	bne	.L6070
                        9029 --2721:     {
                        9030 --2722:         R_WM_SYS_REPORT_ERROR(Unit, R_WM_ERR_NULL_PTR_ARGUMENT, 0);
                        9031 --2723:         return 0;
                        9032 --line2723
                        9033 ..lin.D.3A.5CRenesas_Electronics.5CD1x_RGL.5Crgl_ghs_D1Lx_obj_V1.2E2.2E0.5Cvlib.5Capp.5Cgfx_apps.5Csimple_draw_d1l2.5Ctarget.5Cd1lx_mango_ghs.5Cobj.5Cr_sys_wm.420::
                        9034 .LDWlin420:
00001d1e 0052           9035 	mov	0,r10
00001d20 8515*          9036 	br	.L6068
                        9037 .L6070:
                        9038 --2724:     }
                        9039 --2725:     /* if the layer is enabled, disable the layer */
                        9040 --2726:     if (Win->Status == R_WM_WINSTATUS_ENABLED)
                        9041 --line2726
                        9042 ..lin.D.3A.5CRenesas_Electronics.5CD1x_RGL.5Crgl_ghs_D1Lx_obj_V1.2E2.2E0.5Cvlib.5Capp.5Cgfx_apps.5Csimple_draw_d1l2.5Ctarget.5Cd1lx_mango_ghs.5Cobj.5Cr_sys_wm.421::
                        9043 .LDWlin421:
00001d22 3b0f0100       9044 	ld.w	0[r27],r1
00001d26 620a           9045 	cmp	2,r1
00001d28 ea05*          9046 	bne	.L6073
                        9047 --2727:     {
                        9048 --2728:         loc_VDCE_LayerDisable(Unit, win_layer_pair->Layer);
                        9049 --line2728
                        9050 ..lin.D.3A.5CRenesas_Electronics.5CD1x_RGL.5Crgl_ghs_D1Lx_obj_V1.2E2.2E0.5Cvlib.5Capp.5Cgfx_apps.5Csimple_draw_d1l2.5Ctarget.5Cd1lx_mango_ghs.5Cobj.5Cr_sys_wm.422::
                        9051 .LDWlin422:
00001d2a 3d3f0500       9052 	ld.w	4[r29],r7
00001d2e 1c30           9053 	mov	r28,r6
                        9054 	jarl	_loc_VDCE_LayerDisable,lp
                        9054 <EXPANSION BEGIN>
                        9054 jarl22 _loc_VDCE_LayerDisable , lp 
00001d30 bfff96f1*      9054 <EXPANSION END>
                        9055 .L6073:
                        9056 --2729:     }
                        9057 --2730:     win_layer_pair->Win = R_NULL;
                        9058 --line2730
                        9059 ..lin.D.3A.5CRenesas_Electronics.5CD1x_RGL.5Crgl_ghs_D1Lx_obj_V1.2E2.2E0.5Cvlib.5Capp.5Cgfx_apps.5Csimple_draw_d1l2.5Ctarget.5Cd1lx_mango_ghs.5Cobj.5Cr_sys_wm.423::
                        9060 .LDWlin423:
00001d34 7d070100       9061 	st.w	zero,0[r29]
                        9062 --2731:     win_layer_pair->Layer = LOC_INVALID_LAYER;
00001d38 1f0a           9063 	mov	-1,r1
00001d3a 7d0f0500       9064 	st.w	r1,4[r29]
                        9065 --2732:     return 1;
00001d3e 0152           9066 	mov	1,r10
                        9067 .L6068:
                        9068 --	    .ef

                                                                      Page 157
                                                              C:\Users\YINGAO~1\AppData\Local\Temp\gh_000084c1.si
                        9069 .LDW432:
00001d40 4006ff10       9070 	dispose	0,{r27,r28,r29,r31},[lp]
                        9071 	.type	_R_WM_Sys_WindowDelete,@function
                        9072 	.size	_R_WM_Sys_WindowDelete,.-_R_WM_Sys_WindowDelete
                        9073 	.align	2
                        9074 .LDW532:
                        9075 --_win_layer_pair	r29	local
                        9076 
                        9077 --_Unit	r28	param
                        9078 --_Win	r27	param
                        9079 
                        9080 	.section ".bss","awb"
                        9081 .L6102:
                        9082 	.type	.L6102,@object
                        9083 	.size	.L6102,0
                        9084 	.data
                        9085 	.text
                        9086 
                        9087 --2733: }
                        9088 
                        9089 --2735: uint32_t R_WM_Sys_WindowEnable(uint32_t Unit, const r_wm_Window_t* Win, uint32_t Enabled)
                        9090 	.align	2
                        9091 	.align	2
                        9092 	.global	_R_WM_Sys_WindowEnable
                        9093 _R_WM_Sys_WindowEnable:
00001d44 8007e130       9094 	prepare	{r26,r27,r28,r29,r31},0
00001d48 06d8           9095 	mov	r6,r27
00001d4a 07e8           9096 	mov	r7,r29
00001d4c 08d0           9097 	mov	r8,r26
                        9098 --	    .bf
                        9099 .LDW632:
                        9100 --2736: {
                        9101 --2737:     r_wm_sys_vdce_WinLayerPair_t* win_layer_pair = loc_WinLayerPairGet(Unit, Win);
00001d4e 1b30           9102 	mov	r27,r6
00001d50 1d38           9103 	mov	r29,r7
                        9104 	jarl	_loc_WinLayerPairGet,lp
                        9104 <EXPANSION BEGIN>
                        9104 jarl22 _loc_WinLayerPairGet , lp 
00001d52 bfff7ae8*      9104 <EXPANSION END>
00001d56 0ae0           9105 	mov	r10,r28
                        9106 --2738:     if (win_layer_pair == R_NULL)
                        9107 --line2738
                        9108 ..lin.D.3A.5CRenesas_Electronics.5CD1x_RGL.5Crgl_ghs_D1Lx_obj_V1.2E2.2E0.5Cvlib.5Capp.5Cgfx_apps.5Csimple_draw_d1l2.5Ctarget.5Cd1lx_mango_ghs.5Cobj.5Cr_sys_wm.424::
                        9109 .LDWlin424:
00001d58 e0e1           9110 	cmp	zero,r28
00001d5a ba05*          9111 	bne	.L6137
                        9112 --2739:     {
                        9113 --2740:         R_WM_SYS_REPORT_ERROR(Unit, R_WM_ERR_NULL_PTR_ARGUMENT, 0);
                        9114 --2741:         return 0;
                        9115 --line2741
                        9116 ..lin.D.3A.5CRenesas_Electronics.5CD1x_RGL.5Crgl_ghs_D1Lx_obj_V1.2E2.2E0.5Cvlib.5Capp.5Cgfx_apps.5Csimple_draw_d1l2.5Ctarget.5Cd1lx_mango_ghs.5Cobj.5Cr_sys_wm.425::
                        9117 .LDWlin425:
00001d5c 0052           9118 	mov	0,r10
00001d5e 952d*          9119 	br	.L6135
                        9120 .L6137:
                        9121 --2742:     }
                        9122 --2744:     if (Enabled != 0)
                        9123 --line2744
                        9124 ..lin.D.3A.5CRenesas_Electronics.5CD1x_RGL.5Crgl_ghs_D1Lx_obj_V1.2E2.2E0.5Cvlib.5Capp.5Cgfx_apps.5Csimple_draw_d1l2.5Ctarget.5Cd1lx_mango_ghs.5Cobj.5Cr_sys_wm.426::
                        9125 .LDWlin426:
00001d60 e0d1           9126 	cmp	zero,r26

                                                                      Page 158
                                                              C:\Users\YINGAO~1\AppData\Local\Temp\gh_000084c1.si
00001d62 9225*          9127 	be	.L6140
                        9128 --2745:     {
                        9129 --2746:         /* do not allow enabling the layer out of screen limits */
                        9130 --2747:         if (Win->PosY < 0)
                        9131 --line2747
                        9132 ..lin.D.3A.5CRenesas_Electronics.5CD1x_RGL.5Crgl_ghs_D1Lx_obj_V1.2E2.2E0.5Cvlib.5Capp.5Cgfx_apps.5Csimple_draw_d1l2.5Ctarget.5Cd1lx_mango_ghs.5Cobj.5Cr_sys_wm.427::
                        9133 .LDWlin427:
00001d64 3d0f1100       9134 	ld.w	16[r29],r1
00001d68 e009           9135 	cmp	zero,r1
00001d6a ae0d*          9136 	bge	.L6142
                        9137 --2748:         {
                        9138 --2749:             if ((-Win->PosY) >= Win->Height)
                        9139 --line2749
                        9140 ..lin.D.3A.5CRenesas_Electronics.5CD1x_RGL.5Crgl_ghs_D1Lx_obj_V1.2E2.2E0.5Cvlib.5Capp.5Cgfx_apps.5Csimple_draw_d1l2.5Ctarget.5Cd1lx_mango_ghs.5Cobj.5Cr_sys_wm.428::
                        9141 .LDWlin428:
00001d6c 3d0f1100       9142 	ld.w	16[r29],r1
00001d70 3d772100       9143 	ld.w	32[r29],r14
00001d74 8009           9144 	subr	zero,r1
00001d76 ee09           9145 	cmp	r14,r1
00001d78 b105*          9146 	bl	.L6142
                        9147 --2750:             {
                        9148 --2751:                 return 1;
                        9149 --line2751
                        9150 ..lin.D.3A.5CRenesas_Electronics.5CD1x_RGL.5Crgl_ghs_D1Lx_obj_V1.2E2.2E0.5Cvlib.5Capp.5Cgfx_apps.5Csimple_draw_d1l2.5Ctarget.5Cd1lx_mango_ghs.5Cobj.5Cr_sys_wm.429::
                        9151 .LDWlin429:
00001d7a 0152           9152 	mov	1,r10
00001d7c a51d*          9153 	br	.L6135
                        9154 .L6142:
                        9155 --2752:             }
                        9156 --2753:         }
                        9157 --2754:         if (Win->PosX < 0)
                        9158 --line2754
                        9159 ..lin.D.3A.5CRenesas_Electronics.5CD1x_RGL.5Crgl_ghs_D1Lx_obj_V1.2E2.2E0.5Cvlib.5Capp.5Cgfx_apps.5Csimple_draw_d1l2.5Ctarget.5Cd1lx_mango_ghs.5Cobj.5Cr_sys_wm.430::
                        9160 .LDWlin430:
00001d7e 3d0f0d00       9161 	ld.w	12[r29],r1
00001d82 e009           9162 	cmp	zero,r1
00001d84 ae0d*          9163 	bge	.L6147
                        9164 --2755:         {
                        9165 --2756:             if ((-Win->PosX) >= Win->Width)
                        9166 --line2756
                        9167 ..lin.D.3A.5CRenesas_Electronics.5CD1x_RGL.5Crgl_ghs_D1Lx_obj_V1.2E2.2E0.5Cvlib.5Capp.5Cgfx_apps.5Csimple_draw_d1l2.5Ctarget.5Cd1lx_mango_ghs.5Cobj.5Cr_sys_wm.431::
                        9168 .LDWlin431:
00001d86 3d0f0d00       9169 	ld.w	12[r29],r1
00001d8a 3d771d00       9170 	ld.w	28[r29],r14
00001d8e 8009           9171 	subr	zero,r1
00001d90 ee09           9172 	cmp	r14,r1
00001d92 b105*          9173 	bl	.L6147
                        9174 --2757:             {
                        9175 --2758:                 return 1;
                        9176 --line2758
                        9177 ..lin.D.3A.5CRenesas_Electronics.5CD1x_RGL.5Crgl_ghs_D1Lx_obj_V1.2E2.2E0.5Cvlib.5Capp.5Cgfx_apps.5Csimple_draw_d1l2.5Ctarget.5Cd1lx_mango_ghs.5Cobj.5Cr_sys_wm.432::
                        9178 .LDWlin432:
00001d94 0152           9179 	mov	1,r10
00001d96 d50d*          9180 	br	.L6135
                        9181 .L6147:
                        9182 --2759:             }
                        9183 --2760:         }
                        9184 --2761:         loc_VDCE_LayerEnable(Unit, win_layer_pair->Layer);
                        9185 --line2761
                        9186 ..lin.D.3A.5CRenesas_Electronics.5CD1x_RGL.5Crgl_ghs_D1Lx_obj_V1.2E2.2E0.5Cvlib.5Capp.5Cgfx_apps.5Csimple_draw_d1l2.5Ctarget.5Cd1lx_mango_ghs.5Cobj.5Cr_sys_wm.433::
                        9187 .LDWlin433:

                                                                      Page 159
                                                              C:\Users\YINGAO~1\AppData\Local\Temp\gh_000084c1.si
00001d98 3c3f0500       9188 	ld.w	4[r28],r7
00001d9c 1b30           9189 	mov	r27,r6
                        9190 	jarl	_loc_VDCE_LayerEnable,lp
                        9190 <EXPANSION BEGIN>
                        9190 jarl22 _loc_VDCE_LayerEnable , lp 
00001d9e bfffd2f0*      9190 <EXPANSION END>
00001da2 e505*          9191 	br	.L6152
                        9192 .L6140:
                        9193 --2762:     }
                        9194 --2763:     else
                        9195 --2764:     {
                        9196 --2765:         loc_VDCE_LayerDisable(Unit, win_layer_pair->Layer);
                        9197 --line2765
                        9198 ..lin.D.3A.5CRenesas_Electronics.5CD1x_RGL.5Crgl_ghs_D1Lx_obj_V1.2E2.2E0.5Cvlib.5Capp.5Cgfx_apps.5Csimple_draw_d1l2.5Ctarget.5Cd1lx_mango_ghs.5Cobj.5Cr_sys_wm.434::
                        9199 .LDWlin434:
00001da4 3c3f0500       9200 	ld.w	4[r28],r7
00001da8 1b30           9201 	mov	r27,r6
                        9202 	jarl	_loc_VDCE_LayerDisable,lp
                        9202 <EXPANSION BEGIN>
                        9202 jarl22 _loc_VDCE_LayerDisable , lp 
00001daa bfff1cf1*      9202 <EXPANSION END>
                        9203 .L6152:
                        9204 --2766:     }
                        9205 --2767:     return 1;
                        9206 --line2767
                        9207 ..lin.D.3A.5CRenesas_Electronics.5CD1x_RGL.5Crgl_ghs_D1Lx_obj_V1.2E2.2E0.5Cvlib.5Capp.5Cgfx_apps.5Csimple_draw_d1l2.5Ctarget.5Cd1lx_mango_ghs.5Cobj.5Cr_sys_wm.435::
                        9208 .LDWlin435:
00001dae 0152           9209 	mov	1,r10
                        9210 .L6135:
                        9211 --	    .ef
                        9212 .LDW732:
00001db0 4006ff30       9213 	dispose	0,{r26,r27,r28,r29,r31},[lp]
                        9214 	.type	_R_WM_Sys_WindowEnable,@function
                        9215 	.size	_R_WM_Sys_WindowEnable,.-_R_WM_Sys_WindowEnable
                        9216 	.align	2
                        9217 .LDW832:
                        9218 --_win_layer_pair	r28	local
                        9219 
                        9220 --_Unit	r27	param
                        9221 --_Win	r29	param
                        9222 --_Enabled	r26	param
                        9223 
                        9224 	.section ".bss","awb"
                        9225 .L6192:
                        9226 	.type	.L6192,@object
                        9227 	.size	.L6192,0
                        9228 	.data
                        9229 	.text
                        9230 
                        9231 --2768: }
                        9232 
                        9233 --2770: uint32_t R_WM_Sys_WindowPosSet(uint32_t Unit, const r_wm_Window_t* Win, int32_t PosX, int32_t PosY, int32_t PosZ)
                        9234 	.align	2
                        9235 	.align	2
                        9236 	.global	_R_WM_Sys_WindowPosSet
                        9237 _R_WM_Sys_WindowPosSet:
00001db4 8c07e170       9238 	prepare	{r25,r26,r27,r28,r29,r31},6
00001db8 06d8           9239 	mov	r6,r27
00001dba 07e8           9240 	mov	r7,r29
00001dbc 634f1500       9241 	st.w	r9,20[sp]
00001dc0 08c8           9242 	mov	r8,r25

                                                                      Page 160
                                                              C:\Users\YINGAO~1\AppData\Local\Temp\gh_000084c1.si
                        9243 --	    .bf
                        9244 .LDW932:
                        9245 --2771: {
                        9246 --2772:     r_wm_sys_vdce_WinLayerPair_t* win_layer_pair;
                        9247 --2773:     const void* fb;
                        9248 --2774:     if (Win->PosZ != PosZ)
00001dc2 230f3100       9249 	ld.w	48[sp],r1
00001dc6 3d771500       9250 	ld.w	20[r29],r14
00001dca e171           9251 	cmp	r1,r14
00001dcc 820d*          9252 	be	.L6242
                        9253 --2775:     {
                        9254 --2776:         /* the Z has changed, the windows need to be reassigned to the layers */
                        9255 --2777:         if (0 == loc_WinReconfAll(Unit))
                        9256 --line2777
                        9257 ..lin.D.3A.5CRenesas_Electronics.5CD1x_RGL.5Crgl_ghs_D1Lx_obj_V1.2E2.2E0.5Cvlib.5Capp.5Cgfx_apps.5Csimple_draw_d1l2.5Ctarget.5Cd1lx_mango_ghs.5Cobj.5Cr_sys_wm.436::
                        9258 .LDWlin436:
00001dce 1b30           9259 	mov	r27,r6
                        9260 	jarl	_loc_WinReconfAll,lp
                        9260 <EXPANSION BEGIN>
                        9260 jarl22 _loc_WinReconfAll , lp 
00001dd0 bfffd0e9*      9260 <EXPANSION END>
00001dd4 e051           9261 	cmp	zero,r10
00001dd6 ba05*          9262 	bne	.L6242
                        9263 --2778:         {
                        9264 --2779:             return 0;
                        9265 --line2779
                        9266 ..lin.D.3A.5CRenesas_Electronics.5CD1x_RGL.5Crgl_ghs_D1Lx_obj_V1.2E2.2E0.5Cvlib.5Capp.5Cgfx_apps.5Csimple_draw_d1l2.5Ctarget.5Cd1lx_mango_ghs.5Cobj.5Cr_sys_wm.437::
                        9267 .LDWlin437:
00001dd8 0052           9268 	mov	0,r10
00001dda e545*          9269 	br	.L6240
                        9270 .L6242:
                        9271 --2780:         }
                        9272 --2781:     }
                        9273 --2782:     win_layer_pair = loc_WinLayerPairGet(Unit, Win);
                        9274 --line2782
                        9275 ..lin.D.3A.5CRenesas_Electronics.5CD1x_RGL.5Crgl_ghs_D1Lx_obj_V1.2E2.2E0.5Cvlib.5Capp.5Cgfx_apps.5Csimple_draw_d1l2.5Ctarget.5Cd1lx_mango_ghs.5Cobj.5Cr_sys_wm.438::
                        9276 .LDWlin438:
00001ddc 1b30           9277 	mov	r27,r6
00001dde 1d38           9278 	mov	r29,r7
                        9279 	jarl	_loc_WinLayerPairGet,lp
                        9279 <EXPANSION BEGIN>
                        9279 jarl22 _loc_WinLayerPairGet , lp 
00001de0 bfffece7*      9279 <EXPANSION END>
00001de4 0ad0           9280 	mov	r10,r26
                        9281 --2783:     if (win_layer_pair == R_NULL)
                        9282 --line2783
                        9283 ..lin.D.3A.5CRenesas_Electronics.5CD1x_RGL.5Crgl_ghs_D1Lx_obj_V1.2E2.2E0.5Cvlib.5Capp.5Cgfx_apps.5Csimple_draw_d1l2.5Ctarget.5Cd1lx_mango_ghs.5Cobj.5Cr_sys_wm.439::
                        9284 .LDWlin439:
00001de6 e0d1           9285 	cmp	zero,r26
00001de8 ba05*          9286 	bne	.L6247
                        9287 --2784:     {
                        9288 --2785:         R_WM_SYS_REPORT_ERROR(Unit, R_WM_ERR_NULL_PTR_ARGUMENT, 0);
                        9289 --2786:         return 0;
                        9290 --line2786
                        9291 ..lin.D.3A.5CRenesas_Electronics.5CD1x_RGL.5Crgl_ghs_D1Lx_obj_V1.2E2.2E0.5Cvlib.5Capp.5Cgfx_apps.5Csimple_draw_d1l2.5Ctarget.5Cd1lx_mango_ghs.5Cobj.5Cr_sys_wm.440::
                        9292 .LDWlin440:
00001dea 0052           9293 	mov	0,r10
00001dec d53d*          9294 	br	.L6240
                        9295 .L6247:
                        9296 --2787:     }
                        9297 --2788:     if (0 == loc_WinSetViewportAndGeom( Unit,

                                                                      Page 161
                                                              C:\Users\YINGAO~1\AppData\Local\Temp\gh_000084c1.si
                        9298 --line2788
                        9299 ..lin.D.3A.5CRenesas_Electronics.5CD1x_RGL.5Crgl_ghs_D1Lx_obj_V1.2E2.2E0.5Cvlib.5Capp.5Cgfx_apps.5Csimple_draw_d1l2.5Ctarget.5Cd1lx_mango_ghs.5Cobj.5Cr_sys_wm.441::
                        9300 .LDWlin441:
00001dee 3d370900       9301 	ld.w	8[r29],r6
                        9302 	jarl	_R_WM_ColorFmtBitsPerPixGet,lp
                        9302 <EXPANSION BEGIN>
                        9302 jarl22 _R_WM_ColorFmtBitsPerPixGet , lp 
00001df2 80ff0000*      9302 <EXPANSION END>
00001df6 3d771900       9303 	ld.w	24[r29],r14
00001dfa 1b30           9304 	mov	r27,r6
00001dfc 3a470500       9305 	ld.w	4[r26],r8
00001e00 1d38           9306 	mov	r29,r7
00001e02 235f1500       9307 	ld.w	20[sp],r11
00001e06 1948           9308 	mov	r25,r9
00001e08 63571100       9309 	st.w	r10,16[sp]
00001e0c 63770500       9310 	st.w	r14,4[sp]
00001e10 3d771d00       9311 	ld.w	28[r29],r14
00001e14 635f0100       9312 	st.w	r11,0[sp]
00001e18 63770900       9313 	st.w	r14,8[sp]
00001e1c 3d772100       9314 	ld.w	32[r29],r14
00001e20 63770d00       9315 	st.w	r14,12[sp]
                        9316 	jarl	_loc_WinSetViewportAndGeom,lp
                        9316 <EXPANSION BEGIN>
                        9316 jarl22 _loc_WinSetViewportAndGeom , lp 
00001e24 bfffbced*      9316 <EXPANSION END>
00001e28 e051           9317 	cmp	zero,r10
00001e2a ba05*          9318 	bne	.L6250
                        9319 --2789:                                         Win,
                        9320 --2790:                                         win_layer_pair->Layer,
                        9321 --2791:                                         PosX,
                        9322 --2792:                                         PosY,
                        9323 --2793:                                         Win->Pitch,
                        9324 --2794:                                         Win->Width,
                        9325 --2795:                                         Win->Height,
                        9326 --2796:                                         R_WM_ColorFmtBitsPerPixGet(Win->ColorFmt) ))
                        9327 --2797:     {
                        9328 --2798:         return 0;
                        9329 --line2798
                        9330 ..lin.D.3A.5CRenesas_Electronics.5CD1x_RGL.5Crgl_ghs_D1Lx_obj_V1.2E2.2E0.5Cvlib.5Capp.5Cgfx_apps.5Csimple_draw_d1l2.5Ctarget.5Cd1lx_mango_ghs.5Cobj.5Cr_sys_wm.442::
                        9331 .LDWlin442:
00001e2c 0052           9332 	mov	0,r10
00001e2e c51d*          9333 	br	.L6240
                        9334 .L6250:
                        9335 --2799:     }
                        9336 --2800:     /* due to negative offset workaround, the framebuffer start address might need correction */
                        9337 --2801:     if (Win->Mode != R_WM_WINMODE_SPRITES)
                        9338 --line2801
                        9339 ..lin.D.3A.5CRenesas_Electronics.5CD1x_RGL.5Crgl_ghs_D1Lx_obj_V1.2E2.2E0.5Cvlib.5Capp.5Cgfx_apps.5Csimple_draw_d1l2.5Ctarget.5Cd1lx_mango_ghs.5Cobj.5Cr_sys_wm.443::
                        9340 .LDWlin443:
00001e30 3d0f0500       9341 	ld.w	4[r29],r1
00001e34 610a           9342 	cmp	1,r1
00001e36 920d*          9343 	be	.L6253
                        9344 --2802:     {
                        9345 --2803:         fb = loc_WinGetOnScreenFb(Win);
                        9346 --line2803
                        9347 ..lin.D.3A.5CRenesas_Electronics.5CD1x_RGL.5Crgl_ghs_D1Lx_obj_V1.2E2.2E0.5Cvlib.5Capp.5Cgfx_apps.5Csimple_draw_d1l2.5Ctarget.5Cd1lx_mango_ghs.5Cobj.5Cr_sys_wm.444::
                        9348 .LDWlin444:
00001e38 1d30           9349 	mov	r29,r6
                        9350 	jarl	_loc_WinGetOnScreenFb,lp
                        9350 <EXPANSION BEGIN>
                        9350 jarl22 _loc_WinGetOnScreenFb , lp 

                                                                      Page 162
                                                              C:\Users\YINGAO~1\AppData\Local\Temp\gh_000084c1.si
00001e3a bfff04f0*      9350 <EXPANSION END>
00001e3e 0ae0           9351 	mov	r10,r28
                        9352 --2804:         if (fb == 0)
                        9353 --line2804
                        9354 ..lin.D.3A.5CRenesas_Electronics.5CD1x_RGL.5Crgl_ghs_D1Lx_obj_V1.2E2.2E0.5Cvlib.5Capp.5Cgfx_apps.5Csimple_draw_d1l2.5Ctarget.5Cd1lx_mango_ghs.5Cobj.5Cr_sys_wm.445::
                        9355 .LDWlin445:
00001e40 e0e1           9356 	cmp	zero,r28
00001e42 ca05*          9357 	bne	.L6258
                        9358 --2805:         {
                        9359 --2806:             R_WM_SYS_REPORT_ERROR(Unit, R_WM_ERR_NULL_PTR_ARGUMENT, 0);
                        9360 --2807:             return 0;
                        9361 --line2807
                        9362 ..lin.D.3A.5CRenesas_Electronics.5CD1x_RGL.5Crgl_ghs_D1Lx_obj_V1.2E2.2E0.5Cvlib.5Capp.5Cgfx_apps.5Csimple_draw_d1l2.5Ctarget.5Cd1lx_mango_ghs.5Cobj.5Cr_sys_wm.446::
                        9363 .LDWlin446:
00001e44 0052           9364 	mov	0,r10
00001e46 8515*          9365 	br	.L6240
                        9366 .L6253:
                        9367 --2808:         }
                        9368 --2809:     }
                        9369 --2810:     else
                        9370 --2811:     {
                        9371 --2812:         fb = 0;
                        9372 --line2812
                        9373 ..lin.D.3A.5CRenesas_Electronics.5CD1x_RGL.5Crgl_ghs_D1Lx_obj_V1.2E2.2E0.5Cvlib.5Capp.5Cgfx_apps.5Csimple_draw_d1l2.5Ctarget.5Cd1lx_mango_ghs.5Cobj.5Cr_sys_wm.447::
                        9374 .LDWlin447:
00001e48 00e2           9375 	mov	0,r28
                        9376 .L6258:
                        9377 --2813:     }
                        9378 --2814:     
                        9379 --2815:     if (0 == loc_WinSetFb(Unit, Win, PosX, PosY, fb))
00001e4a 234f1500       9380 	ld.w	20[sp],r9
00001e4e 1b30           9381 	mov	r27,r6
00001e50 1d38           9382 	mov	r29,r7
00001e52 1940           9383 	mov	r25,r8
00001e54 63e70100       9384 	st.w	r28,0[sp]
                        9385 	jarl	_loc_WinSetFb,lp
                        9385 <EXPANSION BEGIN>
                        9385 jarl22 _loc_WinSetFb , lp 
00001e58 bfff94ee*      9385 <EXPANSION END>
00001e5c e051           9386 	cmp	zero,r10
00001e5e ba05*          9387 	bne	.L6259
                        9388 --2816:     {
                        9389 --2817:         return 0;
                        9390 --line2817
                        9391 ..lin.D.3A.5CRenesas_Electronics.5CD1x_RGL.5Crgl_ghs_D1Lx_obj_V1.2E2.2E0.5Cvlib.5Capp.5Cgfx_apps.5Csimple_draw_d1l2.5Ctarget.5Cd1lx_mango_ghs.5Cobj.5Cr_sys_wm.448::
                        9392 .LDWlin448:
00001e60 0052           9393 	mov	0,r10
00001e62 a505*          9394 	br	.L6240
                        9395 .L6259:
                        9396 --2818:     }
                        9397 --2819:     
                        9398 --2820:     return 1;
                        9399 --line2820
                        9400 ..lin.D.3A.5CRenesas_Electronics.5CD1x_RGL.5Crgl_ghs_D1Lx_obj_V1.2E2.2E0.5Cvlib.5Capp.5Cgfx_apps.5Csimple_draw_d1l2.5Ctarget.5Cd1lx_mango_ghs.5Cobj.5Cr_sys_wm.449::
                        9401 .LDWlin449:
00001e64 0152           9402 	mov	1,r10
                        9403 .L6240:
                        9404 --	    .ef
                        9405 .LDW042:
00001e66 4c06ff70       9406 	dispose	6,{r25,r26,r27,r28,r29,r31},[lp]
                        9407 	.type	_R_WM_Sys_WindowPosSet,@function

                                                                      Page 163
                                                              C:\Users\YINGAO~1\AppData\Local\Temp\gh_000084c1.si
                        9408 	.size	_R_WM_Sys_WindowPosSet,.-_R_WM_Sys_WindowPosSet
                        9409 	.align	2
                        9410 .LDW142:
                        9411 --_win_layer_pair	r26	local
                        9412 --_fb	r28	local
                        9413 
                        9414 --_Unit	r27	param
                        9415 --_Win	r29	param
                        9416 --_PosX	r25	param
                        9417 --_PosY	20[sp]	param
                        9418 --_PosZ	48[sp]	param
                        9419 
                        9420 	.section ".bss","awb"
                        9421 .L6310:
                        9422 	.type	.L6310,@object
                        9423 	.size	.L6310,0
                        9424 	.data
                        9425 	.text
                        9426 
                        9427 --2821: }
                        9428 
                        9429 --2823: uint32_t R_WM_Sys_WindowGeomSet (   uint32_t Unit,
                        9430 	.align	2
                        9431 	.align	2
                        9432 	.global	_R_WM_Sys_WindowGeomSet
                        9433 _R_WM_Sys_WindowGeomSet:
00001e6a 8a07e170       9434 	prepare	{r25,r26,r27,r28,r29,r31},5
00001e6e 06d8           9435 	mov	r6,r27
00001e70 07e8           9436 	mov	r7,r29
00001e72 08d0           9437 	mov	r8,r26
00001e74 09c8           9438 	mov	r9,r25
                        9439 --	    .bf
                        9440 .LDW242:
                        9441 --2824:                                     const r_wm_Window_t* Win,
                        9442 --2825:                                     uint32_t Pitch,
                        9443 --2826:                                     uint32_t Width,
                        9444 --2827:                                     uint32_t Height
                        9445 --2828:                                 )
                        9446 --2829: {
                        9447 --2830:     r_wm_sys_vdce_WinLayerPair_t* win_layer_pair = loc_WinLayerPairGet(Unit, Win);
00001e76 1b30           9448 	mov	r27,r6
00001e78 1d38           9449 	mov	r29,r7
                        9450 	jarl	_loc_WinLayerPairGet,lp
                        9450 <EXPANSION BEGIN>
                        9450 jarl22 _loc_WinLayerPairGet , lp 
00001e7a bfff52e7*      9450 <EXPANSION END>
00001e7e 0ae0           9451 	mov	r10,r28
                        9452 --2831:     if (win_layer_pair == R_NULL)
                        9453 --line2831
                        9454 ..lin.D.3A.5CRenesas_Electronics.5CD1x_RGL.5Crgl_ghs_D1Lx_obj_V1.2E2.2E0.5Cvlib.5Capp.5Cgfx_apps.5Csimple_draw_d1l2.5Ctarget.5Cd1lx_mango_ghs.5Cobj.5Cr_sys_wm.450::
                        9455 .LDWlin450:
00001e80 e0e1           9456 	cmp	zero,r28
00001e82 ba05*          9457 	bne	.L6369
                        9458 --2832:     {
                        9459 --2833:         R_WM_SYS_REPORT_ERROR(Unit, R_WM_ERR_NULL_PTR_ARGUMENT, 0);
                        9460 --2834:         return 0;
                        9461 --line2834
                        9462 ..lin.D.3A.5CRenesas_Electronics.5CD1x_RGL.5Crgl_ghs_D1Lx_obj_V1.2E2.2E0.5Cvlib.5Capp.5Cgfx_apps.5Csimple_draw_d1l2.5Ctarget.5Cd1lx_mango_ghs.5Cobj.5Cr_sys_wm.451::
                        9463 .LDWlin451:
00001e84 0052           9464 	mov	0,r10
00001e86 c535*          9465 	br	.L6367

                                                                      Page 164
                                                              C:\Users\YINGAO~1\AppData\Local\Temp\gh_000084c1.si
                        9466 .L6369:
                        9467 --2835:     }
                        9468 --2836:     if (win_layer_pair->Layer == LOC_INVALID_LAYER)
                        9469 --line2836
                        9470 ..lin.D.3A.5CRenesas_Electronics.5CD1x_RGL.5Crgl_ghs_D1Lx_obj_V1.2E2.2E0.5Cvlib.5Capp.5Cgfx_apps.5Csimple_draw_d1l2.5Ctarget.5Cd1lx_mango_ghs.5Cobj.5Cr_sys_wm.452::
                        9471 .LDWlin452:
00001e88 3c0f0500       9472 	ld.w	4[r28],r1
00001e8c 7f0a           9473 	cmp	-1,r1
00001e8e ba05*          9474 	bne	.L6372
                        9475 --2837:     {
                        9476 --2838:         R_WM_SYS_REPORT_ERROR(Unit, R_WM_ERR_RANGE_WM, 0);
                        9477 --2839:         return 0;
                        9478 --line2839
                        9479 ..lin.D.3A.5CRenesas_Electronics.5CD1x_RGL.5Crgl_ghs_D1Lx_obj_V1.2E2.2E0.5Cvlib.5Capp.5Cgfx_apps.5Csimple_draw_d1l2.5Ctarget.5Cd1lx_mango_ghs.5Cobj.5Cr_sys_wm.453::
                        9480 .LDWlin453:
00001e90 0052           9481 	mov	0,r10
00001e92 e52d*          9482 	br	.L6367
                        9483 .L6372:
                        9484 --2840:     }
                        9485 --2841:     
                        9486 --2842:     /* The Layer must be disabled for geometry configuration */
                        9487 --2843:     loc_VDCE_LayerDisable(Unit, win_layer_pair->Layer);
                        9488 --line2843
                        9489 ..lin.D.3A.5CRenesas_Electronics.5CD1x_RGL.5Crgl_ghs_D1Lx_obj_V1.2E2.2E0.5Cvlib.5Capp.5Cgfx_apps.5Csimple_draw_d1l2.5Ctarget.5Cd1lx_mango_ghs.5Cobj.5Cr_sys_wm.454::
                        9490 .LDWlin454:
00001e94 3c3f0500       9491 	ld.w	4[r28],r7
00001e98 1b30           9492 	mov	r27,r6
                        9493 	jarl	_loc_VDCE_LayerDisable,lp
                        9493 <EXPANSION BEGIN>
                        9493 jarl22 _loc_VDCE_LayerDisable , lp 
00001e9a bfff2cf0*      9493 <EXPANSION END>
                        9494 --2844:     
                        9495 --2845:     if (0 == loc_WinSetViewportAndGeom( Unit,
                        9496 --line2845
                        9497 ..lin.D.3A.5CRenesas_Electronics.5CD1x_RGL.5Crgl_ghs_D1Lx_obj_V1.2E2.2E0.5Cvlib.5Capp.5Cgfx_apps.5Csimple_draw_d1l2.5Ctarget.5Cd1lx_mango_ghs.5Cobj.5Cr_sys_wm.455::
                        9498 .LDWlin455:
00001e9e 3d370900       9499 	ld.w	8[r29],r6
                        9500 	jarl	_R_WM_ColorFmtBitsPerPixGet,lp
                        9500 <EXPANSION BEGIN>
                        9500 jarl22 _R_WM_ColorFmtBitsPerPixGet , lp 
00001ea2 80ff0000*      9500 <EXPANSION END>
00001ea6 3d771100       9501 	ld.w	16[r29],r14
00001eaa 1b30           9502 	mov	r27,r6
00001eac 3c470500       9503 	ld.w	4[r28],r8
00001eb0 1d38           9504 	mov	r29,r7
00001eb2 3d4f0d00       9505 	ld.w	12[r29],r9
00001eb6 63d70500       9506 	st.w	r26,4[sp]
00001eba 63770100       9507 	st.w	r14,0[sp]
00001ebe 23772d00       9508 	ld.w	44[sp],r14
00001ec2 63cf0900       9509 	st.w	r25,8[sp]
00001ec6 63571100       9510 	st.w	r10,16[sp]
00001eca 63770d00       9511 	st.w	r14,12[sp]
                        9512 	jarl	_loc_WinSetViewportAndGeom,lp
                        9512 <EXPANSION BEGIN>
                        9512 jarl22 _loc_WinSetViewportAndGeom , lp 
00001ece bfff12ed*      9512 <EXPANSION END>
00001ed2 e051           9513 	cmp	zero,r10
00001ed4 ba05*          9514 	bne	.L6375
                        9515 --2846:                                         Win,
                        9516 --2847:                                         win_layer_pair->Layer,
                        9517 --2848:                                         Win->PosX,

                                                                      Page 165
                                                              C:\Users\YINGAO~1\AppData\Local\Temp\gh_000084c1.si
                        9518 --2849:                                         Win->PosY,
                        9519 --2850:                                         Pitch,
                        9520 --2851:                                         Width,
                        9521 --2852:                                         Height,
                        9522 --2853:                                         R_WM_ColorFmtBitsPerPixGet(Win->ColorFmt) ))
                        9523 --2854:     {
                        9524 --2855:         return 0;
                        9525 --line2855
                        9526 ..lin.D.3A.5CRenesas_Electronics.5CD1x_RGL.5Crgl_ghs_D1Lx_obj_V1.2E2.2E0.5Cvlib.5Capp.5Cgfx_apps.5Csimple_draw_d1l2.5Ctarget.5Cd1lx_mango_ghs.5Cobj.5Cr_sys_wm.456::
                        9527 .LDWlin456:
00001ed6 0052           9528 	mov	0,r10
00001ed8 b50d*          9529 	br	.L6367
                        9530 .L6375:
                        9531 --2856:     }
                        9532 --2858:     /* If the layer was enabled before configuration, enable it again */
                        9533 --2859:     if (Win->Status == R_WM_WINSTATUS_ENABLED)
                        9534 --line2859
                        9535 ..lin.D.3A.5CRenesas_Electronics.5CD1x_RGL.5Crgl_ghs_D1Lx_obj_V1.2E2.2E0.5Cvlib.5Capp.5Cgfx_apps.5Csimple_draw_d1l2.5Ctarget.5Cd1lx_mango_ghs.5Cobj.5Cr_sys_wm.457::
                        9536 .LDWlin457:
00001eda 3d0f0100       9537 	ld.w	0[r29],r1
00001ede 620a           9538 	cmp	2,r1
00001ee0 ea05*          9539 	bne	.L6378
                        9540 --2860:     {
                        9541 --2861:         loc_VDCE_LayerEnable(Unit, win_layer_pair->Layer);
                        9542 --line2861
                        9543 ..lin.D.3A.5CRenesas_Electronics.5CD1x_RGL.5Crgl_ghs_D1Lx_obj_V1.2E2.2E0.5Cvlib.5Capp.5Cgfx_apps.5Csimple_draw_d1l2.5Ctarget.5Cd1lx_mango_ghs.5Cobj.5Cr_sys_wm.458::
                        9544 .LDWlin458:
00001ee2 3c3f0500       9545 	ld.w	4[r28],r7
00001ee6 1b30           9546 	mov	r27,r6
                        9547 	jarl	_loc_VDCE_LayerEnable,lp
                        9547 <EXPANSION BEGIN>
                        9547 jarl22 _loc_VDCE_LayerEnable , lp 
00001ee8 bfff88ef*      9547 <EXPANSION END>
                        9548 .L6378:
                        9549 --2862:     }
                        9550 --2864:     return 1;
                        9551 --line2864
                        9552 ..lin.D.3A.5CRenesas_Electronics.5CD1x_RGL.5Crgl_ghs_D1Lx_obj_V1.2E2.2E0.5Cvlib.5Capp.5Cgfx_apps.5Csimple_draw_d1l2.5Ctarget.5Cd1lx_mango_ghs.5Cobj.5Cr_sys_wm.459::
                        9553 .LDWlin459:
00001eec 0152           9554 	mov	1,r10
                        9555 .L6367:
                        9556 --	    .ef
                        9557 .LDW342:
00001eee 4a06ff70       9558 	dispose	5,{r25,r26,r27,r28,r29,r31},[lp]
                        9559 	.type	_R_WM_Sys_WindowGeomSet,@function
                        9560 	.size	_R_WM_Sys_WindowGeomSet,.-_R_WM_Sys_WindowGeomSet
                        9561 	.align	2
                        9562 .LDW442:
                        9563 --_win_layer_pair	r28	local
                        9564 
                        9565 --_Unit	r27	param
                        9566 --_Win	r29	param
                        9567 --_Pitch	r26	param
                        9568 --_Width	r25	param
                        9569 --_Height	44[sp]	param
                        9570 
                        9571 	.section ".bss","awb"
                        9572 .L6412:
                        9573 	.type	.L6412,@object
                        9574 	.size	.L6412,0
                        9575 	.data

                                                                      Page 166
                                                              C:\Users\YINGAO~1\AppData\Local\Temp\gh_000084c1.si
                        9576 	.text
                        9577 
                        9578 --2865: }
                        9579 
                        9580 --2867: uint32_t R_WM_Sys_WindowColorFmtSet (   uint32_t                Unit,
                        9581 	.align	2
                        9582 	.align	2
                        9583 	.global	_R_WM_Sys_WindowColorFmtSet
                        9584 _R_WM_Sys_WindowColorFmtSet:
00001ef2 8007e170       9585 	prepare	{r25,r26,r27,r28,r29,r31},0
00001ef6 06d8           9586 	mov	r6,r27
00001ef8 07e0           9587 	mov	r7,r28
00001efa 08d0           9588 	mov	r8,r26
                        9589 --	    .bf
                        9590 .LDW542:
                        9591 --2868:                                         const r_wm_Window_t*    Win,
                        9592 --2869:                                         r_wm_WinColorFmt_t      ColorFmt
                        9593 --2870:                                     )
                        9594 --2871: {
                        9595 --2872:     r_wm_sys_vdce_WinLayerPair_t* win_layer_pair = loc_WinLayerPairGet(Unit, Win);
00001efc 1b30           9596 	mov	r27,r6
00001efe 1c38           9597 	mov	r28,r7
                        9598 	jarl	_loc_WinLayerPairGet,lp
                        9598 <EXPANSION BEGIN>
                        9598 jarl22 _loc_WinLayerPairGet , lp 
00001f00 bfffcce6*      9598 <EXPANSION END>
00001f04 0ae8           9599 	mov	r10,r29
                        9600 --2873:     if (win_layer_pair == R_NULL)
                        9601 --line2873
                        9602 ..lin.D.3A.5CRenesas_Electronics.5CD1x_RGL.5Crgl_ghs_D1Lx_obj_V1.2E2.2E0.5Cvlib.5Capp.5Cgfx_apps.5Csimple_draw_d1l2.5Ctarget.5Cd1lx_mango_ghs.5Cobj.5Cr_sys_wm.460::
                        9603 .LDWlin460:
00001f06 e0e9           9604 	cmp	zero,r29
00001f08 ba05*          9605 	bne	.L6456
                        9606 --2874:     {
                        9607 --2875:         R_WM_SYS_REPORT_ERROR(Unit, R_WM_ERR_NULL_PTR_ARGUMENT, 0);
                        9608 --2876:         return 0;
                        9609 --line2876
                        9610 ..lin.D.3A.5CRenesas_Electronics.5CD1x_RGL.5Crgl_ghs_D1Lx_obj_V1.2E2.2E0.5Cvlib.5Capp.5Cgfx_apps.5Csimple_draw_d1l2.5Ctarget.5Cd1lx_mango_ghs.5Cobj.5Cr_sys_wm.461::
                        9611 .LDWlin461:
00001f0a 0052           9612 	mov	0,r10
00001f0c e53d*          9613 	br	.L6454
                        9614 .L6456:
                        9615 --2877:     }
                        9616 --2878:     if (win_layer_pair->Layer == LOC_INVALID_LAYER)
                        9617 --line2878
                        9618 ..lin.D.3A.5CRenesas_Electronics.5CD1x_RGL.5Crgl_ghs_D1Lx_obj_V1.2E2.2E0.5Cvlib.5Capp.5Cgfx_apps.5Csimple_draw_d1l2.5Ctarget.5Cd1lx_mango_ghs.5Cobj.5Cr_sys_wm.462::
                        9619 .LDWlin462:
00001f0e 3d0f0500       9620 	ld.w	4[r29],r1
00001f12 7f0a           9621 	cmp	-1,r1
00001f14 ba05*          9622 	bne	.L6459
                        9623 --2879:     {
                        9624 --2880:         R_WM_SYS_REPORT_ERROR(Unit, R_WM_ERR_RANGE_WM, 0);
                        9625 --2881:         return 0;
                        9626 --line2881
                        9627 ..lin.D.3A.5CRenesas_Electronics.5CD1x_RGL.5Crgl_ghs_D1Lx_obj_V1.2E2.2E0.5Cvlib.5Capp.5Cgfx_apps.5Csimple_draw_d1l2.5Ctarget.5Cd1lx_mango_ghs.5Cobj.5Cr_sys_wm.463::
                        9628 .LDWlin463:
00001f16 0052           9629 	mov	0,r10
00001f18 853d*          9630 	br	.L6454
                        9631 .L6459:
                        9632 --2882:     }
                        9633 --2883:     

                                                                      Page 167
                                                              C:\Users\YINGAO~1\AppData\Local\Temp\gh_000084c1.si
                        9634 --2884:     if ( R_WM_ColorFmtBitsPerPixGet(Win->ColorFmt) != R_WM_ColorFmtBitsPerPixGet(ColorFmt) )
                        9635 --line2884
                        9636 ..lin.D.3A.5CRenesas_Electronics.5CD1x_RGL.5Crgl_ghs_D1Lx_obj_V1.2E2.2E0.5Cvlib.5Capp.5Cgfx_apps.5Csimple_draw_d1l2.5Ctarget.5Cd1lx_mango_ghs.5Cobj.5Cr_sys_wm.464::
                        9637 .LDWlin464:
00001f1a 3c370900       9638 	ld.w	8[r28],r6
                        9639 	jarl	_R_WM_ColorFmtBitsPerPixGet,lp
                        9639 <EXPANSION BEGIN>
                        9639 jarl22 _R_WM_ColorFmtBitsPerPixGet , lp 
00001f1e 80ff0000*      9639 <EXPANSION END>
00001f22 0ac8           9640 	mov	r10,r25
00001f24 1a30           9641 	mov	r26,r6
                        9642 	jarl	_R_WM_ColorFmtBitsPerPixGet,lp
                        9642 <EXPANSION BEGIN>
                        9642 jarl22 _R_WM_ColorFmtBitsPerPixGet , lp 
00001f26 80ff0000*      9642 <EXPANSION END>
00001f2a eac9           9643 	cmp	r10,r25
00001f2c a215*          9644 	be	.L6462
                        9645 --2885:     {
                        9646 --2886:         if (Win->Mode == R_WM_WINMODE_SPRITES)
                        9647 --line2886
                        9648 ..lin.D.3A.5CRenesas_Electronics.5CD1x_RGL.5Crgl_ghs_D1Lx_obj_V1.2E2.2E0.5Cvlib.5Capp.5Cgfx_apps.5Csimple_draw_d1l2.5Ctarget.5Cd1lx_mango_ghs.5Cobj.5Cr_sys_wm.465::
                        9649 .LDWlin465:
00001f2e 3c0f0500       9650 	ld.w	4[r28],r1
00001f32 610a           9651 	cmp	1,r1
00001f34 ea0d*          9652 	bne	.L6462
                        9653 --2887:         {
                        9654 --2888:             if (R_VDCE_ERR_OK != R_VDCE_LayerMemGeometrySet(Unit, win_layer_pair->Layer, Win->Pitch, Win->Height))
                        9655 --line2888
                        9656 ..lin.D.3A.5CRenesas_Electronics.5CD1x_RGL.5Crgl_ghs_D1Lx_obj_V1.2E2.2E0.5Cvlib.5Capp.5Cgfx_apps.5Csimple_draw_d1l2.5Ctarget.5Cd1lx_mango_ghs.5Cobj.5Cr_sys_wm.466::
                        9657 .LDWlin466:
00001f36 3d3f0500       9658 	ld.w	4[r29],r7
00001f3a 1b30           9659 	mov	r27,r6
00001f3c 3c471900       9660 	ld.w	24[r28],r8
00001f40 3c4f2100       9661 	ld.w	32[r28],r9
                        9662 	jarl	_R_VDCE_LayerMemGeometrySet,lp
                        9662 <EXPANSION BEGIN>
                        9662 jarl22 _R_VDCE_LayerMemGeometrySet , lp 
00001f44 80ff0000*      9662 <EXPANSION END>
00001f48 e051           9663 	cmp	zero,r10
00001f4a b205*          9664 	be	.L6462
                        9665 --2889:             {
                        9666 --2890:                 return 0;
                        9667 --line2890
                        9668 ..lin.D.3A.5CRenesas_Electronics.5CD1x_RGL.5Crgl_ghs_D1Lx_obj_V1.2E2.2E0.5Cvlib.5Capp.5Cgfx_apps.5Csimple_draw_d1l2.5Ctarget.5Cd1lx_mango_ghs.5Cobj.5Cr_sys_wm.467::
                        9669 .LDWlin467:
00001f4c 0052           9670 	mov	0,r10
00001f4e d51d*          9671 	br	.L6454
                        9672 .L6462:
                        9673 --2891:             }
                        9674 --2892:         }
                        9675 --2893:     }
                        9676 --2894:     
                        9677 --2895:     /* The Layer must be disabled for color format configuration */
                        9678 --2896:     loc_VDCE_LayerDisable(Unit, win_layer_pair->Layer);
                        9679 --line2896
                        9680 ..lin.D.3A.5CRenesas_Electronics.5CD1x_RGL.5Crgl_ghs_D1Lx_obj_V1.2E2.2E0.5Cvlib.5Capp.5Cgfx_apps.5Csimple_draw_d1l2.5Ctarget.5Cd1lx_mango_ghs.5Cobj.5Cr_sys_wm.468::
                        9681 .LDWlin468:
00001f50 3d3f0500       9682 	ld.w	4[r29],r7
00001f54 1b30           9683 	mov	r27,r6
                        9684 	jarl	_loc_VDCE_LayerDisable,lp
                        9684 <EXPANSION BEGIN>

                                                                      Page 168
                                                              C:\Users\YINGAO~1\AppData\Local\Temp\gh_000084c1.si
                        9684 jarl22 _loc_VDCE_LayerDisable , lp 
00001f56 bfff70ef*      9684 <EXPANSION END>
                        9685 --2897:     
                        9686 --2898:     if (R_VDCE_ERR_OK != R_VDCE_LayerFormatSet(Unit, win_layer_pair->Layer, loc_GetVdceFormat(ColorFmt)))
                        9687 --line2898
                        9688 ..lin.D.3A.5CRenesas_Electronics.5CD1x_RGL.5Crgl_ghs_D1Lx_obj_V1.2E2.2E0.5Cvlib.5Capp.5Cgfx_apps.5Csimple_draw_d1l2.5Ctarget.5Cd1lx_mango_ghs.5Cobj.5Cr_sys_wm.469::
                        9689 .LDWlin469:
00001f5a 1a30           9690 	mov	r26,r6
                        9691 	jarl	_loc_GetVdceFormat,lp
                        9691 <EXPANSION BEGIN>
                        9691 jarl22 _loc_GetVdceFormat , lp 
00001f5c bfff1ae4*      9691 <EXPANSION END>
00001f60 3d3f0500       9692 	ld.w	4[r29],r7
00001f64 1b30           9693 	mov	r27,r6
00001f66 0a40           9694 	mov	r10,r8
                        9695 	jarl	_R_VDCE_LayerFormatSet,lp
                        9695 <EXPANSION BEGIN>
                        9695 jarl22 _R_VDCE_LayerFormatSet , lp 
00001f68 80ff0000*      9695 <EXPANSION END>
00001f6c e051           9696 	cmp	zero,r10
00001f6e b205*          9697 	be	.L6469
                        9698 --2899:     {
                        9699 --2900:         return 0;
                        9700 --line2900
                        9701 ..lin.D.3A.5CRenesas_Electronics.5CD1x_RGL.5Crgl_ghs_D1Lx_obj_V1.2E2.2E0.5Cvlib.5Capp.5Cgfx_apps.5Csimple_draw_d1l2.5Ctarget.5Cd1lx_mango_ghs.5Cobj.5Cr_sys_wm.470::
                        9702 .LDWlin470:
00001f70 0052           9703 	mov	0,r10
00001f72 b50d*          9704 	br	.L6454
                        9705 .L6469:
                        9706 --2901:     }
                        9707 --2902:     
                        9708 --2903:     /* If the layer was enabled before configuration, enable it again */
                        9709 --2904:     if (Win->Status == R_WM_WINSTATUS_ENABLED)
                        9710 --line2904
                        9711 ..lin.D.3A.5CRenesas_Electronics.5CD1x_RGL.5Crgl_ghs_D1Lx_obj_V1.2E2.2E0.5Cvlib.5Capp.5Cgfx_apps.5Csimple_draw_d1l2.5Ctarget.5Cd1lx_mango_ghs.5Cobj.5Cr_sys_wm.471::
                        9712 .LDWlin471:
00001f74 3c0f0100       9713 	ld.w	0[r28],r1
00001f78 620a           9714 	cmp	2,r1
00001f7a ea05*          9715 	bne	.L6472
                        9716 --2905:     {
                        9717 --2906:         loc_VDCE_LayerEnable(Unit, win_layer_pair->Layer);
                        9718 --line2906
                        9719 ..lin.D.3A.5CRenesas_Electronics.5CD1x_RGL.5Crgl_ghs_D1Lx_obj_V1.2E2.2E0.5Cvlib.5Capp.5Cgfx_apps.5Csimple_draw_d1l2.5Ctarget.5Cd1lx_mango_ghs.5Cobj.5Cr_sys_wm.472::
                        9720 .LDWlin472:
00001f7c 3d3f0500       9721 	ld.w	4[r29],r7
00001f80 1b30           9722 	mov	r27,r6
                        9723 	jarl	_loc_VDCE_LayerEnable,lp
                        9723 <EXPANSION BEGIN>
                        9723 jarl22 _loc_VDCE_LayerEnable , lp 
00001f82 bfffeeee*      9723 <EXPANSION END>
                        9724 .L6472:
                        9725 --2907:     }
                        9726 --2908:     
                        9727 --2909:     return 1;
                        9728 --line2909
                        9729 ..lin.D.3A.5CRenesas_Electronics.5CD1x_RGL.5Crgl_ghs_D1Lx_obj_V1.2E2.2E0.5Cvlib.5Capp.5Cgfx_apps.5Csimple_draw_d1l2.5Ctarget.5Cd1lx_mango_ghs.5Cobj.5Cr_sys_wm.473::
                        9730 .LDWlin473:
00001f86 0152           9731 	mov	1,r10
                        9732 .L6454:
                        9733 --	    .ef
                        9734 .LDW642:

                                                                      Page 169
                                                              C:\Users\YINGAO~1\AppData\Local\Temp\gh_000084c1.si
00001f88 4006ff70       9735 	dispose	0,{r25,r26,r27,r28,r29,r31},[lp]
                        9736 	.type	_R_WM_Sys_WindowColorFmtSet,@function
                        9737 	.size	_R_WM_Sys_WindowColorFmtSet,.-_R_WM_Sys_WindowColorFmtSet
                        9738 	.align	2
                        9739 .LDW742:
                        9740 --_win_layer_pair	r29	local
                        9741 
                        9742 --_Unit	r27	param
                        9743 --_Win	r28	param
                        9744 --_ColorFmt	r26	param
                        9745 
                        9746 	.section ".bss","awb"
                        9747 .L6516:
                        9748 	.type	.L6516,@object
                        9749 	.size	.L6516,0
                        9750 	.data
                        9751 	.text
                        9752 
                        9753 --2910: }
                        9754 
                        9755 --2912: uint32_t R_WM_Sys_SpriteCreate(uint32_t Unit, const r_wm_Sprite_t* Sprite)
                        9756 	.align	2
                        9757 	.align	2
                        9758 	.global	_R_WM_Sys_SpriteCreate
                        9759 _R_WM_Sys_SpriteCreate:
00001f8c 8407e110       9760 	prepare	{r27,r28,r29,r31},2
00001f90 06e8           9761 	mov	r6,r29
00001f92 07d8           9762 	mov	r7,r27
                        9763 --	    .bf
                        9764 .LDW842:
                        9765 --2913: {
                        9766 --2914:     r_wm_sys_vdce_WinLayerPair_t* win_layer_pair = loc_WinLayerPairGet(Unit, Sprite->Window);
00001f94 3b3f0100       9767 	ld.w	0[r27],r7
00001f98 1d30           9768 	mov	r29,r6
                        9769 	jarl	_loc_WinLayerPairGet,lp
                        9769 <EXPANSION BEGIN>
                        9769 jarl22 _loc_WinLayerPairGet , lp 
00001f9a bfff32e6*      9769 <EXPANSION END>
00001f9e 0ae0           9770 	mov	r10,r28
                        9771 --2915:     uint8_t spea_unit_ordinal;
                        9772 --2916:     r_spea_Unit_t spea_unit;
                        9773 --2918:     if (win_layer_pair == R_NULL)
                        9774 --line2918
                        9775 ..lin.D.3A.5CRenesas_Electronics.5CD1x_RGL.5Crgl_ghs_D1Lx_obj_V1.2E2.2E0.5Cvlib.5Capp.5Cgfx_apps.5Csimple_draw_d1l2.5Ctarget.5Cd1lx_mango_ghs.5Cobj.5Cr_sys_wm.474::
                        9776 .LDWlin474:
00001fa0 e0e1           9777 	cmp	zero,r28
00001fa2 ba05*          9778 	bne	.L6572
                        9779 --2919:     {
                        9780 --2920:         R_WM_SYS_REPORT_ERROR(Unit, R_WM_ERR_NULL_PTR_ARGUMENT, 0);
                        9781 --2921:         return 0;
                        9782 --line2921
                        9783 ..lin.D.3A.5CRenesas_Electronics.5CD1x_RGL.5Crgl_ghs_D1Lx_obj_V1.2E2.2E0.5Cvlib.5Capp.5Cgfx_apps.5Csimple_draw_d1l2.5Ctarget.5Cd1lx_mango_ghs.5Cobj.5Cr_sys_wm.475::
                        9784 .LDWlin475:
00001fa4 0052           9785 	mov	0,r10
00001fa6 9525*          9786 	br	.L6570
                        9787 .L6572:
                        9788 --2922:     }
                        9789 --2923:     
                        9790 --2924:     loc_Layer2Spea(Unit, win_layer_pair->Layer, &spea_unit, &spea_unit_ordinal);
                        9791 --line2924
                        9792 ..lin.D.3A.5CRenesas_Electronics.5CD1x_RGL.5Crgl_ghs_D1Lx_obj_V1.2E2.2E0.5Cvlib.5Capp.5Cgfx_apps.5Csimple_draw_d1l2.5Ctarget.5Cd1lx_mango_ghs.5Cobj.5Cr_sys_wm.476::

                                                                      Page 170
                                                              C:\Users\YINGAO~1\AppData\Local\Temp\gh_000084c1.si
                        9793 .LDWlin476:
00001fa8 3c3f0500       9794 	ld.w	4[r28],r7
00001fac 1d30           9795 	mov	r29,r6
00001fae 23460400       9796 	movea	4,sp,r8
00001fb2 234e0300       9797 	movea	3,sp,r9
                        9798 	jarl	_loc_Layer2Spea,lp
                        9798 <EXPANSION BEGIN>
                        9798 jarl22 _loc_Layer2Spea , lp 
00001fb6 bfff98e4*      9798 <EXPANSION END>
                        9799 --2925:     r_wm_DevSys[Unit].FrameStatusFlags |= (1uL << (R_WM_SYS_FRAME_STATUS_SPEA_SU0_REASSIGN_BIT+spea_unit_ordinal));
                        9800 --line2925
                        9801 ..lin.D.3A.5CRenesas_Electronics.5CD1x_RGL.5Crgl_ghs_D1Lx_obj_V1.2E2.2E0.5Cvlib.5Capp.5Cgfx_apps.5Csimple_draw_d1l2.5Ctarget.5Cd1lx_mango_ghs.5Cobj.5Cr_sys_wm.477::
                        9802 .LDWlin477:
00001fba a30f0300       9803 	ld.bu	3[sp],r1
00001fbe 1df0           9804 	mov	r29,ep
00001fc0 fe00           9805 	sxh	ep
00001fc2 0172           9806 	mov	1,r14
00001fc4 fef66000       9807 	mulhi	96,ep,ep
00001fc8 2d0600000000*  9808 	mov	_r_wm_DevSys,r13
00001fce 440a           9809 	add	4,r1
00001fd0 e177c270       9810 	shl	r1,r14,r14
00001fd4 cdf1           9811 	add	r13,ep
00001fd6 2a0d           9812 	sld.w	84[ep],r1
00001fd8 0e09           9813 	or	r14,r1
00001fda 2b0d           9814 	sst.w	r1,84[ep]
                        9815 --2927:     /* make the sprite initially invisible */
                        9816 --2928:     R_WM_Sys_SpriteEnable(Unit, Sprite, 0);
00001fdc 1d30           9817 	mov	r29,r6
00001fde 1b38           9818 	mov	r27,r7
00001fe0 0042           9819 	mov	0,r8
                        9820 	jarl	_R_WM_Sys_SpriteEnable,lp
                        9820 <EXPANSION BEGIN>
                        9820 jarl22 _R_WM_Sys_SpriteEnable , lp 
00001fe2 80ff0a00*      9820 <EXPANSION END>
                        9821 --2929:     return 1;
                        9822 --line2929
                        9823 ..lin.D.3A.5CRenesas_Electronics.5CD1x_RGL.5Crgl_ghs_D1Lx_obj_V1.2E2.2E0.5Cvlib.5Capp.5Cgfx_apps.5Csimple_draw_d1l2.5Ctarget.5Cd1lx_mango_ghs.5Cobj.5Cr_sys_wm.478::
                        9824 .LDWlin478:
00001fe6 0152           9825 	mov	1,r10
                        9826 .L6570:
                        9827 --	    .ef
                        9828 .LDW942:
00001fe8 4406ff10       9829 	dispose	2,{r27,r28,r29,r31},[lp]
                        9830 	.type	_R_WM_Sys_SpriteCreate,@function
                        9831 	.size	_R_WM_Sys_SpriteCreate,.-_R_WM_Sys_SpriteCreate
                        9832 	.align	2
                        9833 .LDW052:
                        9834 --_win_layer_pair	r28	local
                        9835 --_spea_unit_ordinal	3[sp]	local
                        9836 --_spea_unit	4[sp]	local
                        9837 
                        9838 --_Unit	r29	param
                        9839 --_Sprite	r27	param
                        9840 
                        9841 	.section ".bss","awb"
                        9842 .L6596:
                        9843 	.type	.L6596,@object
                        9844 	.size	.L6596,0
                        9845 	.data
                        9846 	.text
                        9847 

                                                                      Page 171
                                                              C:\Users\YINGAO~1\AppData\Local\Temp\gh_000084c1.si
                        9848 --2930: }
                        9849 
                        9850 --2932: uint32_t R_WM_Sys_SpriteEnable(uint32_t Unit, const r_wm_Sprite_t* Sprite, uint32_t Enabled)
                        9851 	.align	2
                        9852 	.align	2
                        9853 	.global	_R_WM_Sys_SpriteEnable
                        9854 _R_WM_Sys_SpriteEnable:
00001fec 8407e170       9855 	prepare	{r25,r26,r27,r28,r29,r31},2
00001ff0 06e0           9856 	mov	r6,r28
00001ff2 07d0           9857 	mov	r7,r26
00001ff4 08c8           9858 	mov	r8,r25
                        9859 --	    .bf
                        9860 .LDW152:
                        9861 --2933: {
                        9862 --2934:     r_wm_sys_vdce_WinLayerPair_t* win_layer_pair = loc_WinLayerPairGet(Unit, Sprite->Window);
00001ff6 3a3f0100       9863 	ld.w	0[r26],r7
00001ffa 1c30           9864 	mov	r28,r6
                        9865 	jarl	_loc_WinLayerPairGet,lp
                        9865 <EXPANSION BEGIN>
                        9865 jarl22 _loc_WinLayerPairGet , lp 
00001ffc bfffd0e5*      9865 <EXPANSION END>
00002000 0ad8           9866 	mov	r10,r27
                        9867 --2935:     uint8_t sprite_no = LOC_INVALID_SPRITE;
                        9868 --line2935
                        9869 ..lin.D.3A.5CRenesas_Electronics.5CD1x_RGL.5Crgl_ghs_D1Lx_obj_V1.2E2.2E0.5Cvlib.5Capp.5Cgfx_apps.5Csimple_draw_d1l2.5Ctarget.5Cd1lx_mango_ghs.5Cobj.5Cr_sys_wm.479::
                        9870 .LDWlin479:
00002002 20ee1000       9871 	movea	16,zero,r29
                        9872 --2936:     r_spea_Unit_t spea_unit;
                        9873 --2937:     uint8_t spea_unit_ordinal;
                        9874 --2938:     
                        9875 --2939:     if (win_layer_pair == R_NULL)
00002006 e0d9           9876 	cmp	zero,r27
00002008 ba05*          9877 	bne	.L6628
                        9878 --2940:     {
                        9879 --2941:         R_WM_SYS_REPORT_ERROR(Unit, R_WM_ERR_NULL_PTR_ARGUMENT, 0);
                        9880 --2942:         return 0;
                        9881 --line2942
                        9882 ..lin.D.3A.5CRenesas_Electronics.5CD1x_RGL.5Crgl_ghs_D1Lx_obj_V1.2E2.2E0.5Cvlib.5Capp.5Cgfx_apps.5Csimple_draw_d1l2.5Ctarget.5Cd1lx_mango_ghs.5Cobj.5Cr_sys_wm.480::
                        9883 .LDWlin480:
0000200a 0052           9884 	mov	0,r10
0000200c a535*          9885 	br	.L6626
                        9886 .L6628:
                        9887 --2943:     }
                        9888 --2945:     loc_Layer2Spea(Unit, win_layer_pair->Layer, &spea_unit, &spea_unit_ordinal);
                        9889 --line2945
                        9890 ..lin.D.3A.5CRenesas_Electronics.5CD1x_RGL.5Crgl_ghs_D1Lx_obj_V1.2E2.2E0.5Cvlib.5Capp.5Cgfx_apps.5Csimple_draw_d1l2.5Ctarget.5Cd1lx_mango_ghs.5Cobj.5Cr_sys_wm.481::
                        9891 .LDWlin481:
0000200e 3b3f0500       9892 	ld.w	4[r27],r7
00002012 1c30           9893 	mov	r28,r6
00002014 23460400       9894 	movea	4,sp,r8
00002018 234e0300       9895 	movea	3,sp,r9
                        9896 	jarl	_loc_Layer2Spea,lp
                        9896 <EXPANSION BEGIN>
                        9896 jarl22 _loc_Layer2Spea , lp 
0000201c bfff32e4*      9896 <EXPANSION END>
                        9897 --2946:     sprite_no = loc_FindSpriteOrdinal(Unit, Sprite);
                        9898 --line2946
                        9899 ..lin.D.3A.5CRenesas_Electronics.5CD1x_RGL.5Crgl_ghs_D1Lx_obj_V1.2E2.2E0.5Cvlib.5Capp.5Cgfx_apps.5Csimple_draw_d1l2.5Ctarget.5Cd1lx_mango_ghs.5Cobj.5Cr_sys_wm.482::
                        9900 .LDWlin482:
00002020 1c30           9901 	mov	r28,r6
00002022 1a38           9902 	mov	r26,r7

                                                                      Page 172
                                                              C:\Users\YINGAO~1\AppData\Local\Temp\gh_000084c1.si
                        9903 	jarl	_loc_FindSpriteOrdinal,lp
                        9903 <EXPANSION BEGIN>
                        9903 jarl22 _loc_FindSpriteOrdinal , lp 
00002024 bfff6ee4*      9903 <EXPANSION END>
00002028 0ae8           9904 	mov	r10,r29
                        9905 --2947:     if (sprite_no == LOC_INVALID_SPRITE)
                        9906 --line2947
                        9907 ..lin.D.3A.5CRenesas_Electronics.5CD1x_RGL.5Crgl_ghs_D1Lx_obj_V1.2E2.2E0.5Cvlib.5Capp.5Cgfx_apps.5Csimple_draw_d1l2.5Ctarget.5Cd1lx_mango_ghs.5Cobj.5Cr_sys_wm.483::
                        9908 .LDWlin483:
0000202a 1d06f0ff       9909 	addi	-16,r29,zero
0000202e ba05*          9910 	bne	.L6631
                        9911 --2948:     {
                        9912 --2949:         R_WM_SYS_REPORT_ERROR(Unit, R_WM_ERR_RANGE_WM, 0);
                        9913 --2950:         return 0;
                        9914 --line2950
                        9915 ..lin.D.3A.5CRenesas_Electronics.5CD1x_RGL.5Crgl_ghs_D1Lx_obj_V1.2E2.2E0.5Cvlib.5Capp.5Cgfx_apps.5Csimple_draw_d1l2.5Ctarget.5Cd1lx_mango_ghs.5Cobj.5Cr_sys_wm.484::
                        9916 .LDWlin484:
00002030 0052           9917 	mov	0,r10
00002032 f51d*          9918 	br	.L6626
                        9919 .L6631:
                        9920 --2951:     }
                        9921 --2952:     
                        9922 --2953:     if (R_SPEA_ERR_OK != R_SPEA_SpriteEnable(0, spea_unit_ordinal, sprite_no, Enabled))
                        9923 --line2953
                        9924 ..lin.D.3A.5CRenesas_Electronics.5CD1x_RGL.5Crgl_ghs_D1Lx_obj_V1.2E2.2E0.5Cvlib.5Capp.5Cgfx_apps.5Csimple_draw_d1l2.5Ctarget.5Cd1lx_mango_ghs.5Cobj.5Cr_sys_wm.485::
                        9925 .LDWlin485:
00002034 a33f0300       9926 	ld.bu	3[sp],r7
00002038 1948           9927 	mov	r25,r9
0000203a 1d40           9928 	mov	r29,r8
0000203c 8900           9929 	zxb	r9
0000203e 0032           9930 	mov	0,r6
                        9931 	jarl	_R_SPEA_SpriteEnable,lp
                        9931 <EXPANSION BEGIN>
                        9931 jarl22 _R_SPEA_SpriteEnable , lp 
00002040 80ff0000*      9931 <EXPANSION END>
00002044 e051           9932 	cmp	zero,r10
00002046 b205*          9933 	be	.L6634
                        9934 --2954:     {
                        9935 --2955:         return 0;
                        9936 --line2955
                        9937 ..lin.D.3A.5CRenesas_Electronics.5CD1x_RGL.5Crgl_ghs_D1Lx_obj_V1.2E2.2E0.5Cvlib.5Capp.5Cgfx_apps.5Csimple_draw_d1l2.5Ctarget.5Cd1lx_mango_ghs.5Cobj.5Cr_sys_wm.486::
                        9938 .LDWlin486:
00002048 0052           9939 	mov	0,r10
0000204a b515*          9940 	br	.L6626
                        9941 .L6634:
                        9942 --2956:     }
                        9943 --2957:     
                        9944 --2958:     /* Set respective R_WM_SYS_FRAME_STATUS_SPEA_SUn_UPDATE_BIT */
                        9945 --2959:     r_wm_DevSys[Unit].FrameStatusFlags |= (1uL << (R_WM_SYS_FRAME_STATUS_SPEA_SU0_UPDATE_BIT+spea_unit_ordinal));
                        9946 --line2959
                        9947 ..lin.D.3A.5CRenesas_Electronics.5CD1x_RGL.5Crgl_ghs_D1Lx_obj_V1.2E2.2E0.5Cvlib.5Capp.5Cgfx_apps.5Csimple_draw_d1l2.5Ctarget.5Cd1lx_mango_ghs.5Cobj.5Cr_sys_wm.487::
                        9948 .LDWlin487:
0000204c a30f0300       9949 	ld.bu	3[sp],r1
00002050 1cf0           9950 	mov	r28,ep
00002052 fe00           9951 	sxh	ep
00002054 0172           9952 	mov	1,r14
00002056 fef66000       9953 	mulhi	96,ep,ep
0000205a 2d0600000000*  9954 	mov	_r_wm_DevSys,r13
00002060 410a           9955 	add	1,r1
00002062 e177c270       9956 	shl	r1,r14,r14
00002066 cdf1           9957 	add	r13,ep

                                                                      Page 173
                                                              C:\Users\YINGAO~1\AppData\Local\Temp\gh_000084c1.si
00002068 2a0d           9958 	sld.w	84[ep],r1
0000206a 0e09           9959 	or	r14,r1
0000206c 2b0d           9960 	sst.w	r1,84[ep]
                        9961 --2960:     return 1;
0000206e 0152           9962 	mov	1,r10
                        9963 .L6626:
                        9964 --	    .ef
                        9965 .LDW252:
00002070 4406ff70       9966 	dispose	2,{r25,r26,r27,r28,r29,r31},[lp]
                        9967 	.type	_R_WM_Sys_SpriteEnable,@function
                        9968 	.size	_R_WM_Sys_SpriteEnable,.-_R_WM_Sys_SpriteEnable
                        9969 	.align	2
                        9970 .LDW352:
                        9971 --_win_layer_pair	r27	local
                        9972 --_sprite_no	r29	local
                        9973 --_spea_unit	4[sp]	local
                        9974 --_spea_unit_ordinal	3[sp]	local
                        9975 
                        9976 --_Unit	r28	param
                        9977 --_Sprite	r26	param
                        9978 --_Enabled	r25	param
                        9979 
                        9980 	.section ".bss","awb"
                        9981 .L6670:
                        9982 	.type	.L6670,@object
                        9983 	.size	.L6670,0
                        9984 	.data
                        9985 	.text
                        9986 
                        9987 --2961: }
                        9988 
                        9989 --2963: uint32_t R_WM_Sys_SpriteDelete(uint32_t Unit, const r_wm_Sprite_t* Sprite)
                        9990 	.align	2
                        9991 	.align	2
                        9992 	.global	_R_WM_Sys_SpriteDelete
                        9993 _R_WM_Sys_SpriteDelete:
00002074 8407e110       9994 	prepare	{r27,r28,r29,r31},2
00002078 06e8           9995 	mov	r6,r29
0000207a 07d8           9996 	mov	r7,r27
                        9997 --	    .bf
                        9998 .LDW452:
                        9999 --2964: {
                       10000 --2965:     r_wm_sys_vdce_WinLayerPair_t* win_layer_pair = loc_WinLayerPairGet(Unit, Sprite->Window);
0000207c 3b3f0100      10001 	ld.w	0[r27],r7
00002080 1d30          10002 	mov	r29,r6
                       10003 	jarl	_loc_WinLayerPairGet,lp
                       10003 <EXPANSION BEGIN>
                       10003 jarl22 _loc_WinLayerPairGet , lp 
00002082 bfff4ae5*     10003 <EXPANSION END>
00002086 0ae0          10004 	mov	r10,r28
                       10005 --2966:     uint8_t spea_unit_ordinal;
                       10006 --2967:     r_spea_Unit_t spea_unit;
                       10007 --2968:     
                       10008 --2969:     loc_Layer2Spea(Unit, win_layer_pair->Layer, &spea_unit, &spea_unit_ordinal);
                       10009 --line2969
                       10010 ..lin.D.3A.5CRenesas_Electronics.5CD1x_RGL.5Crgl_ghs_D1Lx_obj_V1.2E2.2E0.5Cvlib.5Capp.5Cgfx_apps.5Csimple_draw_d1l2.5Ctarget.5Cd1lx_mango_ghs.5Cobj.5Cr_sys_wm.488::
                       10011 .LDWlin488:
00002088 3c3f0500      10012 	ld.w	4[r28],r7
0000208c 1d30          10013 	mov	r29,r6
0000208e 23460400      10014 	movea	4,sp,r8
00002092 234e0300      10015 	movea	3,sp,r9

                                                                      Page 174
                                                              C:\Users\YINGAO~1\AppData\Local\Temp\gh_000084c1.si
                       10016 	jarl	_loc_Layer2Spea,lp
                       10016 <EXPANSION BEGIN>
                       10016 jarl22 _loc_Layer2Spea , lp 
00002096 bfffb8e3*     10016 <EXPANSION END>
                       10017 --2970:     r_wm_DevSys[Unit].FrameStatusFlags |= (1uL << (R_WM_SYS_FRAME_STATUS_SPEA_SU0_REASSIGN_BIT+spea_unit_ordinal));
                       10018 --line2970
                       10019 ..lin.D.3A.5CRenesas_Electronics.5CD1x_RGL.5Crgl_ghs_D1Lx_obj_V1.2E2.2E0.5Cvlib.5Capp.5Cgfx_apps.5Csimple_draw_d1l2.5Ctarget.5Cd1lx_mango_ghs.5Cobj.5Cr_sys_wm.489::
                       10020 .LDWlin489:
0000209a a30f0300      10021 	ld.bu	3[sp],r1
0000209e 1df0          10022 	mov	r29,ep
000020a0 fe00          10023 	sxh	ep
000020a2 0172          10024 	mov	1,r14
000020a4 fef66000      10025 	mulhi	96,ep,ep
000020a8 2d0600000000* 10026 	mov	_r_wm_DevSys,r13
000020ae 440a          10027 	add	4,r1
000020b0 e177c270      10028 	shl	r1,r14,r14
000020b4 cdf1          10029 	add	r13,ep
000020b6 2a0d          10030 	sld.w	84[ep],r1
000020b8 0e09          10031 	or	r14,r1
000020ba 2b0d          10032 	sst.w	r1,84[ep]
                       10033 --2972:     return 1;
000020bc 0152          10034 	mov	1,r10
                       10035 --	    .ef
                       10036 .LDW552:
000020be 4406ff10      10037 	dispose	2,{r27,r28,r29,r31},[lp]
                       10038 	.type	_R_WM_Sys_SpriteDelete,@function
                       10039 	.size	_R_WM_Sys_SpriteDelete,.-_R_WM_Sys_SpriteDelete
                       10040 	.align	2
                       10041 .LDW652:
                       10042 --_win_layer_pair	r28	local
                       10043 --_spea_unit_ordinal	3[sp]	local
                       10044 --_spea_unit	4[sp]	local
                       10045 
                       10046 --_Unit	r29	param
                       10047 --_Sprite	r27	param
                       10048 
                       10049 	.section ".bss","awb"
                       10050 .L6734:
                       10051 	.type	.L6734,@object
                       10052 	.size	.L6734,0
                       10053 	.data
                       10054 	.text
                       10055 
                       10056 --2973: }
                       10057 
                       10058 --2975: uint32_t R_WM_Sys_SpriteMove(uint32_t Unit, const r_wm_Sprite_t* Sprite, uint32_t PosX, uint32_t PosY, uint32_t PosZ)
                       10059 	.align	2
                       10060 	.align	2
                       10061 	.global	_R_WM_Sys_SpriteMove
                       10062 _R_WM_Sys_SpriteMove:
000020c2 8c07e170      10063 	prepare	{r25,r26,r27,r28,r29,r31},6
000020c6 06e0          10064 	mov	r6,r28
000020c8 07d8          10065 	mov	r7,r27
000020ca 63471100      10066 	st.w	r8,16[sp]
000020ce 634f1500      10067 	st.w	r9,20[sp]
000020d2 390600000000* 10068 	mov	_r_wm_DevSys,r25
                       10069 --	    .bf
                       10070 .LDW752:
                       10071 --2976: {
                       10072 --2977:     r_wm_sys_vdce_WinLayerPair_t* win_layer_pair = loc_WinLayerPairGet(Unit, Sprite->Window);
000020d8 3b3f0100      10073 	ld.w	0[r27],r7

                                                                      Page 175
                                                              C:\Users\YINGAO~1\AppData\Local\Temp\gh_000084c1.si
000020dc 1c30          10074 	mov	r28,r6
                       10075 	jarl	_loc_WinLayerPairGet,lp
                       10075 <EXPANSION BEGIN>
                       10075 jarl22 _loc_WinLayerPairGet , lp 
000020de bfffeee4*     10075 <EXPANSION END>
000020e2 0ad0          10076 	mov	r10,r26
                       10077 --2978:     uint32_t sprite_no = LOC_INVALID_SPRITE;
                       10078 --line2978
                       10079 ..lin.D.3A.5CRenesas_Electronics.5CD1x_RGL.5Crgl_ghs_D1Lx_obj_V1.2E2.2E0.5Cvlib.5Capp.5Cgfx_apps.5Csimple_draw_d1l2.5Ctarget.5Cd1lx_mango_ghs.5Cobj.5Cr_sys_wm.490::
                       10080 .LDWlin490:
000020e4 20ee1000      10081 	movea	16,zero,r29
                       10082 --2979:     
                       10083 --2980:     r_spea_Unit_t spea_unit;
                       10084 --2981:     uint8_t spea_unit_ordinal = 0;
000020e8 43070b00      10085 	st.b	zero,11[sp]
                       10086 --2982:     
                       10087 --2983:     if (win_layer_pair == R_NULL)
000020ec e0d1          10088 	cmp	zero,r26
000020ee ba05*         10089 	bne	.L6757
                       10090 --2984:     {
                       10091 --2985:         R_WM_SYS_REPORT_ERROR(Unit, R_WM_ERR_NULL_PTR_ARGUMENT, 0);
                       10092 --2986:         return 0;
                       10093 --line2986
                       10094 ..lin.D.3A.5CRenesas_Electronics.5CD1x_RGL.5Crgl_ghs_D1Lx_obj_V1.2E2.2E0.5Cvlib.5Capp.5Cgfx_apps.5Csimple_draw_d1l2.5Ctarget.5Cd1lx_mango_ghs.5Cobj.5Cr_sys_wm.491::
                       10095 .LDWlin491:
000020f0 0052          10096 	mov	0,r10
000020f2 8555*         10097 	br	.L6755
                       10098 .L6757:
                       10099 --2987:     }
                       10100 --2989:     loc_Layer2Spea(Unit, win_layer_pair->Layer, &spea_unit, &spea_unit_ordinal);
                       10101 --line2989
                       10102 ..lin.D.3A.5CRenesas_Electronics.5CD1x_RGL.5Crgl_ghs_D1Lx_obj_V1.2E2.2E0.5Cvlib.5Capp.5Cgfx_apps.5Csimple_draw_d1l2.5Ctarget.5Cd1lx_mango_ghs.5Cobj.5Cr_sys_wm.492::
                       10103 .LDWlin492:
000020f4 3a3f0500      10104 	ld.w	4[r26],r7
000020f8 1c30          10105 	mov	r28,r6
000020fa 23460c00      10106 	movea	12,sp,r8
000020fe 234e0b00      10107 	movea	11,sp,r9
                       10108 	jarl	_loc_Layer2Spea,lp
                       10108 <EXPANSION BEGIN>
                       10108 jarl22 _loc_Layer2Spea , lp 
00002102 bfff4ce3*     10108 <EXPANSION END>
                       10109 --2990:     sprite_no = loc_FindSpriteOrdinal(Unit, Sprite);
                       10110 --line2990
                       10111 ..lin.D.3A.5CRenesas_Electronics.5CD1x_RGL.5Crgl_ghs_D1Lx_obj_V1.2E2.2E0.5Cvlib.5Capp.5Cgfx_apps.5Csimple_draw_d1l2.5Ctarget.5Cd1lx_mango_ghs.5Cobj.5Cr_sys_wm.493::
                       10112 .LDWlin493:
00002106 1c30          10113 	mov	r28,r6
00002108 1b38          10114 	mov	r27,r7
                       10115 	jarl	_loc_FindSpriteOrdinal,lp
                       10115 <EXPANSION BEGIN>
                       10115 jarl22 _loc_FindSpriteOrdinal , lp 
0000210a bfff88e3*     10115 <EXPANSION END>
0000210e 0ae8          10116 	mov	r10,r29
                       10117 --2991:     if (sprite_no == LOC_INVALID_SPRITE)
                       10118 --line2991
                       10119 ..lin.D.3A.5CRenesas_Electronics.5CD1x_RGL.5Crgl_ghs_D1Lx_obj_V1.2E2.2E0.5Cvlib.5Capp.5Cgfx_apps.5Csimple_draw_d1l2.5Ctarget.5Cd1lx_mango_ghs.5Cobj.5Cr_sys_wm.494::
                       10120 .LDWlin494:
00002110 1d06f0ff      10121 	addi	-16,r29,zero
00002114 ba05*         10122 	bne	.L6760
                       10123 --2992:     {
                       10124 --2993:         R_WM_SYS_REPORT_ERROR(Unit, R_WM_ERR_RANGE_WM, 0);
                       10125 --2994:         return 0;

                                                                      Page 176
                                                              C:\Users\YINGAO~1\AppData\Local\Temp\gh_000084c1.si
                       10126 --line2994
                       10127 ..lin.D.3A.5CRenesas_Electronics.5CD1x_RGL.5Crgl_ghs_D1Lx_obj_V1.2E2.2E0.5Cvlib.5Capp.5Cgfx_apps.5Csimple_draw_d1l2.5Ctarget.5Cd1lx_mango_ghs.5Cobj.5Cr_sys_wm.495::
                       10128 .LDWlin495:
00002116 0052          10129 	mov	0,r10
00002118 d53d*         10130 	br	.L6755
                       10131 .L6760:
                       10132 --2995:     }
                       10133 --2996:     
                       10134 --2997:     if (R_SPEA_ERR_OK != R_SPEA_SetSpritePos(0, spea_unit_ordinal, sprite_no, PosX, PosY, R_WM_ColorFmtBitsPerPixGet(Sprite->Window->ColorFmt)))
                       10135 --line2997
                       10136 ..lin.D.3A.5CRenesas_Electronics.5CD1x_RGL.5Crgl_ghs_D1Lx_obj_V1.2E2.2E0.5Cvlib.5Capp.5Cgfx_apps.5Csimple_draw_d1l2.5Ctarget.5Cd1lx_mango_ghs.5Cobj.5Cr_sys_wm.496::
                       10137 .LDWlin496:
0000211a 3bf70100      10138 	ld.w	0[r27],ep
0000211e 0435          10139 	sld.w	8[ep],r6
                       10140 	jarl	_R_WM_ColorFmtBitsPerPixGet,lp
                       10140 <EXPANSION BEGIN>
                       10140 jarl22 _R_WM_ColorFmtBitsPerPixGet , lp 
00002120 80ff0000*     10140 <EXPANSION END>
00002124 e35f1100      10141 	ld.hu	16[sp],r11
00002128 1d40          10142 	mov	r29,r8
0000212a e3671500      10143 	ld.hu	20[sp],r12
0000212e 8800          10144 	zxb	r8
00002130 a33f0b00      10145 	ld.bu	11[sp],r7
00002134 0032          10146 	mov	0,r6
00002136 63570500      10147 	st.w	r10,4[sp]
0000213a 0b48          10148 	mov	r11,r9
0000213c 63670100      10149 	st.w	r12,0[sp]
                       10150 	jarl	_R_SPEA_SetSpritePos,lp
                       10150 <EXPANSION BEGIN>
                       10150 jarl22 _R_SPEA_SetSpritePos , lp 
00002140 80ff0000*     10150 <EXPANSION END>
00002144 e051          10151 	cmp	zero,r10
00002146 b205*         10152 	be	.L6763
                       10153 --2998:     {
                       10154 --2999:         R_WM_SYS_REPORT_ERROR(Unit, R_WM_ERR_SPEA_INTERNAL, 0);
                       10155 --3000:         return 0;
                       10156 --line3000
                       10157 ..lin.D.3A.5CRenesas_Electronics.5CD1x_RGL.5Crgl_ghs_D1Lx_obj_V1.2E2.2E0.5Cvlib.5Capp.5Cgfx_apps.5Csimple_draw_d1l2.5Ctarget.5Cd1lx_mango_ghs.5Cobj.5Cr_sys_wm.497::
                       10158 .LDWlin497:
00002148 0052          10159 	mov	0,r10
0000214a c525*         10160 	br	.L6755
                       10161 .L6763:
                       10162 --3001:     }
                       10163 --3003:     /* If z-Pos of the spite has changes, all sprite registers have to be reassigned. */
                       10164 --3004:     if (Sprite->PosZ != PosZ)
                       10165 --line3004
                       10166 ..lin.D.3A.5CRenesas_Electronics.5CD1x_RGL.5Crgl_ghs_D1Lx_obj_V1.2E2.2E0.5Cvlib.5Capp.5Cgfx_apps.5Csimple_draw_d1l2.5Ctarget.5Cd1lx_mango_ghs.5Cobj.5Cr_sys_wm.498::
                       10167 .LDWlin498:
0000214c 230f3100      10168 	ld.w	48[sp],r1
00002150 3b771900      10169 	ld.w	24[r27],r14
00002154 e171          10170 	cmp	r1,r14
00002156 f20d*         10171 	be	.L6766
                       10172 --3005:     {
                       10173 --3006:         r_wm_DevSys[Unit].FrameStatusFlags |= (1uL << (R_WM_SYS_FRAME_STATUS_SPEA_SU0_REASSIGN_BIT+spea_unit_ordinal));
                       10174 --line3006
                       10175 ..lin.D.3A.5CRenesas_Electronics.5CD1x_RGL.5Crgl_ghs_D1Lx_obj_V1.2E2.2E0.5Cvlib.5Capp.5Cgfx_apps.5Csimple_draw_d1l2.5Ctarget.5Cd1lx_mango_ghs.5Cobj.5Cr_sys_wm.499::
                       10176 .LDWlin499:
00002158 1cf0          10177 	mov	r28,ep
0000215a a30f0b00      10178 	ld.bu	11[sp],r1
0000215e fe00          10179 	sxh	ep
00002160 fef66000      10180 	mulhi	96,ep,ep

                                                                      Page 177
                                                              C:\Users\YINGAO~1\AppData\Local\Temp\gh_000084c1.si
00002164 0172          10181 	mov	1,r14
00002166 440a          10182 	add	4,r1
00002168 e177c270      10183 	shl	r1,r14,r14
0000216c d9f1          10184 	add	r25,ep
0000216e 2a0d          10185 	sld.w	84[ep],r1
00002170 0e09          10186 	or	r14,r1
00002172 2b0d          10187 	sst.w	r1,84[ep]
                       10188 .L6766:
                       10189 --3007:     }
                       10190 --3008:     
                       10191 --3009:     /* Set respective R_WM_SYS_FRAME_STATUS_SPEA_SUn_UPDATE_BIT */
                       10192 --3010:     r_wm_DevSys[Unit].FrameStatusFlags |= (1uL << (R_WM_SYS_FRAME_STATUS_SPEA_SU0_UPDATE_BIT+spea_unit_ordinal));
00002174 1cf0          10193 	mov	r28,ep
00002176 a30f0b00      10194 	ld.bu	11[sp],r1
0000217a fe00          10195 	sxh	ep
0000217c fef66000      10196 	mulhi	96,ep,ep
00002180 0172          10197 	mov	1,r14
00002182 410a          10198 	add	1,r1
00002184 e177c270      10199 	shl	r1,r14,r14
00002188 d9f1          10200 	add	r25,ep
0000218a 2a0d          10201 	sld.w	84[ep],r1
0000218c 0e09          10202 	or	r14,r1
0000218e 2b0d          10203 	sst.w	r1,84[ep]
                       10204 --3011:     return 1;
00002190 0152          10205 	mov	1,r10
                       10206 .L6755:
                       10207 --	    .ef
                       10208 .LDW852:
00002192 4c06ff70      10209 	dispose	6,{r25,r26,r27,r28,r29,r31},[lp]
                       10210 	.type	_R_WM_Sys_SpriteMove,@function
                       10211 	.size	_R_WM_Sys_SpriteMove,.-_R_WM_Sys_SpriteMove
                       10212 	.align	2
                       10213 .LDW952:
                       10214 --_win_layer_pair	r26	local
                       10215 --_sprite_no	r29	local
                       10216 --_spea_unit	12[sp]	local
                       10217 --_spea_unit_ordinal	11[sp]	local
                       10218 
                       10219 --_Unit	r28	param
                       10220 --_Sprite	r27	param
                       10221 --_PosX	16[sp]	param
                       10222 --_PosY	20[sp]	param
                       10223 --_PosZ	48[sp]	param
                       10224 
                       10225 	.section ".bss","awb"
                       10226 .L6804:
                       10227 	.type	.L6804,@object
                       10228 	.size	.L6804,0
                       10229 	.data
                       10230 	.text
                       10231 
                       10232 --3012: }
                       10233 
                       10234 --3014: uint32_t R_WM_Sys_SpriteBufSet(uint32_t Unit, const r_wm_Sprite_t *Sprite, void* Buf)
                       10235 	.align	2
                       10236 	.align	2
                       10237 	.global	_R_WM_Sys_SpriteBufSet
                       10238 _R_WM_Sys_SpriteBufSet:
00002196 8e07e170      10239 	prepare	{r25,r26,r27,r28,r29,r31},7
0000219a 06e0          10240 	mov	r6,r28
0000219c 07e8          10241 	mov	r7,r29

                                                                      Page 178
                                                              C:\Users\YINGAO~1\AppData\Local\Temp\gh_000084c1.si
0000219e 08c8          10242 	mov	r8,r25
                       10243 --	    .bf
                       10244 .LDW062:
                       10245 --3015: {
                       10246 --3016:     r_wm_sys_vdce_WinLayerPair_t* win_layer_pair = loc_WinLayerPairGet(Unit, Sprite->Window);
000021a0 3d3f0100      10247 	ld.w	0[r29],r7
000021a4 1c30          10248 	mov	r28,r6
                       10249 	jarl	_loc_WinLayerPairGet,lp
                       10249 <EXPANSION BEGIN>
                       10249 jarl22 _loc_WinLayerPairGet , lp 
000021a6 bfff26e4*     10249 <EXPANSION END>
000021aa 0ad0          10250 	mov	r10,r26
                       10251 --3017:     r_spea_SpriteConfig_t sprite_conf;
                       10252 --3018:     uint32_t sprite_no = LOC_INVALID_SPRITE;
                       10253 --line3018
                       10254 ..lin.D.3A.5CRenesas_Electronics.5CD1x_RGL.5Crgl_ghs_D1Lx_obj_V1.2E2.2E0.5Cvlib.5Capp.5Cgfx_apps.5Csimple_draw_d1l2.5Ctarget.5Cd1lx_mango_ghs.5Cobj.5Cr_sys_wm.500::
                       10255 .LDWlin500:
000021ac 20de1000      10256 	movea	16,zero,r27
                       10257 --3019:     
                       10258 --3020:     r_spea_Unit_t spea_unit;
                       10259 --3021:     uint8_t spea_unit_ordinal = 0;
000021b0 43070700      10260 	st.b	zero,7[sp]
                       10261 --3022:     
                       10262 --3023:     if (win_layer_pair == R_NULL)
000021b4 e0d1          10263 	cmp	zero,r26
000021b6 ba05*         10264 	bne	.L6860
                       10265 --3024:     {
                       10266 --3025:         R_WM_SYS_REPORT_ERROR(Unit, R_WM_ERR_NULL_PTR_ARGUMENT, 0);
                       10267 --3026:         return 0;
                       10268 --line3026
                       10269 ..lin.D.3A.5CRenesas_Electronics.5CD1x_RGL.5Crgl_ghs_D1Lx_obj_V1.2E2.2E0.5Cvlib.5Capp.5Cgfx_apps.5Csimple_draw_d1l2.5Ctarget.5Cd1lx_mango_ghs.5Cobj.5Cr_sys_wm.501::
                       10270 .LDWlin501:
000021b8 0052          10271 	mov	0,r10
000021ba a55d*         10272 	br	.L6858
                       10273 .L6860:
                       10274 --3027:     }
                       10275 --3029:     loc_Layer2Spea(Unit, win_layer_pair->Layer, &spea_unit, &spea_unit_ordinal);
                       10276 --line3029
                       10277 ..lin.D.3A.5CRenesas_Electronics.5CD1x_RGL.5Crgl_ghs_D1Lx_obj_V1.2E2.2E0.5Cvlib.5Capp.5Cgfx_apps.5Csimple_draw_d1l2.5Ctarget.5Cd1lx_mango_ghs.5Cobj.5Cr_sys_wm.502::
                       10278 .LDWlin502:
000021bc 3a3f0500      10279 	ld.w	4[r26],r7
000021c0 1c30          10280 	mov	r28,r6
000021c2 23460800      10281 	movea	8,sp,r8
000021c6 234e0700      10282 	movea	7,sp,r9
                       10283 	jarl	_loc_Layer2Spea,lp
                       10283 <EXPANSION BEGIN>
                       10283 jarl22 _loc_Layer2Spea , lp 
000021ca bfff84e2*     10283 <EXPANSION END>
                       10284 --3030:     sprite_no = loc_FindSpriteOrdinal(Unit, Sprite);
                       10285 --line3030
                       10286 ..lin.D.3A.5CRenesas_Electronics.5CD1x_RGL.5Crgl_ghs_D1Lx_obj_V1.2E2.2E0.5Cvlib.5Capp.5Cgfx_apps.5Csimple_draw_d1l2.5Ctarget.5Cd1lx_mango_ghs.5Cobj.5Cr_sys_wm.503::
                       10287 .LDWlin503:
000021ce 1c30          10288 	mov	r28,r6
000021d0 1d38          10289 	mov	r29,r7
                       10290 	jarl	_loc_FindSpriteOrdinal,lp
                       10290 <EXPANSION BEGIN>
                       10290 jarl22 _loc_FindSpriteOrdinal , lp 
000021d2 bfffc0e2*     10290 <EXPANSION END>
000021d6 0ad8          10291 	mov	r10,r27
                       10292 --3031:     if (sprite_no == LOC_INVALID_SPRITE)
                       10293 --line3031

                                                                      Page 179
                                                              C:\Users\YINGAO~1\AppData\Local\Temp\gh_000084c1.si
                       10294 ..lin.D.3A.5CRenesas_Electronics.5CD1x_RGL.5Crgl_ghs_D1Lx_obj_V1.2E2.2E0.5Cvlib.5Capp.5Cgfx_apps.5Csimple_draw_d1l2.5Ctarget.5Cd1lx_mango_ghs.5Cobj.5Cr_sys_wm.504::
                       10295 .LDWlin504:
000021d8 1b06f0ff      10296 	addi	-16,r27,zero
000021dc ba05*         10297 	bne	.L6863
                       10298 --3032:     {
                       10299 --3033:         R_WM_SYS_REPORT_ERROR(Unit, R_WM_ERR_RANGE_WM, 0);
                       10300 --3034:         return 0;
                       10301 --line3034
                       10302 ..lin.D.3A.5CRenesas_Electronics.5CD1x_RGL.5Crgl_ghs_D1Lx_obj_V1.2E2.2E0.5Cvlib.5Capp.5Cgfx_apps.5Csimple_draw_d1l2.5Ctarget.5Cd1lx_mango_ghs.5Cobj.5Cr_sys_wm.505::
                       10303 .LDWlin505:
000021de 0052          10304 	mov	0,r10
000021e0 f545*         10305 	br	.L6858
                       10306 .L6863:
                       10307 --3035:     }
                       10308 --3036:     
                       10309 --3037:     sprite_conf.PosX = Sprite->PosX;
                       10310 --line3037
                       10311 ..lin.D.3A.5CRenesas_Electronics.5CD1x_RGL.5Crgl_ghs_D1Lx_obj_V1.2E2.2E0.5Cvlib.5Capp.5Cgfx_apps.5Csimple_draw_d1l2.5Ctarget.5Cd1lx_mango_ghs.5Cobj.5Cr_sys_wm.506::
                       10312 .LDWlin506:
000021e2 3d0f1100      10313 	ld.w	16[r29],r1
000021e6 630f1800      10314 	st.h	r1,24[sp]
                       10315 --3038:     sprite_conf.PosY = Sprite->PosY;
000021ea 3d0f1500      10316 	ld.w	20[r29],r1
000021ee 630f1a00      10317 	st.h	r1,26[sp]
                       10318 --3039:     sprite_conf.Width = Sprite->Width;
000021f2 3d0f1d00      10319 	ld.w	28[r29],r1
000021f6 630f1600      10320 	st.h	r1,22[sp]
                       10321 --3040:     sprite_conf.Height = Sprite->Height;
000021fa 3d0f2100      10322 	ld.w	32[r29],r1
000021fe 630f1400      10323 	st.h	r1,20[sp]
                       10324 --3041:     sprite_conf.SrcAddr = (uint32_t)Buf;
00002202 63cf1100      10325 	st.w	r25,16[sp]
                       10326 --3042:     sprite_conf.VSync = Unit;
00002206 43e70d00      10327 	st.b	r28,13[sp]
                       10328 --3043:     if (Sprite->Status == R_WM_SPRITESTATUS_ENABLED)
0000220a 3d0f0900      10329 	ld.w	8[r29],r1
0000220e 620a          10330 	cmp	2,r1
00002210 da05*         10331 	bne	.L6866
                       10332 --3044:     {
                       10333 --3045:         sprite_conf.Enable = 1;
                       10334 --line3045
                       10335 ..lin.D.3A.5CRenesas_Electronics.5CD1x_RGL.5Crgl_ghs_D1Lx_obj_V1.2E2.2E0.5Cvlib.5Capp.5Cgfx_apps.5Csimple_draw_d1l2.5Ctarget.5Cd1lx_mango_ghs.5Cobj.5Cr_sys_wm.507::
                       10336 .LDWlin507:
00002212 010a          10337 	mov	1,r1
00002214 430f0c00      10338 	st.b	r1,12[sp]
00002218 b505*         10339 	br	.L6868
                       10340 .L6866:
                       10341 --3046:     }
                       10342 --3047:     else
                       10343 --3048:     {
                       10344 --3049:         sprite_conf.Enable = 0;
                       10345 --line3049
                       10346 ..lin.D.3A.5CRenesas_Electronics.5CD1x_RGL.5Crgl_ghs_D1Lx_obj_V1.2E2.2E0.5Cvlib.5Capp.5Cgfx_apps.5Csimple_draw_d1l2.5Ctarget.5Cd1lx_mango_ghs.5Cobj.5Cr_sys_wm.508::
                       10347 .LDWlin508:
0000221a 43070c00      10348 	st.b	zero,12[sp]
                       10349 .L6868:
                       10350 --3050:     }
                       10351 --3051:     sprite_conf.VSync = Unit;
0000221e 43e70d00      10352 	st.b	r28,13[sp]
                       10353 --3052:     
                       10354 --3053:     if (R_SPEA_ERR_OK != R_SPEA_SetSprite(0, spea_unit_ordinal, sprite_no, &sprite_conf, R_WM_ColorFmtBitsPerPixGet(Sprite->Window->ColorFmt)))

                                                                      Page 180
                                                              C:\Users\YINGAO~1\AppData\Local\Temp\gh_000084c1.si
00002222 3df70100      10355 	ld.w	0[r29],ep
00002226 0435          10356 	sld.w	8[ep],r6
                       10357 	jarl	_R_WM_ColorFmtBitsPerPixGet,lp
                       10357 <EXPANSION BEGIN>
                       10357 jarl22 _R_WM_ColorFmtBitsPerPixGet , lp 
00002228 80ff0000*     10357 <EXPANSION END>
0000222c a33f0700      10358 	ld.bu	7[sp],r7
00002230 1b40          10359 	mov	r27,r8
00002232 63570100      10360 	st.w	r10,0[sp]
00002236 8800          10361 	zxb	r8
00002238 0032          10362 	mov	0,r6
0000223a 234e0c00      10363 	movea	12,sp,r9
                       10364 	jarl	_R_SPEA_SetSprite,lp
                       10364 <EXPANSION BEGIN>
                       10364 jarl22 _R_SPEA_SetSprite , lp 
0000223e 80ff0000*     10364 <EXPANSION END>
00002242 e051          10365 	cmp	zero,r10
00002244 b205*         10366 	be	.L6869
                       10367 --3054:     {
                       10368 --3055:         return 0;
                       10369 --line3055
                       10370 ..lin.D.3A.5CRenesas_Electronics.5CD1x_RGL.5Crgl_ghs_D1Lx_obj_V1.2E2.2E0.5Cvlib.5Capp.5Cgfx_apps.5Csimple_draw_d1l2.5Ctarget.5Cd1lx_mango_ghs.5Cobj.5Cr_sys_wm.509::
                       10371 .LDWlin509:
00002246 0052          10372 	mov	0,r10
00002248 b515*         10373 	br	.L6858
                       10374 .L6869:
                       10375 --3056:     }
                       10376 --3057:     
                       10377 --3058:     /* Set respective R_WM_SYS_FRAME_STATUS_SPEA_SUn_UPDATE_BIT */
                       10378 --3059:     r_wm_DevSys[Unit].FrameStatusFlags |= (1uL << (R_WM_SYS_FRAME_STATUS_SPEA_SU0_UPDATE_BIT+spea_unit_ordinal));
                       10379 --line3059
                       10380 ..lin.D.3A.5CRenesas_Electronics.5CD1x_RGL.5Crgl_ghs_D1Lx_obj_V1.2E2.2E0.5Cvlib.5Capp.5Cgfx_apps.5Csimple_draw_d1l2.5Ctarget.5Cd1lx_mango_ghs.5Cobj.5Cr_sys_wm.510::
                       10381 .LDWlin510:
0000224a a30f0700      10382 	ld.bu	7[sp],r1
0000224e 1cf0          10383 	mov	r28,ep
00002250 fe00          10384 	sxh	ep
00002252 0172          10385 	mov	1,r14
00002254 fef66000      10386 	mulhi	96,ep,ep
00002258 2d0600000000* 10387 	mov	_r_wm_DevSys,r13
0000225e 410a          10388 	add	1,r1
00002260 e177c270      10389 	shl	r1,r14,r14
00002264 cdf1          10390 	add	r13,ep
00002266 2a0d          10391 	sld.w	84[ep],r1
00002268 0e09          10392 	or	r14,r1
0000226a 2b0d          10393 	sst.w	r1,84[ep]
                       10394 --3060:     return 1;
0000226c 0152          10395 	mov	1,r10
                       10396 .L6858:
                       10397 --	    .ef
                       10398 .LDW162:
0000226e 4e06ff70      10399 	dispose	7,{r25,r26,r27,r28,r29,r31},[lp]
                       10400 	.type	_R_WM_Sys_SpriteBufSet,@function
                       10401 	.size	_R_WM_Sys_SpriteBufSet,.-_R_WM_Sys_SpriteBufSet
                       10402 	.align	2
                       10403 .LDW262:
                       10404 --_win_layer_pair	r26	local
                       10405 --_sprite_conf	12[sp]	local
                       10406 --_sprite_no	r27	local
                       10407 --_spea_unit	8[sp]	local
                       10408 --_spea_unit_ordinal	7[sp]	local
                       10409 

                                                                      Page 181
                                                              C:\Users\YINGAO~1\AppData\Local\Temp\gh_000084c1.si
                       10410 --_Unit	r28	param
                       10411 --_Sprite	r29	param
                       10412 --_Buf	r25	param
                       10413 
                       10414 	.section ".bss","awb"
                       10415 .L6932:
                       10416 	.type	.L6932,@object
                       10417 	.size	.L6932,0
                       10418 	.data
                       10419 	.text
                       10420 
                       10421 --3061: }
                       10422 
                       10423 --3063: uint32_t R_WM_Sys_WindowAlphaSet(uint32_t Unit, const r_wm_Window_t* Win, uint8_t Alpha)
                       10424 	.align	2
                       10425 	.align	2
                       10426 	.global	_R_WM_Sys_WindowAlphaSet
                       10427 _R_WM_Sys_WindowAlphaSet:
00002272 8007e170      10428 	prepare	{r25,r26,r27,r28,r29,r31},0
00002276 06e0          10429 	mov	r6,r28
00002278 07d0          10430 	mov	r7,r26
0000227a c8ceff00      10431 	andi	255,r8,r25
                       10432 --	    .bf
                       10433 .LDW362:
                       10434 --3064: {
                       10435 --3065:     r_vdce_Error_t err;
                       10436 --3066:     r_wm_sys_vdce_WinLayerPair_t* win_layer_pair = loc_WinLayerPairGet(Unit, Win);
0000227e 1c30          10437 	mov	r28,r6
00002280 1a38          10438 	mov	r26,r7
                       10439 	jarl	_loc_WinLayerPairGet,lp
                       10439 <EXPANSION BEGIN>
                       10439 jarl22 _loc_WinLayerPairGet , lp 
00002282 bfff4ae3*     10439 <EXPANSION END>
00002286 0ae8          10440 	mov	r10,r29
                       10441 --3067:     if (win_layer_pair == R_NULL)
                       10442 --line3067
                       10443 ..lin.D.3A.5CRenesas_Electronics.5CD1x_RGL.5Crgl_ghs_D1Lx_obj_V1.2E2.2E0.5Cvlib.5Capp.5Cgfx_apps.5Csimple_draw_d1l2.5Ctarget.5Cd1lx_mango_ghs.5Cobj.5Cr_sys_wm.511::
                       10444 .LDWlin511:
00002288 e0e9          10445 	cmp	zero,r29
0000228a ba05*         10446 	bne	.L7012
                       10447 --3068:     {
                       10448 --3069:         R_WM_SYS_REPORT_ERROR(Unit, R_WM_ERR_NULL_PTR_ARGUMENT, 0);
                       10449 --3070:         return 0;
                       10450 --line3070
                       10451 ..lin.D.3A.5CRenesas_Electronics.5CD1x_RGL.5Crgl_ghs_D1Lx_obj_V1.2E2.2E0.5Cvlib.5Capp.5Cgfx_apps.5Csimple_draw_d1l2.5Ctarget.5Cd1lx_mango_ghs.5Cobj.5Cr_sys_wm.512::
                       10452 .LDWlin512:
0000228c 0052          10453 	mov	0,r10
0000228e d51d*         10454 	br	.L7010
                       10455 .L7012:
                       10456 --3071:     }
                       10457 --3072:     
                       10458 --3073:     if (win_layer_pair->Win->ColorKey.Enabled != 0)
                       10459 --line3073
                       10460 ..lin.D.3A.5CRenesas_Electronics.5CD1x_RGL.5Crgl_ghs_D1Lx_obj_V1.2E2.2E0.5Cvlib.5Capp.5Cgfx_apps.5Csimple_draw_d1l2.5Ctarget.5Cd1lx_mango_ghs.5Cobj.5Cr_sys_wm.513::
                       10461 .LDWlin513:
00002290 3d0f0100      10462 	ld.w	0[r29],r1
00002294 810f3d00      10463 	ld.bu	60[r1],r1
00002298 e009          10464 	cmp	zero,r1
0000229a b205*         10465 	be	.L7015
                       10466 --3074:     {
                       10467 --3075:         R_WM_SYS_REPORT_ERROR(Unit, R_WM_ERR_NO_PHYS_WINDOW, 0);

                                                                      Page 182
                                                              C:\Users\YINGAO~1\AppData\Local\Temp\gh_000084c1.si
                       10468 --3076:         return 0;
                       10469 --line3076
                       10470 ..lin.D.3A.5CRenesas_Electronics.5CD1x_RGL.5Crgl_ghs_D1Lx_obj_V1.2E2.2E0.5Cvlib.5Capp.5Cgfx_apps.5Csimple_draw_d1l2.5Ctarget.5Cd1lx_mango_ghs.5Cobj.5Cr_sys_wm.514::
                       10471 .LDWlin514:
0000229c 0052          10472 	mov	0,r10
0000229e d515*         10473 	br	.L7010
                       10474 .L7015:
                       10475 --3077:     }
                       10476 --3078:     
                       10477 --3079:     if ((0 < win_layer_pair->Layer) && (win_layer_pair->Layer < 4))
                       10478 --line3079
                       10479 ..lin.D.3A.5CRenesas_Electronics.5CD1x_RGL.5Crgl_ghs_D1Lx_obj_V1.2E2.2E0.5Cvlib.5Capp.5Cgfx_apps.5Csimple_draw_d1l2.5Ctarget.5Cd1lx_mango_ghs.5Cobj.5Cr_sys_wm.515::
                       10480 .LDWlin515:
000022a0 3d0f0500      10481 	ld.w	4[r29],r1
000022a4 e009          10482 	cmp	zero,r1
000022a6 8315*         10483 	bnh	.L7018
000022a8 3d0f0500      10484 	ld.w	4[r29],r1
000022ac 640a          10485 	cmp	4,r1
000022ae c90d*         10486 	bnl	.L7018
                       10487 --3080:     {
                       10488 --3081:         err = R_VDCE_LayerAlphaConstEnable(Unit, win_layer_pair->Layer, Alpha);
                       10489 --line3081
                       10490 ..lin.D.3A.5CRenesas_Electronics.5CD1x_RGL.5Crgl_ghs_D1Lx_obj_V1.2E2.2E0.5Cvlib.5Capp.5Cgfx_apps.5Csimple_draw_d1l2.5Ctarget.5Cd1lx_mango_ghs.5Cobj.5Cr_sys_wm.516::
                       10491 .LDWlin516:
000022b0 3d3f0500      10492 	ld.w	4[r29],r7
000022b4 1c30          10493 	mov	r28,r6
000022b6 1940          10494 	mov	r25,r8
                       10495 	jarl	_R_VDCE_LayerAlphaConstEnable,lp
                       10495 <EXPANSION BEGIN>
                       10495 jarl22 _R_VDCE_LayerAlphaConstEnable , lp 
000022b8 80ff0000*     10495 <EXPANSION END>
000022bc 0ad8          10496 	mov	r10,r27
                       10497 --3082:         if (err != R_VDCE_ERR_OK)
                       10498 --line3082
                       10499 ..lin.D.3A.5CRenesas_Electronics.5CD1x_RGL.5Crgl_ghs_D1Lx_obj_V1.2E2.2E0.5Cvlib.5Capp.5Cgfx_apps.5Csimple_draw_d1l2.5Ctarget.5Cd1lx_mango_ghs.5Cobj.5Cr_sys_wm.517::
                       10500 .LDWlin517:
000022be e0d9          10501 	cmp	zero,r27
000022c0 b205*         10502 	be	.L7018
                       10503 --3083:         {
                       10504 --3084:             return 0;
                       10505 --line3084
                       10506 ..lin.D.3A.5CRenesas_Electronics.5CD1x_RGL.5Crgl_ghs_D1Lx_obj_V1.2E2.2E0.5Cvlib.5Capp.5Cgfx_apps.5Csimple_draw_d1l2.5Ctarget.5Cd1lx_mango_ghs.5Cobj.5Cr_sys_wm.518::
                       10507 .LDWlin518:
000022c2 0052          10508 	mov	0,r10
000022c4 a505*         10509 	br	.L7010
                       10510 .L7018:
                       10511 --3085:         }
                       10512 --3086:     }
                       10513 --3087:     return 1;
                       10514 --line3087
                       10515 ..lin.D.3A.5CRenesas_Electronics.5CD1x_RGL.5Crgl_ghs_D1Lx_obj_V1.2E2.2E0.5Cvlib.5Capp.5Cgfx_apps.5Csimple_draw_d1l2.5Ctarget.5Cd1lx_mango_ghs.5Cobj.5Cr_sys_wm.519::
                       10516 .LDWlin519:
000022c6 0152          10517 	mov	1,r10
                       10518 .L7010:
                       10519 --	    .ef
                       10520 .LDW462:
000022c8 4006ff70      10521 	dispose	0,{r25,r26,r27,r28,r29,r31},[lp]
                       10522 	.type	_R_WM_Sys_WindowAlphaSet,@function
                       10523 	.size	_R_WM_Sys_WindowAlphaSet,.-_R_WM_Sys_WindowAlphaSet
                       10524 	.align	2
                       10525 .LDW562:

                                                                      Page 183
                                                              C:\Users\YINGAO~1\AppData\Local\Temp\gh_000084c1.si
                       10526 --_err	r27	local
                       10527 --_win_layer_pair	r29	local
                       10528 
                       10529 --_Unit	r28	param
                       10530 --_Win	r26	param
                       10531 --_Alpha	r25	param
                       10532 
                       10533 	.section ".bss","awb"
                       10534 .L7052:
                       10535 	.type	.L7052,@object
                       10536 	.size	.L7052,0
                       10537 	.data
                       10538 	.text
                       10539 
                       10540 --3088: }
                       10541 
                       10542 --3090: uint32_t R_WM_Sys_WindowPremultipliedAlphaEnable (uint32_t Unit, const r_wm_Window_t* Win, uint8_t Enabled)
                       10543 	.align	2
                       10544 	.align	2
                       10545 	.global	_R_WM_Sys_WindowPremultipliedAlphaEnable
                       10546 _R_WM_Sys_WindowPremultipliedAlphaEnable:
000022cc 8007e170      10547 	prepare	{r25,r26,r27,r28,r29,r31},0
000022d0 06e0          10548 	mov	r6,r28
000022d2 07d0          10549 	mov	r7,r26
000022d4 c8ceff00      10550 	andi	255,r8,r25
                       10551 --	    .bf
                       10552 .LDW662:
                       10553 --3091: {
                       10554 --3092:     r_vdce_Error_t err;
                       10555 --3093:     r_wm_sys_vdce_WinLayerPair_t* win_layer_pair = loc_WinLayerPairGet(Unit, Win);
000022d8 1c30          10556 	mov	r28,r6
000022da 1a38          10557 	mov	r26,r7
                       10558 	jarl	_loc_WinLayerPairGet,lp
                       10558 <EXPANSION BEGIN>
                       10558 jarl22 _loc_WinLayerPairGet , lp 
000022dc bffff0e2*     10558 <EXPANSION END>
000022e0 0ae8          10559 	mov	r10,r29
                       10560 --3094:     if (win_layer_pair == R_NULL)
                       10561 --line3094
                       10562 ..lin.D.3A.5CRenesas_Electronics.5CD1x_RGL.5Crgl_ghs_D1Lx_obj_V1.2E2.2E0.5Cvlib.5Capp.5Cgfx_apps.5Csimple_draw_d1l2.5Ctarget.5Cd1lx_mango_ghs.5Cobj.5Cr_sys_wm.520::
                       10563 .LDWlin520:
000022e2 e0e9          10564 	cmp	zero,r29
000022e4 ba05*         10565 	bne	.L7096
                       10566 --3095:     {
                       10567 --3096:         R_WM_SYS_REPORT_ERROR(Unit, R_WM_ERR_NULL_PTR_ARGUMENT, 0);
                       10568 --3097:         return 0;
                       10569 --line3097
                       10570 ..lin.D.3A.5CRenesas_Electronics.5CD1x_RGL.5Crgl_ghs_D1Lx_obj_V1.2E2.2E0.5Cvlib.5Capp.5Cgfx_apps.5Csimple_draw_d1l2.5Ctarget.5Cd1lx_mango_ghs.5Cobj.5Cr_sys_wm.521::
                       10571 .LDWlin521:
000022e6 0052          10572 	mov	0,r10
000022e8 b52d*         10573 	br	.L7094
                       10574 .L7096:
                       10575 --3098:     }
                       10576 --3099:     
                       10577 --3100:     if ((0 < win_layer_pair->Layer) && (win_layer_pair->Layer < 4))
                       10578 --line3100
                       10579 ..lin.D.3A.5CRenesas_Electronics.5CD1x_RGL.5Crgl_ghs_D1Lx_obj_V1.2E2.2E0.5Cvlib.5Capp.5Cgfx_apps.5Csimple_draw_d1l2.5Ctarget.5Cd1lx_mango_ghs.5Cobj.5Cr_sys_wm.522::
                       10580 .LDWlin522:
000022ea 3d0f0500      10581 	ld.w	4[r29],r1
000022ee e009          10582 	cmp	zero,r1
000022f0 e325*         10583 	bnh	.L7099

                                                                      Page 184
                                                              C:\Users\YINGAO~1\AppData\Local\Temp\gh_000084c1.si
000022f2 3d0f0500      10584 	ld.w	4[r29],r1
000022f6 640a          10585 	cmp	4,r1
000022f8 a925*         10586 	bnl	.L7099
                       10587 --3101:     {
                       10588 --3102:         /* The Layer must be disabled for premultiplied alpha configuration */
                       10589 --3103:         loc_VDCE_LayerDisable(Unit, win_layer_pair->Layer);
                       10590 --line3103
                       10591 ..lin.D.3A.5CRenesas_Electronics.5CD1x_RGL.5Crgl_ghs_D1Lx_obj_V1.2E2.2E0.5Cvlib.5Capp.5Cgfx_apps.5Csimple_draw_d1l2.5Ctarget.5Cd1lx_mango_ghs.5Cobj.5Cr_sys_wm.523::
                       10592 .LDWlin523:
000022fa 3d3f0500      10593 	ld.w	4[r29],r7
000022fe 1c30          10594 	mov	r28,r6
                       10595 	jarl	_loc_VDCE_LayerDisable,lp
                       10595 <EXPANSION BEGIN>
                       10595 jarl22 _loc_VDCE_LayerDisable , lp 
00002300 bfffc6eb*     10595 <EXPANSION END>
                       10596 --3104:         
                       10597 --3105:         if (R_FALSE != Enabled)
                       10598 --line3105
                       10599 ..lin.D.3A.5CRenesas_Electronics.5CD1x_RGL.5Crgl_ghs_D1Lx_obj_V1.2E2.2E0.5Cvlib.5Capp.5Cgfx_apps.5Csimple_draw_d1l2.5Ctarget.5Cd1lx_mango_ghs.5Cobj.5Cr_sys_wm.524::
                       10600 .LDWlin524:
00002304 e0c9          10601 	cmp	zero,r25
00002306 820d*         10602 	be	.L7102
                       10603 --3106:         {
                       10604 --3107:             err = R_VDCE_LayerPremultipliedAlphaEnable(Unit, win_layer_pair->Layer);
                       10605 --line3107
                       10606 ..lin.D.3A.5CRenesas_Electronics.5CD1x_RGL.5Crgl_ghs_D1Lx_obj_V1.2E2.2E0.5Cvlib.5Capp.5Cgfx_apps.5Csimple_draw_d1l2.5Ctarget.5Cd1lx_mango_ghs.5Cobj.5Cr_sys_wm.525::
                       10607 .LDWlin525:
00002308 3d3f0500      10608 	ld.w	4[r29],r7
0000230c 1c30          10609 	mov	r28,r6
                       10610 	jarl	_R_VDCE_LayerPremultipliedAlphaEnable,lp
                       10610 <EXPANSION BEGIN>
                       10610 jarl22 _R_VDCE_LayerPremultipliedAlphaEnable , lp 
0000230e 80ff0000*     10610 <EXPANSION END>
00002312 0ad8          10611 	mov	r10,r27
00002314 f505*         10612 	br	.L7104
                       10613 .L7102:
                       10614 --3108:         }
                       10615 --3109:         else
                       10616 --3110:         {
                       10617 --3111:             err = R_VDCE_LayerPremultipliedAlphaDisable(Unit, win_layer_pair->Layer);
                       10618 --line3111
                       10619 ..lin.D.3A.5CRenesas_Electronics.5CD1x_RGL.5Crgl_ghs_D1Lx_obj_V1.2E2.2E0.5Cvlib.5Capp.5Cgfx_apps.5Csimple_draw_d1l2.5Ctarget.5Cd1lx_mango_ghs.5Cobj.5Cr_sys_wm.526::
                       10620 .LDWlin526:
00002316 3d3f0500      10621 	ld.w	4[r29],r7
0000231a 1c30          10622 	mov	r28,r6
                       10623 	jarl	_R_VDCE_LayerPremultipliedAlphaDisable,lp
                       10623 <EXPANSION BEGIN>
                       10623 jarl22 _R_VDCE_LayerPremultipliedAlphaDisable , lp 
0000231c 80ff0000*     10623 <EXPANSION END>
00002320 0ad8          10624 	mov	r10,r27
                       10625 .L7104:
                       10626 --3112:         }
                       10627 --3114:         if (err != R_VDCE_ERR_OK)
                       10628 --line3114
                       10629 ..lin.D.3A.5CRenesas_Electronics.5CD1x_RGL.5Crgl_ghs_D1Lx_obj_V1.2E2.2E0.5Cvlib.5Capp.5Cgfx_apps.5Csimple_draw_d1l2.5Ctarget.5Cd1lx_mango_ghs.5Cobj.5Cr_sys_wm.527::
                       10630 .LDWlin527:
00002322 e0d9          10631 	cmp	zero,r27
00002324 b205*         10632 	be	.L7105
                       10633 --3115:         {
                       10634 --3116:             return 0;
                       10635 --line3116

                                                                      Page 185
                                                              C:\Users\YINGAO~1\AppData\Local\Temp\gh_000084c1.si
                       10636 ..lin.D.3A.5CRenesas_Electronics.5CD1x_RGL.5Crgl_ghs_D1Lx_obj_V1.2E2.2E0.5Cvlib.5Capp.5Cgfx_apps.5Csimple_draw_d1l2.5Ctarget.5Cd1lx_mango_ghs.5Cobj.5Cr_sys_wm.528::
                       10637 .LDWlin528:
00002326 0052          10638 	mov	0,r10
00002328 b50d*         10639 	br	.L7094
                       10640 .L7105:
                       10641 --3117:         }
                       10642 --3118:         
                       10643 --3119:         /* If the layer was enabled before configuration, enable it again */
                       10644 --3120:         if (Win->Status == R_WM_WINSTATUS_ENABLED)
                       10645 --line3120
                       10646 ..lin.D.3A.5CRenesas_Electronics.5CD1x_RGL.5Crgl_ghs_D1Lx_obj_V1.2E2.2E0.5Cvlib.5Capp.5Cgfx_apps.5Csimple_draw_d1l2.5Ctarget.5Cd1lx_mango_ghs.5Cobj.5Cr_sys_wm.529::
                       10647 .LDWlin529:
0000232a 3a0f0100      10648 	ld.w	0[r26],r1
0000232e 620a          10649 	cmp	2,r1
00002330 ea05*         10650 	bne	.L7099
                       10651 --3121:         {
                       10652 --3122:             loc_VDCE_LayerEnable(Unit, win_layer_pair->Layer);
                       10653 --line3122
                       10654 ..lin.D.3A.5CRenesas_Electronics.5CD1x_RGL.5Crgl_ghs_D1Lx_obj_V1.2E2.2E0.5Cvlib.5Capp.5Cgfx_apps.5Csimple_draw_d1l2.5Ctarget.5Cd1lx_mango_ghs.5Cobj.5Cr_sys_wm.530::
                       10655 .LDWlin530:
00002332 3d3f0500      10656 	ld.w	4[r29],r7
00002336 1c30          10657 	mov	r28,r6
                       10658 	jarl	_loc_VDCE_LayerEnable,lp
                       10658 <EXPANSION BEGIN>
                       10658 jarl22 _loc_VDCE_LayerEnable , lp 
00002338 bfff38eb*     10658 <EXPANSION END>
                       10659 .L7099:
                       10660 --3123:         }
                       10661 --3124:     }
                       10662 --3125:     return 1;
                       10663 --line3125
                       10664 ..lin.D.3A.5CRenesas_Electronics.5CD1x_RGL.5Crgl_ghs_D1Lx_obj_V1.2E2.2E0.5Cvlib.5Capp.5Cgfx_apps.5Csimple_draw_d1l2.5Ctarget.5Cd1lx_mango_ghs.5Cobj.5Cr_sys_wm.531::
                       10665 .LDWlin531:
0000233c 0152          10666 	mov	1,r10
                       10667 .L7094:
                       10668 --	    .ef
                       10669 .LDW762:
0000233e 4006ff70      10670 	dispose	0,{r25,r26,r27,r28,r29,r31},[lp]
                       10671 	.type	_R_WM_Sys_WindowPremultipliedAlphaEnable,@function
                       10672 	.size	_R_WM_Sys_WindowPremultipliedAlphaEnable,.-_R_WM_Sys_WindowPremultipliedAlphaEnable
                       10673 	.align	2
                       10674 .LDW862:
                       10675 --_err	r27	local
                       10676 --_win_layer_pair	r29	local
                       10677 
                       10678 --_Unit	r28	param
                       10679 --_Win	r26	param
                       10680 --_Enabled	r25	param
                       10681 
                       10682 	.section ".bss","awb"
                       10683 .L7154:
                       10684 	.type	.L7154,@object
                       10685 	.size	.L7154,0
                       10686 	.data
                       10687 	.text
                       10688 
                       10689 --3126: }
                       10690 
                       10691 --3128: uint32_t R_WM_Sys_WindowFlagsUpdate (uint32_t Unit, const r_wm_Window_t* Win, r_wm_WinFlags_t SetFlags, r_wm_WinFlags_t ClearFlags)
                       10692 	.align	2
                       10693 	.align	2

                                                                      Page 186
                                                              C:\Users\YINGAO~1\AppData\Local\Temp\gh_000084c1.si
                       10694 	.global	_R_WM_Sys_WindowFlagsUpdate
                       10695 _R_WM_Sys_WindowFlagsUpdate:
00002342 8207e170      10696 	prepare	{r25,r26,r27,r28,r29,r31},1
00002346 633f0100      10697 	st.w	r7,0[sp]
0000234a 06e0          10698 	mov	r6,r28
0000234c 08d8          10699 	mov	r8,r27
0000234e 09d0          10700 	mov	r9,r26
00002350 390600000000* 10701 	mov	_r_wm_DevSys,r25
                       10702 --	    .bf
                       10703 .LDW962:
                       10704 --3129: {
                       10705 --3130:     r_wm_sys_vdce_WinLayerPair_t* win_layer_pair = loc_WinLayerPairGet(Unit, Win);
00002356 233f0100      10706 	ld.w	0[sp],r7
0000235a 1c30          10707 	mov	r28,r6
                       10708 	jarl	_loc_WinLayerPairGet,lp
                       10708 <EXPANSION BEGIN>
                       10708 jarl22 _loc_WinLayerPairGet , lp 
0000235c bfff70e2*     10708 <EXPANSION END>
00002360 0ae8          10709 	mov	r10,r29
                       10710 --3131:     
                       10711 --3132:     if (win_layer_pair == R_NULL)
                       10712 --line3132
                       10713 ..lin.D.3A.5CRenesas_Electronics.5CD1x_RGL.5Crgl_ghs_D1Lx_obj_V1.2E2.2E0.5Cvlib.5Capp.5Cgfx_apps.5Csimple_draw_d1l2.5Ctarget.5Cd1lx_mango_ghs.5Cobj.5Cr_sys_wm.532::
                       10714 .LDWlin532:
00002362 e0e9          10715 	cmp	zero,r29
00002364 ba05*         10716 	bne	.L7207
                       10717 --3133:     {
                       10718 --3134:         R_WM_SYS_REPORT_ERROR(Unit, R_WM_ERR_NULL_PTR_ARGUMENT, 0);
                       10719 --3135:         return 0;
                       10720 --line3135
                       10721 ..lin.D.3A.5CRenesas_Electronics.5CD1x_RGL.5Crgl_ghs_D1Lx_obj_V1.2E2.2E0.5Cvlib.5Capp.5Cgfx_apps.5Csimple_draw_d1l2.5Ctarget.5Cd1lx_mango_ghs.5Cobj.5Cr_sys_wm.533::
                       10722 .LDWlin533:
00002366 0052          10723 	mov	0,r10
00002368 f54d*         10724 	br	.L7205
                       10725 .L7207:
                       10726 --3136:     }
                       10727 --3137:     
                       10728 --3138:     if ( 0 != ( ((uint32_t)SetFlags) & ((uint32_t)ClearFlags) ) )
                       10729 --line3138
                       10730 ..lin.D.3A.5CRenesas_Electronics.5CD1x_RGL.5Crgl_ghs_D1Lx_obj_V1.2E2.2E0.5Cvlib.5Capp.5Cgfx_apps.5Csimple_draw_d1l2.5Ctarget.5Cd1lx_mango_ghs.5Cobj.5Cr_sys_wm.534::
                       10731 .LDWlin534:
0000236a 1a08          10732 	mov	r26,r1
0000236c 5b09          10733 	and	r27,r1
0000236e b205*         10734 	be	.L7210
                       10735 --3139:     {
                       10736 --3140:         R_WM_SYS_REPORT_ERROR(Unit, R_WM_ERR_SYS_WIN_FLAG_UPDATE_FAILED, 0);
                       10737 --3141:         return 0;
                       10738 --line3141
                       10739 ..lin.D.3A.5CRenesas_Electronics.5CD1x_RGL.5Crgl_ghs_D1Lx_obj_V1.2E2.2E0.5Cvlib.5Capp.5Cgfx_apps.5Csimple_draw_d1l2.5Ctarget.5Cd1lx_mango_ghs.5Cobj.5Cr_sys_wm.535::
                       10740 .LDWlin535:
00002370 0052          10741 	mov	0,r10
00002372 a54d*         10742 	br	.L7205
                       10743 .L7210:
                       10744 --3142:     }
                       10745 --3143:     
                       10746 --3144:     if (1 == r_wm_DevSys[Unit].HwLayerEnabled[win_layer_pair->Layer])
                       10747 --line3144
                       10748 ..lin.D.3A.5CRenesas_Electronics.5CD1x_RGL.5Crgl_ghs_D1Lx_obj_V1.2E2.2E0.5Cvlib.5Capp.5Cgfx_apps.5Csimple_draw_d1l2.5Ctarget.5Cd1lx_mango_ghs.5Cobj.5Cr_sys_wm.536::
                       10749 .LDWlin536:
00002374 3d770500      10750 	ld.w	4[r29],r14
00002378 1c08          10751 	mov	r28,r1

                                                                      Page 187
                                                              C:\Users\YINGAO~1\AppData\Local\Temp\gh_000084c1.si
0000237a e100          10752 	sxh	r1
0000237c e10e6000      10753 	mulhi	96,r1,r1
00002380 d909          10754 	add	r25,r1
00002382 c272          10755 	shl	2,r14
00002384 01f63400      10756 	addi	52,r1,ep
00002388 cef1          10757 	add	r14,ep
0000238a 000d          10758 	sld.w	0[ep],r1
0000238c 610a          10759 	cmp	1,r1
0000238e aa0d*         10760 	bne	.L7213
                       10761 --3145:     {
                       10762 --3146:         if (R_VDCE_ERR_OK != R_VDCE_LayerDisable(Unit, win_layer_pair->Layer))
                       10763 --line3146
                       10764 ..lin.D.3A.5CRenesas_Electronics.5CD1x_RGL.5Crgl_ghs_D1Lx_obj_V1.2E2.2E0.5Cvlib.5Capp.5Cgfx_apps.5Csimple_draw_d1l2.5Ctarget.5Cd1lx_mango_ghs.5Cobj.5Cr_sys_wm.537::
                       10765 .LDWlin537:
00002390 3d3f0500      10766 	ld.w	4[r29],r7
00002394 1c30          10767 	mov	r28,r6
                       10768 	jarl	_R_VDCE_LayerDisable,lp
                       10768 <EXPANSION BEGIN>
                       10768 jarl22 _R_VDCE_LayerDisable , lp 
00002396 80ff0000*     10768 <EXPANSION END>
0000239a e051          10769 	cmp	zero,r10
0000239c b205*         10770 	be	.L7213
                       10771 --3147:         {
                       10772 --3148:             return 0;
                       10773 --line3148
                       10774 ..lin.D.3A.5CRenesas_Electronics.5CD1x_RGL.5Crgl_ghs_D1Lx_obj_V1.2E2.2E0.5Cvlib.5Capp.5Cgfx_apps.5Csimple_draw_d1l2.5Ctarget.5Cd1lx_mango_ghs.5Cobj.5Cr_sys_wm.538::
                       10775 .LDWlin538:
0000239e 0052          10776 	mov	0,r10
000023a0 b535*         10777 	br	.L7205
                       10778 .L7213:
                       10779 --3149:         }
                       10780 --3150:     }
                       10781 --3151:     
                       10782 --3152:     /* Enable vertical mirroring */
                       10783 --3153:     if ( 0 != ( ((uint32_t)SetFlags) & ((uint32_t)R_WM_WINFLAG_V_MIRROR) ) )
                       10784 --line3153
                       10785 ..lin.D.3A.5CRenesas_Electronics.5CD1x_RGL.5Crgl_ghs_D1Lx_obj_V1.2E2.2E0.5Cvlib.5Capp.5Cgfx_apps.5Csimple_draw_d1l2.5Ctarget.5Cd1lx_mango_ghs.5Cobj.5Cr_sys_wm.539::
                       10786 .LDWlin539:
000023a2 db060100      10787 	andi	1,r27,zero
000023a6 b20d*         10788 	be	.L7218
                       10789 --3154:     {
                       10790 --3155:         if (R_VDCE_ERR_OK != R_VDCE_LayerModeSet(Unit, win_layer_pair->Layer, R_VDCE_LAYER_MODE_V_MIRORING) )
                       10791 --line3155
                       10792 ..lin.D.3A.5CRenesas_Electronics.5CD1x_RGL.5Crgl_ghs_D1Lx_obj_V1.2E2.2E0.5Cvlib.5Capp.5Cgfx_apps.5Csimple_draw_d1l2.5Ctarget.5Cd1lx_mango_ghs.5Cobj.5Cr_sys_wm.540::
                       10793 .LDWlin540:
000023a8 3d3f0500      10794 	ld.w	4[r29],r7
000023ac 1c30          10795 	mov	r28,r6
000023ae 0142          10796 	mov	1,r8
                       10797 	jarl	_R_VDCE_LayerModeSet,lp
                       10797 <EXPANSION BEGIN>
                       10797 jarl22 _R_VDCE_LayerModeSet , lp 
000023b0 80ff0000*     10797 <EXPANSION END>
000023b4 e051          10798 	cmp	zero,r10
000023b6 b205*         10799 	be	.L7218
                       10800 --3156:         {
                       10801 --3157:             return 0;
                       10802 --line3157
                       10803 ..lin.D.3A.5CRenesas_Electronics.5CD1x_RGL.5Crgl_ghs_D1Lx_obj_V1.2E2.2E0.5Cvlib.5Capp.5Cgfx_apps.5Csimple_draw_d1l2.5Ctarget.5Cd1lx_mango_ghs.5Cobj.5Cr_sys_wm.541::
                       10804 .LDWlin541:
000023b8 0052          10805 	mov	0,r10
000023ba e525*         10806 	br	.L7205

                                                                      Page 188
                                                              C:\Users\YINGAO~1\AppData\Local\Temp\gh_000084c1.si
                       10807 .L7218:
                       10808 --3158:         }
                       10809 --3159:     }
                       10810 --3161:     /* Disable vertical mirroring */
                       10811 --3162:     if ( 0 != ( ((uint32_t)ClearFlags) & ((uint32_t)R_WM_WINFLAG_V_MIRROR) ) )
                       10812 --line3162
                       10813 ..lin.D.3A.5CRenesas_Electronics.5CD1x_RGL.5Crgl_ghs_D1Lx_obj_V1.2E2.2E0.5Cvlib.5Capp.5Cgfx_apps.5Csimple_draw_d1l2.5Ctarget.5Cd1lx_mango_ghs.5Cobj.5Cr_sys_wm.542::
                       10814 .LDWlin542:
000023bc da060100      10815 	andi	1,r26,zero
000023c0 b20d*         10816 	be	.L7223
                       10817 --3163:     {
                       10818 --3164:         if (R_VDCE_ERR_OK != R_VDCE_LayerModeSet(Unit, win_layer_pair->Layer, R_VDCE_LAYER_MODE_NONE) )
                       10819 --line3164
                       10820 ..lin.D.3A.5CRenesas_Electronics.5CD1x_RGL.5Crgl_ghs_D1Lx_obj_V1.2E2.2E0.5Cvlib.5Capp.5Cgfx_apps.5Csimple_draw_d1l2.5Ctarget.5Cd1lx_mango_ghs.5Cobj.5Cr_sys_wm.543::
                       10821 .LDWlin543:
000023c2 3d3f0500      10822 	ld.w	4[r29],r7
000023c6 1c30          10823 	mov	r28,r6
000023c8 0042          10824 	mov	0,r8
                       10825 	jarl	_R_VDCE_LayerModeSet,lp
                       10825 <EXPANSION BEGIN>
                       10825 jarl22 _R_VDCE_LayerModeSet , lp 
000023ca 80ff0000*     10825 <EXPANSION END>
000023ce e051          10826 	cmp	zero,r10
000023d0 b205*         10827 	be	.L7223
                       10828 --3165:         {
                       10829 --3166:             return 0;
                       10830 --line3166
                       10831 ..lin.D.3A.5CRenesas_Electronics.5CD1x_RGL.5Crgl_ghs_D1Lx_obj_V1.2E2.2E0.5Cvlib.5Capp.5Cgfx_apps.5Csimple_draw_d1l2.5Ctarget.5Cd1lx_mango_ghs.5Cobj.5Cr_sys_wm.544::
                       10832 .LDWlin544:
000023d2 0052          10833 	mov	0,r10
000023d4 951d*         10834 	br	.L7205
                       10835 .L7223:
                       10836 --3167:         }
                       10837 --3168:     }
                       10838 --3169:     
                       10839 --3170:     if (1 == r_wm_DevSys[Unit].HwLayerEnabled[win_layer_pair->Layer])
                       10840 --line3170
                       10841 ..lin.D.3A.5CRenesas_Electronics.5CD1x_RGL.5Crgl_ghs_D1Lx_obj_V1.2E2.2E0.5Cvlib.5Capp.5Cgfx_apps.5Csimple_draw_d1l2.5Ctarget.5Cd1lx_mango_ghs.5Cobj.5Cr_sys_wm.545::
                       10842 .LDWlin545:
000023d6 3d770500      10843 	ld.w	4[r29],r14
000023da 1c08          10844 	mov	r28,r1
000023dc e100          10845 	sxh	r1
000023de e10e6000      10846 	mulhi	96,r1,r1
000023e2 d909          10847 	add	r25,r1
000023e4 c272          10848 	shl	2,r14
000023e6 01f63400      10849 	addi	52,r1,ep
000023ea cef1          10850 	add	r14,ep
000023ec 000d          10851 	sld.w	0[ep],r1
000023ee 610a          10852 	cmp	1,r1
000023f0 aa0d*         10853 	bne	.L7228
                       10854 --3171:     {
                       10855 --3172:         if (R_VDCE_ERR_OK != R_VDCE_LayerEnable(Unit, win_layer_pair->Layer))
                       10856 --line3172
                       10857 ..lin.D.3A.5CRenesas_Electronics.5CD1x_RGL.5Crgl_ghs_D1Lx_obj_V1.2E2.2E0.5Cvlib.5Capp.5Cgfx_apps.5Csimple_draw_d1l2.5Ctarget.5Cd1lx_mango_ghs.5Cobj.5Cr_sys_wm.546::
                       10858 .LDWlin546:
000023f2 3d3f0500      10859 	ld.w	4[r29],r7
000023f6 1c30          10860 	mov	r28,r6
                       10861 	jarl	_R_VDCE_LayerEnable,lp
                       10861 <EXPANSION BEGIN>
                       10861 jarl22 _R_VDCE_LayerEnable , lp 
000023f8 80ff0000*     10861 <EXPANSION END>

                                                                      Page 189
                                                              C:\Users\YINGAO~1\AppData\Local\Temp\gh_000084c1.si
000023fc e051          10862 	cmp	zero,r10
000023fe b205*         10863 	be	.L7228
                       10864 --3173:         {
                       10865 --3174:             return 0;
                       10866 --line3174
                       10867 ..lin.D.3A.5CRenesas_Electronics.5CD1x_RGL.5Crgl_ghs_D1Lx_obj_V1.2E2.2E0.5Cvlib.5Capp.5Cgfx_apps.5Csimple_draw_d1l2.5Ctarget.5Cd1lx_mango_ghs.5Cobj.5Cr_sys_wm.547::
                       10868 .LDWlin547:
00002400 0052          10869 	mov	0,r10
00002402 a505*         10870 	br	.L7205
                       10871 .L7228:
                       10872 --3175:         }
                       10873 --3176:     }
                       10874 --3178:     return 1;
                       10875 --line3178
                       10876 ..lin.D.3A.5CRenesas_Electronics.5CD1x_RGL.5Crgl_ghs_D1Lx_obj_V1.2E2.2E0.5Cvlib.5Capp.5Cgfx_apps.5Csimple_draw_d1l2.5Ctarget.5Cd1lx_mango_ghs.5Cobj.5Cr_sys_wm.548::
                       10877 .LDWlin548:
00002404 0152          10878 	mov	1,r10
                       10879 .L7205:
                       10880 --	    .ef
                       10881 .LDW072:
00002406 4206ff70      10882 	dispose	1,{r25,r26,r27,r28,r29,r31},[lp]
                       10883 	.type	_R_WM_Sys_WindowFlagsUpdate,@function
                       10884 	.size	_R_WM_Sys_WindowFlagsUpdate,.-_R_WM_Sys_WindowFlagsUpdate
                       10885 	.align	2
                       10886 .LDW172:
                       10887 --_win_layer_pair	r29	local
                       10888 
                       10889 --_Unit	r28	param
                       10890 --_Win	0[sp]	param
                       10891 --_SetFlags	r27	param
                       10892 --_ClearFlags	r26	param
                       10893 
                       10894 	.section ".bss","awb"
                       10895 .L7274:
                       10896 	.type	.L7274,@object
                       10897 	.size	.L7274,0
                       10898 	.data
                       10899 	.text
                       10900 
                       10901 --3179: }
                       10902 
                       10903 --3181: uint32_t R_WM_Sys_WindowClutSet(uint32_t Unit, const r_wm_Window_t* Win, uint32_t NumEntries, const r_wm_ClutEntry_t* Clut)
                       10904 	.align	2
                       10905 	.align	2
                       10906 	.global	_R_WM_Sys_WindowClutSet
                       10907 _R_WM_Sys_WindowClutSet:
0000240a 8007e170      10908 	prepare	{r25,r26,r27,r28,r29,r31},0
0000240e 06e0          10909 	mov	r6,r28
00002410 07d8          10910 	mov	r7,r27
00002412 08d0          10911 	mov	r8,r26
00002414 09c8          10912 	mov	r9,r25
                       10913 --	    .bf
                       10914 .LDW272:
                       10915 --3182: {
                       10916 --3183:     r_wm_sys_vdce_WinLayerPair_t* win_layer_pair = loc_WinLayerPairGet(Unit, Win);
00002416 1c30          10917 	mov	r28,r6
00002418 1b38          10918 	mov	r27,r7
                       10919 	jarl	_loc_WinLayerPairGet,lp
                       10919 <EXPANSION BEGIN>
                       10919 jarl22 _loc_WinLayerPairGet , lp 
0000241a bfffb2e1*     10919 <EXPANSION END>

                                                                      Page 190
                                                              C:\Users\YINGAO~1\AppData\Local\Temp\gh_000084c1.si
0000241e 0ae8          10920 	mov	r10,r29
                       10921 --3184:     if (win_layer_pair == R_NULL)
                       10922 --line3184
                       10923 ..lin.D.3A.5CRenesas_Electronics.5CD1x_RGL.5Crgl_ghs_D1Lx_obj_V1.2E2.2E0.5Cvlib.5Capp.5Cgfx_apps.5Csimple_draw_d1l2.5Ctarget.5Cd1lx_mango_ghs.5Cobj.5Cr_sys_wm.549::
                       10924 .LDWlin549:
00002420 e0e9          10925 	cmp	zero,r29
00002422 ba05*         10926 	bne	.L7339
                       10927 --3185:     {
                       10928 --3186:         R_WM_SYS_REPORT_ERROR(Unit, R_WM_ERR_NULL_PTR_ARGUMENT, 0);
                       10929 --3187:         return 0;
                       10930 --line3187
                       10931 ..lin.D.3A.5CRenesas_Electronics.5CD1x_RGL.5Crgl_ghs_D1Lx_obj_V1.2E2.2E0.5Cvlib.5Capp.5Cgfx_apps.5Csimple_draw_d1l2.5Ctarget.5Cd1lx_mango_ghs.5Cobj.5Cr_sys_wm.550::
                       10932 .LDWlin550:
00002424 0052          10933 	mov	0,r10
00002426 f515*         10934 	br	.L7337
                       10935 .L7339:
                       10936 --3188:     }
                       10937 --3189:     
                       10938 --3190:     if (0 == NumEntries)
                       10939 --line3190
                       10940 ..lin.D.3A.5CRenesas_Electronics.5CD1x_RGL.5Crgl_ghs_D1Lx_obj_V1.2E2.2E0.5Cvlib.5Capp.5Cgfx_apps.5Csimple_draw_d1l2.5Ctarget.5Cd1lx_mango_ghs.5Cobj.5Cr_sys_wm.551::
                       10941 .LDWlin551:
00002428 e0d1          10942 	cmp	zero,r26
0000242a ba05*         10943 	bne	.L7342
                       10944 --3191:     {
                       10945 --3192:         return 0;
                       10946 --line3192
                       10947 ..lin.D.3A.5CRenesas_Electronics.5CD1x_RGL.5Crgl_ghs_D1Lx_obj_V1.2E2.2E0.5Cvlib.5Capp.5Cgfx_apps.5Csimple_draw_d1l2.5Ctarget.5Cd1lx_mango_ghs.5Cobj.5Cr_sys_wm.552::
                       10948 .LDWlin552:
0000242c 0052          10949 	mov	0,r10
0000242e b515*         10950 	br	.L7337
                       10951 .L7342:
                       10952 --3193:     }
                       10953 --3194:     else
                       10954 --3195:     {
                       10955 --3196:         r_wm_DevSys[Unit].FrameStatusFlags |= (1uL << (R_WM_SYS_FRAME_STATUS_LAYER_0_CLUT_UPDATE_BIT+win_layer_pair->Layer));
                       10956 --line3196
                       10957 ..lin.D.3A.5CRenesas_Electronics.5CD1x_RGL.5Crgl_ghs_D1Lx_obj_V1.2E2.2E0.5Cvlib.5Capp.5Cgfx_apps.5Csimple_draw_d1l2.5Ctarget.5Cd1lx_mango_ghs.5Cobj.5Cr_sys_wm.553::
                       10958 .LDWlin553:
00002430 3d0f0500      10959 	ld.w	4[r29],r1
00002434 1cf0          10960 	mov	r28,ep
00002436 fe00          10961 	sxh	ep
00002438 0172          10962 	mov	1,r14
0000243a fef66000      10963 	mulhi	96,ep,ep
0000243e 2d0600000000* 10964 	mov	_r_wm_DevSys,r13
00002444 470a          10965 	add	7,r1
00002446 e177c270      10966 	shl	r1,r14,r14
0000244a cdf1          10967 	add	r13,ep
0000244c 2a0d          10968 	sld.w	84[ep],r1
0000244e 0e09          10969 	or	r14,r1
00002450 2b0d          10970 	sst.w	r1,84[ep]
                       10971 --3197:     }
                       10972 --3198:     
                       10973 --3199:     return 1;
00002452 0152          10974 	mov	1,r10
                       10975 .L7337:
                       10976 --	    .ef
                       10977 .LDW372:
00002454 4006ff70      10978 	dispose	0,{r25,r26,r27,r28,r29,r31},[lp]
                       10979 	.type	_R_WM_Sys_WindowClutSet,@function
                       10980 	.size	_R_WM_Sys_WindowClutSet,.-_R_WM_Sys_WindowClutSet

                                                                      Page 191
                                                              C:\Users\YINGAO~1\AppData\Local\Temp\gh_000084c1.si
                       10981 	.align	2
                       10982 .LDW472:
                       10983 --_win_layer_pair	r29	local
                       10984 
                       10985 --_Unit	r28	param
                       10986 --_Win	r27	param
                       10987 --_NumEntries	r26	param
                       10988 --_Clut	r25	param
                       10989 
                       10990 	.section ".bss","awb"
                       10991 .L7380:
                       10992 	.type	.L7380,@object
                       10993 	.size	.L7380,0
                       10994 	.data
                       10995 	.text
                       10996 
                       10997 --3200: }
                       10998 
                       10999 --3202: uint32_t R_WM_Sys_WindowDeleteAllSprites    (   uint32_t Unit,
                       11000 	.align	2
                       11001 	.align	2
                       11002 	.global	_R_WM_Sys_WindowDeleteAllSprites
                       11003 _R_WM_Sys_WindowDeleteAllSprites:
00002458 8407e130      11004 	prepare	{r26,r27,r28,r29,r31},2
0000245c 06e0          11005 	mov	r6,r28
0000245e 07d0          11006 	mov	r7,r26
                       11007 --	    .bf
                       11008 .LDW572:
                       11009 --3203:                                                 const r_wm_Window_t* Win
                       11010 --3204:                                             )
                       11011 --3205: {
                       11012 --3206:     r_wm_sys_vdce_WinLayerPair_t* win_layer_pair = loc_WinLayerPairGet(Unit, Win);
00002460 1c30          11013 	mov	r28,r6
00002462 1a38          11014 	mov	r26,r7
                       11015 	jarl	_loc_WinLayerPairGet,lp
                       11015 <EXPANSION BEGIN>
                       11015 jarl22 _loc_WinLayerPairGet , lp 
00002464 bfff68e1*     11015 <EXPANSION END>
00002468 0ad8          11016 	mov	r10,r27
                       11017 --3207:     uint32_t sprite;
                       11018 --3208:     r_spea_Unit_t spea_unit;
                       11019 --3209:     uint8_t spea_unit_ordinal = 0;
                       11020 --line3209
                       11021 ..lin.D.3A.5CRenesas_Electronics.5CD1x_RGL.5Crgl_ghs_D1Lx_obj_V1.2E2.2E0.5Cvlib.5Capp.5Cgfx_apps.5Csimple_draw_d1l2.5Ctarget.5Cd1lx_mango_ghs.5Cobj.5Cr_sys_wm.554::
                       11022 .LDWlin554:
0000246a 43070300      11023 	st.b	zero,3[sp]
                       11024 --3210:     
                       11025 --3211:     if (win_layer_pair == R_NULL)
0000246e e0d9          11026 	cmp	zero,r27
00002470 ba05*         11027 	bne	.L7412
                       11028 --3212:     {
                       11029 --3213:         R_WM_SYS_REPORT_ERROR(Unit, R_WM_ERR_NULL_PTR_ARGUMENT, 0);
                       11030 --3214:         return 0;
                       11031 --line3214
                       11032 ..lin.D.3A.5CRenesas_Electronics.5CD1x_RGL.5Crgl_ghs_D1Lx_obj_V1.2E2.2E0.5Cvlib.5Capp.5Cgfx_apps.5Csimple_draw_d1l2.5Ctarget.5Cd1lx_mango_ghs.5Cobj.5Cr_sys_wm.555::
                       11033 .LDWlin555:
00002472 0052          11034 	mov	0,r10
00002474 e52d*         11035 	br	.L7410
                       11036 .L7412:
                       11037 --3215:     }
                       11038 --3217:     loc_Layer2Spea(Unit, win_layer_pair->Layer, &spea_unit, &spea_unit_ordinal);

                                                                      Page 192
                                                              C:\Users\YINGAO~1\AppData\Local\Temp\gh_000084c1.si
                       11039 --line3217
                       11040 ..lin.D.3A.5CRenesas_Electronics.5CD1x_RGL.5Crgl_ghs_D1Lx_obj_V1.2E2.2E0.5Cvlib.5Capp.5Cgfx_apps.5Csimple_draw_d1l2.5Ctarget.5Cd1lx_mango_ghs.5Cobj.5Cr_sys_wm.556::
                       11041 .LDWlin556:
00002476 3b3f0500      11042 	ld.w	4[r27],r7
0000247a 1c30          11043 	mov	r28,r6
0000247c 23460400      11044 	movea	4,sp,r8
00002480 234e0300      11045 	movea	3,sp,r9
                       11046 	jarl	_loc_Layer2Spea,lp
                       11046 <EXPANSION BEGIN>
                       11046 jarl22 _loc_Layer2Spea , lp 
00002484 bfffcadf*     11046 <EXPANSION END>
                       11047 --3218:     
                       11048 --3219:     for (sprite = 0; sprite < R_VDCE_MAX_SPRITES_PER_LAYER; ++sprite)
                       11049 --line3219
                       11050 ..lin.D.3A.5CRenesas_Electronics.5CD1x_RGL.5Crgl_ghs_D1Lx_obj_V1.2E2.2E0.5Cvlib.5Capp.5Cgfx_apps.5Csimple_draw_d1l2.5Ctarget.5Cd1lx_mango_ghs.5Cobj.5Cr_sys_wm.557::
                       11051 .LDWlin557:
00002488 00ea          11052 	mov	0,r29
0000248a 0000          11053 	nop
                       11054 .L7417:
                       11055 --3220:     {
                       11056 --3221:         if (R_SPEA_ERR_OK != R_SPEA_SpriteEnable(0, spea_unit_ordinal, sprite, 0))
0000248c a33f0300      11057 	ld.bu	3[sp],r7
00002490 1d40          11058 	mov	r29,r8
00002492 8800          11059 	zxb	r8
00002494 0032          11060 	mov	0,r6
00002496 004a          11061 	mov	0,r9
                       11062 	jarl	_R_SPEA_SpriteEnable,lp
                       11062 <EXPANSION BEGIN>
                       11062 jarl22 _R_SPEA_SpriteEnable , lp 
00002498 80ff0000*     11062 <EXPANSION END>
0000249c e051          11063 	cmp	zero,r10
0000249e b205*         11064 	be	.L7418
                       11065 --3222:         {
                       11066 --3223:             return 0;
                       11067 --line3223
                       11068 ..lin.D.3A.5CRenesas_Electronics.5CD1x_RGL.5Crgl_ghs_D1Lx_obj_V1.2E2.2E0.5Cvlib.5Capp.5Cgfx_apps.5Csimple_draw_d1l2.5Ctarget.5Cd1lx_mango_ghs.5Cobj.5Cr_sys_wm.558::
                       11069 .LDWlin558:
000024a0 0052          11070 	mov	0,r10
000024a2 f515*         11071 	br	.L7410
                       11072 .L7418:
                       11073 --line3219
                       11074 ..lin.D.3A.5CRenesas_Electronics.5CD1x_RGL.5Crgl_ghs_D1Lx_obj_V1.2E2.2E0.5Cvlib.5Capp.5Cgfx_apps.5Csimple_draw_d1l2.5Ctarget.5Cd1lx_mango_ghs.5Cobj.5Cr_sys_wm.559::
                       11075 .LDWlin559:
000024a4 41ea          11076 	add	1,r29
000024a6 1d06f0ff      11077 	addi	-16,r29,zero
000024aa 99f5*         11078 	bnl	.L7417
                       11079 --3224:         }
                       11080 --3225:     }
                       11081 --3226:     
                       11082 --3227:     /* Set respective R_WM_SYS_FRAME_STATUS_SPEA_SUn_UPDATE_BIT */
                       11083 --3228:     r_wm_DevSys[Unit].FrameStatusFlags |= (1uL << (R_WM_SYS_FRAME_STATUS_SPEA_SU0_UPDATE_BIT+spea_unit_ordinal));
                       11084 --line3228
                       11085 ..lin.D.3A.5CRenesas_Electronics.5CD1x_RGL.5Crgl_ghs_D1Lx_obj_V1.2E2.2E0.5Cvlib.5Capp.5Cgfx_apps.5Csimple_draw_d1l2.5Ctarget.5Cd1lx_mango_ghs.5Cobj.5Cr_sys_wm.560::
                       11086 .LDWlin560:
000024ac a30f0300      11087 	ld.bu	3[sp],r1
000024b0 1cf0          11088 	mov	r28,ep
000024b2 fe00          11089 	sxh	ep
000024b4 0172          11090 	mov	1,r14
000024b6 fef66000      11091 	mulhi	96,ep,ep
000024ba 2d0600000000* 11092 	mov	_r_wm_DevSys,r13
000024c0 410a          11093 	add	1,r1

                                                                      Page 193
                                                              C:\Users\YINGAO~1\AppData\Local\Temp\gh_000084c1.si
000024c2 e177c270      11094 	shl	r1,r14,r14
000024c6 cdf1          11095 	add	r13,ep
000024c8 2a0d          11096 	sld.w	84[ep],r1
000024ca 0e09          11097 	or	r14,r1
000024cc 2b0d          11098 	sst.w	r1,84[ep]
                       11099 --3229:     return 1;
000024ce 0152          11100 	mov	1,r10
                       11101 .L7410:
                       11102 --	    .ef
                       11103 .LDW672:
000024d0 4406ff30      11104 	dispose	2,{r26,r27,r28,r29,r31},[lp]
                       11105 	.type	_R_WM_Sys_WindowDeleteAllSprites,@function
                       11106 	.size	_R_WM_Sys_WindowDeleteAllSprites,.-_R_WM_Sys_WindowDeleteAllSprites
                       11107 	.align	2
                       11108 .LDW772:
                       11109 --_win_layer_pair	r27	local
                       11110 --_sprite	r29	local
                       11111 --_spea_unit	4[sp]	local
                       11112 --_spea_unit_ordinal	3[sp]	local
                       11113 
                       11114 --_Unit	r28	param
                       11115 --_Win	r26	param
                       11116 
                       11117 	.section ".bss","awb"
                       11118 .L7456:
                       11119 	.type	.L7456,@object
                       11120 	.size	.L7456,0
                       11121 	.data
                       11122 	.text
                       11123 
                       11124 --3230: }
                       11125 
                       11126 --3232: uint32_t R_WM_Sys_WindowColorKeyEnable(uint32_t Unit, const r_wm_Window_t* Win, uint32_t Enabled)
                       11127 	.align	2
                       11128 	.align	2
                       11129 	.global	_R_WM_Sys_WindowColorKeyEnable
                       11130 _R_WM_Sys_WindowColorKeyEnable:
000024d4 8407e130      11131 	prepare	{r26,r27,r28,r29,r31},2
000024d8 06d8          11132 	mov	r6,r27
000024da 07e0          11133 	mov	r7,r28
000024dc 08d0          11134 	mov	r8,r26
                       11135 --	    .bf
                       11136 .LDW872:
                       11137 --3233: {
                       11138 --3234:     r_vdce_CkARGB32_t ck_in;
                       11139 --3235:     r_vdce_CkARGB32_t ck_out;
                       11140 --3236:     r_wm_sys_vdce_WinLayerPair_t* win_layer_pair = loc_WinLayerPairGet(Unit, Win);
000024de 1b30          11141 	mov	r27,r6
000024e0 1c38          11142 	mov	r28,r7
                       11143 	jarl	_loc_WinLayerPairGet,lp
                       11143 <EXPANSION BEGIN>
                       11143 jarl22 _loc_WinLayerPairGet , lp 
000024e2 bfffeae0*     11143 <EXPANSION END>
000024e6 0ae8          11144 	mov	r10,r29
                       11145 --3237:     
                       11146 --3238:     if (win_layer_pair == R_NULL)
                       11147 --line3238
                       11148 ..lin.D.3A.5CRenesas_Electronics.5CD1x_RGL.5Crgl_ghs_D1Lx_obj_V1.2E2.2E0.5Cvlib.5Capp.5Cgfx_apps.5Csimple_draw_d1l2.5Ctarget.5Cd1lx_mango_ghs.5Cobj.5Cr_sys_wm.561::
                       11149 .LDWlin561:
000024e8 e0e9          11150 	cmp	zero,r29
000024ea ba05*         11151 	bne	.L7506

                                                                      Page 194
                                                              C:\Users\YINGAO~1\AppData\Local\Temp\gh_000084c1.si
                       11152 --3239:     {
                       11153 --3240:         R_WM_SYS_REPORT_ERROR(Unit, R_WM_ERR_NULL_PTR_ARGUMENT, 0);
                       11154 --3241:         return 0;
                       11155 --line3241
                       11156 ..lin.D.3A.5CRenesas_Electronics.5CD1x_RGL.5Crgl_ghs_D1Lx_obj_V1.2E2.2E0.5Cvlib.5Capp.5Cgfx_apps.5Csimple_draw_d1l2.5Ctarget.5Cd1lx_mango_ghs.5Cobj.5Cr_sys_wm.562::
                       11157 .LDWlin562:
000024ec 0052          11158 	mov	0,r10
000024ee a575*         11159 	br	.L7504
                       11160 .L7506:
                       11161 --3242:     }
                       11162 --3243:     
                       11163 --3244:     if (0 == win_layer_pair->Layer)
                       11164 --line3244
                       11165 ..lin.D.3A.5CRenesas_Electronics.5CD1x_RGL.5Crgl_ghs_D1Lx_obj_V1.2E2.2E0.5Cvlib.5Capp.5Cgfx_apps.5Csimple_draw_d1l2.5Ctarget.5Cd1lx_mango_ghs.5Cobj.5Cr_sys_wm.563::
                       11166 .LDWlin563:
000024f0 3d0f0500      11167 	ld.w	4[r29],r1
000024f4 e009          11168 	cmp	zero,r1
000024f6 ba05*         11169 	bne	.L7509
                       11170 --3245:     {
                       11171 --3246:         /* R_WM_ERR_COLOR_KEYING_NOT_SUPPORTED_FOR_LAYER */
                       11172 --3247:         R_WM_SYS_REPORT_ERROR(Unit, R_WM_ERR_COLOR_KEYING_NOT_SUPPORTED_FOR_LAYER, 0);
                       11173 --3248:         return 0;
                       11174 --line3248
                       11175 ..lin.D.3A.5CRenesas_Electronics.5CD1x_RGL.5Crgl_ghs_D1Lx_obj_V1.2E2.2E0.5Cvlib.5Capp.5Cgfx_apps.5Csimple_draw_d1l2.5Ctarget.5Cd1lx_mango_ghs.5Cobj.5Cr_sys_wm.564::
                       11176 .LDWlin564:
000024f8 0052          11177 	mov	0,r10
000024fa c56d*         11178 	br	.L7504
                       11179 .L7509:
                       11180 --3249:     }
                       11181 --3250:     
                       11182 --3251:     /* The Layer must be disabled for Colorkey configuration */
                       11183 --3252:     loc_VDCE_LayerDisable(Unit, win_layer_pair->Layer);
                       11184 --line3252
                       11185 ..lin.D.3A.5CRenesas_Electronics.5CD1x_RGL.5Crgl_ghs_D1Lx_obj_V1.2E2.2E0.5Cvlib.5Capp.5Cgfx_apps.5Csimple_draw_d1l2.5Ctarget.5Cd1lx_mango_ghs.5Cobj.5Cr_sys_wm.565::
                       11186 .LDWlin565:
000024fc 3d3f0500      11187 	ld.w	4[r29],r7
00002500 1b30          11188 	mov	r27,r6
                       11189 	jarl	_loc_VDCE_LayerDisable,lp
                       11189 <EXPANSION BEGIN>
                       11189 jarl22 _loc_VDCE_LayerDisable , lp 
00002502 bfffc4e9*     11189 <EXPANSION END>
                       11190 --3253:     
                       11191 --3254:     if (Enabled != 0)
                       11192 --line3254
                       11193 ..lin.D.3A.5CRenesas_Electronics.5CD1x_RGL.5Crgl_ghs_D1Lx_obj_V1.2E2.2E0.5Cvlib.5Capp.5Cgfx_apps.5Csimple_draw_d1l2.5Ctarget.5Cd1lx_mango_ghs.5Cobj.5Cr_sys_wm.566::
                       11194 .LDWlin566:
00002506 e0d1          11195 	cmp	zero,r26
00002508 d23d*         11196 	be	.L7512
                       11197 --3255:     {
                       11198 --3256:         ck_in.R = Win->ColorKey.In.RgbKey.Red;
                       11199 --line3256
                       11200 ..lin.D.3A.5CRenesas_Electronics.5CD1x_RGL.5Crgl_ghs_D1Lx_obj_V1.2E2.2E0.5Cvlib.5Capp.5Cgfx_apps.5Csimple_draw_d1l2.5Ctarget.5Cd1lx_mango_ghs.5Cobj.5Cr_sys_wm.567::
                       11201 .LDWlin567:
0000250a bc0f3d00      11202 	ld.bu	61[r28],r1
0000250e 430f0200      11203 	st.b	r1,2[sp]
                       11204 --3257:         ck_in.G = Win->ColorKey.In.RgbKey.Green;
00002512 9c0f3f00      11205 	ld.bu	62[r28],r1
00002516 430f0100      11206 	st.b	r1,1[sp]
                       11207 --3258:         ck_in.B = Win->ColorKey.In.RgbKey.Blue;
0000251a bc0f3f00      11208 	ld.bu	63[r28],r1
0000251e 430f0000      11209 	st.b	r1,0[sp]

                                                                      Page 195
                                                              C:\Users\YINGAO~1\AppData\Local\Temp\gh_000084c1.si
                       11210 --3259:         ck_in.A = 0x00;
00002522 43070300      11211 	st.b	zero,3[sp]
                       11212 --3260:         
                       11213 --3261:         ck_out.R = Win->ColorKey.Out.Red;
00002526 9c0f4100      11214 	ld.bu	64[r28],r1
0000252a 430f0600      11215 	st.b	r1,6[sp]
                       11216 --3262:         ck_out.G = Win->ColorKey.Out.Green;
0000252e bc0f4100      11217 	ld.bu	65[r28],r1
00002532 430f0500      11218 	st.b	r1,5[sp]
                       11219 --3263:         ck_out.B = Win->ColorKey.Out.Blue;
00002536 9c0f4300      11220 	ld.bu	66[r28],r1
0000253a 430f0400      11221 	st.b	r1,4[sp]
                       11222 --3264:         ck_out.A = Win->ColorKey.Out.Alpha;
0000253e bc0f4300      11223 	ld.bu	67[r28],r1
00002542 430f0700      11224 	st.b	r1,7[sp]
                       11225 --3265:         
                       11226 --3266:         /* Layer Alpha and Chroma Keying are exclusive. 
                       11227 --3267:            Chroma Keying overrides Layer Alpha. */
                       11228 --3268:         if((0 < win_layer_pair->Layer) && (win_layer_pair->Layer < 4))
00002546 3d0f0500      11229 	ld.w	4[r29],r1
0000254a e009          11230 	cmp	zero,r1
0000254c e30d*         11231 	bnh	.L7514
0000254e 3d0f0500      11232 	ld.w	4[r29],r1
00002552 640a          11233 	cmp	4,r1
00002554 a90d*         11234 	bnl	.L7514
                       11235 --3269:         {
                       11236 --3270:             if (R_VDCE_ERR_OK != R_VDCE_LayerAlphaConstDisable(Unit, win_layer_pair->Layer))
                       11237 --line3270
                       11238 ..lin.D.3A.5CRenesas_Electronics.5CD1x_RGL.5Crgl_ghs_D1Lx_obj_V1.2E2.2E0.5Cvlib.5Capp.5Cgfx_apps.5Csimple_draw_d1l2.5Ctarget.5Cd1lx_mango_ghs.5Cobj.5Cr_sys_wm.568::
                       11239 .LDWlin568:
00002556 3d3f0500      11240 	ld.w	4[r29],r7
0000255a 1b30          11241 	mov	r27,r6
                       11242 	jarl	_R_VDCE_LayerAlphaConstDisable,lp
                       11242 <EXPANSION BEGIN>
                       11242 jarl22 _R_VDCE_LayerAlphaConstDisable , lp 
0000255c 80ff0000*     11242 <EXPANSION END>
00002560 e051          11243 	cmp	zero,r10
00002562 b205*         11244 	be	.L7514
                       11245 --3271:             {
                       11246 --3272:                 return 0;
                       11247 --line3272
                       11248 ..lin.D.3A.5CRenesas_Electronics.5CD1x_RGL.5Crgl_ghs_D1Lx_obj_V1.2E2.2E0.5Cvlib.5Capp.5Cgfx_apps.5Csimple_draw_d1l2.5Ctarget.5Cd1lx_mango_ghs.5Cobj.5Cr_sys_wm.569::
                       11249 .LDWlin569:
00002564 0052          11250 	mov	0,r10
00002566 e535*         11251 	br	.L7504
                       11252 .L7514:
                       11253 --3273:             }
                       11254 --3274:         }
                       11255 --3275:         if (R_VDCE_ERR_OK != R_VDCE_LayerChromaKeyEnable(Unit, win_layer_pair->Layer, &ck_in, &ck_out))
                       11256 --line3275
                       11257 ..lin.D.3A.5CRenesas_Electronics.5CD1x_RGL.5Crgl_ghs_D1Lx_obj_V1.2E2.2E0.5Cvlib.5Capp.5Cgfx_apps.5Csimple_draw_d1l2.5Ctarget.5Cd1lx_mango_ghs.5Cobj.5Cr_sys_wm.570::
                       11258 .LDWlin570:
00002568 3d3f0500      11259 	ld.w	4[r29],r7
0000256c 1b30          11260 	mov	r27,r6
0000256e 23460000      11261 	movea	0,sp,r8
00002572 234e0400      11262 	movea	4,sp,r9
                       11263 	jarl	_R_VDCE_LayerChromaKeyEnable,lp
                       11263 <EXPANSION BEGIN>
                       11263 jarl22 _R_VDCE_LayerChromaKeyEnable , lp 
00002576 80ff0000*     11263 <EXPANSION END>
0000257a e051          11264 	cmp	zero,r10

                                                                      Page 196
                                                              C:\Users\YINGAO~1\AppData\Local\Temp\gh_000084c1.si
0000257c 9225*         11265 	be	.L7523
                       11266 --3276:         {
                       11267 --3277:             return 0;
                       11268 --line3277
                       11269 ..lin.D.3A.5CRenesas_Electronics.5CD1x_RGL.5Crgl_ghs_D1Lx_obj_V1.2E2.2E0.5Cvlib.5Capp.5Cgfx_apps.5Csimple_draw_d1l2.5Ctarget.5Cd1lx_mango_ghs.5Cobj.5Cr_sys_wm.571::
                       11270 .LDWlin571:
0000257e 0052          11271 	mov	0,r10
00002580 952d*         11272 	br	.L7504
                       11273 .L7512:
                       11274 --3278:         }
                       11275 --3279:     }
                       11276 --3280:     else
                       11277 --3281:     {
                       11278 --3282:         if (R_VDCE_ERR_OK != R_VDCE_LayerChromaKeyDisable(Unit, win_layer_pair->Layer))
                       11279 --line3282
                       11280 ..lin.D.3A.5CRenesas_Electronics.5CD1x_RGL.5Crgl_ghs_D1Lx_obj_V1.2E2.2E0.5Cvlib.5Capp.5Cgfx_apps.5Csimple_draw_d1l2.5Ctarget.5Cd1lx_mango_ghs.5Cobj.5Cr_sys_wm.572::
                       11281 .LDWlin572:
00002582 3d3f0500      11282 	ld.w	4[r29],r7
00002586 1b30          11283 	mov	r27,r6
                       11284 	jarl	_R_VDCE_LayerChromaKeyDisable,lp
                       11284 <EXPANSION BEGIN>
                       11284 jarl22 _R_VDCE_LayerChromaKeyDisable , lp 
00002588 80ff0000*     11284 <EXPANSION END>
0000258c e051          11285 	cmp	zero,r10
0000258e b205*         11286 	be	.L7524
                       11287 --3283:         {
                       11288 --3284:             return 0;
                       11289 --line3284
                       11290 ..lin.D.3A.5CRenesas_Electronics.5CD1x_RGL.5Crgl_ghs_D1Lx_obj_V1.2E2.2E0.5Cvlib.5Capp.5Cgfx_apps.5Csimple_draw_d1l2.5Ctarget.5Cd1lx_mango_ghs.5Cobj.5Cr_sys_wm.573::
                       11291 .LDWlin573:
00002590 0052          11292 	mov	0,r10
00002592 8525*         11293 	br	.L7504
                       11294 .L7524:
                       11295 --3285:         }
                       11296 --3287:         /* Layer Alpha and Chroma Keying are exclusive. 
                       11297 --3288:            Layer Alpha can be enabled again. */
                       11298 --3289:         if((0 < win_layer_pair->Layer) && (win_layer_pair->Layer < 4))
                       11299 --line3289
                       11300 ..lin.D.3A.5CRenesas_Electronics.5CD1x_RGL.5Crgl_ghs_D1Lx_obj_V1.2E2.2E0.5Cvlib.5Capp.5Cgfx_apps.5Csimple_draw_d1l2.5Ctarget.5Cd1lx_mango_ghs.5Cobj.5Cr_sys_wm.574::
                       11301 .LDWlin574:
00002594 3d0f0500      11302 	ld.w	4[r29],r1
00002598 e009          11303 	cmp	zero,r1
0000259a a315*         11304 	bnh	.L7523
0000259c 3d0f0500      11305 	ld.w	4[r29],r1
000025a0 640a          11306 	cmp	4,r1
000025a2 e90d*         11307 	bnl	.L7523
                       11308 --3290:         {
                       11309 --3291:             if (R_VDCE_ERR_OK != R_VDCE_LayerAlphaConstEnable(Unit, win_layer_pair->Layer, win_layer_pair->Win->Alpha))
                       11310 --line3291
                       11311 ..lin.D.3A.5CRenesas_Electronics.5CD1x_RGL.5Crgl_ghs_D1Lx_obj_V1.2E2.2E0.5Cvlib.5Capp.5Cgfx_apps.5Csimple_draw_d1l2.5Ctarget.5Cd1lx_mango_ghs.5Cobj.5Cr_sys_wm.575::
                       11312 .LDWlin575:
000025a4 3d470100      11313 	ld.w	0[r29],r8
000025a8 1b30          11314 	mov	r27,r6
000025aa 3d3f0500      11315 	ld.w	4[r29],r7
000025ae 88473100      11316 	ld.bu	48[r8],r8
                       11317 	jarl	_R_VDCE_LayerAlphaConstEnable,lp
                       11317 <EXPANSION BEGIN>
                       11317 jarl22 _R_VDCE_LayerAlphaConstEnable , lp 
000025b2 80ff0000*     11317 <EXPANSION END>
000025b6 e051          11318 	cmp	zero,r10
000025b8 b205*         11319 	be	.L7523

                                                                      Page 197
                                                              C:\Users\YINGAO~1\AppData\Local\Temp\gh_000084c1.si
                       11320 --3292:             {
                       11321 --3293:                 return 0;
                       11322 --line3293
                       11323 ..lin.D.3A.5CRenesas_Electronics.5CD1x_RGL.5Crgl_ghs_D1Lx_obj_V1.2E2.2E0.5Cvlib.5Capp.5Cgfx_apps.5Csimple_draw_d1l2.5Ctarget.5Cd1lx_mango_ghs.5Cobj.5Cr_sys_wm.576::
                       11324 .LDWlin576:
000025ba 0052          11325 	mov	0,r10
000025bc b50d*         11326 	br	.L7504
                       11327 .L7523:
                       11328 --3294:             }
                       11329 --3295:         }
                       11330 --3296:     }
                       11331 --3297:     
                       11332 --3298:     
                       11333 --3299:     /* If the layer was enabled before configuration, enable it again */
                       11334 --3300:     if (Win->Status == R_WM_WINSTATUS_ENABLED)
                       11335 --line3300
                       11336 ..lin.D.3A.5CRenesas_Electronics.5CD1x_RGL.5Crgl_ghs_D1Lx_obj_V1.2E2.2E0.5Cvlib.5Capp.5Cgfx_apps.5Csimple_draw_d1l2.5Ctarget.5Cd1lx_mango_ghs.5Cobj.5Cr_sys_wm.577::
                       11337 .LDWlin577:
000025be 3c0f0100      11338 	ld.w	0[r28],r1
000025c2 620a          11339 	cmp	2,r1
000025c4 ea05*         11340 	bne	.L7533
                       11341 --3301:     {
                       11342 --3302:         loc_VDCE_LayerEnable(Unit, win_layer_pair->Layer);
                       11343 --line3302
                       11344 ..lin.D.3A.5CRenesas_Electronics.5CD1x_RGL.5Crgl_ghs_D1Lx_obj_V1.2E2.2E0.5Cvlib.5Capp.5Cgfx_apps.5Csimple_draw_d1l2.5Ctarget.5Cd1lx_mango_ghs.5Cobj.5Cr_sys_wm.578::
                       11345 .LDWlin578:
000025c6 3d3f0500      11346 	ld.w	4[r29],r7
000025ca 1b30          11347 	mov	r27,r6
                       11348 	jarl	_loc_VDCE_LayerEnable,lp
                       11348 <EXPANSION BEGIN>
                       11348 jarl22 _loc_VDCE_LayerEnable , lp 
000025cc bfffa4e8*     11348 <EXPANSION END>
                       11349 .L7533:
                       11350 --3303:     }
                       11351 --3304:     
                       11352 --3305:     return 1;
                       11353 --line3305
                       11354 ..lin.D.3A.5CRenesas_Electronics.5CD1x_RGL.5Crgl_ghs_D1Lx_obj_V1.2E2.2E0.5Cvlib.5Capp.5Cgfx_apps.5Csimple_draw_d1l2.5Ctarget.5Cd1lx_mango_ghs.5Cobj.5Cr_sys_wm.579::
                       11355 .LDWlin579:
000025d0 0152          11356 	mov	1,r10
                       11357 .L7504:
                       11358 --	    .ef
                       11359 .LDW972:
000025d2 4406ff30      11360 	dispose	2,{r26,r27,r28,r29,r31},[lp]
                       11361 	.type	_R_WM_Sys_WindowColorKeyEnable,@function
                       11362 	.size	_R_WM_Sys_WindowColorKeyEnable,.-_R_WM_Sys_WindowColorKeyEnable
                       11363 	.align	2
                       11364 .LDW082:
                       11365 --_ck_in	0[sp]	local
                       11366 --_ck_out	4[sp]	local
                       11367 --_win_layer_pair	r29	local
                       11368 
                       11369 --_Unit	r27	param
                       11370 --_Win	r28	param
                       11371 --_Enabled	r26	param
                       11372 
                       11373 	.section ".bss","awb"
                       11374 .L7602:
                       11375 	.type	.L7602,@object
                       11376 	.size	.L7602,0
                       11377 	.data

                                                                      Page 198
                                                              C:\Users\YINGAO~1\AppData\Local\Temp\gh_000084c1.si
                       11378 	.text
                       11379 
                       11380 --3306: }
                       11381 
                       11382 --3308: static const r_dev_PinConfig_t loc_capture1PinConfig[] =   /* based on loc_D1M2H_ViItuCaputePinConfig */
                       11383 --3309: /*  Port Pin Func      Dir      Feedback     Pull        OpenDrain   HiCurr   HiSpeed  InputType */
                       11384 --3310: {
                       11385 --3311:     
                       11386 --3312:     /* VDCE1 Input ITU656 (from analog SAA71xx video converter) */
                       11387 --3313:     {43, 2,  2u, R_DEV_PIN_IN,  0u, R_DEV_PIN_PULLNO, 0u, 0u, 0u, R_DEV_PIN_SCHMITT1}, /* VDCE1 In Data7 */
                       11388 --3314:     {43, 3,  2u, R_DEV_PIN_IN,  0u, R_DEV_PIN_PULLNO, 0u, 0u, 0u, R_DEV_PIN_SCHMITT1},
                       11389 --3315:     {43, 4,  2u, R_DEV_PIN_IN,  0u, R_DEV_PIN_PULLNO, 0u, 0u, 0u, R_DEV_PIN_SCHMITT1},
                       11390 --3316:     {43, 5,  2u, R_DEV_PIN_IN,  0u, R_DEV_PIN_PULLNO, 0u, 0u, 0u, R_DEV_PIN_SCHMITT1},
                       11391 --3317:     {43, 6,  2u, R_DEV_PIN_IN,  0u, R_DEV_PIN_PULLNO, 0u, 0u, 0u, R_DEV_PIN_SCHMITT1}, 
                       11392 --3318:     {43, 7,  2u, R_DEV_PIN_IN,  0u, R_DEV_PIN_PULLNO, 0u, 0u, 0u, R_DEV_PIN_SCHMITT1},
                       11393 --3319:     {43, 8,  2u, R_DEV_PIN_IN,  0u, R_DEV_PIN_PULLNO, 0u, 0u, 0u, R_DEV_PIN_SCHMITT1},
                       11394 --3320:     {43, 9,  2u, R_DEV_PIN_IN,  0u, R_DEV_PIN_PULLNO, 0u, 0u, 0u, R_DEV_PIN_SCHMITT1}, /* VDCE1 In Data0 */ 
                       11395 --3321:     {43, 10, 2u, R_DEV_PIN_IN,  0u, R_DEV_PIN_PULLNO, 0u, 0u, 0u, R_DEV_PIN_SCHMITT1}, /* VDCE1 In CLK */
                       11396 --3322:     
                       11397 --3323:     /* delimiter - do not remove */
                       11398 --3324:     {0u, R_DEV_PIN_LAST,0u,R_DEV_PIN_OUT,0u,R_DEV_PIN_PULLNO,   0u, 0u, 0u, R_DEV_PIN_CMOS1} 
                       11399 --3325: };
                       11400 --3327: static const r_dev_PinConfig_t loc_capture0PinConfig[] =
                       11401 --3328: /*  Port Pin Func      Dir      Feedback     Pull        OpenDrain   HiCurr   HiSpeed  InputType */
                       11402 --3329: {
                       11403 --3330:     /* VDCE0 Input ITU656 (from analog SAA71xx video converter) */
                       11404 --3331: /* ITU from SAA71xx video converter */
                       11405 --3332:     {42, 0,  2u, R_DEV_PIN_IN,  0u, R_DEV_PIN_PULLNO, 0u, 0u, 0u, R_DEV_PIN_SCHMITT1}, /* VDCE1 In Data7 */
                       11406 --3333:     {42, 1,  2u, R_DEV_PIN_IN,  0u, R_DEV_PIN_PULLNO, 0u, 0u, 0u, R_DEV_PIN_SCHMITT1},
                       11407 --3334:     {42, 2,  2u, R_DEV_PIN_IN,  0u, R_DEV_PIN_PULLNO, 0u, 0u, 0u, R_DEV_PIN_SCHMITT1},
                       11408 --3335:     {42, 3,  2u, R_DEV_PIN_IN,  0u, R_DEV_PIN_PULLNO, 0u, 0u, 0u, R_DEV_PIN_SCHMITT1},
                       11409 --3336:     {42, 4,  2u, R_DEV_PIN_IN,  0u, R_DEV_PIN_PULLNO, 0u, 0u, 0u, R_DEV_PIN_SCHMITT1},
                       11410 --3338:     {42, 5,  2u, R_DEV_PIN_IN,  0u, R_DEV_PIN_PULLNO, 0u, 0u, 0u, R_DEV_PIN_SCHMITT1},
                       11411 --3339:     {42, 6,  2u, R_DEV_PIN_IN,  0u, R_DEV_PIN_PULLNO, 0u, 0u, 0u, R_DEV_PIN_SCHMITT1},
                       11412 --3340:     {42, 7,  2u, R_DEV_PIN_IN,  0u, R_DEV_PIN_PULLNO, 0u, 0u, 0u, R_DEV_PIN_SCHMITT1}, /* VDCE1 In Data0 */
                       11413 --3341:     {42, 8,  2u, R_DEV_PIN_IN,  0u, R_DEV_PIN_PULLNO, 0u, 0u, 0u, R_DEV_PIN_SCHMITT1}, /* VDCE1 In CLK */
                       11414 --3342: #if 0 /* not needed for ITU656 */
                       11415 --3343:     {42, 9,  2u, R_DEV_PIN_IN,  0u, R_DEV_PIN_PULLNO, 0u, 0u, 0u, R_DEV_PIN_SCHMITT1}, /* VDCE1 In HS - not needed for ITU656 */
                       11416 --3344:     {42, 10, 2u, R_DEV_PIN_IN,  0u, R_DEV_PIN_PULLNO, 0u, 0u, 0u, R_DEV_PIN_SCHMITT1}, /* VDCE1 In VS - not needed for ITU656 */
                       11417 --3345: #endif
                       11418 --3346:     /* delimiter - do not remove */
                       11419 --3347:     {0u, R_DEV_PIN_LAST,0u,R_DEV_PIN_OUT,0u,R_DEV_PIN_PULLNO,   0u, 0u, 0u, R_DEV_PIN_CMOS1}
                       11420 --3348: };
                       11421 --3351: uint32_t R_WM_Sys_CaptureCreate(uint32_t Unit, const r_wm_Capture_t* Capt)
                       11422 	.align	2
                       11423 	.align	2
                       11424 	.global	_R_WM_Sys_CaptureCreate
                       11425 _R_WM_Sys_CaptureCreate:
000025d6 9007e170      11426 	prepare	{r25,r26,r27,r28,r29,r31},8
000025da 06d8          11427 	mov	r6,r27
000025dc 07e8          11428 	mov	r7,r29
                       11429 --	    .bf
                       11430 .LDW182:
                       11431 --3352: {
                       11432 --3353:     uint32_t val;
                       11433 --3354:     r_vdce_Fbformat_t fb_fmt;
                       11434 --3355:     uint32_t fb_bpp;
                       11435 --3356:     r_vdce_Error_t err;
                       11436 --3357:     r_wm_sys_vdce_WinLayerPair_t* win_layer_pair;
                       11437 --3358:     uint32_t should_return;
                       11438 --3359:     

                                                                      Page 199
                                                              C:\Users\YINGAO~1\AppData\Local\Temp\gh_000084c1.si
                       11439 --3360:     /*  need to reconf all the windows because the layer assignment needs to start from the layer 0 where the VIN can be output to 
                       11440 --3361:         in case of the same VDCE channel for the VIN and VOUT
                       11441 --3362:         TODO VDCE channels for VIN and VOUT are different
                       11442 --3363:     */
                       11443 --3364:     if (0 == loc_WinReconfAll(Unit))
000025de 1b30          11444 	mov	r27,r6
                       11445 	jarl	_loc_WinReconfAll,lp
                       11445 <EXPANSION BEGIN>
                       11445 jarl22 _loc_WinReconfAll , lp 
000025e0 bfffc0e1*     11445 <EXPANSION END>
000025e4 e051          11446 	cmp	zero,r10
000025e6 ca05*         11447 	bne	.L7703
                       11448 --3365:     {
                       11449 --3366:         return 0;
                       11450 --line3366
                       11451 ..lin.D.3A.5CRenesas_Electronics.5CD1x_RGL.5Crgl_ghs_D1Lx_obj_V1.2E2.2E0.5Cvlib.5Capp.5Cgfx_apps.5Csimple_draw_d1l2.5Ctarget.5Cd1lx_mango_ghs.5Cobj.5Cr_sys_wm.580::
                       11452 .LDWlin580:
000025e8 0052          11453 	mov	0,r10
000025ea 80077c01*     11454 	br	.L7701
                       11455 .L7703:
                       11456 --3367:     }
                       11457 --3368:     
                       11458 --3369:     win_layer_pair = loc_WinLayerPairGet(Unit, Capt->Window);
                       11459 --line3369
                       11460 ..lin.D.3A.5CRenesas_Electronics.5CD1x_RGL.5Crgl_ghs_D1Lx_obj_V1.2E2.2E0.5Cvlib.5Capp.5Cgfx_apps.5Csimple_draw_d1l2.5Ctarget.5Cd1lx_mango_ghs.5Cobj.5Cr_sys_wm.581::
                       11461 .LDWlin581:
000025ee 3d3f0100      11462 	ld.w	0[r29],r7
000025f2 1b30          11463 	mov	r27,r6
                       11464 	jarl	_loc_WinLayerPairGet,lp
                       11464 <EXPANSION BEGIN>
                       11464 jarl22 _loc_WinLayerPairGet , lp 
000025f4 bfffd8df*     11464 <EXPANSION END>
000025f8 63571d00      11465 	st.w	r10,28[sp]
                       11466 --3371:     if (win_layer_pair == 0)
                       11467 --line3371
                       11468 ..lin.D.3A.5CRenesas_Electronics.5CD1x_RGL.5Crgl_ghs_D1Lx_obj_V1.2E2.2E0.5Cvlib.5Capp.5Cgfx_apps.5Csimple_draw_d1l2.5Ctarget.5Cd1lx_mango_ghs.5Cobj.5Cr_sys_wm.582::
                       11469 .LDWlin582:
000025fc 235f1d00      11470 	ld.w	28[sp],r11
00002600 e059          11471 	cmp	zero,r11
00002602 ca05*         11472 	bne	.L7706
                       11473 --3372:     {
                       11474 --3373:         R_WM_SYS_REPORT_ERROR(Unit, R_WM_ERR_NULL_PTR_ARGUMENT, 0);
                       11475 --3374:         return 0;
                       11476 --line3374
                       11477 ..lin.D.3A.5CRenesas_Electronics.5CD1x_RGL.5Crgl_ghs_D1Lx_obj_V1.2E2.2E0.5Cvlib.5Capp.5Cgfx_apps.5Csimple_draw_d1l2.5Ctarget.5Cd1lx_mango_ghs.5Cobj.5Cr_sys_wm.583::
                       11478 .LDWlin583:
00002604 0052          11479 	mov	0,r10
00002606 80076001*     11480 	br	.L7701
                       11481 .L7706:
                       11482 --3375:     }
                       11483 --3376:     
                       11484 --3377: #if 0
                       11485 --3378:     /* check if scaling applicable */
                       11486 --3379:     if  (   (win_layer_pair->Layer == R_VDCE_LAYER_SCALER0)
                       11487 --3380:             ||
                       11488 --3381:             (win_layer_pair->Layer == R_VDCE_LAYER_SCALER1)
                       11489 --3382:         )
                       11490 --3383:     {
                       11491 --3384:         /* todo: with "Capt->CapUnit" as parameter only downscaling is allowed */
                       11492 --3385:         if (Capt->ScaledWidth != 0)
                       11493 --3386:         {

                                                                      Page 200
                                                              C:\Users\YINGAO~1\AppData\Local\Temp\gh_000084c1.si
                       11494 --3387:             if (0 == R_VDCE_LayerImgScaleX(Capt->CapUnit, win_layer_pair->Layer, Capt->ScaledWidth, R_VDCE_SCALING_SMALLER))
                       11495 --3388:             {
                       11496 --3389:                 return 0;
                       11497 --3390:             }
                       11498 --3391:         }
                       11499 --3392:         if (Capt->ScaledHeight != 0)
                       11500 --3393:         {
                       11501 --3394:             if (0 == R_VDCE_LayerImgScaleY(Capt->CapUnit, win_layer_pair->Layer, Capt->ScaledHeight, R_VDCE_SCALING_SMALLER))
                       11502 --3395:             {
                       11503 --3396:                 return 0;
                       11504 --3397:             }
                       11505 --3398:         }
                       11506 --3400:     }
                       11507 --3401: #endif
                       11508 --3402:     
                       11509 --3403:     if (((uint32_t)Capt->Mode & (uint32_t)R_WM_CAPMODE_YUV_ITU656) != 0)
                       11510 --line3403
                       11511 ..lin.D.3A.5CRenesas_Electronics.5CD1x_RGL.5Crgl_ghs_D1Lx_obj_V1.2E2.2E0.5Cvlib.5Capp.5Cgfx_apps.5Csimple_draw_d1l2.5Ctarget.5Cd1lx_mango_ghs.5Cobj.5Cr_sys_wm.584::
                       11512 .LDWlin584:
0000260a 3d0f0500      11513 	ld.w	4[r29],r1
0000260e 810a          11514 	shr	1,r1
00002610 e92d*         11515 	bnl	.L7709
                       11516 --3404:     {
                       11517 --3405:         /*  setup the HW for the ITU mode:
                       11518 --3406:             select ITU656 (CLK + DATA7..0) for analog camera connected to SAA71xx
                       11519 --3407:         */
                       11520 --3408:         val = R_DEV_READ_REG(32, VDCECTL);
                       11521 --line3408
                       11522 ..lin.D.3A.5CRenesas_Electronics.5CD1x_RGL.5Crgl_ghs_D1Lx_obj_V1.2E2.2E0.5Cvlib.5Capp.5Cgfx_apps.5Csimple_draw_d1l2.5Ctarget.5Cd1lx_mango_ghs.5Cobj.5Cr_sys_wm.585::
                       11523 .LDWlin585:
00002612 8007c9e1c080  11524 	ld.w	4290797596[zero],r28
                       11525 --3409:         if(Capt->CapUnit == 1)
00002618 3d0f2d00      11526 	ld.w	44[r29],r1
0000261c 610a          11527 	cmp	1,r1
0000261e ca05*         11528 	bne	.L7711
                       11529 --3410:         {
                       11530 --3411:             val &= VDCECTL_VISL1;
                       11531 --line3411
                       11532 ..lin.D.3A.5CRenesas_Electronics.5CD1x_RGL.5Crgl_ghs_D1Lx_obj_V1.2E2.2E0.5Cvlib.5Capp.5Cgfx_apps.5Csimple_draw_d1l2.5Ctarget.5Cd1lx_mango_ghs.5Cobj.5Cr_sys_wm.586::
                       11533 .LDWlin586:
00002620 dce60200      11534 	andi	2,r28,r28
00002624 f505*         11535 	br	.L7713
                       11536 .L7711:
                       11537 --3412:         }
                       11538 --3413:         else if(Capt->CapUnit == 0)
                       11539 --line3413
                       11540 ..lin.D.3A.5CRenesas_Electronics.5CD1x_RGL.5Crgl_ghs_D1Lx_obj_V1.2E2.2E0.5Cvlib.5Capp.5Cgfx_apps.5Csimple_draw_d1l2.5Ctarget.5Cd1lx_mango_ghs.5Cobj.5Cr_sys_wm.587::
                       11541 .LDWlin587:
00002626 3d0f2d00      11542 	ld.w	44[r29],r1
0000262a e009          11543 	cmp	zero,r1
0000262c ba05*         11544 	bne	.L7713
                       11545 --3414:         {
                       11546 --3415:             val &= VDCECTL_VISL0;
                       11547 --line3415
                       11548 ..lin.D.3A.5CRenesas_Electronics.5CD1x_RGL.5Crgl_ghs_D1Lx_obj_V1.2E2.2E0.5Cvlib.5Capp.5Cgfx_apps.5Csimple_draw_d1l2.5Ctarget.5Cd1lx_mango_ghs.5Cobj.5Cr_sys_wm.588::
                       11549 .LDWlin588:
0000262e dce60100      11550 	andi	1,r28,r28
                       11551 .L7713:
                       11552 --3416:         }
                       11553 --3417:         else
                       11554 --3418:         {

                                                                      Page 201
                                                              C:\Users\YINGAO~1\AppData\Local\Temp\gh_000084c1.si
                       11555 --3419:             /* Not avialable */
                       11556 --3420:         }
                       11557 --3421:         val &= VDCECTL_PXSL;
00002632 dce60800      11558 	andi	8,r28,r28
                       11559 --3423:         R_DEV_WRITE_REG(32, VDCECTL, ((val & 0x3Fu) | 0x10000u));
00002636 dc0e3f00      11560 	andi	63,r28,r1
0000263a 40760100      11561 	movhi	hi(65536),zero,r14
0000263e 0e09          11562 	or	r14,r1
00002640 8007cf09c080  11563 	st.w	r1,4290797596[zero]
                       11564 --3424:         if(Capt->CapUnit == 1)
00002646 3d0f2d00      11565 	ld.w	44[r29],r1
0000264a 610a          11566 	cmp	1,r1
0000264c fa05*         11567 	bne	.L7717
                       11568 --3425:         {
                       11569 --3426:             R_DEV_PinInit(loc_capture1PinConfig);
                       11570 --line3426
                       11571 ..lin.D.3A.5CRenesas_Electronics.5CD1x_RGL.5Crgl_ghs_D1Lx_obj_V1.2E2.2E0.5Cvlib.5Capp.5Cgfx_apps.5Csimple_draw_d1l2.5Ctarget.5Cd1lx_mango_ghs.5Cobj.5Cr_sys_wm.589::
                       11572 .LDWlin589:
0000264e 260600000000* 11573 	mov	_loc_capture1PinConfig,r6
                       11574 	jarl	_R_DEV_PinInit,lp
                       11574 <EXPANSION BEGIN>
                       11574 jarl22 _R_DEV_PinInit , lp 
00002654 80ff0000*     11574 <EXPANSION END>
00002658 a50d*         11575 	br	.L7709
                       11576 .L7717:
                       11577 --3427:         }
                       11578 --3428:         else if(Capt->CapUnit == 0)
                       11579 --line3428
                       11580 ..lin.D.3A.5CRenesas_Electronics.5CD1x_RGL.5Crgl_ghs_D1Lx_obj_V1.2E2.2E0.5Cvlib.5Capp.5Cgfx_apps.5Csimple_draw_d1l2.5Ctarget.5Cd1lx_mango_ghs.5Cobj.5Cr_sys_wm.590::
                       11581 .LDWlin590:
0000265a 3d0f2d00      11582 	ld.w	44[r29],r1
0000265e e009          11583 	cmp	zero,r1
00002660 ea05*         11584 	bne	.L7709
                       11585 --3429:         {
                       11586 --3430:             R_DEV_PinInit(loc_capture0PinConfig);
                       11587 --line3430
                       11588 ..lin.D.3A.5CRenesas_Electronics.5CD1x_RGL.5Crgl_ghs_D1Lx_obj_V1.2E2.2E0.5Cvlib.5Capp.5Cgfx_apps.5Csimple_draw_d1l2.5Ctarget.5Cd1lx_mango_ghs.5Cobj.5Cr_sys_wm.591::
                       11589 .LDWlin591:
00002662 260600000000* 11590 	mov	_loc_capture0PinConfig,r6
                       11591 	jarl	_R_DEV_PinInit,lp
                       11591 <EXPANSION BEGIN>
                       11591 jarl22 _R_DEV_PinInit , lp 
00002668 80ff0000*     11591 <EXPANSION END>
                       11592 .L7709:
                       11593 --3431:         }
                       11594 --3432:         else
                       11595 --3433:         {
                       11596 --3434:             /* Not avialable */
                       11597 --3435:         }
                       11598 --3436:     }
                       11599 --3437:     
                       11600 --3438:     should_return = 0;
                       11601 --line3438
                       11602 ..lin.D.3A.5CRenesas_Electronics.5CD1x_RGL.5Crgl_ghs_D1Lx_obj_V1.2E2.2E0.5Cvlib.5Capp.5Cgfx_apps.5Csimple_draw_d1l2.5Ctarget.5Cd1lx_mango_ghs.5Cobj.5Cr_sys_wm.592::
                       11603 .LDWlin592:
0000266c 63071500      11604 	st.w	zero,20[sp]
00002670 005a          11605 	mov	0,r11
                       11606 --3439:     switch (Capt->Window->ColorFmt)
00002672 3df70100      11607 	ld.w	0[r29],ep
00002676 040d          11608 	sld.w	8[ep],r1
00002678 e009          11609 	cmp	zero,r1

                                                                      Page 202
                                                              C:\Users\YINGAO~1\AppData\Local\Temp\gh_000084c1.si
0000267a 920d*         11610 	be	.L7726
0000267c 5c0a          11611 	add	-4,r1
0000267e 610a          11612 	cmp	1,r1
00002680 bb0d*         11613 	bh	.L7727
                       11614 --3440:     {
                       11615 --3441:     case R_WM_COLORFMT_RGB0888:
                       11616 --3442:     case R_WM_COLORFMT_ARGB8888:
                       11617 --3443:         fb_fmt = R_VDCE_FB_FORMAT_RGB0888;
                       11618 --line3443
                       11619 ..lin.D.3A.5CRenesas_Electronics.5CD1x_RGL.5Crgl_ghs_D1Lx_obj_V1.2E2.2E0.5Cvlib.5Capp.5Cgfx_apps.5Csimple_draw_d1l2.5Ctarget.5Cd1lx_mango_ghs.5Cobj.5Cr_sys_wm.593::
                       11620 .LDWlin593:
00002682 02ca          11621 	mov	2,r25
                       11622 --3444:         fb_bpp = 4;
00002684 045a          11623 	mov	4,r11
00002686 635f1900      11624 	st.w	r11,24[sp]
0000268a a50d*         11625 	br	.L7723
                       11626 .L7726:
                       11627 --3445:         break;
                       11628 --3446:     case R_WM_COLORFMT_RGB565:
                       11629 --3447:         fb_fmt = R_VDCE_FB_FORMAT_RGB565;
                       11630 --line3447
                       11631 ..lin.D.3A.5CRenesas_Electronics.5CD1x_RGL.5Crgl_ghs_D1Lx_obj_V1.2E2.2E0.5Cvlib.5Capp.5Cgfx_apps.5Csimple_draw_d1l2.5Ctarget.5Cd1lx_mango_ghs.5Cobj.5Cr_sys_wm.594::
                       11632 .LDWlin594:
0000268c 01ca          11633 	mov	1,r25
                       11634 --3448:         fb_bpp = 2;
0000268e 025a          11635 	mov	2,r11
00002690 635f1900      11636 	st.w	r11,24[sp]
00002694 d505*         11637 	br	.L7723
                       11638 .L7727:
                       11639 --3449:         break;
                       11640 --3450:     default:
                       11641 --3451:         should_return = 1;
                       11642 --line3451
                       11643 ..lin.D.3A.5CRenesas_Electronics.5CD1x_RGL.5Crgl_ghs_D1Lx_obj_V1.2E2.2E0.5Cvlib.5Capp.5Cgfx_apps.5Csimple_draw_d1l2.5Ctarget.5Cd1lx_mango_ghs.5Cobj.5Cr_sys_wm.595::
                       11644 .LDWlin595:
00002696 015a          11645 	mov	1,r11
00002698 635f1500      11646 	st.w	r11,20[sp]
0000269c 0000          11647 	nop
                       11648 .L7723:
                       11649 --3452:         break;
                       11650 --3453:     }
                       11651 --3454:     if (should_return != 0)
0000269e 235f1500      11652 	ld.w	20[sp],r11
000026a2 e059          11653 	cmp	zero,r11
000026a4 b205*         11654 	be	.L7728
                       11655 --3455:     {
                       11656 --3456:         R_WM_SYS_REPORT_ERROR(Unit, R_WM_ERR_NO_PHYS_WINDOW, 0);
                       11657 --3457:         return 0;
                       11658 --line3457
                       11659 ..lin.D.3A.5CRenesas_Electronics.5CD1x_RGL.5Crgl_ghs_D1Lx_obj_V1.2E2.2E0.5Cvlib.5Capp.5Cgfx_apps.5Csimple_draw_d1l2.5Ctarget.5Cd1lx_mango_ghs.5Cobj.5Cr_sys_wm.596::
                       11660 .LDWlin596:
000026a6 0052          11661 	mov	0,r10
000026a8 f55d*         11662 	br	.L7701
                       11663 .L7728:
                       11664 --3458:     }
                       11665 --3460:     err = R_VDCE_CapModeSet(Capt->CapUnit, (r_vdce_CapMode_t)((uint32_t)Capt->Mode & (~0xe0000000u)));    /* get rid of 3 WM internal MSBs that do not map to VDCE opts */
                       11666 --line3460
                       11667 ..lin.D.3A.5CRenesas_Electronics.5CD1x_RGL.5Crgl_ghs_D1Lx_obj_V1.2E2.2E0.5Cvlib.5Capp.5Cgfx_apps.5Csimple_draw_d1l2.5Ctarget.5Cd1lx_mango_ghs.5Cobj.5Cr_sys_wm.597::
                       11668 .LDWlin597:
000026aa 3d0f0500      11669 	ld.w	4[r29],r1
000026ae 3d372d00      11670 	ld.w	44[r29],r6

                                                                      Page 203
                                                              C:\Users\YINGAO~1\AppData\Local\Temp\gh_000084c1.si
000026b2 2e06ffffff1f  11671 	mov	536870911,r14
000026b8 4e09          11672 	and	r14,r1
000026ba 0138          11673 	mov	r1,r7
                       11674 	jarl	_R_VDCE_CapModeSet,lp
                       11674 <EXPANSION BEGIN>
                       11674 jarl22 _R_VDCE_CapModeSet , lp 
000026bc 80ff0000*     11674 <EXPANSION END>
000026c0 0ad0          11675 	mov	r10,r26
                       11676 --3461:     if (err != R_VDCE_ERR_OK)
                       11677 --line3461
                       11678 ..lin.D.3A.5CRenesas_Electronics.5CD1x_RGL.5Crgl_ghs_D1Lx_obj_V1.2E2.2E0.5Cvlib.5Capp.5Cgfx_apps.5Csimple_draw_d1l2.5Ctarget.5Cd1lx_mango_ghs.5Cobj.5Cr_sys_wm.598::
                       11679 .LDWlin598:
000026c2 e0d1          11680 	cmp	zero,r26
000026c4 b205*         11681 	be	.L7731
                       11682 --3462:     {
                       11683 --3463:         return 0;
                       11684 --line3463
                       11685 ..lin.D.3A.5CRenesas_Electronics.5CD1x_RGL.5Crgl_ghs_D1Lx_obj_V1.2E2.2E0.5Cvlib.5Capp.5Cgfx_apps.5Csimple_draw_d1l2.5Ctarget.5Cd1lx_mango_ghs.5Cobj.5Cr_sys_wm.599::
                       11686 .LDWlin599:
000026c6 0052          11687 	mov	0,r10
000026c8 f54d*         11688 	br	.L7701
                       11689 .L7731:
                       11690 --3464:     }
                       11691 --3466:     #if 1
                       11692 --3467:     (void)fb_bpp;
                       11693 --line3467
                       11694 ..lin.D.3A.5CRenesas_Electronics.5CD1x_RGL.5Crgl_ghs_D1Lx_obj_V1.2E2.2E0.5Cvlib.5Capp.5Cgfx_apps.5Csimple_draw_d1l2.5Ctarget.5Cd1lx_mango_ghs.5Cobj.5Cr_sys_wm.600::
                       11695 .LDWlin600:
000026ca 0000          11696 	nop
                       11697 --3468:     /* BOB Deinterlacing */
                       11698 --3469:     err = R_VDCE_CapBufGeometrySetup    (   Capt->CapUnit,
000026cc 3df70100      11699 	ld.w	0[r29],ep
000026d0 0042          11700 	mov	0,r8
000026d2 3d0f1900      11701 	ld.w	24[r29],r1
000026d6 3d372d00      11702 	ld.w	44[r29],r6
000026da 3d4f0d00      11703 	ld.w	12[r29],r9
000026de 12f5          11704 	sld.w	36[ep],ep
000026e0 003d          11705 	sld.w	0[ep],r7
000026e2 630f0100      11706 	st.w	r1,0[sp]
000026e6 3d0f1d00      11707 	ld.w	28[r29],r1
000026ea 63cf1100      11708 	st.w	r25,16[sp]
000026ee 630f0500      11709 	st.w	r1,4[sp]
000026f2 3d0f0900      11710 	ld.w	8[r29],r1
000026f6 630f0900      11711 	st.w	r1,8[sp]
000026fa 3d0f1100      11712 	ld.w	16[r29],r1
000026fe 630f0d00      11713 	st.w	r1,12[sp]
                       11714 	jarl	_R_VDCE_CapBufGeometrySetup,lp
                       11714 <EXPANSION BEGIN>
                       11714 jarl22 _R_VDCE_CapBufGeometrySetup , lp 
00002702 80ff0000*     11714 <EXPANSION END>
00002706 0ad0          11715 	mov	r10,r26
                       11716 --3470:                                             (uint32_t)(Capt->Window->Surface.Fb.Buffer[0].Data),
                       11717 --3471:                                             0,
                       11718 --3472:                                             Capt->StrideX,
                       11719 --3473:                                             Capt->Width,
                       11720 --3474:                                             Capt->Height,
                       11721 --3475:                                             Capt->StartX,
                       11722 --3476:                                             Capt->StartY1,
                       11723 --3477:                                             fb_fmt
                       11724 --3478:                                         );
                       11725 --3480:     #else

                                                                      Page 204
                                                              C:\Users\YINGAO~1\AppData\Local\Temp\gh_000084c1.si
                       11726 --3481:     /* WEAVE Deinterlacing */
                       11727 --3482:     if (Capt->Window->Surface.Fb.BufNum < 2)
                       11728 --3483:     {
                       11729 --3484:         R_WM_SYS_REPORT_ERROR(Unit, R_WM_ERR_SYS_CAPTURE_CREATE_FAILED, 0);
                       11730 --3485:         return 0;
                       11731 --3486:     }
                       11732 --3487:     err = R_VDCE_CapBufGeometrySetup    (   Capt->CapUnit,
                       11733 --3488:                                             (uint32_t)(Capt->Window->Surface.Fb.Buffer[0].Data),
                       11734 --3489:                                             (uint32_t)(Capt->Window->Surface.Fb.Buffer[0].Data + (Capt->StrideX * fb_bpp) ),
                       11735 --3490:                                             Capt->StrideX * 2,
                       11736 --3491:                                             Capt->Width,
                       11737 --3492:                                             Capt->Height,
                       11738 --3493:                                             Capt->StartX,
                       11739 --3494:                                             Capt->StartY1,
                       11740 --3495:                                             fb_fmt
                       11741 --3496:                                         );
                       11742 --3497:     #endif
                       11743 --3498:     if (err != R_VDCE_ERR_OK)
                       11744 --line3498
                       11745 ..lin.D.3A.5CRenesas_Electronics.5CD1x_RGL.5Crgl_ghs_D1Lx_obj_V1.2E2.2E0.5Cvlib.5Capp.5Cgfx_apps.5Csimple_draw_d1l2.5Ctarget.5Cd1lx_mango_ghs.5Cobj.5Cr_sys_wm.601::
                       11746 .LDWlin601:
00002708 e0d1          11747 	cmp	zero,r26
0000270a b205*         11748 	be	.L7734
                       11749 --3499:     {
                       11750 --3500:         return 0;
                       11751 --line3500
                       11752 ..lin.D.3A.5CRenesas_Electronics.5CD1x_RGL.5Crgl_ghs_D1Lx_obj_V1.2E2.2E0.5Cvlib.5Capp.5Cgfx_apps.5Csimple_draw_d1l2.5Ctarget.5Cd1lx_mango_ghs.5Cobj.5Cr_sys_wm.602::
                       11753 .LDWlin602:
0000270c 0052          11754 	mov	0,r10
0000270e c52d*         11755 	br	.L7701
                       11756 .L7734:
                       11757 --3501:     }
                       11758 --3502:     
                       11759 --3503:     if (R_VDCE_ERR_OK != R_VDCE_LayerVSyncDelaySet(Unit, win_layer_pair->Layer, Capt->Delay))
                       11760 --line3503
                       11761 ..lin.D.3A.5CRenesas_Electronics.5CD1x_RGL.5Crgl_ghs_D1Lx_obj_V1.2E2.2E0.5Cvlib.5Capp.5Cgfx_apps.5Csimple_draw_d1l2.5Ctarget.5Cd1lx_mango_ghs.5Cobj.5Cr_sys_wm.603::
                       11762 .LDWlin603:
00002710 235f1d00      11763 	ld.w	28[sp],r11
00002714 1b30          11764 	mov	r27,r6
00002716 3d472900      11765 	ld.w	40[r29],r8
0000271a 2b3f0500      11766 	ld.w	4[r11],r7
                       11767 	jarl	_R_VDCE_LayerVSyncDelaySet,lp
                       11767 <EXPANSION BEGIN>
                       11767 jarl22 _R_VDCE_LayerVSyncDelaySet , lp 
0000271e 80ff0000*     11767 <EXPANSION END>
00002722 e051          11768 	cmp	zero,r10
00002724 b205*         11769 	be	.L7737
                       11770 --3504:     {
                       11771 --3505:         return 0;
                       11772 --line3505
                       11773 ..lin.D.3A.5CRenesas_Electronics.5CD1x_RGL.5Crgl_ghs_D1Lx_obj_V1.2E2.2E0.5Cvlib.5Capp.5Cgfx_apps.5Csimple_draw_d1l2.5Ctarget.5Cd1lx_mango_ghs.5Cobj.5Cr_sys_wm.604::
                       11774 .LDWlin604:
00002726 0052          11775 	mov	0,r10
00002728 f51d*         11776 	br	.L7701
                       11777 .L7737:
                       11778 --3506:     }
                       11779 --3508:     if (((uint32_t)Capt->Mode & (uint32_t)R_WM_CAPMODE_YUV_ITU656) != 0)
                       11780 --line3508
                       11781 ..lin.D.3A.5CRenesas_Electronics.5CD1x_RGL.5Crgl_ghs_D1Lx_obj_V1.2E2.2E0.5Cvlib.5Capp.5Cgfx_apps.5Csimple_draw_d1l2.5Ctarget.5Cd1lx_mango_ghs.5Cobj.5Cr_sys_wm.605::
                       11782 .LDWlin605:
0000272a 3d0f0500      11783 	ld.w	4[r29],r1

                                                                      Page 205
                                                              C:\Users\YINGAO~1\AppData\Local\Temp\gh_000084c1.si
0000272e 810a          11784 	shr	1,r1
00002730 990d*         11785 	bnl	.L7740
                       11786 --3509:     {
                       11787 --3510:         if (R_VDCE_ERR_OK != R_VDCE_LayerMatrixBT601Set(Unit, R_VDCE_LAYER_INPUT))
                       11788 --line3510
                       11789 ..lin.D.3A.5CRenesas_Electronics.5CD1x_RGL.5Crgl_ghs_D1Lx_obj_V1.2E2.2E0.5Cvlib.5Capp.5Cgfx_apps.5Csimple_draw_d1l2.5Ctarget.5Cd1lx_mango_ghs.5Cobj.5Cr_sys_wm.606::
                       11790 .LDWlin606:
00002732 1b30          11791 	mov	r27,r6
00002734 053a          11792 	mov	5,r7
                       11793 	jarl	_R_VDCE_LayerMatrixBT601Set,lp
                       11793 <EXPANSION BEGIN>
                       11793 jarl22 _R_VDCE_LayerMatrixBT601Set , lp 
00002736 80ff0000*     11793 <EXPANSION END>
0000273a e051          11794 	cmp	zero,r10
0000273c b205*         11795 	be	.L7740
                       11796 --3511:         {
                       11797 --3512:             return 0;
                       11798 --line3512
                       11799 ..lin.D.3A.5CRenesas_Electronics.5CD1x_RGL.5Crgl_ghs_D1Lx_obj_V1.2E2.2E0.5Cvlib.5Capp.5Cgfx_apps.5Csimple_draw_d1l2.5Ctarget.5Cd1lx_mango_ghs.5Cobj.5Cr_sys_wm.607::
                       11800 .LDWlin607:
0000273e 0052          11801 	mov	0,r10
00002740 b515*         11802 	br	.L7701
                       11803 .L7740:
                       11804 --3513:         }
                       11805 --3514:     }
                       11806 --3515:     
                       11807 --3516:     /* set the interrupt service routines */
                       11808 --3517:     if (R_VDCE_ERR_OK != R_VDCE_IntcCallbackSet(Capt->CapUnit, R_VDCE_INTC_CAP_VBLANK, loc_Isr[Unit][R_WM_EVENT_VI_VBLANK]))
                       11809 --line3517
                       11810 ..lin.D.3A.5CRenesas_Electronics.5CD1x_RGL.5Crgl_ghs_D1Lx_obj_V1.2E2.2E0.5Cvlib.5Capp.5Cgfx_apps.5Csimple_draw_d1l2.5Ctarget.5Cd1lx_mango_ghs.5Cobj.5Cr_sys_wm.608::
                       11811 .LDWlin608:
00002742 1bf0          11812 	mov	r27,ep
00002744 c4f2          11813 	shl	4,ep
00002746 210600000000* 11814 	mov	_loc_Isr+12,r1
0000274c 3d372d00      11815 	ld.w	44[r29],r6
00002750 c1f1          11816 	add	r1,ep
00002752 0045          11817 	sld.w	0[ep],r8
00002754 203e1200      11818 	movea	18,zero,r7
                       11819 	jarl	_R_VDCE_IntcCallbackSet,lp
                       11819 <EXPANSION BEGIN>
                       11819 jarl22 _R_VDCE_IntcCallbackSet , lp 
00002758 80ff0000*     11819 <EXPANSION END>
0000275c e051          11820 	cmp	zero,r10
0000275e b205*         11821 	be	.L7745
                       11822 --3518:     {
                       11823 --3519:         return 0;
                       11824 --line3519
                       11825 ..lin.D.3A.5CRenesas_Electronics.5CD1x_RGL.5Crgl_ghs_D1Lx_obj_V1.2E2.2E0.5Cvlib.5Capp.5Cgfx_apps.5Csimple_draw_d1l2.5Ctarget.5Cd1lx_mango_ghs.5Cobj.5Cr_sys_wm.609::
                       11826 .LDWlin609:
00002760 0052          11827 	mov	0,r10
00002762 a505*         11828 	br	.L7701
                       11829 .L7745:
                       11830 --3520:     }
                       11831 --3521: #if 0   /* unused */
                       11832 --3522:     if (R_VDCE_ERR_OK != R_VDCE_IntcCapScanlineSet(Capt->CapUnit, Capt->Height-50))
                       11833 --3523:     {
                       11834 --3524:         return 0;
                       11835 --3525:     }
                       11836 --3526: #endif
                       11837 --3527:     
                       11838 --3528:     return 1;

                                                                      Page 206
                                                              C:\Users\YINGAO~1\AppData\Local\Temp\gh_000084c1.si
                       11839 --line3528
                       11840 ..lin.D.3A.5CRenesas_Electronics.5CD1x_RGL.5Crgl_ghs_D1Lx_obj_V1.2E2.2E0.5Cvlib.5Capp.5Cgfx_apps.5Csimple_draw_d1l2.5Ctarget.5Cd1lx_mango_ghs.5Cobj.5Cr_sys_wm.610::
                       11841 .LDWlin610:
00002764 0152          11842 	mov	1,r10
                       11843 .L7701:
                       11844 --	    .ef
                       11845 .LDW282:
00002766 5006ff70      11846 	dispose	8,{r25,r26,r27,r28,r29,r31},[lp]
                       11847 	.type	_R_WM_Sys_CaptureCreate,@function
                       11848 	.size	_R_WM_Sys_CaptureCreate,.-_R_WM_Sys_CaptureCreate
                       11849 	.align	2
                       11850 .LDW382:
                       11851 --_val	r28	local
                       11852 --_fb_fmt	r25	local
                       11853 --_fb_bpp	24[sp]	local
                       11854 --_err	r26	local
                       11855 --_win_layer_pair	28[sp]	local
                       11856 --_should_return	20[sp]	local
                       11857 
                       11858 --_Unit	r27	param
                       11859 --_Capt	r29	param
                       11860 
                       11861 	.section ".bss","awb"
                       11862 .L7854:
                       11863 	.type	.L7854,@object
                       11864 	.size	.L7854,0
                       11865 	.data
                       11866 	.text
                       11867 
                       11868 --3529: }
                       11869 
                       11870 --3531: uint32_t R_WM_Sys_CaptureDelete(uint32_t Unit, const r_wm_Capture_t* Capt)
                       11871 	.align	2
                       11872 	.align	2
                       11873 	.global	_R_WM_Sys_CaptureDelete
                       11874 _R_WM_Sys_CaptureDelete:
0000276a 8007e100      11875 	prepare	{r28,r29,r31},0
0000276e 06e8          11876 	mov	r6,r29
00002770 07e0          11877 	mov	r7,r28
                       11878 --	    .bf
                       11879 .LDW482:
                       11880 --3532: {
                       11881 --3533:     return R_WM_Sys_CaptureEnable(Unit, Capt, 0);
00002772 1d30          11882 	mov	r29,r6
00002774 1c38          11883 	mov	r28,r7
00002776 0042          11884 	mov	0,r8
                       11885 	jarl	_R_WM_Sys_CaptureEnable,lp
                       11885 <EXPANSION BEGIN>
                       11885 jarl22 _R_WM_Sys_CaptureEnable , lp 
00002778 80ff0800*     11885 <EXPANSION END>
                       11886 --	    .ef
                       11887 .LDW582:
                       11888 --line3534
                       11889 ..lin.D.3A.5CRenesas_Electronics.5CD1x_RGL.5Crgl_ghs_D1Lx_obj_V1.2E2.2E0.5Cvlib.5Capp.5Cgfx_apps.5Csimple_draw_d1l2.5Ctarget.5Cd1lx_mango_ghs.5Cobj.5Cr_sys_wm.611::
                       11890 .LDWlin611:
0000277c 4006ff00      11891 	dispose	0,{r28,r29,r31},[lp]
                       11892 	.type	_R_WM_Sys_CaptureDelete,@function
                       11893 	.size	_R_WM_Sys_CaptureDelete,.-_R_WM_Sys_CaptureDelete
                       11894 	.align	2
                       11895 .LDW682:
                       11896 

                                                                      Page 207
                                                              C:\Users\YINGAO~1\AppData\Local\Temp\gh_000084c1.si
                       11897 --_Unit	r29	param
                       11898 --_Capt	r28	param
                       11899 
                       11900 	.section ".bss","awb"
                       11901 .L8024:
                       11902 	.type	.L8024,@object
                       11903 	.size	.L8024,0
                       11904 	.data
                       11905 	.text
                       11906 
                       11907 --3534: }
                       11908 
                       11909 --3536: uint32_t R_WM_Sys_CaptureEnable(uint32_t Unit, const r_wm_Capture_t* Cap, uint32_t Enabled)
                       11910 	.align	2
                       11911 	.align	2
                       11912 	.global	_R_WM_Sys_CaptureEnable
                       11913 _R_WM_Sys_CaptureEnable:
00002780 8007e130      11914 	prepare	{r26,r27,r28,r29,r31},0
00002784 06e8          11915 	mov	r6,r29
00002786 07e0          11916 	mov	r7,r28
00002788 08d0          11917 	mov	r8,r26
0000278a 3b0600000000* 11918 	mov	_r_wm_DevSys,r27
                       11919 --	    .bf
                       11920 .LDW782:
                       11921 --3537: {
                       11922 --3538:     if (Enabled != 0)
00002790 e0d1          11923 	cmp	zero,r26
00002792 e225*         11924 	be	.L8038
                       11925 --3539:     {
                       11926 --3540:         if (0 == (r_wm_DevSys[Unit].GlobalStatusFlags & R_WM_SYS_GLOBAL_STATUS_FLAG_CAPTURE_ACTIVE) )
                       11927 --line3540
                       11928 ..lin.D.3A.5CRenesas_Electronics.5CD1x_RGL.5Crgl_ghs_D1Lx_obj_V1.2E2.2E0.5Cvlib.5Capp.5Cgfx_apps.5Csimple_draw_d1l2.5Ctarget.5Cd1lx_mango_ghs.5Cobj.5Cr_sys_wm.612::
                       11929 .LDWlin612:
00002794 1df0          11930 	mov	r29,ep
00002796 fe00          11931 	sxh	ep
00002798 fef66000      11932 	mulhi	96,ep,ep
0000279c dbf1          11933 	add	r27,ep
0000279e 2c0d          11934 	sld.w	88[ep],r1
000027a0 830a          11935 	shr	3,r1
000027a2 9145*         11936 	bl	.L8048
                       11937 --3541:         {
                       11938 --3542:             if (R_VDCE_ERR_OK != R_VDCE_CapEnable(Cap->CapUnit, Unit))
                       11939 --line3542
                       11940 ..lin.D.3A.5CRenesas_Electronics.5CD1x_RGL.5Crgl_ghs_D1Lx_obj_V1.2E2.2E0.5Cvlib.5Capp.5Cgfx_apps.5Csimple_draw_d1l2.5Ctarget.5Cd1lx_mango_ghs.5Cobj.5Cr_sys_wm.613::
                       11941 .LDWlin613:
000027a4 3c372d00      11942 	ld.w	44[r28],r6
000027a8 1d38          11943 	mov	r29,r7
                       11944 	jarl	_R_VDCE_CapEnable,lp
                       11944 <EXPANSION BEGIN>
                       11944 jarl22 _R_VDCE_CapEnable , lp 
000027aa 80ff0000*     11944 <EXPANSION END>
000027ae e051          11945 	cmp	zero,r10
000027b0 b205*         11946 	be	.L8042
                       11947 --3543:             {
                       11948 --3544:                 return 0;
                       11949 --line3544
                       11950 ..lin.D.3A.5CRenesas_Electronics.5CD1x_RGL.5Crgl_ghs_D1Lx_obj_V1.2E2.2E0.5Cvlib.5Capp.5Cgfx_apps.5Csimple_draw_d1l2.5Ctarget.5Cd1lx_mango_ghs.5Cobj.5Cr_sys_wm.614::
                       11951 .LDWlin614:
000027b2 0052          11952 	mov	0,r10
000027b4 953d*         11953 	br	.L8036
                       11954 .L8042:

                                                                      Page 208
                                                              C:\Users\YINGAO~1\AppData\Local\Temp\gh_000084c1.si
                       11955 --3545:             }
                       11956 --3546:             if (R_VDCE_ERR_OK != R_VDCE_IntcEnable(Cap->CapUnit, R_VDCE_INTC_CAP_VBLANK))
                       11957 --line3546
                       11958 ..lin.D.3A.5CRenesas_Electronics.5CD1x_RGL.5Crgl_ghs_D1Lx_obj_V1.2E2.2E0.5Cvlib.5Capp.5Cgfx_apps.5Csimple_draw_d1l2.5Ctarget.5Cd1lx_mango_ghs.5Cobj.5Cr_sys_wm.615::
                       11959 .LDWlin615:
000027b6 3c372d00      11960 	ld.w	44[r28],r6
000027ba 203e1200      11961 	movea	18,zero,r7
                       11962 	jarl	_R_VDCE_IntcEnable,lp
                       11962 <EXPANSION BEGIN>
                       11962 jarl22 _R_VDCE_IntcEnable , lp 
000027be 80ff0000*     11962 <EXPANSION END>
000027c2 e051          11963 	cmp	zero,r10
000027c4 b205*         11964 	be	.L8045
                       11965 --3547:             {
                       11966 --3548:                 return 0;
                       11967 --line3548
                       11968 ..lin.D.3A.5CRenesas_Electronics.5CD1x_RGL.5Crgl_ghs_D1Lx_obj_V1.2E2.2E0.5Cvlib.5Capp.5Cgfx_apps.5Csimple_draw_d1l2.5Ctarget.5Cd1lx_mango_ghs.5Cobj.5Cr_sys_wm.616::
                       11969 .LDWlin616:
000027c6 0052          11970 	mov	0,r10
000027c8 f52d*         11971 	br	.L8036
                       11972 .L8045:
                       11973 --3549:             }
                       11974 --3550:             r_wm_DevSys[Unit].GlobalStatusFlags |= R_WM_SYS_GLOBAL_STATUS_FLAG_CAPTURE_ACTIVE;
                       11975 --line3550
                       11976 ..lin.D.3A.5CRenesas_Electronics.5CD1x_RGL.5Crgl_ghs_D1Lx_obj_V1.2E2.2E0.5Cvlib.5Capp.5Cgfx_apps.5Csimple_draw_d1l2.5Ctarget.5Cd1lx_mango_ghs.5Cobj.5Cr_sys_wm.617::
                       11977 .LDWlin617:
000027ca 1df0          11978 	mov	r29,ep
000027cc fe00          11979 	sxh	ep
000027ce fef66000      11980 	mulhi	96,ep,ep
000027d2 dbf1          11981 	add	r27,ep
000027d4 2c0d          11982 	sld.w	88[ep],r1
000027d6 810e0400      11983 	ori	4,r1,r1
000027da 2d0d          11984 	sst.w	r1,88[ep]
000027dc c525*         11985 	br	.L8048
                       11986 .L8038:
                       11987 --3551:         }
                       11988 --3552:     }
                       11989 --3553:     else
                       11990 --3554:     {
                       11991 --3555:         if (0 != (r_wm_DevSys[Unit].GlobalStatusFlags & R_WM_SYS_GLOBAL_STATUS_FLAG_CAPTURE_ACTIVE) )
                       11992 --line3555
                       11993 ..lin.D.3A.5CRenesas_Electronics.5CD1x_RGL.5Crgl_ghs_D1Lx_obj_V1.2E2.2E0.5Cvlib.5Capp.5Cgfx_apps.5Csimple_draw_d1l2.5Ctarget.5Cd1lx_mango_ghs.5Cobj.5Cr_sys_wm.618::
                       11994 .LDWlin618:
000027de 1df0          11995 	mov	r29,ep
000027e0 fe00          11996 	sxh	ep
000027e2 fef66000      11997 	mulhi	96,ep,ep
000027e6 dbf1          11998 	add	r27,ep
000027e8 2c0d          11999 	sld.w	88[ep],r1
000027ea 830a          12000 	shr	3,r1
000027ec c91d*         12001 	bnl	.L8048
                       12002 --3556:         {
                       12003 --3557:             if (R_VDCE_ERR_OK != R_VDCE_IntcDisable(Cap->CapUnit, R_VDCE_INTC_CAP_VBLANK))
                       12004 --line3557
                       12005 ..lin.D.3A.5CRenesas_Electronics.5CD1x_RGL.5Crgl_ghs_D1Lx_obj_V1.2E2.2E0.5Cvlib.5Capp.5Cgfx_apps.5Csimple_draw_d1l2.5Ctarget.5Cd1lx_mango_ghs.5Cobj.5Cr_sys_wm.619::
                       12006 .LDWlin619:
000027ee 3c372d00      12007 	ld.w	44[r28],r6
000027f2 203e1200      12008 	movea	18,zero,r7
                       12009 	jarl	_R_VDCE_IntcDisable,lp
                       12009 <EXPANSION BEGIN>
                       12009 jarl22 _R_VDCE_IntcDisable , lp 
000027f6 80ff0000*     12009 <EXPANSION END>

                                                                      Page 209
                                                              C:\Users\YINGAO~1\AppData\Local\Temp\gh_000084c1.si
000027fa e051          12010 	cmp	zero,r10
000027fc b205*         12011 	be	.L8051
                       12012 --3558:             {
                       12013 --3559:                 return 0;
                       12014 --line3559
                       12015 ..lin.D.3A.5CRenesas_Electronics.5CD1x_RGL.5Crgl_ghs_D1Lx_obj_V1.2E2.2E0.5Cvlib.5Capp.5Cgfx_apps.5Csimple_draw_d1l2.5Ctarget.5Cd1lx_mango_ghs.5Cobj.5Cr_sys_wm.620::
                       12016 .LDWlin620:
000027fe 0052          12017 	mov	0,r10
00002800 b515*         12018 	br	.L8036
                       12019 .L8051:
                       12020 --3560:             }
                       12021 --3561:             if (R_VDCE_ERR_OK != R_VDCE_CapDisable(Cap->CapUnit))
                       12022 --line3561
                       12023 ..lin.D.3A.5CRenesas_Electronics.5CD1x_RGL.5Crgl_ghs_D1Lx_obj_V1.2E2.2E0.5Cvlib.5Capp.5Cgfx_apps.5Csimple_draw_d1l2.5Ctarget.5Cd1lx_mango_ghs.5Cobj.5Cr_sys_wm.621::
                       12024 .LDWlin621:
00002802 3c372d00      12025 	ld.w	44[r28],r6
                       12026 	jarl	_R_VDCE_CapDisable,lp
                       12026 <EXPANSION BEGIN>
                       12026 jarl22 _R_VDCE_CapDisable , lp 
00002806 80ff0000*     12026 <EXPANSION END>
0000280a e051          12027 	cmp	zero,r10
0000280c b205*         12028 	be	.L8054
                       12029 --3562:             {
                       12030 --3563:                 return 0;
                       12031 --line3563
                       12032 ..lin.D.3A.5CRenesas_Electronics.5CD1x_RGL.5Crgl_ghs_D1Lx_obj_V1.2E2.2E0.5Cvlib.5Capp.5Cgfx_apps.5Csimple_draw_d1l2.5Ctarget.5Cd1lx_mango_ghs.5Cobj.5Cr_sys_wm.622::
                       12033 .LDWlin622:
0000280e 0052          12034 	mov	0,r10
00002810 b50d*         12035 	br	.L8036
                       12036 .L8054:
                       12037 --3564:             }
                       12038 --3565:             r_wm_DevSys[Unit].GlobalStatusFlags &= ~R_WM_SYS_GLOBAL_STATUS_FLAG_CAPTURE_ACTIVE;
                       12039 --line3565
                       12040 ..lin.D.3A.5CRenesas_Electronics.5CD1x_RGL.5Crgl_ghs_D1Lx_obj_V1.2E2.2E0.5Cvlib.5Capp.5Cgfx_apps.5Csimple_draw_d1l2.5Ctarget.5Cd1lx_mango_ghs.5Cobj.5Cr_sys_wm.623::
                       12041 .LDWlin623:
00002812 1df0          12042 	mov	r29,ep
00002814 fe00          12043 	sxh	ep
00002816 fef66000      12044 	mulhi	96,ep,ep
0000281a 1b72          12045 	mov	-5,r14
0000281c dbf1          12046 	add	r27,ep
0000281e 2c0d          12047 	sld.w	88[ep],r1
00002820 4e09          12048 	and	r14,r1
00002822 2d0d          12049 	sst.w	r1,88[ep]
                       12050 .L8048:
                       12051 --3566:         }
                       12052 --3567:     }
                       12053 --3568:     return 1;
00002824 0152          12054 	mov	1,r10
                       12055 .L8036:
                       12056 --	    .ef
                       12057 .LDW882:
00002826 4006ff30      12058 	dispose	0,{r26,r27,r28,r29,r31},[lp]
                       12059 	.type	_R_WM_Sys_CaptureEnable,@function
                       12060 	.size	_R_WM_Sys_CaptureEnable,.-_R_WM_Sys_CaptureEnable
                       12061 	.align	2
                       12062 .LDW982:
                       12063 
                       12064 --_Unit	r29	param
                       12065 --_Cap	r28	param
                       12066 --_Enabled	r26	param
                       12067 

                                                                      Page 210
                                                              C:\Users\YINGAO~1\AppData\Local\Temp\gh_000084c1.si
                       12068 	.section ".bss","awb"
                       12069 .L8098:
                       12070 	.type	.L8098,@object
                       12071 	.size	.L8098,0
                       12072 	.data
                       12073 	.text
                       12074 
                       12075 --3569: }
                       12076 
                       12077 --3571: uint32_t R_WM_Sys_MsgQueueSetup(uint32_t Unit, void* MsgQueueStorage, uint32_t Size)
                       12078 	.align	2
                       12079 	.align	2
                       12080 	.global	_R_WM_Sys_MsgQueueSetup
                       12081 _R_WM_Sys_MsgQueueSetup:
0000282a 8007e110      12082 	prepare	{r27,r28,r29,r31},0
0000282e 06e8          12083 	mov	r6,r29
00002830 07e0          12084 	mov	r7,r28
00002832 08d8          12085 	mov	r8,r27
                       12086 --	    .bf
                       12087 .LDW092:
                       12088 --3572: {
                       12089 --3573:     return (R_CDI_RbSetup(&r_wm_DevSys[Unit].EvQueueRingBuf, MsgQueueStorage, Size, sizeof(r_wm_Msg_t)) == 0);
00002834 1d08          12090 	mov	r29,r1
00002836 e100          12091 	sxh	r1
00002838 e10e6000      12092 	mulhi	96,r1,r1
0000283c 1c38          12093 	mov	r28,r7
0000283e 2e0600000000* 12094 	mov	_r_wm_DevSys,r14
00002844 1b40          12095 	mov	r27,r8
00002846 204e1400      12096 	movea	20,zero,r9
0000284a ce09          12097 	add	r14,r1
0000284c 0130          12098 	mov	r1,r6
                       12099 	jarl	_R_CDI_RbSetup,lp
                       12099 <EXPANSION BEGIN>
                       12099 jarl22 _R_CDI_RbSetup , lp 
0000284e 80ff0000*     12099 <EXPANSION END>
00002852 e051          12100 	cmp	zero,r10
00002854 e2570000      12101 	setfe	r10
                       12102 --	    .ef
                       12103 .LDW192:
                       12104 --line3574
                       12105 ..lin.D.3A.5CRenesas_Electronics.5CD1x_RGL.5Crgl_ghs_D1Lx_obj_V1.2E2.2E0.5Cvlib.5Capp.5Cgfx_apps.5Csimple_draw_d1l2.5Ctarget.5Cd1lx_mango_ghs.5Cobj.5Cr_sys_wm.624::
                       12106 .LDWlin624:
00002858 4006ff10      12107 	dispose	0,{r27,r28,r29,r31},[lp]
                       12108 	.type	_R_WM_Sys_MsgQueueSetup,@function
                       12109 	.size	_R_WM_Sys_MsgQueueSetup,.-_R_WM_Sys_MsgQueueSetup
                       12110 	.align	2
                       12111 .LDW292:
                       12112 
                       12113 --_Unit	r29	param
                       12114 --_MsgQueueStorage	r28	param
                       12115 --_Size	r27	param
                       12116 
                       12117 	.section ".bss","awb"
                       12118 .L8168:
                       12119 	.type	.L8168,@object
                       12120 	.size	.L8168,0
                       12121 	.data
                       12122 	.text
                       12123 
                       12124 --3574: }
                       12125 

                                                                      Page 211
                                                              C:\Users\YINGAO~1\AppData\Local\Temp\gh_000084c1.si
                       12126 --3576: uint32_t R_WM_Sys_MsgQueueRead(uint32_t Unit, r_wm_Msg_t* Msg)
                       12127 	.align	2
                       12128 	.align	2
                       12129 	.global	_R_WM_Sys_MsgQueueRead
                       12130 _R_WM_Sys_MsgQueueRead:
0000285c 8007e100      12131 	prepare	{r28,r29,r31},0
00002860 06e8          12132 	mov	r6,r29
00002862 07e0          12133 	mov	r7,r28
                       12134 --	    .bf
                       12135 .LDW392:
                       12136 --3577: {
                       12137 --3578:     if (R_CDI_RbRead(&r_wm_DevSys[Unit].EvQueueRingBuf, Msg, 1) != 1)
00002864 1d08          12138 	mov	r29,r1
00002866 e100          12139 	sxh	r1
00002868 e10e6000      12140 	mulhi	96,r1,r1
0000286c 1c38          12141 	mov	r28,r7
0000286e 2e0600000000* 12142 	mov	_r_wm_DevSys,r14
00002874 0142          12143 	mov	1,r8
00002876 ce09          12144 	add	r14,r1
00002878 0130          12145 	mov	r1,r6
                       12146 	jarl	_R_CDI_RbRead,lp
                       12146 <EXPANSION BEGIN>
                       12146 jarl22 _R_CDI_RbRead , lp 
0000287a 80ff0000*     12146 <EXPANSION END>
0000287e 6152          12147 	cmp	1,r10
00002880 b205*         12148 	be	.L8182
                       12149 --3579:     {
                       12150 --3580:         R_WM_SYS_REPORT_ERROR(Unit, R_WM_ERR_NG, 0);
                       12151 --3581:         return 0;
                       12152 --line3581
                       12153 ..lin.D.3A.5CRenesas_Electronics.5CD1x_RGL.5Crgl_ghs_D1Lx_obj_V1.2E2.2E0.5Cvlib.5Capp.5Cgfx_apps.5Csimple_draw_d1l2.5Ctarget.5Cd1lx_mango_ghs.5Cobj.5Cr_sys_wm.625::
                       12154 .LDWlin625:
00002882 0052          12155 	mov	0,r10
00002884 a505*         12156 	br	.L8180
                       12157 .L8182:
                       12158 --3582:     }
                       12159 --3583:     return 1;
                       12160 --line3583
                       12161 ..lin.D.3A.5CRenesas_Electronics.5CD1x_RGL.5Crgl_ghs_D1Lx_obj_V1.2E2.2E0.5Cvlib.5Capp.5Cgfx_apps.5Csimple_draw_d1l2.5Ctarget.5Cd1lx_mango_ghs.5Cobj.5Cr_sys_wm.626::
                       12162 .LDWlin626:
00002886 0152          12163 	mov	1,r10
                       12164 .L8180:
                       12165 --	    .ef
                       12166 .LDW492:
00002888 4006ff00      12167 	dispose	0,{r28,r29,r31},[lp]
                       12168 	.type	_R_WM_Sys_MsgQueueRead,@function
                       12169 	.size	_R_WM_Sys_MsgQueueRead,.-_R_WM_Sys_MsgQueueRead
                       12170 	.align	2
                       12171 .LDW592:
                       12172 
                       12173 --_Unit	r29	param
                       12174 --_Msg	r28	param
                       12175 
                       12176 	.section ".bss","awb"
                       12177 .L8204:
                       12178 	.type	.L8204,@object
                       12179 	.size	.L8204,0
                       12180 	.data
                       12181 	.text
                       12182 
                       12183 --3584: }

                                                                      Page 212
                                                              C:\Users\YINGAO~1\AppData\Local\Temp\gh_000084c1.si
                       12184 
                       12185 --3586: uint32_t R_WM_Sys_MsgQueueWrite(uint32_t Unit, r_wm_Msg_t* Msg)
                       12186 	.align	2
                       12187 	.align	2
                       12188 	.global	_R_WM_Sys_MsgQueueWrite
                       12189 _R_WM_Sys_MsgQueueWrite:
0000288c 8007e100      12190 	prepare	{r28,r29,r31},0
00002890 06e8          12191 	mov	r6,r29
00002892 07e0          12192 	mov	r7,r28
                       12193 --	    .bf
                       12194 .LDW692:
                       12195 --3587: {
                       12196 --3588:     if (R_CDI_RbWrite(&r_wm_DevSys[Unit].EvQueueRingBuf, (void*)Msg, 1) != 1)
00002894 1d08          12197 	mov	r29,r1
00002896 e100          12198 	sxh	r1
00002898 e10e6000      12199 	mulhi	96,r1,r1
0000289c 1c38          12200 	mov	r28,r7
0000289e 2e0600000000* 12201 	mov	_r_wm_DevSys,r14
000028a4 0142          12202 	mov	1,r8
000028a6 ce09          12203 	add	r14,r1
000028a8 0130          12204 	mov	r1,r6
                       12205 	jarl	_R_CDI_RbWrite,lp
                       12205 <EXPANSION BEGIN>
                       12205 jarl22 _R_CDI_RbWrite , lp 
000028aa 80ff0000*     12205 <EXPANSION END>
000028ae 6152          12206 	cmp	1,r10
000028b0 b205*         12207 	be	.L8224
                       12208 --3589:     {
                       12209 --3590:         R_WM_SYS_REPORT_ERROR(Unit, R_WM_ERR_NG, 0);
                       12210 --3591:         return 0;
                       12211 --line3591
                       12212 ..lin.D.3A.5CRenesas_Electronics.5CD1x_RGL.5Crgl_ghs_D1Lx_obj_V1.2E2.2E0.5Cvlib.5Capp.5Cgfx_apps.5Csimple_draw_d1l2.5Ctarget.5Cd1lx_mango_ghs.5Cobj.5Cr_sys_wm.627::
                       12213 .LDWlin627:
000028b2 0052          12214 	mov	0,r10
000028b4 a505*         12215 	br	.L8222
                       12216 .L8224:
                       12217 --3592:     }
                       12218 --3593:     return 1;
                       12219 --line3593
                       12220 ..lin.D.3A.5CRenesas_Electronics.5CD1x_RGL.5Crgl_ghs_D1Lx_obj_V1.2E2.2E0.5Cvlib.5Capp.5Cgfx_apps.5Csimple_draw_d1l2.5Ctarget.5Cd1lx_mango_ghs.5Cobj.5Cr_sys_wm.628::
                       12221 .LDWlin628:
000028b6 0152          12222 	mov	1,r10
                       12223 .L8222:
                       12224 --	    .ef
                       12225 .LDW792:
000028b8 4006ff00      12226 	dispose	0,{r28,r29,r31},[lp]
                       12227 	.type	_R_WM_Sys_MsgQueueWrite,@function
                       12228 	.size	_R_WM_Sys_MsgQueueWrite,.-_R_WM_Sys_MsgQueueWrite
                       12229 	.align	2
                       12230 .LDW892:
                       12231 
                       12232 --_Unit	r29	param
                       12233 --_Msg	r28	param
                       12234 
                       12235 	.section ".bss","awb"
                       12236 .L8252:
                       12237 	.type	.L8252,@object
                       12238 	.size	.L8252,0
                       12239 	.data
                       12240 	.text
                       12241 

                                                                      Page 213
                                                              C:\Users\YINGAO~1\AppData\Local\Temp\gh_000084c1.si
                       12242 --3594: }
                       12243 
                       12244 --3596: uint32_t R_WM_Sys_DevCountGet(void)
                       12245 	.align	2
                       12246 	.align	2
                       12247 	.global	_R_WM_Sys_DevCountGet
                       12248 _R_WM_Sys_DevCountGet:
                       12249 --	    .bf
                       12250 .LDW992:
                       12251 --3597: {
                       12252 --3598:     return R_WM_DEV_NUM;
000028bc 0252          12253 	mov	2,r10
                       12254 --	    .ef
                       12255 .LDW003:
000028be 7f00          12256 	jmp	[lp]
                       12257 	.type	_R_WM_Sys_DevCountGet,@function
                       12258 	.size	_R_WM_Sys_DevCountGet,.-_R_WM_Sys_DevCountGet
                       12259 	.align	2
                       12260 .LDW103:
                       12261 
                       12262 	.section ".bss","awb"
                       12263 .L8280:
                       12264 	.type	.L8280,@object
                       12265 	.size	.L8280,0
                       12266 	.data
                       12267 	.text
                       12268 
                       12269 --3599: }
                       12270 
                       12271 --3601: uint32_t R_WM_Sys_IsShutdownActive(uint32_t Unit)
                       12272 	.align	2
                       12273 	.align	2
                       12274 	.global	_R_WM_Sys_IsShutdownActive
                       12275 _R_WM_Sys_IsShutdownActive:
000028c0 0608          12276 	mov	r6,r1
                       12277 --	    .bf
                       12278 .LDW203:
                       12279 --3602: {
                       12280 --3603:     if (0 != (r_wm_DevSys[Unit].GlobalStatusFlags & R_WM_SYS_GLOBAL_STATUS_FLAG_SHUTDOWN) )
000028c2 01f0          12281 	mov	r1,ep
000028c4 fe00          12282 	sxh	ep
000028c6 fef66000      12283 	mulhi	96,ep,ep
000028ca 2d0600000000* 12284 	mov	_r_wm_DevSys,r13
000028d0 cdf1          12285 	add	r13,ep
000028d2 2c75          12286 	sld.w	88[ep],r14
000028d4 c172          12287 	shl	1,r14
000028d6 b905*         12288 	bnl	.L8294
                       12289 --3604:     {
                       12290 --3605:         return 1;
                       12291 --line3605
                       12292 ..lin.D.3A.5CRenesas_Electronics.5CD1x_RGL.5Crgl_ghs_D1Lx_obj_V1.2E2.2E0.5Cvlib.5Capp.5Cgfx_apps.5Csimple_draw_d1l2.5Ctarget.5Cd1lx_mango_ghs.5Cobj.5Cr_sys_wm.629::
                       12293 .LDWlin629:
000028d8 0152          12294 	mov	1,r10
000028da a505*         12295 	br	.L8292
                       12296 .L8294:
                       12297 --3606:     }
                       12298 --3607:     return 0;
                       12299 --line3607
                       12300 ..lin.D.3A.5CRenesas_Electronics.5CD1x_RGL.5Crgl_ghs_D1Lx_obj_V1.2E2.2E0.5Cvlib.5Capp.5Cgfx_apps.5Csimple_draw_d1l2.5Ctarget.5Cd1lx_mango_ghs.5Cobj.5Cr_sys_wm.630::
                       12301 .LDWlin630:
000028dc 0052          12302 	mov	0,r10

                                                                      Page 214
                                                              C:\Users\YINGAO~1\AppData\Local\Temp\gh_000084c1.si
                       12303 .L8292:
                       12304 --	    .ef
                       12305 .LDW303:
000028de 7f00          12306 	jmp	[lp]
                       12307 	.type	_R_WM_Sys_IsShutdownActive,@function
                       12308 	.size	_R_WM_Sys_IsShutdownActive,.-_R_WM_Sys_IsShutdownActive
                       12309 	.align	2
                       12310 .LDW403:
                       12311 
                       12312 --_Unit	r1	param
                       12313 
                       12314 	.section ".bss","awb"
                       12315 .L8316:
                       12316 	.type	.L8316,@object
                       12317 	.size	.L8316,0
                       12318 	.data
                       12319 	.text
                       12320 
                       12321 --3608: }
                       12322 	.align	2
                       12323 --_loc_WaitVblankInt	_loc_WaitVblankInt	static
                       12324 --_loc_WaitScanlineInt	_loc_WaitScanlineInt	static
                       12325 --_loc_Isr	_loc_Isr	static
                       12326 --_loc_CpuHeap_WM	_loc_CpuHeap_WM	static
                       12327 --_loc_VidHeap_WM	_loc_VidHeap_WM	static
                       12328 --_loc_capture1PinConfig	_loc_capture1PinConfig	static
                       12329 --_loc_capture0PinConfig	_loc_capture0PinConfig	static
                       12330 
                       12331 	.data
                       12332 	.section ".bss","awb"
                       12333 	.align	4
                       12334 	.global	_r_wm_DevSys
00000010 000000000000  12335 _r_wm_DevSys:	.space	192
00000016 000000000000 
0000001c 000000000000 
00000022 000000000000 
00000028 000000000000 
0000002e 000000000000 
00000034 000000000000 
0000003a 000000000000 
00000040 000000000000 
00000046 000000000000 
0000004c 000000000000 
00000052 000000000000 
00000058 000000000000 
0000005e 000000000000 
00000064 000000000000 
0000006a 000000000000 
00000070 000000000000 
00000076 000000000000 
0000007c 000000000000 
00000082 000000000000 
00000088 000000000000 
0000008e 000000000000 
00000094 000000000000 
0000009a 000000000000 
000000a0 000000000000 
000000a6 000000000000 
000000ac 000000000000 
000000b2 000000000000 
000000b8 000000000000 

                                                                      Page 215
                                                              C:\Users\YINGAO~1\AppData\Local\Temp\gh_000084c1.si
000000be 000000000000 
000000c4 000000000000 
000000ca 000000000000 
                       12336 	.type	_r_wm_DevSys,@object
                       12337 	.size	_r_wm_DevSys,192
                       12338 	.data
                       12339 	.ghsnote version,14
                       12340 	.ghsnote tools,3
                       12341 	.ghsnote options,144
                       12342 	.text
                       12343 	.align	2
                       12344 ..eof.D.3A.5CRenesas_Electronics.5CD1x_RGL.5Crgl_ghs_D1Lx_obj_V1.2E2.2E0.5Cvlib.5Capp.5Cgfx_apps.5Csimple_draw_d1l2.5Ctarget.5Cd1lx_mango_ghs.5Cobj.5Cr_sys_wm...44.3A.5CRenesas_Electronics.5CD1x_RGL.5Crgl_ghs_D1Lx_obj_V1.2E2.2E0.5Cvlib.5Capp.5Cgfx_apps.5Csimple_draw_d1l2.5Ctarget.5Cd1lx_mango_ghs..5A74038B..0::
                       12345 .rh850_flags FLOAT,REGMODE22,DATA_ALIGN8,GP_FIX,EP_NONFIX,TP_FIX,REG2_RESERVE,FPU30,G3M
