                                                                      Page 1
                                                              C:\Users\YINGAO~1\AppData\Local\Temp\gh_00008g01.si
Command Line: C:\ghs\comp_201355\ease850.exe -w -elf -b0 -ID:\Renesas_Electronics\D1x_RGL\rgl_ghs_D1Lx_obj_V1.2.0\vlib\macro\flashc\sfma\lib -I../../../../../Device -I../../../../../Driver/ADCE -I../../../../../Driver/CLOCK -I../../../../../Driver/DIO -I../../../../../Driver/DSPI -I../../../../../Driver/Interrupt -I../../../../../Driver/ISM -I../../../../../Driver/OSTM -I../../../../../Driver/PWM -I../../../../../Driver/RSTC -I../../../../../Driver/RTCA -I../../../../../Driver/STBC -I../../../../../Driver/TAUB -I../../../../../Driver/WDT -I../../../../../middleware\ADM -I../../../../../middleware\BPM -I../../../../../middleware\EED -I../../../../../middleware\IOM -I../../../../../middleware\LRM -I../../../../../middleware\MOM -I../../../../../middleware\PWMM -I../../../../../Common -I../../../../../Applayer\DSM -I../../../../../Applayer\FM -I../../../../../Applayer\TPM -I../../../../../Applayer\ACC -I../../../../../Applayer\ASS -I../../../../../Applayer\BAT -I../../../../../Applayer\COM -I../../../../../Applayer\COM\vtp -I../../../../../Applayer\COM\vtp\lib -I../../../../../Applayer\CRUS -I../../../../../Applayer\DIAG -I../../../../../Applayer\FC -I../../../../../Applayer\FL -I../../../../../Applayer\HSD -I../../../../../Applayer\IDLE -I../../../../../Applayer\ILLU -I../../../../../Applayer\LED -I../../../../../Applayer\MSG -I../../../../../Applayer\NVM -I../../../../../Applayer\ODO -I../../../../../Applayer\PWR -I../../../../../Applayer\RANG -I../../../../../Applayer\RST -I../../../../../Applayer\RTC -I../../../../../Applayer\SCS -I../../../../../Applayer\SSB -I../../../../../Applayer\ST -I../../../../../Applayer\STSMG -I../../../../../Applayer\SYS -I../../../../../Applayer\TIP -I../../../../../Applayer\TRIP -I../../../../../Applayer\CHM -I../../../../../Applayer\DM -I../../../../../Applayer\EVT -I../../../../../Applayer\FTR -I../../../../../Applayer\SLF -I../../../../../Applayer\NWD -I../../../../../Applayer\TPMS -I../../../../../Applayer\WFM -I../../../../../Applayer\NZM -I../../../../../app/gfx_apps/simple_draw_d1l2/src -I../../../../../bsp/board//config -I../../../../../bsp/board//src/gfx -I../../../../../bsp/board//src/hmi -I../../../../../bsp/board//src/stdio -I../../../../../bsp/board/d1lx_mango/config -I../../../../../bsp/board/d1lx_mango/src -I../../../../../bsp/board/d1lx_mango/src/gfx -I../../../../../bsp/board/d1lx_mango/src/hmi -I../../../../../bsp/board/d1lx_mango/src/stdio -I../../../../../bsp/gfx/lib -I../../../../../bsp/gfx/src -I../../../../../bsp/hmi/lib -I../../../../../bsp/hmi/src -I../../../../../bsp/lib -I../../../../../bsp/stdio/lib -I../../../../../bsp/stdio/src -I../../../../../cdi/lib -I../../../../../cdi/src -I../../../../../compiler/rh850_ghs/inc -I../../../../../device/d1lx/lib -I../../../../../device/d1lx/macro_cfg -I../../../../../device/d1lx/src/dev -I../../../../../device/d1lx/src/rh850_ghs -I../../../../../device/d1x_common/macro_cfg -I../../../../../device/d1x_common/src/csisw -I../../../../../device/d1x_common/src/ddb -I../../../../../device/d1x_common/src/dev -I../../../../../device/d1x_common/src/gfxbus -I../../../../../device/d1x_common/src/gpio -I../../../../../device/d1x_common/src/ostm -I../../../../../device/d1x_common/src/pbg -I../../../../../device/d1x_common/src/riic -I../../../../../device/d1x_common/src/sfma -I../../../../../device/d1x_common/src/spea -I../../../../../device/d1x_common/src/tauj -I../../../../../device/d1x_common/src/tick -I../../../../../device/d1x_common/src/vdce -I../../../../../device/d1x_common/src/wm -I../../../../../device/d1x_common/src/xbus -I../../../../../device/lib -I../../../../../macro/bus/pbg/lib -I../../../../../macro/bus/pbg/src -I../../../../../macro/csi/csisw/lib -I../../../../../macro/csi/csisw/src -I../../../../../macro/drw2d/lib -I../../../../../macro/drw2d/platform/cpu -I../../../../../macro/drw2d/platform/os/no_os -I../../../../../macro/drw2d/src -I../../../../../macro/flashc/sfcdb/lib -I../../../../../macro/flashc/sfcdb/src -I../../../../../macro/flashc/sfma/lib -I../../../../../macro/flashc/sfma/src -I../../../../../macro/gfxbus/lib -I../../../../../macro/gfxbus/src -I../../../../../macro/gfxbus/xbus/lib -I../../../../../macro/gfxbus/xbus/src -I../../../../../macro/gpio/lib -I../../../../../macro/gpio/src -I../../../../../macro/i2c/riic/lib -I../../../../../macro/i2c/riic/src -I../../../../../macro/tick/lib -I../../../../../macro/tick/src -I../../../../../macro/timer/ostm/lib -I../../../../../macro/timer/ostm/src -I../../../../../macro/timer/tauj/lib -I../../../../../macro/timer/tauj/src -I../../../../../macro/vdce/lib -I../../../../../macro/vdce/src -I../../../../../macro/vo/ddb/lib -I../../../../../macro/vo/ddb/src -I../../../../../macro/vo/spea/lib -I../../../../../macro/vo/spea/src -I../../../../../macro/wm/lib -I../../../../../macro/wm/src -I../../../../../app/gfx_apps/simple_draw_d1l2/src/QD_HMI -I../../../../../app/gfx_apps/simple_draw_d1l2/src/QD_HMI/HMI_Data -IC:\ghs\comp_201355\lib\rh850_22 -cg_underscore -cpu=rh850g3m -no_v850_simd -nomacro -patch_dbo=D:\Renesas_Electronics\D1x_RGL\rgl_ghs_D1Lx_obj_V1.2.0\vlib\app\gfx_apps\simple_draw_d1l2\target\d1lx_mango_ghs\obj\r_tauj_main.dbo -source=r_tauj_main.c -o .\obj\gh_00008g01.o -list=.\obj\r_tauj_main.lst C:\Users\YINGAO~1\AppData\Local\Temp\gh_00008g01.si 
Original File: C:\Users\YINGAO~1\AppData\Local\Temp\gh_00008g01.si
Source File: r_tauj_main.c
Directory: D:\Renesas_Electronics\D1x_RGL\rgl_ghs_D1Lx_obj_V1.2.0\vlib\app\gfx_apps\simple_draw_d1l2\target\d1lx_mango_ghs
Host OS: Windows 7 Service Pack 1
EASE: Copyright (C) 1983-2013 Green Hills Software.  All Rights Reversed.
Release: Compiler v2013.5.5
Build Directory: [Directory] BTOWINBOX:c:/build_2013_5_bto/2013-10-04.1311-2013_5_bto/win32-comp-ecom
Revision: [VCInfo] http://toolsvc/branches/release-branch-2013-5-bto/src@496240 (built by build)
Revision Date: Sat Oct 05 04:54:43 2013

Release Date: Sat Oct 05 05:20:49 2013

                           1 --Driver Command: ccv850 -c -MD
                           2 --		-ID:\Renesas_Electronics\D1x_RGL\rgl_ghs_D1Lx_obj_V1.2.0\vlib\macro\flashc\sfma\lib
                           3 --		-I../../../../../Device -I../../../../../Driver/ADCE
                           4 --		-I../../../../../Driver/CLOCK -I../../../../../Driver/DIO
                           5 --		-I../../../../../Driver/DSPI -I../../../../../Driver/Interrupt
                           6 --		-I../../../../../Driver/ISM -I../../../../../Driver/OSTM
                           7 --		-I../../../../../Driver/PWM -I../../../../../Driver/RSTC
                           8 --		-I../../../../../Driver/RTCA -I../../../../../Driver/STBC
                           9 --		-I../../../../../Driver/TAUB -I../../../../../Driver/WDT
                          10 --		-I../../../../../middleware\ADM -I../../../../../middleware\BPM
                          11 --		-I../../../../../middleware\EED -I../../../../../middleware\IOM
                          12 --		-I../../../../../middleware\LRM -I../../../../../middleware\MOM
                          13 --		-I../../../../../middleware\PWMM -I../../../../../Common
                          14 --		-I../../../../../Applayer\DSM -I../../../../../Applayer\FM
                          15 --		-I../../../../../Applayer\TPM -I../../../../../Applayer\ACC
                          16 --		-I../../../../../Applayer\ASS -I../../../../../Applayer\BAT
                          17 --		-I../../../../../Applayer\COM -I../../../../../Applayer\COM\vtp
                          18 --		-I../../../../../Applayer\COM\vtp\lib
                          19 --		-I../../../../../Applayer\CRUS -I../../../../../Applayer\DIAG
                          20 --		-I../../../../../Applayer\FC -I../../../../../Applayer\FL
                          21 --		-I../../../../../Applayer\HSD -I../../../../../Applayer\IDLE
                          22 --		-I../../../../../Applayer\ILLU -I../../../../../Applayer\LED
                          23 --		-I../../../../../Applayer\MSG -I../../../../../Applayer\NVM
                          24 --		-I../../../../../Applayer\ODO -I../../../../../Applayer\PWR
                          25 --		-I../../../../../Applayer\RANG -I../../../../../Applayer\RST
                          26 --		-I../../../../../Applayer\RTC -I../../../../../Applayer\SCS
                          27 --		-I../../../../../Applayer\SSB -I../../../../../Applayer\ST
                          28 --		-I../../../../../Applayer\STSMG -I../../../../../Applayer\SYS
                          29 --		-I../../../../../Applayer\TIP -I../../../../../Applayer\TRIP
                          30 --		-I../../../../../Applayer\CHM -I../../../../../Applayer\DM
                          31 --		-I../../../../../Applayer\EVT -I../../../../../Applayer\FTR
                          32 --		-I../../../../../Applayer\SLF -I../../../../../Applayer\NWD
                          33 --		-I../../../../../Applayer\TPMS -I../../../../../Applayer\WFM
                          34 --		-I../../../../../Applayer\NZM
                          35 --		-I../../../../../app/gfx_apps/simple_draw_d1l2/src
                          36 --		-I../../../../../bsp/board//config
                          37 --		-I../../../../../bsp/board//src/gfx
                          38 --		-I../../../../../bsp/board//src/hmi
                          39 --		-I../../../../../bsp/board//src/stdio
                          40 --		-I../../../../../bsp/board/d1lx_mango/config
                          41 --		-I../../../../../bsp/board/d1lx_mango/src
                          42 --		-I../../../../../bsp/board/d1lx_mango/src/gfx
                          43 --		-I../../../../../bsp/board/d1lx_mango/src/hmi
                          44 --		-I../../../../../bsp/board/d1lx_mango/src/stdio
                          45 --		-I../../../../../bsp/gfx/lib -I../../../../../bsp/gfx/src
                          46 --		-I../../../../../bsp/hmi/lib -I../../../../../bsp/hmi/src
                          47 --		-I../../../../../bsp/lib -I../../../../../bsp/stdio/lib
                          48 --		-I../../../../../bsp/stdio/src -I../../../../../cdi/lib
                          49 --		-I../../../../../cdi/src -I../../../../../compiler/rh850_ghs/inc
                          50 --		-I../../../../../device/d1lx/lib

                                                                      Page 2
                                                              C:\Users\YINGAO~1\AppData\Local\Temp\gh_00008g01.si
                          51 --		-I../../../../../device/d1lx/macro_cfg
                          52 --		-I../../../../../device/d1lx/src/dev
                          53 --		-I../../../../../device/d1lx/src/rh850_ghs
                          54 --		-I../../../../../device/d1x_common/macro_cfg
                          55 --		-I../../../../../device/d1x_common/src/csisw
                          56 --		-I../../../../../device/d1x_common/src/ddb
                          57 --		-I../../../../../device/d1x_common/src/dev
                          58 --		-I../../../../../device/d1x_common/src/gfxbus
                          59 --		-I../../../../../device/d1x_common/src/gpio
                          60 --		-I../../../../../device/d1x_common/src/ostm
                          61 --		-I../../../../../device/d1x_common/src/pbg
                          62 --		-I../../../../../device/d1x_common/src/riic
                          63 --		-I../../../../../device/d1x_common/src/sfma
                          64 --		-I../../../../../device/d1x_common/src/spea
                          65 --		-I../../../../../device/d1x_common/src/tauj
                          66 --		-I../../../../../device/d1x_common/src/tick
                          67 --		-I../../../../../device/d1x_common/src/vdce
                          68 --		-I../../../../../device/d1x_common/src/wm
                          69 --		-I../../../../../device/d1x_common/src/xbus
                          70 --		-I../../../../../device/lib -I../../../../../macro/bus/pbg/lib
                          71 --		-I../../../../../macro/bus/pbg/src
                          72 --		-I../../../../../macro/csi/csisw/lib
                          73 --		-I../../../../../macro/csi/csisw/src
                          74 --		-I../../../../../macro/drw2d/lib
                          75 --		-I../../../../../macro/drw2d/platform/cpu
                          76 --		-I../../../../../macro/drw2d/platform/os/no_os
                          77 --		-I../../../../../macro/drw2d/src
                          78 --		-I../../../../../macro/flashc/sfcdb/lib
                          79 --		-I../../../../../macro/flashc/sfcdb/src
                          80 --		-I../../../../../macro/flashc/sfma/lib
                          81 --		-I../../../../../macro/flashc/sfma/src
                          82 --		-I../../../../../macro/gfxbus/lib
                          83 --		-I../../../../../macro/gfxbus/src
                          84 --		-I../../../../../macro/gfxbus/xbus/lib
                          85 --		-I../../../../../macro/gfxbus/xbus/src
                          86 --		-I../../../../../macro/gpio/lib -I../../../../../macro/gpio/src
                          87 --		-I../../../../../macro/i2c/riic/lib
                          88 --		-I../../../../../macro/i2c/riic/src
                          89 --		-I../../../../../macro/tick/lib -I../../../../../macro/tick/src
                          90 --		-I../../../../../macro/timer/ostm/lib
                          91 --		-I../../../../../macro/timer/ostm/src
                          92 --		-I../../../../../macro/timer/tauj/lib
                          93 --		-I../../../../../macro/timer/tauj/src
                          94 --		-I../../../../../macro/vdce/lib -I../../../../../macro/vdce/src
                          95 --		-I../../../../../macro/vo/ddb/lib
                          96 --		-I../../../../../macro/vo/ddb/src
                          97 --		-I../../../../../macro/vo/spea/lib
                          98 --		-I../../../../../macro/vo/spea/src -I../../../../../macro/wm/lib
                          99 --		-I../../../../../macro/wm/src
                         100 --		-I../../../../../app/gfx_apps/simple_draw_d1l2/src/QD_HMI
                         101 --		-I../../../../../app/gfx_apps/simple_draw_d1l2/src/QD_HMI/HMI_Data
                         102 --		-G --no_commons --no_implicit_include --prototype_errors
                         103 --		-DR_DRW2D_OS_NO_OS -DR_DRW2D_SYS_CPU -DUSED_CPU=RH850G3M
                         104 --		-DUSE_BSP_GFX -DUSE_BSP_HMI -DUSE_BSP_STDIO -DUSE_CDI -DUSE_CSISW
                         105 --		-DUSE_DDB -DUSE_DRW2D -DUSE_GFXBUS -DUSE_GPIO -DUSE_OSTM
                         106 --		-DUSE_PBG -DUSE_RIIC -DUSE_SFCDB -DUSE_SFMA -DUSE_SPEA -DUSE_TAUJ
                         107 --		-DUSE_TICK -DUSE_VDCE -DUSE_WM -DUSE_XBUS -MD -Mn -Mx -Zuse1bit
                         108 --		-allocate_ep -cpu=rh850g3m -entry=_RESET -large_sda -list
                         109 --		-no_callt -notda -passsource -preprocess_assembly_files
                         110 --		-registermode=22 -reserve_r2 --diag_warning 1 -object_dir=./obj
                         111 --		-filetype.c ..\..\..\..\..\macro\timer\tauj\src\r_tauj_main.c -o

                                                                      Page 3
                                                              C:\Users\YINGAO~1\AppData\Local\Temp\gh_00008g01.si
                         112 --		.\obj\r_tauj_main.o
                         113 --Source File:   ..\..\..\..\..\macro\timer\tauj\src\r_tauj_main.c
                         114 --Directory:     
                         115 --		D:\Renesas_Electronics\D1x_RGL\rgl_ghs_D1Lx_obj_V1.2.0\vlib\app\gfx_apps\simple_draw_d1l2\target\d1lx_mango_ghs
                         116 --Compile Date:  Fri Feb 02 14:22:00 2018
                         117 --Host OS:       Win32
                         118 --Version:       C-RH850 2013.5.5 DEVELOPMENT VERSION
                         119 --Release:       Compiler v2013.5.5
                         120 --Revision Date: Sat Oct 05 05:01:20 2013
                         121 --Release Date:  Sat Oct 05 05:22:44 2013
                         122 -- ecom  -g -w
                         123 
                         124 --1: /*
                         125 --2: ****************************************************************************
                         126 --3: PROJECT : TAUJ driver
                         127 --4: AUTHOR  : Michael Golczewski
                         128 --5: FILE    : $Id: r_tauj_main.c 7402 2016-01-27 15:43:39Z florian.zimmermann $
                         129 --6: ============================================================================ 
                         130 --7: DESCRIPTION
                         131 --8: Driver for TAUJ macro
                         132 --9: ============================================================================
                         133 --10:                             C O P Y R I G H T
                         134 --11: ============================================================================
                         135 --12:                        Copyright (c) 2013 - 2014
                         136 --13:                                   by 
                         137 --14:                        Renesas Electronics (Europe) GmbH. 
                         138 --15:                            Arcadiastrasse 10
                         139 --16:                           D-40472 Duesseldorf
                         140 --17:                                Germany
                         141 --18:                           All rights reserved.
                         142 --19: ============================================================================
                         143 --20: Purpose: only for testing, not for mass production
                         144 --22: DISCLAIMER
                         145 --24: LICENSEE has read, understood and accepted the terms and conditions defined in
                         146 --25: the license agreement, especially the usage rights. In any case, it is
                         147 --26: LICENSEE's responsibility to make sure that any user of the software complies
                         148 --27: with the terms and conditions of the signed license agreement.
                         149 --29: SAMPLE CODE is not part of the licensed software, as such it must not be used in
                         150 --30: mass-production applications. It can only be used for evaluation and
                         151 --31: demonstration purposes at customer's premises listed in the signed license
                         152 --32: agreement.
                         153 --34: ****************************************************************************
                         154 --36: ****************************************************************************
                         155 --37: */
                         156 --39: #ifdef __cplusplus
                         157 --40: extern "C" {
                         158 --41: #endif
                         159 --43: /***********************************************************
                         160 --44:   Title: Main Module
                         161 --46:   Implementation of the API and other global functions.
                         162 --47: */
                         163 --50: /***********************************************************
                         164 --51:   Section: Includes
                         165 --52: */
                         166 --53: #include "r_typedefs.h"
                         167 --54: #include "r_config_tauj.h"
                         168 --55: #include "r_tauj_regs.h"
                         169 --56: #include "r_tauj_api.h"
                         170 --57: #define  R_TAUJ_MAIN_GLOBALS_
                         171 --58: #include "r_tauj_main.h"
                         172 --59: #include "r_tauj_sys.h"

                                                                      Page 4
                                                              C:\Users\YINGAO~1\AppData\Local\Temp\gh_00008g01.si
                         173 --62: /***********************************************************
                         174 --63:   Section: Local Defines
                         175 --64: */
                         176 --66: /* Timer interval */
                         177 --67: #define LOC_TIME_INTERVAL_0                 (0x0000)
                         178 --68: #define LOC_TIME_INTERVAL_1                 (0x0001)
                         179 --69: #define LOC_TIME_INTERVAL_2                 (0x0002)
                         180 --70: #define LOC_TIME_INTERVAL_3                 (0x0003)
                         181 --71: #define LOC_TIME_INTERVAL_4                 (0x0004)
                         182 --72: #define LOC_TIME_INTERVAL_5                 (0x0005)
                         183 --73: #define LOC_TIME_INTERVAL_6                 (0x0006)
                         184 --74: #define LOC_TIME_INTERVAL_7                 (0x0007)
                         185 --75: #define LOC_TIME_INTERVAL_8                 (0x0008)
                         186 --76: #define LOC_TIME_INTERVAL_9                 (0x0009)
                         187 --77: #define LOC_TIME_INTERVAL_10                (0x000A)
                         188 --78: #define LOC_TIME_INTERVAL_11                (0x000B)
                         189 --79: #define LOC_TIME_INTERVAL_12                (0x000C)
                         190 --80: #define LOC_TIME_INTERVAL_13                (0x000D)
                         191 --81: #define LOC_TIME_INTERVAL_14                (0x000E)
                         192 --82: #define LOC_TIME_INTERVAL_15                (0x000F)
                         193 --84: /* clock source */
                         194 --85: #define LOC_CK_0                            (0x00)
                         195 --86: #define LOC_CK_1                            (0x01)
                         196 --87: #define LOC_CK_2                            (0x02)
                         197 --88: #define LOC_CK_3                            (0x03)
                         198 --90: /* Mode */
                         199 --91: #define LOC_INTERVAL_TIMER_MODE             (0x00)
                         200 --92: #define LOC_RFU_JUDGE_MODE                  (0x01)
                         201 --93: #define LOC_CAPTURE_MODE                    (0x02)
                         202 --94: #define LOC_RFU_EVENT_COUNT_MODE            (0x03)
                         203 --95: #define LOC_ONE_COUNT_MODE                  (0x04)
                         204 --96: #define LOC_RFU_TRIGGER_START_MODE          (0x05)
                         205 --97: #define LOC_CAPTURE_ONE_COUNT_MODE          (0x06)
                         206 --98: #define LOC_RFU_JUDGE_ONE_COUNT_MODE        (0x07)
                         207 --99: #define LOC_RFU_INTERVAL_ONE_COUNT_MODE     (0x08)
                         208 --100: #define LOC_RFU_UP_DOWN_COUNT_MODE          (0x09)
                         209 --101: #define LOC_RFU_PULSE_ONE_COUNT_MODE        (0x0A)
                         210 --102: #define LOC_COUNT_CAPTURE_MODE              (0x0B)
                         211 --103: #define LOC_GATE_COUNT_MODE                 (0x0C)
                         212 --104: #define LOC_CAPTURE_GATE_COUNT_MODE         (0x0D)
                         213 --106: #define LOC_NONE                            (0x00)
                         214 --107: #define LOC_VALID_EDGE_TIN                  (0x01)
                         215 --108: #define LOC_VALID_EITHER_TIN                (0x02)
                         216 --109: #define LOC_RFU_START_TRIG_FROM_MASTER      (0x03)
                         217 --110: #define LOC_INT_FROM_MASTER                 (0x04)
                         218 --111: #define LOC_RFU_INT_FROM_UPPER              (0x05)
                         219 --112: #define LOC_RFU_TOUT_DEAD_TIME              (0x06)
                         220 --113: #define LOC_RFU_UP_DOWN_FROM_MASTER         (0x07)
                         221 --115: #define LOC_COUNT_CLK_PRESCALER             (0x00)
                         222 --116: #define LOC_COUNT_CLK_TIN                   (0x01)
                         223 --117: #define LOC_COUNT_CLK_RFU                   (0x02)
                         224 --118: #define LOC_COUNT_CLK_MASTER_INT_RFU        (0x03)
                         225 --120: #define LOC_CHANNEL_ALL                     (0x000F)
                         226 --122: #define LOC_FALLING_EDGE                    (0x00)
                         227 --123: #define LOC_RISING_EDGE                     (0x01)
                         228 --124: #define LOC_BOTH_LOW_WIDTH                  (0x02)
                         229 --125: #define LOC_BOTH_HIGH_WIDTH                 (0x03)
                         230 --127: #define LOC_NULL 0
                         231 --129: /***********************************************************
                         232 --130:   Section: Local variables
                         233 --131: */

                                                                      Page 5
                                                              C:\Users\YINGAO~1\AppData\Local\Temp\gh_00008g01.si
                         234 --134: /***********************************************************
                         235 --135:   Section: Local Functions
                         236 --136: */
                         237 --137: static uint16_t loc_GetChannelID(r_tauj_Channel_t Channel) ; 
                         238 --138: static uint32_t loc_GetChannelAddress(r_tauj_Channel_t Channel); 
                         239 --139: static void loc_InitRegs(uint32_t Unit); 
                         240 --140:  
                         241 --141: /***********************************************************
                         242 --142:   Variable: _UserErrorHandler
                         243 --144:   A function pointer to a user callback (Applications error handler)
                         244 --146:   The value is assigned by the application using the driver
                         245 --147: */
                         246 --149: static void (*_UserErrorHandler )(uint32_t Unit, uint32_t Error) = LOC_NULL;
                         247 --153: void R_TAUJ_ErrorHandler(uint32_t Unit, r_tauj_Error_t Error) 
                         248 	.text
                         249 ..bof.D.3A.5CRenesas_Electronics.5CD1x_RGL.5Crgl_ghs_D1Lx_obj_V1.2E2.2E0.5Cvlib.5Capp.5Cgfx_apps.5Csimple_draw_d1l2.5Ctarget.5Cd1lx_mango_ghs.5Cobj.5Cr_tauj_main...44.3A.5CRenesas_Electronics.5CD1x_RGL.5Crgl_ghs_D1Lx_obj_V1.2E2.2E0.5Cvlib.5Capp.5Cgfx_apps.5Csimple_draw_d1l2.5Ctarget.5Cd1lx_mango_ghs..5A740388..0::
                         250 	.align	2
                         251 	.global	_R_TAUJ_ErrorHandler
                         252 _R_TAUJ_ErrorHandler:
00000000 8007e170        253 	prepare	{r25,r26,r27,r28,r29,r31},0
00000004 3d0600000000*   254 	mov	.L32,r29
0000000a 06e0            255 	mov	r6,r28
0000000c 07d8            256 	mov	r7,r27
0000000e 1dd0            257 	mov	r29,r26
                         258 --	    .bf
                         259 .LDW01:
                         260 --154: {
                         261 --155:     if (_UserErrorHandler != LOC_NULL) 
00000010 3d0f0100        262 	ld.w	0[r29],r1
00000014 e009            263 	cmp	zero,r1
00000016 820d*           264 	be	.L4
                         265 --156:     {      /* we've got a registered error handler here ...*/
                         266 --157:         _UserErrorHandler(Unit, Error);      /* ... and we gonna use it!*/
                         267 --line157
                         268 ..lin.D.3A.5CRenesas_Electronics.5CD1x_RGL.5Crgl_ghs_D1Lx_obj_V1.2E2.2E0.5Cvlib.5Capp.5Cgfx_apps.5Csimple_draw_d1l2.5Ctarget.5Cd1lx_mango_ghs.5Cobj.5Cr_tauj_main.1::
                         269 .LDWlin1:
00000018 3dcf0100        270 	ld.w	0[r29],r25
0000001c 1c30            271 	mov	r28,r6
0000001e 1b38            272 	mov	r27,r7
00000020 f9c760f9        273 	jarl	[r25],lp
00000024 b505*           274 	br	.L6
                         275 .L4:
                         276 --158:     } 
                         277 --159:     else 
                         278 --160:     {
                         279 --161:         for (;;)
                         280 --line161
                         281 ..lin.D.3A.5CRenesas_Electronics.5CD1x_RGL.5Crgl_ghs_D1Lx_obj_V1.2E2.2E0.5Cvlib.5Capp.5Cgfx_apps.5Csimple_draw_d1l2.5Ctarget.5Cd1lx_mango_ghs.5Cobj.5Cr_tauj_main.2::
                         282 .LDWlin2:
00000026 0000            283 	nop
                         284 .L9:
                         285 --162:         {                          /* we don't have a handler */
00000028 8505*           286 	br	.L9
                         287 .L6:
                         288 --163:         }                                    /* so, let's wait here */
                         289 --164:     }
                         290 --165: }
                         291 --line165
                         292 ..lin.D.3A.5CRenesas_Electronics.5CD1x_RGL.5Crgl_ghs_D1Lx_obj_V1.2E2.2E0.5Cvlib.5Capp.5Cgfx_apps.5Csimple_draw_d1l2.5Ctarget.5Cd1lx_mango_ghs.5Cobj.5Cr_tauj_main.3::
                         293 .LDWlin3:
0000002a 0000            294 	nop

                                                                      Page 6
                                                              C:\Users\YINGAO~1\AppData\Local\Temp\gh_00008g01.si
                         295 --	    .ef
                         296 .LDW11:
0000002c 4006ff70        297 	dispose	0,{r25,r26,r27,r28,r29,r31},[lp]
                         298 	.type	_R_TAUJ_ErrorHandler,@function
                         299 	.size	_R_TAUJ_ErrorHandler,.-_R_TAUJ_ErrorHandler
                         300 	.align	2
                         301 .LDW21:
                         302 
                         303 --_Unit	r28	param
                         304 --_Error	r27	param
                         305 
                         306 	.data
                         307 	.align	4
                         308 .L32:
                         309 	.type	.L32,@object
                         310 	.size	.L32,0
                         311 	.global	__UserErrorHandler..D.3A.5CRenesas_Electronics.5CD1x_RGL.5Crgl_ghs_D1Lx_obj_V1.2E2.2E0.5Cvlib.5Capp.5Cgfx_apps.5Csimple_draw_d1l2.5Ctarget.5Cd1lx_mango_ghs.5Cobj.5Cr_tauj_main.
                         312 __UserErrorHandler..D.3A.5CRenesas_Electronics.5CD1x_RGL.5Crgl_ghs_D1Lx_obj_V1.2E2.2E0.5Cvlib.5Capp.5Cgfx_apps.5Csimple_draw_d1l2.5Ctarget.5Cd1lx_mango_ghs.5Cobj.5Cr_tauj_main.:
                         313 	.type	__UserErrorHandler..D.3A.5CRenesas_Electronics.5CD1x_RGL.5Crgl_ghs_D1Lx_obj_V1.2E2.2E0.5Cvlib.5Capp.5Cgfx_apps.5Csimple_draw_d1l2.5Ctarget.5Cd1lx_mango_ghs.5Cobj.5Cr_tauj_main.,@object
                         314 	.size	__UserErrorHandler..D.3A.5CRenesas_Electronics.5CD1x_RGL.5Crgl_ghs_D1Lx_obj_V1.2E2.2E0.5Cvlib.5Capp.5Cgfx_apps.5Csimple_draw_d1l2.5Ctarget.5Cd1lx_mango_ghs.5Cobj.5Cr_tauj_main.,4
00000000 00000000        315 __UserErrorHandler:	.byte	0,0,0,0
                         316 	.type	__UserErrorHandler,@object
                         317 	.size	__UserErrorHandler,4
                         318 	.text
                         319 
                         320 
                         321 --168: /***********************************************************
                         322 --169:   Function: loc_GetChannelID
                         323 --171:   converts the channel from an enum to an uint16_t
                         324 --173:   Parameters:
                         325 --174:   Channel        - TAUJ channel number <r_tauj_Channel_t>
                         326 --176:    Returns:
                         327 --177:   u16_channel    - uint16_t version of the enum
                         328 --179: */
                         329 --181: static uint16_t loc_GetChannelID(r_tauj_Channel_t Channel) 
                         330 	.align	2
                         331 	.align	2
                         332 	.global	_loc_GetChannelID..D.3A.5CRenesas_Electronics.5CD1x_RGL.5Crgl_ghs_D1Lx_obj_V1.2E2.2E0.5Cvlib.5Capp.5Cgfx_apps.5Csimple_draw_d1l2.5Ctarget.5Cd1lx_mango_ghs.5Cobj.5Cr_tauj_main.
                         333 _loc_GetChannelID..D.3A.5CRenesas_Electronics.5CD1x_RGL.5Crgl_ghs_D1Lx_obj_V1.2E2.2E0.5Cvlib.5Capp.5Cgfx_apps.5Csimple_draw_d1l2.5Ctarget.5Cd1lx_mango_ghs.5Cobj.5Cr_tauj_main.:
                         334 _loc_GetChannelID:
00000030 0670            335 	mov	r6,r14
                         336 --	    .bf
                         337 .LDW31:
                         338 --182: {
                         339 --183:     uint16_t u16_channel = 0x0000;
00000032 000a            340 	mov	0,r1
                         341 --185:     if (Channel == R_TAUJ_CHANNEL_0) 
00000034 e071            342 	cmp	zero,r14
00000036 ba05*           343 	bne	.L58
                         344 --186:     {
                         345 --187:         u16_channel = 0x0000;
                         346 --line187
                         347 ..lin.D.3A.5CRenesas_Electronics.5CD1x_RGL.5Crgl_ghs_D1Lx_obj_V1.2E2.2E0.5Cvlib.5Capp.5Cgfx_apps.5Csimple_draw_d1l2.5Ctarget.5Cd1lx_mango_ghs.5Cobj.5Cr_tauj_main.4::
                         348 .LDWlin4:
00000038 000a            349 	mov	0,r1
0000003a f50d*           350 	br	.L60
                         351 .L58:
                         352 --188:     } 
                         353 --189:     else if (Channel == R_TAUJ_CHANNEL_1) 
                         354 --line189
                         355 ..lin.D.3A.5CRenesas_Electronics.5CD1x_RGL.5Crgl_ghs_D1Lx_obj_V1.2E2.2E0.5Cvlib.5Capp.5Cgfx_apps.5Csimple_draw_d1l2.5Ctarget.5Cd1lx_mango_ghs.5Cobj.5Cr_tauj_main.5::

                                                                      Page 7
                                                              C:\Users\YINGAO~1\AppData\Local\Temp\gh_00008g01.si
                         356 .LDWlin5:
0000003c 6172            357 	cmp	1,r14
0000003e ba05*           358 	bne	.L61
                         359 --190:     {
                         360 --191:         u16_channel = 0x0001;
                         361 --line191
                         362 ..lin.D.3A.5CRenesas_Electronics.5CD1x_RGL.5Crgl_ghs_D1Lx_obj_V1.2E2.2E0.5Cvlib.5Capp.5Cgfx_apps.5Csimple_draw_d1l2.5Ctarget.5Cd1lx_mango_ghs.5Cobj.5Cr_tauj_main.6::
                         363 .LDWlin6:
00000040 010a            364 	mov	1,r1
00000042 b50d*           365 	br	.L60
                         366 .L61:
                         367 --192:     } 
                         368 --193:     else if ( Channel == R_TAUJ_CHANNEL_2) 
                         369 --line193
                         370 ..lin.D.3A.5CRenesas_Electronics.5CD1x_RGL.5Crgl_ghs_D1Lx_obj_V1.2E2.2E0.5Cvlib.5Capp.5Cgfx_apps.5Csimple_draw_d1l2.5Ctarget.5Cd1lx_mango_ghs.5Cobj.5Cr_tauj_main.7::
                         371 .LDWlin7:
00000044 6272            372 	cmp	2,r14
00000046 ba05*           373 	bne	.L64
                         374 --194:     {
                         375 --195:         u16_channel = 0x0002;
                         376 --line195
                         377 ..lin.D.3A.5CRenesas_Electronics.5CD1x_RGL.5Crgl_ghs_D1Lx_obj_V1.2E2.2E0.5Cvlib.5Capp.5Cgfx_apps.5Csimple_draw_d1l2.5Ctarget.5Cd1lx_mango_ghs.5Cobj.5Cr_tauj_main.8::
                         378 .LDWlin8:
00000048 020a            379 	mov	2,r1
0000004a f505*           380 	br	.L60
                         381 .L64:
                         382 --196:     } 
                         383 --197:     else if ( Channel == R_TAUJ_CHANNEL_3) 
                         384 --line197
                         385 ..lin.D.3A.5CRenesas_Electronics.5CD1x_RGL.5Crgl_ghs_D1Lx_obj_V1.2E2.2E0.5Cvlib.5Capp.5Cgfx_apps.5Csimple_draw_d1l2.5Ctarget.5Cd1lx_mango_ghs.5Cobj.5Cr_tauj_main.9::
                         386 .LDWlin9:
0000004c 6372            387 	cmp	3,r14
0000004e ba05*           388 	bne	.L67
                         389 --198:     {
                         390 --199:         u16_channel = 0x0003;
                         391 --line199
                         392 ..lin.D.3A.5CRenesas_Electronics.5CD1x_RGL.5Crgl_ghs_D1Lx_obj_V1.2E2.2E0.5Cvlib.5Capp.5Cgfx_apps.5Csimple_draw_d1l2.5Ctarget.5Cd1lx_mango_ghs.5Cobj.5Cr_tauj_main.10::
                         393 .LDWlin10:
00000050 030a            394 	mov	3,r1
00000052 b505*           395 	br	.L60
                         396 .L67:
                         397 --200:     } 
                         398 --201:     else 
                         399 --202:     {
                         400 --203:         /* error */
                         401 --204:         u16_channel = 0xFFFF;
                         402 --line204
                         403 ..lin.D.3A.5CRenesas_Electronics.5CD1x_RGL.5Crgl_ghs_D1Lx_obj_V1.2E2.2E0.5Cvlib.5Capp.5Cgfx_apps.5Csimple_draw_d1l2.5Ctarget.5Cd1lx_mango_ghs.5Cobj.5Cr_tauj_main.11::
                         404 .LDWlin11:
00000054 800effff        405 	ori	65535,zero,r1
                         406 .L60:
                         407 --205:     }
                         408 --207:     return u16_channel;
00000058 0150            409 	mov	r1,r10
                         410 --	    .ef
                         411 .LDW41:
0000005a 7f00            412 	jmp	[lp]
                         413 	.type	_loc_GetChannelID,@function
                         414 	.size	_loc_GetChannelID,.-_loc_GetChannelID
                         415 	.type	_loc_GetChannelID..D.3A.5CRenesas_Electronics.5CD1x_RGL.5Crgl_ghs_D1Lx_obj_V1.2E2.2E0.5Cvlib.5Capp.5Cgfx_apps.5Csimple_draw_d1l2.5Ctarget.5Cd1lx_mango_ghs.5Cobj.5Cr_tauj_main.,@function
                         416 	.size	_loc_GetChannelID..D.3A.5CRenesas_Electronics.5CD1x_RGL.5Crgl_ghs_D1Lx_obj_V1.2E2.2E0.5Cvlib.5Capp.5Cgfx_apps.5Csimple_draw_d1l2.5Ctarget.5Cd1lx_mango_ghs.5Cobj.5Cr_tauj_main.,.-_loc_GetChannelID..D.3A.5CRenesas_Electronics.5CD1x_RGL.5Crgl_ghs_D1Lx_obj_V1.2E2.2E0.5Cvlib.5Capp.5Cgfx_apps.5Csimple_draw_d1l2.5Ctarget.5Cd1lx_mango_ghs.5Cobj.5Cr_tauj_main.

                                                                      Page 8
                                                              C:\Users\YINGAO~1\AppData\Local\Temp\gh_00008g01.si
                         417 	.align	2
                         418 .LDW51:
                         419 --_u16_channel	r1	local
                         420 
                         421 --_Channel	r14	param
                         422 
                         423 	.section ".bss","awb"
                         424 .L108:
                         425 	.type	.L108,@object
                         426 	.size	.L108,0
                         427 	.data
                         428 	.text
                         429 
                         430 --208: }
                         431 
                         432 --211: /***********************************************************
                         433 --212:   Function: loc_GetChannelAddress
                         434 --214:   converts the channel to an offset address and assumes registers
                         435 --215:   are spaced by an equal offset of 4 bytes
                         436 --217:   Parameters:
                         437 --218:   Channel        - TAUJ channel number <r_tauj_Channel_t>
                         438 --220:    Returns:
                         439 --221:   ChannelAddress - Address offset of four added to each channel
                         440 --223: */
                         441 --225: static uint32_t loc_GetChannelAddress(r_tauj_Channel_t Channel) 
                         442 	.align	2
                         443 	.align	2
                         444 	.global	_loc_GetChannelAddress..D.3A.5CRenesas_Electronics.5CD1x_RGL.5Crgl_ghs_D1Lx_obj_V1.2E2.2E0.5Cvlib.5Capp.5Cgfx_apps.5Csimple_draw_d1l2.5Ctarget.5Cd1lx_mango_ghs.5Cobj.5Cr_tauj_main.
                         445 _loc_GetChannelAddress..D.3A.5CRenesas_Electronics.5CD1x_RGL.5Crgl_ghs_D1Lx_obj_V1.2E2.2E0.5Cvlib.5Capp.5Cgfx_apps.5Csimple_draw_d1l2.5Ctarget.5Cd1lx_mango_ghs.5Cobj.5Cr_tauj_main.:
                         446 _loc_GetChannelAddress:
0000005c 0670            447 	mov	r6,r14
                         448 --	    .bf
                         449 .LDW61:
                         450 --226: {
                         451 --227:     uint32_t ChannelAddress = 0;
0000005e 000a            452 	mov	0,r1
                         453 --229:     if (Channel == R_TAUJ_CHANNEL_0) 
00000060 e071            454 	cmp	zero,r14
00000062 ba05*           455 	bne	.L152
                         456 --230:     {
                         457 --231:         ChannelAddress = 0;
                         458 --line231
                         459 ..lin.D.3A.5CRenesas_Electronics.5CD1x_RGL.5Crgl_ghs_D1Lx_obj_V1.2E2.2E0.5Cvlib.5Capp.5Cgfx_apps.5Csimple_draw_d1l2.5Ctarget.5Cd1lx_mango_ghs.5Cobj.5Cr_tauj_main.12::
                         460 .LDWlin12:
00000064 000a            461 	mov	0,r1
00000066 e50d*           462 	br	.L154
                         463 .L152:
                         464 --232:     } 
                         465 --233:     else if ( Channel == R_TAUJ_CHANNEL_1) 
                         466 --line233
                         467 ..lin.D.3A.5CRenesas_Electronics.5CD1x_RGL.5Crgl_ghs_D1Lx_obj_V1.2E2.2E0.5Cvlib.5Capp.5Cgfx_apps.5Csimple_draw_d1l2.5Ctarget.5Cd1lx_mango_ghs.5Cobj.5Cr_tauj_main.13::
                         468 .LDWlin13:
00000068 6172            469 	cmp	1,r14
0000006a ba05*           470 	bne	.L155
                         471 --234:     {
                         472 --235:         ChannelAddress = 1 * 4;
                         473 --line235
                         474 ..lin.D.3A.5CRenesas_Electronics.5CD1x_RGL.5Crgl_ghs_D1Lx_obj_V1.2E2.2E0.5Cvlib.5Capp.5Cgfx_apps.5Csimple_draw_d1l2.5Ctarget.5Cd1lx_mango_ghs.5Cobj.5Cr_tauj_main.14::
                         475 .LDWlin14:
0000006c 040a            476 	mov	4,r1
0000006e a50d*           477 	br	.L154

                                                                      Page 9
                                                              C:\Users\YINGAO~1\AppData\Local\Temp\gh_00008g01.si
                         478 .L155:
                         479 --236:     } 
                         480 --237:     else if ( Channel == R_TAUJ_CHANNEL_2) 
                         481 --line237
                         482 ..lin.D.3A.5CRenesas_Electronics.5CD1x_RGL.5Crgl_ghs_D1Lx_obj_V1.2E2.2E0.5Cvlib.5Capp.5Cgfx_apps.5Csimple_draw_d1l2.5Ctarget.5Cd1lx_mango_ghs.5Cobj.5Cr_tauj_main.15::
                         483 .LDWlin15:
00000070 6272            484 	cmp	2,r14
00000072 ba05*           485 	bne	.L158
                         486 --238:     {
                         487 --239:         ChannelAddress = 2 * 4;
                         488 --line239
                         489 ..lin.D.3A.5CRenesas_Electronics.5CD1x_RGL.5Crgl_ghs_D1Lx_obj_V1.2E2.2E0.5Cvlib.5Capp.5Cgfx_apps.5Csimple_draw_d1l2.5Ctarget.5Cd1lx_mango_ghs.5Cobj.5Cr_tauj_main.16::
                         490 .LDWlin16:
00000074 080a            491 	mov	8,r1
00000076 e505*           492 	br	.L154
                         493 .L158:
                         494 --240:     } 
                         495 --241:     else if ( Channel == R_TAUJ_CHANNEL_3) 
                         496 --line241
                         497 ..lin.D.3A.5CRenesas_Electronics.5CD1x_RGL.5Crgl_ghs_D1Lx_obj_V1.2E2.2E0.5Cvlib.5Capp.5Cgfx_apps.5Csimple_draw_d1l2.5Ctarget.5Cd1lx_mango_ghs.5Cobj.5Cr_tauj_main.17::
                         498 .LDWlin17:
00000078 6372            499 	cmp	3,r14
0000007a ba05*           500 	bne	.L161
                         501 --242:     {
                         502 --243:         ChannelAddress = 3 * 4;
                         503 --line243
                         504 ..lin.D.3A.5CRenesas_Electronics.5CD1x_RGL.5Crgl_ghs_D1Lx_obj_V1.2E2.2E0.5Cvlib.5Capp.5Cgfx_apps.5Csimple_draw_d1l2.5Ctarget.5Cd1lx_mango_ghs.5Cobj.5Cr_tauj_main.18::
                         505 .LDWlin18:
0000007c 0c0a            506 	mov	12,r1
0000007e a505*           507 	br	.L154
                         508 .L161:
                         509 --244:     } 
                         510 --245:     else 
                         511 --246:     {
                         512 --247:         /* error */
                         513 --248:         ChannelAddress = 0xFFFFFFFFu;
                         514 --line248
                         515 ..lin.D.3A.5CRenesas_Electronics.5CD1x_RGL.5Crgl_ghs_D1Lx_obj_V1.2E2.2E0.5Cvlib.5Capp.5Cgfx_apps.5Csimple_draw_d1l2.5Ctarget.5Cd1lx_mango_ghs.5Cobj.5Cr_tauj_main.19::
                         516 .LDWlin19:
00000080 1f0a            517 	mov	-1,r1
                         518 .L154:
                         519 --249:     }
                         520 --251:     return ChannelAddress;
00000082 0150            521 	mov	r1,r10
                         522 --	    .ef
                         523 .LDW71:
00000084 7f00            524 	jmp	[lp]
                         525 	.type	_loc_GetChannelAddress,@function
                         526 	.size	_loc_GetChannelAddress,.-_loc_GetChannelAddress
                         527 	.type	_loc_GetChannelAddress..D.3A.5CRenesas_Electronics.5CD1x_RGL.5Crgl_ghs_D1Lx_obj_V1.2E2.2E0.5Cvlib.5Capp.5Cgfx_apps.5Csimple_draw_d1l2.5Ctarget.5Cd1lx_mango_ghs.5Cobj.5Cr_tauj_main.,@function
                         528 	.size	_loc_GetChannelAddress..D.3A.5CRenesas_Electronics.5CD1x_RGL.5Crgl_ghs_D1Lx_obj_V1.2E2.2E0.5Cvlib.5Capp.5Cgfx_apps.5Csimple_draw_d1l2.5Ctarget.5Cd1lx_mango_ghs.5Cobj.5Cr_tauj_main.,.-_loc_GetChannelAddress..D.3A.5CRenesas_Electronics.5CD1x_RGL.5Crgl_ghs_D1Lx_obj_V1.2E2.2E0.5Cvlib.5Capp.5Cgfx_apps.5Csimple_draw_d1l2.5Ctarget.5Cd1lx_mango_ghs.5Cobj.5Cr_tauj_main.
                         529 	.align	2
                         530 .LDW81:
                         531 --_ChannelAddress	r1	local
                         532 
                         533 --_Channel	r14	param
                         534 
                         535 	.section ".bss","awb"
                         536 .L204:
                         537 	.type	.L204,@object
                         538 	.size	.L204,0

                                                                      Page 10
                                                              C:\Users\YINGAO~1\AppData\Local\Temp\gh_00008g01.si
                         539 	.data
                         540 	.text
                         541 
                         542 --252: }
                         543 
                         544 --254: #ifndef R_TAUJ_LIMIT_INIT 
                         545 --255: /***********************************************************
                         546 --256:   Function: loc_InitRegs
                         547 --258:   Updates all the writeable registers in the TAUJ with their default
                         548 --259:   reset values
                         549 --261:   Parameters:
                         550 --262:   Channel        - TAUJ channel number <r_tauj_Channel_t>
                         551 --264:    Returns:
                         552 --265:    none
                         553 --267: */
                         554 --268: static void loc_InitRegs(uint32_t Unit) 
                         555 	.align	2
                         556 	.align	2
                         557 	.global	_loc_InitRegs..D.3A.5CRenesas_Electronics.5CD1x_RGL.5Crgl_ghs_D1Lx_obj_V1.2E2.2E0.5Cvlib.5Capp.5Cgfx_apps.5Csimple_draw_d1l2.5Ctarget.5Cd1lx_mango_ghs.5Cobj.5Cr_tauj_main.
                         558 _loc_InitRegs..D.3A.5CRenesas_Electronics.5CD1x_RGL.5Crgl_ghs_D1Lx_obj_V1.2E2.2E0.5Cvlib.5Capp.5Cgfx_apps.5Csimple_draw_d1l2.5Ctarget.5Cd1lx_mango_ghs.5Cobj.5Cr_tauj_main.:
                         559 _loc_InitRegs:
00000086 8007e130        560 	prepare	{r26,r27,r28,r29,r31},0
0000008a 06d0            561 	mov	r6,r26
                         562 --	    .bf
                         563 .LDW91:
                         564 --269: {
                         565 --270:     uint32_t i              = 0;
0000008c 00da            566 	mov	0,r27
                         567 --271:     uint32_t base_address   = 0;
0000008e 00ea            568 	mov	0,r29
                         569 --272:     uint32_t offset_address = 0;
00000090 00e2            570 	mov	0,r28
                         571 --274:     base_address = R_TAUJ_Dev[Unit].BaseAddr;
00000092 1af0            572 	mov	r26,ep
00000094 fe00            573 	sxh	ep
00000096 fef61400        574 	mulhi	20,ep,ep
0000009a 2e0600000000*   575 	mov	_R_TAUJ_Dev,r14
000000a0 cef1            576 	add	r14,ep
000000a2 00ed            577 	sld.w	0[ep],r29
                         578 --276:     /* channels should be stopped first */
                         579 --277:     /* update the TT Channel Stop Trigger Register */
                         580 --278:     R_TAUJ_WRITE16(base_address + R_TAUJ0_TT, 0xFFFF);
000000a4 800effff        581 	ori	65535,zero,r1
000000a8 7d0f5800        582 	st.h	r1,88[r29]
                         583 --280:     /* update the TOE Channel Output Enable Register*/
                         584 --281:     R_TAUJ_WRITE16(base_address + R_TAUJ0_TOE, 0);
000000ac 7d076000        585 	st.h	zero,96[r29]
                         586 --283:     for(i = 0; i < R_TAUJ_NUM_CHANNELS; i++) 
000000b0 00da            587 	mov	0,r27
000000b2 0000            588 	nop
                         589 .L250:
                         590 --284:     {
                         591 --285:         /* update the CMOR Channel Mode OS Register */
                         592 --286:         offset_address = R_TAUJ0_CMOR0 + loc_GetChannelAddress((r_tauj_Channel_t) i);
000000b4 1b30            593 	mov	r27,r6
                         594 	jarl	_loc_GetChannelAddress,lp
                         594 <EXPANSION BEGIN>
                         594 jarl22 _loc_GetChannelAddress , lp 
000000b6 bfffa6ff*       594 <EXPANSION END>
000000ba 0ae68000        595 	addi	128,r10,r28
                         596 --287:         R_TAUJ_WRITE16(base_address + offset_address, 0);

                                                                      Page 11
                                                              C:\Users\YINGAO~1\AppData\Local\Temp\gh_00008g01.si
                         597 --line287
                         598 ..lin.D.3A.5CRenesas_Electronics.5CD1x_RGL.5Crgl_ghs_D1Lx_obj_V1.2E2.2E0.5Cvlib.5Capp.5Cgfx_apps.5Csimple_draw_d1l2.5Ctarget.5Cd1lx_mango_ghs.5Cobj.5Cr_tauj_main.20::
                         599 .LDWlin20:
000000be 1cf0            600 	mov	r28,ep
000000c0 ddf1            601 	add	r29,ep
000000c2 8004            602 	sst.h	zero,0[ep]
                         603 --289:         /* update the CDR Channel Data Register */
                         604 --290:         offset_address = R_TAUJ0_CDR0 + loc_GetChannelAddress((r_tauj_Channel_t) i);
000000c4 1b30            605 	mov	r27,r6
                         606 	jarl	_loc_GetChannelAddress,lp
                         606 <EXPANSION BEGIN>
                         606 jarl22 _loc_GetChannelAddress , lp 
000000c6 bfff96ff*       606 <EXPANSION END>
000000ca 0ae0            607 	mov	r10,r28
                         608 --291:         R_TAUJ_WRITE32(base_address + offset_address, 0);
                         609 --line291
                         610 ..lin.D.3A.5CRenesas_Electronics.5CD1x_RGL.5Crgl_ghs_D1Lx_obj_V1.2E2.2E0.5Cvlib.5Capp.5Cgfx_apps.5Csimple_draw_d1l2.5Ctarget.5Cd1lx_mango_ghs.5Cobj.5Cr_tauj_main.21::
                         611 .LDWlin21:
000000cc 1cf0            612 	mov	r28,ep
000000ce ddf1            613 	add	r29,ep
000000d0 0105            614 	sst.w	zero,0[ep]
                         615 --293:         /* update the CMUR TAU Channel Mode User Register */
                         616 --294:         offset_address = R_TAUJ0_CMUR0 + loc_GetChannelAddress((r_tauj_Channel_t) i);
000000d2 1b30            617 	mov	r27,r6
                         618 	jarl	_loc_GetChannelAddress,lp
                         618 <EXPANSION BEGIN>
                         618 jarl22 _loc_GetChannelAddress , lp 
000000d4 bfff88ff*       618 <EXPANSION END>
000000d8 0ae62000        619 	addi	32,r10,r28
                         620 --295:         R_TAUJ_WRITE16(base_address + offset_address, 0);
                         621 --line295
                         622 ..lin.D.3A.5CRenesas_Electronics.5CD1x_RGL.5Crgl_ghs_D1Lx_obj_V1.2E2.2E0.5Cvlib.5Capp.5Cgfx_apps.5Csimple_draw_d1l2.5Ctarget.5Cd1lx_mango_ghs.5Cobj.5Cr_tauj_main.22::
                         623 .LDWlin22:
000000dc 1cf0            624 	mov	r28,ep
000000de ddf1            625 	add	r29,ep
000000e0 8004            626 	sst.h	zero,0[ep]
                         627 --297:         /* update the CSC Channel Status Clear Register*/
                         628 --298:         offset_address = R_TAUJ0_CSC0 + loc_GetChannelAddress((r_tauj_Channel_t) i);
000000e2 1b30            629 	mov	r27,r6
                         630 	jarl	_loc_GetChannelAddress,lp
                         630 <EXPANSION BEGIN>
                         630 jarl22 _loc_GetChannelAddress , lp 
000000e4 bfff78ff*       630 <EXPANSION END>
000000e8 0ae64000        631 	addi	64,r10,r28
                         632 --299:         R_TAUJ_WRITE16(base_address + offset_address, 1);
                         633 --line299
                         634 ..lin.D.3A.5CRenesas_Electronics.5CD1x_RGL.5Crgl_ghs_D1Lx_obj_V1.2E2.2E0.5Cvlib.5Capp.5Cgfx_apps.5Csimple_draw_d1l2.5Ctarget.5Cd1lx_mango_ghs.5Cobj.5Cr_tauj_main.23::
                         635 .LDWlin23:
000000ec 1cf0            636 	mov	r28,ep
000000ee ddf1            637 	add	r29,ep
000000f0 010a            638 	mov	1,r1
000000f2 800c            639 	sst.h	r1,0[ep]
000000f4 41da            640 	add	1,r27
000000f6 64da            641 	cmp	4,r27
000000f8 e1dd*           642 	bl	.L250
                         643 --300:     }
                         644 --302:     /* update the TPS Prescaler Clock Select Register */
                         645 --303:     R_TAUJ_WRITE16(base_address + R_TAUJ0_TPS, 0xFFFF);
                         646 --line303
                         647 ..lin.D.3A.5CRenesas_Electronics.5CD1x_RGL.5Crgl_ghs_D1Lx_obj_V1.2E2.2E0.5Cvlib.5Capp.5Cgfx_apps.5Csimple_draw_d1l2.5Ctarget.5Cd1lx_mango_ghs.5Cobj.5Cr_tauj_main.24::
                         648 .LDWlin24:

                                                                      Page 12
                                                              C:\Users\YINGAO~1\AppData\Local\Temp\gh_00008g01.si
000000fa 800effff        649 	ori	65535,zero,r1
000000fe 7d0f9000        650 	st.h	r1,144[r29]
                         651 --305:     /* update the BRS Prescaler Baud Rate Setting Register */
                         652 --306:     R_TAUJ_WRITE16(base_address + R_TAUJ0_BRS, 0x00FF);
00000102 200eff00        653 	movea	255,zero,r1
00000106 7d0f9400        654 	st.h	r1,148[r29]
                         655 --308:     /* update the TO Channel Output Register */
                         656 --309:     R_TAUJ_WRITE16(base_address + R_TAUJ0_TO, 0);
0000010a 7d075c00        657 	st.h	zero,92[r29]
                         658 --311:     /* update the RDE Channel Reload Data Enable Register */
                         659 --312:     R_TAUJ_WRITE16(base_address + R_TAUJ0_RDE, 0);
0000010e 7d07a000        660 	st.h	zero,160[r29]
                         661 --314:     /* update the RDM Channel Reload Data Mode Register */
                         662 --315:     R_TAUJ_WRITE16(base_address + R_TAUJ0_RDM, 0);
00000112 7d07a400        663 	st.h	zero,164[r29]
                         664 --317:     /* update the RDT CChannel Reload Data Trigger Register */
                         665 --318:     R_TAUJ_WRITE16(base_address + R_TAUJ0_RDT, 0);
00000116 7d076800        666 	st.h	zero,104[r29]
                         667 --320:     /* update the TS Channel Start Trigger Register */
                         668 --321:     R_TAUJ_WRITE16(base_address + R_TAUJ0_TS, 0);
0000011a 7d075400        669 	st.h	zero,84[r29]
                         670 --323:     /* update the TOM Channel Output Mode Register */
                         671 --324:     R_TAUJ_WRITE16(base_address + R_TAUJ0_TOM, 0);
0000011e 7d079800        672 	st.h	zero,152[r29]
                         673 --326:     /* update the TOC Channel Output Configuration Register */
                         674 --327:     R_TAUJ_WRITE16(base_address + R_TAUJ0_TOC, 0);
00000122 7d079c00        675 	st.h	zero,156[r29]
                         676 --329:     /* update the TOL Channel Output Level Register */
                         677 --330:     R_TAUJ_WRITE16(base_address + R_TAUJ0_TOL, 0);
00000126 7d076400        678 	st.h	zero,100[r29]
                         679 --332:     /* update the EMU Register */
                         680 --333:     R_TAUJ_WRITE16(base_address + R_TAUJ0_EMU, LOC_SVSTOP);
0000012a 7d07a800        681 	st.h	zero,168[r29]
                         682 --334: }
0000012e 0000            683 	nop
                         684 --	    .ef
                         685 .LDW02:
00000130 4006ff30        686 	dispose	0,{r26,r27,r28,r29,r31},[lp]
                         687 	.type	_loc_InitRegs,@function
                         688 	.size	_loc_InitRegs,.-_loc_InitRegs
                         689 	.type	_loc_InitRegs..D.3A.5CRenesas_Electronics.5CD1x_RGL.5Crgl_ghs_D1Lx_obj_V1.2E2.2E0.5Cvlib.5Capp.5Cgfx_apps.5Csimple_draw_d1l2.5Ctarget.5Cd1lx_mango_ghs.5Cobj.5Cr_tauj_main.,@function
                         690 	.size	_loc_InitRegs..D.3A.5CRenesas_Electronics.5CD1x_RGL.5Crgl_ghs_D1Lx_obj_V1.2E2.2E0.5Cvlib.5Capp.5Cgfx_apps.5Csimple_draw_d1l2.5Ctarget.5Cd1lx_mango_ghs.5Cobj.5Cr_tauj_main.,.-_loc_InitRegs..D.3A.5CRenesas_Electronics.5CD1x_RGL.5Crgl_ghs_D1Lx_obj_V1.2E2.2E0.5Cvlib.5Capp.5Cgfx_apps.5Csimple_draw_d1l2.5Ctarget.5Cd1lx_mango_ghs.5Cobj.5Cr_tauj_main.
                         691 	.align	2
                         692 .LDW12:
                         693 --_i	r27	local
                         694 --_base_address	r29	local
                         695 --_offset_address	r28	local
                         696 
                         697 --_Unit	r26	param
                         698 
                         699 	.section ".bss","awb"
                         700 .L322:
                         701 	.type	.L322,@object
                         702 	.size	.L322,0
                         703 	.data
                         704 	.text
                         705 
                         706 
                         707 --335: #endif
                         708 --337: /***********************************************************
                         709 --338:   Section: Global API Functions

                                                                      Page 13
                                                              C:\Users\YINGAO~1\AppData\Local\Temp\gh_00008g01.si
                         710 --339: */
                         711 --341: /***********************************************************
                         712 --342:   Function: R_TAUJ_Init
                         713 --343: */
                         714 --345: r_tauj_Error_t R_TAUJ_Init(uint32_t Unit) 
                         715 	.align	2
                         716 	.align	2
                         717 	.global	_R_TAUJ_Init
                         718 _R_TAUJ_Init:
00000134 8007e130        719 	prepare	{r26,r27,r28,r29,r31},0
00000138 06e8            720 	mov	r6,r29
0000013a 3c0600000000*   721 	mov	_R_TAUJ_Dev,r28
                         722 --	    .bf
                         723 .LDW22:
                         724 --346: {
                         725 --347:     r_tauj_Error_t error_mode = R_TAUJ_ERR_OK;
00000140 00da            726 	mov	0,r27
                         727 --349:     /* check the instance is allowed */
                         728 --350:     if ( Unit > (R_TAUJ_MACRO_NUM - 1)) 
00000142 e0e9            729 	cmp	zero,r29
00000144 b305*           730 	bnh	.L423
                         731 --351:     {
                         732 --352:         /* instance too high */
                         733 --353:         error_mode = R_TAUJ_ERR_INSTANCE;
                         734 --line353
                         735 ..lin.D.3A.5CRenesas_Electronics.5CD1x_RGL.5Crgl_ghs_D1Lx_obj_V1.2E2.2E0.5Cvlib.5Capp.5Cgfx_apps.5Csimple_draw_d1l2.5Ctarget.5Cd1lx_mango_ghs.5Cobj.5Cr_tauj_main.25::
                         736 .LDWlin25:
00000146 03da            737 	mov	3,r27
00000148 952d*           738 	br	.L425
                         739 .L423:
                         740 --354:     } 
                         741 --355:     else 
                         742 --356:     {
                         743 --357:         /* update the BaseAddr */
                         744 --358:         R_TAUJ_Dev[Unit].BaseAddr = R_TAUJ_Sys_GetBaseAddr(Unit);
                         745 --line358
                         746 ..lin.D.3A.5CRenesas_Electronics.5CD1x_RGL.5Crgl_ghs_D1Lx_obj_V1.2E2.2E0.5Cvlib.5Capp.5Cgfx_apps.5Csimple_draw_d1l2.5Ctarget.5Cd1lx_mango_ghs.5Cobj.5Cr_tauj_main.26::
                         747 .LDWlin26:
0000014a 1dd0            748 	mov	r29,r26
0000014c fa00            749 	sxh	r26
0000014e fad61400        750 	mulhi	20,r26,r26
00000152 1d30            751 	mov	r29,r6
00000154 dcd1            752 	add	r28,r26
                         753 	jarl	_R_TAUJ_Sys_GetBaseAddr,lp
                         753 <EXPANSION BEGIN>
                         753 jarl22 _R_TAUJ_Sys_GetBaseAddr , lp 
00000156 80ff0000*       753 <EXPANSION END>
0000015a 7a570100        754 	st.w	r10,0[r26]
                         755 --359: #ifndef TAUJ_LIMIT_INIT 
                         756 --360:         loc_InitRegs(Unit);
                         757 --line360
                         758 ..lin.D.3A.5CRenesas_Electronics.5CD1x_RGL.5Crgl_ghs_D1Lx_obj_V1.2E2.2E0.5Cvlib.5Capp.5Cgfx_apps.5Csimple_draw_d1l2.5Ctarget.5Cd1lx_mango_ghs.5Cobj.5Cr_tauj_main.27::
                         759 .LDWlin27:
0000015e 1d30            760 	mov	r29,r6
                         761 	jarl	_loc_InitRegs,lp
                         761 <EXPANSION BEGIN>
                         761 jarl22 _loc_InitRegs , lp 
00000160 bfff26ff*       761 <EXPANSION END>
                         762 --361: #endif
                         763 --362:         /* Set the default callbacks for all interrupts  */
                         764 --363:         R_TAUJ_Dev[Unit].IsrCallback[R_TAUJ_INT_CH0]   = LOC_NULL;

                                                                      Page 14
                                                              C:\Users\YINGAO~1\AppData\Local\Temp\gh_00008g01.si
                         765 --line363
                         766 ..lin.D.3A.5CRenesas_Electronics.5CD1x_RGL.5Crgl_ghs_D1Lx_obj_V1.2E2.2E0.5Cvlib.5Capp.5Cgfx_apps.5Csimple_draw_d1l2.5Ctarget.5Cd1lx_mango_ghs.5Cobj.5Cr_tauj_main.28::
                         767 .LDWlin28:
00000164 1df0            768 	mov	r29,ep
00000166 fe00            769 	sxh	ep
00000168 fef61400        770 	mulhi	20,ep,ep
0000016c dcf1            771 	add	r28,ep
0000016e 0305            772 	sst.w	zero,4[ep]
                         773 --364:         R_TAUJ_Dev[Unit].IsrCallback[R_TAUJ_INT_CH1]   = LOC_NULL;
00000170 1df0            774 	mov	r29,ep
00000172 fe00            775 	sxh	ep
00000174 fef61400        776 	mulhi	20,ep,ep
00000178 dcf1            777 	add	r28,ep
0000017a 0505            778 	sst.w	zero,8[ep]
                         779 --365:         R_TAUJ_Dev[Unit].IsrCallback[R_TAUJ_INT_CH2]   = LOC_NULL;
0000017c 1df0            780 	mov	r29,ep
0000017e fe00            781 	sxh	ep
00000180 fef61400        782 	mulhi	20,ep,ep
00000184 dcf1            783 	add	r28,ep
00000186 0705            784 	sst.w	zero,12[ep]
                         785 --366:         R_TAUJ_Dev[Unit].IsrCallback[R_TAUJ_INT_CH3]   = LOC_NULL;
00000188 1df0            786 	mov	r29,ep
0000018a fe00            787 	sxh	ep
0000018c fef61400        788 	mulhi	20,ep,ep
00000190 dcf1            789 	add	r28,ep
00000192 0905            790 	sst.w	zero,16[ep]
                         791 --368:         /* Setup device interrupt controller */
                         792 --369:         R_TAUJ_Sys_IntCInit(Unit);
00000194 1d30            793 	mov	r29,r6
                         794 	jarl	_R_TAUJ_Sys_IntCInit,lp
                         794 <EXPANSION BEGIN>
                         794 jarl22 _R_TAUJ_Sys_IntCInit , lp 
00000196 80ff0000*       794 <EXPANSION END>
                         795 .L425:
                         796 --370:     }
                         797 --372:     return error_mode;
                         798 --line372
                         799 ..lin.D.3A.5CRenesas_Electronics.5CD1x_RGL.5Crgl_ghs_D1Lx_obj_V1.2E2.2E0.5Cvlib.5Capp.5Cgfx_apps.5Csimple_draw_d1l2.5Ctarget.5Cd1lx_mango_ghs.5Cobj.5Cr_tauj_main.29::
                         800 .LDWlin29:
0000019a 1b50            801 	mov	r27,r10
                         802 --	    .ef
                         803 .LDW32:
0000019c 4006ff30        804 	dispose	0,{r26,r27,r28,r29,r31},[lp]
                         805 	.type	_R_TAUJ_Init,@function
                         806 	.size	_R_TAUJ_Init,.-_R_TAUJ_Init
                         807 	.align	2
                         808 .LDW42:
                         809 --_error_mode	r27	local
                         810 
                         811 --_Unit	r29	param
                         812 
                         813 	.section ".bss","awb"
                         814 .L460:
                         815 	.type	.L460,@object
                         816 	.size	.L460,0
                         817 	.data
                         818 	.text
                         819 
                         820 --373: }
                         821 
                         822 --376: /***********************************************************

                                                                      Page 15
                                                              C:\Users\YINGAO~1\AppData\Local\Temp\gh_00008g01.si
                         823 --377:   Function: R_TAUJ_InitChannel
                         824 --378: */
                         825 --380: r_tauj_Error_t R_TAUJ_InitChannel(uint32_t Unit, r_tauj_Channel_t Channel) 
                         826 	.align	2
                         827 	.align	2
                         828 	.global	_R_TAUJ_InitChannel
                         829 _R_TAUJ_InitChannel:
000001a0 8407e170        830 	prepare	{r25,r26,r27,r28,r29,r31},2
000001a4 63370500        831 	st.w	r6,4[sp]
000001a8 07d8            832 	mov	r7,r27
                         833 --	    .bf
                         834 .LDW52:
                         835 --381: {
                         836 --382:     r_tauj_Error_t  error_mode      = R_TAUJ_ERR_OK;
000001aa 00ca            837 	mov	0,r25
                         838 --383:     uint16_t        ichannel        = 0;
000001ac 63070200        839 	st.h	zero,2[sp]
000001b0 005a            840 	mov	0,r11
                         841 --384:     uint16_t        u16_temp        = 0;
000001b2 00ea            842 	mov	0,r29
                         843 --385:     uint32_t        base_address    = 0;
000001b4 00e2            844 	mov	0,r28
                         845 --386:     uint32_t        offset_address  = 0;
000001b6 00d2            846 	mov	0,r26
                         847 --388:     /* check the instance is allowed */
                         848 --389:     if (Unit > (R_TAUJ_MACRO_NUM - 1)) 
000001b8 235f0500        849 	ld.w	4[sp],r11
000001bc e059            850 	cmp	zero,r11
000001be c305*           851 	bnh	.L504
                         852 --390:     {
                         853 --391:         /* instance too high */
                         854 --392:         error_mode = R_TAUJ_ERR_INSTANCE;
                         855 --line392
                         856 ..lin.D.3A.5CRenesas_Electronics.5CD1x_RGL.5Crgl_ghs_D1Lx_obj_V1.2E2.2E0.5Cvlib.5Capp.5Cgfx_apps.5Csimple_draw_d1l2.5Ctarget.5Cd1lx_mango_ghs.5Cobj.5Cr_tauj_main.30::
                         857 .LDWlin30:
000001c0 03ca            858 	mov	3,r25
000001c2 80076001*       859 	br	.L506
                         860 .L504:
                         861 --393:     } 
                         862 --394:     else 
                         863 --395:     {
                         864 --396:         ichannel = loc_GetChannelID(Channel);
                         865 --line396
                         866 ..lin.D.3A.5CRenesas_Electronics.5CD1x_RGL.5Crgl_ghs_D1Lx_obj_V1.2E2.2E0.5Cvlib.5Capp.5Cgfx_apps.5Csimple_draw_d1l2.5Ctarget.5Cd1lx_mango_ghs.5Cobj.5Cr_tauj_main.31::
                         867 .LDWlin31:
000001c6 1b30            868 	mov	r27,r6
                         869 	jarl	_loc_GetChannelID,lp
                         869 <EXPANSION BEGIN>
                         869 jarl22 _loc_GetChannelID , lp 
000001c8 bfff68fe*       869 <EXPANSION END>
000001cc 63570200        870 	st.h	r10,2[sp]
                         871 --398:         /* make sure the channel number is in range */
                         872 --399:         if ( ichannel < R_TAUJ_NUM_CHANNELS) 
                         873 --line399
                         874 ..lin.D.3A.5CRenesas_Electronics.5CD1x_RGL.5Crgl_ghs_D1Lx_obj_V1.2E2.2E0.5Cvlib.5Capp.5Cgfx_apps.5Csimple_draw_d1l2.5Ctarget.5Cd1lx_mango_ghs.5Cobj.5Cr_tauj_main.32::
                         875 .LDWlin32:
000001d0 e35f0300        876 	ld.hu	2[sp],r11
000001d4 645a            877 	cmp	4,r11
000001d6 e9074b01*       878 	bnl	.L507
                         879 --400:         {
                         880 --401:             base_address = R_TAUJ_Dev[Unit].BaseAddr;

                                                                      Page 16
                                                              C:\Users\YINGAO~1\AppData\Local\Temp\gh_00008g01.si
                         881 --line401
                         882 ..lin.D.3A.5CRenesas_Electronics.5CD1x_RGL.5Crgl_ghs_D1Lx_obj_V1.2E2.2E0.5Cvlib.5Capp.5Cgfx_apps.5Csimple_draw_d1l2.5Ctarget.5Cd1lx_mango_ghs.5Cobj.5Cr_tauj_main.33::
                         883 .LDWlin33:
000001da 235f0500        884 	ld.w	4[sp],r11
000001de 2e0600000000*   885 	mov	_R_TAUJ_Dev,r14
000001e4 0bf0            886 	mov	r11,ep
000001e6 fe00            887 	sxh	ep
000001e8 fef61400        888 	mulhi	20,ep,ep
000001ec cef1            889 	add	r14,ep
000001ee 00e5            890 	sld.w	0[ep],r28
                         891 --403:             /* update the CDR */
                         892 --404:             offset_address = R_TAUJ0_CDR0 + loc_GetChannelAddress(Channel);
000001f0 1b30            893 	mov	r27,r6
                         894 	jarl	_loc_GetChannelAddress,lp
                         894 <EXPANSION BEGIN>
                         894 jarl22 _loc_GetChannelAddress , lp 
000001f2 bfff6afe*       894 <EXPANSION END>
000001f6 0ad0            895 	mov	r10,r26
                         896 --405:             R_TAUJ_WRITE32(base_address + offset_address, 0);
                         897 --line405
                         898 ..lin.D.3A.5CRenesas_Electronics.5CD1x_RGL.5Crgl_ghs_D1Lx_obj_V1.2E2.2E0.5Cvlib.5Capp.5Cgfx_apps.5Csimple_draw_d1l2.5Ctarget.5Cd1lx_mango_ghs.5Cobj.5Cr_tauj_main.34::
                         899 .LDWlin34:
000001f8 1af0            900 	mov	r26,ep
000001fa dcf1            901 	add	r28,ep
000001fc 0105            902 	sst.w	zero,0[ep]
                         903 --407:             /* update the CMOR */
                         904 --408:             offset_address = R_TAUJ0_CMOR0 + loc_GetChannelAddress(Channel);
000001fe 1b30            905 	mov	r27,r6
                         906 	jarl	_loc_GetChannelAddress,lp
                         906 <EXPANSION BEGIN>
                         906 jarl22 _loc_GetChannelAddress , lp 
00000200 bfff5cfe*       906 <EXPANSION END>
00000204 0ad68000        907 	addi	128,r10,r26
                         908 --409:             R_TAUJ_WRITE16(base_address + offset_address, 0);
                         909 --line409
                         910 ..lin.D.3A.5CRenesas_Electronics.5CD1x_RGL.5Crgl_ghs_D1Lx_obj_V1.2E2.2E0.5Cvlib.5Capp.5Cgfx_apps.5Csimple_draw_d1l2.5Ctarget.5Cd1lx_mango_ghs.5Cobj.5Cr_tauj_main.35::
                         911 .LDWlin35:
00000208 1af0            912 	mov	r26,ep
0000020a dcf1            913 	add	r28,ep
0000020c 8004            914 	sst.h	zero,0[ep]
                         915 --411:             /* update the CMUR */
                         916 --412:             offset_address = R_TAUJ0_CMUR0 + loc_GetChannelAddress(Channel);
0000020e 1b30            917 	mov	r27,r6
                         918 	jarl	_loc_GetChannelAddress,lp
                         918 <EXPANSION BEGIN>
                         918 jarl22 _loc_GetChannelAddress , lp 
00000210 bfff4cfe*       918 <EXPANSION END>
00000214 0ad62000        919 	addi	32,r10,r26
                         920 --413:             R_TAUJ_WRITE16(base_address + offset_address, 0);
                         921 --line413
                         922 ..lin.D.3A.5CRenesas_Electronics.5CD1x_RGL.5Crgl_ghs_D1Lx_obj_V1.2E2.2E0.5Cvlib.5Capp.5Cgfx_apps.5Csimple_draw_d1l2.5Ctarget.5Cd1lx_mango_ghs.5Cobj.5Cr_tauj_main.36::
                         923 .LDWlin36:
00000218 1af0            924 	mov	r26,ep
0000021a dcf1            925 	add	r28,ep
0000021c 8004            926 	sst.h	zero,0[ep]
                         927 --415:             /* update the CSC */
                         928 --416:             offset_address = R_TAUJ0_CSC0 + loc_GetChannelAddress(Channel);
0000021e 1b30            929 	mov	r27,r6
                         930 	jarl	_loc_GetChannelAddress,lp
                         930 <EXPANSION BEGIN>
                         930 jarl22 _loc_GetChannelAddress , lp 

                                                                      Page 17
                                                              C:\Users\YINGAO~1\AppData\Local\Temp\gh_00008g01.si
00000220 bfff3cfe*       930 <EXPANSION END>
00000224 0ad64000        931 	addi	64,r10,r26
                         932 --417:             R_TAUJ_WRITE16(base_address + offset_address, 0);
                         933 --line417
                         934 ..lin.D.3A.5CRenesas_Electronics.5CD1x_RGL.5Crgl_ghs_D1Lx_obj_V1.2E2.2E0.5Cvlib.5Capp.5Cgfx_apps.5Csimple_draw_d1l2.5Ctarget.5Cd1lx_mango_ghs.5Cobj.5Cr_tauj_main.37::
                         935 .LDWlin37:
00000228 1af0            936 	mov	r26,ep
0000022a dcf1            937 	add	r28,ep
0000022c 8004            938 	sst.h	zero,0[ep]
                         939 --419:             /* update the TS */
                         940 --420:             u16_temp = R_TAUJ_READ16(base_address + R_TAUJ0_TS);
0000022e fcef5500        941 	ld.hu	84[r28],r29
                         942 --421:             R_TAUJ_CLR_BIT(u16_temp, Channel);
00000232 010a            943 	mov	1,r1
00000234 fb0fc208        944 	shl	r27,r1,r1
00000238 c100            945 	zxh	r1
0000023a 2108            946 	not	r1,r1
0000023c c100            947 	zxh	r1
0000023e 41e9            948 	and	r1,r29
00000240 dd00            949 	zxh	r29
                         950 --422:             R_TAUJ_WRITE16(base_address + R_TAUJ0_TS, 0);
00000242 7c075400        951 	st.h	zero,84[r28]
                         952 --424:             /* update the TT */
                         953 --425:             u16_temp = R_TAUJ_READ16(base_address + R_TAUJ0_TT);
00000246 fcef5900        954 	ld.hu	88[r28],r29
                         955 --426:             R_TAUJ_CLR_BIT(u16_temp, Channel);
0000024a 010a            956 	mov	1,r1
0000024c fb0fc208        957 	shl	r27,r1,r1
00000250 c100            958 	zxh	r1
00000252 2108            959 	not	r1,r1
00000254 c100            960 	zxh	r1
00000256 41e9            961 	and	r1,r29
00000258 dd00            962 	zxh	r29
                         963 --427:             R_TAUJ_WRITE16(base_address + R_TAUJ0_TT, 0);
0000025a 7c075800        964 	st.h	zero,88[r28]
                         965 --429:             /* update the TO */
                         966 --430:             u16_temp = R_TAUJ_READ16(base_address + R_TAUJ0_TO);
0000025e fcef5d00        967 	ld.hu	92[r28],r29
                         968 --431:             R_TAUJ_CLR_BIT(u16_temp, Channel);
00000262 010a            969 	mov	1,r1
00000264 fb0fc208        970 	shl	r27,r1,r1
00000268 c100            971 	zxh	r1
0000026a 2108            972 	not	r1,r1
0000026c c100            973 	zxh	r1
0000026e 41e9            974 	and	r1,r29
00000270 dd00            975 	zxh	r29
                         976 --432:             R_TAUJ_WRITE16(base_address + R_TAUJ0_TO, 0);
00000272 7c075c00        977 	st.h	zero,92[r28]
                         978 --434:             /* update the TOE */
                         979 --435:             u16_temp = R_TAUJ_READ16(base_address + R_TAUJ0_TOE);
00000276 fcef6100        980 	ld.hu	96[r28],r29
                         981 --436:             R_TAUJ_CLR_BIT(u16_temp, Channel);
0000027a 010a            982 	mov	1,r1
0000027c fb0fc208        983 	shl	r27,r1,r1
00000280 c100            984 	zxh	r1
00000282 2108            985 	not	r1,r1
00000284 c100            986 	zxh	r1
00000286 41e9            987 	and	r1,r29
00000288 dd00            988 	zxh	r29
                         989 --437:             R_TAUJ_WRITE16(base_address + R_TAUJ0_TOE, 0);
0000028a 7c076000        990 	st.h	zero,96[r28]

                                                                      Page 18
                                                              C:\Users\YINGAO~1\AppData\Local\Temp\gh_00008g01.si
                         991 --439:             /* update the TOM */
                         992 --440:             u16_temp = R_TAUJ_READ16(base_address + R_TAUJ0_TOM);
0000028e fcef9900        993 	ld.hu	152[r28],r29
                         994 --441:             R_TAUJ_CLR_BIT(u16_temp, Channel);
00000292 010a            995 	mov	1,r1
00000294 fb0fc208        996 	shl	r27,r1,r1
00000298 c100            997 	zxh	r1
0000029a 2108            998 	not	r1,r1
0000029c c100            999 	zxh	r1
0000029e 41e9           1000 	and	r1,r29
000002a0 dd00           1001 	zxh	r29
                        1002 --442:             R_TAUJ_WRITE16(base_address + R_TAUJ0_TOM, 0);
000002a2 7c079800       1003 	st.h	zero,152[r28]
                        1004 --444:             /* update the TOC */
                        1005 --445:             u16_temp = R_TAUJ_READ16(base_address + R_TAUJ0_TOC);
000002a6 fcef9d00       1006 	ld.hu	156[r28],r29
                        1007 --446:             R_TAUJ_CLR_BIT(u16_temp, Channel);
000002aa 010a           1008 	mov	1,r1
000002ac fb0fc208       1009 	shl	r27,r1,r1
000002b0 c100           1010 	zxh	r1
000002b2 2108           1011 	not	r1,r1
000002b4 c100           1012 	zxh	r1
000002b6 41e9           1013 	and	r1,r29
000002b8 dd00           1014 	zxh	r29
                        1015 --447:             R_TAUJ_WRITE16(base_address + R_TAUJ0_TOC, 0);
000002ba 7c079c00       1016 	st.h	zero,156[r28]
                        1017 --449:             /* update the TOL */
                        1018 --450:             u16_temp = R_TAUJ_READ16(base_address + R_TAUJ0_TOL);
000002be fcef6500       1019 	ld.hu	100[r28],r29
                        1020 --451:             R_TAUJ_CLR_BIT(u16_temp, Channel);
000002c2 010a           1021 	mov	1,r1
000002c4 fb0fc208       1022 	shl	r27,r1,r1
000002c8 c100           1023 	zxh	r1
000002ca 2108           1024 	not	r1,r1
000002cc c100           1025 	zxh	r1
000002ce 41e9           1026 	and	r1,r29
000002d0 dd00           1027 	zxh	r29
                        1028 --452:             R_TAUJ_WRITE16(base_address + R_TAUJ0_TOL, 0);
000002d2 7c076400       1029 	st.h	zero,100[r28]
                        1030 --454:             /* update the RDE */
                        1031 --455:             u16_temp = R_TAUJ_READ16(base_address + R_TAUJ0_RDE);
000002d6 fcefa100       1032 	ld.hu	160[r28],r29
                        1033 --456:             R_TAUJ_CLR_BIT(u16_temp, Channel);
000002da 010a           1034 	mov	1,r1
000002dc fb0fc208       1035 	shl	r27,r1,r1
000002e0 c100           1036 	zxh	r1
000002e2 2108           1037 	not	r1,r1
000002e4 c100           1038 	zxh	r1
000002e6 41e9           1039 	and	r1,r29
000002e8 dd00           1040 	zxh	r29
                        1041 --457:             R_TAUJ_WRITE16(base_address + R_TAUJ0_RDE, 0);
000002ea 7c07a000       1042 	st.h	zero,160[r28]
                        1043 --459:             /* update the RDM */
                        1044 --460:             u16_temp = R_TAUJ_READ16(base_address + R_TAUJ0_RDM);
000002ee fcefa500       1045 	ld.hu	164[r28],r29
                        1046 --461:             R_TAUJ_CLR_BIT(u16_temp, Channel);
000002f2 010a           1047 	mov	1,r1
000002f4 fb0fc208       1048 	shl	r27,r1,r1
000002f8 c100           1049 	zxh	r1
000002fa 2108           1050 	not	r1,r1
000002fc c100           1051 	zxh	r1

                                                                      Page 19
                                                              C:\Users\YINGAO~1\AppData\Local\Temp\gh_00008g01.si
000002fe 41e9           1052 	and	r1,r29
00000300 dd00           1053 	zxh	r29
                        1054 --462:             R_TAUJ_WRITE16(base_address + R_TAUJ0_RDM, 0);
00000302 7c07a400       1055 	st.h	zero,164[r28]
                        1056 --464:             /* update the RDT */
                        1057 --465:             u16_temp = R_TAUJ_READ16(base_address + R_TAUJ0_RDT);
00000306 fcef6900       1058 	ld.hu	104[r28],r29
                        1059 --466:             R_TAUJ_CLR_BIT(u16_temp, Channel);
0000030a 010a           1060 	mov	1,r1
0000030c fb0fc208       1061 	shl	r27,r1,r1
00000310 c100           1062 	zxh	r1
00000312 2108           1063 	not	r1,r1
00000314 c100           1064 	zxh	r1
00000316 41e9           1065 	and	r1,r29
00000318 dd00           1066 	zxh	r29
                        1067 --467:             R_TAUJ_WRITE16(base_address + R_TAUJ0_RDT, 0);
0000031a 7c076800       1068 	st.h	zero,104[r28]
0000031e a505*          1069 	br	.L506
                        1070 .L507:
                        1071 --469:         }
                        1072 --470:         else 
                        1073 --471:         {
                        1074 --472:             /* error */
                        1075 --473:             error_mode = R_TAUJ_ERR_RANGE;
                        1076 --line473
                        1077 ..lin.D.3A.5CRenesas_Electronics.5CD1x_RGL.5Crgl_ghs_D1Lx_obj_V1.2E2.2E0.5Cvlib.5Capp.5Cgfx_apps.5Csimple_draw_d1l2.5Ctarget.5Cd1lx_mango_ghs.5Cobj.5Cr_tauj_main.38::
                        1078 .LDWlin38:
00000320 02ca           1079 	mov	2,r25
                        1080 .L506:
                        1081 --474:         }
                        1082 --475:     }
                        1083 --477:     return error_mode;
00000322 1950           1084 	mov	r25,r10
                        1085 --	    .ef
                        1086 .LDW62:
00000324 4406ff70       1087 	dispose	2,{r25,r26,r27,r28,r29,r31},[lp]
                        1088 	.type	_R_TAUJ_InitChannel,@function
                        1089 	.size	_R_TAUJ_InitChannel,.-_R_TAUJ_InitChannel
                        1090 	.align	2
                        1091 .LDW72:
                        1092 --_error_mode	r25	local
                        1093 --_ichannel	2[sp]	local
                        1094 --_u16_temp	r29	local
                        1095 --_base_address	r28	local
                        1096 --_offset_address	r26	local
                        1097 
                        1098 --_Unit	4[sp]	param
                        1099 --_Channel	r27	param
                        1100 
                        1101 	.section ".bss","awb"
                        1102 .L618:
                        1103 	.type	.L618,@object
                        1104 	.size	.L618,0
                        1105 	.data
                        1106 	.text
                        1107 
                        1108 --478: }
                        1109 
                        1110 --481: /***********************************************************
                        1111 --482:   Function: R_TAUJ_SetClockPeriod
                        1112 --483: */

                                                                      Page 20
                                                              C:\Users\YINGAO~1\AppData\Local\Temp\gh_00008g01.si
                        1113 --485: r_tauj_Error_t R_TAUJ_SetClockPeriod(
                        1114 	.align	2
                        1115 	.align	2
                        1116 	.global	_R_TAUJ_SetClockPeriod
                        1117 _R_TAUJ_SetClockPeriod:
00000328 80074100       1118 	prepare	{r29},0
0000032c 0650           1119 	mov	r6,r10
0000032e 0758           1120 	mov	r7,r11
00000330 0868           1121 	mov	r8,r13
00000332 0072           1122 	mov	0,r14
                        1123 --	    .bf
                        1124 .LDW82:
                        1125 --486:         uint32_t Unit,
                        1126 --487:         r_tauj_Clock_t Clock,
                        1127 --488:         r_tauj_TimeInterval_t TimeInterval)
                        1128 --489: {
                        1129 --490:     uint8_t ucTimeInterval = 0;
00000334 000a           1130 	mov	0,r1
                        1131 --491:     r_tauj_Error_t error_mode = R_TAUJ_ERR_OK;
00000336 0062           1132 	mov	0,r12
                        1133 --492:     uint32_t base_address = 0;
00000338 00f2           1134 	mov	0,ep
                        1135 --493:     r_tauj_RegTps_t r_tauj_RegTps;
                        1136 --495:     /* check the instance is allowed */
                        1137 --496:     if (Unit > (R_TAUJ_MACRO_NUM - 1)) 
0000033a e051           1138 	cmp	zero,r10
0000033c b305*          1139 	bnh	.L779
                        1140 --497:     {
                        1141 --498:         /* instance too high */
                        1142 --499:         error_mode = R_TAUJ_ERR_INSTANCE;
                        1143 --line499
                        1144 ..lin.D.3A.5CRenesas_Electronics.5CD1x_RGL.5Crgl_ghs_D1Lx_obj_V1.2E2.2E0.5Cvlib.5Capp.5Cgfx_apps.5Csimple_draw_d1l2.5Ctarget.5Cd1lx_mango_ghs.5Cobj.5Cr_tauj_main.39::
                        1145 .LDWlin39:
0000033e 0362           1146 	mov	3,r12
00000340 b575*          1147 	br	.L781
                        1148 .L779:
                        1149 --500:     }
                        1150 --501:     else 
                        1151 --502:     {
                        1152 --503:         /* ok, update the TPS register value */
                        1153 --504:         base_address = R_TAUJ_Dev[Unit].BaseAddr;
                        1154 --line504
                        1155 ..lin.D.3A.5CRenesas_Electronics.5CD1x_RGL.5Crgl_ghs_D1Lx_obj_V1.2E2.2E0.5Cvlib.5Capp.5Cgfx_apps.5Csimple_draw_d1l2.5Ctarget.5Cd1lx_mango_ghs.5Cobj.5Cr_tauj_main.40::
                        1156 .LDWlin40:
00000342 0a48           1157 	mov	r10,r9
00000344 e900           1158 	sxh	r9
00000346 e94e1400       1159 	mulhi	20,r9,r9
0000034a 3d0600000000*  1160 	mov	_R_TAUJ_Dev,r29
00000350 dd49           1161 	add	r29,r9
00000352 29f70100       1162 	ld.w	0[r9],ep
                        1163 --506:         /* get the current value */
                        1164 --507:         r_tauj_RegTps.Word = R_TAUJ_READ16(base_address + R_TAUJ0_TPS);
00000356 fe779100       1165 	ld.hu	144[ep],r14
                        1166 --509:         /* timer interval */
                        1167 --510:         if ( TimeInterval == R_TAUJ_TIME_INTERVAL_0) 
0000035a e069           1168 	cmp	zero,r13
0000035c ba05*          1169 	bne	.L782
                        1170 --511:         {
                        1171 --512:             ucTimeInterval = LOC_TIME_INTERVAL_0;
                        1172 --line512
                        1173 ..lin.D.3A.5CRenesas_Electronics.5CD1x_RGL.5Crgl_ghs_D1Lx_obj_V1.2E2.2E0.5Cvlib.5Capp.5Cgfx_apps.5Csimple_draw_d1l2.5Ctarget.5Cd1lx_mango_ghs.5Cobj.5Cr_tauj_main.41::

                                                                      Page 21
                                                              C:\Users\YINGAO~1\AppData\Local\Temp\gh_00008g01.si
                        1174 .LDWlin41:
0000035e 000a           1175 	mov	0,r1
00000360 e53d*          1176 	br	.L784
                        1177 .L782:
                        1178 --513:         } 
                        1179 --514:         else if ( TimeInterval == R_TAUJ_TIME_INTERVAL_1) 
                        1180 --line514
                        1181 ..lin.D.3A.5CRenesas_Electronics.5CD1x_RGL.5Crgl_ghs_D1Lx_obj_V1.2E2.2E0.5Cvlib.5Capp.5Cgfx_apps.5Csimple_draw_d1l2.5Ctarget.5Cd1lx_mango_ghs.5Cobj.5Cr_tauj_main.42::
                        1182 .LDWlin42:
00000362 616a           1183 	cmp	1,r13
00000364 ba05*          1184 	bne	.L785
                        1185 --515:         {
                        1186 --516:             ucTimeInterval = LOC_TIME_INTERVAL_1;
                        1187 --line516
                        1188 ..lin.D.3A.5CRenesas_Electronics.5CD1x_RGL.5Crgl_ghs_D1Lx_obj_V1.2E2.2E0.5Cvlib.5Capp.5Cgfx_apps.5Csimple_draw_d1l2.5Ctarget.5Cd1lx_mango_ghs.5Cobj.5Cr_tauj_main.43::
                        1189 .LDWlin43:
00000366 010a           1190 	mov	1,r1
00000368 a53d*          1191 	br	.L784
                        1192 .L785:
                        1193 --517:         } 
                        1194 --518:         else if ( TimeInterval == R_TAUJ_TIME_INTERVAL_2) 
                        1195 --line518
                        1196 ..lin.D.3A.5CRenesas_Electronics.5CD1x_RGL.5Crgl_ghs_D1Lx_obj_V1.2E2.2E0.5Cvlib.5Capp.5Cgfx_apps.5Csimple_draw_d1l2.5Ctarget.5Cd1lx_mango_ghs.5Cobj.5Cr_tauj_main.44::
                        1197 .LDWlin44:
0000036a 626a           1198 	cmp	2,r13
0000036c ba05*          1199 	bne	.L788
                        1200 --519:         {
                        1201 --520:             ucTimeInterval = LOC_TIME_INTERVAL_2;
                        1202 --line520
                        1203 ..lin.D.3A.5CRenesas_Electronics.5CD1x_RGL.5Crgl_ghs_D1Lx_obj_V1.2E2.2E0.5Cvlib.5Capp.5Cgfx_apps.5Csimple_draw_d1l2.5Ctarget.5Cd1lx_mango_ghs.5Cobj.5Cr_tauj_main.45::
                        1204 .LDWlin45:
0000036e 020a           1205 	mov	2,r1
00000370 e535*          1206 	br	.L784
                        1207 .L788:
                        1208 --521:         } 
                        1209 --522:         else if ( TimeInterval == R_TAUJ_TIME_INTERVAL_3) 
                        1210 --line522
                        1211 ..lin.D.3A.5CRenesas_Electronics.5CD1x_RGL.5Crgl_ghs_D1Lx_obj_V1.2E2.2E0.5Cvlib.5Capp.5Cgfx_apps.5Csimple_draw_d1l2.5Ctarget.5Cd1lx_mango_ghs.5Cobj.5Cr_tauj_main.46::
                        1212 .LDWlin46:
00000372 636a           1213 	cmp	3,r13
00000374 ba05*          1214 	bne	.L791
                        1215 --523:         {
                        1216 --524:             ucTimeInterval = LOC_TIME_INTERVAL_3;
                        1217 --line524
                        1218 ..lin.D.3A.5CRenesas_Electronics.5CD1x_RGL.5Crgl_ghs_D1Lx_obj_V1.2E2.2E0.5Cvlib.5Capp.5Cgfx_apps.5Csimple_draw_d1l2.5Ctarget.5Cd1lx_mango_ghs.5Cobj.5Cr_tauj_main.47::
                        1219 .LDWlin47:
00000376 030a           1220 	mov	3,r1
00000378 a535*          1221 	br	.L784
                        1222 .L791:
                        1223 --525:         } 
                        1224 --526:         else if ( TimeInterval == R_TAUJ_TIME_INTERVAL_4) 
                        1225 --line526
                        1226 ..lin.D.3A.5CRenesas_Electronics.5CD1x_RGL.5Crgl_ghs_D1Lx_obj_V1.2E2.2E0.5Cvlib.5Capp.5Cgfx_apps.5Csimple_draw_d1l2.5Ctarget.5Cd1lx_mango_ghs.5Cobj.5Cr_tauj_main.48::
                        1227 .LDWlin48:
0000037a 646a           1228 	cmp	4,r13
0000037c ba05*          1229 	bne	.L794
                        1230 --527:         {
                        1231 --528:             ucTimeInterval = LOC_TIME_INTERVAL_4;
                        1232 --line528
                        1233 ..lin.D.3A.5CRenesas_Electronics.5CD1x_RGL.5Crgl_ghs_D1Lx_obj_V1.2E2.2E0.5Cvlib.5Capp.5Cgfx_apps.5Csimple_draw_d1l2.5Ctarget.5Cd1lx_mango_ghs.5Cobj.5Cr_tauj_main.49::
                        1234 .LDWlin49:

                                                                      Page 22
                                                              C:\Users\YINGAO~1\AppData\Local\Temp\gh_00008g01.si
0000037e 040a           1235 	mov	4,r1
00000380 e52d*          1236 	br	.L784
                        1237 .L794:
                        1238 --529:         } 
                        1239 --530:         else if ( TimeInterval == R_TAUJ_TIME_INTERVAL_5) 
                        1240 --line530
                        1241 ..lin.D.3A.5CRenesas_Electronics.5CD1x_RGL.5Crgl_ghs_D1Lx_obj_V1.2E2.2E0.5Cvlib.5Capp.5Cgfx_apps.5Csimple_draw_d1l2.5Ctarget.5Cd1lx_mango_ghs.5Cobj.5Cr_tauj_main.50::
                        1242 .LDWlin50:
00000382 656a           1243 	cmp	5,r13
00000384 ba05*          1244 	bne	.L797
                        1245 --531:         {
                        1246 --532:             ucTimeInterval = LOC_TIME_INTERVAL_5;
                        1247 --line532
                        1248 ..lin.D.3A.5CRenesas_Electronics.5CD1x_RGL.5Crgl_ghs_D1Lx_obj_V1.2E2.2E0.5Cvlib.5Capp.5Cgfx_apps.5Csimple_draw_d1l2.5Ctarget.5Cd1lx_mango_ghs.5Cobj.5Cr_tauj_main.51::
                        1249 .LDWlin51:
00000386 050a           1250 	mov	5,r1
00000388 a52d*          1251 	br	.L784
                        1252 .L797:
                        1253 --533:         } 
                        1254 --534:         else if ( TimeInterval == R_TAUJ_TIME_INTERVAL_6) 
                        1255 --line534
                        1256 ..lin.D.3A.5CRenesas_Electronics.5CD1x_RGL.5Crgl_ghs_D1Lx_obj_V1.2E2.2E0.5Cvlib.5Capp.5Cgfx_apps.5Csimple_draw_d1l2.5Ctarget.5Cd1lx_mango_ghs.5Cobj.5Cr_tauj_main.52::
                        1257 .LDWlin52:
0000038a 666a           1258 	cmp	6,r13
0000038c ba05*          1259 	bne	.L800
                        1260 --535:         {
                        1261 --536:             ucTimeInterval = LOC_TIME_INTERVAL_6;
                        1262 --line536
                        1263 ..lin.D.3A.5CRenesas_Electronics.5CD1x_RGL.5Crgl_ghs_D1Lx_obj_V1.2E2.2E0.5Cvlib.5Capp.5Cgfx_apps.5Csimple_draw_d1l2.5Ctarget.5Cd1lx_mango_ghs.5Cobj.5Cr_tauj_main.53::
                        1264 .LDWlin53:
0000038e 060a           1265 	mov	6,r1
00000390 e525*          1266 	br	.L784
                        1267 .L800:
                        1268 --537:         } 
                        1269 --538:         else if ( TimeInterval == R_TAUJ_TIME_INTERVAL_7) 
                        1270 --line538
                        1271 ..lin.D.3A.5CRenesas_Electronics.5CD1x_RGL.5Crgl_ghs_D1Lx_obj_V1.2E2.2E0.5Cvlib.5Capp.5Cgfx_apps.5Csimple_draw_d1l2.5Ctarget.5Cd1lx_mango_ghs.5Cobj.5Cr_tauj_main.54::
                        1272 .LDWlin54:
00000392 676a           1273 	cmp	7,r13
00000394 ba05*          1274 	bne	.L803
                        1275 --539:         {
                        1276 --540:             ucTimeInterval = LOC_TIME_INTERVAL_7;
                        1277 --line540
                        1278 ..lin.D.3A.5CRenesas_Electronics.5CD1x_RGL.5Crgl_ghs_D1Lx_obj_V1.2E2.2E0.5Cvlib.5Capp.5Cgfx_apps.5Csimple_draw_d1l2.5Ctarget.5Cd1lx_mango_ghs.5Cobj.5Cr_tauj_main.55::
                        1279 .LDWlin55:
00000396 070a           1280 	mov	7,r1
00000398 a525*          1281 	br	.L784
                        1282 .L803:
                        1283 --541:         } 
                        1284 --542:         else if ( TimeInterval == R_TAUJ_TIME_INTERVAL_8) 
                        1285 --line542
                        1286 ..lin.D.3A.5CRenesas_Electronics.5CD1x_RGL.5Crgl_ghs_D1Lx_obj_V1.2E2.2E0.5Cvlib.5Capp.5Cgfx_apps.5Csimple_draw_d1l2.5Ctarget.5Cd1lx_mango_ghs.5Cobj.5Cr_tauj_main.56::
                        1287 .LDWlin56:
0000039a 686a           1288 	cmp	8,r13
0000039c ba05*          1289 	bne	.L806
                        1290 --543:         {
                        1291 --544:             ucTimeInterval = LOC_TIME_INTERVAL_8;
                        1292 --line544
                        1293 ..lin.D.3A.5CRenesas_Electronics.5CD1x_RGL.5Crgl_ghs_D1Lx_obj_V1.2E2.2E0.5Cvlib.5Capp.5Cgfx_apps.5Csimple_draw_d1l2.5Ctarget.5Cd1lx_mango_ghs.5Cobj.5Cr_tauj_main.57::
                        1294 .LDWlin57:
0000039e 080a           1295 	mov	8,r1

                                                                      Page 23
                                                              C:\Users\YINGAO~1\AppData\Local\Temp\gh_00008g01.si
000003a0 e51d*          1296 	br	.L784
                        1297 .L806:
                        1298 --545:         } 
                        1299 --546:         else if ( TimeInterval == R_TAUJ_TIME_INTERVAL_9) 
                        1300 --line546
                        1301 ..lin.D.3A.5CRenesas_Electronics.5CD1x_RGL.5Crgl_ghs_D1Lx_obj_V1.2E2.2E0.5Cvlib.5Capp.5Cgfx_apps.5Csimple_draw_d1l2.5Ctarget.5Cd1lx_mango_ghs.5Cobj.5Cr_tauj_main.58::
                        1302 .LDWlin58:
000003a2 696a           1303 	cmp	9,r13
000003a4 ba05*          1304 	bne	.L809
                        1305 --547:         {
                        1306 --548:             ucTimeInterval = LOC_TIME_INTERVAL_9;
                        1307 --line548
                        1308 ..lin.D.3A.5CRenesas_Electronics.5CD1x_RGL.5Crgl_ghs_D1Lx_obj_V1.2E2.2E0.5Cvlib.5Capp.5Cgfx_apps.5Csimple_draw_d1l2.5Ctarget.5Cd1lx_mango_ghs.5Cobj.5Cr_tauj_main.59::
                        1309 .LDWlin59:
000003a6 090a           1310 	mov	9,r1
000003a8 a51d*          1311 	br	.L784
                        1312 .L809:
                        1313 --549:         } 
                        1314 --550:         else if ( TimeInterval == R_TAUJ_TIME_INTERVAL_10) 
                        1315 --line550
                        1316 ..lin.D.3A.5CRenesas_Electronics.5CD1x_RGL.5Crgl_ghs_D1Lx_obj_V1.2E2.2E0.5Cvlib.5Capp.5Cgfx_apps.5Csimple_draw_d1l2.5Ctarget.5Cd1lx_mango_ghs.5Cobj.5Cr_tauj_main.60::
                        1317 .LDWlin60:
000003aa 6a6a           1318 	cmp	10,r13
000003ac ba05*          1319 	bne	.L812
                        1320 --551:         {
                        1321 --552:             ucTimeInterval = LOC_TIME_INTERVAL_10;
                        1322 --line552
                        1323 ..lin.D.3A.5CRenesas_Electronics.5CD1x_RGL.5Crgl_ghs_D1Lx_obj_V1.2E2.2E0.5Cvlib.5Capp.5Cgfx_apps.5Csimple_draw_d1l2.5Ctarget.5Cd1lx_mango_ghs.5Cobj.5Cr_tauj_main.61::
                        1324 .LDWlin61:
000003ae 0a0a           1325 	mov	10,r1
000003b0 e515*          1326 	br	.L784
                        1327 .L812:
                        1328 --553:         } 
                        1329 --554:         else if ( TimeInterval == R_TAUJ_TIME_INTERVAL_11) 
                        1330 --line554
                        1331 ..lin.D.3A.5CRenesas_Electronics.5CD1x_RGL.5Crgl_ghs_D1Lx_obj_V1.2E2.2E0.5Cvlib.5Capp.5Cgfx_apps.5Csimple_draw_d1l2.5Ctarget.5Cd1lx_mango_ghs.5Cobj.5Cr_tauj_main.62::
                        1332 .LDWlin62:
000003b2 6b6a           1333 	cmp	11,r13
000003b4 ba05*          1334 	bne	.L815
                        1335 --555:         {
                        1336 --556:             ucTimeInterval = LOC_TIME_INTERVAL_11;
                        1337 --line556
                        1338 ..lin.D.3A.5CRenesas_Electronics.5CD1x_RGL.5Crgl_ghs_D1Lx_obj_V1.2E2.2E0.5Cvlib.5Capp.5Cgfx_apps.5Csimple_draw_d1l2.5Ctarget.5Cd1lx_mango_ghs.5Cobj.5Cr_tauj_main.63::
                        1339 .LDWlin63:
000003b6 0b0a           1340 	mov	11,r1
000003b8 a515*          1341 	br	.L784
                        1342 .L815:
                        1343 --557:         } 
                        1344 --558:         else if ( TimeInterval == R_TAUJ_TIME_INTERVAL_12) 
                        1345 --line558
                        1346 ..lin.D.3A.5CRenesas_Electronics.5CD1x_RGL.5Crgl_ghs_D1Lx_obj_V1.2E2.2E0.5Cvlib.5Capp.5Cgfx_apps.5Csimple_draw_d1l2.5Ctarget.5Cd1lx_mango_ghs.5Cobj.5Cr_tauj_main.64::
                        1347 .LDWlin64:
000003ba 6c6a           1348 	cmp	12,r13
000003bc ba05*          1349 	bne	.L818
                        1350 --559:         {
                        1351 --560:             ucTimeInterval = LOC_TIME_INTERVAL_12;
                        1352 --line560
                        1353 ..lin.D.3A.5CRenesas_Electronics.5CD1x_RGL.5Crgl_ghs_D1Lx_obj_V1.2E2.2E0.5Cvlib.5Capp.5Cgfx_apps.5Csimple_draw_d1l2.5Ctarget.5Cd1lx_mango_ghs.5Cobj.5Cr_tauj_main.65::
                        1354 .LDWlin65:
000003be 0c0a           1355 	mov	12,r1
000003c0 e50d*          1356 	br	.L784

                                                                      Page 24
                                                              C:\Users\YINGAO~1\AppData\Local\Temp\gh_00008g01.si
                        1357 .L818:
                        1358 --561:         } 
                        1359 --562:         else if ( TimeInterval == R_TAUJ_TIME_INTERVAL_13) 
                        1360 --line562
                        1361 ..lin.D.3A.5CRenesas_Electronics.5CD1x_RGL.5Crgl_ghs_D1Lx_obj_V1.2E2.2E0.5Cvlib.5Capp.5Cgfx_apps.5Csimple_draw_d1l2.5Ctarget.5Cd1lx_mango_ghs.5Cobj.5Cr_tauj_main.66::
                        1362 .LDWlin66:
000003c2 6d6a           1363 	cmp	13,r13
000003c4 ba05*          1364 	bne	.L821
                        1365 --563:         {
                        1366 --564:             ucTimeInterval = LOC_TIME_INTERVAL_13;
                        1367 --line564
                        1368 ..lin.D.3A.5CRenesas_Electronics.5CD1x_RGL.5Crgl_ghs_D1Lx_obj_V1.2E2.2E0.5Cvlib.5Capp.5Cgfx_apps.5Csimple_draw_d1l2.5Ctarget.5Cd1lx_mango_ghs.5Cobj.5Cr_tauj_main.67::
                        1369 .LDWlin67:
000003c6 0d0a           1370 	mov	13,r1
000003c8 a50d*          1371 	br	.L784
                        1372 .L821:
                        1373 --565:         } 
                        1374 --566:         else if ( TimeInterval == R_TAUJ_TIME_INTERVAL_14) 
                        1375 --line566
                        1376 ..lin.D.3A.5CRenesas_Electronics.5CD1x_RGL.5Crgl_ghs_D1Lx_obj_V1.2E2.2E0.5Cvlib.5Capp.5Cgfx_apps.5Csimple_draw_d1l2.5Ctarget.5Cd1lx_mango_ghs.5Cobj.5Cr_tauj_main.68::
                        1377 .LDWlin68:
000003ca 6e6a           1378 	cmp	14,r13
000003cc ba05*          1379 	bne	.L824
                        1380 --567:         {
                        1381 --568:             ucTimeInterval = LOC_TIME_INTERVAL_14;
                        1382 --line568
                        1383 ..lin.D.3A.5CRenesas_Electronics.5CD1x_RGL.5Crgl_ghs_D1Lx_obj_V1.2E2.2E0.5Cvlib.5Capp.5Cgfx_apps.5Csimple_draw_d1l2.5Ctarget.5Cd1lx_mango_ghs.5Cobj.5Cr_tauj_main.69::
                        1384 .LDWlin69:
000003ce 0e0a           1385 	mov	14,r1
000003d0 e505*          1386 	br	.L784
                        1387 .L824:
                        1388 --569:         } 
                        1389 --570:         else if ( TimeInterval == R_TAUJ_TIME_INTERVAL_15) 
                        1390 --line570
                        1391 ..lin.D.3A.5CRenesas_Electronics.5CD1x_RGL.5Crgl_ghs_D1Lx_obj_V1.2E2.2E0.5Cvlib.5Capp.5Cgfx_apps.5Csimple_draw_d1l2.5Ctarget.5Cd1lx_mango_ghs.5Cobj.5Cr_tauj_main.70::
                        1392 .LDWlin70:
000003d2 6f6a           1393 	cmp	15,r13
000003d4 ba05*          1394 	bne	.L827
                        1395 --571:         {
                        1396 --572:             ucTimeInterval = LOC_TIME_INTERVAL_15;
                        1397 --line572
                        1398 ..lin.D.3A.5CRenesas_Electronics.5CD1x_RGL.5Crgl_ghs_D1Lx_obj_V1.2E2.2E0.5Cvlib.5Capp.5Cgfx_apps.5Csimple_draw_d1l2.5Ctarget.5Cd1lx_mango_ghs.5Cobj.5Cr_tauj_main.71::
                        1399 .LDWlin71:
000003d6 0f0a           1400 	mov	15,r1
000003d8 a505*          1401 	br	.L784
                        1402 .L827:
                        1403 --573:         } 
                        1404 --574:         else 
                        1405 --575:         {
                        1406 --576:             /* error */
                        1407 --577:             error_mode = R_TAUJ_ERR_RANGE;
                        1408 --line577
                        1409 ..lin.D.3A.5CRenesas_Electronics.5CD1x_RGL.5Crgl_ghs_D1Lx_obj_V1.2E2.2E0.5Cvlib.5Capp.5Cgfx_apps.5Csimple_draw_d1l2.5Ctarget.5Cd1lx_mango_ghs.5Cobj.5Cr_tauj_main.72::
                        1410 .LDWlin72:
000003da 0262           1411 	mov	2,r12
                        1412 .L784:
                        1413 --578:         }
                        1414 --580:         /* if a valid time interval the write the clock */
                        1415 --581:         if ( error_mode == R_TAUJ_ERR_OK) 
000003dc e061           1416 	cmp	zero,r12
000003de ca25*          1417 	bne	.L781

                                                                      Page 25
                                                              C:\Users\YINGAO~1\AppData\Local\Temp\gh_00008g01.si
                        1418 --582:         {
                        1419 --583:             if ( Clock == R_TAUJ_CK_0) 
                        1420 --line583
                        1421 ..lin.D.3A.5CRenesas_Electronics.5CD1x_RGL.5Crgl_ghs_D1Lx_obj_V1.2E2.2E0.5Cvlib.5Capp.5Cgfx_apps.5Csimple_draw_d1l2.5Ctarget.5Cd1lx_mango_ghs.5Cobj.5Cr_tauj_main.73::
                        1422 .LDWlin73:
000003e0 e059           1423 	cmp	zero,r11
000003e2 9a0d*          1424 	bne	.L832
                        1425 --584:             {
                        1426 --585:                 r_tauj_RegTps.Bits.Pcs_Ck0 = ucTimeInterval;
                        1427 --line585
                        1428 ..lin.D.3A.5CRenesas_Electronics.5CD1x_RGL.5Crgl_ghs_D1Lx_obj_V1.2E2.2E0.5Cvlib.5Capp.5Cgfx_apps.5Csimple_draw_d1l2.5Ctarget.5Cd1lx_mango_ghs.5Cobj.5Cr_tauj_main.74::
                        1429 .LDWlin74:
000003e4 104a           1430 	mov	-16,r9
000003e6 4e49           1431 	and	r14,r9
000003e8 c1ee0f00       1432 	andi	15,r1,r29
000003ec 1d49           1433 	or	r29,r9
000003ee c976ffff       1434 	andi	65535,r9,r14
000003f2 a51d*          1435 	br	.L781
                        1436 .L832:
                        1437 --586:             } 
                        1438 --587:             else if ( Clock == R_TAUJ_CK_1) 
                        1439 --line587
                        1440 ..lin.D.3A.5CRenesas_Electronics.5CD1x_RGL.5Crgl_ghs_D1Lx_obj_V1.2E2.2E0.5Cvlib.5Capp.5Cgfx_apps.5Csimple_draw_d1l2.5Ctarget.5Cd1lx_mango_ghs.5Cobj.5Cr_tauj_main.75::
                        1441 .LDWlin75:
000003f4 615a           1442 	cmp	1,r11
000003f6 fa05*          1443 	bne	.L835
                        1444 --588:             {
                        1445 --589:                 r_tauj_RegTps.Bits.Pcs_Ck1 = ucTimeInterval;
                        1446 --line589
                        1447 ..lin.D.3A.5CRenesas_Electronics.5CD1x_RGL.5Crgl_ghs_D1Lx_obj_V1.2E2.2E0.5Cvlib.5Capp.5Cgfx_apps.5Csimple_draw_d1l2.5Ctarget.5Cd1lx_mango_ghs.5Cobj.5Cr_tauj_main.76::
                        1448 .LDWlin76:
000003f8 e177d870       1449 	bins	r1,4,4,r14
000003fc 0e48           1450 	mov	r14,r9
000003fe c976ffff       1451 	andi	65535,r9,r14
00000402 a515*          1452 	br	.L781
                        1453 .L835:
                        1454 --590:             } 
                        1455 --591:             else if ( Clock == R_TAUJ_CK_2)
                        1456 --line591
                        1457 ..lin.D.3A.5CRenesas_Electronics.5CD1x_RGL.5Crgl_ghs_D1Lx_obj_V1.2E2.2E0.5Cvlib.5Capp.5Cgfx_apps.5Csimple_draw_d1l2.5Ctarget.5Cd1lx_mango_ghs.5Cobj.5Cr_tauj_main.77::
                        1458 .LDWlin77:
00000404 625a           1459 	cmp	2,r11
00000406 fa05*          1460 	bne	.L838
                        1461 --592:             {
                        1462 --593:                  r_tauj_RegTps.Bits.Pcs_Ck2 = ucTimeInterval;
                        1463 --line593
                        1464 ..lin.D.3A.5CRenesas_Electronics.5CD1x_RGL.5Crgl_ghs_D1Lx_obj_V1.2E2.2E0.5Cvlib.5Capp.5Cgfx_apps.5Csimple_draw_d1l2.5Ctarget.5Cd1lx_mango_ghs.5Cobj.5Cr_tauj_main.78::
                        1465 .LDWlin78:
00000408 e177d0b8       1466 	bins	r1,8,4,r14
0000040c 0e48           1467 	mov	r14,r9
0000040e c976ffff       1468 	andi	65535,r9,r14
00000412 a50d*          1469 	br	.L781
                        1470 .L838:
                        1471 --594:             } 
                        1472 --595:             else if ( Clock == R_TAUJ_CK_3) 
                        1473 --line595
                        1474 ..lin.D.3A.5CRenesas_Electronics.5CD1x_RGL.5Crgl_ghs_D1Lx_obj_V1.2E2.2E0.5Cvlib.5Capp.5Cgfx_apps.5Csimple_draw_d1l2.5Ctarget.5Cd1lx_mango_ghs.5Cobj.5Cr_tauj_main.79::
                        1475 .LDWlin79:
00000414 635a           1476 	cmp	3,r11
00000416 fa05*          1477 	bne	.L841
                        1478 --596:             {

                                                                      Page 26
                                                              C:\Users\YINGAO~1\AppData\Local\Temp\gh_00008g01.si
                        1479 --597:                  r_tauj_RegTps.Bits.Pcs_Ck3 = ucTimeInterval;
                        1480 --line597
                        1481 ..lin.D.3A.5CRenesas_Electronics.5CD1x_RGL.5Crgl_ghs_D1Lx_obj_V1.2E2.2E0.5Cvlib.5Capp.5Cgfx_apps.5Csimple_draw_d1l2.5Ctarget.5Cd1lx_mango_ghs.5Cobj.5Cr_tauj_main.80::
                        1482 .LDWlin80:
00000418 e177d8f8       1483 	bins	r1,12,4,r14
0000041c 0e48           1484 	mov	r14,r9
0000041e c976ffff       1485 	andi	65535,r9,r14
00000422 a505*          1486 	br	.L781
                        1487 .L841:
                        1488 --598:             } 
                        1489 --599:             else 
                        1490 --600:             {
                        1491 --601:                 /* error */
                        1492 --602:                 error_mode = R_TAUJ_ERR_RANGE;
                        1493 --line602
                        1494 ..lin.D.3A.5CRenesas_Electronics.5CD1x_RGL.5Crgl_ghs_D1Lx_obj_V1.2E2.2E0.5Cvlib.5Capp.5Cgfx_apps.5Csimple_draw_d1l2.5Ctarget.5Cd1lx_mango_ghs.5Cobj.5Cr_tauj_main.81::
                        1495 .LDWlin81:
00000424 0262           1496 	mov	2,r12
                        1497 .L781:
                        1498 --603:             }
                        1499 --604:         } 
                        1500 --605:         else 
                        1501 --606:         {
                        1502 --607:             /* error do not write anything, the return value will indicate the error condition */
                        1503 --608:         }
                        1504 --609:     }
                        1505 --611:     /* if no error then update the register */
                        1506 --612:     if ( error_mode == R_TAUJ_ERR_OK) 
00000426 e061           1507 	cmp	zero,r12
00000428 8a0d*          1508 	bne	.L845
                        1509 --613:     {
                        1510 --614:         /* update the TPS Prescaler Clock Select Register */
                        1511 --615:         R_TAUJ_WRITE16(base_address + R_TAUJ0_TPS, r_tauj_RegTps.Word);
                        1512 --line615
                        1513 ..lin.D.3A.5CRenesas_Electronics.5CD1x_RGL.5Crgl_ghs_D1Lx_obj_V1.2E2.2E0.5Cvlib.5Capp.5Cgfx_apps.5Csimple_draw_d1l2.5Ctarget.5Cd1lx_mango_ghs.5Cobj.5Cr_tauj_main.82::
                        1514 .LDWlin82:
0000042a c874           1515 	sst.h	r14,144[ep]
                        1516 --616:         /* check values! */
                        1517 --617:         while (R_TAUJ_READ16(base_address + + R_TAUJ0_TPS) != r_tauj_RegTps.Word) 
0000042c a505*          1518 	br	.L847
                        1519 .L849:
                        1520 --618:         {
                        1521 --619:             R_TAUJ_WRITE16(base_address + R_TAUJ0_TPS, r_tauj_RegTps.Word);
                        1522 --line619
                        1523 ..lin.D.3A.5CRenesas_Electronics.5CD1x_RGL.5Crgl_ghs_D1Lx_obj_V1.2E2.2E0.5Cvlib.5Capp.5Cgfx_apps.5Csimple_draw_d1l2.5Ctarget.5Cd1lx_mango_ghs.5Cobj.5Cr_tauj_main.83::
                        1524 .LDWlin83:
0000042e c874           1525 	sst.h	r14,144[ep]
                        1526 .L847:
00000430 fe4f9100       1527 	ld.hu	144[ep],r9
00000434 ee49           1528 	cmp	r14,r9
00000436 cafd*          1529 	bne	.L849
                        1530 .L845:
                        1531 --620:         }           
                        1532 --621:     }
                        1533 --622:     return error_mode;
                        1534 --line622
                        1535 ..lin.D.3A.5CRenesas_Electronics.5CD1x_RGL.5Crgl_ghs_D1Lx_obj_V1.2E2.2E0.5Cvlib.5Capp.5Cgfx_apps.5Csimple_draw_d1l2.5Ctarget.5Cd1lx_mango_ghs.5Cobj.5Cr_tauj_main.84::
                        1536 .LDWlin84:
00000438 0000           1537 	nop
                        1538 --	    .ef
                        1539 .LDW92:

                                                                      Page 27
                                                              C:\Users\YINGAO~1\AppData\Local\Temp\gh_00008g01.si
0000043a 0c50           1540 	mov	r12,r10
0000043c 40065f00       1541 	dispose	0,{r29},[lp]
                        1542 	.type	_R_TAUJ_SetClockPeriod,@function
                        1543 	.size	_R_TAUJ_SetClockPeriod,.-_R_TAUJ_SetClockPeriod
                        1544 	.align	2
                        1545 .LDW03:
                        1546 --_ucTimeInterval	r1	local
                        1547 --_error_mode	r12	local
                        1548 --_base_address	ep	local
                        1549 --_r_tauj_RegTps	r14	local
                        1550 
                        1551 --_Unit	r10	param
                        1552 --_Clock	r11	param
                        1553 --_TimeInterval	r13	param
                        1554 
                        1555 	.section ".bss","awb"
                        1556 .L984:
                        1557 	.type	.L984,@object
                        1558 	.size	.L984,0
                        1559 	.data
                        1560 	.text
                        1561 
                        1562 --623: }
                        1563 
                        1564 --626: /***********************************************************
                        1565 --627:   Function: R_TAUJ_SetCK3BaudRateClock
                        1566 --628: */
                        1567 --630: r_tauj_Error_t R_TAUJ_SetCK3BaudRateClock(uint32_t Unit, uint8_t Period) 
                        1568 	.align	2
                        1569 	.align	2
                        1570 	.global	_R_TAUJ_SetCK3BaudRateClock
                        1571 _R_TAUJ_SetCK3BaudRateClock:
00000440 0670           1572 	mov	r6,r14
00000442 c76eff00       1573 	andi	255,r7,r13
                        1574 --	    .bf
                        1575 .LDW13:
                        1576 --631: {
                        1577 --632:     r_tauj_Error_t error_mode = R_TAUJ_ERR_OK;
00000446 000a           1578 	mov	0,r1
                        1579 --633:     uint32_t base_address = 0;
00000448 00f2           1580 	mov	0,ep
                        1581 --635:     /* check the instance is allowed */
                        1582 --636:     if ( Unit > (R_TAUJ_MACRO_NUM - 1)) 
0000044a e071           1583 	cmp	zero,r14
0000044c b305*          1584 	bnh	.L1166
                        1585 --637:     {
                        1586 --638:         /* instance too high */
                        1587 --639:         error_mode = R_TAUJ_ERR_INSTANCE;
                        1588 --line639
                        1589 ..lin.D.3A.5CRenesas_Electronics.5CD1x_RGL.5Crgl_ghs_D1Lx_obj_V1.2E2.2E0.5Cvlib.5Capp.5Cgfx_apps.5Csimple_draw_d1l2.5Ctarget.5Cd1lx_mango_ghs.5Cobj.5Cr_tauj_main.85::
                        1590 .LDWlin85:
0000044e 030a           1591 	mov	3,r1
00000450 c50d*          1592 	br	.L1168
                        1593 .L1166:
                        1594 --640:     } 
                        1595 --641:     else 
                        1596 --642:     {
                        1597 --643:         /* ok, update the BRS register value */
                        1598 --644:         base_address = R_TAUJ_Dev[Unit].BaseAddr;
                        1599 --line644
                        1600 ..lin.D.3A.5CRenesas_Electronics.5CD1x_RGL.5Crgl_ghs_D1Lx_obj_V1.2E2.2E0.5Cvlib.5Capp.5Cgfx_apps.5Csimple_draw_d1l2.5Ctarget.5Cd1lx_mango_ghs.5Cobj.5Cr_tauj_main.86::

                                                                      Page 28
                                                              C:\Users\YINGAO~1\AppData\Local\Temp\gh_00008g01.si
                        1601 .LDWlin86:
00000452 0e60           1602 	mov	r14,r12
00000454 ec00           1603 	sxh	r12
00000456 ec661400       1604 	mulhi	20,r12,r12
0000045a 2b0600000000*  1605 	mov	_R_TAUJ_Dev,r11
00000460 cb61           1606 	add	r11,r12
00000462 2cf70100       1607 	ld.w	0[r12],ep
                        1608 --646:         /* update the BRS Prescaler Baud Rate Setting Register */
                        1609 --647:         R_TAUJ_WRITE16(base_address + R_TAUJ0_BRS, Period);
00000466 ca6c           1610 	sst.h	r13,148[ep]
                        1611 .L1168:
                        1612 --648:     }
                        1613 --650:     return error_mode;
00000468 0150           1614 	mov	r1,r10
                        1615 --	    .ef
                        1616 .LDW23:
0000046a 7f00           1617 	jmp	[lp]
                        1618 	.type	_R_TAUJ_SetCK3BaudRateClock,@function
                        1619 	.size	_R_TAUJ_SetCK3BaudRateClock,.-_R_TAUJ_SetCK3BaudRateClock
                        1620 	.align	2
                        1621 .LDW33:
                        1622 --_error_mode	r1	local
                        1623 --_base_address	ep	local
                        1624 
                        1625 --_Unit	r14	param
                        1626 --_Period	r13	param
                        1627 
                        1628 	.section ".bss","awb"
                        1629 .L1188:
                        1630 	.type	.L1188,@object
                        1631 	.size	.L1188,0
                        1632 	.data
                        1633 	.text
                        1634 
                        1635 --651: }
                        1636 
                        1637 --654: /***********************************************************
                        1638 --655:   Function: R_TAUJ_SetClkSource
                        1639 --656: */
                        1640 --658: r_tauj_Error_t R_TAUJ_SetClkSource(uint32_t Unit, r_tauj_Channel_t Channel, r_tauj_Clock_t Clock) 
                        1641 	.align	2
                        1642 	.align	2
                        1643 	.global	_R_TAUJ_SetClkSource
                        1644 _R_TAUJ_SetClkSource:
0000046c 8407e170       1645 	prepare	{r25,r26,r27,r28,r29,r31},2
00000470 63370100       1646 	st.w	r6,0[sp]
00000474 08c8           1647 	mov	r8,r25
00000476 633f0500       1648 	st.w	r7,4[sp]
0000047a 00ea           1649 	mov	0,r29
                        1650 --	    .bf
                        1651 .LDW43:
                        1652 --659: {
                        1653 --660:     r_tauj_Error_t error_mode = R_TAUJ_ERR_OK;
0000047c 00e2           1654 	mov	0,r28
                        1655 --661:     uint32_t base_address = 0;
0000047e 00da           1656 	mov	0,r27
                        1657 --662:     uint32_t offset_address = 0;
00000480 00d2           1658 	mov	0,r26
                        1659 --663:     r_tauj_RegCmor_t r_tauj_RegCmor;
                        1660 --665:     /* check the instance is allowed */
                        1661 --666:     if ( Unit > (R_TAUJ_MACRO_NUM - 1)) 

                                                                      Page 29
                                                              C:\Users\YINGAO~1\AppData\Local\Temp\gh_00008g01.si
00000482 235f0100       1662 	ld.w	0[sp],r11
00000486 e059           1663 	cmp	zero,r11
00000488 b305*          1664 	bnh	.L1220
                        1665 --667:     {
                        1666 --668:         /* instance too high */
                        1667 --669:         error_mode = R_TAUJ_ERR_INSTANCE;
                        1668 --line669
                        1669 ..lin.D.3A.5CRenesas_Electronics.5CD1x_RGL.5Crgl_ghs_D1Lx_obj_V1.2E2.2E0.5Cvlib.5Capp.5Cgfx_apps.5Csimple_draw_d1l2.5Ctarget.5Cd1lx_mango_ghs.5Cobj.5Cr_tauj_main.87::
                        1670 .LDWlin87:
0000048a 03e2           1671 	mov	3,r28
0000048c a53d*          1672 	br	.L1222
                        1673 .L1220:
                        1674 --670:     } 
                        1675 --671:     else 
                        1676 --672:     {
                        1677 --673:         base_address = R_TAUJ_Dev[Unit].BaseAddr;
                        1678 --line673
                        1679 ..lin.D.3A.5CRenesas_Electronics.5CD1x_RGL.5Crgl_ghs_D1Lx_obj_V1.2E2.2E0.5Cvlib.5Capp.5Cgfx_apps.5Csimple_draw_d1l2.5Ctarget.5Cd1lx_mango_ghs.5Cobj.5Cr_tauj_main.88::
                        1680 .LDWlin88:
0000048e 235f0100       1681 	ld.w	0[sp],r11
00000492 2e0600000000*  1682 	mov	_R_TAUJ_Dev,r14
00000498 0bf0           1683 	mov	r11,ep
0000049a fe00           1684 	sxh	ep
0000049c fef61400       1685 	mulhi	20,ep,ep
000004a0 cef1           1686 	add	r14,ep
000004a2 00dd           1687 	sld.w	0[ep],r27
                        1688 --674:         offset_address = R_TAUJ0_CMOR0 + loc_GetChannelAddress(Channel);
000004a4 23370500       1689 	ld.w	4[sp],r6
                        1690 	jarl	_loc_GetChannelAddress,lp
                        1690 <EXPANSION BEGIN>
                        1690 jarl22 _loc_GetChannelAddress , lp 
000004a8 bfffb4fb*      1690 <EXPANSION END>
000004ac 0ad68000       1691 	addi	128,r10,r26
                        1692 --675:         r_tauj_RegCmor.Word = R_TAUJ_READ16(base_address + offset_address);
                        1693 --line675
                        1694 ..lin.D.3A.5CRenesas_Electronics.5CD1x_RGL.5Crgl_ghs_D1Lx_obj_V1.2E2.2E0.5Cvlib.5Capp.5Cgfx_apps.5Csimple_draw_d1l2.5Ctarget.5Cd1lx_mango_ghs.5Cobj.5Cr_tauj_main.89::
                        1695 .LDWlin89:
000004b0 1af0           1696 	mov	r26,ep
000004b2 dbf1           1697 	add	r27,ep
000004b4 70e8           1698 	sld.hu	0[ep],r29
                        1699 --677:         if ( Clock == R_TAUJ_CK_0) 
000004b6 e0c9           1700 	cmp	zero,r25
000004b8 ea05*          1701 	bne	.L1223
                        1702 --678:         {
                        1703 --679:             r_tauj_RegCmor.Bits.Cks = LOC_CK_0;
                        1704 --line679
                        1705 ..lin.D.3A.5CRenesas_Electronics.5CD1x_RGL.5Crgl_ghs_D1Lx_obj_V1.2E2.2E0.5Cvlib.5Capp.5Cgfx_apps.5Csimple_draw_d1l2.5Ctarget.5Cd1lx_mango_ghs.5Cobj.5Cr_tauj_main.90::
                        1706 .LDWlin90:
000004ba dd0eff3f       1707 	andi	16383,r29,r1
000004be c1eeffff       1708 	andi	65535,r1,r29
000004c2 f51d*          1709 	br	.L1222
                        1710 .L1223:
                        1711 --680:         } 
                        1712 --681:         else if ( Clock == R_TAUJ_CK_1) 
                        1713 --line681
                        1714 ..lin.D.3A.5CRenesas_Electronics.5CD1x_RGL.5Crgl_ghs_D1Lx_obj_V1.2E2.2E0.5Cvlib.5Capp.5Cgfx_apps.5Csimple_draw_d1l2.5Ctarget.5Cd1lx_mango_ghs.5Cobj.5Cr_tauj_main.91::
                        1715 .LDWlin91:
000004c4 61ca           1716 	cmp	1,r25
000004c6 aa0d*          1717 	bne	.L1226
                        1718 --682:         {
                        1719 --683:             r_tauj_RegCmor.Bits.Cks = LOC_CK_1;

                                                                      Page 30
                                                              C:\Users\YINGAO~1\AppData\Local\Temp\gh_00008g01.si
                        1720 --line683
                        1721 ..lin.D.3A.5CRenesas_Electronics.5CD1x_RGL.5Crgl_ghs_D1Lx_obj_V1.2E2.2E0.5Cvlib.5Capp.5Cgfx_apps.5Csimple_draw_d1l2.5Ctarget.5Cd1lx_mango_ghs.5Cobj.5Cr_tauj_main.92::
                        1722 .LDWlin92:
000004c8 2106ff3fffff   1723 	mov	-49153,r1
000004ce 5d09           1724 	and	r29,r1
000004d0 810e0040       1725 	ori	16384,r1,r1
000004d4 c1eeffff       1726 	andi	65535,r1,r29
000004d8 c515*          1727 	br	.L1222
                        1728 .L1226:
                        1729 --684:         } 
                        1730 --685:         else if ( Clock == R_TAUJ_CK_2) 
                        1731 --line685
                        1732 ..lin.D.3A.5CRenesas_Electronics.5CD1x_RGL.5Crgl_ghs_D1Lx_obj_V1.2E2.2E0.5Cvlib.5Capp.5Cgfx_apps.5Csimple_draw_d1l2.5Ctarget.5Cd1lx_mango_ghs.5Cobj.5Cr_tauj_main.93::
                        1733 .LDWlin93:
000004da 62ca           1734 	cmp	2,r25
000004dc aa0d*          1735 	bne	.L1229
                        1736 --686:         {
                        1737 --687:             r_tauj_RegCmor.Bits.Cks = LOC_CK_2;
                        1738 --line687
                        1739 ..lin.D.3A.5CRenesas_Electronics.5CD1x_RGL.5Crgl_ghs_D1Lx_obj_V1.2E2.2E0.5Cvlib.5Capp.5Cgfx_apps.5Csimple_draw_d1l2.5Ctarget.5Cd1lx_mango_ghs.5Cobj.5Cr_tauj_main.94::
                        1740 .LDWlin94:
000004de 2106ff3fffff   1741 	mov	-49153,r1
000004e4 5d09           1742 	and	r29,r1
000004e6 810e0080       1743 	ori	32768,r1,r1
000004ea c1eeffff       1744 	andi	65535,r1,r29
000004ee 950d*          1745 	br	.L1222
                        1746 .L1229:
                        1747 --688:         } 
                        1748 --689:         else if ( Clock == R_TAUJ_CK_3) 
                        1749 --line689
                        1750 ..lin.D.3A.5CRenesas_Electronics.5CD1x_RGL.5Crgl_ghs_D1Lx_obj_V1.2E2.2E0.5Cvlib.5Capp.5Cgfx_apps.5Csimple_draw_d1l2.5Ctarget.5Cd1lx_mango_ghs.5Cobj.5Cr_tauj_main.95::
                        1751 .LDWlin95:
000004f0 63ca           1752 	cmp	3,r25
000004f2 ea05*          1753 	bne	.L1232
                        1754 --690:         {
                        1755 --691:             r_tauj_RegCmor.Bits.Cks = LOC_CK_3;
                        1756 --line691
                        1757 ..lin.D.3A.5CRenesas_Electronics.5CD1x_RGL.5Crgl_ghs_D1Lx_obj_V1.2E2.2E0.5Cvlib.5Capp.5Cgfx_apps.5Csimple_draw_d1l2.5Ctarget.5Cd1lx_mango_ghs.5Cobj.5Cr_tauj_main.96::
                        1758 .LDWlin96:
000004f4 9d0e00c0       1759 	ori	49152,r29,r1
000004f8 c1eeffff       1760 	andi	65535,r1,r29
000004fc a505*          1761 	br	.L1222
                        1762 .L1232:
                        1763 --692:         } 
                        1764 --693:         else 
                        1765 --694:         {
                        1766 --695:             /* error */
                        1767 --696:             error_mode = R_TAUJ_ERR_RANGE;
                        1768 --line696
                        1769 ..lin.D.3A.5CRenesas_Electronics.5CD1x_RGL.5Crgl_ghs_D1Lx_obj_V1.2E2.2E0.5Cvlib.5Capp.5Cgfx_apps.5Csimple_draw_d1l2.5Ctarget.5Cd1lx_mango_ghs.5Cobj.5Cr_tauj_main.97::
                        1770 .LDWlin97:
000004fe 02e2           1771 	mov	2,r28
                        1772 .L1222:
                        1773 --697:         }
                        1774 --698:     }
                        1775 --700:     /* if no error then update the register */
                        1776 --701:     if ( error_mode == R_TAUJ_ERR_OK) 
00000500 e0e1           1777 	cmp	zero,r28
00000502 da0d*          1778 	bne	.L1235
                        1779 --702:     {
                        1780 --703:         /* update the CMOR Channel Mode OS Register */

                                                                      Page 31
                                                              C:\Users\YINGAO~1\AppData\Local\Temp\gh_00008g01.si
                        1781 --704:         R_TAUJ_WRITE16(base_address + offset_address, r_tauj_RegCmor.Word);
                        1782 --line704
                        1783 ..lin.D.3A.5CRenesas_Electronics.5CD1x_RGL.5Crgl_ghs_D1Lx_obj_V1.2E2.2E0.5Cvlib.5Capp.5Cgfx_apps.5Csimple_draw_d1l2.5Ctarget.5Cd1lx_mango_ghs.5Cobj.5Cr_tauj_main.98::
                        1784 .LDWlin98:
00000504 1af0           1785 	mov	r26,ep
00000506 dbf1           1786 	add	r27,ep
00000508 80ec           1787 	sst.h	r29,0[ep]
                        1788 --705:                 /* check values! */
                        1789 --706:         while (R_TAUJ_READ16(base_address + offset_address) != r_tauj_RegCmor.Word) 
0000050a c505*          1790 	br	.L1237
                        1791 .L1239:
                        1792 --707:         {
                        1793 --708:             R_TAUJ_WRITE16(base_address + offset_address, r_tauj_RegCmor.Word);
                        1794 --line708
                        1795 ..lin.D.3A.5CRenesas_Electronics.5CD1x_RGL.5Crgl_ghs_D1Lx_obj_V1.2E2.2E0.5Cvlib.5Capp.5Cgfx_apps.5Csimple_draw_d1l2.5Ctarget.5Cd1lx_mango_ghs.5Cobj.5Cr_tauj_main.99::
                        1796 .LDWlin99:
0000050c 1af0           1797 	mov	r26,ep
0000050e dbf1           1798 	add	r27,ep
00000510 80ec           1799 	sst.h	r29,0[ep]
                        1800 .L1237:
00000512 1af0           1801 	mov	r26,ep
00000514 dbf1           1802 	add	r27,ep
00000516 7008           1803 	sld.hu	0[ep],r1
00000518 fd09           1804 	cmp	r29,r1
0000051a 9afd*          1805 	bne	.L1239
                        1806 .L1235:
                        1807 --709:         }           
                        1808 --710:     }
                        1809 --711:     return error_mode;
                        1810 --line711
                        1811 ..lin.D.3A.5CRenesas_Electronics.5CD1x_RGL.5Crgl_ghs_D1Lx_obj_V1.2E2.2E0.5Cvlib.5Capp.5Cgfx_apps.5Csimple_draw_d1l2.5Ctarget.5Cd1lx_mango_ghs.5Cobj.5Cr_tauj_main.100::
                        1812 .LDWlin100:
0000051c 1c50           1813 	mov	r28,r10
                        1814 --	    .ef
                        1815 .LDW53:
0000051e 4406ff70       1816 	dispose	2,{r25,r26,r27,r28,r29,r31},[lp]
                        1817 	.type	_R_TAUJ_SetClkSource,@function
                        1818 	.size	_R_TAUJ_SetClkSource,.-_R_TAUJ_SetClkSource
                        1819 	.align	2
                        1820 .LDW63:
                        1821 --_error_mode	r28	local
                        1822 --_base_address	r27	local
                        1823 --_offset_address	r26	local
                        1824 --_r_tauj_RegCmor	r29	local
                        1825 
                        1826 --_Unit	0[sp]	param
                        1827 --_Channel	4[sp]	param
                        1828 --_Clock	r25	param
                        1829 
                        1830 	.section ".bss","awb"
                        1831 .L1302:
                        1832 	.type	.L1302,@object
                        1833 	.size	.L1302,0
                        1834 	.data
                        1835 	.text
                        1836 
                        1837 --712: }
                        1838 
                        1839 --715: /***********************************************************
                        1840 --716:   Function: R_TAUJ_ClearOverflow
                        1841 --717: */

                                                                      Page 32
                                                              C:\Users\YINGAO~1\AppData\Local\Temp\gh_00008g01.si
                        1842 --719: r_tauj_Error_t R_TAUJ_ClearOverflow(uint32_t Unit, r_tauj_Channel_t Channel) 
                        1843 	.align	2
                        1844 	.align	2
                        1845 	.global	_R_TAUJ_ClearOverflow
                        1846 _R_TAUJ_ClearOverflow:
00000522 8007e170       1847 	prepare	{r25,r26,r27,r28,r29,r31},0
00000526 06d0           1848 	mov	r6,r26
00000528 07c8           1849 	mov	r7,r25
                        1850 --	    .bf
                        1851 .LDW73:
                        1852 --720: {
                        1853 --721:     r_tauj_Error_t error_mode = R_TAUJ_ERR_OK;
0000052a 00ea           1854 	mov	0,r29
                        1855 --722:     uint32_t base_address = 0;
0000052c 00e2           1856 	mov	0,r28
                        1857 --723:     uint32_t offset_address = 0;
0000052e 00da           1858 	mov	0,r27
                        1859 --725:     /* check the instance is allowed */
                        1860 --726:     if ( Unit > (R_TAUJ_MACRO_NUM - 1)) 
00000530 e0d1           1861 	cmp	zero,r26
00000532 b305*          1862 	bnh	.L1385
                        1863 --727:     {
                        1864 --728:         /* instance too high */
                        1865 --729:         error_mode = R_TAUJ_ERR_INSTANCE;
                        1866 --line729
                        1867 ..lin.D.3A.5CRenesas_Electronics.5CD1x_RGL.5Crgl_ghs_D1Lx_obj_V1.2E2.2E0.5Cvlib.5Capp.5Cgfx_apps.5Csimple_draw_d1l2.5Ctarget.5Cd1lx_mango_ghs.5Cobj.5Cr_tauj_main.101::
                        1868 .LDWlin101:
00000534 03ea           1869 	mov	3,r29
00000536 f515*          1870 	br	.L1387
                        1871 .L1385:
                        1872 --730:     } 
                        1873 --731:     else 
                        1874 --732:     {
                        1875 --733:         if ( Channel == R_TAUJ_CHANNEL_ALL) 
                        1876 --line733
                        1877 ..lin.D.3A.5CRenesas_Electronics.5CD1x_RGL.5Crgl_ghs_D1Lx_obj_V1.2E2.2E0.5Cvlib.5Capp.5Cgfx_apps.5Csimple_draw_d1l2.5Ctarget.5Cd1lx_mango_ghs.5Cobj.5Cr_tauj_main.102::
                        1878 .LDWlin102:
00000538 64ca           1879 	cmp	4,r25
0000053a ba05*          1880 	bne	.L1388
                        1881 --734:         {
                        1882 --735:             error_mode = R_TAUJ_ERR_RANGE;
                        1883 --line735
                        1884 ..lin.D.3A.5CRenesas_Electronics.5CD1x_RGL.5Crgl_ghs_D1Lx_obj_V1.2E2.2E0.5Cvlib.5Capp.5Cgfx_apps.5Csimple_draw_d1l2.5Ctarget.5Cd1lx_mango_ghs.5Cobj.5Cr_tauj_main.103::
                        1885 .LDWlin103:
0000053c 02ea           1886 	mov	2,r29
0000053e b515*          1887 	br	.L1387
                        1888 .L1388:
                        1889 --736:         } 
                        1890 --737:         else 
                        1891 --738:         {
                        1892 --739:             base_address = R_TAUJ_Dev[Unit].BaseAddr;
                        1893 --line739
                        1894 ..lin.D.3A.5CRenesas_Electronics.5CD1x_RGL.5Crgl_ghs_D1Lx_obj_V1.2E2.2E0.5Cvlib.5Capp.5Cgfx_apps.5Csimple_draw_d1l2.5Ctarget.5Cd1lx_mango_ghs.5Cobj.5Cr_tauj_main.104::
                        1895 .LDWlin104:
00000540 1af0           1896 	mov	r26,ep
00000542 fe00           1897 	sxh	ep
00000544 fef61400       1898 	mulhi	20,ep,ep
00000548 2e0600000000*  1899 	mov	_R_TAUJ_Dev,r14
0000054e cef1           1900 	add	r14,ep
00000550 00e5           1901 	sld.w	0[ep],r28
                        1902 --740:             offset_address = R_TAUJ0_CSC0 + loc_GetChannelAddress(Channel);

                                                                      Page 33
                                                              C:\Users\YINGAO~1\AppData\Local\Temp\gh_00008g01.si
00000552 1930           1903 	mov	r25,r6
                        1904 	jarl	_loc_GetChannelAddress,lp
                        1904 <EXPANSION BEGIN>
                        1904 jarl22 _loc_GetChannelAddress , lp 
00000554 bfff08fb*      1904 <EXPANSION END>
00000558 0ade4000       1905 	addi	64,r10,r27
                        1906 --741:             /* update the CSC Channel Status Clear Register */
                        1907 --742:             R_TAUJ_WRITE16(base_address + offset_address, 0x0001);
                        1908 --line742
                        1909 ..lin.D.3A.5CRenesas_Electronics.5CD1x_RGL.5Crgl_ghs_D1Lx_obj_V1.2E2.2E0.5Cvlib.5Capp.5Cgfx_apps.5Csimple_draw_d1l2.5Ctarget.5Cd1lx_mango_ghs.5Cobj.5Cr_tauj_main.105::
                        1910 .LDWlin105:
0000055c 1bf0           1911 	mov	r27,ep
0000055e dcf1           1912 	add	r28,ep
00000560 010a           1913 	mov	1,r1
00000562 800c           1914 	sst.h	r1,0[ep]
                        1915 .L1387:
                        1916 --743:         }
                        1917 --744:     }
                        1918 --746:     return error_mode;
00000564 1d50           1919 	mov	r29,r10
                        1920 --	    .ef
                        1921 .LDW83:
00000566 4006ff70       1922 	dispose	0,{r25,r26,r27,r28,r29,r31},[lp]
                        1923 	.type	_R_TAUJ_ClearOverflow,@function
                        1924 	.size	_R_TAUJ_ClearOverflow,.-_R_TAUJ_ClearOverflow
                        1925 	.align	2
                        1926 .LDW93:
                        1927 --_error_mode	r29	local
                        1928 --_base_address	r28	local
                        1929 --_offset_address	r27	local
                        1930 
                        1931 --_Unit	r26	param
                        1932 --_Channel	r25	param
                        1933 
                        1934 	.section ".bss","awb"
                        1935 .L1420:
                        1936 	.type	.L1420,@object
                        1937 	.size	.L1420,0
                        1938 	.data
                        1939 	.text
                        1940 
                        1941 --747: }
                        1942 
                        1943 --750: /***********************************************************
                        1944 --751:   Function: R_TAUJ_SetMode
                        1945 --752: */
                        1946 --754: r_tauj_Error_t R_TAUJ_SetMode(uint32_t Unit, r_tauj_Channel_t Channel, r_tauj_Mode_t Mode) 
                        1947 	.align	2
                        1948 	.align	2
                        1949 	.global	_R_TAUJ_SetMode
                        1950 _R_TAUJ_SetMode:
0000056a 8607e170       1951 	prepare	{r25,r26,r27,r28,r29,r31},3
0000056e 63370500       1952 	st.w	r6,4[sp]
00000572 08e0           1953 	mov	r8,r28
00000574 633f0900       1954 	st.w	r7,8[sp]
00000578 00ea           1955 	mov	0,r29
                        1956 --	    .bf
                        1957 .LDW04:
                        1958 --755: {
                        1959 --756:     r_tauj_Error_t error_mode = R_TAUJ_ERR_OK;
0000057a 00ca           1960 	mov	0,r25

                                                                      Page 34
                                                              C:\Users\YINGAO~1\AppData\Local\Temp\gh_00008g01.si
                        1961 --757:     uint32_t base_address = 0;
0000057c 00da           1962 	mov	0,r27
                        1963 --758:     uint32_t offset_address = 0;
0000057e 00d2           1964 	mov	0,r26
                        1965 --759:     r_tauj_RegCmor_t r_tauj_RegCmor;
                        1966 --761:     /* check the instance is allowed */
                        1967 --762:     if (Unit > (R_TAUJ_MACRO_NUM - 1)) 
00000580 235f0500       1968 	ld.w	4[sp],r11
00000584 e059           1969 	cmp	zero,r11
00000586 c305*          1970 	bnh	.L1464
                        1971 --763:     {
                        1972 --764:         /* instance too high */
                        1973 --765:         error_mode = R_TAUJ_ERR_INSTANCE;
                        1974 --line765
                        1975 ..lin.D.3A.5CRenesas_Electronics.5CD1x_RGL.5Crgl_ghs_D1Lx_obj_V1.2E2.2E0.5Cvlib.5Capp.5Cgfx_apps.5Csimple_draw_d1l2.5Ctarget.5Cd1lx_mango_ghs.5Cobj.5Cr_tauj_main.106::
                        1976 .LDWlin106:
00000588 03ca           1977 	mov	3,r25
0000058a 80075801*      1978 	br	.L1466
                        1979 .L1464:
                        1980 --766:     } 
                        1981 --767:     else 
                        1982 --768:     {
                        1983 --769:         /* ok, update the CMOR register value */
                        1984 --770:         base_address = R_TAUJ_Dev[Unit].BaseAddr;
                        1985 --line770
                        1986 ..lin.D.3A.5CRenesas_Electronics.5CD1x_RGL.5Crgl_ghs_D1Lx_obj_V1.2E2.2E0.5Cvlib.5Capp.5Cgfx_apps.5Csimple_draw_d1l2.5Ctarget.5Cd1lx_mango_ghs.5Cobj.5Cr_tauj_main.107::
                        1987 .LDWlin107:
0000058e 235f0500       1988 	ld.w	4[sp],r11
00000592 2c0600000000*  1989 	mov	_R_TAUJ_Dev,r12
00000598 0bf0           1990 	mov	r11,ep
0000059a fe00           1991 	sxh	ep
0000059c fef61400       1992 	mulhi	20,ep,ep
000005a0 ccf1           1993 	add	r12,ep
000005a2 00dd           1994 	sld.w	0[ep],r27
                        1995 --771:         offset_address = R_TAUJ0_CMOR0 + loc_GetChannelAddress(Channel);
000005a4 23370900       1996 	ld.w	8[sp],r6
                        1997 	jarl	_loc_GetChannelAddress,lp
                        1997 <EXPANSION BEGIN>
                        1997 jarl22 _loc_GetChannelAddress , lp 
000005a8 bfffb4fa*      1997 <EXPANSION END>
000005ac 0ad68000       1998 	addi	128,r10,r26
                        1999 --772:         r_tauj_RegCmor.Word = R_TAUJ_READ16(base_address + offset_address);
                        2000 --line772
                        2001 ..lin.D.3A.5CRenesas_Electronics.5CD1x_RGL.5Crgl_ghs_D1Lx_obj_V1.2E2.2E0.5Cvlib.5Capp.5Cgfx_apps.5Csimple_draw_d1l2.5Ctarget.5Cd1lx_mango_ghs.5Cobj.5Cr_tauj_main.108::
                        2002 .LDWlin108:
000005b0 1af0           2003 	mov	r26,ep
000005b2 dbf1           2004 	add	r27,ep
000005b4 70e8           2005 	sld.hu	0[ep],r29
                        2006 --774:         /* timer interval */
                        2007 --775:         if ( Mode == R_TAUJ_INTERVAL_TIMER_MODE) 
000005b6 e0e1           2008 	cmp	zero,r28
000005b8 fa05*          2009 	bne	.L1467
                        2010 --776:         {
                        2011 --777:             r_tauj_RegCmor.Bits.Md = LOC_INTERVAL_TIMER_MODE;
                        2012 --line777
                        2013 ..lin.D.3A.5CRenesas_Electronics.5CD1x_RGL.5Crgl_ghs_D1Lx_obj_V1.2E2.2E0.5Cvlib.5Capp.5Cgfx_apps.5Csimple_draw_d1l2.5Ctarget.5Cd1lx_mango_ghs.5Cobj.5Cr_tauj_main.109::
                        2014 .LDWlin109:
000005ba dd0ee1ff       2015 	andi	65505,r29,r1
000005be c1eeffff       2016 	andi	65535,r1,r29
000005c2 80072001*      2017 	br	.L1466
                        2018 .L1467:

                                                                      Page 35
                                                              C:\Users\YINGAO~1\AppData\Local\Temp\gh_00008g01.si
                        2019 --778:         } 
                        2020 --779:         else if ( Mode == R_TAUJ_RFU_JUDGE_MODE) 
                        2021 --line779
                        2022 ..lin.D.3A.5CRenesas_Electronics.5CD1x_RGL.5Crgl_ghs_D1Lx_obj_V1.2E2.2E0.5Cvlib.5Capp.5Cgfx_apps.5Csimple_draw_d1l2.5Ctarget.5Cd1lx_mango_ghs.5Cobj.5Cr_tauj_main.110::
                        2023 .LDWlin110:
000005c6 61e2           2024 	cmp	1,r28
000005c8 aa0d*          2025 	bne	.L1470
                        2026 --780:         {
                        2027 --781:             r_tauj_RegCmor.Bits.Md = LOC_RFU_JUDGE_MODE;
                        2028 --line781
                        2029 ..lin.D.3A.5CRenesas_Electronics.5CD1x_RGL.5Crgl_ghs_D1Lx_obj_V1.2E2.2E0.5Cvlib.5Capp.5Cgfx_apps.5Csimple_draw_d1l2.5Ctarget.5Cd1lx_mango_ghs.5Cobj.5Cr_tauj_main.111::
                        2030 .LDWlin111:
000005ca 200ee1ff       2031 	movea	-31,zero,r1
000005ce 5d09           2032 	and	r29,r1
000005d0 810e0200       2033 	ori	2,r1,r1
000005d4 c1eeffff       2034 	andi	65535,r1,r29
000005d8 80070a01*      2035 	br	.L1466
                        2036 .L1470:
                        2037 --782:         } 
                        2038 --783:         else if ( Mode == R_TAUJ_CAPTURE_MODE) 
                        2039 --line783
                        2040 ..lin.D.3A.5CRenesas_Electronics.5CD1x_RGL.5Crgl_ghs_D1Lx_obj_V1.2E2.2E0.5Cvlib.5Capp.5Cgfx_apps.5Csimple_draw_d1l2.5Ctarget.5Cd1lx_mango_ghs.5Cobj.5Cr_tauj_main.112::
                        2041 .LDWlin112:
000005dc 62e2           2042 	cmp	2,r28
000005de 9a0d*          2043 	bne	.L1473
                        2044 --784:         {
                        2045 --785:             r_tauj_RegCmor.Bits.Md = LOC_CAPTURE_MODE;
                        2046 --line785
                        2047 ..lin.D.3A.5CRenesas_Electronics.5CD1x_RGL.5Crgl_ghs_D1Lx_obj_V1.2E2.2E0.5Cvlib.5Capp.5Cgfx_apps.5Csimple_draw_d1l2.5Ctarget.5Cd1lx_mango_ghs.5Cobj.5Cr_tauj_main.113::
                        2048 .LDWlin113:
000005e0 200ee1ff       2049 	movea	-31,zero,r1
000005e4 5d09           2050 	and	r29,r1
000005e6 810e0400       2051 	ori	4,r1,r1
000005ea c1eeffff       2052 	andi	65535,r1,r29
000005ee a57d*          2053 	br	.L1466
                        2054 .L1473:
                        2055 --786:         } 
                        2056 --787:         else if ( Mode == R_TAUJ_RFU_EVENT_COUNT_MODE) 
                        2057 --line787
                        2058 ..lin.D.3A.5CRenesas_Electronics.5CD1x_RGL.5Crgl_ghs_D1Lx_obj_V1.2E2.2E0.5Cvlib.5Capp.5Cgfx_apps.5Csimple_draw_d1l2.5Ctarget.5Cd1lx_mango_ghs.5Cobj.5Cr_tauj_main.114::
                        2059 .LDWlin114:
000005f0 63e2           2060 	cmp	3,r28
000005f2 9a0d*          2061 	bne	.L1476
                        2062 --788:         {
                        2063 --789:             r_tauj_RegCmor.Bits.Md = LOC_RFU_EVENT_COUNT_MODE;
                        2064 --line789
                        2065 ..lin.D.3A.5CRenesas_Electronics.5CD1x_RGL.5Crgl_ghs_D1Lx_obj_V1.2E2.2E0.5Cvlib.5Capp.5Cgfx_apps.5Csimple_draw_d1l2.5Ctarget.5Cd1lx_mango_ghs.5Cobj.5Cr_tauj_main.115::
                        2066 .LDWlin115:
000005f4 200ee1ff       2067 	movea	-31,zero,r1
000005f8 5d09           2068 	and	r29,r1
000005fa 810e0600       2069 	ori	6,r1,r1
000005fe c1eeffff       2070 	andi	65535,r1,r29
00000602 8575*          2071 	br	.L1466
                        2072 .L1476:
                        2073 --790:         } 
                        2074 --791:         else if ( Mode == R_TAUJ_ONE_COUNT_MODE) 
                        2075 --line791
                        2076 ..lin.D.3A.5CRenesas_Electronics.5CD1x_RGL.5Crgl_ghs_D1Lx_obj_V1.2E2.2E0.5Cvlib.5Capp.5Cgfx_apps.5Csimple_draw_d1l2.5Ctarget.5Cd1lx_mango_ghs.5Cobj.5Cr_tauj_main.116::
                        2077 .LDWlin116:
00000604 64e2           2078 	cmp	4,r28
00000606 9a0d*          2079 	bne	.L1479

                                                                      Page 36
                                                              C:\Users\YINGAO~1\AppData\Local\Temp\gh_00008g01.si
                        2080 --792:         {
                        2081 --793:             r_tauj_RegCmor.Bits.Md = LOC_ONE_COUNT_MODE;
                        2082 --line793
                        2083 ..lin.D.3A.5CRenesas_Electronics.5CD1x_RGL.5Crgl_ghs_D1Lx_obj_V1.2E2.2E0.5Cvlib.5Capp.5Cgfx_apps.5Csimple_draw_d1l2.5Ctarget.5Cd1lx_mango_ghs.5Cobj.5Cr_tauj_main.117::
                        2084 .LDWlin117:
00000608 200ee1ff       2085 	movea	-31,zero,r1
0000060c 5d09           2086 	and	r29,r1
0000060e 810e0800       2087 	ori	8,r1,r1
00000612 c1eeffff       2088 	andi	65535,r1,r29
00000616 e565*          2089 	br	.L1466
                        2090 .L1479:
                        2091 --794:         } 
                        2092 --795:         else if ( Mode == R_TAUJ_RFU_TRIGGER_START_MODE) 
                        2093 --line795
                        2094 ..lin.D.3A.5CRenesas_Electronics.5CD1x_RGL.5Crgl_ghs_D1Lx_obj_V1.2E2.2E0.5Cvlib.5Capp.5Cgfx_apps.5Csimple_draw_d1l2.5Ctarget.5Cd1lx_mango_ghs.5Cobj.5Cr_tauj_main.118::
                        2095 .LDWlin118:
00000618 65e2           2096 	cmp	5,r28
0000061a 9a0d*          2097 	bne	.L1482
                        2098 --796:         {
                        2099 --797:             r_tauj_RegCmor.Bits.Md = LOC_RFU_TRIGGER_START_MODE;
                        2100 --line797
                        2101 ..lin.D.3A.5CRenesas_Electronics.5CD1x_RGL.5Crgl_ghs_D1Lx_obj_V1.2E2.2E0.5Cvlib.5Capp.5Cgfx_apps.5Csimple_draw_d1l2.5Ctarget.5Cd1lx_mango_ghs.5Cobj.5Cr_tauj_main.119::
                        2102 .LDWlin119:
0000061c 200ee1ff       2103 	movea	-31,zero,r1
00000620 5d09           2104 	and	r29,r1
00000622 810e0a00       2105 	ori	10,r1,r1
00000626 c1eeffff       2106 	andi	65535,r1,r29
0000062a c55d*          2107 	br	.L1466
                        2108 .L1482:
                        2109 --798:         } 
                        2110 --799:         else if ( Mode == R_TAUJ_CAPTURE_ONE_COUNT_MODE) 
                        2111 --line799
                        2112 ..lin.D.3A.5CRenesas_Electronics.5CD1x_RGL.5Crgl_ghs_D1Lx_obj_V1.2E2.2E0.5Cvlib.5Capp.5Cgfx_apps.5Csimple_draw_d1l2.5Ctarget.5Cd1lx_mango_ghs.5Cobj.5Cr_tauj_main.120::
                        2113 .LDWlin120:
0000062c 66e2           2114 	cmp	6,r28
0000062e 9a0d*          2115 	bne	.L1485
                        2116 --800:         {
                        2117 --801:             r_tauj_RegCmor.Bits.Md = LOC_CAPTURE_ONE_COUNT_MODE;
                        2118 --line801
                        2119 ..lin.D.3A.5CRenesas_Electronics.5CD1x_RGL.5Crgl_ghs_D1Lx_obj_V1.2E2.2E0.5Cvlib.5Capp.5Cgfx_apps.5Csimple_draw_d1l2.5Ctarget.5Cd1lx_mango_ghs.5Cobj.5Cr_tauj_main.121::
                        2120 .LDWlin121:
00000630 200ee1ff       2121 	movea	-31,zero,r1
00000634 5d09           2122 	and	r29,r1
00000636 810e0c00       2123 	ori	12,r1,r1
0000063a c1eeffff       2124 	andi	65535,r1,r29
0000063e a555*          2125 	br	.L1466
                        2126 .L1485:
                        2127 --802:         } 
                        2128 --803:         else if ( Mode == R_TAUJ_RFU_JUDGE_ONE_COUNT_MODE) 
                        2129 --line803
                        2130 ..lin.D.3A.5CRenesas_Electronics.5CD1x_RGL.5Crgl_ghs_D1Lx_obj_V1.2E2.2E0.5Cvlib.5Capp.5Cgfx_apps.5Csimple_draw_d1l2.5Ctarget.5Cd1lx_mango_ghs.5Cobj.5Cr_tauj_main.122::
                        2131 .LDWlin122:
00000640 67e2           2132 	cmp	7,r28
00000642 9a0d*          2133 	bne	.L1488
                        2134 --804:         {
                        2135 --805:             r_tauj_RegCmor.Bits.Md = LOC_RFU_JUDGE_ONE_COUNT_MODE;
                        2136 --line805
                        2137 ..lin.D.3A.5CRenesas_Electronics.5CD1x_RGL.5Crgl_ghs_D1Lx_obj_V1.2E2.2E0.5Cvlib.5Capp.5Cgfx_apps.5Csimple_draw_d1l2.5Ctarget.5Cd1lx_mango_ghs.5Cobj.5Cr_tauj_main.123::
                        2138 .LDWlin123:
00000644 200ee1ff       2139 	movea	-31,zero,r1
00000648 5d09           2140 	and	r29,r1

                                                                      Page 37
                                                              C:\Users\YINGAO~1\AppData\Local\Temp\gh_00008g01.si
0000064a 810e0e00       2141 	ori	14,r1,r1
0000064e c1eeffff       2142 	andi	65535,r1,r29
00000652 854d*          2143 	br	.L1466
                        2144 .L1488:
                        2145 --806:         } 
                        2146 --807:         else if ( Mode == R_TAUJ_RFU_INTERVAL_ONE_COUNT_MODE) 
                        2147 --line807
                        2148 ..lin.D.3A.5CRenesas_Electronics.5CD1x_RGL.5Crgl_ghs_D1Lx_obj_V1.2E2.2E0.5Cvlib.5Capp.5Cgfx_apps.5Csimple_draw_d1l2.5Ctarget.5Cd1lx_mango_ghs.5Cobj.5Cr_tauj_main.124::
                        2149 .LDWlin124:
00000654 68e2           2150 	cmp	8,r28
00000656 9a0d*          2151 	bne	.L1491
                        2152 --808:         {
                        2153 --809:             r_tauj_RegCmor.Bits.Md = LOC_RFU_INTERVAL_ONE_COUNT_MODE;
                        2154 --line809
                        2155 ..lin.D.3A.5CRenesas_Electronics.5CD1x_RGL.5Crgl_ghs_D1Lx_obj_V1.2E2.2E0.5Cvlib.5Capp.5Cgfx_apps.5Csimple_draw_d1l2.5Ctarget.5Cd1lx_mango_ghs.5Cobj.5Cr_tauj_main.125::
                        2156 .LDWlin125:
00000658 200ee1ff       2157 	movea	-31,zero,r1
0000065c 5d09           2158 	and	r29,r1
0000065e 810e1000       2159 	ori	16,r1,r1
00000662 c1eeffff       2160 	andi	65535,r1,r29
00000666 e53d*          2161 	br	.L1466
                        2162 .L1491:
                        2163 --810:         } 
                        2164 --811:         else if ( Mode == R_TAUJ_RFU_UP_DOWN_COUNT_MODE) 
                        2165 --line811
                        2166 ..lin.D.3A.5CRenesas_Electronics.5CD1x_RGL.5Crgl_ghs_D1Lx_obj_V1.2E2.2E0.5Cvlib.5Capp.5Cgfx_apps.5Csimple_draw_d1l2.5Ctarget.5Cd1lx_mango_ghs.5Cobj.5Cr_tauj_main.126::
                        2167 .LDWlin126:
00000668 69e2           2168 	cmp	9,r28
0000066a 9a0d*          2169 	bne	.L1494
                        2170 --812:         {
                        2171 --813:             r_tauj_RegCmor.Bits.Md = LOC_RFU_UP_DOWN_COUNT_MODE;
                        2172 --line813
                        2173 ..lin.D.3A.5CRenesas_Electronics.5CD1x_RGL.5Crgl_ghs_D1Lx_obj_V1.2E2.2E0.5Cvlib.5Capp.5Cgfx_apps.5Csimple_draw_d1l2.5Ctarget.5Cd1lx_mango_ghs.5Cobj.5Cr_tauj_main.127::
                        2174 .LDWlin127:
0000066c 200ee1ff       2175 	movea	-31,zero,r1
00000670 5d09           2176 	and	r29,r1
00000672 810e1200       2177 	ori	18,r1,r1
00000676 c1eeffff       2178 	andi	65535,r1,r29
0000067a c535*          2179 	br	.L1466
                        2180 .L1494:
                        2181 --814:         } 
                        2182 --815:         else if ( Mode == R_TAUJ_RFU_PULSE_ONE_COUNT_MODE) 
                        2183 --line815
                        2184 ..lin.D.3A.5CRenesas_Electronics.5CD1x_RGL.5Crgl_ghs_D1Lx_obj_V1.2E2.2E0.5Cvlib.5Capp.5Cgfx_apps.5Csimple_draw_d1l2.5Ctarget.5Cd1lx_mango_ghs.5Cobj.5Cr_tauj_main.128::
                        2185 .LDWlin128:
0000067c 6ae2           2186 	cmp	10,r28
0000067e 9a0d*          2187 	bne	.L1497
                        2188 --816:         {
                        2189 --817:             r_tauj_RegCmor.Bits.Md = LOC_RFU_PULSE_ONE_COUNT_MODE;
                        2190 --line817
                        2191 ..lin.D.3A.5CRenesas_Electronics.5CD1x_RGL.5Crgl_ghs_D1Lx_obj_V1.2E2.2E0.5Cvlib.5Capp.5Cgfx_apps.5Csimple_draw_d1l2.5Ctarget.5Cd1lx_mango_ghs.5Cobj.5Cr_tauj_main.129::
                        2192 .LDWlin129:
00000680 200ee1ff       2193 	movea	-31,zero,r1
00000684 5d09           2194 	and	r29,r1
00000686 810e1400       2195 	ori	20,r1,r1
0000068a c1eeffff       2196 	andi	65535,r1,r29
0000068e a52d*          2197 	br	.L1466
                        2198 .L1497:
                        2199 --818:         } 
                        2200 --819:         else if ( Mode == R_TAUJ_RFU_INTERVAL_ONE_COUNT_MODE) 
                        2201 --line819

                                                                      Page 38
                                                              C:\Users\YINGAO~1\AppData\Local\Temp\gh_00008g01.si
                        2202 ..lin.D.3A.5CRenesas_Electronics.5CD1x_RGL.5Crgl_ghs_D1Lx_obj_V1.2E2.2E0.5Cvlib.5Capp.5Cgfx_apps.5Csimple_draw_d1l2.5Ctarget.5Cd1lx_mango_ghs.5Cobj.5Cr_tauj_main.130::
                        2203 .LDWlin130:
00000690 68e2           2204 	cmp	8,r28
00000692 9a0d*          2205 	bne	.L1500
                        2206 --820:         {
                        2207 --821:             r_tauj_RegCmor.Bits.Md = LOC_RFU_INTERVAL_ONE_COUNT_MODE;
                        2208 --line821
                        2209 ..lin.D.3A.5CRenesas_Electronics.5CD1x_RGL.5Crgl_ghs_D1Lx_obj_V1.2E2.2E0.5Cvlib.5Capp.5Cgfx_apps.5Csimple_draw_d1l2.5Ctarget.5Cd1lx_mango_ghs.5Cobj.5Cr_tauj_main.131::
                        2210 .LDWlin131:
00000694 200ee1ff       2211 	movea	-31,zero,r1
00000698 5d09           2212 	and	r29,r1
0000069a 810e1000       2213 	ori	16,r1,r1
0000069e c1eeffff       2214 	andi	65535,r1,r29
000006a2 8525*          2215 	br	.L1466
                        2216 .L1500:
                        2217 --822:         } 
                        2218 --823:         else if ( Mode == R_TAUJ_COUNT_CAPTURE_MODE) 
                        2219 --line823
                        2220 ..lin.D.3A.5CRenesas_Electronics.5CD1x_RGL.5Crgl_ghs_D1Lx_obj_V1.2E2.2E0.5Cvlib.5Capp.5Cgfx_apps.5Csimple_draw_d1l2.5Ctarget.5Cd1lx_mango_ghs.5Cobj.5Cr_tauj_main.132::
                        2221 .LDWlin132:
000006a4 6be2           2222 	cmp	11,r28
000006a6 9a0d*          2223 	bne	.L1503
                        2224 --824:         {
                        2225 --825:             r_tauj_RegCmor.Bits.Md = LOC_COUNT_CAPTURE_MODE;
                        2226 --line825
                        2227 ..lin.D.3A.5CRenesas_Electronics.5CD1x_RGL.5Crgl_ghs_D1Lx_obj_V1.2E2.2E0.5Cvlib.5Capp.5Cgfx_apps.5Csimple_draw_d1l2.5Ctarget.5Cd1lx_mango_ghs.5Cobj.5Cr_tauj_main.133::
                        2228 .LDWlin133:
000006a8 200ee1ff       2229 	movea	-31,zero,r1
000006ac 5d09           2230 	and	r29,r1
000006ae 810e1600       2231 	ori	22,r1,r1
000006b2 c1eeffff       2232 	andi	65535,r1,r29
000006b6 e515*          2233 	br	.L1466
                        2234 .L1503:
                        2235 --826:         } 
                        2236 --827:         else if ( Mode == R_TAUJ_GATE_COUNT_MODE) 
                        2237 --line827
                        2238 ..lin.D.3A.5CRenesas_Electronics.5CD1x_RGL.5Crgl_ghs_D1Lx_obj_V1.2E2.2E0.5Cvlib.5Capp.5Cgfx_apps.5Csimple_draw_d1l2.5Ctarget.5Cd1lx_mango_ghs.5Cobj.5Cr_tauj_main.134::
                        2239 .LDWlin134:
000006b8 6ce2           2240 	cmp	12,r28
000006ba 9a0d*          2241 	bne	.L1506
                        2242 --828:         {
                        2243 --829:             r_tauj_RegCmor.Bits.Md = LOC_GATE_COUNT_MODE;
                        2244 --line829
                        2245 ..lin.D.3A.5CRenesas_Electronics.5CD1x_RGL.5Crgl_ghs_D1Lx_obj_V1.2E2.2E0.5Cvlib.5Capp.5Cgfx_apps.5Csimple_draw_d1l2.5Ctarget.5Cd1lx_mango_ghs.5Cobj.5Cr_tauj_main.135::
                        2246 .LDWlin135:
000006bc 200ee1ff       2247 	movea	-31,zero,r1
000006c0 5d09           2248 	and	r29,r1
000006c2 810e1800       2249 	ori	24,r1,r1
000006c6 c1eeffff       2250 	andi	65535,r1,r29
000006ca c50d*          2251 	br	.L1466
                        2252 .L1506:
                        2253 --830:         } 
                        2254 --831:         else if ( Mode == R_TAUJ_CAPTURE_GATE_COUNT_MODE) 
                        2255 --line831
                        2256 ..lin.D.3A.5CRenesas_Electronics.5CD1x_RGL.5Crgl_ghs_D1Lx_obj_V1.2E2.2E0.5Cvlib.5Capp.5Cgfx_apps.5Csimple_draw_d1l2.5Ctarget.5Cd1lx_mango_ghs.5Cobj.5Cr_tauj_main.136::
                        2257 .LDWlin136:
000006cc 6de2           2258 	cmp	13,r28
000006ce 9a0d*          2259 	bne	.L1509
                        2260 --832:         {
                        2261 --833:             r_tauj_RegCmor.Bits.Md = LOC_CAPTURE_GATE_COUNT_MODE;
                        2262 --line833

                                                                      Page 39
                                                              C:\Users\YINGAO~1\AppData\Local\Temp\gh_00008g01.si
                        2263 ..lin.D.3A.5CRenesas_Electronics.5CD1x_RGL.5Crgl_ghs_D1Lx_obj_V1.2E2.2E0.5Cvlib.5Capp.5Cgfx_apps.5Csimple_draw_d1l2.5Ctarget.5Cd1lx_mango_ghs.5Cobj.5Cr_tauj_main.137::
                        2264 .LDWlin137:
000006d0 200ee1ff       2265 	movea	-31,zero,r1
000006d4 5d09           2266 	and	r29,r1
000006d6 810e1a00       2267 	ori	26,r1,r1
000006da c1eeffff       2268 	andi	65535,r1,r29
000006de a505*          2269 	br	.L1466
                        2270 .L1509:
                        2271 --834:         } 
                        2272 --835:         else 
                        2273 --836:         {
                        2274 --837:             /* error */
                        2275 --838:             error_mode = R_TAUJ_ERR_RANGE;
                        2276 --line838
                        2277 ..lin.D.3A.5CRenesas_Electronics.5CD1x_RGL.5Crgl_ghs_D1Lx_obj_V1.2E2.2E0.5Cvlib.5Capp.5Cgfx_apps.5Csimple_draw_d1l2.5Ctarget.5Cd1lx_mango_ghs.5Cobj.5Cr_tauj_main.138::
                        2278 .LDWlin138:
000006e0 02ca           2279 	mov	2,r25
                        2280 .L1466:
                        2281 --839:         }
                        2282 --840:     }
                        2283 --842:     /* if no error then update the register */
                        2284 --843:     if (error_mode == R_TAUJ_ERR_OK) 
000006e2 e0c9           2285 	cmp	zero,r25
000006e4 ea1d*          2286 	bne	.L1512
                        2287 --844:     {
                        2288 --845:         /* update the CMOR Channel Mode OS Register */
                        2289 --846:         base_address = R_TAUJ_Dev[Unit].BaseAddr;
                        2290 --line846
                        2291 ..lin.D.3A.5CRenesas_Electronics.5CD1x_RGL.5Crgl_ghs_D1Lx_obj_V1.2E2.2E0.5Cvlib.5Capp.5Cgfx_apps.5Csimple_draw_d1l2.5Ctarget.5Cd1lx_mango_ghs.5Cobj.5Cr_tauj_main.139::
                        2292 .LDWlin139:
000006e6 235f0500       2293 	ld.w	4[sp],r11
000006ea 2c0600000000*  2294 	mov	_R_TAUJ_Dev,r12
000006f0 0bf0           2295 	mov	r11,ep
000006f2 fe00           2296 	sxh	ep
000006f4 fef61400       2297 	mulhi	20,ep,ep
000006f8 ccf1           2298 	add	r12,ep
000006fa 00dd           2299 	sld.w	0[ep],r27
                        2300 --847:         offset_address = R_TAUJ0_CMOR0 + loc_GetChannelAddress(Channel);
000006fc 23370900       2301 	ld.w	8[sp],r6
                        2302 	jarl	_loc_GetChannelAddress,lp
                        2302 <EXPANSION BEGIN>
                        2302 jarl22 _loc_GetChannelAddress , lp 
00000700 bfff5cf9*      2302 <EXPANSION END>
00000704 0ad68000       2303 	addi	128,r10,r26
                        2304 --848:         R_TAUJ_WRITE16(base_address + offset_address, r_tauj_RegCmor.Word);
                        2305 --line848
                        2306 ..lin.D.3A.5CRenesas_Electronics.5CD1x_RGL.5Crgl_ghs_D1Lx_obj_V1.2E2.2E0.5Cvlib.5Capp.5Cgfx_apps.5Csimple_draw_d1l2.5Ctarget.5Cd1lx_mango_ghs.5Cobj.5Cr_tauj_main.140::
                        2307 .LDWlin140:
00000708 1af0           2308 	mov	r26,ep
0000070a dbf1           2309 	add	r27,ep
0000070c 80ec           2310 	sst.h	r29,0[ep]
                        2311 --849:         /* check values! */
                        2312 --850:         while (R_TAUJ_READ16(base_address + offset_address) != r_tauj_RegCmor.Word) 
0000070e c505*          2313 	br	.L1514
                        2314 .L1516:
                        2315 --851:         {
                        2316 --852:             R_TAUJ_WRITE16(base_address + offset_address, r_tauj_RegCmor.Word);
                        2317 --line852
                        2318 ..lin.D.3A.5CRenesas_Electronics.5CD1x_RGL.5Crgl_ghs_D1Lx_obj_V1.2E2.2E0.5Cvlib.5Capp.5Cgfx_apps.5Csimple_draw_d1l2.5Ctarget.5Cd1lx_mango_ghs.5Cobj.5Cr_tauj_main.141::
                        2319 .LDWlin141:
00000710 1af0           2320 	mov	r26,ep

                                                                      Page 40
                                                              C:\Users\YINGAO~1\AppData\Local\Temp\gh_00008g01.si
00000712 dbf1           2321 	add	r27,ep
00000714 80ec           2322 	sst.h	r29,0[ep]
                        2323 .L1514:
00000716 1af0           2324 	mov	r26,ep
00000718 dbf1           2325 	add	r27,ep
0000071a 7008           2326 	sld.hu	0[ep],r1
0000071c fd09           2327 	cmp	r29,r1
0000071e 9afd*          2328 	bne	.L1516
                        2329 .L1512:
                        2330 --853:         }           
                        2331 --854:     }
                        2332 --855:     return error_mode;
                        2333 --line855
                        2334 ..lin.D.3A.5CRenesas_Electronics.5CD1x_RGL.5Crgl_ghs_D1Lx_obj_V1.2E2.2E0.5Cvlib.5Capp.5Cgfx_apps.5Csimple_draw_d1l2.5Ctarget.5Cd1lx_mango_ghs.5Cobj.5Cr_tauj_main.142::
                        2335 .LDWlin142:
00000720 1950           2336 	mov	r25,r10
                        2337 --	    .ef
                        2338 .LDW14:
00000722 4606ff70       2339 	dispose	3,{r25,r26,r27,r28,r29,r31},[lp]
                        2340 	.type	_R_TAUJ_SetMode,@function
                        2341 	.size	_R_TAUJ_SetMode,.-_R_TAUJ_SetMode
                        2342 	.align	2
                        2343 .LDW24:
                        2344 --_error_mode	r25	local
                        2345 --_base_address	r27	local
                        2346 --_offset_address	r26	local
                        2347 --_r_tauj_RegCmor	r29	local
                        2348 
                        2349 --_Unit	4[sp]	param
                        2350 --_Channel	8[sp]	param
                        2351 --_Mode	r28	param
                        2352 
                        2353 	.section ".bss","awb"
                        2354 .L1622:
                        2355 	.type	.L1622,@object
                        2356 	.size	.L1622,0
                        2357 	.data
                        2358 	.text
                        2359 
                        2360 --856: }
                        2361 
                        2362 --859: /***********************************************************
                        2363 --860:   Function: r_tauj_SetCaptureOverflow
                        2364 --861: */
                        2365 --863: r_tauj_Error_t R_TAUJ_SetCaptureOverflow(
                        2366 	.align	2
                        2367 	.align	2
                        2368 	.global	_R_TAUJ_SetCaptureOverflow
                        2369 _R_TAUJ_SetCaptureOverflow:
00000726 8407e170       2370 	prepare	{r25,r26,r27,r28,r29,r31},2
0000072a 63370100       2371 	st.w	r6,0[sp]
0000072e 08c8           2372 	mov	r8,r25
00000730 633f0500       2373 	st.w	r7,4[sp]
00000734 00ea           2374 	mov	0,r29
                        2375 --	    .bf
                        2376 .LDW34:
                        2377 --864:     uint32_t Unit,
                        2378 --865:     r_tauj_Channel_t Channel,
                        2379 --866:     r_tauj_Overflow_t Overflow)
                        2380 --867: {
                        2381 --868:     r_tauj_Error_t error_mode = R_TAUJ_ERR_OK;

                                                                      Page 41
                                                              C:\Users\YINGAO~1\AppData\Local\Temp\gh_00008g01.si
00000736 00e2           2382 	mov	0,r28
                        2383 --869:     uint32_t base_address = 0;
00000738 00da           2384 	mov	0,r27
                        2385 --870:     uint32_t offset_address = 0;
0000073a 00d2           2386 	mov	0,r26
                        2387 --871:     r_tauj_RegCmor_t r_tauj_RegCmor;
                        2388 --873:     /* check the instance is allowed */
                        2389 --874:     if (Unit > (R_TAUJ_MACRO_NUM - 1)) 
0000073c 235f0100       2390 	ld.w	0[sp],r11
00000740 e059           2391 	cmp	zero,r11
00000742 b305*          2392 	bnh	.L1777
                        2393 --875:     {
                        2394 --876:         /* instance too high */
                        2395 --877:         error_mode = R_TAUJ_ERR_INSTANCE;
                        2396 --line877
                        2397 ..lin.D.3A.5CRenesas_Electronics.5CD1x_RGL.5Crgl_ghs_D1Lx_obj_V1.2E2.2E0.5Cvlib.5Capp.5Cgfx_apps.5Csimple_draw_d1l2.5Ctarget.5Cd1lx_mango_ghs.5Cobj.5Cr_tauj_main.143::
                        2398 .LDWlin143:
00000744 03e2           2399 	mov	3,r28
00000746 853d*          2400 	br	.L1779
                        2401 .L1777:
                        2402 --878:     } 
                        2403 --879:     else 
                        2404 --880:     {
                        2405 --881:         /* ok, update the CMOR register value */
                        2406 --882:         base_address = R_TAUJ_Dev[Unit].BaseAddr;
                        2407 --line882
                        2408 ..lin.D.3A.5CRenesas_Electronics.5CD1x_RGL.5Crgl_ghs_D1Lx_obj_V1.2E2.2E0.5Cvlib.5Capp.5Cgfx_apps.5Csimple_draw_d1l2.5Ctarget.5Cd1lx_mango_ghs.5Cobj.5Cr_tauj_main.144::
                        2409 .LDWlin144:
00000748 235f0100       2410 	ld.w	0[sp],r11
0000074c 2e0600000000*  2411 	mov	_R_TAUJ_Dev,r14
00000752 0bf0           2412 	mov	r11,ep
00000754 fe00           2413 	sxh	ep
00000756 fef61400       2414 	mulhi	20,ep,ep
0000075a cef1           2415 	add	r14,ep
0000075c 00dd           2416 	sld.w	0[ep],r27
                        2417 --883:         offset_address = R_TAUJ0_CMOR0 + loc_GetChannelAddress(Channel);
0000075e 23370500       2418 	ld.w	4[sp],r6
                        2419 	jarl	_loc_GetChannelAddress,lp
                        2419 <EXPANSION BEGIN>
                        2419 jarl22 _loc_GetChannelAddress , lp 
00000762 bffffaf8*      2419 <EXPANSION END>
00000766 0ad68000       2420 	addi	128,r10,r26
                        2421 --884:         r_tauj_RegCmor.Word = R_TAUJ_READ16(base_address + offset_address);
                        2422 --line884
                        2423 ..lin.D.3A.5CRenesas_Electronics.5CD1x_RGL.5Crgl_ghs_D1Lx_obj_V1.2E2.2E0.5Cvlib.5Capp.5Cgfx_apps.5Csimple_draw_d1l2.5Ctarget.5Cd1lx_mango_ghs.5Cobj.5Cr_tauj_main.145::
                        2424 .LDWlin145:
0000076a 1af0           2425 	mov	r26,ep
0000076c dbf1           2426 	add	r27,ep
0000076e 70e8           2427 	sld.hu	0[ep],r29
                        2428 --886:         /* timer interval */
                        2429 --887:         if ( Overflow == R_TAUJ_OVERFLOW_OPTION_0) 
00000770 e0c9           2430 	cmp	zero,r25
00000772 ea05*          2431 	bne	.L1780
                        2432 --888:         {
                        2433 --889:             r_tauj_RegCmor.Bits.Cos = 0;
                        2434 --line889
                        2435 ..lin.D.3A.5CRenesas_Electronics.5CD1x_RGL.5Crgl_ghs_D1Lx_obj_V1.2E2.2E0.5Cvlib.5Capp.5Cgfx_apps.5Csimple_draw_d1l2.5Ctarget.5Cd1lx_mango_ghs.5Cobj.5Cr_tauj_main.146::
                        2436 .LDWlin146:
00000774 dd0e3fff       2437 	andi	65343,r29,r1
00000778 c1eeffff       2438 	andi	65535,r1,r29
0000077c d51d*          2439 	br	.L1779

                                                                      Page 42
                                                              C:\Users\YINGAO~1\AppData\Local\Temp\gh_00008g01.si
                        2440 .L1780:
                        2441 --890:         } 
                        2442 --891:         else if ( Overflow == R_TAUJ_OVERFLOW_OPTION_1) 
                        2443 --line891
                        2444 ..lin.D.3A.5CRenesas_Electronics.5CD1x_RGL.5Crgl_ghs_D1Lx_obj_V1.2E2.2E0.5Cvlib.5Capp.5Cgfx_apps.5Csimple_draw_d1l2.5Ctarget.5Cd1lx_mango_ghs.5Cobj.5Cr_tauj_main.147::
                        2445 .LDWlin147:
0000077e 61ca           2446 	cmp	1,r25
00000780 9a0d*          2447 	bne	.L1783
                        2448 --892:         {
                        2449 --893:             r_tauj_RegCmor.Bits.Cos = 1;
                        2450 --line893
                        2451 ..lin.D.3A.5CRenesas_Electronics.5CD1x_RGL.5Crgl_ghs_D1Lx_obj_V1.2E2.2E0.5Cvlib.5Capp.5Cgfx_apps.5Csimple_draw_d1l2.5Ctarget.5Cd1lx_mango_ghs.5Cobj.5Cr_tauj_main.148::
                        2452 .LDWlin148:
00000782 200e3fff       2453 	movea	-193,zero,r1
00000786 5d09           2454 	and	r29,r1
00000788 810e4000       2455 	ori	64,r1,r1
0000078c c1eeffff       2456 	andi	65535,r1,r29
00000790 b515*          2457 	br	.L1779
                        2458 .L1783:
                        2459 --894:         } 
                        2460 --895:         else if ( Overflow == R_TAUJ_OVERFLOW_OPTION_2) 
                        2461 --line895
                        2462 ..lin.D.3A.5CRenesas_Electronics.5CD1x_RGL.5Crgl_ghs_D1Lx_obj_V1.2E2.2E0.5Cvlib.5Capp.5Cgfx_apps.5Csimple_draw_d1l2.5Ctarget.5Cd1lx_mango_ghs.5Cobj.5Cr_tauj_main.149::
                        2463 .LDWlin149:
00000792 62ca           2464 	cmp	2,r25
00000794 9a0d*          2465 	bne	.L1786
                        2466 --896:         {
                        2467 --897:             r_tauj_RegCmor.Bits.Cos = 2;
                        2468 --line897
                        2469 ..lin.D.3A.5CRenesas_Electronics.5CD1x_RGL.5Crgl_ghs_D1Lx_obj_V1.2E2.2E0.5Cvlib.5Capp.5Cgfx_apps.5Csimple_draw_d1l2.5Ctarget.5Cd1lx_mango_ghs.5Cobj.5Cr_tauj_main.150::
                        2470 .LDWlin150:
00000796 200e3fff       2471 	movea	-193,zero,r1
0000079a 5d09           2472 	and	r29,r1
0000079c 810e8000       2473 	ori	128,r1,r1
000007a0 c1eeffff       2474 	andi	65535,r1,r29
000007a4 950d*          2475 	br	.L1779
                        2476 .L1786:
                        2477 --898:         } 
                        2478 --899:         else if ( Overflow == R_TAUJ_OVERFLOW_OPTION_3) 
                        2479 --line899
                        2480 ..lin.D.3A.5CRenesas_Electronics.5CD1x_RGL.5Crgl_ghs_D1Lx_obj_V1.2E2.2E0.5Cvlib.5Capp.5Cgfx_apps.5Csimple_draw_d1l2.5Ctarget.5Cd1lx_mango_ghs.5Cobj.5Cr_tauj_main.151::
                        2481 .LDWlin151:
000007a6 63ca           2482 	cmp	3,r25
000007a8 ea05*          2483 	bne	.L1789
                        2484 --900:         {
                        2485 --901:             r_tauj_RegCmor.Bits.Cos = 3;
                        2486 --line901
                        2487 ..lin.D.3A.5CRenesas_Electronics.5CD1x_RGL.5Crgl_ghs_D1Lx_obj_V1.2E2.2E0.5Cvlib.5Capp.5Cgfx_apps.5Csimple_draw_d1l2.5Ctarget.5Cd1lx_mango_ghs.5Cobj.5Cr_tauj_main.152::
                        2488 .LDWlin152:
000007aa 9d0ec000       2489 	ori	192,r29,r1
000007ae c1eeffff       2490 	andi	65535,r1,r29
000007b2 a505*          2491 	br	.L1779
                        2492 .L1789:
                        2493 --902:         } 
                        2494 --903:         else 
                        2495 --904:         {
                        2496 --905:             /* error */
                        2497 --906:             error_mode = R_TAUJ_ERR_RANGE;
                        2498 --line906
                        2499 ..lin.D.3A.5CRenesas_Electronics.5CD1x_RGL.5Crgl_ghs_D1Lx_obj_V1.2E2.2E0.5Cvlib.5Capp.5Cgfx_apps.5Csimple_draw_d1l2.5Ctarget.5Cd1lx_mango_ghs.5Cobj.5Cr_tauj_main.153::
                        2500 .LDWlin153:

                                                                      Page 43
                                                              C:\Users\YINGAO~1\AppData\Local\Temp\gh_00008g01.si
000007b4 02e2           2501 	mov	2,r28
                        2502 .L1779:
                        2503 --907:         }
                        2504 --908:     }
                        2505 --910:     /* if no error then update the register */
                        2506 --911:     if ( error_mode == R_TAUJ_ERR_OK) 
000007b6 e0e1           2507 	cmp	zero,r28
000007b8 da0d*          2508 	bne	.L1792
                        2509 --912:     {
                        2510 --913:         /* update the CMOR Channel Mode OS Register */
                        2511 --914:         R_TAUJ_WRITE16(base_address + offset_address, r_tauj_RegCmor.Word);
                        2512 --line914
                        2513 ..lin.D.3A.5CRenesas_Electronics.5CD1x_RGL.5Crgl_ghs_D1Lx_obj_V1.2E2.2E0.5Cvlib.5Capp.5Cgfx_apps.5Csimple_draw_d1l2.5Ctarget.5Cd1lx_mango_ghs.5Cobj.5Cr_tauj_main.154::
                        2514 .LDWlin154:
000007ba 1af0           2515 	mov	r26,ep
000007bc dbf1           2516 	add	r27,ep
000007be 80ec           2517 	sst.h	r29,0[ep]
                        2518 --915:         /* check values! */
                        2519 --916:         while (R_TAUJ_READ16(base_address + offset_address) != r_tauj_RegCmor.Word) 
000007c0 c505*          2520 	br	.L1794
                        2521 .L1796:
                        2522 --917:         {
                        2523 --918:             R_TAUJ_WRITE16(base_address + offset_address, r_tauj_RegCmor.Word);
                        2524 --line918
                        2525 ..lin.D.3A.5CRenesas_Electronics.5CD1x_RGL.5Crgl_ghs_D1Lx_obj_V1.2E2.2E0.5Cvlib.5Capp.5Cgfx_apps.5Csimple_draw_d1l2.5Ctarget.5Cd1lx_mango_ghs.5Cobj.5Cr_tauj_main.155::
                        2526 .LDWlin155:
000007c2 1af0           2527 	mov	r26,ep
000007c4 dbf1           2528 	add	r27,ep
000007c6 80ec           2529 	sst.h	r29,0[ep]
                        2530 .L1794:
000007c8 1af0           2531 	mov	r26,ep
000007ca dbf1           2532 	add	r27,ep
000007cc 7008           2533 	sld.hu	0[ep],r1
000007ce fd09           2534 	cmp	r29,r1
000007d0 9afd*          2535 	bne	.L1796
                        2536 .L1792:
                        2537 --919:         }           
                        2538 --920:     }
                        2539 --921:     return error_mode;
                        2540 --line921
                        2541 ..lin.D.3A.5CRenesas_Electronics.5CD1x_RGL.5Crgl_ghs_D1Lx_obj_V1.2E2.2E0.5Cvlib.5Capp.5Cgfx_apps.5Csimple_draw_d1l2.5Ctarget.5Cd1lx_mango_ghs.5Cobj.5Cr_tauj_main.156::
                        2542 .LDWlin156:
000007d2 1c50           2543 	mov	r28,r10
                        2544 --	    .ef
                        2545 .LDW44:
000007d4 4406ff70       2546 	dispose	2,{r25,r26,r27,r28,r29,r31},[lp]
                        2547 	.type	_R_TAUJ_SetCaptureOverflow,@function
                        2548 	.size	_R_TAUJ_SetCaptureOverflow,.-_R_TAUJ_SetCaptureOverflow
                        2549 	.align	2
                        2550 .LDW54:
                        2551 --_error_mode	r28	local
                        2552 --_base_address	r27	local
                        2553 --_offset_address	r26	local
                        2554 --_r_tauj_RegCmor	r29	local
                        2555 
                        2556 --_Unit	0[sp]	param
                        2557 --_Channel	4[sp]	param
                        2558 --_Overflow	r25	param
                        2559 
                        2560 	.section ".bss","awb"
                        2561 .L1862:

                                                                      Page 44
                                                              C:\Users\YINGAO~1\AppData\Local\Temp\gh_00008g01.si
                        2562 	.type	.L1862,@object
                        2563 	.size	.L1862,0
                        2564 	.data
                        2565 	.text
                        2566 
                        2567 --922: }
                        2568 
                        2569 --925: /***********************************************************
                        2570 --926:   Function: R_TAUJ_EnableIntAtStartUp
                        2571 --927: */
                        2572 --929: r_tauj_Error_t R_TAUJ_EnableIntAtStartUp(
                        2573 	.align	2
                        2574 	.align	2
                        2575 	.global	_R_TAUJ_EnableIntAtStartUp
                        2576 _R_TAUJ_EnableIntAtStartUp:
000007d8 8607e170       2577 	prepare	{r25,r26,r27,r28,r29,r31},3
000007dc c85eff00       2578 	andi	255,r8,r11
000007e0 06c8           2579 	mov	r6,r25
000007e2 633f0900       2580 	st.w	r7,8[sp]
000007e6 00ea           2581 	mov	0,r29
000007e8 435f0300       2582 	st.b	r11,3[sp]
                        2583 --	    .bf
                        2584 .LDW64:
                        2585 --930:     uint32_t Unit,
                        2586 --931:     r_tauj_Channel_t Channel,
                        2587 --932:     uint8_t IntAtStartUp)
                        2588 --933: {
                        2589 --934:     r_tauj_Error_t error_mode = R_TAUJ_ERR_OK;
000007ec 00d2           2590 	mov	0,r26
                        2591 --935:     uint32_t base_address = 0;
000007ee 00e2           2592 	mov	0,r28
                        2593 --936:     uint32_t offset_address = 0;
000007f0 00da           2594 	mov	0,r27
                        2595 --937:     r_tauj_RegCmor_t r_tauj_RegCmor;
                        2596 --939:     /* check the instance is allowed */
                        2597 --940:     if ( Unit > (R_TAUJ_MACRO_NUM - 1)) 
000007f2 e0c9           2598 	cmp	zero,r25
000007f4 b305*          2599 	bnh	.L1945
                        2600 --941:     {
                        2601 --942:         /* instance too high */
                        2602 --943:         error_mode = R_TAUJ_ERR_INSTANCE;
                        2603 --line943
                        2604 ..lin.D.3A.5CRenesas_Electronics.5CD1x_RGL.5Crgl_ghs_D1Lx_obj_V1.2E2.2E0.5Cvlib.5Capp.5Cgfx_apps.5Csimple_draw_d1l2.5Ctarget.5Cd1lx_mango_ghs.5Cobj.5Cr_tauj_main.157::
                        2605 .LDWlin157:
000007f6 03d2           2606 	mov	3,r26
000007f8 8525*          2607 	br	.L1947
                        2608 .L1945:
                        2609 --944:     } 
                        2610 --945:     else 
                        2611 --946:     {
                        2612 --947:         /* ok, update the CMOR register value */
                        2613 --948:         base_address = R_TAUJ_Dev[Unit].BaseAddr;
                        2614 --line948
                        2615 ..lin.D.3A.5CRenesas_Electronics.5CD1x_RGL.5Crgl_ghs_D1Lx_obj_V1.2E2.2E0.5Cvlib.5Capp.5Cgfx_apps.5Csimple_draw_d1l2.5Ctarget.5Cd1lx_mango_ghs.5Cobj.5Cr_tauj_main.158::
                        2616 .LDWlin158:
000007fa 19f0           2617 	mov	r25,ep
000007fc fe00           2618 	sxh	ep
000007fe fef61400       2619 	mulhi	20,ep,ep
00000802 2b0600000000*  2620 	mov	_R_TAUJ_Dev,r11
00000808 cbf1           2621 	add	r11,ep
0000080a 00e5           2622 	sld.w	0[ep],r28

                                                                      Page 45
                                                              C:\Users\YINGAO~1\AppData\Local\Temp\gh_00008g01.si
                        2623 --949:         offset_address = R_TAUJ0_CMOR0 + loc_GetChannelAddress(Channel);
0000080c 23370900       2624 	ld.w	8[sp],r6
                        2625 	jarl	_loc_GetChannelAddress,lp
                        2625 <EXPANSION BEGIN>
                        2625 jarl22 _loc_GetChannelAddress , lp 
00000810 bfff4cf8*      2625 <EXPANSION END>
00000814 0ade8000       2626 	addi	128,r10,r27
                        2627 --950:         r_tauj_RegCmor.Word = R_TAUJ_READ16(base_address + offset_address);
                        2628 --line950
                        2629 ..lin.D.3A.5CRenesas_Electronics.5CD1x_RGL.5Crgl_ghs_D1Lx_obj_V1.2E2.2E0.5Cvlib.5Capp.5Cgfx_apps.5Csimple_draw_d1l2.5Ctarget.5Cd1lx_mango_ghs.5Cobj.5Cr_tauj_main.159::
                        2630 .LDWlin159:
00000818 1bf0           2631 	mov	r27,ep
0000081a dcf1           2632 	add	r28,ep
0000081c 70e8           2633 	sld.hu	0[ep],r29
                        2634 --952:         /* timer interval */
                        2635 --953:         if ( IntAtStartUp == 1) 
0000081e a35f0300       2636 	ld.bu	3[sp],r11
00000822 615a           2637 	cmp	1,r11
00000824 ea05*          2638 	bne	.L1948
                        2639 --954:         {
                        2640 --955:             r_tauj_RegCmor.Bits.Md0 = 1;
                        2641 --line955
                        2642 ..lin.D.3A.5CRenesas_Electronics.5CD1x_RGL.5Crgl_ghs_D1Lx_obj_V1.2E2.2E0.5Cvlib.5Capp.5Cgfx_apps.5Csimple_draw_d1l2.5Ctarget.5Cd1lx_mango_ghs.5Cobj.5Cr_tauj_main.160::
                        2643 .LDWlin160:
00000826 9d0e0100       2644 	ori	1,r29,r1
0000082a c1eeffff       2645 	andi	65535,r1,r29
0000082e d505*          2646 	br	.L1947
                        2647 .L1948:
                        2648 --956:         } 
                        2649 --957:         else 
                        2650 --958:         {
                        2651 --959:             r_tauj_RegCmor.Bits.Md0 = 0;
                        2652 --line959
                        2653 ..lin.D.3A.5CRenesas_Electronics.5CD1x_RGL.5Crgl_ghs_D1Lx_obj_V1.2E2.2E0.5Cvlib.5Capp.5Cgfx_apps.5Csimple_draw_d1l2.5Ctarget.5Cd1lx_mango_ghs.5Cobj.5Cr_tauj_main.161::
                        2654 .LDWlin161:
00000830 dd0efeff       2655 	andi	65534,r29,r1
00000834 c1eeffff       2656 	andi	65535,r1,r29
                        2657 .L1947:
                        2658 --960:         }
                        2659 --961:     }
                        2660 --963:     /* if no error then update the register */
                        2661 --964:     if ( error_mode == R_TAUJ_ERR_OK) 
00000838 e0d1           2662 	cmp	zero,r26
0000083a ca1d*          2663 	bne	.L1951
                        2664 --965:     {
                        2665 --966:         /* update the CMOR Channel Mode OS Register */
                        2666 --967:         base_address = R_TAUJ_Dev[Unit].BaseAddr;
                        2667 --line967
                        2668 ..lin.D.3A.5CRenesas_Electronics.5CD1x_RGL.5Crgl_ghs_D1Lx_obj_V1.2E2.2E0.5Cvlib.5Capp.5Cgfx_apps.5Csimple_draw_d1l2.5Ctarget.5Cd1lx_mango_ghs.5Cobj.5Cr_tauj_main.162::
                        2669 .LDWlin162:
0000083c 19f0           2670 	mov	r25,ep
0000083e fe00           2671 	sxh	ep
00000840 fef61400       2672 	mulhi	20,ep,ep
00000844 2b0600000000*  2673 	mov	_R_TAUJ_Dev,r11
0000084a cbf1           2674 	add	r11,ep
0000084c 00e5           2675 	sld.w	0[ep],r28
                        2676 --968:         offset_address = R_TAUJ0_CMOR0 + loc_GetChannelAddress(Channel);
0000084e 23370900       2677 	ld.w	8[sp],r6
                        2678 	jarl	_loc_GetChannelAddress,lp
                        2678 <EXPANSION BEGIN>
                        2678 jarl22 _loc_GetChannelAddress , lp 

                                                                      Page 46
                                                              C:\Users\YINGAO~1\AppData\Local\Temp\gh_00008g01.si
00000852 bfff0af8*      2678 <EXPANSION END>
00000856 0ade8000       2679 	addi	128,r10,r27
                        2680 --969:         R_TAUJ_WRITE16(base_address + offset_address, r_tauj_RegCmor.Word);
                        2681 --line969
                        2682 ..lin.D.3A.5CRenesas_Electronics.5CD1x_RGL.5Crgl_ghs_D1Lx_obj_V1.2E2.2E0.5Cvlib.5Capp.5Cgfx_apps.5Csimple_draw_d1l2.5Ctarget.5Cd1lx_mango_ghs.5Cobj.5Cr_tauj_main.163::
                        2683 .LDWlin163:
0000085a 1bf0           2684 	mov	r27,ep
0000085c dcf1           2685 	add	r28,ep
0000085e 80ec           2686 	sst.h	r29,0[ep]
                        2687 --970:         /* check values! */
                        2688 --971:         while (R_TAUJ_READ16(base_address + offset_address) != r_tauj_RegCmor.Word) 
00000860 c505*          2689 	br	.L1953
                        2690 .L1955:
                        2691 --972:         {
                        2692 --973:             R_TAUJ_WRITE16(base_address + offset_address, r_tauj_RegCmor.Word);
                        2693 --line973
                        2694 ..lin.D.3A.5CRenesas_Electronics.5CD1x_RGL.5Crgl_ghs_D1Lx_obj_V1.2E2.2E0.5Cvlib.5Capp.5Cgfx_apps.5Csimple_draw_d1l2.5Ctarget.5Cd1lx_mango_ghs.5Cobj.5Cr_tauj_main.164::
                        2695 .LDWlin164:
00000862 1bf0           2696 	mov	r27,ep
00000864 dcf1           2697 	add	r28,ep
00000866 80ec           2698 	sst.h	r29,0[ep]
                        2699 .L1953:
00000868 1bf0           2700 	mov	r27,ep
0000086a dcf1           2701 	add	r28,ep
0000086c 7008           2702 	sld.hu	0[ep],r1
0000086e fd09           2703 	cmp	r29,r1
00000870 9afd*          2704 	bne	.L1955
                        2705 .L1951:
                        2706 --974:         }           
                        2707 --975:     }
                        2708 --976:     return error_mode;
                        2709 --line976
                        2710 ..lin.D.3A.5CRenesas_Electronics.5CD1x_RGL.5Crgl_ghs_D1Lx_obj_V1.2E2.2E0.5Cvlib.5Capp.5Cgfx_apps.5Csimple_draw_d1l2.5Ctarget.5Cd1lx_mango_ghs.5Cobj.5Cr_tauj_main.165::
                        2711 .LDWlin165:
00000872 1a50           2712 	mov	r26,r10
                        2713 --	    .ef
                        2714 .LDW74:
00000874 4606ff70       2715 	dispose	3,{r25,r26,r27,r28,r29,r31},[lp]
                        2716 	.type	_R_TAUJ_EnableIntAtStartUp,@function
                        2717 	.size	_R_TAUJ_EnableIntAtStartUp,.-_R_TAUJ_EnableIntAtStartUp
                        2718 	.align	2
                        2719 .LDW84:
                        2720 --_error_mode	r26	local
                        2721 --_base_address	r28	local
                        2722 --_offset_address	r27	local
                        2723 --_r_tauj_RegCmor	r29	local
                        2724 
                        2725 --_Unit	r25	param
                        2726 --_Channel	8[sp]	param
                        2727 --_IntAtStartUp	3[sp]	param
                        2728 
                        2729 	.section ".bss","awb"
                        2730 .L2014:
                        2731 	.type	.L2014,@object
                        2732 	.size	.L2014,0
                        2733 	.data
                        2734 	.text
                        2735 
                        2736 --977: }
                        2737 
                        2738 --980: /***********************************************************

                                                                      Page 47
                                                              C:\Users\YINGAO~1\AppData\Local\Temp\gh_00008g01.si
                        2739 --981:   Function: R_TAUJ_SetMaster
                        2740 --982: */
                        2741 --984: r_tauj_Error_t R_TAUJ_SetMaster(uint32_t Unit, r_tauj_Channel_t Channel, uint8_t Master) 
                        2742 	.align	2
                        2743 	.align	2
                        2744 	.global	_R_TAUJ_SetMaster
                        2745 _R_TAUJ_SetMaster:
00000878 8607e170       2746 	prepare	{r25,r26,r27,r28,r29,r31},3
0000087c c85eff00       2747 	andi	255,r8,r11
00000880 06c8           2748 	mov	r6,r25
00000882 633f0900       2749 	st.w	r7,8[sp]
00000886 00ea           2750 	mov	0,r29
00000888 435f0300       2751 	st.b	r11,3[sp]
                        2752 --	    .bf
                        2753 .LDW94:
                        2754 --985: {
                        2755 --986:     r_tauj_Error_t error_mode = R_TAUJ_ERR_OK;
0000088c 00d2           2756 	mov	0,r26
                        2757 --987:     uint32_t base_address = 0;
0000088e 00e2           2758 	mov	0,r28
                        2759 --988:     uint32_t offset_address = 0;
00000890 00da           2760 	mov	0,r27
                        2761 --989:     r_tauj_RegCmor_t r_tauj_RegCmor;
                        2762 --991:     /* check the instance is allowed */
                        2763 --992:     if ( Unit > (R_TAUJ_MACRO_NUM - 1)) 
00000892 e0c9           2764 	cmp	zero,r25
00000894 b305*          2765 	bnh	.L2085
                        2766 --993:     {
                        2767 --994:         /* instance too high */
                        2768 --995:         error_mode = R_TAUJ_ERR_INSTANCE;
                        2769 --line995
                        2770 ..lin.D.3A.5CRenesas_Electronics.5CD1x_RGL.5Crgl_ghs_D1Lx_obj_V1.2E2.2E0.5Cvlib.5Capp.5Cgfx_apps.5Csimple_draw_d1l2.5Ctarget.5Cd1lx_mango_ghs.5Cobj.5Cr_tauj_main.166::
                        2771 .LDWlin166:
00000896 03d2           2772 	mov	3,r26
00000898 8525*          2773 	br	.L2087
                        2774 .L2085:
                        2775 --996:     } 
                        2776 --997:     else 
                        2777 --998:     {
                        2778 --999:         /* ok, update the CMOR register value */
                        2779 --1000:         base_address = R_TAUJ_Dev[Unit].BaseAddr;
                        2780 --line1000
                        2781 ..lin.D.3A.5CRenesas_Electronics.5CD1x_RGL.5Crgl_ghs_D1Lx_obj_V1.2E2.2E0.5Cvlib.5Capp.5Cgfx_apps.5Csimple_draw_d1l2.5Ctarget.5Cd1lx_mango_ghs.5Cobj.5Cr_tauj_main.167::
                        2782 .LDWlin167:
0000089a 19f0           2783 	mov	r25,ep
0000089c fe00           2784 	sxh	ep
0000089e fef61400       2785 	mulhi	20,ep,ep
000008a2 2b0600000000*  2786 	mov	_R_TAUJ_Dev,r11
000008a8 cbf1           2787 	add	r11,ep
000008aa 00e5           2788 	sld.w	0[ep],r28
                        2789 --1001:         offset_address = R_TAUJ0_CMOR0 + loc_GetChannelAddress(Channel);
000008ac 23370900       2790 	ld.w	8[sp],r6
                        2791 	jarl	_loc_GetChannelAddress,lp
                        2791 <EXPANSION BEGIN>
                        2791 jarl22 _loc_GetChannelAddress , lp 
000008b0 bfffacf7*      2791 <EXPANSION END>
000008b4 0ade8000       2792 	addi	128,r10,r27
                        2793 --1002:         r_tauj_RegCmor.Word = R_TAUJ_READ16(base_address + offset_address);
                        2794 --line1002
                        2795 ..lin.D.3A.5CRenesas_Electronics.5CD1x_RGL.5Crgl_ghs_D1Lx_obj_V1.2E2.2E0.5Cvlib.5Capp.5Cgfx_apps.5Csimple_draw_d1l2.5Ctarget.5Cd1lx_mango_ghs.5Cobj.5Cr_tauj_main.168::
                        2796 .LDWlin168:

                                                                      Page 48
                                                              C:\Users\YINGAO~1\AppData\Local\Temp\gh_00008g01.si
000008b8 1bf0           2797 	mov	r27,ep
000008ba dcf1           2798 	add	r28,ep
000008bc 70e8           2799 	sld.hu	0[ep],r29
                        2800 --1004:         /* timer interval */
                        2801 --1005:         if ( Master == 1) 
000008be a35f0300       2802 	ld.bu	3[sp],r11
000008c2 615a           2803 	cmp	1,r11
000008c4 ea05*          2804 	bne	.L2088
                        2805 --1006:         {
                        2806 --1007:             r_tauj_RegCmor.Bits.Mas = 1;
                        2807 --line1007
                        2808 ..lin.D.3A.5CRenesas_Electronics.5CD1x_RGL.5Crgl_ghs_D1Lx_obj_V1.2E2.2E0.5Cvlib.5Capp.5Cgfx_apps.5Csimple_draw_d1l2.5Ctarget.5Cd1lx_mango_ghs.5Cobj.5Cr_tauj_main.169::
                        2809 .LDWlin169:
000008c6 9d0e0008       2810 	ori	2048,r29,r1
000008ca c1eeffff       2811 	andi	65535,r1,r29
000008ce d505*          2812 	br	.L2087
                        2813 .L2088:
                        2814 --1008:         } 
                        2815 --1009:         else 
                        2816 --1010:         {
                        2817 --1011:             r_tauj_RegCmor.Bits.Mas = 0;
                        2818 --line1011
                        2819 ..lin.D.3A.5CRenesas_Electronics.5CD1x_RGL.5Crgl_ghs_D1Lx_obj_V1.2E2.2E0.5Cvlib.5Capp.5Cgfx_apps.5Csimple_draw_d1l2.5Ctarget.5Cd1lx_mango_ghs.5Cobj.5Cr_tauj_main.170::
                        2820 .LDWlin170:
000008d0 dd0efff7       2821 	andi	63487,r29,r1
000008d4 c1eeffff       2822 	andi	65535,r1,r29
                        2823 .L2087:
                        2824 --1012:         }
                        2825 --1013:     }
                        2826 --1015:     /* if no error then update the register */
                        2827 --1016:     if ( error_mode == R_TAUJ_ERR_OK) 
000008d8 e0d1           2828 	cmp	zero,r26
000008da ca1d*          2829 	bne	.L2091
                        2830 --1017:     {
                        2831 --1018:         /* update the CMOR Channel Mode OS Register */
                        2832 --1019:         base_address = R_TAUJ_Dev[Unit].BaseAddr;
                        2833 --line1019
                        2834 ..lin.D.3A.5CRenesas_Electronics.5CD1x_RGL.5Crgl_ghs_D1Lx_obj_V1.2E2.2E0.5Cvlib.5Capp.5Cgfx_apps.5Csimple_draw_d1l2.5Ctarget.5Cd1lx_mango_ghs.5Cobj.5Cr_tauj_main.171::
                        2835 .LDWlin171:
000008dc 19f0           2836 	mov	r25,ep
000008de fe00           2837 	sxh	ep
000008e0 fef61400       2838 	mulhi	20,ep,ep
000008e4 2b0600000000*  2839 	mov	_R_TAUJ_Dev,r11
000008ea cbf1           2840 	add	r11,ep
000008ec 00e5           2841 	sld.w	0[ep],r28
                        2842 --1020:         offset_address = R_TAUJ0_CMOR0 + loc_GetChannelAddress(Channel);
000008ee 23370900       2843 	ld.w	8[sp],r6
                        2844 	jarl	_loc_GetChannelAddress,lp
                        2844 <EXPANSION BEGIN>
                        2844 jarl22 _loc_GetChannelAddress , lp 
000008f2 bfff6af7*      2844 <EXPANSION END>
000008f6 0ade8000       2845 	addi	128,r10,r27
                        2846 --1021:         R_TAUJ_WRITE16(base_address + offset_address, r_tauj_RegCmor.Word);
                        2847 --line1021
                        2848 ..lin.D.3A.5CRenesas_Electronics.5CD1x_RGL.5Crgl_ghs_D1Lx_obj_V1.2E2.2E0.5Cvlib.5Capp.5Cgfx_apps.5Csimple_draw_d1l2.5Ctarget.5Cd1lx_mango_ghs.5Cobj.5Cr_tauj_main.172::
                        2849 .LDWlin172:
000008fa 1bf0           2850 	mov	r27,ep
000008fc dcf1           2851 	add	r28,ep
000008fe 80ec           2852 	sst.h	r29,0[ep]
                        2853 --1022:         /* check values! */
                        2854 --1023:         while (R_TAUJ_READ16(base_address + offset_address) != r_tauj_RegCmor.Word) 

                                                                      Page 49
                                                              C:\Users\YINGAO~1\AppData\Local\Temp\gh_00008g01.si
00000900 c505*          2855 	br	.L2093
                        2856 .L2095:
                        2857 --1024:         {
                        2858 --1025:             R_TAUJ_WRITE16(base_address + offset_address, r_tauj_RegCmor.Word);
                        2859 --line1025
                        2860 ..lin.D.3A.5CRenesas_Electronics.5CD1x_RGL.5Crgl_ghs_D1Lx_obj_V1.2E2.2E0.5Cvlib.5Capp.5Cgfx_apps.5Csimple_draw_d1l2.5Ctarget.5Cd1lx_mango_ghs.5Cobj.5Cr_tauj_main.173::
                        2861 .LDWlin173:
00000902 1bf0           2862 	mov	r27,ep
00000904 dcf1           2863 	add	r28,ep
00000906 80ec           2864 	sst.h	r29,0[ep]
                        2865 .L2093:
00000908 1bf0           2866 	mov	r27,ep
0000090a dcf1           2867 	add	r28,ep
0000090c 7008           2868 	sld.hu	0[ep],r1
0000090e fd09           2869 	cmp	r29,r1
00000910 9afd*          2870 	bne	.L2095
                        2871 .L2091:
                        2872 --1026:         }           
                        2873 --1027:     }
                        2874 --1028:     return error_mode;
                        2875 --line1028
                        2876 ..lin.D.3A.5CRenesas_Electronics.5CD1x_RGL.5Crgl_ghs_D1Lx_obj_V1.2E2.2E0.5Cvlib.5Capp.5Cgfx_apps.5Csimple_draw_d1l2.5Ctarget.5Cd1lx_mango_ghs.5Cobj.5Cr_tauj_main.174::
                        2877 .LDWlin174:
00000912 1a50           2878 	mov	r26,r10
                        2879 --	    .ef
                        2880 .LDW05:
00000914 4606ff70       2881 	dispose	3,{r25,r26,r27,r28,r29,r31},[lp]
                        2882 	.type	_R_TAUJ_SetMaster,@function
                        2883 	.size	_R_TAUJ_SetMaster,.-_R_TAUJ_SetMaster
                        2884 	.align	2
                        2885 .LDW15:
                        2886 --_error_mode	r26	local
                        2887 --_base_address	r28	local
                        2888 --_offset_address	r27	local
                        2889 --_r_tauj_RegCmor	r29	local
                        2890 
                        2891 --_Unit	r25	param
                        2892 --_Channel	8[sp]	param
                        2893 --_Master	3[sp]	param
                        2894 
                        2895 	.section ".bss","awb"
                        2896 .L2142:
                        2897 	.type	.L2142,@object
                        2898 	.size	.L2142,0
                        2899 	.data
                        2900 	.text
                        2901 
                        2902 --1029: }
                        2903 
                        2904 --1032: /***********************************************************
                        2905 --1033:   Function: R_TAUJ_SetTrigger
                        2906 --1034: */
                        2907 --1036: r_tauj_Error_t R_TAUJ_SetTrigger(uint32_t Unit, r_tauj_Channel_t Channel, r_tauj_Trigger_t Trigger) 
                        2908 	.align	2
                        2909 	.align	2
                        2910 	.global	_R_TAUJ_SetTrigger
                        2911 _R_TAUJ_SetTrigger:
00000918 8607e170       2912 	prepare	{r25,r26,r27,r28,r29,r31},3
0000091c 63370500       2913 	st.w	r6,4[sp]
00000920 08d0           2914 	mov	r8,r26
00000922 633f0900       2915 	st.w	r7,8[sp]

                                                                      Page 50
                                                              C:\Users\YINGAO~1\AppData\Local\Temp\gh_00008g01.si
00000926 00ea           2916 	mov	0,r29
                        2917 --	    .bf
                        2918 .LDW25:
                        2919 --1037: {
                        2920 --1038:     r_tauj_Error_t error_mode = R_TAUJ_ERR_OK;
00000928 00ca           2921 	mov	0,r25
                        2922 --1039:     uint32_t base_address = 0;
0000092a 00e2           2923 	mov	0,r28
                        2924 --1040:     uint32_t offset_address = 0;
0000092c 00da           2925 	mov	0,r27
                        2926 --1041:     r_tauj_RegCmor_t r_tauj_RegCmor;
                        2927 --1043:     /* check the instance is allowed */
                        2928 --1044:     if ( Unit > (R_TAUJ_MACRO_NUM - 1)) 
0000092e 235f0500       2929 	ld.w	4[sp],r11
00000932 e059           2930 	cmp	zero,r11
00000934 b305*          2931 	bnh	.L2213
                        2932 --1045:     {
                        2933 --1046:         /* instance too high */
                        2934 --1047:         error_mode = R_TAUJ_ERR_INSTANCE;
                        2935 --line1047
                        2936 ..lin.D.3A.5CRenesas_Electronics.5CD1x_RGL.5Crgl_ghs_D1Lx_obj_V1.2E2.2E0.5Cvlib.5Capp.5Cgfx_apps.5Csimple_draw_d1l2.5Ctarget.5Cd1lx_mango_ghs.5Cobj.5Cr_tauj_main.175::
                        2937 .LDWlin175:
00000936 03ca           2938 	mov	3,r25
00000938 c565*          2939 	br	.L2215
                        2940 .L2213:
                        2941 --1048:     } 
                        2942 --1049:     else 
                        2943 --1050:     {
                        2944 --1051:         /* ok, update the CMOR register value */
                        2945 --1052:         base_address = R_TAUJ_Dev[Unit].BaseAddr;
                        2946 --line1052
                        2947 ..lin.D.3A.5CRenesas_Electronics.5CD1x_RGL.5Crgl_ghs_D1Lx_obj_V1.2E2.2E0.5Cvlib.5Capp.5Cgfx_apps.5Csimple_draw_d1l2.5Ctarget.5Cd1lx_mango_ghs.5Cobj.5Cr_tauj_main.176::
                        2948 .LDWlin176:
0000093a 235f0500       2949 	ld.w	4[sp],r11
0000093e 2c0600000000*  2950 	mov	_R_TAUJ_Dev,r12
00000944 0bf0           2951 	mov	r11,ep
00000946 fe00           2952 	sxh	ep
00000948 fef61400       2953 	mulhi	20,ep,ep
0000094c ccf1           2954 	add	r12,ep
0000094e 00e5           2955 	sld.w	0[ep],r28
                        2956 --1053:         offset_address = R_TAUJ0_CMOR0 + loc_GetChannelAddress(Channel);
00000950 23370900       2957 	ld.w	8[sp],r6
                        2958 	jarl	_loc_GetChannelAddress,lp
                        2958 <EXPANSION BEGIN>
                        2958 jarl22 _loc_GetChannelAddress , lp 
00000954 bfff08f7*      2958 <EXPANSION END>
00000958 0ade8000       2959 	addi	128,r10,r27
                        2960 --1054:         r_tauj_RegCmor.Word = R_TAUJ_READ16(base_address + offset_address);
                        2961 --line1054
                        2962 ..lin.D.3A.5CRenesas_Electronics.5CD1x_RGL.5Crgl_ghs_D1Lx_obj_V1.2E2.2E0.5Cvlib.5Capp.5Cgfx_apps.5Csimple_draw_d1l2.5Ctarget.5Cd1lx_mango_ghs.5Cobj.5Cr_tauj_main.177::
                        2963 .LDWlin177:
0000095c 1bf0           2964 	mov	r27,ep
0000095e dcf1           2965 	add	r28,ep
00000960 70e8           2966 	sld.hu	0[ep],r29
                        2967 --1056:         /* timer interval */
                        2968 --1057:         if ( Trigger == R_TAUJ_NONE) 
00000962 e0d1           2969 	cmp	zero,r26
00000964 ea05*          2970 	bne	.L2216
                        2971 --1058:         {
                        2972 --1059:             r_tauj_RegCmor.Bits.Sts = LOC_NONE;
                        2973 --line1059

                                                                      Page 51
                                                              C:\Users\YINGAO~1\AppData\Local\Temp\gh_00008g01.si
                        2974 ..lin.D.3A.5CRenesas_Electronics.5CD1x_RGL.5Crgl_ghs_D1Lx_obj_V1.2E2.2E0.5Cvlib.5Capp.5Cgfx_apps.5Csimple_draw_d1l2.5Ctarget.5Cd1lx_mango_ghs.5Cobj.5Cr_tauj_main.178::
                        2975 .LDWlin178:
00000966 dd0efff8       2976 	andi	63743,r29,r1
0000096a c1eeffff       2977 	andi	65535,r1,r29
0000096e 954d*          2978 	br	.L2215
                        2979 .L2216:
                        2980 --1060:         } 
                        2981 --1061:         else if ( Trigger == R_TAUJ_VALID_EDGE_TIN) 
                        2982 --line1061
                        2983 ..lin.D.3A.5CRenesas_Electronics.5CD1x_RGL.5Crgl_ghs_D1Lx_obj_V1.2E2.2E0.5Cvlib.5Capp.5Cgfx_apps.5Csimple_draw_d1l2.5Ctarget.5Cd1lx_mango_ghs.5Cobj.5Cr_tauj_main.179::
                        2984 .LDWlin179:
00000970 61d2           2985 	cmp	1,r26
00000972 9a0d*          2986 	bne	.L2219
                        2987 --1062:         {
                        2988 --1063:             r_tauj_RegCmor.Bits.Sts = LOC_VALID_EDGE_TIN;
                        2989 --line1063
                        2990 ..lin.D.3A.5CRenesas_Electronics.5CD1x_RGL.5Crgl_ghs_D1Lx_obj_V1.2E2.2E0.5Cvlib.5Capp.5Cgfx_apps.5Csimple_draw_d1l2.5Ctarget.5Cd1lx_mango_ghs.5Cobj.5Cr_tauj_main.180::
                        2991 .LDWlin180:
00000974 200efff8       2992 	movea	-1793,zero,r1
00000978 5d09           2993 	and	r29,r1
0000097a 810e0001       2994 	ori	256,r1,r1
0000097e c1eeffff       2995 	andi	65535,r1,r29
00000982 f53d*          2996 	br	.L2215
                        2997 .L2219:
                        2998 --1064:         } 
                        2999 --1065:         else if ( Trigger == R_TAUJ_VALID_EITHER_TIN) 
                        3000 --line1065
                        3001 ..lin.D.3A.5CRenesas_Electronics.5CD1x_RGL.5Crgl_ghs_D1Lx_obj_V1.2E2.2E0.5Cvlib.5Capp.5Cgfx_apps.5Csimple_draw_d1l2.5Ctarget.5Cd1lx_mango_ghs.5Cobj.5Cr_tauj_main.181::
                        3002 .LDWlin181:
00000984 62d2           3003 	cmp	2,r26
00000986 9a0d*          3004 	bne	.L2222
                        3005 --1066:         {
                        3006 --1067:             r_tauj_RegCmor.Bits.Sts = LOC_VALID_EITHER_TIN;
                        3007 --line1067
                        3008 ..lin.D.3A.5CRenesas_Electronics.5CD1x_RGL.5Crgl_ghs_D1Lx_obj_V1.2E2.2E0.5Cvlib.5Capp.5Cgfx_apps.5Csimple_draw_d1l2.5Ctarget.5Cd1lx_mango_ghs.5Cobj.5Cr_tauj_main.182::
                        3009 .LDWlin182:
00000988 200efff8       3010 	movea	-1793,zero,r1
0000098c 5d09           3011 	and	r29,r1
0000098e 810e0002       3012 	ori	512,r1,r1
00000992 c1eeffff       3013 	andi	65535,r1,r29
00000996 d535*          3014 	br	.L2215
                        3015 .L2222:
                        3016 --1068:         } 
                        3017 --1069:         else if ( Trigger == R_TAUJ_RFU_START_TRIG_FROM_MASTER) 
                        3018 --line1069
                        3019 ..lin.D.3A.5CRenesas_Electronics.5CD1x_RGL.5Crgl_ghs_D1Lx_obj_V1.2E2.2E0.5Cvlib.5Capp.5Cgfx_apps.5Csimple_draw_d1l2.5Ctarget.5Cd1lx_mango_ghs.5Cobj.5Cr_tauj_main.183::
                        3020 .LDWlin183:
00000998 63d2           3021 	cmp	3,r26
0000099a 9a0d*          3022 	bne	.L2225
                        3023 --1070:         {
                        3024 --1071:             r_tauj_RegCmor.Bits.Sts = LOC_RFU_START_TRIG_FROM_MASTER;
                        3025 --line1071
                        3026 ..lin.D.3A.5CRenesas_Electronics.5CD1x_RGL.5Crgl_ghs_D1Lx_obj_V1.2E2.2E0.5Cvlib.5Capp.5Cgfx_apps.5Csimple_draw_d1l2.5Ctarget.5Cd1lx_mango_ghs.5Cobj.5Cr_tauj_main.184::
                        3027 .LDWlin184:
0000099c 200efff8       3028 	movea	-1793,zero,r1
000009a0 5d09           3029 	and	r29,r1
000009a2 810e0003       3030 	ori	768,r1,r1
000009a6 c1eeffff       3031 	andi	65535,r1,r29
000009aa b52d*          3032 	br	.L2215
                        3033 .L2225:
                        3034 --1072:         } 

                                                                      Page 52
                                                              C:\Users\YINGAO~1\AppData\Local\Temp\gh_00008g01.si
                        3035 --1073:         else if ( Trigger == R_TAUJ_INT_FROM_MASTER) 
                        3036 --line1073
                        3037 ..lin.D.3A.5CRenesas_Electronics.5CD1x_RGL.5Crgl_ghs_D1Lx_obj_V1.2E2.2E0.5Cvlib.5Capp.5Cgfx_apps.5Csimple_draw_d1l2.5Ctarget.5Cd1lx_mango_ghs.5Cobj.5Cr_tauj_main.185::
                        3038 .LDWlin185:
000009ac 64d2           3039 	cmp	4,r26
000009ae 9a0d*          3040 	bne	.L2228
                        3041 --1074:         {
                        3042 --1075:             r_tauj_RegCmor.Bits.Sts = LOC_INT_FROM_MASTER;
                        3043 --line1075
                        3044 ..lin.D.3A.5CRenesas_Electronics.5CD1x_RGL.5Crgl_ghs_D1Lx_obj_V1.2E2.2E0.5Cvlib.5Capp.5Cgfx_apps.5Csimple_draw_d1l2.5Ctarget.5Cd1lx_mango_ghs.5Cobj.5Cr_tauj_main.186::
                        3045 .LDWlin186:
000009b0 200efff8       3046 	movea	-1793,zero,r1
000009b4 5d09           3047 	and	r29,r1
000009b6 810e0004       3048 	ori	1024,r1,r1
000009ba c1eeffff       3049 	andi	65535,r1,r29
000009be 9525*          3050 	br	.L2215
                        3051 .L2228:
                        3052 --1076:         } 
                        3053 --1077:         else if ( Trigger == R_TAUJ_RFU_INT_FROM_UPPER) 
                        3054 --line1077
                        3055 ..lin.D.3A.5CRenesas_Electronics.5CD1x_RGL.5Crgl_ghs_D1Lx_obj_V1.2E2.2E0.5Cvlib.5Capp.5Cgfx_apps.5Csimple_draw_d1l2.5Ctarget.5Cd1lx_mango_ghs.5Cobj.5Cr_tauj_main.187::
                        3056 .LDWlin187:
000009c0 65d2           3057 	cmp	5,r26
000009c2 9a0d*          3058 	bne	.L2231
                        3059 --1078:         {
                        3060 --1079:             r_tauj_RegCmor.Bits.Sts = LOC_RFU_INT_FROM_UPPER;
                        3061 --line1079
                        3062 ..lin.D.3A.5CRenesas_Electronics.5CD1x_RGL.5Crgl_ghs_D1Lx_obj_V1.2E2.2E0.5Cvlib.5Capp.5Cgfx_apps.5Csimple_draw_d1l2.5Ctarget.5Cd1lx_mango_ghs.5Cobj.5Cr_tauj_main.188::
                        3063 .LDWlin188:
000009c4 200efff8       3064 	movea	-1793,zero,r1
000009c8 5d09           3065 	and	r29,r1
000009ca 810e0005       3066 	ori	1280,r1,r1
000009ce c1eeffff       3067 	andi	65535,r1,r29
000009d2 f515*          3068 	br	.L2215
                        3069 .L2231:
                        3070 --1080:         } 
                        3071 --1081:         else if ( Trigger == R_TAUJ_RFU_TOUT_DEAD_TIME) 
                        3072 --line1081
                        3073 ..lin.D.3A.5CRenesas_Electronics.5CD1x_RGL.5Crgl_ghs_D1Lx_obj_V1.2E2.2E0.5Cvlib.5Capp.5Cgfx_apps.5Csimple_draw_d1l2.5Ctarget.5Cd1lx_mango_ghs.5Cobj.5Cr_tauj_main.189::
                        3074 .LDWlin189:
000009d4 66d2           3075 	cmp	6,r26
000009d6 9a0d*          3076 	bne	.L2234
                        3077 --1082:         {
                        3078 --1083:             r_tauj_RegCmor.Bits.Sts = LOC_RFU_TOUT_DEAD_TIME;
                        3079 --line1083
                        3080 ..lin.D.3A.5CRenesas_Electronics.5CD1x_RGL.5Crgl_ghs_D1Lx_obj_V1.2E2.2E0.5Cvlib.5Capp.5Cgfx_apps.5Csimple_draw_d1l2.5Ctarget.5Cd1lx_mango_ghs.5Cobj.5Cr_tauj_main.190::
                        3081 .LDWlin190:
000009d8 200efff8       3082 	movea	-1793,zero,r1
000009dc 5d09           3083 	and	r29,r1
000009de 810e0006       3084 	ori	1536,r1,r1
000009e2 c1eeffff       3085 	andi	65535,r1,r29
000009e6 d50d*          3086 	br	.L2215
                        3087 .L2234:
                        3088 --1084:         } 
                        3089 --1085:         else if ( Trigger == R_TAUJ_RFU_UP_DOWN_FROM_MASTER) 
                        3090 --line1085
                        3091 ..lin.D.3A.5CRenesas_Electronics.5CD1x_RGL.5Crgl_ghs_D1Lx_obj_V1.2E2.2E0.5Cvlib.5Capp.5Cgfx_apps.5Csimple_draw_d1l2.5Ctarget.5Cd1lx_mango_ghs.5Cobj.5Cr_tauj_main.191::
                        3092 .LDWlin191:
000009e8 67d2           3093 	cmp	7,r26
000009ea ea05*          3094 	bne	.L2237
                        3095 --1086:         {

                                                                      Page 53
                                                              C:\Users\YINGAO~1\AppData\Local\Temp\gh_00008g01.si
                        3096 --1087:             r_tauj_RegCmor.Bits.Sts = LOC_RFU_UP_DOWN_FROM_MASTER;
                        3097 --line1087
                        3098 ..lin.D.3A.5CRenesas_Electronics.5CD1x_RGL.5Crgl_ghs_D1Lx_obj_V1.2E2.2E0.5Cvlib.5Capp.5Cgfx_apps.5Csimple_draw_d1l2.5Ctarget.5Cd1lx_mango_ghs.5Cobj.5Cr_tauj_main.192::
                        3099 .LDWlin192:
000009ec 9d0e0007       3100 	ori	1792,r29,r1
000009f0 c1eeffff       3101 	andi	65535,r1,r29
000009f4 e505*          3102 	br	.L2215
                        3103 .L2237:
                        3104 --1088:         } 
                        3105 --1089:         else 
                        3106 --1090:         {
                        3107 --1091:             r_tauj_RegCmor.Bits.Sts = 0;
                        3108 --line1091
                        3109 ..lin.D.3A.5CRenesas_Electronics.5CD1x_RGL.5Crgl_ghs_D1Lx_obj_V1.2E2.2E0.5Cvlib.5Capp.5Cgfx_apps.5Csimple_draw_d1l2.5Ctarget.5Cd1lx_mango_ghs.5Cobj.5Cr_tauj_main.193::
                        3110 .LDWlin193:
000009f6 dd0efff8       3111 	andi	63743,r29,r1
000009fa c1eeffff       3112 	andi	65535,r1,r29
                        3113 --1092:             error_mode = R_TAUJ_ERR_RANGE;
000009fe 02ca           3114 	mov	2,r25
                        3115 .L2215:
                        3116 --1093:         }
                        3117 --1094:     }
                        3118 --1096:     /* if no error then update the register */
                        3119 --1097:     if ( error_mode == R_TAUJ_ERR_OK) 
00000a00 e0c9           3120 	cmp	zero,r25
00000a02 ea1d*          3121 	bne	.L2240
                        3122 --1098:     {
                        3123 --1099:         /* update the CMOR Channel Mode OS Register */
                        3124 --1100:         base_address = R_TAUJ_Dev[Unit].BaseAddr;
                        3125 --line1100
                        3126 ..lin.D.3A.5CRenesas_Electronics.5CD1x_RGL.5Crgl_ghs_D1Lx_obj_V1.2E2.2E0.5Cvlib.5Capp.5Cgfx_apps.5Csimple_draw_d1l2.5Ctarget.5Cd1lx_mango_ghs.5Cobj.5Cr_tauj_main.194::
                        3127 .LDWlin194:
00000a04 235f0500       3128 	ld.w	4[sp],r11
00000a08 2c0600000000*  3129 	mov	_R_TAUJ_Dev,r12
00000a0e 0bf0           3130 	mov	r11,ep
00000a10 fe00           3131 	sxh	ep
00000a12 fef61400       3132 	mulhi	20,ep,ep
00000a16 ccf1           3133 	add	r12,ep
00000a18 00e5           3134 	sld.w	0[ep],r28
                        3135 --1101:         offset_address = R_TAUJ0_CMOR0 + loc_GetChannelAddress(Channel);
00000a1a 23370900       3136 	ld.w	8[sp],r6
                        3137 	jarl	_loc_GetChannelAddress,lp
                        3137 <EXPANSION BEGIN>
                        3137 jarl22 _loc_GetChannelAddress , lp 
00000a1e bfff3ef6*      3137 <EXPANSION END>
00000a22 0ade8000       3138 	addi	128,r10,r27
                        3139 --1102:         R_TAUJ_WRITE16(base_address + offset_address, r_tauj_RegCmor.Word);
                        3140 --line1102
                        3141 ..lin.D.3A.5CRenesas_Electronics.5CD1x_RGL.5Crgl_ghs_D1Lx_obj_V1.2E2.2E0.5Cvlib.5Capp.5Cgfx_apps.5Csimple_draw_d1l2.5Ctarget.5Cd1lx_mango_ghs.5Cobj.5Cr_tauj_main.195::
                        3142 .LDWlin195:
00000a26 1bf0           3143 	mov	r27,ep
00000a28 dcf1           3144 	add	r28,ep
00000a2a 80ec           3145 	sst.h	r29,0[ep]
                        3146 --1103:         /* check values! */
                        3147 --1104:         while (R_TAUJ_READ16(base_address + offset_address) != r_tauj_RegCmor.Word) 
00000a2c c505*          3148 	br	.L2242
                        3149 .L2244:
                        3150 --1105:         {
                        3151 --1106:             R_TAUJ_WRITE16(base_address + offset_address, r_tauj_RegCmor.Word);
                        3152 --line1106
                        3153 ..lin.D.3A.5CRenesas_Electronics.5CD1x_RGL.5Crgl_ghs_D1Lx_obj_V1.2E2.2E0.5Cvlib.5Capp.5Cgfx_apps.5Csimple_draw_d1l2.5Ctarget.5Cd1lx_mango_ghs.5Cobj.5Cr_tauj_main.196::

                                                                      Page 54
                                                              C:\Users\YINGAO~1\AppData\Local\Temp\gh_00008g01.si
                        3154 .LDWlin196:
00000a2e 1bf0           3155 	mov	r27,ep
00000a30 dcf1           3156 	add	r28,ep
00000a32 80ec           3157 	sst.h	r29,0[ep]
                        3158 .L2242:
00000a34 1bf0           3159 	mov	r27,ep
00000a36 dcf1           3160 	add	r28,ep
00000a38 7008           3161 	sld.hu	0[ep],r1
00000a3a fd09           3162 	cmp	r29,r1
00000a3c 9afd*          3163 	bne	.L2244
                        3164 .L2240:
                        3165 --1107:         }           
                        3166 --1108:     }
                        3167 --1109:     return error_mode;
                        3168 --line1109
                        3169 ..lin.D.3A.5CRenesas_Electronics.5CD1x_RGL.5Crgl_ghs_D1Lx_obj_V1.2E2.2E0.5Cvlib.5Capp.5Cgfx_apps.5Csimple_draw_d1l2.5Ctarget.5Cd1lx_mango_ghs.5Cobj.5Cr_tauj_main.197::
                        3170 .LDWlin197:
00000a3e 1950           3171 	mov	r25,r10
                        3172 --	    .ef
                        3173 .LDW35:
00000a40 4606ff70       3174 	dispose	3,{r25,r26,r27,r28,r29,r31},[lp]
                        3175 	.type	_R_TAUJ_SetTrigger,@function
                        3176 	.size	_R_TAUJ_SetTrigger,.-_R_TAUJ_SetTrigger
                        3177 	.align	2
                        3178 .LDW45:
                        3179 --_error_mode	r25	local
                        3180 --_base_address	r28	local
                        3181 --_offset_address	r27	local
                        3182 --_r_tauj_RegCmor	r29	local
                        3183 
                        3184 --_Unit	4[sp]	param
                        3185 --_Channel	8[sp]	param
                        3186 --_Trigger	r26	param
                        3187 
                        3188 	.section ".bss","awb"
                        3189 .L2332:
                        3190 	.type	.L2332,@object
                        3191 	.size	.L2332,0
                        3192 	.data
                        3193 	.text
                        3194 
                        3195 --1110: }
                        3196 
                        3197 --1113: /***********************************************************
                        3198 --1114:   Function: R_TAUJ_EnableSimultaneousRewrite
                        3199 --1115: */
                        3200 --1117: r_tauj_Error_t R_TAUJ_EnableSimultaneousRewrite(
                        3201 	.align	2
                        3202 	.align	2
                        3203 	.global	_R_TAUJ_EnableSimultaneousRewrite
                        3204 _R_TAUJ_EnableSimultaneousRewrite:
00000a44 8607e170       3205 	prepare	{r25,r26,r27,r28,r29,r31},3
00000a48 633f0500       3206 	st.w	r7,4[sp]
00000a4c 06c8           3207 	mov	r6,r25
00000a4e 63470900       3208 	st.w	r8,8[sp]
                        3209 --	    .bf
                        3210 .LDW55:
                        3211 --1118:     uint32_t Unit,
                        3212 --1119:     r_tauj_Channel_t Channel,
                        3213 --1120:     r_tauj_SimultaneousTrigger_t SimultaneousTriggerSource)
                        3214 --1121: {

                                                                      Page 55
                                                              C:\Users\YINGAO~1\AppData\Local\Temp\gh_00008g01.si
                        3215 --1122:     r_tauj_Error_t error_mode = R_TAUJ_ERR_OK;
00000a52 00da           3216 	mov	0,r27
                        3217 --1123:     uint32_t base_address = 0;
00000a54 00e2           3218 	mov	0,r28
                        3219 --1124:     uint16_t u16_RDE = 0;
00000a56 00ea           3220 	mov	0,r29
                        3221 --1125:     uint16_t u16_channel = 0;
00000a58 00d2           3222 	mov	0,r26
                        3223 --1127:     /* check the instance is allowed */
                        3224 --1128:     if ( Unit > (R_TAUJ_MACRO_NUM - 1)) 
00000a5a e0c9           3225 	cmp	zero,r25
00000a5c b305*          3226 	bnh	.L2448
                        3227 --1129:     {
                        3228 --1130:         /* instance too high */
                        3229 --1131:         error_mode = R_TAUJ_ERR_INSTANCE;
                        3230 --line1131
                        3231 ..lin.D.3A.5CRenesas_Electronics.5CD1x_RGL.5Crgl_ghs_D1Lx_obj_V1.2E2.2E0.5Cvlib.5Capp.5Cgfx_apps.5Csimple_draw_d1l2.5Ctarget.5Cd1lx_mango_ghs.5Cobj.5Cr_tauj_main.198::
                        3232 .LDWlin198:
00000a5e 03da           3233 	mov	3,r27
00000a60 d51d*          3234 	br	.L2450
                        3235 .L2448:
                        3236 --1132:     } 
                        3237 --1133:     else 
                        3238 --1134:     {
                        3239 --1135:         /* ok, update the Channel Reload Data Enable Register (RDE) */
                        3240 --1136:         base_address = R_TAUJ_Dev[Unit].BaseAddr;
                        3241 --line1136
                        3242 ..lin.D.3A.5CRenesas_Electronics.5CD1x_RGL.5Crgl_ghs_D1Lx_obj_V1.2E2.2E0.5Cvlib.5Capp.5Cgfx_apps.5Csimple_draw_d1l2.5Ctarget.5Cd1lx_mango_ghs.5Cobj.5Cr_tauj_main.199::
                        3243 .LDWlin199:
00000a62 19f0           3244 	mov	r25,ep
00000a64 fe00           3245 	sxh	ep
00000a66 fef61400       3246 	mulhi	20,ep,ep
00000a6a 2b0600000000*  3247 	mov	_R_TAUJ_Dev,r11
00000a70 cbf1           3248 	add	r11,ep
00000a72 00e5           3249 	sld.w	0[ep],r28
                        3250 --1137:         u16_RDE = R_TAUJ_READ16(base_address + R_TAUJ0_RDE);
00000a74 fcefa100       3251 	ld.hu	160[r28],r29
                        3252 --1139:         /* enable all channels */
                        3253 --1140:         if ( Channel == R_TAUJ_CHANNEL_ALL) 
00000a78 235f0500       3254 	ld.w	4[sp],r11
00000a7c 645a           3255 	cmp	4,r11
00000a7e ba05*          3256 	bne	.L2451
                        3257 --1141:         {
                        3258 --1142:             u16_RDE = LOC_CHANNEL_ALL;
                        3259 --line1142
                        3260 ..lin.D.3A.5CRenesas_Electronics.5CD1x_RGL.5Crgl_ghs_D1Lx_obj_V1.2E2.2E0.5Cvlib.5Capp.5Cgfx_apps.5Csimple_draw_d1l2.5Ctarget.5Cd1lx_mango_ghs.5Cobj.5Cr_tauj_main.200::
                        3261 .LDWlin200:
00000a80 0fea           3262 	mov	15,r29
00000a82 c50d*          3263 	br	.L2450
                        3264 .L2451:
                        3265 --1143:         } 
                        3266 --1144:         else 
                        3267 --1145:         { /* just one channel */
                        3268 --1146:             u16_channel = loc_GetChannelID(Channel);
                        3269 --line1146
                        3270 ..lin.D.3A.5CRenesas_Electronics.5CD1x_RGL.5Crgl_ghs_D1Lx_obj_V1.2E2.2E0.5Cvlib.5Capp.5Cgfx_apps.5Csimple_draw_d1l2.5Ctarget.5Cd1lx_mango_ghs.5Cobj.5Cr_tauj_main.201::
                        3271 .LDWlin201:
00000a84 23370500       3272 	ld.w	4[sp],r6
                        3273 	jarl	_loc_GetChannelID,lp
                        3273 <EXPANSION BEGIN>
                        3273 jarl22 _loc_GetChannelID , lp 

                                                                      Page 56
                                                              C:\Users\YINGAO~1\AppData\Local\Temp\gh_00008g01.si
00000a88 bfffa8f5*      3273 <EXPANSION END>
00000a8c 0ad0           3274 	mov	r10,r26
                        3275 --1147:             R_TAUJ_SET_BIT(u16_RDE, u16_channel);
                        3276 --line1147
                        3277 ..lin.D.3A.5CRenesas_Electronics.5CD1x_RGL.5Crgl_ghs_D1Lx_obj_V1.2E2.2E0.5Cvlib.5Capp.5Cgfx_apps.5Csimple_draw_d1l2.5Ctarget.5Cd1lx_mango_ghs.5Cobj.5Cr_tauj_main.202::
                        3278 .LDWlin202:
00000a8e 010a           3279 	mov	1,r1
00000a90 fa0fc208       3280 	shl	r26,r1,r1
00000a94 c100           3281 	zxh	r1
00000a96 01e9           3282 	or	r1,r29
00000a98 dd00           3283 	zxh	r29
                        3284 .L2450:
                        3285 --1148:         }
                        3286 --1149:     }
                        3287 --1151:     /* if no error then update the register */
                        3288 --1152:     if (error_mode == R_TAUJ_ERR_OK) 
00000a9a e0d9           3289 	cmp	zero,r27
00000a9c ca0d*          3290 	bne	.L2454
                        3291 --1153:     {
                        3292 --1154:         /* update the CMOR Channel Mode OS Register */
                        3293 --1155:         base_address = R_TAUJ_Dev[Unit].BaseAddr;
                        3294 --line1155
                        3295 ..lin.D.3A.5CRenesas_Electronics.5CD1x_RGL.5Crgl_ghs_D1Lx_obj_V1.2E2.2E0.5Cvlib.5Capp.5Cgfx_apps.5Csimple_draw_d1l2.5Ctarget.5Cd1lx_mango_ghs.5Cobj.5Cr_tauj_main.203::
                        3296 .LDWlin203:
00000a9e 19f0           3297 	mov	r25,ep
00000aa0 fe00           3298 	sxh	ep
00000aa2 fef61400       3299 	mulhi	20,ep,ep
00000aa6 2b0600000000*  3300 	mov	_R_TAUJ_Dev,r11
00000aac cbf1           3301 	add	r11,ep
00000aae 00e5           3302 	sld.w	0[ep],r28
                        3303 --1156:         R_TAUJ_WRITE16(base_address + R_TAUJ0_RDE, u16_RDE);
00000ab0 7cefa000       3304 	st.h	r29,160[r28]
                        3305 .L2454:
                        3306 --1157:     }
                        3307 --1158:     return error_mode;
00000ab4 1b50           3308 	mov	r27,r10
                        3309 --	    .ef
                        3310 .LDW65:
00000ab6 4606ff70       3311 	dispose	3,{r25,r26,r27,r28,r29,r31},[lp]
                        3312 	.type	_R_TAUJ_EnableSimultaneousRewrite,@function
                        3313 	.size	_R_TAUJ_EnableSimultaneousRewrite,.-_R_TAUJ_EnableSimultaneousRewrite
                        3314 	.align	2
                        3315 .LDW75:
                        3316 --_error_mode	r27	local
                        3317 --_base_address	r28	local
                        3318 --_u16_RDE	r29	local
                        3319 --_u16_channel	r26	local
                        3320 
                        3321 --_Unit	r25	param
                        3322 --_Channel	4[sp]	param
                        3323 --_SimultaneousTriggerSource	8[sp]	param
                        3324 
                        3325 	.section ".bss","awb"
                        3326 .L2502:
                        3327 	.type	.L2502,@object
                        3328 	.size	.L2502,0
                        3329 	.data
                        3330 	.text
                        3331 
                        3332 --1159: }
                        3333 

                                                                      Page 57
                                                              C:\Users\YINGAO~1\AppData\Local\Temp\gh_00008g01.si
                        3334 --1162: /***********************************************************
                        3335 --1163:   Function: R_TAUJ_EnableSynchronousChannelOperation
                        3336 --1164: */
                        3337 --1166: r_tauj_Error_t R_TAUJ_EnableSynchronousChannelOperation(uint32_t Unit, r_tauj_Channel_t Channel) 
                        3338 	.align	2
                        3339 	.align	2
                        3340 	.global	_R_TAUJ_EnableSynchronousChannelOperation
                        3341 _R_TAUJ_EnableSynchronousChannelOperation:
00000aba 8207e170       3342 	prepare	{r25,r26,r27,r28,r29,r31},1
00000abe 633f0100       3343 	st.w	r7,0[sp]
00000ac2 06c8           3344 	mov	r6,r25
                        3345 --	    .bf
                        3346 .LDW85:
                        3347 --1167: {
                        3348 --1168:     r_tauj_Error_t error_mode = R_TAUJ_ERR_OK;
00000ac4 00e2           3349 	mov	0,r28
                        3350 --1169:     uint32_t base_address = 0;
00000ac6 00da           3351 	mov	0,r27
                        3352 --1170:     uint16_t u16_temp = 0;
00000ac8 00ea           3353 	mov	0,r29
                        3354 --1171:     uint16_t u16_channel = 0;
00000aca 00d2           3355 	mov	0,r26
                        3356 --1173:     /* check the instance is allowed */
                        3357 --1174:     if ( Unit > (R_TAUJ_MACRO_NUM - 1)) 
00000acc e0c9           3358 	cmp	zero,r25
00000ace b305*          3359 	bnh	.L2561
                        3360 --1175:     {
                        3361 --1176:         /* instance too high */
                        3362 --1177:         error_mode = R_TAUJ_ERR_INSTANCE;
                        3363 --line1177
                        3364 ..lin.D.3A.5CRenesas_Electronics.5CD1x_RGL.5Crgl_ghs_D1Lx_obj_V1.2E2.2E0.5Cvlib.5Capp.5Cgfx_apps.5Csimple_draw_d1l2.5Ctarget.5Cd1lx_mango_ghs.5Cobj.5Cr_tauj_main.204::
                        3365 .LDWlin204:
00000ad0 03e2           3366 	mov	3,r28
00000ad2 c525*          3367 	br	.L2563
                        3368 .L2561:
                        3369 --1178:     } 
                        3370 --1179:     else 
                        3371 --1180:     {
                        3372 --1181:         /* ok */
                        3373 --1182:         base_address = R_TAUJ_Dev[Unit].BaseAddr;
                        3374 --line1182
                        3375 ..lin.D.3A.5CRenesas_Electronics.5CD1x_RGL.5Crgl_ghs_D1Lx_obj_V1.2E2.2E0.5Cvlib.5Capp.5Cgfx_apps.5Csimple_draw_d1l2.5Ctarget.5Cd1lx_mango_ghs.5Cobj.5Cr_tauj_main.205::
                        3376 .LDWlin205:
00000ad4 19f0           3377 	mov	r25,ep
00000ad6 fe00           3378 	sxh	ep
00000ad8 fef61400       3379 	mulhi	20,ep,ep
00000adc 2e0600000000*  3380 	mov	_R_TAUJ_Dev,r14
00000ae2 cef1           3381 	add	r14,ep
00000ae4 00dd           3382 	sld.w	0[ep],r27
                        3383 --1183:         u16_temp = R_TAUJ_READ16(base_address + R_TAUJ0_TOM);
00000ae6 fbef9900       3384 	ld.hu	152[r27],r29
                        3385 --1185:         /* enable all channels */
                        3386 --1186:         if ( Channel == R_TAUJ_CHANNEL_ALL) 
00000aea 235f0100       3387 	ld.w	0[sp],r11
00000aee 645a           3388 	cmp	4,r11
00000af0 ba05*          3389 	bne	.L2564
                        3390 --1187:         {
                        3391 --1188:             u16_temp = LOC_CHANNEL_ALL;
                        3392 --line1188
                        3393 ..lin.D.3A.5CRenesas_Electronics.5CD1x_RGL.5Crgl_ghs_D1Lx_obj_V1.2E2.2E0.5Cvlib.5Capp.5Cgfx_apps.5Csimple_draw_d1l2.5Ctarget.5Cd1lx_mango_ghs.5Cobj.5Cr_tauj_main.206::
                        3394 .LDWlin206:

                                                                      Page 58
                                                              C:\Users\YINGAO~1\AppData\Local\Temp\gh_00008g01.si
00000af2 0fea           3395 	mov	15,r29
00000af4 c50d*          3396 	br	.L2566
                        3397 .L2564:
                        3398 --1189:         } 
                        3399 --1190:         else 
                        3400 --1191:         { /* just one channel */
                        3401 --1192:             u16_channel = loc_GetChannelID(Channel);
                        3402 --line1192
                        3403 ..lin.D.3A.5CRenesas_Electronics.5CD1x_RGL.5Crgl_ghs_D1Lx_obj_V1.2E2.2E0.5Cvlib.5Capp.5Cgfx_apps.5Csimple_draw_d1l2.5Ctarget.5Cd1lx_mango_ghs.5Cobj.5Cr_tauj_main.207::
                        3404 .LDWlin207:
00000af6 23370100       3405 	ld.w	0[sp],r6
                        3406 	jarl	_loc_GetChannelID,lp
                        3406 <EXPANSION BEGIN>
                        3406 jarl22 _loc_GetChannelID , lp 
00000afa bfff36f5*      3406 <EXPANSION END>
00000afe 0ad0           3407 	mov	r10,r26
                        3408 --1193:             R_TAUJ_SET_BIT(u16_temp, u16_channel);
                        3409 --line1193
                        3410 ..lin.D.3A.5CRenesas_Electronics.5CD1x_RGL.5Crgl_ghs_D1Lx_obj_V1.2E2.2E0.5Cvlib.5Capp.5Cgfx_apps.5Csimple_draw_d1l2.5Ctarget.5Cd1lx_mango_ghs.5Cobj.5Cr_tauj_main.208::
                        3411 .LDWlin208:
00000b00 010a           3412 	mov	1,r1
00000b02 fa0fc208       3413 	shl	r26,r1,r1
00000b06 c100           3414 	zxh	r1
00000b08 01e9           3415 	or	r1,r29
00000b0a dd00           3416 	zxh	r29
                        3417 .L2566:
                        3418 --1194:         }
                        3419 --1196:         /* update the TOM */
                        3420 --1197:         R_TAUJ_WRITE16(base_address + R_TAUJ0_TOM, u16_temp);
00000b0c 7bef9800       3421 	st.h	r29,152[r27]
                        3422 --1199:         /* verify the register write was succesfull */
                        3423 --1200:         if ( u16_temp != (R_TAUJ_READ16(base_address + R_TAUJ0_TOM))) 
00000b10 fb0f9900       3424 	ld.hu	152[r27],r1
00000b14 e1e9           3425 	cmp	r1,r29
00000b16 a205*          3426 	be	.L2563
                        3427 --1201:         {
                        3428 --1202:             error_mode = R_TAUJ_ERR_REG_UPDATE_FAIL;
                        3429 --line1202
                        3430 ..lin.D.3A.5CRenesas_Electronics.5CD1x_RGL.5Crgl_ghs_D1Lx_obj_V1.2E2.2E0.5Cvlib.5Capp.5Cgfx_apps.5Csimple_draw_d1l2.5Ctarget.5Cd1lx_mango_ghs.5Cobj.5Cr_tauj_main.209::
                        3431 .LDWlin209:
00000b18 05e2           3432 	mov	5,r28
                        3433 .L2563:
                        3434 --1203:         }
                        3435 --1204:     }
                        3436 --1205:     return error_mode;
00000b1a 1c50           3437 	mov	r28,r10
                        3438 --	    .ef
                        3439 .LDW95:
00000b1c 4206ff70       3440 	dispose	1,{r25,r26,r27,r28,r29,r31},[lp]
                        3441 	.type	_R_TAUJ_EnableSynchronousChannelOperation,@function
                        3442 	.size	_R_TAUJ_EnableSynchronousChannelOperation,.-_R_TAUJ_EnableSynchronousChannelOperation
                        3443 	.align	2
                        3444 .LDW06:
                        3445 --_error_mode	r28	local
                        3446 --_base_address	r27	local
                        3447 --_u16_temp	r29	local
                        3448 --_u16_channel	r26	local
                        3449 
                        3450 --_Unit	r25	param
                        3451 --_Channel	0[sp]	param
                        3452 

                                                                      Page 59
                                                              C:\Users\YINGAO~1\AppData\Local\Temp\gh_00008g01.si
                        3453 	.section ".bss","awb"
                        3454 .L2614:
                        3455 	.type	.L2614,@object
                        3456 	.size	.L2614,0
                        3457 	.data
                        3458 	.text
                        3459 
                        3460 --1206: }
                        3461 
                        3462 --1209: /***********************************************************
                        3463 --1210:   Function: R_TAUJ_SetCountClock
                        3464 --1211: */
                        3465 --1213: r_tauj_Error_t R_TAUJ_SetCountClock(
                        3466 	.align	2
                        3467 	.align	2
                        3468 	.global	_R_TAUJ_SetCountClock
                        3469 _R_TAUJ_SetCountClock:
00000b20 8607e170       3470 	prepare	{r25,r26,r27,r28,r29,r31},3
00000b24 63370500       3471 	st.w	r6,4[sp]
00000b28 08c8           3472 	mov	r8,r25
00000b2a 633f0900       3473 	st.w	r7,8[sp]
00000b2e 00ea           3474 	mov	0,r29
                        3475 --	    .bf
                        3476 .LDW16:
                        3477 --1214:     uint32_t Unit,
                        3478 --1215:     r_tauj_Channel_t Channel,
                        3479 --1216:     r_tauj_CountClock_t CountClock)
                        3480 --1217: {
                        3481 --1218:     r_tauj_Error_t error_mode = R_TAUJ_ERR_OK;
00000b30 00d2           3482 	mov	0,r26
                        3483 --1219:     uint32_t base_address = 0;
00000b32 00e2           3484 	mov	0,r28
                        3485 --1220:     uint32_t offset_address = 0;
00000b34 00da           3486 	mov	0,r27
                        3487 --1221:     r_tauj_RegCmor_t r_tauj_RegCmor;
                        3488 --1223:     /* check the instance is allowed */
                        3489 --1224:     if ( Unit > (R_TAUJ_MACRO_NUM - 1)) 
00000b36 235f0500       3490 	ld.w	4[sp],r11
00000b3a e059           3491 	cmp	zero,r11
00000b3c b305*          3492 	bnh	.L2673
                        3493 --1225:     {
                        3494 --1226:         /* instance too high */
                        3495 --1227:         error_mode = R_TAUJ_ERR_INSTANCE;
                        3496 --line1227
                        3497 ..lin.D.3A.5CRenesas_Electronics.5CD1x_RGL.5Crgl_ghs_D1Lx_obj_V1.2E2.2E0.5Cvlib.5Capp.5Cgfx_apps.5Csimple_draw_d1l2.5Ctarget.5Cd1lx_mango_ghs.5Cobj.5Cr_tauj_main.210::
                        3498 .LDWlin210:
00000b3e 03d2           3499 	mov	3,r26
00000b40 853d*          3500 	br	.L2675
                        3501 .L2673:
                        3502 --1228:     } 
                        3503 --1229:     else 
                        3504 --1230:     {
                        3505 --1231:         /* ok, update the CMOR register value */
                        3506 --1232:         base_address = R_TAUJ_Dev[Unit].BaseAddr;
                        3507 --line1232
                        3508 ..lin.D.3A.5CRenesas_Electronics.5CD1x_RGL.5Crgl_ghs_D1Lx_obj_V1.2E2.2E0.5Cvlib.5Capp.5Cgfx_apps.5Csimple_draw_d1l2.5Ctarget.5Cd1lx_mango_ghs.5Cobj.5Cr_tauj_main.211::
                        3509 .LDWlin211:
00000b42 235f0500       3510 	ld.w	4[sp],r11
00000b46 2c0600000000*  3511 	mov	_R_TAUJ_Dev,r12
00000b4c 0bf0           3512 	mov	r11,ep
00000b4e fe00           3513 	sxh	ep

                                                                      Page 60
                                                              C:\Users\YINGAO~1\AppData\Local\Temp\gh_00008g01.si
00000b50 fef61400       3514 	mulhi	20,ep,ep
00000b54 ccf1           3515 	add	r12,ep
00000b56 00e5           3516 	sld.w	0[ep],r28
                        3517 --1233:         offset_address = R_TAUJ0_CMOR0 + loc_GetChannelAddress(Channel);
00000b58 23370900       3518 	ld.w	8[sp],r6
                        3519 	jarl	_loc_GetChannelAddress,lp
                        3519 <EXPANSION BEGIN>
                        3519 jarl22 _loc_GetChannelAddress , lp 
00000b5c bfff00f5*      3519 <EXPANSION END>
00000b60 0ade8000       3520 	addi	128,r10,r27
                        3521 --1234:         r_tauj_RegCmor.Word = R_TAUJ_READ16(base_address + offset_address);
                        3522 --line1234
                        3523 ..lin.D.3A.5CRenesas_Electronics.5CD1x_RGL.5Crgl_ghs_D1Lx_obj_V1.2E2.2E0.5Cvlib.5Capp.5Cgfx_apps.5Csimple_draw_d1l2.5Ctarget.5Cd1lx_mango_ghs.5Cobj.5Cr_tauj_main.212::
                        3524 .LDWlin212:
00000b64 1bf0           3525 	mov	r27,ep
00000b66 dcf1           3526 	add	r28,ep
00000b68 70e8           3527 	sld.hu	0[ep],r29
                        3528 --1236:         /* timer interval */
                        3529 --1237:         if ( CountClock == R_TAUJ_COUNT_CLK_PRESCALER) 
00000b6a e0c9           3530 	cmp	zero,r25
00000b6c ea05*          3531 	bne	.L2676
                        3532 --1238:         {
                        3533 --1239:             r_tauj_RegCmor.Bits.Ccs = LOC_COUNT_CLK_PRESCALER;
                        3534 --line1239
                        3535 ..lin.D.3A.5CRenesas_Electronics.5CD1x_RGL.5Crgl_ghs_D1Lx_obj_V1.2E2.2E0.5Cvlib.5Capp.5Cgfx_apps.5Csimple_draw_d1l2.5Ctarget.5Cd1lx_mango_ghs.5Cobj.5Cr_tauj_main.213::
                        3536 .LDWlin213:
00000b6e dd0effcf       3537 	andi	53247,r29,r1
00000b72 c1eeffff       3538 	andi	65535,r1,r29
00000b76 d51d*          3539 	br	.L2675
                        3540 .L2676:
                        3541 --1240:         } 
                        3542 --1241:         else if ( CountClock == R_TAUJ_COUNT_CLK_TIN) 
                        3543 --line1241
                        3544 ..lin.D.3A.5CRenesas_Electronics.5CD1x_RGL.5Crgl_ghs_D1Lx_obj_V1.2E2.2E0.5Cvlib.5Capp.5Cgfx_apps.5Csimple_draw_d1l2.5Ctarget.5Cd1lx_mango_ghs.5Cobj.5Cr_tauj_main.214::
                        3545 .LDWlin214:
00000b78 61ca           3546 	cmp	1,r25
00000b7a 9a0d*          3547 	bne	.L2679
                        3548 --1242:         {
                        3549 --1243:             r_tauj_RegCmor.Bits.Ccs = LOC_COUNT_CLK_TIN;
                        3550 --line1243
                        3551 ..lin.D.3A.5CRenesas_Electronics.5CD1x_RGL.5Crgl_ghs_D1Lx_obj_V1.2E2.2E0.5Cvlib.5Capp.5Cgfx_apps.5Csimple_draw_d1l2.5Ctarget.5Cd1lx_mango_ghs.5Cobj.5Cr_tauj_main.215::
                        3552 .LDWlin215:
00000b7c 200effcf       3553 	movea	-12289,zero,r1
00000b80 5d09           3554 	and	r29,r1
00000b82 810e0010       3555 	ori	4096,r1,r1
00000b86 c1eeffff       3556 	andi	65535,r1,r29
00000b8a b515*          3557 	br	.L2675
                        3558 .L2679:
                        3559 --1244:         } 
                        3560 --1245:         else if ( CountClock == R_TAUJ_COUNT_CLK_RFU) 
                        3561 --line1245
                        3562 ..lin.D.3A.5CRenesas_Electronics.5CD1x_RGL.5Crgl_ghs_D1Lx_obj_V1.2E2.2E0.5Cvlib.5Capp.5Cgfx_apps.5Csimple_draw_d1l2.5Ctarget.5Cd1lx_mango_ghs.5Cobj.5Cr_tauj_main.216::
                        3563 .LDWlin216:
00000b8c 62ca           3564 	cmp	2,r25
00000b8e 9a0d*          3565 	bne	.L2682
                        3566 --1246:         {
                        3567 --1247:             r_tauj_RegCmor.Bits.Ccs = LOC_COUNT_CLK_RFU;
                        3568 --line1247
                        3569 ..lin.D.3A.5CRenesas_Electronics.5CD1x_RGL.5Crgl_ghs_D1Lx_obj_V1.2E2.2E0.5Cvlib.5Capp.5Cgfx_apps.5Csimple_draw_d1l2.5Ctarget.5Cd1lx_mango_ghs.5Cobj.5Cr_tauj_main.217::
                        3570 .LDWlin217:
00000b90 200effcf       3571 	movea	-12289,zero,r1

                                                                      Page 61
                                                              C:\Users\YINGAO~1\AppData\Local\Temp\gh_00008g01.si
00000b94 5d09           3572 	and	r29,r1
00000b96 810e0020       3573 	ori	8192,r1,r1
00000b9a c1eeffff       3574 	andi	65535,r1,r29
00000b9e 950d*          3575 	br	.L2675
                        3576 .L2682:
                        3577 --1248:         } 
                        3578 --1249:         else if ( CountClock == R_TAUJ_COUNT_CLK_MASTER_INT_RFU) 
                        3579 --line1249
                        3580 ..lin.D.3A.5CRenesas_Electronics.5CD1x_RGL.5Crgl_ghs_D1Lx_obj_V1.2E2.2E0.5Cvlib.5Capp.5Cgfx_apps.5Csimple_draw_d1l2.5Ctarget.5Cd1lx_mango_ghs.5Cobj.5Cr_tauj_main.218::
                        3581 .LDWlin218:
00000ba0 63ca           3582 	cmp	3,r25
00000ba2 ea05*          3583 	bne	.L2685
                        3584 --1250:         {
                        3585 --1251:             r_tauj_RegCmor.Bits.Ccs = LOC_COUNT_CLK_MASTER_INT_RFU;
                        3586 --line1251
                        3587 ..lin.D.3A.5CRenesas_Electronics.5CD1x_RGL.5Crgl_ghs_D1Lx_obj_V1.2E2.2E0.5Cvlib.5Capp.5Cgfx_apps.5Csimple_draw_d1l2.5Ctarget.5Cd1lx_mango_ghs.5Cobj.5Cr_tauj_main.219::
                        3588 .LDWlin219:
00000ba4 9d0e0030       3589 	ori	12288,r29,r1
00000ba8 c1eeffff       3590 	andi	65535,r1,r29
00000bac a505*          3591 	br	.L2675
                        3592 .L2685:
                        3593 --1252:         } 
                        3594 --1253:         else 
                        3595 --1254:         {
                        3596 --1255:             error_mode = R_TAUJ_ERR_RANGE;
                        3597 --line1255
                        3598 ..lin.D.3A.5CRenesas_Electronics.5CD1x_RGL.5Crgl_ghs_D1Lx_obj_V1.2E2.2E0.5Cvlib.5Capp.5Cgfx_apps.5Csimple_draw_d1l2.5Ctarget.5Cd1lx_mango_ghs.5Cobj.5Cr_tauj_main.220::
                        3599 .LDWlin220:
00000bae 02d2           3600 	mov	2,r26
                        3601 .L2675:
                        3602 --1256:         }
                        3603 --1257:     }
                        3604 --1259:     /* if no error then update the register */
                        3605 --1260:     if ( error_mode == R_TAUJ_ERR_OK) 
00000bb0 e0d1           3606 	cmp	zero,r26
00000bb2 ea1d*          3607 	bne	.L2688
                        3608 --1261:     {
                        3609 --1262:         /* update the CMOR Channel Mode OS Register */
                        3610 --1263:         base_address = R_TAUJ_Dev[Unit].BaseAddr;
                        3611 --line1263
                        3612 ..lin.D.3A.5CRenesas_Electronics.5CD1x_RGL.5Crgl_ghs_D1Lx_obj_V1.2E2.2E0.5Cvlib.5Capp.5Cgfx_apps.5Csimple_draw_d1l2.5Ctarget.5Cd1lx_mango_ghs.5Cobj.5Cr_tauj_main.221::
                        3613 .LDWlin221:
00000bb4 235f0500       3614 	ld.w	4[sp],r11
00000bb8 2c0600000000*  3615 	mov	_R_TAUJ_Dev,r12
00000bbe 0bf0           3616 	mov	r11,ep
00000bc0 fe00           3617 	sxh	ep
00000bc2 fef61400       3618 	mulhi	20,ep,ep
00000bc6 ccf1           3619 	add	r12,ep
00000bc8 00e5           3620 	sld.w	0[ep],r28
                        3621 --1264:         offset_address = R_TAUJ0_CMOR0 + loc_GetChannelAddress(Channel);
00000bca 23370900       3622 	ld.w	8[sp],r6
                        3623 	jarl	_loc_GetChannelAddress,lp
                        3623 <EXPANSION BEGIN>
                        3623 jarl22 _loc_GetChannelAddress , lp 
00000bce bfff8ef4*      3623 <EXPANSION END>
00000bd2 0ade8000       3624 	addi	128,r10,r27
                        3625 --1265:         R_TAUJ_WRITE16(base_address + offset_address, r_tauj_RegCmor.Word);
                        3626 --line1265
                        3627 ..lin.D.3A.5CRenesas_Electronics.5CD1x_RGL.5Crgl_ghs_D1Lx_obj_V1.2E2.2E0.5Cvlib.5Capp.5Cgfx_apps.5Csimple_draw_d1l2.5Ctarget.5Cd1lx_mango_ghs.5Cobj.5Cr_tauj_main.222::
                        3628 .LDWlin222:
00000bd6 1bf0           3629 	mov	r27,ep

                                                                      Page 62
                                                              C:\Users\YINGAO~1\AppData\Local\Temp\gh_00008g01.si
00000bd8 dcf1           3630 	add	r28,ep
00000bda 80ec           3631 	sst.h	r29,0[ep]
                        3632 --1266:         /* check values! */
                        3633 --1267:         while (R_TAUJ_READ16(base_address + offset_address) != r_tauj_RegCmor.Word) 
00000bdc c505*          3634 	br	.L2690
                        3635 .L2692:
                        3636 --1268:         {
                        3637 --1269:             R_TAUJ_WRITE16(base_address + offset_address, r_tauj_RegCmor.Word);
                        3638 --line1269
                        3639 ..lin.D.3A.5CRenesas_Electronics.5CD1x_RGL.5Crgl_ghs_D1Lx_obj_V1.2E2.2E0.5Cvlib.5Capp.5Cgfx_apps.5Csimple_draw_d1l2.5Ctarget.5Cd1lx_mango_ghs.5Cobj.5Cr_tauj_main.223::
                        3640 .LDWlin223:
00000bde 1bf0           3641 	mov	r27,ep
00000be0 dcf1           3642 	add	r28,ep
00000be2 80ec           3643 	sst.h	r29,0[ep]
                        3644 .L2690:
00000be4 1bf0           3645 	mov	r27,ep
00000be6 dcf1           3646 	add	r28,ep
00000be8 7008           3647 	sld.hu	0[ep],r1
00000bea fd09           3648 	cmp	r29,r1
00000bec 9afd*          3649 	bne	.L2692
                        3650 .L2688:
                        3651 --1270:         }           
                        3652 --1271:     }
                        3653 --1272:     return error_mode;
                        3654 --line1272
                        3655 ..lin.D.3A.5CRenesas_Electronics.5CD1x_RGL.5Crgl_ghs_D1Lx_obj_V1.2E2.2E0.5Cvlib.5Capp.5Cgfx_apps.5Csimple_draw_d1l2.5Ctarget.5Cd1lx_mango_ghs.5Cobj.5Cr_tauj_main.224::
                        3656 .LDWlin224:
00000bee 1a50           3657 	mov	r26,r10
                        3658 --	    .ef
                        3659 .LDW26:
00000bf0 4606ff70       3660 	dispose	3,{r25,r26,r27,r28,r29,r31},[lp]
                        3661 	.type	_R_TAUJ_SetCountClock,@function
                        3662 	.size	_R_TAUJ_SetCountClock,.-_R_TAUJ_SetCountClock
                        3663 	.align	2
                        3664 .LDW36:
                        3665 --_error_mode	r26	local
                        3666 --_base_address	r28	local
                        3667 --_offset_address	r27	local
                        3668 --_r_tauj_RegCmor	r29	local
                        3669 
                        3670 --_Unit	4[sp]	param
                        3671 --_Channel	8[sp]	param
                        3672 --_CountClock	r25	param
                        3673 
                        3674 	.section ".bss","awb"
                        3675 .L2762:
                        3676 	.type	.L2762,@object
                        3677 	.size	.L2762,0
                        3678 	.data
                        3679 	.text
                        3680 
                        3681 --1273: }
                        3682 
                        3683 --1276: /***********************************************************
                        3684 --1277:   Function: R_TAUJ_SetTinEdge
                        3685 --1278: */
                        3686 --1280: r_tauj_Error_t R_TAUJ_SetTinEdge(uint32_t Unit, r_tauj_Channel_t Channel, r_tauj_TinEdge_t Edge) 
                        3687 	.align	2
                        3688 	.align	2
                        3689 	.global	_R_TAUJ_SetTinEdge
                        3690 _R_TAUJ_SetTinEdge:

                                                                      Page 63
                                                              C:\Users\YINGAO~1\AppData\Local\Temp\gh_00008g01.si
00000bf4 8607e170       3691 	prepare	{r25,r26,r27,r28,r29,r31},3
00000bf8 63370500       3692 	st.w	r6,4[sp]
00000bfc 08c8           3693 	mov	r8,r25
00000bfe 633f0900       3694 	st.w	r7,8[sp]
00000c02 00ea           3695 	mov	0,r29
                        3696 --	    .bf
                        3697 .LDW46:
                        3698 --1281: {
                        3699 --1282:     r_tauj_Error_t error_mode = R_TAUJ_ERR_OK;
00000c04 00d2           3700 	mov	0,r26
                        3701 --1283:     uint32_t base_address = 0;
00000c06 00e2           3702 	mov	0,r28
                        3703 --1284:     uint32_t offset_address = 0;
00000c08 00da           3704 	mov	0,r27
                        3705 --1285:     r_tauj_RegCmur_t r_tauj_RegCmur;
                        3706 --1287:     /* check the instance is allowed */
                        3707 --1288:     if ( Unit > (R_TAUJ_MACRO_NUM - 1)) 
00000c0a 235f0500       3708 	ld.w	4[sp],r11
00000c0e e059           3709 	cmp	zero,r11
00000c10 b305*          3710 	bnh	.L2851
                        3711 --1289:     {
                        3712 --1290:         /* instance too high */
                        3713 --1291:         error_mode = R_TAUJ_ERR_INSTANCE;
                        3714 --line1291
                        3715 ..lin.D.3A.5CRenesas_Electronics.5CD1x_RGL.5Crgl_ghs_D1Lx_obj_V1.2E2.2E0.5Cvlib.5Capp.5Cgfx_apps.5Csimple_draw_d1l2.5Ctarget.5Cd1lx_mango_ghs.5Cobj.5Cr_tauj_main.225::
                        3716 .LDWlin225:
00000c12 03d2           3717 	mov	3,r26
00000c14 e535*          3718 	br	.L2853
                        3719 .L2851:
                        3720 --1292:     } 
                        3721 --1293:     else 
                        3722 --1294:     {
                        3723 --1295:         /* ok, update the CMOR register value */
                        3724 --1296:         base_address = R_TAUJ_Dev[Unit].BaseAddr;
                        3725 --line1296
                        3726 ..lin.D.3A.5CRenesas_Electronics.5CD1x_RGL.5Crgl_ghs_D1Lx_obj_V1.2E2.2E0.5Cvlib.5Capp.5Cgfx_apps.5Csimple_draw_d1l2.5Ctarget.5Cd1lx_mango_ghs.5Cobj.5Cr_tauj_main.226::
                        3727 .LDWlin226:
00000c16 235f0500       3728 	ld.w	4[sp],r11
00000c1a 2c0600000000*  3729 	mov	_R_TAUJ_Dev,r12
00000c20 0bf0           3730 	mov	r11,ep
00000c22 fe00           3731 	sxh	ep
00000c24 fef61400       3732 	mulhi	20,ep,ep
00000c28 ccf1           3733 	add	r12,ep
00000c2a 00e5           3734 	sld.w	0[ep],r28
                        3735 --1297:         offset_address = R_TAUJ0_CMUR0 + loc_GetChannelAddress(Channel);
00000c2c 23370900       3736 	ld.w	8[sp],r6
                        3737 	jarl	_loc_GetChannelAddress,lp
                        3737 <EXPANSION BEGIN>
                        3737 jarl22 _loc_GetChannelAddress , lp 
00000c30 bfff2cf4*      3737 <EXPANSION END>
00000c34 0ade2000       3738 	addi	32,r10,r27
                        3739 --1298:         r_tauj_RegCmur.Word = R_TAUJ_READ16(base_address + offset_address);
                        3740 --line1298
                        3741 ..lin.D.3A.5CRenesas_Electronics.5CD1x_RGL.5Crgl_ghs_D1Lx_obj_V1.2E2.2E0.5Cvlib.5Capp.5Cgfx_apps.5Csimple_draw_d1l2.5Ctarget.5Cd1lx_mango_ghs.5Cobj.5Cr_tauj_main.227::
                        3742 .LDWlin227:
00000c38 1bf0           3743 	mov	r27,ep
00000c3a dcf1           3744 	add	r28,ep
00000c3c 70e8           3745 	sld.hu	0[ep],r29
                        3746 --1300:         /* timer interval */
                        3747 --1301:         if ( Edge == R_TAUJ_FALLING_EDGE) 
00000c3e e0c9           3748 	cmp	zero,r25

                                                                      Page 64
                                                              C:\Users\YINGAO~1\AppData\Local\Temp\gh_00008g01.si
00000c40 ea05*          3749 	bne	.L2854
                        3750 --1302:         {
                        3751 --1303:             r_tauj_RegCmur.Bits.Tis = LOC_FALLING_EDGE;
                        3752 --line1303
                        3753 ..lin.D.3A.5CRenesas_Electronics.5CD1x_RGL.5Crgl_ghs_D1Lx_obj_V1.2E2.2E0.5Cvlib.5Capp.5Cgfx_apps.5Csimple_draw_d1l2.5Ctarget.5Cd1lx_mango_ghs.5Cobj.5Cr_tauj_main.228::
                        3754 .LDWlin228:
00000c42 dd0efcff       3755 	andi	65532,r29,r1
00000c46 c1eeffff       3756 	andi	65535,r1,r29
00000c4a b51d*          3757 	br	.L2853
                        3758 .L2854:
                        3759 --1304:         } 
                        3760 --1305:         else if ( Edge == R_TAUJ_RISING_EDGE) 
                        3761 --line1305
                        3762 ..lin.D.3A.5CRenesas_Electronics.5CD1x_RGL.5Crgl_ghs_D1Lx_obj_V1.2E2.2E0.5Cvlib.5Capp.5Cgfx_apps.5Csimple_draw_d1l2.5Ctarget.5Cd1lx_mango_ghs.5Cobj.5Cr_tauj_main.229::
                        3763 .LDWlin229:
00000c4c 61ca           3764 	cmp	1,r25
00000c4e 8a0d*          3765 	bne	.L2857
                        3766 --1306:         {
                        3767 --1307:             r_tauj_RegCmur.Bits.Tis = LOC_RISING_EDGE;
                        3768 --line1307
                        3769 ..lin.D.3A.5CRenesas_Electronics.5CD1x_RGL.5Crgl_ghs_D1Lx_obj_V1.2E2.2E0.5Cvlib.5Capp.5Cgfx_apps.5Csimple_draw_d1l2.5Ctarget.5Cd1lx_mango_ghs.5Cobj.5Cr_tauj_main.230::
                        3770 .LDWlin230:
00000c50 1c0a           3771 	mov	-4,r1
00000c52 5d09           3772 	and	r29,r1
00000c54 810e0100       3773 	ori	1,r1,r1
00000c58 c1eeffff       3774 	andi	65535,r1,r29
00000c5c a515*          3775 	br	.L2853
                        3776 .L2857:
                        3777 --1308:         } 
                        3778 --1309:         else if ( Edge == R_TAUJ_BOTH_LOW_WIDTH) 
                        3779 --line1309
                        3780 ..lin.D.3A.5CRenesas_Electronics.5CD1x_RGL.5Crgl_ghs_D1Lx_obj_V1.2E2.2E0.5Cvlib.5Capp.5Cgfx_apps.5Csimple_draw_d1l2.5Ctarget.5Cd1lx_mango_ghs.5Cobj.5Cr_tauj_main.231::
                        3781 .LDWlin231:
00000c5e 62ca           3782 	cmp	2,r25
00000c60 8a0d*          3783 	bne	.L2860
                        3784 --1310:         {
                        3785 --1311:             r_tauj_RegCmur.Bits.Tis = LOC_BOTH_LOW_WIDTH;
                        3786 --line1311
                        3787 ..lin.D.3A.5CRenesas_Electronics.5CD1x_RGL.5Crgl_ghs_D1Lx_obj_V1.2E2.2E0.5Cvlib.5Capp.5Cgfx_apps.5Csimple_draw_d1l2.5Ctarget.5Cd1lx_mango_ghs.5Cobj.5Cr_tauj_main.232::
                        3788 .LDWlin232:
00000c62 1c0a           3789 	mov	-4,r1
00000c64 5d09           3790 	and	r29,r1
00000c66 810e0200       3791 	ori	2,r1,r1
00000c6a c1eeffff       3792 	andi	65535,r1,r29
00000c6e 950d*          3793 	br	.L2853
                        3794 .L2860:
                        3795 --1312:         } 
                        3796 --1313:         else if ( Edge == R_TAUJ_BOTH_HIGH_WIDTH) 
                        3797 --line1313
                        3798 ..lin.D.3A.5CRenesas_Electronics.5CD1x_RGL.5Crgl_ghs_D1Lx_obj_V1.2E2.2E0.5Cvlib.5Capp.5Cgfx_apps.5Csimple_draw_d1l2.5Ctarget.5Cd1lx_mango_ghs.5Cobj.5Cr_tauj_main.233::
                        3799 .LDWlin233:
00000c70 63ca           3800 	cmp	3,r25
00000c72 ea05*          3801 	bne	.L2863
                        3802 --1314:         {
                        3803 --1315:             r_tauj_RegCmur.Bits.Tis = LOC_BOTH_HIGH_WIDTH;
                        3804 --line1315
                        3805 ..lin.D.3A.5CRenesas_Electronics.5CD1x_RGL.5Crgl_ghs_D1Lx_obj_V1.2E2.2E0.5Cvlib.5Capp.5Cgfx_apps.5Csimple_draw_d1l2.5Ctarget.5Cd1lx_mango_ghs.5Cobj.5Cr_tauj_main.234::
                        3806 .LDWlin234:
00000c74 9d0e0300       3807 	ori	3,r29,r1
00000c78 c1eeffff       3808 	andi	65535,r1,r29
00000c7c a505*          3809 	br	.L2853

                                                                      Page 65
                                                              C:\Users\YINGAO~1\AppData\Local\Temp\gh_00008g01.si
                        3810 .L2863:
                        3811 --1316:         } 
                        3812 --1317:         else 
                        3813 --1318:         {
                        3814 --1319:             error_mode = R_TAUJ_ERR_RANGE;
                        3815 --line1319
                        3816 ..lin.D.3A.5CRenesas_Electronics.5CD1x_RGL.5Crgl_ghs_D1Lx_obj_V1.2E2.2E0.5Cvlib.5Capp.5Cgfx_apps.5Csimple_draw_d1l2.5Ctarget.5Cd1lx_mango_ghs.5Cobj.5Cr_tauj_main.235::
                        3817 .LDWlin235:
00000c7e 02d2           3818 	mov	2,r26
                        3819 .L2853:
                        3820 --1320:         }
                        3821 --1321:     }
                        3822 --1322:     /* if no error then update the register */
                        3823 --1323:     if ( error_mode == R_TAUJ_ERR_OK) 
00000c80 e0d1           3824 	cmp	zero,r26
00000c82 ea1d*          3825 	bne	.L2866
                        3826 --1324:     {
                        3827 --1325:         /* update the CMUR Channel Mode OS Register */
                        3828 --1326:         base_address = R_TAUJ_Dev[Unit].BaseAddr;
                        3829 --line1326
                        3830 ..lin.D.3A.5CRenesas_Electronics.5CD1x_RGL.5Crgl_ghs_D1Lx_obj_V1.2E2.2E0.5Cvlib.5Capp.5Cgfx_apps.5Csimple_draw_d1l2.5Ctarget.5Cd1lx_mango_ghs.5Cobj.5Cr_tauj_main.236::
                        3831 .LDWlin236:
00000c84 235f0500       3832 	ld.w	4[sp],r11
00000c88 2c0600000000*  3833 	mov	_R_TAUJ_Dev,r12
00000c8e 0bf0           3834 	mov	r11,ep
00000c90 fe00           3835 	sxh	ep
00000c92 fef61400       3836 	mulhi	20,ep,ep
00000c96 ccf1           3837 	add	r12,ep
00000c98 00e5           3838 	sld.w	0[ep],r28
                        3839 --1327:         offset_address = R_TAUJ0_CMUR0 + loc_GetChannelAddress(Channel);
00000c9a 23370900       3840 	ld.w	8[sp],r6
                        3841 	jarl	_loc_GetChannelAddress,lp
                        3841 <EXPANSION BEGIN>
                        3841 jarl22 _loc_GetChannelAddress , lp 
00000c9e bfffbef3*      3841 <EXPANSION END>
00000ca2 0ade2000       3842 	addi	32,r10,r27
                        3843 --1328:         R_TAUJ_WRITE16(base_address + offset_address, r_tauj_RegCmur.Word);
                        3844 --line1328
                        3845 ..lin.D.3A.5CRenesas_Electronics.5CD1x_RGL.5Crgl_ghs_D1Lx_obj_V1.2E2.2E0.5Cvlib.5Capp.5Cgfx_apps.5Csimple_draw_d1l2.5Ctarget.5Cd1lx_mango_ghs.5Cobj.5Cr_tauj_main.237::
                        3846 .LDWlin237:
00000ca6 1bf0           3847 	mov	r27,ep
00000ca8 dcf1           3848 	add	r28,ep
00000caa 80ec           3849 	sst.h	r29,0[ep]
                        3850 --1329:            /* check values! */
                        3851 --1330:         while (R_TAUJ_READ16(base_address + offset_address) != r_tauj_RegCmur.Word) 
00000cac c505*          3852 	br	.L2868
                        3853 .L2870:
                        3854 --1331:         {
                        3855 --1332:             R_TAUJ_WRITE16(base_address + offset_address, r_tauj_RegCmur.Word);
                        3856 --line1332
                        3857 ..lin.D.3A.5CRenesas_Electronics.5CD1x_RGL.5Crgl_ghs_D1Lx_obj_V1.2E2.2E0.5Cvlib.5Capp.5Cgfx_apps.5Csimple_draw_d1l2.5Ctarget.5Cd1lx_mango_ghs.5Cobj.5Cr_tauj_main.238::
                        3858 .LDWlin238:
00000cae 1bf0           3859 	mov	r27,ep
00000cb0 dcf1           3860 	add	r28,ep
00000cb2 80ec           3861 	sst.h	r29,0[ep]
                        3862 .L2868:
00000cb4 1bf0           3863 	mov	r27,ep
00000cb6 dcf1           3864 	add	r28,ep
00000cb8 7008           3865 	sld.hu	0[ep],r1
00000cba fd09           3866 	cmp	r29,r1
00000cbc 9afd*          3867 	bne	.L2870

                                                                      Page 66
                                                              C:\Users\YINGAO~1\AppData\Local\Temp\gh_00008g01.si
                        3868 .L2866:
                        3869 --1333:         }           
                        3870 --1334:     }
                        3871 --1335:     return error_mode;
                        3872 --line1335
                        3873 ..lin.D.3A.5CRenesas_Electronics.5CD1x_RGL.5Crgl_ghs_D1Lx_obj_V1.2E2.2E0.5Cvlib.5Capp.5Cgfx_apps.5Csimple_draw_d1l2.5Ctarget.5Cd1lx_mango_ghs.5Cobj.5Cr_tauj_main.239::
                        3874 .LDWlin239:
00000cbe 1a50           3875 	mov	r26,r10
                        3876 --	    .ef
                        3877 .LDW56:
00000cc0 4606ff70       3878 	dispose	3,{r25,r26,r27,r28,r29,r31},[lp]
                        3879 	.type	_R_TAUJ_SetTinEdge,@function
                        3880 	.size	_R_TAUJ_SetTinEdge,.-_R_TAUJ_SetTinEdge
                        3881 	.align	2
                        3882 .LDW66:
                        3883 --_error_mode	r26	local
                        3884 --_base_address	r28	local
                        3885 --_offset_address	r27	local
                        3886 --_r_tauj_RegCmur	r29	local
                        3887 
                        3888 --_Unit	4[sp]	param
                        3889 --_Channel	8[sp]	param
                        3890 --_Edge	r25	param
                        3891 
                        3892 	.section ".bss","awb"
                        3893 .L2938:
                        3894 	.type	.L2938,@object
                        3895 	.size	.L2938,0
                        3896 	.data
                        3897 	.text
                        3898 
                        3899 --1336: }
                        3900 
                        3901 --1339: /***********************************************************
                        3902 --1340:   Function: R_TAUJ_SetPeriod
                        3903 --1341: */
                        3904 --1343: r_tauj_Error_t R_TAUJ_SetPeriod(uint32_t Unit, r_tauj_Channel_t Channel, uint32_t Period) 
                        3905 	.align	2
                        3906 	.align	2
                        3907 	.global	_R_TAUJ_SetPeriod
                        3908 _R_TAUJ_SetPeriod:
00000cc4 8207e170       3909 	prepare	{r25,r26,r27,r28,r29,r31},1
00000cc8 06d0           3910 	mov	r6,r26
00000cca 07c8           3911 	mov	r7,r25
00000ccc 63470100       3912 	st.w	r8,0[sp]
                        3913 --	    .bf
                        3914 .LDW76:
                        3915 --1344: {
                        3916 --1345:     r_tauj_Error_t error_mode = R_TAUJ_ERR_OK;
00000cd0 00ea           3917 	mov	0,r29
                        3918 --1346:     uint32_t base_address = 0;
00000cd2 00e2           3919 	mov	0,r28
                        3920 --1347:     uint32_t offset_address = 0;
00000cd4 00da           3921 	mov	0,r27
                        3922 --1349:     /* check the instance is allowed */
                        3923 --1350:     if ( Unit > (R_TAUJ_MACRO_NUM - 1)) 
00000cd6 e0d1           3924 	cmp	zero,r26
00000cd8 b305*          3925 	bnh	.L3027
                        3926 --1351:     {
                        3927 --1352:         /* instance too high */
                        3928 --1353:         error_mode = R_TAUJ_ERR_INSTANCE;

                                                                      Page 67
                                                              C:\Users\YINGAO~1\AppData\Local\Temp\gh_00008g01.si
                        3929 --line1353
                        3930 ..lin.D.3A.5CRenesas_Electronics.5CD1x_RGL.5Crgl_ghs_D1Lx_obj_V1.2E2.2E0.5Cvlib.5Capp.5Cgfx_apps.5Csimple_draw_d1l2.5Ctarget.5Cd1lx_mango_ghs.5Cobj.5Cr_tauj_main.240::
                        3931 .LDWlin240:
00000cda 03ea           3932 	mov	3,r29
00000cdc b515*          3933 	br	.L3029
                        3934 .L3027:
                        3935 --1354:     } 
                        3936 --1355:     else 
                        3937 --1356:     {
                        3938 --1357:         /* ok, update the CDR register value */
                        3939 --1358:         base_address = R_TAUJ_Dev[Unit].BaseAddr;
                        3940 --line1358
                        3941 ..lin.D.3A.5CRenesas_Electronics.5CD1x_RGL.5Crgl_ghs_D1Lx_obj_V1.2E2.2E0.5Cvlib.5Capp.5Cgfx_apps.5Csimple_draw_d1l2.5Ctarget.5Cd1lx_mango_ghs.5Cobj.5Cr_tauj_main.241::
                        3942 .LDWlin241:
00000cde 1af0           3943 	mov	r26,ep
00000ce0 fe00           3944 	sxh	ep
00000ce2 fef61400       3945 	mulhi	20,ep,ep
00000ce6 2e0600000000*  3946 	mov	_R_TAUJ_Dev,r14
00000cec cef1           3947 	add	r14,ep
00000cee 00e5           3948 	sld.w	0[ep],r28
                        3949 --1359:         offset_address = R_TAUJ0_CDR0 + loc_GetChannelAddress(Channel);
00000cf0 1930           3950 	mov	r25,r6
                        3951 	jarl	_loc_GetChannelAddress,lp
                        3951 <EXPANSION BEGIN>
                        3951 jarl22 _loc_GetChannelAddress , lp 
00000cf2 bfff6af3*      3951 <EXPANSION END>
00000cf6 0ad8           3952 	mov	r10,r27
                        3953 --1360:         R_TAUJ_WRITE32(base_address + offset_address, Period);
                        3954 --line1360
                        3955 ..lin.D.3A.5CRenesas_Electronics.5CD1x_RGL.5Crgl_ghs_D1Lx_obj_V1.2E2.2E0.5Cvlib.5Capp.5Cgfx_apps.5Csimple_draw_d1l2.5Ctarget.5Cd1lx_mango_ghs.5Cobj.5Cr_tauj_main.242::
                        3956 .LDWlin242:
00000cf8 235f0100       3957 	ld.w	0[sp],r11
00000cfc 1bf0           3958 	mov	r27,ep
00000cfe dcf1           3959 	add	r28,ep
00000d00 015d           3960 	sst.w	r11,0[ep]
                        3961 .L3029:
                        3962 --1361:     }
                        3963 --1363:     return error_mode;
00000d02 1d50           3964 	mov	r29,r10
                        3965 --	    .ef
                        3966 .LDW86:
00000d04 4206ff70       3967 	dispose	1,{r25,r26,r27,r28,r29,r31},[lp]
                        3968 	.type	_R_TAUJ_SetPeriod,@function
                        3969 	.size	_R_TAUJ_SetPeriod,.-_R_TAUJ_SetPeriod
                        3970 	.align	2
                        3971 .LDW96:
                        3972 --_error_mode	r29	local
                        3973 --_base_address	r28	local
                        3974 --_offset_address	r27	local
                        3975 
                        3976 --_Unit	r26	param
                        3977 --_Channel	r25	param
                        3978 --_Period	0[sp]	param
                        3979 
                        3980 	.section ".bss","awb"
                        3981 .L3064:
                        3982 	.type	.L3064,@object
                        3983 	.size	.L3064,0
                        3984 	.data
                        3985 	.text
                        3986 

                                                                      Page 68
                                                              C:\Users\YINGAO~1\AppData\Local\Temp\gh_00008g01.si
                        3987 --1364: }
                        3988 
                        3989 --1367: /***********************************************************
                        3990 --1368:   Function: R_TAUJ_Start
                        3991 --1369: */
                        3992 --1371: r_tauj_Error_t R_TAUJ_Start(uint32_t Unit, r_tauj_Channel_t Channel) 
                        3993 	.align	2
                        3994 	.align	2
                        3995 	.global	_R_TAUJ_Start
                        3996 _R_TAUJ_Start:
00000d08 8207e170       3997 	prepare	{r25,r26,r27,r28,r29,r31},1
00000d0c 63370100       3998 	st.w	r6,0[sp]
00000d10 07c8           3999 	mov	r7,r25
                        4000 --	    .bf
                        4001 .LDW07:
                        4002 --1372: {
                        4003 --1373:     r_tauj_Error_t error_mode = R_TAUJ_ERR_OK;
00000d12 00e2           4004 	mov	0,r28
                        4005 --1374:     uint16_t u16_channel = 0;
00000d14 00da           4006 	mov	0,r27
                        4007 --1375:     uint32_t base_address = 0;
00000d16 00d2           4008 	mov	0,r26
                        4009 --1376:     uint16_t u16_temp = 0;
00000d18 00ea           4010 	mov	0,r29
                        4011 --1378:     /* check the instance is allowed */
                        4012 --1379:     if ( Unit > (R_TAUJ_MACRO_NUM - 1)) 
00000d1a 235f0100       4013 	ld.w	0[sp],r11
00000d1e e059           4014 	cmp	zero,r11
00000d20 b305*          4015 	bnh	.L3102
                        4016 --1380:     {
                        4017 --1381:         /* instance too high */
                        4018 --1382:         error_mode = R_TAUJ_ERR_INSTANCE;
                        4019 --line1382
                        4020 ..lin.D.3A.5CRenesas_Electronics.5CD1x_RGL.5Crgl_ghs_D1Lx_obj_V1.2E2.2E0.5Cvlib.5Capp.5Cgfx_apps.5Csimple_draw_d1l2.5Ctarget.5Cd1lx_mango_ghs.5Cobj.5Cr_tauj_main.243::
                        4021 .LDWlin243:
00000d22 03e2           4022 	mov	3,r28
00000d24 8525*          4023 	br	.L3104
                        4024 .L3102:
                        4025 --1383:     } 
                        4026 --1384:     else 
                        4027 --1385:     {
                        4028 --1386:         /* ok, update the TAUJ0TS: TAU Channel Start Trigger register */
                        4029 --1388:         /* check the range for the channels */
                        4030 --1389:         if ( Channel > R_TAUJ_CHANNEL_ALL) 
                        4031 --line1389
                        4032 ..lin.D.3A.5CRenesas_Electronics.5CD1x_RGL.5Crgl_ghs_D1Lx_obj_V1.2E2.2E0.5Cvlib.5Capp.5Cgfx_apps.5Csimple_draw_d1l2.5Ctarget.5Cd1lx_mango_ghs.5Cobj.5Cr_tauj_main.244::
                        4033 .LDWlin244:
00000d26 64ca           4034 	cmp	4,r25
00000d28 b705*          4035 	ble	.L3105
                        4036 --1390:         {
                        4037 --1391:             error_mode = R_TAUJ_ERR_RANGE;
                        4038 --line1391
                        4039 ..lin.D.3A.5CRenesas_Electronics.5CD1x_RGL.5Crgl_ghs_D1Lx_obj_V1.2E2.2E0.5Cvlib.5Capp.5Cgfx_apps.5Csimple_draw_d1l2.5Ctarget.5Cd1lx_mango_ghs.5Cobj.5Cr_tauj_main.245::
                        4040 .LDWlin245:
00000d2a 02e2           4041 	mov	2,r28
00000d2c c51d*          4042 	br	.L3104
                        4043 .L3105:
                        4044 --1392:         } 
                        4045 --1393:         else 
                        4046 --1394:         {
                        4047 --1395:             base_address = R_TAUJ_Dev[Unit].BaseAddr;

                                                                      Page 69
                                                              C:\Users\YINGAO~1\AppData\Local\Temp\gh_00008g01.si
                        4048 --line1395
                        4049 ..lin.D.3A.5CRenesas_Electronics.5CD1x_RGL.5Crgl_ghs_D1Lx_obj_V1.2E2.2E0.5Cvlib.5Capp.5Cgfx_apps.5Csimple_draw_d1l2.5Ctarget.5Cd1lx_mango_ghs.5Cobj.5Cr_tauj_main.246::
                        4050 .LDWlin246:
00000d2e 235f0100       4051 	ld.w	0[sp],r11
00000d32 2e0600000000*  4052 	mov	_R_TAUJ_Dev,r14
00000d38 0bf0           4053 	mov	r11,ep
00000d3a fe00           4054 	sxh	ep
00000d3c fef61400       4055 	mulhi	20,ep,ep
00000d40 cef1           4056 	add	r14,ep
00000d42 00d5           4057 	sld.w	0[ep],r26
                        4058 --1397:             /* enable all channels */
                        4059 --1398:             if ( Channel == R_TAUJ_CHANNEL_ALL) 
00000d44 64ca           4060 	cmp	4,r25
00000d46 ba05*          4061 	bne	.L3108
                        4062 --1399:             {
                        4063 --1400:                 u16_temp = LOC_CHANNEL_ALL;
                        4064 --line1400
                        4065 ..lin.D.3A.5CRenesas_Electronics.5CD1x_RGL.5Crgl_ghs_D1Lx_obj_V1.2E2.2E0.5Cvlib.5Capp.5Cgfx_apps.5Csimple_draw_d1l2.5Ctarget.5Cd1lx_mango_ghs.5Cobj.5Cr_tauj_main.247::
                        4066 .LDWlin247:
00000d48 0fea           4067 	mov	15,r29
00000d4a b50d*          4068 	br	.L3110
                        4069 .L3108:
                        4070 --1401:             } 
                        4071 --1402:             else 
                        4072 --1403:             { /* just one channel */
                        4073 --1404:                 u16_channel = loc_GetChannelID(Channel);
                        4074 --line1404
                        4075 ..lin.D.3A.5CRenesas_Electronics.5CD1x_RGL.5Crgl_ghs_D1Lx_obj_V1.2E2.2E0.5Cvlib.5Capp.5Cgfx_apps.5Csimple_draw_d1l2.5Ctarget.5Cd1lx_mango_ghs.5Cobj.5Cr_tauj_main.248::
                        4076 .LDWlin248:
00000d4c 1930           4077 	mov	r25,r6
                        4078 	jarl	_loc_GetChannelID,lp
                        4078 <EXPANSION BEGIN>
                        4078 jarl22 _loc_GetChannelID , lp 
00000d4e bfffe2f2*      4078 <EXPANSION END>
00000d52 0ad8           4079 	mov	r10,r27
                        4080 --1405:                 R_TAUJ_SET_BIT(u16_temp, u16_channel);
                        4081 --line1405
                        4082 ..lin.D.3A.5CRenesas_Electronics.5CD1x_RGL.5Crgl_ghs_D1Lx_obj_V1.2E2.2E0.5Cvlib.5Capp.5Cgfx_apps.5Csimple_draw_d1l2.5Ctarget.5Cd1lx_mango_ghs.5Cobj.5Cr_tauj_main.249::
                        4083 .LDWlin249:
00000d54 010a           4084 	mov	1,r1
00000d56 fb0fc208       4085 	shl	r27,r1,r1
00000d5a c100           4086 	zxh	r1
00000d5c 01e9           4087 	or	r1,r29
00000d5e dd00           4088 	zxh	r29
                        4089 .L3110:
                        4090 --1406:             }
                        4091 --1407:             /* update the TS Channel Start Trigger Register */
                        4092 --1408:             R_TAUJ_WRITE16(base_address + R_TAUJ0_TS, u16_temp);
00000d60 7aef5400       4093 	st.h	r29,84[r26]
                        4094 .L3104:
                        4095 --1409:         }
                        4096 --1410:     }
                        4097 --1411:     return error_mode;
00000d64 1c50           4098 	mov	r28,r10
                        4099 --	    .ef
                        4100 .LDW17:
00000d66 4206ff70       4101 	dispose	1,{r25,r26,r27,r28,r29,r31},[lp]
                        4102 	.type	_R_TAUJ_Start,@function
                        4103 	.size	_R_TAUJ_Start,.-_R_TAUJ_Start
                        4104 	.align	2
                        4105 .LDW27:

                                                                      Page 70
                                                              C:\Users\YINGAO~1\AppData\Local\Temp\gh_00008g01.si
                        4106 --_error_mode	r28	local
                        4107 --_u16_channel	r27	local
                        4108 --_base_address	r26	local
                        4109 --_u16_temp	r29	local
                        4110 
                        4111 --_Unit	0[sp]	param
                        4112 --_Channel	r25	param
                        4113 
                        4114 	.section ".bss","awb"
                        4115 .L3156:
                        4116 	.type	.L3156,@object
                        4117 	.size	.L3156,0
                        4118 	.data
                        4119 	.text
                        4120 
                        4121 --1412: }
                        4122 
                        4123 --1415: /***********************************************************
                        4124 --1416:   Function: R_TAUJ_Stop
                        4125 --1417: */
                        4126 --1419: r_tauj_Error_t R_TAUJ_Stop(uint32_t Unit, r_tauj_Channel_t Channel) 
                        4127 	.align	2
                        4128 	.align	2
                        4129 	.global	_R_TAUJ_Stop
                        4130 _R_TAUJ_Stop:
00000d6a 8207e170       4131 	prepare	{r25,r26,r27,r28,r29,r31},1
00000d6e 63370100       4132 	st.w	r6,0[sp]
00000d72 07c8           4133 	mov	r7,r25
                        4134 --	    .bf
                        4135 .LDW37:
                        4136 --1420: {
                        4137 --1421:     uint16_t u16_channel = 0;
00000d74 00da           4138 	mov	0,r27
                        4139 --1422:     uint32_t base_address = 0;
00000d76 00d2           4140 	mov	0,r26
                        4141 --1423:     uint16_t u16_temp = 0;
00000d78 00ea           4142 	mov	0,r29
                        4143 --1425:     r_tauj_Error_t error_mode = R_TAUJ_ERR_OK;
00000d7a 00e2           4144 	mov	0,r28
                        4145 --1427:     /* check the instance is allowed */
                        4146 --1428:     if ( Unit > (R_TAUJ_MACRO_NUM - 1)) 
00000d7c 235f0100       4147 	ld.w	0[sp],r11
00000d80 e059           4148 	cmp	zero,r11
00000d82 b305*          4149 	bnh	.L3212
                        4150 --1429:     {
                        4151 --1430:         /* instance too high */
                        4152 --1431:         error_mode = R_TAUJ_ERR_INSTANCE;
                        4153 --line1431
                        4154 ..lin.D.3A.5CRenesas_Electronics.5CD1x_RGL.5Crgl_ghs_D1Lx_obj_V1.2E2.2E0.5Cvlib.5Capp.5Cgfx_apps.5Csimple_draw_d1l2.5Ctarget.5Cd1lx_mango_ghs.5Cobj.5Cr_tauj_main.250::
                        4155 .LDWlin250:
00000d84 03e2           4156 	mov	3,r28
00000d86 8525*          4157 	br	.L3214
                        4158 .L3212:
                        4159 --1432:     } 
                        4160 --1433:     else 
                        4161 --1434:     {
                        4162 --1435:         /* set the channel to be stopped in the TAUJ0TT: TAU Channel Stop Trigger Register */
                        4163 --1437:         /* check the range for the channels */
                        4164 --1438:         if ( Channel > R_TAUJ_CHANNEL_ALL) 
                        4165 --line1438
                        4166 ..lin.D.3A.5CRenesas_Electronics.5CD1x_RGL.5Crgl_ghs_D1Lx_obj_V1.2E2.2E0.5Cvlib.5Capp.5Cgfx_apps.5Csimple_draw_d1l2.5Ctarget.5Cd1lx_mango_ghs.5Cobj.5Cr_tauj_main.251::

                                                                      Page 71
                                                              C:\Users\YINGAO~1\AppData\Local\Temp\gh_00008g01.si
                        4167 .LDWlin251:
00000d88 64ca           4168 	cmp	4,r25
00000d8a b705*          4169 	ble	.L3215
                        4170 --1439:         {
                        4171 --1440:             error_mode = R_TAUJ_ERR_RANGE;
                        4172 --line1440
                        4173 ..lin.D.3A.5CRenesas_Electronics.5CD1x_RGL.5Crgl_ghs_D1Lx_obj_V1.2E2.2E0.5Cvlib.5Capp.5Cgfx_apps.5Csimple_draw_d1l2.5Ctarget.5Cd1lx_mango_ghs.5Cobj.5Cr_tauj_main.252::
                        4174 .LDWlin252:
00000d8c 02e2           4175 	mov	2,r28
00000d8e c51d*          4176 	br	.L3214
                        4177 .L3215:
                        4178 --1441:         } 
                        4179 --1442:         else 
                        4180 --1443:         {
                        4181 --1444:             /* enable all channels */
                        4182 --1445:             if ( Channel == R_TAUJ_CHANNEL_ALL) 
                        4183 --line1445
                        4184 ..lin.D.3A.5CRenesas_Electronics.5CD1x_RGL.5Crgl_ghs_D1Lx_obj_V1.2E2.2E0.5Cvlib.5Capp.5Cgfx_apps.5Csimple_draw_d1l2.5Ctarget.5Cd1lx_mango_ghs.5Cobj.5Cr_tauj_main.253::
                        4185 .LDWlin253:
00000d90 64ca           4186 	cmp	4,r25
00000d92 ba05*          4187 	bne	.L3218
                        4188 --1446:             {
                        4189 --1447:                 u16_temp = LOC_CHANNEL_ALL;
                        4190 --line1447
                        4191 ..lin.D.3A.5CRenesas_Electronics.5CD1x_RGL.5Crgl_ghs_D1Lx_obj_V1.2E2.2E0.5Cvlib.5Capp.5Cgfx_apps.5Csimple_draw_d1l2.5Ctarget.5Cd1lx_mango_ghs.5Cobj.5Cr_tauj_main.254::
                        4192 .LDWlin254:
00000d94 0fea           4193 	mov	15,r29
00000d96 b50d*          4194 	br	.L3220
                        4195 .L3218:
                        4196 --1448:             } 
                        4197 --1449:             else 
                        4198 --1450:             { /* just one channel */
                        4199 --1451:                 u16_channel = loc_GetChannelID(Channel);
                        4200 --line1451
                        4201 ..lin.D.3A.5CRenesas_Electronics.5CD1x_RGL.5Crgl_ghs_D1Lx_obj_V1.2E2.2E0.5Cvlib.5Capp.5Cgfx_apps.5Csimple_draw_d1l2.5Ctarget.5Cd1lx_mango_ghs.5Cobj.5Cr_tauj_main.255::
                        4202 .LDWlin255:
00000d98 1930           4203 	mov	r25,r6
                        4204 	jarl	_loc_GetChannelID,lp
                        4204 <EXPANSION BEGIN>
                        4204 jarl22 _loc_GetChannelID , lp 
00000d9a bfff96f2*      4204 <EXPANSION END>
00000d9e 0ad8           4205 	mov	r10,r27
                        4206 --1452:                 R_TAUJ_SET_BIT(u16_temp, u16_channel);
                        4207 --line1452
                        4208 ..lin.D.3A.5CRenesas_Electronics.5CD1x_RGL.5Crgl_ghs_D1Lx_obj_V1.2E2.2E0.5Cvlib.5Capp.5Cgfx_apps.5Csimple_draw_d1l2.5Ctarget.5Cd1lx_mango_ghs.5Cobj.5Cr_tauj_main.256::
                        4209 .LDWlin256:
00000da0 010a           4210 	mov	1,r1
00000da2 fb0fc208       4211 	shl	r27,r1,r1
00000da6 c100           4212 	zxh	r1
00000da8 01e9           4213 	or	r1,r29
00000daa dd00           4214 	zxh	r29
                        4215 .L3220:
                        4216 --1453:             }
                        4217 --1455:             base_address = R_TAUJ_Dev[Unit].BaseAddr;
00000dac 235f0100       4218 	ld.w	0[sp],r11
00000db0 2e0600000000*  4219 	mov	_R_TAUJ_Dev,r14
00000db6 0bf0           4220 	mov	r11,ep
00000db8 fe00           4221 	sxh	ep
00000dba fef61400       4222 	mulhi	20,ep,ep
00000dbe cef1           4223 	add	r14,ep
00000dc0 00d5           4224 	sld.w	0[ep],r26

                                                                      Page 72
                                                              C:\Users\YINGAO~1\AppData\Local\Temp\gh_00008g01.si
                        4225 --1457:             /* update the TT Channel Stop Trigger Register (Write only) */
                        4226 --1458:             R_TAUJ_WRITE16(base_address + R_TAUJ0_TT, u16_temp);
00000dc2 7aef5800       4227 	st.h	r29,88[r26]
                        4228 .L3214:
                        4229 --1459:         }
                        4230 --1460:     }
                        4231 --1461:     return error_mode;
00000dc6 1c50           4232 	mov	r28,r10
                        4233 --	    .ef
                        4234 .LDW47:
00000dc8 4206ff70       4235 	dispose	1,{r25,r26,r27,r28,r29,r31},[lp]
                        4236 	.type	_R_TAUJ_Stop,@function
                        4237 	.size	_R_TAUJ_Stop,.-_R_TAUJ_Stop
                        4238 	.align	2
                        4239 .LDW57:
                        4240 --_u16_channel	r27	local
                        4241 --_base_address	r26	local
                        4242 --_u16_temp	r29	local
                        4243 --_error_mode	r28	local
                        4244 
                        4245 --_Unit	0[sp]	param
                        4246 --_Channel	r25	param
                        4247 
                        4248 	.section ".bss","awb"
                        4249 .L3268:
                        4250 	.type	.L3268,@object
                        4251 	.size	.L3268,0
                        4252 	.data
                        4253 	.text
                        4254 
                        4255 --1462: }
                        4256 
                        4257 --1465: /***********************************************************
                        4258 --1466:   Function: R_TAUJ_ReloadDataTrigger
                        4259 --1467: */
                        4260 --1469: r_tauj_Error_t R_TAUJ_ReloadDataTrigger(uint32_t Unit, r_tauj_Channel_t Channel) 
                        4261 	.align	2
                        4262 	.align	2
                        4263 	.global	_R_TAUJ_ReloadDataTrigger
                        4264 _R_TAUJ_ReloadDataTrigger:
00000dcc 8207e170       4265 	prepare	{r25,r26,r27,r28,r29,r31},1
00000dd0 63370100       4266 	st.w	r6,0[sp]
00000dd4 07c8           4267 	mov	r7,r25
                        4268 --	    .bf
                        4269 .LDW67:
                        4270 --1470: {
                        4271 --1471:     uint16_t u16_channel = 0;
00000dd6 00da           4272 	mov	0,r27
                        4273 --1472:     uint32_t base_address = 0;
00000dd8 00d2           4274 	mov	0,r26
                        4275 --1473:     uint16_t u16_temp = 0;
00000dda 00ea           4276 	mov	0,r29
                        4277 --1475:     r_tauj_Error_t error_mode = R_TAUJ_ERR_OK;
00000ddc 00e2           4278 	mov	0,r28
                        4279 --1477:     /* check the instance is allowed */
                        4280 --1478:     if (Unit > (R_TAUJ_MACRO_NUM - 1)) 
00000dde 235f0100       4281 	ld.w	0[sp],r11
00000de2 e059           4282 	cmp	zero,r11
00000de4 b305*          4283 	bnh	.L3324
                        4284 --1479:     {
                        4285 --1480:         /* instance too high */

                                                                      Page 73
                                                              C:\Users\YINGAO~1\AppData\Local\Temp\gh_00008g01.si
                        4286 --1481:         error_mode = R_TAUJ_ERR_INSTANCE;
                        4287 --line1481
                        4288 ..lin.D.3A.5CRenesas_Electronics.5CD1x_RGL.5Crgl_ghs_D1Lx_obj_V1.2E2.2E0.5Cvlib.5Capp.5Cgfx_apps.5Csimple_draw_d1l2.5Ctarget.5Cd1lx_mango_ghs.5Cobj.5Cr_tauj_main.257::
                        4289 .LDWlin257:
00000de6 03e2           4290 	mov	3,r28
00000de8 8525*          4291 	br	.L3326
                        4292 .L3324:
                        4293 --1482:     } 
                        4294 --1483:     else 
                        4295 --1484:     {
                        4296 --1485:         /* check the range for the channels */
                        4297 --1486:         if (Channel > R_TAUJ_CHANNEL_ALL) 
                        4298 --line1486
                        4299 ..lin.D.3A.5CRenesas_Electronics.5CD1x_RGL.5Crgl_ghs_D1Lx_obj_V1.2E2.2E0.5Cvlib.5Capp.5Cgfx_apps.5Csimple_draw_d1l2.5Ctarget.5Cd1lx_mango_ghs.5Cobj.5Cr_tauj_main.258::
                        4300 .LDWlin258:
00000dea 64ca           4301 	cmp	4,r25
00000dec b705*          4302 	ble	.L3327
                        4303 --1487:         {
                        4304 --1488:             error_mode = R_TAUJ_ERR_RANGE;
                        4305 --line1488
                        4306 ..lin.D.3A.5CRenesas_Electronics.5CD1x_RGL.5Crgl_ghs_D1Lx_obj_V1.2E2.2E0.5Cvlib.5Capp.5Cgfx_apps.5Csimple_draw_d1l2.5Ctarget.5Cd1lx_mango_ghs.5Cobj.5Cr_tauj_main.259::
                        4307 .LDWlin259:
00000dee 02e2           4308 	mov	2,r28
00000df0 c51d*          4309 	br	.L3326
                        4310 .L3327:
                        4311 --1489:         }
                        4312 --1490:         else 
                        4313 --1491:         { /* enable all channels */
                        4314 --1492:             if ( Channel == R_TAUJ_CHANNEL_ALL) 
                        4315 --line1492
                        4316 ..lin.D.3A.5CRenesas_Electronics.5CD1x_RGL.5Crgl_ghs_D1Lx_obj_V1.2E2.2E0.5Cvlib.5Capp.5Cgfx_apps.5Csimple_draw_d1l2.5Ctarget.5Cd1lx_mango_ghs.5Cobj.5Cr_tauj_main.260::
                        4317 .LDWlin260:
00000df2 64ca           4318 	cmp	4,r25
00000df4 ba05*          4319 	bne	.L3330
                        4320 --1493:             {
                        4321 --1494:                 u16_temp = LOC_CHANNEL_ALL;
                        4322 --line1494
                        4323 ..lin.D.3A.5CRenesas_Electronics.5CD1x_RGL.5Crgl_ghs_D1Lx_obj_V1.2E2.2E0.5Cvlib.5Capp.5Cgfx_apps.5Csimple_draw_d1l2.5Ctarget.5Cd1lx_mango_ghs.5Cobj.5Cr_tauj_main.261::
                        4324 .LDWlin261:
00000df6 0fea           4325 	mov	15,r29
00000df8 b50d*          4326 	br	.L3332
                        4327 .L3330:
                        4328 --1495:             } 
                        4329 --1496:             else 
                        4330 --1497:             { /* just one channel */
                        4331 --1498:                 u16_channel = loc_GetChannelID(Channel);
                        4332 --line1498
                        4333 ..lin.D.3A.5CRenesas_Electronics.5CD1x_RGL.5Crgl_ghs_D1Lx_obj_V1.2E2.2E0.5Cvlib.5Capp.5Cgfx_apps.5Csimple_draw_d1l2.5Ctarget.5Cd1lx_mango_ghs.5Cobj.5Cr_tauj_main.262::
                        4334 .LDWlin262:
00000dfa 1930           4335 	mov	r25,r6
                        4336 	jarl	_loc_GetChannelID,lp
                        4336 <EXPANSION BEGIN>
                        4336 jarl22 _loc_GetChannelID , lp 
00000dfc bfff34f2*      4336 <EXPANSION END>
00000e00 0ad8           4337 	mov	r10,r27
                        4338 --1499:                 R_TAUJ_SET_BIT(u16_temp, u16_channel);
                        4339 --line1499
                        4340 ..lin.D.3A.5CRenesas_Electronics.5CD1x_RGL.5Crgl_ghs_D1Lx_obj_V1.2E2.2E0.5Cvlib.5Capp.5Cgfx_apps.5Csimple_draw_d1l2.5Ctarget.5Cd1lx_mango_ghs.5Cobj.5Cr_tauj_main.263::
                        4341 .LDWlin263:
00000e02 010a           4342 	mov	1,r1
00000e04 fb0fc208       4343 	shl	r27,r1,r1

                                                                      Page 74
                                                              C:\Users\YINGAO~1\AppData\Local\Temp\gh_00008g01.si
00000e08 c100           4344 	zxh	r1
00000e0a 01e9           4345 	or	r1,r29
00000e0c dd00           4346 	zxh	r29
                        4347 .L3332:
                        4348 --1500:             }
                        4349 --1502:             base_address = R_TAUJ_Dev[Unit].BaseAddr;
00000e0e 235f0100       4350 	ld.w	0[sp],r11
00000e12 2e0600000000*  4351 	mov	_R_TAUJ_Dev,r14
00000e18 0bf0           4352 	mov	r11,ep
00000e1a fe00           4353 	sxh	ep
00000e1c fef61400       4354 	mulhi	20,ep,ep
00000e20 cef1           4355 	add	r14,ep
00000e22 00d5           4356 	sld.w	0[ep],r26
                        4357 --1504:             /* update the RDT Channel Reload Data Trigger Register (Write only) */
                        4358 --1505:             R_TAUJ_WRITE16(base_address + R_TAUJ0_RDT, u16_temp);
00000e24 7aef6800       4359 	st.h	r29,104[r26]
                        4360 .L3326:
                        4361 --1506:         }
                        4362 --1507:     }
                        4363 --1508:     return error_mode;
00000e28 1c50           4364 	mov	r28,r10
                        4365 --	    .ef
                        4366 .LDW77:
00000e2a 4206ff70       4367 	dispose	1,{r25,r26,r27,r28,r29,r31},[lp]
                        4368 	.type	_R_TAUJ_ReloadDataTrigger,@function
                        4369 	.size	_R_TAUJ_ReloadDataTrigger,.-_R_TAUJ_ReloadDataTrigger
                        4370 	.align	2
                        4371 .LDW87:
                        4372 --_u16_channel	r27	local
                        4373 --_base_address	r26	local
                        4374 --_u16_temp	r29	local
                        4375 --_error_mode	r28	local
                        4376 
                        4377 --_Unit	0[sp]	param
                        4378 --_Channel	r25	param
                        4379 
                        4380 	.section ".bss","awb"
                        4381 .L3380:
                        4382 	.type	.L3380,@object
                        4383 	.size	.L3380,0
                        4384 	.data
                        4385 	.text
                        4386 
                        4387 --1509: }
                        4388 
                        4389 --1512: /***********************************************************
                        4390 --1513:   Function: R_TAUJ_SetInvertOutputTOUT
                        4391 --1514: */
                        4392 --1516: r_tauj_Error_t R_TAUJ_SetInvertOutputTOUT(
                        4393 	.align	2
                        4394 	.align	2
                        4395 	.global	_R_TAUJ_SetInvertOutputTOUT
                        4396 _R_TAUJ_SetInvertOutputTOUT:
00000e2e 8607e170       4397 	prepare	{r25,r26,r27,r28,r29,r31},3
00000e32 633f0900       4398 	st.w	r7,8[sp]
00000e36 c85eff00       4399 	andi	255,r8,r11
00000e3a 435f0300       4400 	st.b	r11,3[sp]
00000e3e 06c8           4401 	mov	r6,r25
                        4402 --	    .bf
                        4403 .LDW97:
                        4404 --1517:     uint32_t Unit,

                                                                      Page 75
                                                              C:\Users\YINGAO~1\AppData\Local\Temp\gh_00008g01.si
                        4405 --1518:     r_tauj_Channel_t Channel,
                        4406 --1519:     uint8_t InvertOutput)
                        4407 --1520: {
                        4408 --1521:     r_tauj_Error_t error_mode = R_TAUJ_ERR_OK;
00000e40 00da           4409 	mov	0,r27
                        4410 --1522:     uint32_t base_address = 0;
00000e42 00e2           4411 	mov	0,r28
                        4412 --1523:     uint16_t u16_tol = 0;
00000e44 00ea           4413 	mov	0,r29
                        4414 --1524:     uint16_t u16_channel = 0;
00000e46 00d2           4415 	mov	0,r26
                        4416 --1526:     /* check the instance is allowed */
                        4417 --1527:     if ( Unit > (R_TAUJ_MACRO_NUM - 1)) 
00000e48 e0c9           4418 	cmp	zero,r25
00000e4a b305*          4419 	bnh	.L3436
                        4420 --1528:     {
                        4421 --1529:         /* instance too high */
                        4422 --1530:         error_mode = R_TAUJ_ERR_INSTANCE;
                        4423 --line1530
                        4424 ..lin.D.3A.5CRenesas_Electronics.5CD1x_RGL.5Crgl_ghs_D1Lx_obj_V1.2E2.2E0.5Cvlib.5Capp.5Cgfx_apps.5Csimple_draw_d1l2.5Ctarget.5Cd1lx_mango_ghs.5Cobj.5Cr_tauj_main.264::
                        4425 .LDWlin264:
00000e4c 03da           4426 	mov	3,r27
00000e4e 8535*          4427 	br	.L3438
                        4428 .L3436:
                        4429 --1531:     } 
                        4430 --1532:     else 
                        4431 --1533:     {
                        4432 --1534:         /* ok, invert the output of the TOUTn pin (TOL) */
                        4433 --1535:         base_address = R_TAUJ_Dev[Unit].BaseAddr;
                        4434 --line1535
                        4435 ..lin.D.3A.5CRenesas_Electronics.5CD1x_RGL.5Crgl_ghs_D1Lx_obj_V1.2E2.2E0.5Cvlib.5Capp.5Cgfx_apps.5Csimple_draw_d1l2.5Ctarget.5Cd1lx_mango_ghs.5Cobj.5Cr_tauj_main.265::
                        4436 .LDWlin265:
00000e50 19f0           4437 	mov	r25,ep
00000e52 fe00           4438 	sxh	ep
00000e54 fef61400       4439 	mulhi	20,ep,ep
00000e58 2b0600000000*  4440 	mov	_R_TAUJ_Dev,r11
00000e5e cbf1           4441 	add	r11,ep
00000e60 00e5           4442 	sld.w	0[ep],r28
                        4443 --1536:         u16_tol = R_TAUJ_READ16(base_address + R_TAUJ0_TOL);
00000e62 fcef6500       4444 	ld.hu	100[r28],r29
                        4445 --1538:         /* enable all channels */
                        4446 --1539:         if ( Channel == R_TAUJ_CHANNEL_ALL) 
00000e66 235f0900       4447 	ld.w	8[sp],r11
00000e6a 645a           4448 	cmp	4,r11
00000e6c 9a0d*          4449 	bne	.L3439
                        4450 --1540:         {
                        4451 --1541:             if ( InvertOutput == 1) 
                        4452 --line1541
                        4453 ..lin.D.3A.5CRenesas_Electronics.5CD1x_RGL.5Crgl_ghs_D1Lx_obj_V1.2E2.2E0.5Cvlib.5Capp.5Cgfx_apps.5Csimple_draw_d1l2.5Ctarget.5Cd1lx_mango_ghs.5Cobj.5Cr_tauj_main.266::
                        4454 .LDWlin266:
00000e6e a35f0300       4455 	ld.bu	3[sp],r11
00000e72 615a           4456 	cmp	1,r11
00000e74 ba05*          4457 	bne	.L3441
                        4458 --1542:             {
                        4459 --1543:                 u16_tol = LOC_CHANNEL_ALL;
                        4460 --line1543
                        4461 ..lin.D.3A.5CRenesas_Electronics.5CD1x_RGL.5Crgl_ghs_D1Lx_obj_V1.2E2.2E0.5Cvlib.5Capp.5Cgfx_apps.5Csimple_draw_d1l2.5Ctarget.5Cd1lx_mango_ghs.5Cobj.5Cr_tauj_main.267::
                        4462 .LDWlin267:
00000e76 0fea           4463 	mov	15,r29
00000e78 b51d*          4464 	br	.L3438
                        4465 .L3441:

                                                                      Page 76
                                                              C:\Users\YINGAO~1\AppData\Local\Temp\gh_00008g01.si
                        4466 --1544:             } 
                        4467 --1545:             else 
                        4468 --1546:             {
                        4469 --1547:                 u16_tol = 0;
                        4470 --line1547
                        4471 ..lin.D.3A.5CRenesas_Electronics.5CD1x_RGL.5Crgl_ghs_D1Lx_obj_V1.2E2.2E0.5Cvlib.5Capp.5Cgfx_apps.5Csimple_draw_d1l2.5Ctarget.5Cd1lx_mango_ghs.5Cobj.5Cr_tauj_main.268::
                        4472 .LDWlin268:
00000e7a 00ea           4473 	mov	0,r29
00000e7c 951d*          4474 	br	.L3438
                        4475 .L3439:
                        4476 --1548:             }
                        4477 --1549:         }
                        4478 --1550:         else 
                        4479 --1551:         { /* just one channel */
                        4480 --1552:             u16_channel = loc_GetChannelID(Channel);
                        4481 --line1552
                        4482 ..lin.D.3A.5CRenesas_Electronics.5CD1x_RGL.5Crgl_ghs_D1Lx_obj_V1.2E2.2E0.5Cvlib.5Capp.5Cgfx_apps.5Csimple_draw_d1l2.5Ctarget.5Cd1lx_mango_ghs.5Cobj.5Cr_tauj_main.269::
                        4483 .LDWlin269:
00000e7e 23370900       4484 	ld.w	8[sp],r6
                        4485 	jarl	_loc_GetChannelID,lp
                        4485 <EXPANSION BEGIN>
                        4485 jarl22 _loc_GetChannelID , lp 
00000e82 bfffaef1*      4485 <EXPANSION END>
00000e86 0ad0           4486 	mov	r10,r26
                        4487 --1553:             if ( InvertOutput == 1) 
                        4488 --line1553
                        4489 ..lin.D.3A.5CRenesas_Electronics.5CD1x_RGL.5Crgl_ghs_D1Lx_obj_V1.2E2.2E0.5Cvlib.5Capp.5Cgfx_apps.5Csimple_draw_d1l2.5Ctarget.5Cd1lx_mango_ghs.5Cobj.5Cr_tauj_main.270::
                        4490 .LDWlin270:
00000e88 a35f0300       4491 	ld.bu	3[sp],r11
00000e8c 615a           4492 	cmp	1,r11
00000e8e 8a0d*          4493 	bne	.L3445
                        4494 --1554:             {
                        4495 --1555:                 R_TAUJ_SET_BIT(u16_tol, u16_channel);
                        4496 --line1555
                        4497 ..lin.D.3A.5CRenesas_Electronics.5CD1x_RGL.5Crgl_ghs_D1Lx_obj_V1.2E2.2E0.5Cvlib.5Capp.5Cgfx_apps.5Csimple_draw_d1l2.5Ctarget.5Cd1lx_mango_ghs.5Cobj.5Cr_tauj_main.271::
                        4498 .LDWlin271:
00000e90 010a           4499 	mov	1,r1
00000e92 fa0fc208       4500 	shl	r26,r1,r1
00000e96 c100           4501 	zxh	r1
00000e98 01e9           4502 	or	r1,r29
00000e9a dd00           4503 	zxh	r29
00000e9c 950d*          4504 	br	.L3438
                        4505 .L3445:
                        4506 --1556:             } 
                        4507 --1557:             else 
                        4508 --1558:             {
                        4509 --1559:                 R_TAUJ_CLR_BIT(u16_tol, u16_channel);
                        4510 --line1559
                        4511 ..lin.D.3A.5CRenesas_Electronics.5CD1x_RGL.5Crgl_ghs_D1Lx_obj_V1.2E2.2E0.5Cvlib.5Capp.5Cgfx_apps.5Csimple_draw_d1l2.5Ctarget.5Cd1lx_mango_ghs.5Cobj.5Cr_tauj_main.272::
                        4512 .LDWlin272:
00000e9e 010a           4513 	mov	1,r1
00000ea0 fa0fc208       4514 	shl	r26,r1,r1
00000ea4 c100           4515 	zxh	r1
00000ea6 2108           4516 	not	r1,r1
00000ea8 c100           4517 	zxh	r1
00000eaa 41e9           4518 	and	r1,r29
00000eac dd00           4519 	zxh	r29
                        4520 .L3438:
                        4521 --1560:             }
                        4522 --1561:         }
                        4523 --1562:     }

                                                                      Page 77
                                                              C:\Users\YINGAO~1\AppData\Local\Temp\gh_00008g01.si
                        4524 --1564:     /* if no error then update the register */
                        4525 --1565:     if ( error_mode == R_TAUJ_ERR_OK)
00000eae e0d9           4526 	cmp	zero,r27
00000eb0 ca0d*          4527 	bne	.L3448
                        4528 --1566:     {
                        4529 --1567:         /* update the Channel Output Level Register (TOL) */
                        4530 --1568:         base_address = R_TAUJ_Dev[Unit].BaseAddr;
                        4531 --line1568
                        4532 ..lin.D.3A.5CRenesas_Electronics.5CD1x_RGL.5Crgl_ghs_D1Lx_obj_V1.2E2.2E0.5Cvlib.5Capp.5Cgfx_apps.5Csimple_draw_d1l2.5Ctarget.5Cd1lx_mango_ghs.5Cobj.5Cr_tauj_main.273::
                        4533 .LDWlin273:
00000eb2 19f0           4534 	mov	r25,ep
00000eb4 fe00           4535 	sxh	ep
00000eb6 fef61400       4536 	mulhi	20,ep,ep
00000eba 2b0600000000*  4537 	mov	_R_TAUJ_Dev,r11
00000ec0 cbf1           4538 	add	r11,ep
00000ec2 00e5           4539 	sld.w	0[ep],r28
                        4540 --1569:         R_TAUJ_WRITE16(base_address + R_TAUJ0_TOL, u16_tol);
00000ec4 7cef6400       4541 	st.h	r29,100[r28]
                        4542 .L3448:
                        4543 --1570:     }
                        4544 --1572:     return error_mode;
00000ec8 1b50           4545 	mov	r27,r10
                        4546 --	    .ef
                        4547 .LDW08:
00000eca 4606ff70       4548 	dispose	3,{r25,r26,r27,r28,r29,r31},[lp]
                        4549 	.type	_R_TAUJ_SetInvertOutputTOUT,@function
                        4550 	.size	_R_TAUJ_SetInvertOutputTOUT,.-_R_TAUJ_SetInvertOutputTOUT
                        4551 	.align	2
                        4552 .LDW18:
                        4553 --_error_mode	r27	local
                        4554 --_base_address	r28	local
                        4555 --_u16_tol	r29	local
                        4556 --_u16_channel	r26	local
                        4557 
                        4558 --_Unit	r25	param
                        4559 --_Channel	8[sp]	param
                        4560 --_InvertOutput	3[sp]	param
                        4561 
                        4562 	.section ".bss","awb"
                        4563 .L3502:
                        4564 	.type	.L3502,@object
                        4565 	.size	.L3502,0
                        4566 	.data
                        4567 	.text
                        4568 
                        4569 --1573: }
                        4570 
                        4571 --1576: /***********************************************************
                        4572 --1577:   Function: R_TAUJ_OutputEnable
                        4573 --1578: */
                        4574 --1580: r_tauj_Error_t R_TAUJ_OutputEnable(uint32_t Unit, r_tauj_Channel_t Channel) 
                        4575 	.align	2
                        4576 	.align	2
                        4577 	.global	_R_TAUJ_OutputEnable
                        4578 _R_TAUJ_OutputEnable:
00000ece 8207e170       4579 	prepare	{r25,r26,r27,r28,r29,r31},1
00000ed2 63370100       4580 	st.w	r6,0[sp]
00000ed6 07c8           4581 	mov	r7,r25
                        4582 --	    .bf
                        4583 .LDW28:
                        4584 --1581: {

                                                                      Page 78
                                                              C:\Users\YINGAO~1\AppData\Local\Temp\gh_00008g01.si
                        4585 --1582:     r_tauj_Error_t error_mode = R_TAUJ_ERR_OK;
00000ed8 00e2           4586 	mov	0,r28
                        4587 --1583:     uint16_t u16_channel = 0;
00000eda 00d2           4588 	mov	0,r26
                        4589 --1584:     uint32_t base_address = 0;
00000edc 00da           4590 	mov	0,r27
                        4591 --1585:     uint16_t u16_temp = 0;
00000ede 00ea           4592 	mov	0,r29
                        4593 --1587:     /* check the instance is allowed */
                        4594 --1588:     if ( Unit > (R_TAUJ_MACRO_NUM - 1)) 
00000ee0 235f0100       4595 	ld.w	0[sp],r11
00000ee4 e059           4596 	cmp	zero,r11
00000ee6 b305*          4597 	bnh	.L3573
                        4598 --1589:     {
                        4599 --1590:         /* instance too high */
                        4600 --1591:         error_mode = R_TAUJ_ERR_INSTANCE;
                        4601 --line1591
                        4602 ..lin.D.3A.5CRenesas_Electronics.5CD1x_RGL.5Crgl_ghs_D1Lx_obj_V1.2E2.2E0.5Cvlib.5Capp.5Cgfx_apps.5Csimple_draw_d1l2.5Ctarget.5Cd1lx_mango_ghs.5Cobj.5Cr_tauj_main.274::
                        4603 .LDWlin274:
00000ee8 03e2           4604 	mov	3,r28
00000eea f525*          4605 	br	.L3575
                        4606 .L3573:
                        4607 --1592:     } 
                        4608 --1593:     else 
                        4609 --1594:     {
                        4610 --1595:         /* ok, update the TAUJ0TOE: TAU Channel Output Enable register */
                        4611 --1597:         /* check the range for the channels */
                        4612 --1598:         if ( Channel > R_TAUJ_CHANNEL_ALL) 
                        4613 --line1598
                        4614 ..lin.D.3A.5CRenesas_Electronics.5CD1x_RGL.5Crgl_ghs_D1Lx_obj_V1.2E2.2E0.5Cvlib.5Capp.5Cgfx_apps.5Csimple_draw_d1l2.5Ctarget.5Cd1lx_mango_ghs.5Cobj.5Cr_tauj_main.275::
                        4615 .LDWlin275:
00000eec 64ca           4616 	cmp	4,r25
00000eee b705*          4617 	ble	.L3576
                        4618 --1599:         {
                        4619 --1600:             error_mode = R_TAUJ_ERR_RANGE;
                        4620 --line1600
                        4621 ..lin.D.3A.5CRenesas_Electronics.5CD1x_RGL.5Crgl_ghs_D1Lx_obj_V1.2E2.2E0.5Cvlib.5Capp.5Cgfx_apps.5Csimple_draw_d1l2.5Ctarget.5Cd1lx_mango_ghs.5Cobj.5Cr_tauj_main.276::
                        4622 .LDWlin276:
00000ef0 02e2           4623 	mov	2,r28
00000ef2 b525*          4624 	br	.L3575
                        4625 .L3576:
                        4626 --1601:         } 
                        4627 --1602:         else 
                        4628 --1603:         {
                        4629 --1604:             base_address = R_TAUJ_Dev[Unit].BaseAddr;
                        4630 --line1604
                        4631 ..lin.D.3A.5CRenesas_Electronics.5CD1x_RGL.5Crgl_ghs_D1Lx_obj_V1.2E2.2E0.5Cvlib.5Capp.5Cgfx_apps.5Csimple_draw_d1l2.5Ctarget.5Cd1lx_mango_ghs.5Cobj.5Cr_tauj_main.277::
                        4632 .LDWlin277:
00000ef4 235f0100       4633 	ld.w	0[sp],r11
00000ef8 2e0600000000*  4634 	mov	_R_TAUJ_Dev,r14
00000efe 0bf0           4635 	mov	r11,ep
00000f00 fe00           4636 	sxh	ep
00000f02 fef61400       4637 	mulhi	20,ep,ep
00000f06 cef1           4638 	add	r14,ep
00000f08 00dd           4639 	sld.w	0[ep],r27
                        4640 --1605:             u16_temp = R_TAUJ_READ16(base_address + R_TAUJ0_TOE);
00000f0a fbef6100       4641 	ld.hu	96[r27],r29
                        4642 --1607:             /* enable all channels */
                        4643 --1608:             if ( Channel == R_TAUJ_CHANNEL_ALL) 
00000f0e 64ca           4644 	cmp	4,r25
00000f10 ba05*          4645 	bne	.L3579

                                                                      Page 79
                                                              C:\Users\YINGAO~1\AppData\Local\Temp\gh_00008g01.si
                        4646 --1609:             {
                        4647 --1610:                 u16_temp = LOC_CHANNEL_ALL;
                        4648 --line1610
                        4649 ..lin.D.3A.5CRenesas_Electronics.5CD1x_RGL.5Crgl_ghs_D1Lx_obj_V1.2E2.2E0.5Cvlib.5Capp.5Cgfx_apps.5Csimple_draw_d1l2.5Ctarget.5Cd1lx_mango_ghs.5Cobj.5Cr_tauj_main.278::
                        4650 .LDWlin278:
00000f12 0fea           4651 	mov	15,r29
00000f14 b50d*          4652 	br	.L3581
                        4653 .L3579:
                        4654 --1611:             } 
                        4655 --1612:             else 
                        4656 --1613:             { /* just one channel */
                        4657 --1614:                 u16_channel = loc_GetChannelID(Channel);
                        4658 --line1614
                        4659 ..lin.D.3A.5CRenesas_Electronics.5CD1x_RGL.5Crgl_ghs_D1Lx_obj_V1.2E2.2E0.5Cvlib.5Capp.5Cgfx_apps.5Csimple_draw_d1l2.5Ctarget.5Cd1lx_mango_ghs.5Cobj.5Cr_tauj_main.279::
                        4660 .LDWlin279:
00000f16 1930           4661 	mov	r25,r6
                        4662 	jarl	_loc_GetChannelID,lp
                        4662 <EXPANSION BEGIN>
                        4662 jarl22 _loc_GetChannelID , lp 
00000f18 bfff18f1*      4662 <EXPANSION END>
00000f1c 0ad0           4663 	mov	r10,r26
                        4664 --1615:                 R_TAUJ_SET_BIT(u16_temp, u16_channel);
                        4665 --line1615
                        4666 ..lin.D.3A.5CRenesas_Electronics.5CD1x_RGL.5Crgl_ghs_D1Lx_obj_V1.2E2.2E0.5Cvlib.5Capp.5Cgfx_apps.5Csimple_draw_d1l2.5Ctarget.5Cd1lx_mango_ghs.5Cobj.5Cr_tauj_main.280::
                        4667 .LDWlin280:
00000f1e 010a           4668 	mov	1,r1
00000f20 fa0fc208       4669 	shl	r26,r1,r1
00000f24 c100           4670 	zxh	r1
00000f26 01e9           4671 	or	r1,r29
00000f28 dd00           4672 	zxh	r29
                        4673 .L3581:
                        4674 --1616:             }
                        4675 --1618:             /* update the TOE */
                        4676 --1619:             R_TAUJ_WRITE16(base_address + R_TAUJ0_TOE, u16_temp);
00000f2a 7bef6000       4677 	st.h	r29,96[r27]
                        4678 --1621:             /* verify the register write was succesfull */
                        4679 --1622:             if ( u16_temp != (R_TAUJ_READ16(base_address + R_TAUJ0_TOE))) 
00000f2e fb0f6100       4680 	ld.hu	96[r27],r1
00000f32 e1e9           4681 	cmp	r1,r29
00000f34 a205*          4682 	be	.L3575
                        4683 --1623:             {
                        4684 --1624:                 error_mode = R_TAUJ_ERR_REG_UPDATE_FAIL;
                        4685 --line1624
                        4686 ..lin.D.3A.5CRenesas_Electronics.5CD1x_RGL.5Crgl_ghs_D1Lx_obj_V1.2E2.2E0.5Cvlib.5Capp.5Cgfx_apps.5Csimple_draw_d1l2.5Ctarget.5Cd1lx_mango_ghs.5Cobj.5Cr_tauj_main.281::
                        4687 .LDWlin281:
00000f36 05e2           4688 	mov	5,r28
                        4689 .L3575:
                        4690 --1625:             }
                        4691 --1626:         }
                        4692 --1627:     }
                        4693 --1628:     return error_mode;
00000f38 1c50           4694 	mov	r28,r10
                        4695 --	    .ef
                        4696 .LDW38:
00000f3a 4206ff70       4697 	dispose	1,{r25,r26,r27,r28,r29,r31},[lp]
                        4698 	.type	_R_TAUJ_OutputEnable,@function
                        4699 	.size	_R_TAUJ_OutputEnable,.-_R_TAUJ_OutputEnable
                        4700 	.align	2
                        4701 .LDW48:
                        4702 --_error_mode	r28	local
                        4703 --_u16_channel	r26	local

                                                                      Page 80
                                                              C:\Users\YINGAO~1\AppData\Local\Temp\gh_00008g01.si
                        4704 --_base_address	r27	local
                        4705 --_u16_temp	r29	local
                        4706 
                        4707 --_Unit	0[sp]	param
                        4708 --_Channel	r25	param
                        4709 
                        4710 	.section ".bss","awb"
                        4711 .L3626:
                        4712 	.type	.L3626,@object
                        4713 	.size	.L3626,0
                        4714 	.data
                        4715 	.text
                        4716 
                        4717 --1629: }
                        4718 
                        4719 --1632: /***********************************************************
                        4720 --1633:   Function: R_TAUJ_OutputWrite
                        4721 --1634: */
                        4722 --1636: r_tauj_Error_t R_TAUJ_OutputWrite(uint32_t Unit, r_tauj_Channel_t Channel, uint8_t Value) {
                        4723 	.align	2
                        4724 	.align	2
                        4725 	.global	_R_TAUJ_OutputWrite
                        4726 _R_TAUJ_OutputWrite:
00000f3e 8407e170       4727 	prepare	{r25,r26,r27,r28,r29,r31},2
00000f42 63370500       4728 	st.w	r6,4[sp]
00000f46 c85eff00       4729 	andi	255,r8,r11
00000f4a 435f0300       4730 	st.b	r11,3[sp]
00000f4e 07c8           4731 	mov	r7,r25
                        4732 --	    .bf
                        4733 .LDW58:
                        4734 --1637:     r_tauj_Error_t error_mode = R_TAUJ_ERR_OK;
00000f50 00e2           4735 	mov	0,r28
                        4736 --1638:     uint16_t u16_channel = 0;
00000f52 00da           4737 	mov	0,r27
                        4738 --1639:     uint32_t base_address = 0;
00000f54 00d2           4739 	mov	0,r26
                        4740 --1640:     uint16_t u16_temp = 0;
00000f56 00ea           4741 	mov	0,r29
                        4742 --1642:     /* check the instance is allowed */
                        4743 --1643:     if(Unit > (R_TAUJ_MACRO_NUM - 1)) 
00000f58 235f0500       4744 	ld.w	4[sp],r11
00000f5c e059           4745 	cmp	zero,r11
00000f5e b305*          4746 	bnh	.L3691
                        4747 --1644:     {
                        4748 --1645:         /* instance too high */
                        4749 --1646:         error_mode = R_TAUJ_ERR_INSTANCE;
                        4750 --line1646
                        4751 ..lin.D.3A.5CRenesas_Electronics.5CD1x_RGL.5Crgl_ghs_D1Lx_obj_V1.2E2.2E0.5Cvlib.5Capp.5Cgfx_apps.5Csimple_draw_d1l2.5Ctarget.5Cd1lx_mango_ghs.5Cobj.5Cr_tauj_main.282::
                        4752 .LDWlin282:
00000f60 03e2           4753 	mov	3,r28
00000f62 e535*          4754 	br	.L3693
                        4755 .L3691:
                        4756 --1647:     } 
                        4757 --1648:     else 
                        4758 --1649:     {
                        4759 --1650:         /* ok, update the TAUJ0TO: TAU Channel Output register */
                        4760 --1652:         /* check the range for the channels */
                        4761 --1653:         if(Channel > R_TAUJ_CHANNEL_ALL) 
                        4762 --line1653
                        4763 ..lin.D.3A.5CRenesas_Electronics.5CD1x_RGL.5Crgl_ghs_D1Lx_obj_V1.2E2.2E0.5Cvlib.5Capp.5Cgfx_apps.5Csimple_draw_d1l2.5Ctarget.5Cd1lx_mango_ghs.5Cobj.5Cr_tauj_main.283::
                        4764 .LDWlin283:

                                                                      Page 81
                                                              C:\Users\YINGAO~1\AppData\Local\Temp\gh_00008g01.si
00000f64 64ca           4765 	cmp	4,r25
00000f66 b705*          4766 	ble	.L3694
                        4767 --1654:         {
                        4768 --1655:             error_mode = R_TAUJ_ERR_RANGE;
                        4769 --line1655
                        4770 ..lin.D.3A.5CRenesas_Electronics.5CD1x_RGL.5Crgl_ghs_D1Lx_obj_V1.2E2.2E0.5Cvlib.5Capp.5Cgfx_apps.5Csimple_draw_d1l2.5Ctarget.5Cd1lx_mango_ghs.5Cobj.5Cr_tauj_main.284::
                        4771 .LDWlin284:
00000f68 02e2           4772 	mov	2,r28
00000f6a a535*          4773 	br	.L3693
                        4774 .L3694:
                        4775 --1656:         } 
                        4776 --1657:         else 
                        4777 --1658:         {
                        4778 --1659:             base_address = R_TAUJ_Dev[Unit].BaseAddr;
                        4779 --line1659
                        4780 ..lin.D.3A.5CRenesas_Electronics.5CD1x_RGL.5Crgl_ghs_D1Lx_obj_V1.2E2.2E0.5Cvlib.5Capp.5Cgfx_apps.5Csimple_draw_d1l2.5Ctarget.5Cd1lx_mango_ghs.5Cobj.5Cr_tauj_main.285::
                        4781 .LDWlin285:
00000f6c 235f0500       4782 	ld.w	4[sp],r11
00000f70 2e0600000000*  4783 	mov	_R_TAUJ_Dev,r14
00000f76 0bf0           4784 	mov	r11,ep
00000f78 fe00           4785 	sxh	ep
00000f7a fef61400       4786 	mulhi	20,ep,ep
00000f7e cef1           4787 	add	r14,ep
00000f80 00d5           4788 	sld.w	0[ep],r26
                        4789 --1661:             /* enable all channels */
                        4790 --1662:             if (Channel == R_TAUJ_CHANNEL_ALL) 
00000f82 64ca           4791 	cmp	4,r25
00000f84 aa0d*          4792 	bne	.L3697
                        4793 --1663:             {
                        4794 --1664: 				if (Value == 1) 
                        4795 --line1664
                        4796 ..lin.D.3A.5CRenesas_Electronics.5CD1x_RGL.5Crgl_ghs_D1Lx_obj_V1.2E2.2E0.5Cvlib.5Capp.5Cgfx_apps.5Csimple_draw_d1l2.5Ctarget.5Cd1lx_mango_ghs.5Cobj.5Cr_tauj_main.286::
                        4797 .LDWlin286:
00000f86 a35f0300       4798 	ld.bu	3[sp],r11
00000f8a 615a           4799 	cmp	1,r11
00000f8c ca05*          4800 	bne	.L3699
                        4801 --1665:                 {
                        4802 --1666: 	                u16_temp = 0xFFFF;
                        4803 --line1666
                        4804 ..lin.D.3A.5CRenesas_Electronics.5CD1x_RGL.5Crgl_ghs_D1Lx_obj_V1.2E2.2E0.5Cvlib.5Capp.5Cgfx_apps.5Csimple_draw_d1l2.5Ctarget.5Cd1lx_mango_ghs.5Cobj.5Cr_tauj_main.287::
                        4805 .LDWlin287:
00000f8e 80eeffff       4806 	ori	65535,zero,r29
00000f92 c51d*          4807 	br	.L3702
                        4808 .L3699:
                        4809 --1667: 				} 
                        4810 --1668:                 else 
                        4811 --1669:                 {
                        4812 --1670: 	                u16_temp = 0x0000;
                        4813 --line1670
                        4814 ..lin.D.3A.5CRenesas_Electronics.5CD1x_RGL.5Crgl_ghs_D1Lx_obj_V1.2E2.2E0.5Cvlib.5Capp.5Cgfx_apps.5Csimple_draw_d1l2.5Ctarget.5Cd1lx_mango_ghs.5Cobj.5Cr_tauj_main.288::
                        4815 .LDWlin288:
00000f94 00ea           4816 	mov	0,r29
00000f96 a51d*          4817 	br	.L3702
                        4818 .L3697:
                        4819 --1671: 				}
                        4820 --1672:             } 
                        4821 --1673:             else 
                        4822 --1674:             { /* just one channel */
                        4823 --1675:                 u16_channel = loc_GetChannelID(Channel);
                        4824 --line1675
                        4825 ..lin.D.3A.5CRenesas_Electronics.5CD1x_RGL.5Crgl_ghs_D1Lx_obj_V1.2E2.2E0.5Cvlib.5Capp.5Cgfx_apps.5Csimple_draw_d1l2.5Ctarget.5Cd1lx_mango_ghs.5Cobj.5Cr_tauj_main.289::

                                                                      Page 82
                                                              C:\Users\YINGAO~1\AppData\Local\Temp\gh_00008g01.si
                        4826 .LDWlin289:
00000f98 1930           4827 	mov	r25,r6
                        4828 	jarl	_loc_GetChannelID,lp
                        4828 <EXPANSION BEGIN>
                        4828 jarl22 _loc_GetChannelID , lp 
00000f9a bfff96f0*      4828 <EXPANSION END>
00000f9e 0ad8           4829 	mov	r10,r27
                        4830 --1676: 	            u16_temp = R_TAUJ_READ16(base_address + R_TAUJ0_TO);
                        4831 --line1676
                        4832 ..lin.D.3A.5CRenesas_Electronics.5CD1x_RGL.5Crgl_ghs_D1Lx_obj_V1.2E2.2E0.5Cvlib.5Capp.5Cgfx_apps.5Csimple_draw_d1l2.5Ctarget.5Cd1lx_mango_ghs.5Cobj.5Cr_tauj_main.290::
                        4833 .LDWlin290:
00000fa0 faef5d00       4834 	ld.hu	92[r26],r29
                        4835 --1677: 				if (Value == 1) 
00000fa4 a35f0300       4836 	ld.bu	3[sp],r11
00000fa8 615a           4837 	cmp	1,r11
00000faa 8a0d*          4838 	bne	.L3703
                        4839 --1678:                 {
                        4840 --1679: 	                R_TAUJ_SET_BIT(u16_temp, u16_channel);
                        4841 --line1679
                        4842 ..lin.D.3A.5CRenesas_Electronics.5CD1x_RGL.5Crgl_ghs_D1Lx_obj_V1.2E2.2E0.5Cvlib.5Capp.5Cgfx_apps.5Csimple_draw_d1l2.5Ctarget.5Cd1lx_mango_ghs.5Cobj.5Cr_tauj_main.291::
                        4843 .LDWlin291:
00000fac 010a           4844 	mov	1,r1
00000fae fb0fc208       4845 	shl	r27,r1,r1
00000fb2 c100           4846 	zxh	r1
00000fb4 01e9           4847 	or	r1,r29
00000fb6 dd00           4848 	zxh	r29
00000fb8 950d*          4849 	br	.L3702
                        4850 .L3703:
                        4851 --1680: 				} 
                        4852 --1681:                 else 
                        4853 --1682:                 {
                        4854 --1683: 	                R_TAUJ_CLR_BIT(u16_temp, u16_channel);
                        4855 --line1683
                        4856 ..lin.D.3A.5CRenesas_Electronics.5CD1x_RGL.5Crgl_ghs_D1Lx_obj_V1.2E2.2E0.5Cvlib.5Capp.5Cgfx_apps.5Csimple_draw_d1l2.5Ctarget.5Cd1lx_mango_ghs.5Cobj.5Cr_tauj_main.292::
                        4857 .LDWlin292:
00000fba 010a           4858 	mov	1,r1
00000fbc fb0fc208       4859 	shl	r27,r1,r1
00000fc0 c100           4860 	zxh	r1
00000fc2 2108           4861 	not	r1,r1
00000fc4 c100           4862 	zxh	r1
00000fc6 41e9           4863 	and	r1,r29
00000fc8 dd00           4864 	zxh	r29
                        4865 .L3702:
                        4866 --1684: 				}
                        4867 --1685:             }
                        4868 --1686:             /* update the TOE */
                        4869 --1687:             R_TAUJ_WRITE16(base_address + R_TAUJ0_TO, u16_temp);
00000fca 7aef5c00       4870 	st.h	r29,92[r26]
                        4871 .L3693:
                        4872 --1688:         }
                        4873 --1689:     }
                        4874 --1690:     return error_mode;
00000fce 1c50           4875 	mov	r28,r10
                        4876 --	    .ef
                        4877 .LDW68:
00000fd0 4406ff70       4878 	dispose	2,{r25,r26,r27,r28,r29,r31},[lp]
                        4879 	.type	_R_TAUJ_OutputWrite,@function
                        4880 	.size	_R_TAUJ_OutputWrite,.-_R_TAUJ_OutputWrite
                        4881 	.align	2
                        4882 .LDW78:
                        4883 --_error_mode	r28	local

                                                                      Page 83
                                                              C:\Users\YINGAO~1\AppData\Local\Temp\gh_00008g01.si
                        4884 --_u16_channel	r27	local
                        4885 --_base_address	r26	local
                        4886 --_u16_temp	r29	local
                        4887 
                        4888 --_Unit	4[sp]	param
                        4889 --_Channel	r25	param
                        4890 --_Value	3[sp]	param
                        4891 
                        4892 	.section ".bss","awb"
                        4893 .L3758:
                        4894 	.type	.L3758,@object
                        4895 	.size	.L3758,0
                        4896 	.data
                        4897 	.text
                        4898 
                        4899 --1691: }
                        4900 
                        4901 --1694: /***********************************************************
                        4902 --1695:   Function: R_TAUJ_OutputDisable
                        4903 --1696: */
                        4904 --1698: r_tauj_Error_t R_TAUJ_OutputDisable(uint32_t Unit, r_tauj_Channel_t Channel) 
                        4905 	.align	2
                        4906 	.align	2
                        4907 	.global	_R_TAUJ_OutputDisable
                        4908 _R_TAUJ_OutputDisable:
00000fd4 8207e170       4909 	prepare	{r25,r26,r27,r28,r29,r31},1
00000fd8 63370100       4910 	st.w	r6,0[sp]
00000fdc 07c8           4911 	mov	r7,r25
                        4912 --	    .bf
                        4913 .LDW88:
                        4914 --1699: {
                        4915 --1700:     r_tauj_Error_t error_mode = R_TAUJ_ERR_OK;
00000fde 00e2           4916 	mov	0,r28
                        4917 --1701:     uint16_t u16_channel = 0;
00000fe0 00d2           4918 	mov	0,r26
                        4919 --1702:     uint32_t base_address = 0;
00000fe2 00da           4920 	mov	0,r27
                        4921 --1703:     uint16_t u16_temp = 0;
00000fe4 00ea           4922 	mov	0,r29
                        4923 --1705:     /* check the instance is allowed */
                        4924 --1706:     if ( Unit > (R_TAUJ_MACRO_NUM - 1)) 
00000fe6 235f0100       4925 	ld.w	0[sp],r11
00000fea e059           4926 	cmp	zero,r11
00000fec b305*          4927 	bnh	.L3829
                        4928 --1707:     {
                        4929 --1708:         /* instance too high */
                        4930 --1709:         error_mode = R_TAUJ_ERR_INSTANCE;
                        4931 --line1709
                        4932 ..lin.D.3A.5CRenesas_Electronics.5CD1x_RGL.5Crgl_ghs_D1Lx_obj_V1.2E2.2E0.5Cvlib.5Capp.5Cgfx_apps.5Csimple_draw_d1l2.5Ctarget.5Cd1lx_mango_ghs.5Cobj.5Cr_tauj_main.293::
                        4933 .LDWlin293:
00000fee 03e2           4934 	mov	3,r28
00000ff0 c525*          4935 	br	.L3831
                        4936 .L3829:
                        4937 --1710:     } 
                        4938 --1711:     else 
                        4939 --1712:     {
                        4940 --1713:         /* ok, update the TAUJ0TOE: TAU Channel Output Enable register */
                        4941 --1715:         /* check the range for the channels */
                        4942 --1716:         if ( Channel > R_TAUJ_CHANNEL_ALL) 
                        4943 --line1716
                        4944 ..lin.D.3A.5CRenesas_Electronics.5CD1x_RGL.5Crgl_ghs_D1Lx_obj_V1.2E2.2E0.5Cvlib.5Capp.5Cgfx_apps.5Csimple_draw_d1l2.5Ctarget.5Cd1lx_mango_ghs.5Cobj.5Cr_tauj_main.294::

                                                                      Page 84
                                                              C:\Users\YINGAO~1\AppData\Local\Temp\gh_00008g01.si
                        4945 .LDWlin294:
00000ff2 64ca           4946 	cmp	4,r25
00000ff4 b705*          4947 	ble	.L3832
                        4948 --1717:         {
                        4949 --1718:             error_mode = R_TAUJ_ERR_RANGE;
                        4950 --line1718
                        4951 ..lin.D.3A.5CRenesas_Electronics.5CD1x_RGL.5Crgl_ghs_D1Lx_obj_V1.2E2.2E0.5Cvlib.5Capp.5Cgfx_apps.5Csimple_draw_d1l2.5Ctarget.5Cd1lx_mango_ghs.5Cobj.5Cr_tauj_main.295::
                        4952 .LDWlin295:
00000ff6 02e2           4953 	mov	2,r28
00000ff8 8525*          4954 	br	.L3831
                        4955 .L3832:
                        4956 --1719:         } 
                        4957 --1720:         else 
                        4958 --1721:         {
                        4959 --1722:             base_address = R_TAUJ_Dev[Unit].BaseAddr;
                        4960 --line1722
                        4961 ..lin.D.3A.5CRenesas_Electronics.5CD1x_RGL.5Crgl_ghs_D1Lx_obj_V1.2E2.2E0.5Cvlib.5Capp.5Cgfx_apps.5Csimple_draw_d1l2.5Ctarget.5Cd1lx_mango_ghs.5Cobj.5Cr_tauj_main.296::
                        4962 .LDWlin296:
00000ffa 235f0100       4963 	ld.w	0[sp],r11
00000ffe 2e0600000000*  4964 	mov	_R_TAUJ_Dev,r14
00001004 0bf0           4965 	mov	r11,ep
00001006 fe00           4966 	sxh	ep
00001008 fef61400       4967 	mulhi	20,ep,ep
0000100c cef1           4968 	add	r14,ep
0000100e 00dd           4969 	sld.w	0[ep],r27
                        4970 --1723:             u16_temp = R_TAUJ_READ16(base_address + R_TAUJ0_TOE);
00001010 fbef6100       4971 	ld.hu	96[r27],r29
                        4972 --1725:             /* enable all channels */
                        4973 --1726:             if ( Channel == R_TAUJ_CHANNEL_ALL) 
00001014 64ca           4974 	cmp	4,r25
00001016 ba05*          4975 	bne	.L3835
                        4976 --1727:             {
                        4977 --1728:                 u16_temp = 0;
                        4978 --line1728
                        4979 ..lin.D.3A.5CRenesas_Electronics.5CD1x_RGL.5Crgl_ghs_D1Lx_obj_V1.2E2.2E0.5Cvlib.5Capp.5Cgfx_apps.5Csimple_draw_d1l2.5Ctarget.5Cd1lx_mango_ghs.5Cobj.5Cr_tauj_main.297::
                        4980 .LDWlin297:
00001018 00ea           4981 	mov	0,r29
0000101a d50d*          4982 	br	.L3837
                        4983 .L3835:
                        4984 --1729:             } 
                        4985 --1730:             else 
                        4986 --1731:             { /* just one channel */
                        4987 --1732:                 u16_channel = loc_GetChannelID(Channel);
                        4988 --line1732
                        4989 ..lin.D.3A.5CRenesas_Electronics.5CD1x_RGL.5Crgl_ghs_D1Lx_obj_V1.2E2.2E0.5Cvlib.5Capp.5Cgfx_apps.5Csimple_draw_d1l2.5Ctarget.5Cd1lx_mango_ghs.5Cobj.5Cr_tauj_main.298::
                        4990 .LDWlin298:
0000101c 1930           4991 	mov	r25,r6
                        4992 	jarl	_loc_GetChannelID,lp
                        4992 <EXPANSION BEGIN>
                        4992 jarl22 _loc_GetChannelID , lp 
0000101e bfff12f0*      4992 <EXPANSION END>
00001022 0ad0           4993 	mov	r10,r26
                        4994 --1733:                 R_TAUJ_CLR_BIT(u16_temp, u16_channel);
                        4995 --line1733
                        4996 ..lin.D.3A.5CRenesas_Electronics.5CD1x_RGL.5Crgl_ghs_D1Lx_obj_V1.2E2.2E0.5Cvlib.5Capp.5Cgfx_apps.5Csimple_draw_d1l2.5Ctarget.5Cd1lx_mango_ghs.5Cobj.5Cr_tauj_main.299::
                        4997 .LDWlin299:
00001024 010a           4998 	mov	1,r1
00001026 fa0fc208       4999 	shl	r26,r1,r1
0000102a c100           5000 	zxh	r1
0000102c 2108           5001 	not	r1,r1
0000102e c100           5002 	zxh	r1

                                                                      Page 85
                                                              C:\Users\YINGAO~1\AppData\Local\Temp\gh_00008g01.si
00001030 41e9           5003 	and	r1,r29
00001032 dd00           5004 	zxh	r29
                        5005 .L3837:
                        5006 --1734:             }
                        5007 --1736:             /* update the TOE */
                        5008 --1737:             R_TAUJ_WRITE16(base_address + R_TAUJ0_TOE, u16_temp);
00001034 7bef6000       5009 	st.h	r29,96[r27]
                        5010 .L3831:
                        5011 --1738:         }
                        5012 --1739:     }
                        5013 --1741:     return error_mode;
00001038 1c50           5014 	mov	r28,r10
                        5015 --	    .ef
                        5016 .LDW98:
0000103a 4206ff70       5017 	dispose	1,{r25,r26,r27,r28,r29,r31},[lp]
                        5018 	.type	_R_TAUJ_OutputDisable,@function
                        5019 	.size	_R_TAUJ_OutputDisable,.-_R_TAUJ_OutputDisable
                        5020 	.align	2
                        5021 .LDW09:
                        5022 --_error_mode	r28	local
                        5023 --_u16_channel	r26	local
                        5024 --_base_address	r27	local
                        5025 --_u16_temp	r29	local
                        5026 
                        5027 --_Unit	0[sp]	param
                        5028 --_Channel	r25	param
                        5029 
                        5030 	.section ".bss","awb"
                        5031 .L3878:
                        5032 	.type	.L3878,@object
                        5033 	.size	.L3878,0
                        5034 	.data
                        5035 	.text
                        5036 
                        5037 --1742: }
                        5038 
                        5039 --1745: /***********************************************************
                        5040 --1746:   Function: R_TAUJ_GetCaptureData
                        5041 --1747: */
                        5042 --1749: uint32_t R_TAUJ_GetCaptureData(uint32_t Unit, r_tauj_Channel_t Channel) 
                        5043 	.align	2
                        5044 	.align	2
                        5045 	.global	_R_TAUJ_GetCaptureData
                        5046 _R_TAUJ_GetCaptureData:
0000103e 8007e170       5047 	prepare	{r25,r26,r27,r28,r29,r31},0
00001042 06d0           5048 	mov	r6,r26
00001044 07c8           5049 	mov	r7,r25
                        5050 --	    .bf
                        5051 .LDW19:
                        5052 --1750: {
                        5053 --1751:     uint32_t u32_temp = 0;
00001046 00ea           5054 	mov	0,r29
                        5055 --1752:     uint32_t base_address = 0;
00001048 00e2           5056 	mov	0,r28
                        5057 --1753:     uint32_t offset_address = 0;
0000104a 00da           5058 	mov	0,r27
                        5059 --1755:     base_address = R_TAUJ_Dev[Unit].BaseAddr;
0000104c 1af0           5060 	mov	r26,ep
0000104e fe00           5061 	sxh	ep
00001050 fef61400       5062 	mulhi	20,ep,ep
00001054 2e0600000000*  5063 	mov	_R_TAUJ_Dev,r14

                                                                      Page 86
                                                              C:\Users\YINGAO~1\AppData\Local\Temp\gh_00008g01.si
0000105a cef1           5064 	add	r14,ep
0000105c 00e5           5065 	sld.w	0[ep],r28
                        5066 --1757:     /* read the CDR Channel Counter Register */
                        5067 --1758:     offset_address = R_TAUJ0_CDR0 + loc_GetChannelAddress(Channel);
0000105e 1930           5068 	mov	r25,r6
                        5069 	jarl	_loc_GetChannelAddress,lp
                        5069 <EXPANSION BEGIN>
                        5069 jarl22 _loc_GetChannelAddress , lp 
00001060 bffffcef*      5069 <EXPANSION END>
00001064 0ad8           5070 	mov	r10,r27
                        5071 --1759:     u32_temp = R_TAUJ_READ32(base_address + offset_address);
                        5072 --line1759
                        5073 ..lin.D.3A.5CRenesas_Electronics.5CD1x_RGL.5Crgl_ghs_D1Lx_obj_V1.2E2.2E0.5Cvlib.5Capp.5Cgfx_apps.5Csimple_draw_d1l2.5Ctarget.5Cd1lx_mango_ghs.5Cobj.5Cr_tauj_main.300::
                        5074 .LDWlin300:
00001066 1bf0           5075 	mov	r27,ep
00001068 dcf1           5076 	add	r28,ep
0000106a 00ed           5077 	sld.w	0[ep],r29
                        5078 --1761:     return u32_temp;
0000106c 1d50           5079 	mov	r29,r10
                        5080 --	    .ef
                        5081 .LDW29:
0000106e 4006ff70       5082 	dispose	0,{r25,r26,r27,r28,r29,r31},[lp]
                        5083 	.type	_R_TAUJ_GetCaptureData,@function
                        5084 	.size	_R_TAUJ_GetCaptureData,.-_R_TAUJ_GetCaptureData
                        5085 	.align	2
                        5086 .LDW39:
                        5087 --_u32_temp	r29	local
                        5088 --_base_address	r28	local
                        5089 --_offset_address	r27	local
                        5090 
                        5091 --_Unit	r26	param
                        5092 --_Channel	r25	param
                        5093 
                        5094 	.section ".bss","awb"
                        5095 .L3956:
                        5096 	.type	.L3956,@object
                        5097 	.size	.L3956,0
                        5098 	.data
                        5099 	.text
                        5100 
                        5101 --1762: }
                        5102 
                        5103 --1765: /***********************************************************
                        5104 --1766:   Function: R_TAUJ_GetCntData
                        5105 --1767: */
                        5106 --1769: uint32_t R_TAUJ_GetCntData(uint32_t Unit, r_tauj_Channel_t Channel) 
                        5107 	.align	2
                        5108 	.align	2
                        5109 	.global	_R_TAUJ_GetCntData
                        5110 _R_TAUJ_GetCntData:
00001072 8007e170       5111 	prepare	{r25,r26,r27,r28,r29,r31},0
00001076 06d0           5112 	mov	r6,r26
00001078 07c8           5113 	mov	r7,r25
                        5114 --	    .bf
                        5115 .LDW49:
                        5116 --1770: {
                        5117 --1771:     uint32_t u32_temp = 0;
0000107a 00ea           5118 	mov	0,r29
                        5119 --1772:     uint32_t base_address = 0;
0000107c 00e2           5120 	mov	0,r28
                        5121 --1773:     uint32_t offset_address = 0;

                                                                      Page 87
                                                              C:\Users\YINGAO~1\AppData\Local\Temp\gh_00008g01.si
0000107e 00da           5122 	mov	0,r27
                        5123 --1775:     base_address = R_TAUJ_Dev[Unit].BaseAddr;
00001080 1af0           5124 	mov	r26,ep
00001082 fe00           5125 	sxh	ep
00001084 fef61400       5126 	mulhi	20,ep,ep
00001088 2e0600000000*  5127 	mov	_R_TAUJ_Dev,r14
0000108e cef1           5128 	add	r14,ep
00001090 00e5           5129 	sld.w	0[ep],r28
                        5130 --1777:     /* update the CNT Channel Counter Register */
                        5131 --1778:     offset_address = R_TAUJ0_CNT0 + loc_GetChannelAddress(Channel);
00001092 1930           5132 	mov	r25,r6
                        5133 	jarl	_loc_GetChannelAddress,lp
                        5133 <EXPANSION BEGIN>
                        5133 jarl22 _loc_GetChannelAddress , lp 
00001094 bfffc8ef*      5133 <EXPANSION END>
00001098 0ade1000       5134 	addi	16,r10,r27
                        5135 --1779:     u32_temp = R_TAUJ_READ32(base_address + offset_address);
                        5136 --line1779
                        5137 ..lin.D.3A.5CRenesas_Electronics.5CD1x_RGL.5Crgl_ghs_D1Lx_obj_V1.2E2.2E0.5Cvlib.5Capp.5Cgfx_apps.5Csimple_draw_d1l2.5Ctarget.5Cd1lx_mango_ghs.5Cobj.5Cr_tauj_main.301::
                        5138 .LDWlin301:
0000109c 1bf0           5139 	mov	r27,ep
0000109e dcf1           5140 	add	r28,ep
000010a0 00ed           5141 	sld.w	0[ep],r29
                        5142 --1781:     return u32_temp;
000010a2 1d50           5143 	mov	r29,r10
                        5144 --	    .ef
                        5145 .LDW59:
000010a4 4006ff70       5146 	dispose	0,{r25,r26,r27,r28,r29,r31},[lp]
                        5147 	.type	_R_TAUJ_GetCntData,@function
                        5148 	.size	_R_TAUJ_GetCntData,.-_R_TAUJ_GetCntData
                        5149 	.align	2
                        5150 .LDW69:
                        5151 --_u32_temp	r29	local
                        5152 --_base_address	r28	local
                        5153 --_offset_address	r27	local
                        5154 
                        5155 --_Unit	r26	param
                        5156 --_Channel	r25	param
                        5157 
                        5158 	.section ".bss","awb"
                        5159 .L4020:
                        5160 	.type	.L4020,@object
                        5161 	.size	.L4020,0
                        5162 	.data
                        5163 	.text
                        5164 
                        5165 --1782: }
                        5166 
                        5167 --1785: /***********************************************************
                        5168 --1786:   Function: R_TAUJ_ReadReg
                        5169 --1787: */
                        5170 --1789: uint16_t R_TAUJ_ReadReg(uint32_t Unit, uint32_t Offset) 
                        5171 	.align	2
                        5172 	.align	2
                        5173 	.global	_R_TAUJ_ReadReg
                        5174 _R_TAUJ_ReadReg:
000010a8 0660           5175 	mov	r6,r12
000010aa 0758           5176 	mov	r7,r11
                        5177 --	    .bf
                        5178 .LDW79:
                        5179 --1790: {

                                                                      Page 88
                                                              C:\Users\YINGAO~1\AppData\Local\Temp\gh_00008g01.si
                        5180 --1791:     uint16_t u16_temp = 0;
000010ac 000a           5181 	mov	0,r1
                        5182 --1792:     uint32_t base_address = 0;
000010ae 0072           5183 	mov	0,r14
                        5184 --1793:     uint32_t offset_address = 0;
000010b0 006a           5185 	mov	0,r13
                        5186 --1795:     base_address = R_TAUJ_Dev[Unit].BaseAddr;
000010b2 0cf0           5187 	mov	r12,ep
000010b4 fe00           5188 	sxh	ep
000010b6 fef61400       5189 	mulhi	20,ep,ep
000010ba 290600000000*  5190 	mov	_R_TAUJ_Dev,r9
000010c0 c9f1           5191 	add	r9,ep
000010c2 0075           5192 	sld.w	0[ep],r14
                        5193 --1797:     offset_address = Offset;
000010c4 0b68           5194 	mov	r11,r13
                        5195 --1798:     u16_temp = R_TAUJ_READ16(base_address + offset_address);
000010c6 0df0           5196 	mov	r13,ep
000010c8 cef1           5197 	add	r14,ep
000010ca 7008           5198 	sld.hu	0[ep],r1
                        5199 --1800:     return u16_temp;
000010cc 0150           5200 	mov	r1,r10
                        5201 --	    .ef
                        5202 .LDW89:
000010ce 7f00           5203 	jmp	[lp]
                        5204 	.type	_R_TAUJ_ReadReg,@function
                        5205 	.size	_R_TAUJ_ReadReg,.-_R_TAUJ_ReadReg
                        5206 	.align	2
                        5207 .LDW99:
                        5208 --_u16_temp	r1	local
                        5209 --_base_address	r14	local
                        5210 --_offset_address	r13	local
                        5211 
                        5212 --_Unit	r12	param
                        5213 --_Offset	r11	param
                        5214 
                        5215 	.section ".bss","awb"
                        5216 .L4084:
                        5217 	.type	.L4084,@object
                        5218 	.size	.L4084,0
                        5219 	.data
                        5220 	.text
                        5221 
                        5222 --1801: }
                        5223 
                        5224 --1804: /***********************************************************
                        5225 --1805:   Function: R_TAUJ_WriteReg
                        5226 --1806: */
                        5227 --1808: void R_TAUJ_WriteReg(uint32_t Unit, uint32_t Offset, uint16_t Data) 
                        5228 	.align	2
                        5229 	.align	2
                        5230 	.global	_R_TAUJ_WriteReg
                        5231 _R_TAUJ_WriteReg:
000010d0 0668           5232 	mov	r6,r13
000010d2 0760           5233 	mov	r7,r12
000010d4 c85effff       5234 	andi	65535,r8,r11
                        5235 --	    .bf
                        5236 .LDW001:
                        5237 --1809: {
                        5238 --1810:     uint32_t base_address = 0;
000010d8 000a           5239 	mov	0,r1
                        5240 --1811:     uint32_t offset_address = 0;

                                                                      Page 89
                                                              C:\Users\YINGAO~1\AppData\Local\Temp\gh_00008g01.si
000010da 0072           5241 	mov	0,r14
                        5242 --1813:     base_address = R_TAUJ_Dev[Unit].BaseAddr;
000010dc 0df0           5243 	mov	r13,ep
000010de fe00           5244 	sxh	ep
000010e0 fef61400       5245 	mulhi	20,ep,ep
000010e4 290600000000*  5246 	mov	_R_TAUJ_Dev,r9
000010ea c9f1           5247 	add	r9,ep
000010ec 000d           5248 	sld.w	0[ep],r1
                        5249 --1815:     offset_address = Offset;
000010ee 0c70           5250 	mov	r12,r14
                        5251 --1816:     R_TAUJ_WRITE16(base_address + offset_address, Data);
000010f0 0ef0           5252 	mov	r14,ep
000010f2 c1f1           5253 	add	r1,ep
000010f4 805c           5254 	sst.h	r11,0[ep]
                        5255 --1817: }
000010f6 0000           5256 	nop
                        5257 --	    .ef
                        5258 .LDW101:
000010f8 7f00           5259 	jmp	[lp]
                        5260 	.type	_R_TAUJ_WriteReg,@function
                        5261 	.size	_R_TAUJ_WriteReg,.-_R_TAUJ_WriteReg
                        5262 	.align	2
                        5263 .LDW201:
                        5264 --_base_address	r1	local
                        5265 --_offset_address	r14	local
                        5266 
                        5267 --_Unit	r13	param
                        5268 --_Offset	r12	param
                        5269 --_Data	r11	param
                        5270 
                        5271 	.section ".bss","awb"
                        5272 .L4146:
                        5273 	.type	.L4146,@object
                        5274 	.size	.L4146,0
                        5275 	.data
                        5276 	.text
                        5277 
                        5278 
                        5279 --1820: /***********************************************************
                        5280 --1821:   Function: R_TAUJ_SetErrorCallback
                        5281 --1823: */
                        5282 --1825: void R_TAUJ_SetErrorCallback(void ( *ErrorCallback )(uint32_t Unit, uint32_t Error)) 
                        5283 	.align	2
                        5284 	.align	2
                        5285 	.global	_R_TAUJ_SetErrorCallback
                        5286 _R_TAUJ_SetErrorCallback:
000010fa 0670           5287 	mov	r6,r14
000010fc 210600000000*  5288 	mov	__UserErrorHandler,r1
                        5289 --	    .bf
                        5290 .LDW301:
                        5291 --1826: {
                        5292 --1827:     _UserErrorHandler = ErrorCallback;
00001102 2b0600000000*  5293 	mov	__UserErrorHandler,r11
00001108 6b770100       5294 	st.w	r14,0[r11]
                        5295 --1828: }
0000110c 0000           5296 	nop
                        5297 --	    .ef
                        5298 .LDW401:
0000110e 7f00           5299 	jmp	[lp]
                        5300 	.type	_R_TAUJ_SetErrorCallback,@function
                        5301 	.size	_R_TAUJ_SetErrorCallback,.-_R_TAUJ_SetErrorCallback

                                                                      Page 90
                                                              C:\Users\YINGAO~1\AppData\Local\Temp\gh_00008g01.si
                        5302 	.align	2
                        5303 .LDW501:
                        5304 
                        5305 --_ErrorCallback	r14	param
                        5306 
                        5307 	.data
                        5308 	.text
                        5309 
                        5310 
                        5311 --1831: /***********************************************************
                        5312 --1832:   Function: R_TAUJ_GetClock
                        5313 --1833: */
                        5314 --1835: uint32_t R_TAUJ_GetClock(uint32_t Unit) 
                        5315 	.align	2
                        5316 	.align	2
                        5317 	.global	_R_TAUJ_GetClock
                        5318 _R_TAUJ_GetClock:
00001110 80076100       5319 	prepare	{r29,r31},0
00001114 06e8           5320 	mov	r6,r29
                        5321 --	    .bf
                        5322 .LDW601:
                        5323 --1836: {
                        5324 --1837:     return R_TAUJ_Sys_GetClock(Unit);
00001116 1d30           5325 	mov	r29,r6
                        5326 	jarl	_R_TAUJ_Sys_GetClock,lp
                        5326 <EXPANSION BEGIN>
                        5326 jarl22 _R_TAUJ_Sys_GetClock , lp 
00001118 80ff0000*      5326 <EXPANSION END>
                        5327 --	    .ef
                        5328 .LDW701:
                        5329 --line1838
                        5330 ..lin.D.3A.5CRenesas_Electronics.5CD1x_RGL.5Crgl_ghs_D1Lx_obj_V1.2E2.2E0.5Cvlib.5Capp.5Cgfx_apps.5Csimple_draw_d1l2.5Ctarget.5Cd1lx_mango_ghs.5Cobj.5Cr_tauj_main.302::
                        5331 .LDWlin302:
0000111c 40067f00       5332 	dispose	0,{r29,r31},[lp]
                        5333 	.type	_R_TAUJ_GetClock,@function
                        5334 	.size	_R_TAUJ_GetClock,.-_R_TAUJ_GetClock
                        5335 	.align	2
                        5336 .LDW801:
                        5337 
                        5338 --_Unit	r29	param
                        5339 
                        5340 	.section ".bss","awb"
                        5341 .L4216:
                        5342 	.type	.L4216,@object
                        5343 	.size	.L4216,0
                        5344 	.data
                        5345 	.text
                        5346 
                        5347 --1838: }
                        5348 
                        5349 --1841: /***********************************************************
                        5350 --1842:   Function: R_TAUJ_SetFilterBypass
                        5351 --1843: */
                        5352 --1845: uint32_t R_TAUJ_SetFilterBypass(uint32_t Unit) 
                        5353 	.align	2
                        5354 	.align	2
                        5355 	.global	_R_TAUJ_SetFilterBypass
                        5356 _R_TAUJ_SetFilterBypass:
00001120 80076100       5357 	prepare	{r29,r31},0
00001124 06e8           5358 	mov	r6,r29
                        5359 --	    .bf

                                                                      Page 91
                                                              C:\Users\YINGAO~1\AppData\Local\Temp\gh_00008g01.si
                        5360 .LDW901:
                        5361 --1846: {
                        5362 --1847:     return R_TAUJ_Sys_SetFilterBypass(Unit);
00001126 1d30           5363 	mov	r29,r6
                        5364 	jarl	_R_TAUJ_Sys_SetFilterBypass,lp
                        5364 <EXPANSION BEGIN>
                        5364 jarl22 _R_TAUJ_Sys_SetFilterBypass , lp 
00001128 80ff0000*      5364 <EXPANSION END>
                        5365 --	    .ef
                        5366 .LDW011:
                        5367 --line1848
                        5368 ..lin.D.3A.5CRenesas_Electronics.5CD1x_RGL.5Crgl_ghs_D1Lx_obj_V1.2E2.2E0.5Cvlib.5Capp.5Cgfx_apps.5Csimple_draw_d1l2.5Ctarget.5Cd1lx_mango_ghs.5Cobj.5Cr_tauj_main.303::
                        5369 .LDWlin303:
0000112c 40067f00       5370 	dispose	0,{r29,r31},[lp]
                        5371 	.type	_R_TAUJ_SetFilterBypass,@function
                        5372 	.size	_R_TAUJ_SetFilterBypass,.-_R_TAUJ_SetFilterBypass
                        5373 	.align	2
                        5374 .LDW111:
                        5375 
                        5376 --_Unit	r29	param
                        5377 
                        5378 	.section ".bss","awb"
                        5379 .L4248:
                        5380 	.type	.L4248,@object
                        5381 	.size	.L4248,0
                        5382 	.data
                        5383 	.text
                        5384 
                        5385 --1848: }
                        5386 	.align	2
                        5387 --__UserErrorHandler	__UserErrorHandler	static
                        5388 
                        5389 	.data
                        5390 	.section ".bss","awb"
                        5391 	.align	4
                        5392 	.align	4
                        5393 	.global	_R_TAUJ_Dev
00000000 000000000000   5394 _R_TAUJ_Dev:	.space	20
00000006 000000000000 
0000000c 000000000000 
00000012 0000 
                        5395 	.type	_R_TAUJ_Dev,@object
                        5396 	.size	_R_TAUJ_Dev,20
                        5397 	.data
                        5398 	.ghsnote version,14
                        5399 	.ghsnote tools,3
                        5400 	.ghsnote options,144
                        5401 	.text
                        5402 	.align	2
                        5403 ..eof.D.3A.5CRenesas_Electronics.5CD1x_RGL.5Crgl_ghs_D1Lx_obj_V1.2E2.2E0.5Cvlib.5Capp.5Cgfx_apps.5Csimple_draw_d1l2.5Ctarget.5Cd1lx_mango_ghs.5Cobj.5Cr_tauj_main...44.3A.5CRenesas_Electronics.5CD1x_RGL.5Crgl_ghs_D1Lx_obj_V1.2E2.2E0.5Cvlib.5Capp.5Cgfx_apps.5Csimple_draw_d1l2.5Ctarget.5Cd1lx_mango_ghs..5A740388..0::
                        5404 .rh850_flags REGMODE22,DATA_ALIGN8,GP_FIX,EP_NONFIX,TP_FIX,REG2_RESERVE,G3M
