                                                                      Page 1
                                                              C:\Users\YINGAO~1\AppData\Local\Temp\gh_00008t41.si
Command Line: C:\ghs\comp_201355\ease850.exe -w -elf -b0 -I../../../../../Device -I../../../../../Driver/ADCE -I../../../../../Driver/CLOCK -I../../../../../Driver/DIO -I../../../../../Driver/DSPI -I../../../../../Driver/Interrupt -I../../../../../Driver/ISM -I../../../../../Driver/OSTM -I../../../../../Driver/PWM -I../../../../../Driver/RSTC -I../../../../../Driver/RTCA -I../../../../../Driver/STBC -I../../../../../Driver/TAUB -I../../../../../Driver/WDT -I../../../../../middleware\ADM -I../../../../../middleware\BPM -I../../../../../middleware\EED -I../../../../../middleware\IOM -I../../../../../middleware\LRM -I../../../../../middleware\MOM -I../../../../../middleware\PWMM -I../../../../../Common -I../../../../../Applayer\DSM -I../../../../../Applayer\FM -I../../../../../Applayer\TPM -I../../../../../Applayer\ACC -I../../../../../Applayer\ASS -I../../../../../Applayer\BAT -I../../../../../Applayer\COM -I../../../../../Applayer\COM\vtp -I../../../../../Applayer\COM\vtp\lib -I../../../../../Applayer\CRUS -I../../../../../Applayer\DIAG -I../../../../../Applayer\FC -I../../../../../Applayer\FL -I../../../../../Applayer\HSD -I../../../../../Applayer\IDLE -I../../../../../Applayer\ILLU -I../../../../../Applayer\LED -I../../../../../Applayer\MSG -I../../../../../Applayer\NVM -I../../../../../Applayer\ODO -I../../../../../Applayer\PWR -I../../../../../Applayer\RANG -I../../../../../Applayer\RST -I../../../../../Applayer\RTC -I../../../../../Applayer\SCS -I../../../../../Applayer\SSB -I../../../../../Applayer\ST -I../../../../../Applayer\STSMG -I../../../../../Applayer\SYS -I../../../../../Applayer\TIP -I../../../../../Applayer\TRIP -I../../../../../Applayer\CHM -I../../../../../Applayer\DM -I../../../../../Applayer\EVT -I../../../../../Applayer\FTR -I../../../../../Applayer\SLF -I../../../../../Applayer\NWD -I../../../../../Applayer\TPMS -I../../../../../Applayer\WFM -I../../../../../Applayer\NZM -I../../../../../app/gfx_apps/simple_draw_d1l2/src -I../../../../../bsp/board//config -I../../../../../bsp/board//src/gfx -I../../../../../bsp/board//src/hmi -I../../../../../bsp/board//src/stdio -I../../../../../bsp/board/d1lx_mango/config -I../../../../../bsp/board/d1lx_mango/src -I../../../../../bsp/board/d1lx_mango/src/gfx -I../../../../../bsp/board/d1lx_mango/src/hmi -I../../../../../bsp/board/d1lx_mango/src/stdio -I../../../../../bsp/gfx/lib -I../../../../../bsp/gfx/src -I../../../../../bsp/hmi/lib -I../../../../../bsp/hmi/src -I../../../../../bsp/lib -I../../../../../bsp/stdio/lib -I../../../../../bsp/stdio/src -I../../../../../cdi/lib -I../../../../../cdi/src -I../../../../../compiler/rh850_ghs/inc -I../../../../../device/d1lx/lib -I../../../../../device/d1lx/macro_cfg -I../../../../../device/d1lx/src/dev -I../../../../../device/d1lx/src/rh850_ghs -I../../../../../device/d1x_common/macro_cfg -I../../../../../device/d1x_common/src/csisw -I../../../../../device/d1x_common/src/ddb -I../../../../../device/d1x_common/src/dev -I../../../../../device/d1x_common/src/gfxbus -I../../../../../device/d1x_common/src/gpio -I../../../../../device/d1x_common/src/ostm -I../../../../../device/d1x_common/src/pbg -I../../../../../device/d1x_common/src/riic -I../../../../../device/d1x_common/src/sfma -I../../../../../device/d1x_common/src/spea -I../../../../../device/d1x_common/src/tauj -I../../../../../device/d1x_common/src/tick -I../../../../../device/d1x_common/src/vdce -I../../../../../device/d1x_common/src/wm -I../../../../../device/d1x_common/src/xbus -I../../../../../device/lib -I../../../../../macro/bus/pbg/lib -I../../../../../macro/bus/pbg/src -I../../../../../macro/csi/csisw/lib -I../../../../../macro/csi/csisw/src -I../../../../../macro/drw2d/lib -I../../../../../macro/drw2d/platform/cpu -I../../../../../macro/drw2d/platform/os/no_os -I../../../../../macro/drw2d/src -I../../../../../macro/flashc/sfcdb/lib -I../../../../../macro/flashc/sfcdb/src -I../../../../../macro/flashc/sfma/lib -I../../../../../macro/flashc/sfma/src -I../../../../../macro/gfxbus/lib -I../../../../../macro/gfxbus/src -I../../../../../macro/gfxbus/xbus/lib -I../../../../../macro/gfxbus/xbus/src -I../../../../../macro/gpio/lib -I../../../../../macro/gpio/src -I../../../../../macro/i2c/riic/lib -I../../../../../macro/i2c/riic/src -I../../../../../macro/tick/lib -I../../../../../macro/tick/src -I../../../../../macro/timer/ostm/lib -I../../../../../macro/timer/ostm/src -I../../../../../macro/timer/tauj/lib -I../../../../../macro/timer/tauj/src -I../../../../../macro/vdce/lib -I../../../../../macro/vdce/src -I../../../../../macro/vo/ddb/lib -I../../../../../macro/vo/ddb/src -I../../../../../macro/vo/spea/lib -I../../../../../macro/vo/spea/src -I../../../../../macro/wm/lib -I../../../../../macro/wm/src -I../../../../../app/gfx_apps/simple_draw_d1l2/src/QD_HMI -I../../../../../app/gfx_apps/simple_draw_d1l2/src/QD_HMI/HMI_Data -IC:\ghs\comp_201355\lib\rh850_22 -cg_underscore -cpu=rh850g3m -no_v850_simd -nomacro -patch_dbo=D:\Renesas_Electronics\D1x_RGL\rgl_ghs_D1Lx_obj_V1.2.0\vlib\app\gfx_apps\simple_draw_d1l2\target\d1lx_mango_ghs\obj\tpms.dbo -source=tpms.c -o .\obj\gh_00008t41.o -list=.\obj\tpms.lst C:\Users\YINGAO~1\AppData\Local\Temp\gh_00008t41.si 
Original File: C:\Users\YINGAO~1\AppData\Local\Temp\gh_00008t41.si
Source File: tpms.c
Directory: D:\Renesas_Electronics\D1x_RGL\rgl_ghs_D1Lx_obj_V1.2.0\vlib\app\gfx_apps\simple_draw_d1l2\target\d1lx_mango_ghs
Host OS: Windows 7 Service Pack 1
EASE: Copyright (C) 1983-2013 Green Hills Software.  All Rights Reversed.
Release: Compiler v2013.5.5
Build Directory: [Directory] BTOWINBOX:c:/build_2013_5_bto/2013-10-04.1311-2013_5_bto/win32-comp-ecom
Revision: [VCInfo] http://toolsvc/branches/release-branch-2013-5-bto/src@496240 (built by build)
Revision Date: Sat Oct 05 04:54:43 2013

Release Date: Sat Oct 05 05:20:49 2013

                           1 --Driver Command: ccv850 -c -MD -I../../../../../Device
                           2 --		-I../../../../../Driver/ADCE -I../../../../../Driver/CLOCK
                           3 --		-I../../../../../Driver/DIO -I../../../../../Driver/DSPI
                           4 --		-I../../../../../Driver/Interrupt -I../../../../../Driver/ISM
                           5 --		-I../../../../../Driver/OSTM -I../../../../../Driver/PWM
                           6 --		-I../../../../../Driver/RSTC -I../../../../../Driver/RTCA
                           7 --		-I../../../../../Driver/STBC -I../../../../../Driver/TAUB
                           8 --		-I../../../../../Driver/WDT -I../../../../../middleware\ADM
                           9 --		-I../../../../../middleware\BPM -I../../../../../middleware\EED
                          10 --		-I../../../../../middleware\IOM -I../../../../../middleware\LRM
                          11 --		-I../../../../../middleware\MOM -I../../../../../middleware\PWMM
                          12 --		-I../../../../../Common -I../../../../../Applayer\DSM
                          13 --		-I../../../../../Applayer\FM -I../../../../../Applayer\TPM
                          14 --		-I../../../../../Applayer\ACC -I../../../../../Applayer\ASS
                          15 --		-I../../../../../Applayer\BAT -I../../../../../Applayer\COM
                          16 --		-I../../../../../Applayer\COM\vtp
                          17 --		-I../../../../../Applayer\COM\vtp\lib
                          18 --		-I../../../../../Applayer\CRUS -I../../../../../Applayer\DIAG
                          19 --		-I../../../../../Applayer\FC -I../../../../../Applayer\FL
                          20 --		-I../../../../../Applayer\HSD -I../../../../../Applayer\IDLE
                          21 --		-I../../../../../Applayer\ILLU -I../../../../../Applayer\LED
                          22 --		-I../../../../../Applayer\MSG -I../../../../../Applayer\NVM
                          23 --		-I../../../../../Applayer\ODO -I../../../../../Applayer\PWR
                          24 --		-I../../../../../Applayer\RANG -I../../../../../Applayer\RST
                          25 --		-I../../../../../Applayer\RTC -I../../../../../Applayer\SCS
                          26 --		-I../../../../../Applayer\SSB -I../../../../../Applayer\ST
                          27 --		-I../../../../../Applayer\STSMG -I../../../../../Applayer\SYS
                          28 --		-I../../../../../Applayer\TIP -I../../../../../Applayer\TRIP
                          29 --		-I../../../../../Applayer\CHM -I../../../../../Applayer\DM
                          30 --		-I../../../../../Applayer\EVT -I../../../../../Applayer\FTR
                          31 --		-I../../../../../Applayer\SLF -I../../../../../Applayer\NWD
                          32 --		-I../../../../../Applayer\TPMS -I../../../../../Applayer\WFM
                          33 --		-I../../../../../Applayer\NZM
                          34 --		-I../../../../../app/gfx_apps/simple_draw_d1l2/src
                          35 --		-I../../../../../bsp/board//config
                          36 --		-I../../../../../bsp/board//src/gfx
                          37 --		-I../../../../../bsp/board//src/hmi
                          38 --		-I../../../../../bsp/board//src/stdio
                          39 --		-I../../../../../bsp/board/d1lx_mango/config
                          40 --		-I../../../../../bsp/board/d1lx_mango/src
                          41 --		-I../../../../../bsp/board/d1lx_mango/src/gfx
                          42 --		-I../../../../../bsp/board/d1lx_mango/src/hmi
                          43 --		-I../../../../../bsp/board/d1lx_mango/src/stdio
                          44 --		-I../../../../../bsp/gfx/lib -I../../../../../bsp/gfx/src
                          45 --		-I../../../../../bsp/hmi/lib -I../../../../../bsp/hmi/src
                          46 --		-I../../../../../bsp/lib -I../../../../../bsp/stdio/lib
                          47 --		-I../../../../../bsp/stdio/src -I../../../../../cdi/lib
                          48 --		-I../../../../../cdi/src -I../../../../../compiler/rh850_ghs/inc
                          49 --		-I../../../../../device/d1lx/lib
                          50 --		-I../../../../../device/d1lx/macro_cfg

                                                                      Page 2
                                                              C:\Users\YINGAO~1\AppData\Local\Temp\gh_00008t41.si
                          51 --		-I../../../../../device/d1lx/src/dev
                          52 --		-I../../../../../device/d1lx/src/rh850_ghs
                          53 --		-I../../../../../device/d1x_common/macro_cfg
                          54 --		-I../../../../../device/d1x_common/src/csisw
                          55 --		-I../../../../../device/d1x_common/src/ddb
                          56 --		-I../../../../../device/d1x_common/src/dev
                          57 --		-I../../../../../device/d1x_common/src/gfxbus
                          58 --		-I../../../../../device/d1x_common/src/gpio
                          59 --		-I../../../../../device/d1x_common/src/ostm
                          60 --		-I../../../../../device/d1x_common/src/pbg
                          61 --		-I../../../../../device/d1x_common/src/riic
                          62 --		-I../../../../../device/d1x_common/src/sfma
                          63 --		-I../../../../../device/d1x_common/src/spea
                          64 --		-I../../../../../device/d1x_common/src/tauj
                          65 --		-I../../../../../device/d1x_common/src/tick
                          66 --		-I../../../../../device/d1x_common/src/vdce
                          67 --		-I../../../../../device/d1x_common/src/wm
                          68 --		-I../../../../../device/d1x_common/src/xbus
                          69 --		-I../../../../../device/lib -I../../../../../macro/bus/pbg/lib
                          70 --		-I../../../../../macro/bus/pbg/src
                          71 --		-I../../../../../macro/csi/csisw/lib
                          72 --		-I../../../../../macro/csi/csisw/src
                          73 --		-I../../../../../macro/drw2d/lib
                          74 --		-I../../../../../macro/drw2d/platform/cpu
                          75 --		-I../../../../../macro/drw2d/platform/os/no_os
                          76 --		-I../../../../../macro/drw2d/src
                          77 --		-I../../../../../macro/flashc/sfcdb/lib
                          78 --		-I../../../../../macro/flashc/sfcdb/src
                          79 --		-I../../../../../macro/flashc/sfma/lib
                          80 --		-I../../../../../macro/flashc/sfma/src
                          81 --		-I../../../../../macro/gfxbus/lib
                          82 --		-I../../../../../macro/gfxbus/src
                          83 --		-I../../../../../macro/gfxbus/xbus/lib
                          84 --		-I../../../../../macro/gfxbus/xbus/src
                          85 --		-I../../../../../macro/gpio/lib -I../../../../../macro/gpio/src
                          86 --		-I../../../../../macro/i2c/riic/lib
                          87 --		-I../../../../../macro/i2c/riic/src
                          88 --		-I../../../../../macro/tick/lib -I../../../../../macro/tick/src
                          89 --		-I../../../../../macro/timer/ostm/lib
                          90 --		-I../../../../../macro/timer/ostm/src
                          91 --		-I../../../../../macro/timer/tauj/lib
                          92 --		-I../../../../../macro/timer/tauj/src
                          93 --		-I../../../../../macro/vdce/lib -I../../../../../macro/vdce/src
                          94 --		-I../../../../../macro/vo/ddb/lib
                          95 --		-I../../../../../macro/vo/ddb/src
                          96 --		-I../../../../../macro/vo/spea/lib
                          97 --		-I../../../../../macro/vo/spea/src -I../../../../../macro/wm/lib
                          98 --		-I../../../../../macro/wm/src
                          99 --		-I../../../../../app/gfx_apps/simple_draw_d1l2/src/QD_HMI
                         100 --		-I../../../../../app/gfx_apps/simple_draw_d1l2/src/QD_HMI/HMI_Data
                         101 --		-G --no_commons --no_implicit_include --prototype_errors
                         102 --		-DR_DRW2D_OS_NO_OS -DR_DRW2D_SYS_CPU -DUSED_CPU=RH850G3M
                         103 --		-DUSE_BSP_GFX -DUSE_BSP_HMI -DUSE_BSP_STDIO -DUSE_CDI -DUSE_CSISW
                         104 --		-DUSE_DDB -DUSE_DRW2D -DUSE_GFXBUS -DUSE_GPIO -DUSE_OSTM
                         105 --		-DUSE_PBG -DUSE_RIIC -DUSE_SFCDB -DUSE_SFMA -DUSE_SPEA -DUSE_TAUJ
                         106 --		-DUSE_TICK -DUSE_VDCE -DUSE_WM -DUSE_XBUS -MD -Mn -Mx -Zuse1bit
                         107 --		-allocate_ep -cpu=rh850g3m -entry=_RESET -large_sda -list
                         108 --		-no_callt -notda -passsource -preprocess_assembly_files
                         109 --		-registermode=22 -reserve_r2 --diag_warning 1 -object_dir=./obj
                         110 --		-filetype.c
                         111 --		D:\Renesas_Electronics\D1x_RGL\rgl_ghs_D1Lx_obj_V1.2.0\vlib\Applayer\TPMS\tpms.c

                                                                      Page 3
                                                              C:\Users\YINGAO~1\AppData\Local\Temp\gh_00008t41.si
                         112 --		-o .\obj\tpms.o
                         113 --Source File:   D:\Renesas_Electronics\D1x_RGL\rgl_ghs_D1Lx_obj_V1.2.0\vlib\Applayer\TPMS\tpms.c
                         114 --Directory:     
                         115 --		D:\Renesas_Electronics\D1x_RGL\rgl_ghs_D1Lx_obj_V1.2.0\vlib\app\gfx_apps\simple_draw_d1l2\target\d1lx_mango_ghs
                         116 --Compile Date:  Fri Feb 02 14:21:42 2018
                         117 --Host OS:       Win32
                         118 --Version:       C-RH850 2013.5.5 DEVELOPMENT VERSION
                         119 --Release:       Compiler v2013.5.5
                         120 --Revision Date: Sat Oct 05 05:01:20 2013
                         121 --Release Date:  Sat Oct 05 05:22:44 2013
                         122 -- ecom  -g -w
                         123 
                         124 --2: /**************************************************************************
                         125 --3: |                                Copyright
                         126 --4: |------------------------------------------------------------------------
                         127 --5: |Copyright(c) by YEEDON MultiMedia Co.LTD. All rights reserved.
                         128 --6: |
                         129 --7: |    this software if furnished under a license and may be used and copied
                         130 --8: |    only in accordance with the terms of such license and with the inclusion
                         131 --9: |    of he above copyright notic.This software or any other copies thereof
                         132 --10: |    may not be provided of otherwise made available to any other persion.
                         133 --11: |    No title to and ownership of the software is hereby transferred.
                         134 --12: |
                         135 --13: |    the information in this software is subject to change without notice
                         136 --14: |   and should not be construed as a commitment by
                         137 --15: |   YEEDON MultiMedia Co.LTD.
                         138 --16: |
                         139 --17: |     YEEDON MultiMedia Co.LTD. assumes no responsibility for the use or reliability
                         140 --18: |     of its Software on equipment which is not supported by YEEDON MultiMedia Co.LTD.
                         141 --19: |--------------------------------------------------------------
                         142 --20: **************************************************************************/
                         143 --24: /*-----------------------------------------------------------------------*/
                         144 --25: /*----Description of file-----------------------------------------------------*/
                         145 --26: /*-----------------------------------------------------------------------*/
                         146 --30: /*************************************************************************
                         147 --31: TPMS
                         148 --32: *************************************************************************/
                         149 --35: /*------------------------------------------------------------------------*/
                         150 --36: /*-----Head of file----------------------------------------------------------*/
                         151 --37: /*------------------------------------------------------------------------*/
                         152 --38: #include "tpms_info.inc"
                         153 --40: /*==========variables=================*/
                         154 --41: static U16 tpms_NetFLTirePrs = 0;
                         155 --42: static U8 tpms_NetFLTirePrsV = 0;
                         156 --43: static U8 tpms_NetFLTireSts = 0;
                         157 --44: static S16 tpms_NetFLTireTem = 0;
                         158 --45: static U8 tpms_NetFLTireTemV = 0;
                         159 --46: static U16 tpms_NetFRTirePrs = 0;
                         160 --47: static U8 tpms_NetFRTirePrsV = 0;
                         161 --48: static U8 tpms_NetFRTireSts = 0;
                         162 --49: static S16 tpms_NetFRTireTem = 0;
                         163 --50: static U8 tpms_NetFRTireTemV = 0;
                         164 --51: static U16 tpms_NetRLTirePrs = 0;
                         165 --52: static U8 tpms_NetRLTirePrsV = 0;
                         166 --53: static U8 tpms_NetRLTireSts = 0;
                         167 --54: static S16 tpms_NetRLTireTem = 0;
                         168 --55: static U8 tpms_NetRLTireTemV = 0;
                         169 --56: static U16 tpms_NetRRTirePrs = 0;
                         170 --57: static U8 tpms_NetRRTirePrsV = 0;
                         171 --58: static U8 tpms_NetRRTireSts = 0;
                         172 --59: static S16 tpms_NetRRTireTem = 0;

                                                                      Page 4
                                                              C:\Users\YINGAO~1\AppData\Local\Temp\gh_00008t41.si
                         173 --60: static U8 tpms_NetRRTireTemV = 0;
                         174 --61: static U8 tpms_NetClstrDspdFLTirePrs = 0;
                         175 --62: static U8 tpms_NetClstrDspdFRTirePrs = 0;
                         176 --63: static U8 tpms_NetClstrDspdRRTirePrs = 0;
                         177 --64: static U8 tpms_NetClstrDspdRLTirePrs = 0;
                         178 --65: static BOOL tpms_NetClstrDspdFLTireSts = 0;
                         179 --66: static BOOL tpms_NetClstrDspdFRTireSts = 0;
                         180 --67: static BOOL tpms_NetClstrDspdRRTireSts = 0;
                         181 --68: static BOOL tpms_NetClstrDspdRLTireSts = 0;
                         182 --69: static U8 tpms_NetFICMDistUntAdj = 0;
                         183 --70: static U8 tpms_NetFICMFuelCsumpUntAdj = 0;
                         184 --71: static U8 tpms_NetFICMTemUntAdj = 0;
                         185 --72: static U8 tpms_NetFICMTyrePressureUntAdj = 0;
                         186 --73: static BOOL tpms_NetFICMDistUnitAdjtReqA = FALSE;
                         187 --74: static BOOL tpms_NetFICMFuelCsumpUntAdjARA= FALSE;
                         188 --75: static BOOL tpms_NetFICMTemUntAdjtReqA = FALSE;
                         189 --76: static BOOL tpms_NetFICMTyrePressureUntAdjtReqA = FALSE;
                         190 --77: static U8 tpms_NetClstrDistUnt = 0;
                         191 --78: static U8 tpms_NetClstrFuelCsumpUnt = 0;
                         192 --79: static U8 tpms_NetClstrTemUnt = 0;
                         193 --80: static U8 tpms_NetClstrTyrePressureUnt = 0;
                         194 --81: static U8 insTyrePresUnitsPrm = 0;
                         195 --82: static U8 insDistanceUnitsPrm = 0;
                         196 --83: static U8 insFuelConUnitsPrm = 0;
                         197 --84: static U8 insTempUnitsPrm = 0;
                         198 --87: static U8 tpms_InitSts = FALSE;
                         199 --88: static TPMS_WarnType_ST tpmsWrnngStatus;
                         200 --89: static U8 tpms_Process100MsPRO = 0;
                         201 --91: /**************************************************
                         202 --92: *Function :TPMS_Init
                         203 --93: *Description: TPMS Module Inital
                         204 --94: *Parameters:none
                         205 --95: *Returns: none
                         206 --96: **create&Verlog:
                         207 --97: *Author Name xs  Date:2017-6-23    Ver:01
                         208 --98: ***************************************************/
                         209 --99: void TPMS_Init(void)
                         210 	.text
                         211 ..bof.D.3A.5CRenesas_Electronics.5CD1x_RGL.5Crgl_ghs_D1Lx_obj_V1.2E2.2E0.5Cvlib.5Capp.5Cgfx_apps.5Csimple_draw_d1l2.5Ctarget.5Cd1lx_mango_ghs.5Cobj.5Ctpms...44.3A.5CRenesas_Electronics.5CD1x_RGL.5Crgl_ghs_D1Lx_obj_V1.2E2.2E0.5Cvlib.5Capp.5Cgfx_apps.5Csimple_draw_d1l2.5Ctarget.5Cd1lx_mango_ghs..5A740377..0::
                         212 	.align	2
                         213 	.global	_TPMS_Init
                         214 _TPMS_Init:
00000000 8407e170        215 	prepare	{r25,r26,r27,r28,r29,r31},2
00000004 3d0600000000*   216 	mov	.L104,r29
0000000a 3de63400        217 	movea	52,r29,r28
0000000e 3dde3300        218 	movea	51,r29,r27
00000012 3dd63200        219 	movea	50,r29,r26
00000016 3dce3100        220 	movea	49,r29,r25
                         221 --	    .bf
                         222 .LDW01:
                         223 --100: {
                         224 --101: 	tpms_InitSts = FALSE;
0000001a 5d073400        225 	st.b	zero,52[r29]
                         226 --102: 	
                         227 --103: 	tpms_NetFLTirePrs = 0;
0000001e 7d070000        228 	st.h	zero,0[r29]
                         229 --104: 	tpms_NetFLTirePrsV = 0;
00000022 5d071000        230 	st.b	zero,16[r29]
                         231 --105: 	tpms_NetRLTireSts = 0;
00000026 5d071700        232 	st.b	zero,23[r29]
                         233 --106: 	tpms_NetFLTireTem = 0;

                                                                      Page 5
                                                              C:\Users\YINGAO~1\AppData\Local\Temp\gh_00008t41.si
0000002a 7d070200        234 	st.h	zero,2[r29]
                         235 --107: 	tpms_NetFLTireTemV = 0;
0000002e 5d071200        236 	st.b	zero,18[r29]
                         237 --108: 	tpms_NetFRTirePrs = 0;
00000032 7d070400        238 	st.h	zero,4[r29]
                         239 --109: 	tpms_NetFRTirePrsV = 0;
00000036 5d071300        240 	st.b	zero,19[r29]
                         241 --110: 	tpms_NetFRTireSts = 0;
0000003a 5d071400        242 	st.b	zero,20[r29]
                         243 --111: 	tpms_NetFRTireTem = 0;
0000003e 7d070600        244 	st.h	zero,6[r29]
                         245 --112: 	tpms_NetFRTireTemV = 0;
00000042 5d071500        246 	st.b	zero,21[r29]
                         247 --113: 	tpms_NetRLTirePrs = 0;
00000046 7d070800        248 	st.h	zero,8[r29]
                         249 --114: 	tpms_NetRLTirePrsV = 0;
0000004a 5d071600        250 	st.b	zero,22[r29]
                         251 --115: 	tpms_NetRLTireSts = 0;
0000004e 5d071700        252 	st.b	zero,23[r29]
                         253 --116: 	tpms_NetRLTireTem = 0;
00000052 7d070a00        254 	st.h	zero,10[r29]
                         255 --117: 	tpms_NetRLTireTemV = 0;
00000056 5d071800        256 	st.b	zero,24[r29]
                         257 --118: 	tpms_NetRRTirePrs = 0;
0000005a 7d070c00        258 	st.h	zero,12[r29]
                         259 --119: 	tpms_NetRRTirePrsV = 0;
0000005e 5d071900        260 	st.b	zero,25[r29]
                         261 --120: 	tpms_NetRRTireSts = 0;
00000062 5d071a00        262 	st.b	zero,26[r29]
                         263 --121: 	tpms_NetRRTireTem = 0;
00000066 7d070e00        264 	st.h	zero,14[r29]
                         265 --122: 	tpms_NetRRTireTemV = 0;
0000006a 5d071b00        266 	st.b	zero,27[r29]
                         267 --123: 	tpms_NetClstrDspdFLTirePrs = 0;
0000006e 5d071c00        268 	st.b	zero,28[r29]
                         269 --124: 	tpms_NetClstrDspdFRTirePrs = 0;
00000072 5d071d00        270 	st.b	zero,29[r29]
                         271 --125: 	tpms_NetClstrDspdRRTirePrs = 0;
00000076 5d071e00        272 	st.b	zero,30[r29]
                         273 --126: 	tpms_NetClstrDspdRLTirePrs = 0;
0000007a 5d071f00        274 	st.b	zero,31[r29]
                         275 --127: 	tpms_NetClstrDspdFLTireSts = 0;
0000007e 5d072000        276 	st.b	zero,32[r29]
                         277 --128: 	tpms_NetClstrDspdFRTireSts = 0;
00000082 5d072100        278 	st.b	zero,33[r29]
                         279 --129: 	tpms_NetClstrDspdRRTireSts = 0;
00000086 5d072200        280 	st.b	zero,34[r29]
                         281 --130: 	tpms_NetClstrDspdRLTireSts = 0;
0000008a 5d072300        282 	st.b	zero,35[r29]
                         283 --132: 	tpms_Process100MsPRO = 0;
0000008e 5d073500        284 	st.b	zero,53[r29]
                         285 --133: 	
                         286 --134: 	insTyrePresUnitsPrm = DIAG_GetTyrePresUnits();
                         287 	jarl	_DIAG_GetTyrePresUnits,lp
                         287 <EXPANSION BEGIN>
                         287 jarl22 _DIAG_GetTyrePresUnits , lp 
00000092 80ff0000*       287 <EXPANSION END>
00000096 5d573000        288 	st.b	r10,48[r29]
                         289 --135: 	insDistanceUnitsPrm = DIAG_GetDistanceUnits();
                         290 --line135
                         291 ..lin.D.3A.5CRenesas_Electronics.5CD1x_RGL.5Crgl_ghs_D1Lx_obj_V1.2E2.2E0.5Cvlib.5Capp.5Cgfx_apps.5Csimple_draw_d1l2.5Ctarget.5Cd1lx_mango_ghs.5Cobj.5Ctpms.1::

                                                                      Page 6
                                                              C:\Users\YINGAO~1\AppData\Local\Temp\gh_00008t41.si
                         292 .LDWlin1:
                         293 	jarl	_DIAG_GetDistanceUnits,lp
                         293 <EXPANSION BEGIN>
                         293 jarl22 _DIAG_GetDistanceUnits , lp 
0000009a 80ff0000*       293 <EXPANSION END>
0000009e 5d573100        294 	st.b	r10,49[r29]
                         295 --136: 	insFuelConUnitsPrm = DIAG_GetFuelConUnits();
                         296 --line136
                         297 ..lin.D.3A.5CRenesas_Electronics.5CD1x_RGL.5Crgl_ghs_D1Lx_obj_V1.2E2.2E0.5Cvlib.5Capp.5Cgfx_apps.5Csimple_draw_d1l2.5Ctarget.5Cd1lx_mango_ghs.5Cobj.5Ctpms.2::
                         298 .LDWlin2:
                         299 	jarl	_DIAG_GetFuelConUnits,lp
                         299 <EXPANSION BEGIN>
                         299 jarl22 _DIAG_GetFuelConUnits , lp 
000000a2 80ff0000*       299 <EXPANSION END>
000000a6 5d573200        300 	st.b	r10,50[r29]
                         301 --137: 	insTempUnitsPrm = DIAG_GetTempUnits();
                         302 --line137
                         303 ..lin.D.3A.5CRenesas_Electronics.5CD1x_RGL.5Crgl_ghs_D1Lx_obj_V1.2E2.2E0.5Cvlib.5Capp.5Cgfx_apps.5Csimple_draw_d1l2.5Ctarget.5Cd1lx_mango_ghs.5Cobj.5Ctpms.3::
                         304 .LDWlin3:
                         305 	jarl	_DIAG_GetTempUnits,lp
                         305 <EXPANSION BEGIN>
                         305 jarl22 _DIAG_GetTempUnits , lp 
000000aa 80ff0000*       305 <EXPANSION END>
000000ae 5d573300        306 	st.b	r10,51[r29]
                         307 --139: 	tpms_NetClstrDistUnt = insTyrePresUnitsPrm;
                         308 --line139
                         309 ..lin.D.3A.5CRenesas_Electronics.5CD1x_RGL.5Crgl_ghs_D1Lx_obj_V1.2E2.2E0.5Cvlib.5Capp.5Cgfx_apps.5Csimple_draw_d1l2.5Ctarget.5Cd1lx_mango_ghs.5Cobj.5Ctpms.4::
                         310 .LDWlin4:
000000b2 9d0f3100        311 	ld.bu	48[r29],r1
000000b6 5d0f2c00        312 	st.b	r1,44[r29]
                         313 --140: 	tpms_NetClstrFuelCsumpUnt = insDistanceUnitsPrm;
000000ba bd0f3100        314 	ld.bu	49[r29],r1
000000be 5d0f2d00        315 	st.b	r1,45[r29]
                         316 --141: 	tpms_NetClstrTemUnt = insFuelConUnitsPrm;
000000c2 9d0f3300        317 	ld.bu	50[r29],r1
000000c6 5d0f2e00        318 	st.b	r1,46[r29]
                         319 --142: 	tpms_NetClstrTyrePressureUnt = insTempUnitsPrm;
000000ca bd0f3300        320 	ld.bu	51[r29],r1
000000ce 5d0f2f00        321 	st.b	r1,47[r29]
                         322 --143: 	memset(&tpmsWrnngStatus, 0, sizeof(tpmsWrnngStatus));
000000d2 260600000000*   323 	mov	_tpmsWrnngStatus,r6
000000d8 003a            324 	mov	0,r7
000000da 0142            325 	mov	1,r8
                         326 	jarl	_memset,lp
                         326 <EXPANSION BEGIN>
                         326 jarl22 _memset , lp 
000000dc 80ff0000*       326 <EXPANSION END>
                         327 --144: 	
                         328 --146: 	tpms_InitSts = TRUE;
                         329 --line146
                         330 ..lin.D.3A.5CRenesas_Electronics.5CD1x_RGL.5Crgl_ghs_D1Lx_obj_V1.2E2.2E0.5Cvlib.5Capp.5Cgfx_apps.5Csimple_draw_d1l2.5Ctarget.5Cd1lx_mango_ghs.5Cobj.5Ctpms.5::
                         331 .LDWlin5:
000000e0 010a            332 	mov	1,r1
000000e2 5d0f3400        333 	st.b	r1,52[r29]
                         334 --147: }
000000e6 0000            335 	nop
                         336 --	    .ef
                         337 .LDW11:
000000e8 4406ff70        338 	dispose	2,{r25,r26,r27,r28,r29,r31},[lp]
                         339 	.type	_TPMS_Init,@function
                         340 	.size	_TPMS_Init,.-_TPMS_Init

                                                                      Page 7
                                                              C:\Users\YINGAO~1\AppData\Local\Temp\gh_00008t41.si
                         341 	.align	2
                         342 .LDW21:
                         343 
                         344 	.data
                         345 	.align	2
                         346 .L104:
                         347 	.type	.L104,@object
                         348 	.size	.L104,0
                         349 	.global	_tpms_NetFLTirePrs..D.3A.5CRenesas_Electronics.5CD1x_RGL.5Crgl_ghs_D1Lx_obj_V1.2E2.2E0.5Cvlib.5Capp.5Cgfx_apps.5Csimple_draw_d1l2.5Ctarget.5Cd1lx_mango_ghs.5Cobj.5Ctpms.
                         350 _tpms_NetFLTirePrs..D.3A.5CRenesas_Electronics.5CD1x_RGL.5Crgl_ghs_D1Lx_obj_V1.2E2.2E0.5Cvlib.5Capp.5Cgfx_apps.5Csimple_draw_d1l2.5Ctarget.5Cd1lx_mango_ghs.5Cobj.5Ctpms.:
                         351 	.type	_tpms_NetFLTirePrs..D.3A.5CRenesas_Electronics.5CD1x_RGL.5Crgl_ghs_D1Lx_obj_V1.2E2.2E0.5Cvlib.5Capp.5Cgfx_apps.5Csimple_draw_d1l2.5Ctarget.5Cd1lx_mango_ghs.5Cobj.5Ctpms.,@object
                         352 	.size	_tpms_NetFLTirePrs..D.3A.5CRenesas_Electronics.5CD1x_RGL.5Crgl_ghs_D1Lx_obj_V1.2E2.2E0.5Cvlib.5Capp.5Cgfx_apps.5Csimple_draw_d1l2.5Ctarget.5Cd1lx_mango_ghs.5Cobj.5Ctpms.,2
00000000 0000            353 _tpms_NetFLTirePrs:	.byte	0,0
                         354 	.type	_tpms_NetFLTirePrs,@object
                         355 	.size	_tpms_NetFLTirePrs,2
                         356 	.global	_tpms_NetFLTireTem..D.3A.5CRenesas_Electronics.5CD1x_RGL.5Crgl_ghs_D1Lx_obj_V1.2E2.2E0.5Cvlib.5Capp.5Cgfx_apps.5Csimple_draw_d1l2.5Ctarget.5Cd1lx_mango_ghs.5Cobj.5Ctpms.
                         357 _tpms_NetFLTireTem..D.3A.5CRenesas_Electronics.5CD1x_RGL.5Crgl_ghs_D1Lx_obj_V1.2E2.2E0.5Cvlib.5Capp.5Cgfx_apps.5Csimple_draw_d1l2.5Ctarget.5Cd1lx_mango_ghs.5Cobj.5Ctpms.:
                         358 	.type	_tpms_NetFLTireTem..D.3A.5CRenesas_Electronics.5CD1x_RGL.5Crgl_ghs_D1Lx_obj_V1.2E2.2E0.5Cvlib.5Capp.5Cgfx_apps.5Csimple_draw_d1l2.5Ctarget.5Cd1lx_mango_ghs.5Cobj.5Ctpms.,@object
                         359 	.size	_tpms_NetFLTireTem..D.3A.5CRenesas_Electronics.5CD1x_RGL.5Crgl_ghs_D1Lx_obj_V1.2E2.2E0.5Cvlib.5Capp.5Cgfx_apps.5Csimple_draw_d1l2.5Ctarget.5Cd1lx_mango_ghs.5Cobj.5Ctpms.,2
00000002 0000            360 _tpms_NetFLTireTem:	.byte	0,0
                         361 	.type	_tpms_NetFLTireTem,@object
                         362 	.size	_tpms_NetFLTireTem,2
                         363 	.global	_tpms_NetFRTirePrs..D.3A.5CRenesas_Electronics.5CD1x_RGL.5Crgl_ghs_D1Lx_obj_V1.2E2.2E0.5Cvlib.5Capp.5Cgfx_apps.5Csimple_draw_d1l2.5Ctarget.5Cd1lx_mango_ghs.5Cobj.5Ctpms.
                         364 _tpms_NetFRTirePrs..D.3A.5CRenesas_Electronics.5CD1x_RGL.5Crgl_ghs_D1Lx_obj_V1.2E2.2E0.5Cvlib.5Capp.5Cgfx_apps.5Csimple_draw_d1l2.5Ctarget.5Cd1lx_mango_ghs.5Cobj.5Ctpms.:
                         365 	.type	_tpms_NetFRTirePrs..D.3A.5CRenesas_Electronics.5CD1x_RGL.5Crgl_ghs_D1Lx_obj_V1.2E2.2E0.5Cvlib.5Capp.5Cgfx_apps.5Csimple_draw_d1l2.5Ctarget.5Cd1lx_mango_ghs.5Cobj.5Ctpms.,@object
                         366 	.size	_tpms_NetFRTirePrs..D.3A.5CRenesas_Electronics.5CD1x_RGL.5Crgl_ghs_D1Lx_obj_V1.2E2.2E0.5Cvlib.5Capp.5Cgfx_apps.5Csimple_draw_d1l2.5Ctarget.5Cd1lx_mango_ghs.5Cobj.5Ctpms.,2
00000004 0000            367 _tpms_NetFRTirePrs:	.byte	0,0
                         368 	.type	_tpms_NetFRTirePrs,@object
                         369 	.size	_tpms_NetFRTirePrs,2
                         370 	.global	_tpms_NetFRTireTem..D.3A.5CRenesas_Electronics.5CD1x_RGL.5Crgl_ghs_D1Lx_obj_V1.2E2.2E0.5Cvlib.5Capp.5Cgfx_apps.5Csimple_draw_d1l2.5Ctarget.5Cd1lx_mango_ghs.5Cobj.5Ctpms.
                         371 _tpms_NetFRTireTem..D.3A.5CRenesas_Electronics.5CD1x_RGL.5Crgl_ghs_D1Lx_obj_V1.2E2.2E0.5Cvlib.5Capp.5Cgfx_apps.5Csimple_draw_d1l2.5Ctarget.5Cd1lx_mango_ghs.5Cobj.5Ctpms.:
                         372 	.type	_tpms_NetFRTireTem..D.3A.5CRenesas_Electronics.5CD1x_RGL.5Crgl_ghs_D1Lx_obj_V1.2E2.2E0.5Cvlib.5Capp.5Cgfx_apps.5Csimple_draw_d1l2.5Ctarget.5Cd1lx_mango_ghs.5Cobj.5Ctpms.,@object
                         373 	.size	_tpms_NetFRTireTem..D.3A.5CRenesas_Electronics.5CD1x_RGL.5Crgl_ghs_D1Lx_obj_V1.2E2.2E0.5Cvlib.5Capp.5Cgfx_apps.5Csimple_draw_d1l2.5Ctarget.5Cd1lx_mango_ghs.5Cobj.5Ctpms.,2
00000006 0000            374 _tpms_NetFRTireTem:	.byte	0,0
                         375 	.type	_tpms_NetFRTireTem,@object
                         376 	.size	_tpms_NetFRTireTem,2
                         377 	.global	_tpms_NetRLTirePrs..D.3A.5CRenesas_Electronics.5CD1x_RGL.5Crgl_ghs_D1Lx_obj_V1.2E2.2E0.5Cvlib.5Capp.5Cgfx_apps.5Csimple_draw_d1l2.5Ctarget.5Cd1lx_mango_ghs.5Cobj.5Ctpms.
                         378 _tpms_NetRLTirePrs..D.3A.5CRenesas_Electronics.5CD1x_RGL.5Crgl_ghs_D1Lx_obj_V1.2E2.2E0.5Cvlib.5Capp.5Cgfx_apps.5Csimple_draw_d1l2.5Ctarget.5Cd1lx_mango_ghs.5Cobj.5Ctpms.:
                         379 	.type	_tpms_NetRLTirePrs..D.3A.5CRenesas_Electronics.5CD1x_RGL.5Crgl_ghs_D1Lx_obj_V1.2E2.2E0.5Cvlib.5Capp.5Cgfx_apps.5Csimple_draw_d1l2.5Ctarget.5Cd1lx_mango_ghs.5Cobj.5Ctpms.,@object
                         380 	.size	_tpms_NetRLTirePrs..D.3A.5CRenesas_Electronics.5CD1x_RGL.5Crgl_ghs_D1Lx_obj_V1.2E2.2E0.5Cvlib.5Capp.5Cgfx_apps.5Csimple_draw_d1l2.5Ctarget.5Cd1lx_mango_ghs.5Cobj.5Ctpms.,2
00000008 0000            381 _tpms_NetRLTirePrs:	.byte	0,0
                         382 	.type	_tpms_NetRLTirePrs,@object
                         383 	.size	_tpms_NetRLTirePrs,2
                         384 	.global	_tpms_NetRLTireTem..D.3A.5CRenesas_Electronics.5CD1x_RGL.5Crgl_ghs_D1Lx_obj_V1.2E2.2E0.5Cvlib.5Capp.5Cgfx_apps.5Csimple_draw_d1l2.5Ctarget.5Cd1lx_mango_ghs.5Cobj.5Ctpms.
                         385 _tpms_NetRLTireTem..D.3A.5CRenesas_Electronics.5CD1x_RGL.5Crgl_ghs_D1Lx_obj_V1.2E2.2E0.5Cvlib.5Capp.5Cgfx_apps.5Csimple_draw_d1l2.5Ctarget.5Cd1lx_mango_ghs.5Cobj.5Ctpms.:
                         386 	.type	_tpms_NetRLTireTem..D.3A.5CRenesas_Electronics.5CD1x_RGL.5Crgl_ghs_D1Lx_obj_V1.2E2.2E0.5Cvlib.5Capp.5Cgfx_apps.5Csimple_draw_d1l2.5Ctarget.5Cd1lx_mango_ghs.5Cobj.5Ctpms.,@object
                         387 	.size	_tpms_NetRLTireTem..D.3A.5CRenesas_Electronics.5CD1x_RGL.5Crgl_ghs_D1Lx_obj_V1.2E2.2E0.5Cvlib.5Capp.5Cgfx_apps.5Csimple_draw_d1l2.5Ctarget.5Cd1lx_mango_ghs.5Cobj.5Ctpms.,2
0000000a 0000            388 _tpms_NetRLTireTem:	.byte	0,0
                         389 	.type	_tpms_NetRLTireTem,@object
                         390 	.size	_tpms_NetRLTireTem,2
                         391 	.global	_tpms_NetRRTirePrs..D.3A.5CRenesas_Electronics.5CD1x_RGL.5Crgl_ghs_D1Lx_obj_V1.2E2.2E0.5Cvlib.5Capp.5Cgfx_apps.5Csimple_draw_d1l2.5Ctarget.5Cd1lx_mango_ghs.5Cobj.5Ctpms.
                         392 _tpms_NetRRTirePrs..D.3A.5CRenesas_Electronics.5CD1x_RGL.5Crgl_ghs_D1Lx_obj_V1.2E2.2E0.5Cvlib.5Capp.5Cgfx_apps.5Csimple_draw_d1l2.5Ctarget.5Cd1lx_mango_ghs.5Cobj.5Ctpms.:
                         393 	.type	_tpms_NetRRTirePrs..D.3A.5CRenesas_Electronics.5CD1x_RGL.5Crgl_ghs_D1Lx_obj_V1.2E2.2E0.5Cvlib.5Capp.5Cgfx_apps.5Csimple_draw_d1l2.5Ctarget.5Cd1lx_mango_ghs.5Cobj.5Ctpms.,@object
                         394 	.size	_tpms_NetRRTirePrs..D.3A.5CRenesas_Electronics.5CD1x_RGL.5Crgl_ghs_D1Lx_obj_V1.2E2.2E0.5Cvlib.5Capp.5Cgfx_apps.5Csimple_draw_d1l2.5Ctarget.5Cd1lx_mango_ghs.5Cobj.5Ctpms.,2
0000000c 0000            395 _tpms_NetRRTirePrs:	.byte	0,0
                         396 	.type	_tpms_NetRRTirePrs,@object
                         397 	.size	_tpms_NetRRTirePrs,2
                         398 	.global	_tpms_NetRRTireTem..D.3A.5CRenesas_Electronics.5CD1x_RGL.5Crgl_ghs_D1Lx_obj_V1.2E2.2E0.5Cvlib.5Capp.5Cgfx_apps.5Csimple_draw_d1l2.5Ctarget.5Cd1lx_mango_ghs.5Cobj.5Ctpms.
                         399 _tpms_NetRRTireTem..D.3A.5CRenesas_Electronics.5CD1x_RGL.5Crgl_ghs_D1Lx_obj_V1.2E2.2E0.5Cvlib.5Capp.5Cgfx_apps.5Csimple_draw_d1l2.5Ctarget.5Cd1lx_mango_ghs.5Cobj.5Ctpms.:
                         400 	.type	_tpms_NetRRTireTem..D.3A.5CRenesas_Electronics.5CD1x_RGL.5Crgl_ghs_D1Lx_obj_V1.2E2.2E0.5Cvlib.5Capp.5Cgfx_apps.5Csimple_draw_d1l2.5Ctarget.5Cd1lx_mango_ghs.5Cobj.5Ctpms.,@object
                         401 	.size	_tpms_NetRRTireTem..D.3A.5CRenesas_Electronics.5CD1x_RGL.5Crgl_ghs_D1Lx_obj_V1.2E2.2E0.5Cvlib.5Capp.5Cgfx_apps.5Csimple_draw_d1l2.5Ctarget.5Cd1lx_mango_ghs.5Cobj.5Ctpms.,2

                                                                      Page 8
                                                              C:\Users\YINGAO~1\AppData\Local\Temp\gh_00008t41.si
0000000e 0000            402 _tpms_NetRRTireTem:	.byte	0,0
                         403 	.type	_tpms_NetRRTireTem,@object
                         404 	.size	_tpms_NetRRTireTem,2
                         405 	.global	_tpms_NetFLTirePrsV..D.3A.5CRenesas_Electronics.5CD1x_RGL.5Crgl_ghs_D1Lx_obj_V1.2E2.2E0.5Cvlib.5Capp.5Cgfx_apps.5Csimple_draw_d1l2.5Ctarget.5Cd1lx_mango_ghs.5Cobj.5Ctpms.
                         406 _tpms_NetFLTirePrsV..D.3A.5CRenesas_Electronics.5CD1x_RGL.5Crgl_ghs_D1Lx_obj_V1.2E2.2E0.5Cvlib.5Capp.5Cgfx_apps.5Csimple_draw_d1l2.5Ctarget.5Cd1lx_mango_ghs.5Cobj.5Ctpms.:
                         407 	.type	_tpms_NetFLTirePrsV..D.3A.5CRenesas_Electronics.5CD1x_RGL.5Crgl_ghs_D1Lx_obj_V1.2E2.2E0.5Cvlib.5Capp.5Cgfx_apps.5Csimple_draw_d1l2.5Ctarget.5Cd1lx_mango_ghs.5Cobj.5Ctpms.,@object
                         408 	.size	_tpms_NetFLTirePrsV..D.3A.5CRenesas_Electronics.5CD1x_RGL.5Crgl_ghs_D1Lx_obj_V1.2E2.2E0.5Cvlib.5Capp.5Cgfx_apps.5Csimple_draw_d1l2.5Ctarget.5Cd1lx_mango_ghs.5Cobj.5Ctpms.,1
00000010 00              409 _tpms_NetFLTirePrsV:	.byte	0
                         410 	.type	_tpms_NetFLTirePrsV,@object
                         411 	.size	_tpms_NetFLTirePrsV,1
                         412 	.global	_tpms_NetFLTireSts..D.3A.5CRenesas_Electronics.5CD1x_RGL.5Crgl_ghs_D1Lx_obj_V1.2E2.2E0.5Cvlib.5Capp.5Cgfx_apps.5Csimple_draw_d1l2.5Ctarget.5Cd1lx_mango_ghs.5Cobj.5Ctpms.
                         413 _tpms_NetFLTireSts..D.3A.5CRenesas_Electronics.5CD1x_RGL.5Crgl_ghs_D1Lx_obj_V1.2E2.2E0.5Cvlib.5Capp.5Cgfx_apps.5Csimple_draw_d1l2.5Ctarget.5Cd1lx_mango_ghs.5Cobj.5Ctpms.:
                         414 	.type	_tpms_NetFLTireSts..D.3A.5CRenesas_Electronics.5CD1x_RGL.5Crgl_ghs_D1Lx_obj_V1.2E2.2E0.5Cvlib.5Capp.5Cgfx_apps.5Csimple_draw_d1l2.5Ctarget.5Cd1lx_mango_ghs.5Cobj.5Ctpms.,@object
                         415 	.size	_tpms_NetFLTireSts..D.3A.5CRenesas_Electronics.5CD1x_RGL.5Crgl_ghs_D1Lx_obj_V1.2E2.2E0.5Cvlib.5Capp.5Cgfx_apps.5Csimple_draw_d1l2.5Ctarget.5Cd1lx_mango_ghs.5Cobj.5Ctpms.,1
00000011 00              416 _tpms_NetFLTireSts:	.byte	0
                         417 	.type	_tpms_NetFLTireSts,@object
                         418 	.size	_tpms_NetFLTireSts,1
                         419 	.global	_tpms_NetFLTireTemV..D.3A.5CRenesas_Electronics.5CD1x_RGL.5Crgl_ghs_D1Lx_obj_V1.2E2.2E0.5Cvlib.5Capp.5Cgfx_apps.5Csimple_draw_d1l2.5Ctarget.5Cd1lx_mango_ghs.5Cobj.5Ctpms.
                         420 _tpms_NetFLTireTemV..D.3A.5CRenesas_Electronics.5CD1x_RGL.5Crgl_ghs_D1Lx_obj_V1.2E2.2E0.5Cvlib.5Capp.5Cgfx_apps.5Csimple_draw_d1l2.5Ctarget.5Cd1lx_mango_ghs.5Cobj.5Ctpms.:
                         421 	.type	_tpms_NetFLTireTemV..D.3A.5CRenesas_Electronics.5CD1x_RGL.5Crgl_ghs_D1Lx_obj_V1.2E2.2E0.5Cvlib.5Capp.5Cgfx_apps.5Csimple_draw_d1l2.5Ctarget.5Cd1lx_mango_ghs.5Cobj.5Ctpms.,@object
                         422 	.size	_tpms_NetFLTireTemV..D.3A.5CRenesas_Electronics.5CD1x_RGL.5Crgl_ghs_D1Lx_obj_V1.2E2.2E0.5Cvlib.5Capp.5Cgfx_apps.5Csimple_draw_d1l2.5Ctarget.5Cd1lx_mango_ghs.5Cobj.5Ctpms.,1
00000012 00              423 _tpms_NetFLTireTemV:	.byte	0
                         424 	.type	_tpms_NetFLTireTemV,@object
                         425 	.size	_tpms_NetFLTireTemV,1
                         426 	.global	_tpms_NetFRTirePrsV..D.3A.5CRenesas_Electronics.5CD1x_RGL.5Crgl_ghs_D1Lx_obj_V1.2E2.2E0.5Cvlib.5Capp.5Cgfx_apps.5Csimple_draw_d1l2.5Ctarget.5Cd1lx_mango_ghs.5Cobj.5Ctpms.
                         427 _tpms_NetFRTirePrsV..D.3A.5CRenesas_Electronics.5CD1x_RGL.5Crgl_ghs_D1Lx_obj_V1.2E2.2E0.5Cvlib.5Capp.5Cgfx_apps.5Csimple_draw_d1l2.5Ctarget.5Cd1lx_mango_ghs.5Cobj.5Ctpms.:
                         428 	.type	_tpms_NetFRTirePrsV..D.3A.5CRenesas_Electronics.5CD1x_RGL.5Crgl_ghs_D1Lx_obj_V1.2E2.2E0.5Cvlib.5Capp.5Cgfx_apps.5Csimple_draw_d1l2.5Ctarget.5Cd1lx_mango_ghs.5Cobj.5Ctpms.,@object
                         429 	.size	_tpms_NetFRTirePrsV..D.3A.5CRenesas_Electronics.5CD1x_RGL.5Crgl_ghs_D1Lx_obj_V1.2E2.2E0.5Cvlib.5Capp.5Cgfx_apps.5Csimple_draw_d1l2.5Ctarget.5Cd1lx_mango_ghs.5Cobj.5Ctpms.,1
00000013 00              430 _tpms_NetFRTirePrsV:	.byte	0
                         431 	.type	_tpms_NetFRTirePrsV,@object
                         432 	.size	_tpms_NetFRTirePrsV,1
                         433 	.global	_tpms_NetFRTireSts..D.3A.5CRenesas_Electronics.5CD1x_RGL.5Crgl_ghs_D1Lx_obj_V1.2E2.2E0.5Cvlib.5Capp.5Cgfx_apps.5Csimple_draw_d1l2.5Ctarget.5Cd1lx_mango_ghs.5Cobj.5Ctpms.
                         434 _tpms_NetFRTireSts..D.3A.5CRenesas_Electronics.5CD1x_RGL.5Crgl_ghs_D1Lx_obj_V1.2E2.2E0.5Cvlib.5Capp.5Cgfx_apps.5Csimple_draw_d1l2.5Ctarget.5Cd1lx_mango_ghs.5Cobj.5Ctpms.:
                         435 	.type	_tpms_NetFRTireSts..D.3A.5CRenesas_Electronics.5CD1x_RGL.5Crgl_ghs_D1Lx_obj_V1.2E2.2E0.5Cvlib.5Capp.5Cgfx_apps.5Csimple_draw_d1l2.5Ctarget.5Cd1lx_mango_ghs.5Cobj.5Ctpms.,@object
                         436 	.size	_tpms_NetFRTireSts..D.3A.5CRenesas_Electronics.5CD1x_RGL.5Crgl_ghs_D1Lx_obj_V1.2E2.2E0.5Cvlib.5Capp.5Cgfx_apps.5Csimple_draw_d1l2.5Ctarget.5Cd1lx_mango_ghs.5Cobj.5Ctpms.,1
00000014 00              437 _tpms_NetFRTireSts:	.byte	0
                         438 	.type	_tpms_NetFRTireSts,@object
                         439 	.size	_tpms_NetFRTireSts,1
                         440 	.global	_tpms_NetFRTireTemV..D.3A.5CRenesas_Electronics.5CD1x_RGL.5Crgl_ghs_D1Lx_obj_V1.2E2.2E0.5Cvlib.5Capp.5Cgfx_apps.5Csimple_draw_d1l2.5Ctarget.5Cd1lx_mango_ghs.5Cobj.5Ctpms.
                         441 _tpms_NetFRTireTemV..D.3A.5CRenesas_Electronics.5CD1x_RGL.5Crgl_ghs_D1Lx_obj_V1.2E2.2E0.5Cvlib.5Capp.5Cgfx_apps.5Csimple_draw_d1l2.5Ctarget.5Cd1lx_mango_ghs.5Cobj.5Ctpms.:
                         442 	.type	_tpms_NetFRTireTemV..D.3A.5CRenesas_Electronics.5CD1x_RGL.5Crgl_ghs_D1Lx_obj_V1.2E2.2E0.5Cvlib.5Capp.5Cgfx_apps.5Csimple_draw_d1l2.5Ctarget.5Cd1lx_mango_ghs.5Cobj.5Ctpms.,@object
                         443 	.size	_tpms_NetFRTireTemV..D.3A.5CRenesas_Electronics.5CD1x_RGL.5Crgl_ghs_D1Lx_obj_V1.2E2.2E0.5Cvlib.5Capp.5Cgfx_apps.5Csimple_draw_d1l2.5Ctarget.5Cd1lx_mango_ghs.5Cobj.5Ctpms.,1
00000015 00              444 _tpms_NetFRTireTemV:	.byte	0
                         445 	.type	_tpms_NetFRTireTemV,@object
                         446 	.size	_tpms_NetFRTireTemV,1
                         447 	.global	_tpms_NetRLTirePrsV..D.3A.5CRenesas_Electronics.5CD1x_RGL.5Crgl_ghs_D1Lx_obj_V1.2E2.2E0.5Cvlib.5Capp.5Cgfx_apps.5Csimple_draw_d1l2.5Ctarget.5Cd1lx_mango_ghs.5Cobj.5Ctpms.
                         448 _tpms_NetRLTirePrsV..D.3A.5CRenesas_Electronics.5CD1x_RGL.5Crgl_ghs_D1Lx_obj_V1.2E2.2E0.5Cvlib.5Capp.5Cgfx_apps.5Csimple_draw_d1l2.5Ctarget.5Cd1lx_mango_ghs.5Cobj.5Ctpms.:
                         449 	.type	_tpms_NetRLTirePrsV..D.3A.5CRenesas_Electronics.5CD1x_RGL.5Crgl_ghs_D1Lx_obj_V1.2E2.2E0.5Cvlib.5Capp.5Cgfx_apps.5Csimple_draw_d1l2.5Ctarget.5Cd1lx_mango_ghs.5Cobj.5Ctpms.,@object
                         450 	.size	_tpms_NetRLTirePrsV..D.3A.5CRenesas_Electronics.5CD1x_RGL.5Crgl_ghs_D1Lx_obj_V1.2E2.2E0.5Cvlib.5Capp.5Cgfx_apps.5Csimple_draw_d1l2.5Ctarget.5Cd1lx_mango_ghs.5Cobj.5Ctpms.,1
00000016 00              451 _tpms_NetRLTirePrsV:	.byte	0
                         452 	.type	_tpms_NetRLTirePrsV,@object
                         453 	.size	_tpms_NetRLTirePrsV,1
                         454 	.global	_tpms_NetRLTireSts..D.3A.5CRenesas_Electronics.5CD1x_RGL.5Crgl_ghs_D1Lx_obj_V1.2E2.2E0.5Cvlib.5Capp.5Cgfx_apps.5Csimple_draw_d1l2.5Ctarget.5Cd1lx_mango_ghs.5Cobj.5Ctpms.
                         455 _tpms_NetRLTireSts..D.3A.5CRenesas_Electronics.5CD1x_RGL.5Crgl_ghs_D1Lx_obj_V1.2E2.2E0.5Cvlib.5Capp.5Cgfx_apps.5Csimple_draw_d1l2.5Ctarget.5Cd1lx_mango_ghs.5Cobj.5Ctpms.:
                         456 	.type	_tpms_NetRLTireSts..D.3A.5CRenesas_Electronics.5CD1x_RGL.5Crgl_ghs_D1Lx_obj_V1.2E2.2E0.5Cvlib.5Capp.5Cgfx_apps.5Csimple_draw_d1l2.5Ctarget.5Cd1lx_mango_ghs.5Cobj.5Ctpms.,@object
                         457 	.size	_tpms_NetRLTireSts..D.3A.5CRenesas_Electronics.5CD1x_RGL.5Crgl_ghs_D1Lx_obj_V1.2E2.2E0.5Cvlib.5Capp.5Cgfx_apps.5Csimple_draw_d1l2.5Ctarget.5Cd1lx_mango_ghs.5Cobj.5Ctpms.,1
00000017 00              458 _tpms_NetRLTireSts:	.byte	0
                         459 	.type	_tpms_NetRLTireSts,@object
                         460 	.size	_tpms_NetRLTireSts,1
                         461 	.global	_tpms_NetRLTireTemV..D.3A.5CRenesas_Electronics.5CD1x_RGL.5Crgl_ghs_D1Lx_obj_V1.2E2.2E0.5Cvlib.5Capp.5Cgfx_apps.5Csimple_draw_d1l2.5Ctarget.5Cd1lx_mango_ghs.5Cobj.5Ctpms.
                         462 _tpms_NetRLTireTemV..D.3A.5CRenesas_Electronics.5CD1x_RGL.5Crgl_ghs_D1Lx_obj_V1.2E2.2E0.5Cvlib.5Capp.5Cgfx_apps.5Csimple_draw_d1l2.5Ctarget.5Cd1lx_mango_ghs.5Cobj.5Ctpms.:

                                                                      Page 9
                                                              C:\Users\YINGAO~1\AppData\Local\Temp\gh_00008t41.si
                         463 	.type	_tpms_NetRLTireTemV..D.3A.5CRenesas_Electronics.5CD1x_RGL.5Crgl_ghs_D1Lx_obj_V1.2E2.2E0.5Cvlib.5Capp.5Cgfx_apps.5Csimple_draw_d1l2.5Ctarget.5Cd1lx_mango_ghs.5Cobj.5Ctpms.,@object
                         464 	.size	_tpms_NetRLTireTemV..D.3A.5CRenesas_Electronics.5CD1x_RGL.5Crgl_ghs_D1Lx_obj_V1.2E2.2E0.5Cvlib.5Capp.5Cgfx_apps.5Csimple_draw_d1l2.5Ctarget.5Cd1lx_mango_ghs.5Cobj.5Ctpms.,1
00000018 00              465 _tpms_NetRLTireTemV:	.byte	0
                         466 	.type	_tpms_NetRLTireTemV,@object
                         467 	.size	_tpms_NetRLTireTemV,1
                         468 	.global	_tpms_NetRRTirePrsV..D.3A.5CRenesas_Electronics.5CD1x_RGL.5Crgl_ghs_D1Lx_obj_V1.2E2.2E0.5Cvlib.5Capp.5Cgfx_apps.5Csimple_draw_d1l2.5Ctarget.5Cd1lx_mango_ghs.5Cobj.5Ctpms.
                         469 _tpms_NetRRTirePrsV..D.3A.5CRenesas_Electronics.5CD1x_RGL.5Crgl_ghs_D1Lx_obj_V1.2E2.2E0.5Cvlib.5Capp.5Cgfx_apps.5Csimple_draw_d1l2.5Ctarget.5Cd1lx_mango_ghs.5Cobj.5Ctpms.:
                         470 	.type	_tpms_NetRRTirePrsV..D.3A.5CRenesas_Electronics.5CD1x_RGL.5Crgl_ghs_D1Lx_obj_V1.2E2.2E0.5Cvlib.5Capp.5Cgfx_apps.5Csimple_draw_d1l2.5Ctarget.5Cd1lx_mango_ghs.5Cobj.5Ctpms.,@object
                         471 	.size	_tpms_NetRRTirePrsV..D.3A.5CRenesas_Electronics.5CD1x_RGL.5Crgl_ghs_D1Lx_obj_V1.2E2.2E0.5Cvlib.5Capp.5Cgfx_apps.5Csimple_draw_d1l2.5Ctarget.5Cd1lx_mango_ghs.5Cobj.5Ctpms.,1
00000019 00              472 _tpms_NetRRTirePrsV:	.byte	0
                         473 	.type	_tpms_NetRRTirePrsV,@object
                         474 	.size	_tpms_NetRRTirePrsV,1
                         475 	.global	_tpms_NetRRTireSts..D.3A.5CRenesas_Electronics.5CD1x_RGL.5Crgl_ghs_D1Lx_obj_V1.2E2.2E0.5Cvlib.5Capp.5Cgfx_apps.5Csimple_draw_d1l2.5Ctarget.5Cd1lx_mango_ghs.5Cobj.5Ctpms.
                         476 _tpms_NetRRTireSts..D.3A.5CRenesas_Electronics.5CD1x_RGL.5Crgl_ghs_D1Lx_obj_V1.2E2.2E0.5Cvlib.5Capp.5Cgfx_apps.5Csimple_draw_d1l2.5Ctarget.5Cd1lx_mango_ghs.5Cobj.5Ctpms.:
                         477 	.type	_tpms_NetRRTireSts..D.3A.5CRenesas_Electronics.5CD1x_RGL.5Crgl_ghs_D1Lx_obj_V1.2E2.2E0.5Cvlib.5Capp.5Cgfx_apps.5Csimple_draw_d1l2.5Ctarget.5Cd1lx_mango_ghs.5Cobj.5Ctpms.,@object
                         478 	.size	_tpms_NetRRTireSts..D.3A.5CRenesas_Electronics.5CD1x_RGL.5Crgl_ghs_D1Lx_obj_V1.2E2.2E0.5Cvlib.5Capp.5Cgfx_apps.5Csimple_draw_d1l2.5Ctarget.5Cd1lx_mango_ghs.5Cobj.5Ctpms.,1
0000001a 00              479 _tpms_NetRRTireSts:	.byte	0
                         480 	.type	_tpms_NetRRTireSts,@object
                         481 	.size	_tpms_NetRRTireSts,1
                         482 	.global	_tpms_NetRRTireTemV..D.3A.5CRenesas_Electronics.5CD1x_RGL.5Crgl_ghs_D1Lx_obj_V1.2E2.2E0.5Cvlib.5Capp.5Cgfx_apps.5Csimple_draw_d1l2.5Ctarget.5Cd1lx_mango_ghs.5Cobj.5Ctpms.
                         483 _tpms_NetRRTireTemV..D.3A.5CRenesas_Electronics.5CD1x_RGL.5Crgl_ghs_D1Lx_obj_V1.2E2.2E0.5Cvlib.5Capp.5Cgfx_apps.5Csimple_draw_d1l2.5Ctarget.5Cd1lx_mango_ghs.5Cobj.5Ctpms.:
                         484 	.type	_tpms_NetRRTireTemV..D.3A.5CRenesas_Electronics.5CD1x_RGL.5Crgl_ghs_D1Lx_obj_V1.2E2.2E0.5Cvlib.5Capp.5Cgfx_apps.5Csimple_draw_d1l2.5Ctarget.5Cd1lx_mango_ghs.5Cobj.5Ctpms.,@object
                         485 	.size	_tpms_NetRRTireTemV..D.3A.5CRenesas_Electronics.5CD1x_RGL.5Crgl_ghs_D1Lx_obj_V1.2E2.2E0.5Cvlib.5Capp.5Cgfx_apps.5Csimple_draw_d1l2.5Ctarget.5Cd1lx_mango_ghs.5Cobj.5Ctpms.,1
0000001b 00              486 _tpms_NetRRTireTemV:	.byte	0
                         487 	.type	_tpms_NetRRTireTemV,@object
                         488 	.size	_tpms_NetRRTireTemV,1
                         489 	.global	_tpms_NetClstrDspdFLTirePrs..D.3A.5CRenesas_Electronics.5CD1x_RGL.5Crgl_ghs_D1Lx_obj_V1.2E2.2E0.5Cvlib.5Capp.5Cgfx_apps.5Csimple_draw_d1l2.5Ctarget.5Cd1lx_mango_ghs.5Cobj.5Ctpms.
                         490 _tpms_NetClstrDspdFLTirePrs..D.3A.5CRenesas_Electronics.5CD1x_RGL.5Crgl_ghs_D1Lx_obj_V1.2E2.2E0.5Cvlib.5Capp.5Cgfx_apps.5Csimple_draw_d1l2.5Ctarget.5Cd1lx_mango_ghs.5Cobj.5Ctpms.:
                         491 	.type	_tpms_NetClstrDspdFLTirePrs..D.3A.5CRenesas_Electronics.5CD1x_RGL.5Crgl_ghs_D1Lx_obj_V1.2E2.2E0.5Cvlib.5Capp.5Cgfx_apps.5Csimple_draw_d1l2.5Ctarget.5Cd1lx_mango_ghs.5Cobj.5Ctpms.,@object
                         492 	.size	_tpms_NetClstrDspdFLTirePrs..D.3A.5CRenesas_Electronics.5CD1x_RGL.5Crgl_ghs_D1Lx_obj_V1.2E2.2E0.5Cvlib.5Capp.5Cgfx_apps.5Csimple_draw_d1l2.5Ctarget.5Cd1lx_mango_ghs.5Cobj.5Ctpms.,1
0000001c 00              493 _tpms_NetClstrDspdFLTirePrs:	.byte	0
                         494 	.type	_tpms_NetClstrDspdFLTirePrs,@object
                         495 	.size	_tpms_NetClstrDspdFLTirePrs,1
                         496 	.global	_tpms_NetClstrDspdFRTirePrs..D.3A.5CRenesas_Electronics.5CD1x_RGL.5Crgl_ghs_D1Lx_obj_V1.2E2.2E0.5Cvlib.5Capp.5Cgfx_apps.5Csimple_draw_d1l2.5Ctarget.5Cd1lx_mango_ghs.5Cobj.5Ctpms.
                         497 _tpms_NetClstrDspdFRTirePrs..D.3A.5CRenesas_Electronics.5CD1x_RGL.5Crgl_ghs_D1Lx_obj_V1.2E2.2E0.5Cvlib.5Capp.5Cgfx_apps.5Csimple_draw_d1l2.5Ctarget.5Cd1lx_mango_ghs.5Cobj.5Ctpms.:
                         498 	.type	_tpms_NetClstrDspdFRTirePrs..D.3A.5CRenesas_Electronics.5CD1x_RGL.5Crgl_ghs_D1Lx_obj_V1.2E2.2E0.5Cvlib.5Capp.5Cgfx_apps.5Csimple_draw_d1l2.5Ctarget.5Cd1lx_mango_ghs.5Cobj.5Ctpms.,@object
                         499 	.size	_tpms_NetClstrDspdFRTirePrs..D.3A.5CRenesas_Electronics.5CD1x_RGL.5Crgl_ghs_D1Lx_obj_V1.2E2.2E0.5Cvlib.5Capp.5Cgfx_apps.5Csimple_draw_d1l2.5Ctarget.5Cd1lx_mango_ghs.5Cobj.5Ctpms.,1
0000001d 00              500 _tpms_NetClstrDspdFRTirePrs:	.byte	0
                         501 	.type	_tpms_NetClstrDspdFRTirePrs,@object
                         502 	.size	_tpms_NetClstrDspdFRTirePrs,1
                         503 	.global	_tpms_NetClstrDspdRRTirePrs..D.3A.5CRenesas_Electronics.5CD1x_RGL.5Crgl_ghs_D1Lx_obj_V1.2E2.2E0.5Cvlib.5Capp.5Cgfx_apps.5Csimple_draw_d1l2.5Ctarget.5Cd1lx_mango_ghs.5Cobj.5Ctpms.
                         504 _tpms_NetClstrDspdRRTirePrs..D.3A.5CRenesas_Electronics.5CD1x_RGL.5Crgl_ghs_D1Lx_obj_V1.2E2.2E0.5Cvlib.5Capp.5Cgfx_apps.5Csimple_draw_d1l2.5Ctarget.5Cd1lx_mango_ghs.5Cobj.5Ctpms.:
                         505 	.type	_tpms_NetClstrDspdRRTirePrs..D.3A.5CRenesas_Electronics.5CD1x_RGL.5Crgl_ghs_D1Lx_obj_V1.2E2.2E0.5Cvlib.5Capp.5Cgfx_apps.5Csimple_draw_d1l2.5Ctarget.5Cd1lx_mango_ghs.5Cobj.5Ctpms.,@object
                         506 	.size	_tpms_NetClstrDspdRRTirePrs..D.3A.5CRenesas_Electronics.5CD1x_RGL.5Crgl_ghs_D1Lx_obj_V1.2E2.2E0.5Cvlib.5Capp.5Cgfx_apps.5Csimple_draw_d1l2.5Ctarget.5Cd1lx_mango_ghs.5Cobj.5Ctpms.,1
0000001e 00              507 _tpms_NetClstrDspdRRTirePrs:	.byte	0
                         508 	.type	_tpms_NetClstrDspdRRTirePrs,@object
                         509 	.size	_tpms_NetClstrDspdRRTirePrs,1
                         510 	.global	_tpms_NetClstrDspdRLTirePrs..D.3A.5CRenesas_Electronics.5CD1x_RGL.5Crgl_ghs_D1Lx_obj_V1.2E2.2E0.5Cvlib.5Capp.5Cgfx_apps.5Csimple_draw_d1l2.5Ctarget.5Cd1lx_mango_ghs.5Cobj.5Ctpms.
                         511 _tpms_NetClstrDspdRLTirePrs..D.3A.5CRenesas_Electronics.5CD1x_RGL.5Crgl_ghs_D1Lx_obj_V1.2E2.2E0.5Cvlib.5Capp.5Cgfx_apps.5Csimple_draw_d1l2.5Ctarget.5Cd1lx_mango_ghs.5Cobj.5Ctpms.:
                         512 	.type	_tpms_NetClstrDspdRLTirePrs..D.3A.5CRenesas_Electronics.5CD1x_RGL.5Crgl_ghs_D1Lx_obj_V1.2E2.2E0.5Cvlib.5Capp.5Cgfx_apps.5Csimple_draw_d1l2.5Ctarget.5Cd1lx_mango_ghs.5Cobj.5Ctpms.,@object
                         513 	.size	_tpms_NetClstrDspdRLTirePrs..D.3A.5CRenesas_Electronics.5CD1x_RGL.5Crgl_ghs_D1Lx_obj_V1.2E2.2E0.5Cvlib.5Capp.5Cgfx_apps.5Csimple_draw_d1l2.5Ctarget.5Cd1lx_mango_ghs.5Cobj.5Ctpms.,1
0000001f 00              514 _tpms_NetClstrDspdRLTirePrs:	.byte	0
                         515 	.type	_tpms_NetClstrDspdRLTirePrs,@object
                         516 	.size	_tpms_NetClstrDspdRLTirePrs,1
                         517 	.global	_tpms_NetClstrDspdFLTireSts..D.3A.5CRenesas_Electronics.5CD1x_RGL.5Crgl_ghs_D1Lx_obj_V1.2E2.2E0.5Cvlib.5Capp.5Cgfx_apps.5Csimple_draw_d1l2.5Ctarget.5Cd1lx_mango_ghs.5Cobj.5Ctpms.
                         518 _tpms_NetClstrDspdFLTireSts..D.3A.5CRenesas_Electronics.5CD1x_RGL.5Crgl_ghs_D1Lx_obj_V1.2E2.2E0.5Cvlib.5Capp.5Cgfx_apps.5Csimple_draw_d1l2.5Ctarget.5Cd1lx_mango_ghs.5Cobj.5Ctpms.:
                         519 	.type	_tpms_NetClstrDspdFLTireSts..D.3A.5CRenesas_Electronics.5CD1x_RGL.5Crgl_ghs_D1Lx_obj_V1.2E2.2E0.5Cvlib.5Capp.5Cgfx_apps.5Csimple_draw_d1l2.5Ctarget.5Cd1lx_mango_ghs.5Cobj.5Ctpms.,@object
                         520 	.size	_tpms_NetClstrDspdFLTireSts..D.3A.5CRenesas_Electronics.5CD1x_RGL.5Crgl_ghs_D1Lx_obj_V1.2E2.2E0.5Cvlib.5Capp.5Cgfx_apps.5Csimple_draw_d1l2.5Ctarget.5Cd1lx_mango_ghs.5Cobj.5Ctpms.,1
00000020 00              521 _tpms_NetClstrDspdFLTireSts:	.byte	0
                         522 	.type	_tpms_NetClstrDspdFLTireSts,@object
                         523 	.size	_tpms_NetClstrDspdFLTireSts,1

                                                                      Page 10
                                                              C:\Users\YINGAO~1\AppData\Local\Temp\gh_00008t41.si
                         524 	.global	_tpms_NetClstrDspdFRTireSts..D.3A.5CRenesas_Electronics.5CD1x_RGL.5Crgl_ghs_D1Lx_obj_V1.2E2.2E0.5Cvlib.5Capp.5Cgfx_apps.5Csimple_draw_d1l2.5Ctarget.5Cd1lx_mango_ghs.5Cobj.5Ctpms.
                         525 _tpms_NetClstrDspdFRTireSts..D.3A.5CRenesas_Electronics.5CD1x_RGL.5Crgl_ghs_D1Lx_obj_V1.2E2.2E0.5Cvlib.5Capp.5Cgfx_apps.5Csimple_draw_d1l2.5Ctarget.5Cd1lx_mango_ghs.5Cobj.5Ctpms.:
                         526 	.type	_tpms_NetClstrDspdFRTireSts..D.3A.5CRenesas_Electronics.5CD1x_RGL.5Crgl_ghs_D1Lx_obj_V1.2E2.2E0.5Cvlib.5Capp.5Cgfx_apps.5Csimple_draw_d1l2.5Ctarget.5Cd1lx_mango_ghs.5Cobj.5Ctpms.,@object
                         527 	.size	_tpms_NetClstrDspdFRTireSts..D.3A.5CRenesas_Electronics.5CD1x_RGL.5Crgl_ghs_D1Lx_obj_V1.2E2.2E0.5Cvlib.5Capp.5Cgfx_apps.5Csimple_draw_d1l2.5Ctarget.5Cd1lx_mango_ghs.5Cobj.5Ctpms.,1
00000021 00              528 _tpms_NetClstrDspdFRTireSts:	.byte	0
                         529 	.type	_tpms_NetClstrDspdFRTireSts,@object
                         530 	.size	_tpms_NetClstrDspdFRTireSts,1
                         531 	.global	_tpms_NetClstrDspdRRTireSts..D.3A.5CRenesas_Electronics.5CD1x_RGL.5Crgl_ghs_D1Lx_obj_V1.2E2.2E0.5Cvlib.5Capp.5Cgfx_apps.5Csimple_draw_d1l2.5Ctarget.5Cd1lx_mango_ghs.5Cobj.5Ctpms.
                         532 _tpms_NetClstrDspdRRTireSts..D.3A.5CRenesas_Electronics.5CD1x_RGL.5Crgl_ghs_D1Lx_obj_V1.2E2.2E0.5Cvlib.5Capp.5Cgfx_apps.5Csimple_draw_d1l2.5Ctarget.5Cd1lx_mango_ghs.5Cobj.5Ctpms.:
                         533 	.type	_tpms_NetClstrDspdRRTireSts..D.3A.5CRenesas_Electronics.5CD1x_RGL.5Crgl_ghs_D1Lx_obj_V1.2E2.2E0.5Cvlib.5Capp.5Cgfx_apps.5Csimple_draw_d1l2.5Ctarget.5Cd1lx_mango_ghs.5Cobj.5Ctpms.,@object
                         534 	.size	_tpms_NetClstrDspdRRTireSts..D.3A.5CRenesas_Electronics.5CD1x_RGL.5Crgl_ghs_D1Lx_obj_V1.2E2.2E0.5Cvlib.5Capp.5Cgfx_apps.5Csimple_draw_d1l2.5Ctarget.5Cd1lx_mango_ghs.5Cobj.5Ctpms.,1
00000022 00              535 _tpms_NetClstrDspdRRTireSts:	.byte	0
                         536 	.type	_tpms_NetClstrDspdRRTireSts,@object
                         537 	.size	_tpms_NetClstrDspdRRTireSts,1
                         538 	.global	_tpms_NetClstrDspdRLTireSts..D.3A.5CRenesas_Electronics.5CD1x_RGL.5Crgl_ghs_D1Lx_obj_V1.2E2.2E0.5Cvlib.5Capp.5Cgfx_apps.5Csimple_draw_d1l2.5Ctarget.5Cd1lx_mango_ghs.5Cobj.5Ctpms.
                         539 _tpms_NetClstrDspdRLTireSts..D.3A.5CRenesas_Electronics.5CD1x_RGL.5Crgl_ghs_D1Lx_obj_V1.2E2.2E0.5Cvlib.5Capp.5Cgfx_apps.5Csimple_draw_d1l2.5Ctarget.5Cd1lx_mango_ghs.5Cobj.5Ctpms.:
                         540 	.type	_tpms_NetClstrDspdRLTireSts..D.3A.5CRenesas_Electronics.5CD1x_RGL.5Crgl_ghs_D1Lx_obj_V1.2E2.2E0.5Cvlib.5Capp.5Cgfx_apps.5Csimple_draw_d1l2.5Ctarget.5Cd1lx_mango_ghs.5Cobj.5Ctpms.,@object
                         541 	.size	_tpms_NetClstrDspdRLTireSts..D.3A.5CRenesas_Electronics.5CD1x_RGL.5Crgl_ghs_D1Lx_obj_V1.2E2.2E0.5Cvlib.5Capp.5Cgfx_apps.5Csimple_draw_d1l2.5Ctarget.5Cd1lx_mango_ghs.5Cobj.5Ctpms.,1
00000023 00              542 _tpms_NetClstrDspdRLTireSts:	.byte	0
                         543 	.type	_tpms_NetClstrDspdRLTireSts,@object
                         544 	.size	_tpms_NetClstrDspdRLTireSts,1
                         545 	.global	_tpms_NetFICMDistUntAdj..D.3A.5CRenesas_Electronics.5CD1x_RGL.5Crgl_ghs_D1Lx_obj_V1.2E2.2E0.5Cvlib.5Capp.5Cgfx_apps.5Csimple_draw_d1l2.5Ctarget.5Cd1lx_mango_ghs.5Cobj.5Ctpms.
                         546 _tpms_NetFICMDistUntAdj..D.3A.5CRenesas_Electronics.5CD1x_RGL.5Crgl_ghs_D1Lx_obj_V1.2E2.2E0.5Cvlib.5Capp.5Cgfx_apps.5Csimple_draw_d1l2.5Ctarget.5Cd1lx_mango_ghs.5Cobj.5Ctpms.:
                         547 	.type	_tpms_NetFICMDistUntAdj..D.3A.5CRenesas_Electronics.5CD1x_RGL.5Crgl_ghs_D1Lx_obj_V1.2E2.2E0.5Cvlib.5Capp.5Cgfx_apps.5Csimple_draw_d1l2.5Ctarget.5Cd1lx_mango_ghs.5Cobj.5Ctpms.,@object
                         548 	.size	_tpms_NetFICMDistUntAdj..D.3A.5CRenesas_Electronics.5CD1x_RGL.5Crgl_ghs_D1Lx_obj_V1.2E2.2E0.5Cvlib.5Capp.5Cgfx_apps.5Csimple_draw_d1l2.5Ctarget.5Cd1lx_mango_ghs.5Cobj.5Ctpms.,1
00000024 00              549 _tpms_NetFICMDistUntAdj:	.byte	0
                         550 	.type	_tpms_NetFICMDistUntAdj,@object
                         551 	.size	_tpms_NetFICMDistUntAdj,1
                         552 	.global	_tpms_NetFICMFuelCsumpUntAdj..D.3A.5CRenesas_Electronics.5CD1x_RGL.5Crgl_ghs_D1Lx_obj_V1.2E2.2E0.5Cvlib.5Capp.5Cgfx_apps.5Csimple_draw_d1l2.5Ctarget.5Cd1lx_mango_ghs.5Cobj.5Ctpms.
                         553 _tpms_NetFICMFuelCsumpUntAdj..D.3A.5CRenesas_Electronics.5CD1x_RGL.5Crgl_ghs_D1Lx_obj_V1.2E2.2E0.5Cvlib.5Capp.5Cgfx_apps.5Csimple_draw_d1l2.5Ctarget.5Cd1lx_mango_ghs.5Cobj.5Ctpms.:
                         554 	.type	_tpms_NetFICMFuelCsumpUntAdj..D.3A.5CRenesas_Electronics.5CD1x_RGL.5Crgl_ghs_D1Lx_obj_V1.2E2.2E0.5Cvlib.5Capp.5Cgfx_apps.5Csimple_draw_d1l2.5Ctarget.5Cd1lx_mango_ghs.5Cobj.5Ctpms.,@object
                         555 	.size	_tpms_NetFICMFuelCsumpUntAdj..D.3A.5CRenesas_Electronics.5CD1x_RGL.5Crgl_ghs_D1Lx_obj_V1.2E2.2E0.5Cvlib.5Capp.5Cgfx_apps.5Csimple_draw_d1l2.5Ctarget.5Cd1lx_mango_ghs.5Cobj.5Ctpms.,1
00000025 00              556 _tpms_NetFICMFuelCsumpUntAdj:	.byte	0
                         557 	.type	_tpms_NetFICMFuelCsumpUntAdj,@object
                         558 	.size	_tpms_NetFICMFuelCsumpUntAdj,1
                         559 	.global	_tpms_NetFICMTemUntAdj..D.3A.5CRenesas_Electronics.5CD1x_RGL.5Crgl_ghs_D1Lx_obj_V1.2E2.2E0.5Cvlib.5Capp.5Cgfx_apps.5Csimple_draw_d1l2.5Ctarget.5Cd1lx_mango_ghs.5Cobj.5Ctpms.
                         560 _tpms_NetFICMTemUntAdj..D.3A.5CRenesas_Electronics.5CD1x_RGL.5Crgl_ghs_D1Lx_obj_V1.2E2.2E0.5Cvlib.5Capp.5Cgfx_apps.5Csimple_draw_d1l2.5Ctarget.5Cd1lx_mango_ghs.5Cobj.5Ctpms.:
                         561 	.type	_tpms_NetFICMTemUntAdj..D.3A.5CRenesas_Electronics.5CD1x_RGL.5Crgl_ghs_D1Lx_obj_V1.2E2.2E0.5Cvlib.5Capp.5Cgfx_apps.5Csimple_draw_d1l2.5Ctarget.5Cd1lx_mango_ghs.5Cobj.5Ctpms.,@object
                         562 	.size	_tpms_NetFICMTemUntAdj..D.3A.5CRenesas_Electronics.5CD1x_RGL.5Crgl_ghs_D1Lx_obj_V1.2E2.2E0.5Cvlib.5Capp.5Cgfx_apps.5Csimple_draw_d1l2.5Ctarget.5Cd1lx_mango_ghs.5Cobj.5Ctpms.,1
00000026 00              563 _tpms_NetFICMTemUntAdj:	.byte	0
                         564 	.type	_tpms_NetFICMTemUntAdj,@object
                         565 	.size	_tpms_NetFICMTemUntAdj,1
                         566 	.global	_tpms_NetFICMTyrePressureUntAdj..D.3A.5CRenesas_Electronics.5CD1x_RGL.5Crgl_ghs_D1Lx_obj_V1.2E2.2E0.5Cvlib.5Capp.5Cgfx_apps.5Csimple_draw_d1l2.5Ctarget.5Cd1lx_mango_ghs.5Cobj.5Ctpms.
                         567 _tpms_NetFICMTyrePressureUntAdj..D.3A.5CRenesas_Electronics.5CD1x_RGL.5Crgl_ghs_D1Lx_obj_V1.2E2.2E0.5Cvlib.5Capp.5Cgfx_apps.5Csimple_draw_d1l2.5Ctarget.5Cd1lx_mango_ghs.5Cobj.5Ctpms.:
                         568 	.type	_tpms_NetFICMTyrePressureUntAdj..D.3A.5CRenesas_Electronics.5CD1x_RGL.5Crgl_ghs_D1Lx_obj_V1.2E2.2E0.5Cvlib.5Capp.5Cgfx_apps.5Csimple_draw_d1l2.5Ctarget.5Cd1lx_mango_ghs.5Cobj.5Ctpms.,@object
                         569 	.size	_tpms_NetFICMTyrePressureUntAdj..D.3A.5CRenesas_Electronics.5CD1x_RGL.5Crgl_ghs_D1Lx_obj_V1.2E2.2E0.5Cvlib.5Capp.5Cgfx_apps.5Csimple_draw_d1l2.5Ctarget.5Cd1lx_mango_ghs.5Cobj.5Ctpms.,1
00000027 00              570 _tpms_NetFICMTyrePressureUntAdj:	.byte	0
                         571 	.type	_tpms_NetFICMTyrePressureUntAdj,@object
                         572 	.size	_tpms_NetFICMTyrePressureUntAdj,1
                         573 	.global	_tpms_NetFICMDistUnitAdjtReqA..D.3A.5CRenesas_Electronics.5CD1x_RGL.5Crgl_ghs_D1Lx_obj_V1.2E2.2E0.5Cvlib.5Capp.5Cgfx_apps.5Csimple_draw_d1l2.5Ctarget.5Cd1lx_mango_ghs.5Cobj.5Ctpms.
                         574 _tpms_NetFICMDistUnitAdjtReqA..D.3A.5CRenesas_Electronics.5CD1x_RGL.5Crgl_ghs_D1Lx_obj_V1.2E2.2E0.5Cvlib.5Capp.5Cgfx_apps.5Csimple_draw_d1l2.5Ctarget.5Cd1lx_mango_ghs.5Cobj.5Ctpms.:
                         575 	.type	_tpms_NetFICMDistUnitAdjtReqA..D.3A.5CRenesas_Electronics.5CD1x_RGL.5Crgl_ghs_D1Lx_obj_V1.2E2.2E0.5Cvlib.5Capp.5Cgfx_apps.5Csimple_draw_d1l2.5Ctarget.5Cd1lx_mango_ghs.5Cobj.5Ctpms.,@object
                         576 	.size	_tpms_NetFICMDistUnitAdjtReqA..D.3A.5CRenesas_Electronics.5CD1x_RGL.5Crgl_ghs_D1Lx_obj_V1.2E2.2E0.5Cvlib.5Capp.5Cgfx_apps.5Csimple_draw_d1l2.5Ctarget.5Cd1lx_mango_ghs.5Cobj.5Ctpms.,1
00000028 00              577 _tpms_NetFICMDistUnitAdjtReqA:	.byte	0
                         578 	.type	_tpms_NetFICMDistUnitAdjtReqA,@object
                         579 	.size	_tpms_NetFICMDistUnitAdjtReqA,1
                         580 	.global	_tpms_NetFICMFuelCsumpUntAdjARA..D.3A.5CRenesas_Electronics.5CD1x_RGL.5Crgl_ghs_D1Lx_obj_V1.2E2.2E0.5Cvlib.5Capp.5Cgfx_apps.5Csimple_draw_d1l2.5Ctarget.5Cd1lx_mango_ghs.5Cobj.5Ctpms.
                         581 _tpms_NetFICMFuelCsumpUntAdjARA..D.3A.5CRenesas_Electronics.5CD1x_RGL.5Crgl_ghs_D1Lx_obj_V1.2E2.2E0.5Cvlib.5Capp.5Cgfx_apps.5Csimple_draw_d1l2.5Ctarget.5Cd1lx_mango_ghs.5Cobj.5Ctpms.:
                         582 	.type	_tpms_NetFICMFuelCsumpUntAdjARA..D.3A.5CRenesas_Electronics.5CD1x_RGL.5Crgl_ghs_D1Lx_obj_V1.2E2.2E0.5Cvlib.5Capp.5Cgfx_apps.5Csimple_draw_d1l2.5Ctarget.5Cd1lx_mango_ghs.5Cobj.5Ctpms.,@object
                         583 	.size	_tpms_NetFICMFuelCsumpUntAdjARA..D.3A.5CRenesas_Electronics.5CD1x_RGL.5Crgl_ghs_D1Lx_obj_V1.2E2.2E0.5Cvlib.5Capp.5Cgfx_apps.5Csimple_draw_d1l2.5Ctarget.5Cd1lx_mango_ghs.5Cobj.5Ctpms.,1
00000029 00              584 _tpms_NetFICMFuelCsumpUntAdjARA:	.byte	0

                                                                      Page 11
                                                              C:\Users\YINGAO~1\AppData\Local\Temp\gh_00008t41.si
                         585 	.type	_tpms_NetFICMFuelCsumpUntAdjARA,@object
                         586 	.size	_tpms_NetFICMFuelCsumpUntAdjARA,1
                         587 	.global	_tpms_NetFICMTemUntAdjtReqA..D.3A.5CRenesas_Electronics.5CD1x_RGL.5Crgl_ghs_D1Lx_obj_V1.2E2.2E0.5Cvlib.5Capp.5Cgfx_apps.5Csimple_draw_d1l2.5Ctarget.5Cd1lx_mango_ghs.5Cobj.5Ctpms.
                         588 _tpms_NetFICMTemUntAdjtReqA..D.3A.5CRenesas_Electronics.5CD1x_RGL.5Crgl_ghs_D1Lx_obj_V1.2E2.2E0.5Cvlib.5Capp.5Cgfx_apps.5Csimple_draw_d1l2.5Ctarget.5Cd1lx_mango_ghs.5Cobj.5Ctpms.:
                         589 	.type	_tpms_NetFICMTemUntAdjtReqA..D.3A.5CRenesas_Electronics.5CD1x_RGL.5Crgl_ghs_D1Lx_obj_V1.2E2.2E0.5Cvlib.5Capp.5Cgfx_apps.5Csimple_draw_d1l2.5Ctarget.5Cd1lx_mango_ghs.5Cobj.5Ctpms.,@object
                         590 	.size	_tpms_NetFICMTemUntAdjtReqA..D.3A.5CRenesas_Electronics.5CD1x_RGL.5Crgl_ghs_D1Lx_obj_V1.2E2.2E0.5Cvlib.5Capp.5Cgfx_apps.5Csimple_draw_d1l2.5Ctarget.5Cd1lx_mango_ghs.5Cobj.5Ctpms.,1
0000002a 00              591 _tpms_NetFICMTemUntAdjtReqA:	.byte	0
                         592 	.type	_tpms_NetFICMTemUntAdjtReqA,@object
                         593 	.size	_tpms_NetFICMTemUntAdjtReqA,1
                         594 	.global	_tpms_NetFICMTyrePressureUntAdjtReqA..D.3A.5CRenesas_Electronics.5CD1x_RGL.5Crgl_ghs_D1Lx_obj_V1.2E2.2E0.5Cvlib.5Capp.5Cgfx_apps.5Csimple_draw_d1l2.5Ctarget.5Cd1lx_mango_ghs.5Cobj.5Ctpms.
                         595 _tpms_NetFICMTyrePressureUntAdjtReqA..D.3A.5CRenesas_Electronics.5CD1x_RGL.5Crgl_ghs_D1Lx_obj_V1.2E2.2E0.5Cvlib.5Capp.5Cgfx_apps.5Csimple_draw_d1l2.5Ctarget.5Cd1lx_mango_ghs.5Cobj.5Ctpms.:
                         596 	.type	_tpms_NetFICMTyrePressureUntAdjtReqA..D.3A.5CRenesas_Electronics.5CD1x_RGL.5Crgl_ghs_D1Lx_obj_V1.2E2.2E0.5Cvlib.5Capp.5Cgfx_apps.5Csimple_draw_d1l2.5Ctarget.5Cd1lx_mango_ghs.5Cobj.5Ctpms.,@object
                         597 	.size	_tpms_NetFICMTyrePressureUntAdjtReqA..D.3A.5CRenesas_Electronics.5CD1x_RGL.5Crgl_ghs_D1Lx_obj_V1.2E2.2E0.5Cvlib.5Capp.5Cgfx_apps.5Csimple_draw_d1l2.5Ctarget.5Cd1lx_mango_ghs.5Cobj.5Ctpms.,1
0000002b 00              598 _tpms_NetFICMTyrePressureUntAdjtReqA:	.byte	0
                         599 	.type	_tpms_NetFICMTyrePressureUntAdjtReqA,@object
                         600 	.size	_tpms_NetFICMTyrePressureUntAdjtReqA,1
                         601 	.global	_tpms_NetClstrDistUnt..D.3A.5CRenesas_Electronics.5CD1x_RGL.5Crgl_ghs_D1Lx_obj_V1.2E2.2E0.5Cvlib.5Capp.5Cgfx_apps.5Csimple_draw_d1l2.5Ctarget.5Cd1lx_mango_ghs.5Cobj.5Ctpms.
                         602 _tpms_NetClstrDistUnt..D.3A.5CRenesas_Electronics.5CD1x_RGL.5Crgl_ghs_D1Lx_obj_V1.2E2.2E0.5Cvlib.5Capp.5Cgfx_apps.5Csimple_draw_d1l2.5Ctarget.5Cd1lx_mango_ghs.5Cobj.5Ctpms.:
                         603 	.type	_tpms_NetClstrDistUnt..D.3A.5CRenesas_Electronics.5CD1x_RGL.5Crgl_ghs_D1Lx_obj_V1.2E2.2E0.5Cvlib.5Capp.5Cgfx_apps.5Csimple_draw_d1l2.5Ctarget.5Cd1lx_mango_ghs.5Cobj.5Ctpms.,@object
                         604 	.size	_tpms_NetClstrDistUnt..D.3A.5CRenesas_Electronics.5CD1x_RGL.5Crgl_ghs_D1Lx_obj_V1.2E2.2E0.5Cvlib.5Capp.5Cgfx_apps.5Csimple_draw_d1l2.5Ctarget.5Cd1lx_mango_ghs.5Cobj.5Ctpms.,1
0000002c 00              605 _tpms_NetClstrDistUnt:	.byte	0
                         606 	.type	_tpms_NetClstrDistUnt,@object
                         607 	.size	_tpms_NetClstrDistUnt,1
                         608 	.global	_tpms_NetClstrFuelCsumpUnt..D.3A.5CRenesas_Electronics.5CD1x_RGL.5Crgl_ghs_D1Lx_obj_V1.2E2.2E0.5Cvlib.5Capp.5Cgfx_apps.5Csimple_draw_d1l2.5Ctarget.5Cd1lx_mango_ghs.5Cobj.5Ctpms.
                         609 _tpms_NetClstrFuelCsumpUnt..D.3A.5CRenesas_Electronics.5CD1x_RGL.5Crgl_ghs_D1Lx_obj_V1.2E2.2E0.5Cvlib.5Capp.5Cgfx_apps.5Csimple_draw_d1l2.5Ctarget.5Cd1lx_mango_ghs.5Cobj.5Ctpms.:
                         610 	.type	_tpms_NetClstrFuelCsumpUnt..D.3A.5CRenesas_Electronics.5CD1x_RGL.5Crgl_ghs_D1Lx_obj_V1.2E2.2E0.5Cvlib.5Capp.5Cgfx_apps.5Csimple_draw_d1l2.5Ctarget.5Cd1lx_mango_ghs.5Cobj.5Ctpms.,@object
                         611 	.size	_tpms_NetClstrFuelCsumpUnt..D.3A.5CRenesas_Electronics.5CD1x_RGL.5Crgl_ghs_D1Lx_obj_V1.2E2.2E0.5Cvlib.5Capp.5Cgfx_apps.5Csimple_draw_d1l2.5Ctarget.5Cd1lx_mango_ghs.5Cobj.5Ctpms.,1
0000002d 00              612 _tpms_NetClstrFuelCsumpUnt:	.byte	0
                         613 	.type	_tpms_NetClstrFuelCsumpUnt,@object
                         614 	.size	_tpms_NetClstrFuelCsumpUnt,1
                         615 	.global	_tpms_NetClstrTemUnt..D.3A.5CRenesas_Electronics.5CD1x_RGL.5Crgl_ghs_D1Lx_obj_V1.2E2.2E0.5Cvlib.5Capp.5Cgfx_apps.5Csimple_draw_d1l2.5Ctarget.5Cd1lx_mango_ghs.5Cobj.5Ctpms.
                         616 _tpms_NetClstrTemUnt..D.3A.5CRenesas_Electronics.5CD1x_RGL.5Crgl_ghs_D1Lx_obj_V1.2E2.2E0.5Cvlib.5Capp.5Cgfx_apps.5Csimple_draw_d1l2.5Ctarget.5Cd1lx_mango_ghs.5Cobj.5Ctpms.:
                         617 	.type	_tpms_NetClstrTemUnt..D.3A.5CRenesas_Electronics.5CD1x_RGL.5Crgl_ghs_D1Lx_obj_V1.2E2.2E0.5Cvlib.5Capp.5Cgfx_apps.5Csimple_draw_d1l2.5Ctarget.5Cd1lx_mango_ghs.5Cobj.5Ctpms.,@object
                         618 	.size	_tpms_NetClstrTemUnt..D.3A.5CRenesas_Electronics.5CD1x_RGL.5Crgl_ghs_D1Lx_obj_V1.2E2.2E0.5Cvlib.5Capp.5Cgfx_apps.5Csimple_draw_d1l2.5Ctarget.5Cd1lx_mango_ghs.5Cobj.5Ctpms.,1
0000002e 00              619 _tpms_NetClstrTemUnt:	.byte	0
                         620 	.type	_tpms_NetClstrTemUnt,@object
                         621 	.size	_tpms_NetClstrTemUnt,1
                         622 	.global	_tpms_NetClstrTyrePressureUnt..D.3A.5CRenesas_Electronics.5CD1x_RGL.5Crgl_ghs_D1Lx_obj_V1.2E2.2E0.5Cvlib.5Capp.5Cgfx_apps.5Csimple_draw_d1l2.5Ctarget.5Cd1lx_mango_ghs.5Cobj.5Ctpms.
                         623 _tpms_NetClstrTyrePressureUnt..D.3A.5CRenesas_Electronics.5CD1x_RGL.5Crgl_ghs_D1Lx_obj_V1.2E2.2E0.5Cvlib.5Capp.5Cgfx_apps.5Csimple_draw_d1l2.5Ctarget.5Cd1lx_mango_ghs.5Cobj.5Ctpms.:
                         624 	.type	_tpms_NetClstrTyrePressureUnt..D.3A.5CRenesas_Electronics.5CD1x_RGL.5Crgl_ghs_D1Lx_obj_V1.2E2.2E0.5Cvlib.5Capp.5Cgfx_apps.5Csimple_draw_d1l2.5Ctarget.5Cd1lx_mango_ghs.5Cobj.5Ctpms.,@object
                         625 	.size	_tpms_NetClstrTyrePressureUnt..D.3A.5CRenesas_Electronics.5CD1x_RGL.5Crgl_ghs_D1Lx_obj_V1.2E2.2E0.5Cvlib.5Capp.5Cgfx_apps.5Csimple_draw_d1l2.5Ctarget.5Cd1lx_mango_ghs.5Cobj.5Ctpms.,1
0000002f 00              626 _tpms_NetClstrTyrePressureUnt:	.byte	0
                         627 	.type	_tpms_NetClstrTyrePressureUnt,@object
                         628 	.size	_tpms_NetClstrTyrePressureUnt,1
                         629 	.global	_insTyrePresUnitsPrm..D.3A.5CRenesas_Electronics.5CD1x_RGL.5Crgl_ghs_D1Lx_obj_V1.2E2.2E0.5Cvlib.5Capp.5Cgfx_apps.5Csimple_draw_d1l2.5Ctarget.5Cd1lx_mango_ghs.5Cobj.5Ctpms.
                         630 _insTyrePresUnitsPrm..D.3A.5CRenesas_Electronics.5CD1x_RGL.5Crgl_ghs_D1Lx_obj_V1.2E2.2E0.5Cvlib.5Capp.5Cgfx_apps.5Csimple_draw_d1l2.5Ctarget.5Cd1lx_mango_ghs.5Cobj.5Ctpms.:
                         631 	.type	_insTyrePresUnitsPrm..D.3A.5CRenesas_Electronics.5CD1x_RGL.5Crgl_ghs_D1Lx_obj_V1.2E2.2E0.5Cvlib.5Capp.5Cgfx_apps.5Csimple_draw_d1l2.5Ctarget.5Cd1lx_mango_ghs.5Cobj.5Ctpms.,@object
                         632 	.size	_insTyrePresUnitsPrm..D.3A.5CRenesas_Electronics.5CD1x_RGL.5Crgl_ghs_D1Lx_obj_V1.2E2.2E0.5Cvlib.5Capp.5Cgfx_apps.5Csimple_draw_d1l2.5Ctarget.5Cd1lx_mango_ghs.5Cobj.5Ctpms.,1
00000030 00              633 _insTyrePresUnitsPrm:	.byte	0
                         634 	.type	_insTyrePresUnitsPrm,@object
                         635 	.size	_insTyrePresUnitsPrm,1
                         636 	.global	_insDistanceUnitsPrm..D.3A.5CRenesas_Electronics.5CD1x_RGL.5Crgl_ghs_D1Lx_obj_V1.2E2.2E0.5Cvlib.5Capp.5Cgfx_apps.5Csimple_draw_d1l2.5Ctarget.5Cd1lx_mango_ghs.5Cobj.5Ctpms.
                         637 _insDistanceUnitsPrm..D.3A.5CRenesas_Electronics.5CD1x_RGL.5Crgl_ghs_D1Lx_obj_V1.2E2.2E0.5Cvlib.5Capp.5Cgfx_apps.5Csimple_draw_d1l2.5Ctarget.5Cd1lx_mango_ghs.5Cobj.5Ctpms.:
                         638 	.type	_insDistanceUnitsPrm..D.3A.5CRenesas_Electronics.5CD1x_RGL.5Crgl_ghs_D1Lx_obj_V1.2E2.2E0.5Cvlib.5Capp.5Cgfx_apps.5Csimple_draw_d1l2.5Ctarget.5Cd1lx_mango_ghs.5Cobj.5Ctpms.,@object
                         639 	.size	_insDistanceUnitsPrm..D.3A.5CRenesas_Electronics.5CD1x_RGL.5Crgl_ghs_D1Lx_obj_V1.2E2.2E0.5Cvlib.5Capp.5Cgfx_apps.5Csimple_draw_d1l2.5Ctarget.5Cd1lx_mango_ghs.5Cobj.5Ctpms.,1
00000031 00              640 _insDistanceUnitsPrm:	.byte	0
                         641 	.type	_insDistanceUnitsPrm,@object
                         642 	.size	_insDistanceUnitsPrm,1
                         643 	.global	_insFuelConUnitsPrm..D.3A.5CRenesas_Electronics.5CD1x_RGL.5Crgl_ghs_D1Lx_obj_V1.2E2.2E0.5Cvlib.5Capp.5Cgfx_apps.5Csimple_draw_d1l2.5Ctarget.5Cd1lx_mango_ghs.5Cobj.5Ctpms.
                         644 _insFuelConUnitsPrm..D.3A.5CRenesas_Electronics.5CD1x_RGL.5Crgl_ghs_D1Lx_obj_V1.2E2.2E0.5Cvlib.5Capp.5Cgfx_apps.5Csimple_draw_d1l2.5Ctarget.5Cd1lx_mango_ghs.5Cobj.5Ctpms.:
                         645 	.type	_insFuelConUnitsPrm..D.3A.5CRenesas_Electronics.5CD1x_RGL.5Crgl_ghs_D1Lx_obj_V1.2E2.2E0.5Cvlib.5Capp.5Cgfx_apps.5Csimple_draw_d1l2.5Ctarget.5Cd1lx_mango_ghs.5Cobj.5Ctpms.,@object

                                                                      Page 12
                                                              C:\Users\YINGAO~1\AppData\Local\Temp\gh_00008t41.si
                         646 	.size	_insFuelConUnitsPrm..D.3A.5CRenesas_Electronics.5CD1x_RGL.5Crgl_ghs_D1Lx_obj_V1.2E2.2E0.5Cvlib.5Capp.5Cgfx_apps.5Csimple_draw_d1l2.5Ctarget.5Cd1lx_mango_ghs.5Cobj.5Ctpms.,1
00000032 00              647 _insFuelConUnitsPrm:	.byte	0
                         648 	.type	_insFuelConUnitsPrm,@object
                         649 	.size	_insFuelConUnitsPrm,1
                         650 	.global	_insTempUnitsPrm..D.3A.5CRenesas_Electronics.5CD1x_RGL.5Crgl_ghs_D1Lx_obj_V1.2E2.2E0.5Cvlib.5Capp.5Cgfx_apps.5Csimple_draw_d1l2.5Ctarget.5Cd1lx_mango_ghs.5Cobj.5Ctpms.
                         651 _insTempUnitsPrm..D.3A.5CRenesas_Electronics.5CD1x_RGL.5Crgl_ghs_D1Lx_obj_V1.2E2.2E0.5Cvlib.5Capp.5Cgfx_apps.5Csimple_draw_d1l2.5Ctarget.5Cd1lx_mango_ghs.5Cobj.5Ctpms.:
                         652 	.type	_insTempUnitsPrm..D.3A.5CRenesas_Electronics.5CD1x_RGL.5Crgl_ghs_D1Lx_obj_V1.2E2.2E0.5Cvlib.5Capp.5Cgfx_apps.5Csimple_draw_d1l2.5Ctarget.5Cd1lx_mango_ghs.5Cobj.5Ctpms.,@object
                         653 	.size	_insTempUnitsPrm..D.3A.5CRenesas_Electronics.5CD1x_RGL.5Crgl_ghs_D1Lx_obj_V1.2E2.2E0.5Cvlib.5Capp.5Cgfx_apps.5Csimple_draw_d1l2.5Ctarget.5Cd1lx_mango_ghs.5Cobj.5Ctpms.,1
00000033 00              654 _insTempUnitsPrm:	.byte	0
                         655 	.type	_insTempUnitsPrm,@object
                         656 	.size	_insTempUnitsPrm,1
                         657 	.global	_tpms_InitSts..D.3A.5CRenesas_Electronics.5CD1x_RGL.5Crgl_ghs_D1Lx_obj_V1.2E2.2E0.5Cvlib.5Capp.5Cgfx_apps.5Csimple_draw_d1l2.5Ctarget.5Cd1lx_mango_ghs.5Cobj.5Ctpms.
                         658 _tpms_InitSts..D.3A.5CRenesas_Electronics.5CD1x_RGL.5Crgl_ghs_D1Lx_obj_V1.2E2.2E0.5Cvlib.5Capp.5Cgfx_apps.5Csimple_draw_d1l2.5Ctarget.5Cd1lx_mango_ghs.5Cobj.5Ctpms.:
                         659 	.type	_tpms_InitSts..D.3A.5CRenesas_Electronics.5CD1x_RGL.5Crgl_ghs_D1Lx_obj_V1.2E2.2E0.5Cvlib.5Capp.5Cgfx_apps.5Csimple_draw_d1l2.5Ctarget.5Cd1lx_mango_ghs.5Cobj.5Ctpms.,@object
                         660 	.size	_tpms_InitSts..D.3A.5CRenesas_Electronics.5CD1x_RGL.5Crgl_ghs_D1Lx_obj_V1.2E2.2E0.5Cvlib.5Capp.5Cgfx_apps.5Csimple_draw_d1l2.5Ctarget.5Cd1lx_mango_ghs.5Cobj.5Ctpms.,1
00000034 00              661 _tpms_InitSts:	.byte	0
                         662 	.type	_tpms_InitSts,@object
                         663 	.size	_tpms_InitSts,1
                         664 	.section ".bss","awb"
                         665 	.global	_tpmsWrnngStatus..D.3A.5CRenesas_Electronics.5CD1x_RGL.5Crgl_ghs_D1Lx_obj_V1.2E2.2E0.5Cvlib.5Capp.5Cgfx_apps.5Csimple_draw_d1l2.5Ctarget.5Cd1lx_mango_ghs.5Cobj.5Ctpms.
                         666 _tpmsWrnngStatus..D.3A.5CRenesas_Electronics.5CD1x_RGL.5Crgl_ghs_D1Lx_obj_V1.2E2.2E0.5Cvlib.5Capp.5Cgfx_apps.5Csimple_draw_d1l2.5Ctarget.5Cd1lx_mango_ghs.5Cobj.5Ctpms.:
                         667 	.type	_tpmsWrnngStatus..D.3A.5CRenesas_Electronics.5CD1x_RGL.5Crgl_ghs_D1Lx_obj_V1.2E2.2E0.5Cvlib.5Capp.5Cgfx_apps.5Csimple_draw_d1l2.5Ctarget.5Cd1lx_mango_ghs.5Cobj.5Ctpms.,@object
                         668 	.size	_tpmsWrnngStatus..D.3A.5CRenesas_Electronics.5CD1x_RGL.5Crgl_ghs_D1Lx_obj_V1.2E2.2E0.5Cvlib.5Capp.5Cgfx_apps.5Csimple_draw_d1l2.5Ctarget.5Cd1lx_mango_ghs.5Cobj.5Ctpms.,1
00000000 00              669 _tpmsWrnngStatus:	.space	1
                         670 	.type	_tpmsWrnngStatus,@object
                         671 	.size	_tpmsWrnngStatus,1
                         672 	.data
                         673 	.global	_tpms_Process100MsPRO..D.3A.5CRenesas_Electronics.5CD1x_RGL.5Crgl_ghs_D1Lx_obj_V1.2E2.2E0.5Cvlib.5Capp.5Cgfx_apps.5Csimple_draw_d1l2.5Ctarget.5Cd1lx_mango_ghs.5Cobj.5Ctpms.
                         674 _tpms_Process100MsPRO..D.3A.5CRenesas_Electronics.5CD1x_RGL.5Crgl_ghs_D1Lx_obj_V1.2E2.2E0.5Cvlib.5Capp.5Cgfx_apps.5Csimple_draw_d1l2.5Ctarget.5Cd1lx_mango_ghs.5Cobj.5Ctpms.:
                         675 	.type	_tpms_Process100MsPRO..D.3A.5CRenesas_Electronics.5CD1x_RGL.5Crgl_ghs_D1Lx_obj_V1.2E2.2E0.5Cvlib.5Capp.5Cgfx_apps.5Csimple_draw_d1l2.5Ctarget.5Cd1lx_mango_ghs.5Cobj.5Ctpms.,@object
                         676 	.size	_tpms_Process100MsPRO..D.3A.5CRenesas_Electronics.5CD1x_RGL.5Crgl_ghs_D1Lx_obj_V1.2E2.2E0.5Cvlib.5Capp.5Cgfx_apps.5Csimple_draw_d1l2.5Ctarget.5Cd1lx_mango_ghs.5Cobj.5Ctpms.,1
00000035 00              677 _tpms_Process100MsPRO:	.byte	0
                         678 	.type	_tpms_Process100MsPRO,@object
                         679 	.size	_tpms_Process100MsPRO,1
                         680 	.text
                         681 
                         682 
                         683 --150: /**************************************************
                         684 --151: *Function :TPMS_Process_50ms
                         685 --152: *Description: TPMS Module Process
                         686 --153: *Parameters:none
                         687 --154: *Returns: none
                         688 --155: **create&Verlog:
                         689 --156: *Author Name xs  Date:2017-6-23    Ver:01
                         690 --157: ***************************************************/
                         691 --158: void TPMS_Process_50ms(void)
                         692 	.align	2
                         693 	.align	2
                         694 	.global	_TPMS_Process_50ms
                         695 _TPMS_Process_50ms:
000000ec 8007e100        696 	prepare	{r28,r29,r31},0
000000f0 3d0600000000*   697 	mov	_tpms_InitSts,r29
000000f6 3de60100        698 	movea	1,r29,r28
                         699 --	    .bf
                         700 .LDW31:
                         701 --159: {
                         702 --160: 	if(TRUE == tpms_InitSts)
000000fa 210600000000*   703 	mov	_tpms_InitSts,r1
00000100 810f0100        704 	ld.bu	0[r1],r1
00000104 610a            705 	cmp	1,r1
00000106 8a1d*           706 	bne	.L243

                                                                      Page 13
                                                              C:\Users\YINGAO~1\AppData\Local\Temp\gh_00008t41.si
                         707 --161: 	{
                         708 --162: 		tpms_SetDistUnitProcess();
                         709 --line162
                         710 ..lin.D.3A.5CRenesas_Electronics.5CD1x_RGL.5Crgl_ghs_D1Lx_obj_V1.2E2.2E0.5Cvlib.5Capp.5Cgfx_apps.5Csimple_draw_d1l2.5Ctarget.5Cd1lx_mango_ghs.5Cobj.5Ctpms.6::
                         711 .LDWlin6:
                         712 	jarl	_tpms_SetDistUnitProcess,lp
                         712 <EXPANSION BEGIN>
                         712 jarl22 _tpms_SetDistUnitProcess , lp 
00000108 80ff1404*       712 <EXPANSION END>
                         713 --163: 		tpms_SetFuelConUnitsProcess();
                         714 --line163
                         715 ..lin.D.3A.5CRenesas_Electronics.5CD1x_RGL.5Crgl_ghs_D1Lx_obj_V1.2E2.2E0.5Cvlib.5Capp.5Cgfx_apps.5Csimple_draw_d1l2.5Ctarget.5Cd1lx_mango_ghs.5Cobj.5Ctpms.7::
                         716 .LDWlin7:
                         717 	jarl	_tpms_SetFuelConUnitsProcess,lp
                         717 <EXPANSION BEGIN>
                         717 jarl22 _tpms_SetFuelConUnitsProcess , lp 
0000010c 80ff5204*       717 <EXPANSION END>
                         718 --164: 		tpms_SetTemUntProcess();
                         719 --line164
                         720 ..lin.D.3A.5CRenesas_Electronics.5CD1x_RGL.5Crgl_ghs_D1Lx_obj_V1.2E2.2E0.5Cvlib.5Capp.5Cgfx_apps.5Csimple_draw_d1l2.5Ctarget.5Cd1lx_mango_ghs.5Cobj.5Ctpms.8::
                         721 .LDWlin8:
                         722 	jarl	_tpms_SetTemUntProcess,lp
                         722 <EXPANSION BEGIN>
                         722 jarl22 _tpms_SetTemUntProcess , lp 
00000110 80ff9204*       722 <EXPANSION END>
                         723 --165: 		tpms_SetTyrePressureUntProcess();
                         724 --line165
                         725 ..lin.D.3A.5CRenesas_Electronics.5CD1x_RGL.5Crgl_ghs_D1Lx_obj_V1.2E2.2E0.5Cvlib.5Capp.5Cgfx_apps.5Csimple_draw_d1l2.5Ctarget.5Cd1lx_mango_ghs.5Cobj.5Ctpms.9::
                         726 .LDWlin9:
                         727 	jarl	_tpms_SetTyrePressureUntProcess,lp
                         727 <EXPANSION BEGIN>
                         727 jarl22 _tpms_SetTyrePressureUntProcess , lp 
00000114 80ffd204*       727 <EXPANSION END>
                         728 --166: 		
                         729 --167: 		tpms_Process100MsPRO++;
                         730 --line167
                         731 ..lin.D.3A.5CRenesas_Electronics.5CD1x_RGL.5Crgl_ghs_D1Lx_obj_V1.2E2.2E0.5Cvlib.5Capp.5Cgfx_apps.5Csimple_draw_d1l2.5Ctarget.5Cd1lx_mango_ghs.5Cobj.5Ctpms.10::
                         732 .LDWlin10:
00000118 bd0f0100        733 	ld.bu	1[r29],r1
0000011c 410a            734 	add	1,r1
0000011e 5d0f0100        735 	st.b	r1,1[r29]
                         736 --168: 		if(TPMS_PROCESS_100MS_CNT >= tpms_Process100MsPRO)
00000122 bd0f0100        737 	ld.bu	1[r29],r1
00000126 620a            738 	cmp	2,r1
00000128 fb05*           739 	bh	.L243
                         740 --169: 		{
                         741 --170: 			tpms_TireValueProcess_100ms();
                         742 --line170
                         743 ..lin.D.3A.5CRenesas_Electronics.5CD1x_RGL.5Crgl_ghs_D1Lx_obj_V1.2E2.2E0.5Cvlib.5Capp.5Cgfx_apps.5Csimple_draw_d1l2.5Ctarget.5Cd1lx_mango_ghs.5Cobj.5Ctpms.11::
                         744 .LDWlin11:
                         745 	jarl	_tpms_TireValueProcess_100ms,lp
                         745 <EXPANSION BEGIN>
                         745 jarl22 _tpms_TireValueProcess_100ms , lp 
0000012a 80ff1200*       745 <EXPANSION END>
                         746 --171: 			tpms_TireStsProcess_100ms();
                         747 --line171
                         748 ..lin.D.3A.5CRenesas_Electronics.5CD1x_RGL.5Crgl_ghs_D1Lx_obj_V1.2E2.2E0.5Cvlib.5Capp.5Cgfx_apps.5Csimple_draw_d1l2.5Ctarget.5Cd1lx_mango_ghs.5Cobj.5Ctpms.12::
                         749 .LDWlin12:
                         750 	jarl	_tpms_TireStsProcess_100ms,lp
                         750 <EXPANSION BEGIN>
                         750 jarl22 _tpms_TireStsProcess_100ms , lp 

                                                                      Page 14
                                                              C:\Users\YINGAO~1\AppData\Local\Temp\gh_00008t41.si
0000012e 80ffca01*       750 <EXPANSION END>
                         751 --172: 			tpms_Process100MsPRO = 0;
                         752 --line172
                         753 ..lin.D.3A.5CRenesas_Electronics.5CD1x_RGL.5Crgl_ghs_D1Lx_obj_V1.2E2.2E0.5Cvlib.5Capp.5Cgfx_apps.5Csimple_draw_d1l2.5Ctarget.5Cd1lx_mango_ghs.5Cobj.5Ctpms.13::
                         754 .LDWlin13:
00000132 5d070100        755 	st.b	zero,1[r29]
                         756 .L243:
                         757 --173: 		}
                         758 --174: 		else
                         759 --175: 		{
                         760 --176: 			/*do nothing*/
                         761 --177: 		}
                         762 --178: 	
                         763 --179: 	}
                         764 --180: 	else
                         765 --181: 	{
                         766 --182: 		/*do nothing*/
                         767 --183: 	}
                         768 --186: }
00000136 0000            769 	nop
                         770 --	    .ef
                         771 .LDW41:
00000138 4006ff00        772 	dispose	0,{r28,r29,r31},[lp]
                         773 	.type	_TPMS_Process_50ms,@function
                         774 	.size	_TPMS_Process_50ms,.-_TPMS_Process_50ms
                         775 	.align	2
                         776 .LDW51:
                         777 
                         778 	.data
                         779 	.text
                         780 
                         781 
                         782 --188: /**************************************************
                         783 --189: *Function :tpms_TireValueProcess_100ms
                         784 --190: *Description: TPMS Get Tire  Value Process
                         785 --191: *Parameters:none
                         786 --192: *Returns: none
                         787 --193: **create&Verlog:
                         788 --194: *Author Name xs  Date:2017-6-23    Ver:01
                         789 --195: tpmswndrntrmda
                         790 --196: ***************************************************/
                         791 --197: static void tpms_TireValueProcess_100ms(void)
                         792 	.align	2
                         793 	.align	2
                         794 	.global	_tpms_TireValueProcess_100ms..D.3A.5CRenesas_Electronics.5CD1x_RGL.5Crgl_ghs_D1Lx_obj_V1.2E2.2E0.5Cvlib.5Capp.5Cgfx_apps.5Csimple_draw_d1l2.5Ctarget.5Cd1lx_mango_ghs.5Cobj.5Ctpms.
                         795 _tpms_TireValueProcess_100ms..D.3A.5CRenesas_Electronics.5CD1x_RGL.5Crgl_ghs_D1Lx_obj_V1.2E2.2E0.5Cvlib.5Capp.5Cgfx_apps.5Csimple_draw_d1l2.5Ctarget.5Cd1lx_mango_ghs.5Cobj.5Ctpms.:
                         796 _tpms_TireValueProcess_100ms:
0000013c 8607e170        797 	prepare	{r25,r26,r27,r28,r29,r31},3
00000140 3d0600000000*   798 	mov	_tpms_NetFLTirePrs,r29
00000146 3de60c00        799 	movea	12,r29,r28
0000014a 3dde1a00        800 	movea	26,r29,r27
0000014e 3dd61900        801 	movea	25,r29,r26
00000152 3dce0800        802 	movea	8,r29,r25
                         803 --	    .bf
                         804 .LDW61:
                         805 --198: {
                         806 --200:     BOOL bValue;
                         807 --201: 	COM_GetSignalValue_16(INDEX_COM_RS_FLTIREPRS,&tpms_NetFLTirePrs);
00000156 20363400        808 	movea	52,zero,r6
0000015a 270600000000*   809 	mov	_tpms_NetFLTirePrs,r7
                         810 	jarl	_COM_GetSignalValue_16,lp

                                                                      Page 15
                                                              C:\Users\YINGAO~1\AppData\Local\Temp\gh_00008t41.si
                         810 <EXPANSION BEGIN>
                         810 jarl22 _COM_GetSignalValue_16 , lp 
00000160 80ff0000*       810 <EXPANSION END>
                         811 --202: 	COM_GetSignalValue_8(INDEX_COM_RS_FLTIREPRSV,&tpms_NetFLTirePrsV);	
                         812 --line202
                         813 ..lin.D.3A.5CRenesas_Electronics.5CD1x_RGL.5Crgl_ghs_D1Lx_obj_V1.2E2.2E0.5Cvlib.5Capp.5Cgfx_apps.5Csimple_draw_d1l2.5Ctarget.5Cd1lx_mango_ghs.5Cobj.5Ctpms.14::
                         814 .LDWlin14:
00000164 20363500        815 	movea	53,zero,r6
00000168 3d3e1000        816 	movea	16,r29,r7
                         817 	jarl	_COM_GetSignalValue_8,lp
                         817 <EXPANSION BEGIN>
                         817 jarl22 _COM_GetSignalValue_8 , lp 
0000016c 80ff0000*       817 <EXPANSION END>
                         818 --203: 	COM_GetSignalValue_16(INDEX_COM_RS_FRTIREPRS,&tpms_NetFRTirePrs);
                         819 --line203
                         820 ..lin.D.3A.5CRenesas_Electronics.5CD1x_RGL.5Crgl_ghs_D1Lx_obj_V1.2E2.2E0.5Cvlib.5Capp.5Cgfx_apps.5Csimple_draw_d1l2.5Ctarget.5Cd1lx_mango_ghs.5Cobj.5Ctpms.15::
                         821 .LDWlin15:
00000170 20363700        822 	movea	55,zero,r6
00000174 3d3e0400        823 	movea	4,r29,r7
                         824 	jarl	_COM_GetSignalValue_16,lp
                         824 <EXPANSION BEGIN>
                         824 jarl22 _COM_GetSignalValue_16 , lp 
00000178 80ff0000*       824 <EXPANSION END>
                         825 --204: 	COM_GetSignalValue_8(INDEX_COM_RS_FRTIREPRSV,&tpms_NetFRTirePrsV);
                         826 --line204
                         827 ..lin.D.3A.5CRenesas_Electronics.5CD1x_RGL.5Crgl_ghs_D1Lx_obj_V1.2E2.2E0.5Cvlib.5Capp.5Cgfx_apps.5Csimple_draw_d1l2.5Ctarget.5Cd1lx_mango_ghs.5Cobj.5Ctpms.16::
                         828 .LDWlin16:
0000017c 20363800        829 	movea	56,zero,r6
00000180 3d3e1300        830 	movea	19,r29,r7
                         831 	jarl	_COM_GetSignalValue_8,lp
                         831 <EXPANSION BEGIN>
                         831 jarl22 _COM_GetSignalValue_8 , lp 
00000184 80ff0000*       831 <EXPANSION END>
                         832 --205: 	COM_GetSignalValue_16(INDEX_COM_RS_RLTIREPRS,&tpms_NetRLTirePrs);
                         833 --line205
                         834 ..lin.D.3A.5CRenesas_Electronics.5CD1x_RGL.5Crgl_ghs_D1Lx_obj_V1.2E2.2E0.5Cvlib.5Capp.5Cgfx_apps.5Csimple_draw_d1l2.5Ctarget.5Cd1lx_mango_ghs.5Cobj.5Ctpms.17::
                         835 .LDWlin17:
00000188 1938            836 	mov	r25,r7
0000018a 20363a00        837 	movea	58,zero,r6
                         838 	jarl	_COM_GetSignalValue_16,lp
                         838 <EXPANSION BEGIN>
                         838 jarl22 _COM_GetSignalValue_16 , lp 
0000018e 80ff0000*       838 <EXPANSION END>
                         839 --206: 	COM_GetSignalValue_8(INDEX_COM_RS_RLTIREPRSV,&tpms_NetRLTirePrsV);
                         840 --line206
                         841 ..lin.D.3A.5CRenesas_Electronics.5CD1x_RGL.5Crgl_ghs_D1Lx_obj_V1.2E2.2E0.5Cvlib.5Capp.5Cgfx_apps.5Csimple_draw_d1l2.5Ctarget.5Cd1lx_mango_ghs.5Cobj.5Ctpms.18::
                         842 .LDWlin18:
00000192 20363b00        843 	movea	59,zero,r6
00000196 3d3e1600        844 	movea	22,r29,r7
                         845 	jarl	_COM_GetSignalValue_8,lp
                         845 <EXPANSION BEGIN>
                         845 jarl22 _COM_GetSignalValue_8 , lp 
0000019a 80ff0000*       845 <EXPANSION END>
                         846 --207: 	COM_GetSignalValue_16(INDEX_COM_RS_RRTIREPRS,&tpms_NetRRTirePrs);
                         847 --line207
                         848 ..lin.D.3A.5CRenesas_Electronics.5CD1x_RGL.5Crgl_ghs_D1Lx_obj_V1.2E2.2E0.5Cvlib.5Capp.5Cgfx_apps.5Csimple_draw_d1l2.5Ctarget.5Cd1lx_mango_ghs.5Cobj.5Ctpms.19::
                         849 .LDWlin19:
0000019e 1c38            850 	mov	r28,r7
000001a0 20363d00        851 	movea	61,zero,r6
                         852 	jarl	_COM_GetSignalValue_16,lp
                         852 <EXPANSION BEGIN>

                                                                      Page 16
                                                              C:\Users\YINGAO~1\AppData\Local\Temp\gh_00008t41.si
                         852 jarl22 _COM_GetSignalValue_16 , lp 
000001a4 80ff0000*       852 <EXPANSION END>
                         853 --208: 	COM_GetSignalValue_8(INDEX_COM_RS_RRTIREPRSV,&tpms_NetRRTirePrsV);
                         854 --line208
                         855 ..lin.D.3A.5CRenesas_Electronics.5CD1x_RGL.5Crgl_ghs_D1Lx_obj_V1.2E2.2E0.5Cvlib.5Capp.5Cgfx_apps.5Csimple_draw_d1l2.5Ctarget.5Cd1lx_mango_ghs.5Cobj.5Ctpms.20::
                         856 .LDWlin20:
000001a8 1a38            857 	mov	r26,r7
000001aa 20363e00        858 	movea	62,zero,r6
                         859 	jarl	_COM_GetSignalValue_8,lp
                         859 <EXPANSION BEGIN>
                         859 jarl22 _COM_GetSignalValue_8 , lp 
000001ae 80ff0000*       859 <EXPANSION END>
                         860 --209: 	
                         861 --210: 	COM_GetSignalValue_8(INDEX_COM_RS_FLTIRETEMV, &tpms_NetFLTireTemV);
                         862 --line210
                         863 ..lin.D.3A.5CRenesas_Electronics.5CD1x_RGL.5Crgl_ghs_D1Lx_obj_V1.2E2.2E0.5Cvlib.5Capp.5Cgfx_apps.5Csimple_draw_d1l2.5Ctarget.5Cd1lx_mango_ghs.5Cobj.5Ctpms.21::
                         864 .LDWlin21:
000001b2 20369600        865 	movea	150,zero,r6
000001b6 3d3e1200        866 	movea	18,r29,r7
                         867 	jarl	_COM_GetSignalValue_8,lp
                         867 <EXPANSION BEGIN>
                         867 jarl22 _COM_GetSignalValue_8 , lp 
000001ba 80ff0000*       867 <EXPANSION END>
                         868 --211: 	COM_GetSignalValue_16(INDEX_COM_RS_FLTIRETEM, &tpms_NetFLTireTem);
                         869 --line211
                         870 ..lin.D.3A.5CRenesas_Electronics.5CD1x_RGL.5Crgl_ghs_D1Lx_obj_V1.2E2.2E0.5Cvlib.5Capp.5Cgfx_apps.5Csimple_draw_d1l2.5Ctarget.5Cd1lx_mango_ghs.5Cobj.5Ctpms.22::
                         871 .LDWlin22:
000001be 3d3e0200        872 	movea	2,r29,r7
000001c2 20369500        873 	movea	149,zero,r6
                         874 	jarl	_COM_GetSignalValue_16,lp
                         874 <EXPANSION BEGIN>
                         874 jarl22 _COM_GetSignalValue_16 , lp 
000001c6 80ff0000*       874 <EXPANSION END>
                         875 --212: 	COM_GetSignalValue_8(INDEX_COM_RS_FRTIRETEMV, &tpms_NetFRTireTemV);
                         876 --line212
                         877 ..lin.D.3A.5CRenesas_Electronics.5CD1x_RGL.5Crgl_ghs_D1Lx_obj_V1.2E2.2E0.5Cvlib.5Capp.5Cgfx_apps.5Csimple_draw_d1l2.5Ctarget.5Cd1lx_mango_ghs.5Cobj.5Ctpms.23::
                         878 .LDWlin23:
000001ca 20369800        879 	movea	152,zero,r6
000001ce 3d3e1500        880 	movea	21,r29,r7
                         881 	jarl	_COM_GetSignalValue_8,lp
                         881 <EXPANSION BEGIN>
                         881 jarl22 _COM_GetSignalValue_8 , lp 
000001d2 80ff0000*       881 <EXPANSION END>
                         882 --213: 	COM_GetSignalValue_16(INDEX_COM_RS_FRTIRETEM, &tpms_NetFRTireTem);
                         883 --line213
                         884 ..lin.D.3A.5CRenesas_Electronics.5CD1x_RGL.5Crgl_ghs_D1Lx_obj_V1.2E2.2E0.5Cvlib.5Capp.5Cgfx_apps.5Csimple_draw_d1l2.5Ctarget.5Cd1lx_mango_ghs.5Cobj.5Ctpms.24::
                         885 .LDWlin24:
000001d6 3d3e0600        886 	movea	6,r29,r7
000001da 20369700        887 	movea	151,zero,r6
                         888 	jarl	_COM_GetSignalValue_16,lp
                         888 <EXPANSION BEGIN>
                         888 jarl22 _COM_GetSignalValue_16 , lp 
000001de 80ff0000*       888 <EXPANSION END>
                         889 --214: 	COM_GetSignalValue_8(INDEX_COM_RS_RLTIRETEMV, &tpms_NetRLTireTemV);
                         890 --line214
                         891 ..lin.D.3A.5CRenesas_Electronics.5CD1x_RGL.5Crgl_ghs_D1Lx_obj_V1.2E2.2E0.5Cvlib.5Capp.5Cgfx_apps.5Csimple_draw_d1l2.5Ctarget.5Cd1lx_mango_ghs.5Cobj.5Ctpms.25::
                         892 .LDWlin25:
000001e2 2036a100        893 	movea	161,zero,r6
000001e6 3d3e1800        894 	movea	24,r29,r7
                         895 	jarl	_COM_GetSignalValue_8,lp
                         895 <EXPANSION BEGIN>

                                                                      Page 17
                                                              C:\Users\YINGAO~1\AppData\Local\Temp\gh_00008t41.si
                         895 jarl22 _COM_GetSignalValue_8 , lp 
000001ea 80ff0000*       895 <EXPANSION END>
                         896 --215: 	COM_GetSignalValue_16(INDEX_COM_RS_RLTIRETEM, &tpms_NetRLTireTem);
                         897 --line215
                         898 ..lin.D.3A.5CRenesas_Electronics.5CD1x_RGL.5Crgl_ghs_D1Lx_obj_V1.2E2.2E0.5Cvlib.5Capp.5Cgfx_apps.5Csimple_draw_d1l2.5Ctarget.5Cd1lx_mango_ghs.5Cobj.5Ctpms.26::
                         899 .LDWlin26:
000001ee 3d3e0a00        900 	movea	10,r29,r7
000001f2 2036a000        901 	movea	160,zero,r6
                         902 	jarl	_COM_GetSignalValue_16,lp
                         902 <EXPANSION BEGIN>
                         902 jarl22 _COM_GetSignalValue_16 , lp 
000001f6 80ff0000*       902 <EXPANSION END>
                         903 --216: 	COM_GetSignalValue_8(INDEX_COM_RS_RRTIRETEMV, &tpms_NetRRTireTemV);
                         904 --line216
                         905 ..lin.D.3A.5CRenesas_Electronics.5CD1x_RGL.5Crgl_ghs_D1Lx_obj_V1.2E2.2E0.5Cvlib.5Capp.5Cgfx_apps.5Csimple_draw_d1l2.5Ctarget.5Cd1lx_mango_ghs.5Cobj.5Ctpms.27::
                         906 .LDWlin27:
000001fa 2036a400        907 	movea	164,zero,r6
000001fe 3d3e1b00        908 	movea	27,r29,r7
                         909 	jarl	_COM_GetSignalValue_8,lp
                         909 <EXPANSION BEGIN>
                         909 jarl22 _COM_GetSignalValue_8 , lp 
00000202 80ff0000*       909 <EXPANSION END>
                         910 --217: 	COM_GetSignalValue_16(INDEX_COM_RS_RRTIRETEM, &tpms_NetRRTireTem);
                         911 --line217
                         912 ..lin.D.3A.5CRenesas_Electronics.5CD1x_RGL.5Crgl_ghs_D1Lx_obj_V1.2E2.2E0.5Cvlib.5Capp.5Cgfx_apps.5Csimple_draw_d1l2.5Ctarget.5Cd1lx_mango_ghs.5Cobj.5Ctpms.28::
                         913 .LDWlin28:
00000206 3d3e0e00        914 	movea	14,r29,r7
0000020a 2036a300        915 	movea	163,zero,r6
                         916 	jarl	_COM_GetSignalValue_16,lp
                         916 <EXPANSION BEGIN>
                         916 jarl22 _COM_GetSignalValue_16 , lp 
0000020e 80ff0000*       916 <EXPANSION END>
                         917 --219:     COM_GetSignalValue_8(INDEX_COM_RS_FLTIRESTS,&tpms_NetFLTireSts);
                         918 --line219
                         919 ..lin.D.3A.5CRenesas_Electronics.5CD1x_RGL.5Crgl_ghs_D1Lx_obj_V1.2E2.2E0.5Cvlib.5Capp.5Cgfx_apps.5Csimple_draw_d1l2.5Ctarget.5Cd1lx_mango_ghs.5Cobj.5Ctpms.29::
                         920 .LDWlin29:
00000212 20363600        921 	movea	54,zero,r6
00000216 3d3e1100        922 	movea	17,r29,r7
                         923 	jarl	_COM_GetSignalValue_8,lp
                         923 <EXPANSION BEGIN>
                         923 jarl22 _COM_GetSignalValue_8 , lp 
0000021a 80ff0000*       923 <EXPANSION END>
                         924 --220: 	COM_GetSignalValue_8(INDEX_COM_RS_FRTIRESTS,&tpms_NetFRTireSts);
                         925 --line220
                         926 ..lin.D.3A.5CRenesas_Electronics.5CD1x_RGL.5Crgl_ghs_D1Lx_obj_V1.2E2.2E0.5Cvlib.5Capp.5Cgfx_apps.5Csimple_draw_d1l2.5Ctarget.5Cd1lx_mango_ghs.5Cobj.5Ctpms.30::
                         927 .LDWlin30:
0000021e 20363900        928 	movea	57,zero,r6
00000222 3d3e1400        929 	movea	20,r29,r7
                         930 	jarl	_COM_GetSignalValue_8,lp
                         930 <EXPANSION BEGIN>
                         930 jarl22 _COM_GetSignalValue_8 , lp 
00000226 80ff0000*       930 <EXPANSION END>
                         931 --221: 	COM_GetSignalValue_8(INDEX_COM_RS_RLTIRESTS,&tpms_NetRLTireSts);
                         932 --line221
                         933 ..lin.D.3A.5CRenesas_Electronics.5CD1x_RGL.5Crgl_ghs_D1Lx_obj_V1.2E2.2E0.5Cvlib.5Capp.5Cgfx_apps.5Csimple_draw_d1l2.5Ctarget.5Cd1lx_mango_ghs.5Cobj.5Ctpms.31::
                         934 .LDWlin31:
0000022a 20363c00        935 	movea	60,zero,r6
0000022e 3d3e1700        936 	movea	23,r29,r7
                         937 	jarl	_COM_GetSignalValue_8,lp
                         937 <EXPANSION BEGIN>
                         937 jarl22 _COM_GetSignalValue_8 , lp 

                                                                      Page 18
                                                              C:\Users\YINGAO~1\AppData\Local\Temp\gh_00008t41.si
00000232 80ff0000*       937 <EXPANSION END>
                         938 --222: 	COM_GetSignalValue_8(INDEX_COM_RS_RRTIRESTS,&tpms_NetRRTireSts);
                         939 --line222
                         940 ..lin.D.3A.5CRenesas_Electronics.5CD1x_RGL.5Crgl_ghs_D1Lx_obj_V1.2E2.2E0.5Cvlib.5Capp.5Cgfx_apps.5Csimple_draw_d1l2.5Ctarget.5Cd1lx_mango_ghs.5Cobj.5Ctpms.32::
                         941 .LDWlin32:
00000236 1b38            942 	mov	r27,r7
00000238 20363f00        943 	movea	63,zero,r6
                         944 	jarl	_COM_GetSignalValue_8,lp
                         944 <EXPANSION BEGIN>
                         944 jarl22 _COM_GetSignalValue_8 , lp 
0000023c 80ff0000*       944 <EXPANSION END>
                         945 --223:     
                         946 --224:     COM_GetSignalValue_BOOL(INDEX_COM_RS_TPMSWNTRMDA, &bValue);
                         947 --line224
                         948 ..lin.D.3A.5CRenesas_Electronics.5CD1x_RGL.5Crgl_ghs_D1Lx_obj_V1.2E2.2E0.5Cvlib.5Capp.5Cgfx_apps.5Csimple_draw_d1l2.5Ctarget.5Cd1lx_mango_ghs.5Cobj.5Ctpms.33::
                         949 .LDWlin33:
00000240 20363100        950 	movea	49,zero,r6
00000244 233e0300        951 	movea	3,sp,r7
                         952 	jarl	_COM_GetSignalValue_BOOL,lp
                         952 <EXPANSION BEGIN>
                         952 jarl22 _COM_GetSignalValue_BOOL , lp 
00000248 80ff0000*       952 <EXPANSION END>
                         953 --226: 	if((VALID == tpms_NetFLTirePrsV)
                         954 --line226
                         955 ..lin.D.3A.5CRenesas_Electronics.5CD1x_RGL.5Crgl_ghs_D1Lx_obj_V1.2E2.2E0.5Cvlib.5Capp.5Cgfx_apps.5Csimple_draw_d1l2.5Ctarget.5Cd1lx_mango_ghs.5Cobj.5Ctpms.34::
                         956 .LDWlin34:
0000024c 9d0f1100        957 	ld.bu	16[r29],r1
00000250 e009            958 	cmp	zero,r1
00000252 aa15*           959 	bne	.L327
00000254 a30f0300        960 	ld.bu	3[sp],r1
00000258 e009            961 	cmp	zero,r1
0000025a ea0d*           962 	bne	.L327
0000025c bd0f1100        963 	ld.bu	17[r29],r1
00000260 610a            964 	cmp	1,r1
00000262 a20d*           965 	be	.L327
                         966 --227:      && (FALSE == bValue)
                         967 --228:      && (STATUS_TPMS_TIRE_UNKOWN!= tpms_NetFLTireSts) )
                         968 --229: 	{
                         969 --230: 		tpms_NetClstrDspdFLTirePrs = tpms_NetFLTirePrs/4;
                         970 --line230
                         971 ..lin.D.3A.5CRenesas_Electronics.5CD1x_RGL.5Crgl_ghs_D1Lx_obj_V1.2E2.2E0.5Cvlib.5Capp.5Cgfx_apps.5Csimple_draw_d1l2.5Ctarget.5Cd1lx_mango_ghs.5Cobj.5Ctpms.35::
                         972 .LDWlin35:
00000264 210600000000*   973 	mov	_tpms_NetFLTirePrs,r1
0000026a e10f0100        974 	ld.hu	0[r1],r1
0000026e 820a            975 	shr	2,r1
00000270 5d0f1c00        976 	st.b	r1,28[r29]
00000274 b505*           977 	br	.L331
                         978 .L327:
                         979 --231: 	}
                         980 --232: 	else
                         981 --233: 	{
                         982 --234: 		tpms_NetClstrDspdFLTirePrs = 0;
                         983 --line234
                         984 ..lin.D.3A.5CRenesas_Electronics.5CD1x_RGL.5Crgl_ghs_D1Lx_obj_V1.2E2.2E0.5Cvlib.5Capp.5Cgfx_apps.5Csimple_draw_d1l2.5Ctarget.5Cd1lx_mango_ghs.5Cobj.5Ctpms.36::
                         985 .LDWlin36:
00000276 5d071c00        986 	st.b	zero,28[r29]
                         987 .L331:
                         988 --235: 	}
                         989 --237: 	if((VALID == tpms_NetFRTirePrsV)
0000027a bd0f1300        990 	ld.bu	19[r29],r1
0000027e e009            991 	cmp	zero,r1

                                                                      Page 19
                                                              C:\Users\YINGAO~1\AppData\Local\Temp\gh_00008t41.si
00000280 fa0d*           992 	bne	.L332
00000282 a30f0300        993 	ld.bu	3[sp],r1
00000286 e009            994 	cmp	zero,r1
00000288 ba0d*           995 	bne	.L332
0000028a 9d0f1500        996 	ld.bu	20[r29],r1
0000028e 610a            997 	cmp	1,r1
00000290 f205*           998 	be	.L332
                         999 --238:       && (FALSE == bValue)      
                        1000 --239:      && (STATUS_TPMS_TIRE_UNKOWN!= tpms_NetFRTireSts))
                        1001 --240: 	{
                        1002 --241: 		tpms_NetClstrDspdFRTirePrs = tpms_NetFRTirePrs/4;
                        1003 --line241
                        1004 ..lin.D.3A.5CRenesas_Electronics.5CD1x_RGL.5Crgl_ghs_D1Lx_obj_V1.2E2.2E0.5Cvlib.5Capp.5Cgfx_apps.5Csimple_draw_d1l2.5Ctarget.5Cd1lx_mango_ghs.5Cobj.5Ctpms.37::
                        1005 .LDWlin37:
00000292 fd0f0500       1006 	ld.hu	4[r29],r1
00000296 820a           1007 	shr	2,r1
00000298 5d0f1d00       1008 	st.b	r1,29[r29]
0000029c b505*          1009 	br	.L336
                        1010 .L332:
                        1011 --242: 	}
                        1012 --243: 	else
                        1013 --244: 	{
                        1014 --245: 		tpms_NetClstrDspdFRTirePrs = 0;
                        1015 --line245
                        1016 ..lin.D.3A.5CRenesas_Electronics.5CD1x_RGL.5Crgl_ghs_D1Lx_obj_V1.2E2.2E0.5Cvlib.5Capp.5Cgfx_apps.5Csimple_draw_d1l2.5Ctarget.5Cd1lx_mango_ghs.5Cobj.5Ctpms.38::
                        1017 .LDWlin38:
0000029e 5d071d00       1018 	st.b	zero,29[r29]
                        1019 .L336:
                        1020 --246: 	}
                        1021 --248: 	if((VALID == tpms_NetRLTirePrsV)
000002a2 9d0f1700       1022 	ld.bu	22[r29],r1
000002a6 e009           1023 	cmp	zero,r1
000002a8 fa0d*          1024 	bne	.L337
000002aa a30f0300       1025 	ld.bu	3[sp],r1
000002ae e009           1026 	cmp	zero,r1
000002b0 ba0d*          1027 	bne	.L337
000002b2 bd0f1700       1028 	ld.bu	23[r29],r1
000002b6 610a           1029 	cmp	1,r1
000002b8 f205*          1030 	be	.L337
                        1031 --249:      && (FALSE == bValue)      
                        1032 --250:      && (STATUS_TPMS_TIRE_UNKOWN!= tpms_NetRLTireSts)
                        1033 --251:      )
                        1034 --252: 	{
                        1035 --253: 		tpms_NetClstrDspdRLTirePrs = tpms_NetRLTirePrs/4;
                        1036 --line253
                        1037 ..lin.D.3A.5CRenesas_Electronics.5CD1x_RGL.5Crgl_ghs_D1Lx_obj_V1.2E2.2E0.5Cvlib.5Capp.5Cgfx_apps.5Csimple_draw_d1l2.5Ctarget.5Cd1lx_mango_ghs.5Cobj.5Ctpms.39::
                        1038 .LDWlin39:
000002ba fd0f0900       1039 	ld.hu	8[r29],r1
000002be 820a           1040 	shr	2,r1
000002c0 5d0f1f00       1041 	st.b	r1,31[r29]
000002c4 b505*          1042 	br	.L341
                        1043 .L337:
                        1044 --254: 	}
                        1045 --255: 	else
                        1046 --256: 	{
                        1047 --257: 		tpms_NetClstrDspdRLTirePrs = 0;
                        1048 --line257
                        1049 ..lin.D.3A.5CRenesas_Electronics.5CD1x_RGL.5Crgl_ghs_D1Lx_obj_V1.2E2.2E0.5Cvlib.5Capp.5Cgfx_apps.5Csimple_draw_d1l2.5Ctarget.5Cd1lx_mango_ghs.5Cobj.5Ctpms.40::
                        1050 .LDWlin40:
000002c6 5d071f00       1051 	st.b	zero,31[r29]
                        1052 .L341:

                                                                      Page 20
                                                              C:\Users\YINGAO~1\AppData\Local\Temp\gh_00008t41.si
                        1053 --258: 	}
                        1054 --260: 	if((VALID == tpms_NetRRTirePrsV)
000002ca bd0f1900       1055 	ld.bu	25[r29],r1
000002ce e009           1056 	cmp	zero,r1
000002d0 fa0d*          1057 	bne	.L342
000002d2 a30f0300       1058 	ld.bu	3[sp],r1
000002d6 e009           1059 	cmp	zero,r1
000002d8 ba0d*          1060 	bne	.L342
000002da 9d0f1b00       1061 	ld.bu	26[r29],r1
000002de 610a           1062 	cmp	1,r1
000002e0 f205*          1063 	be	.L342
                        1064 --261:      && (FALSE == bValue)      
                        1065 --262:      && (STATUS_TPMS_TIRE_UNKOWN!= tpms_NetRRTireSts))
                        1066 --263: 	{
                        1067 --264: 		tpms_NetClstrDspdRRTirePrs = tpms_NetRRTirePrs/4;
                        1068 --line264
                        1069 ..lin.D.3A.5CRenesas_Electronics.5CD1x_RGL.5Crgl_ghs_D1Lx_obj_V1.2E2.2E0.5Cvlib.5Capp.5Cgfx_apps.5Csimple_draw_d1l2.5Ctarget.5Cd1lx_mango_ghs.5Cobj.5Ctpms.41::
                        1070 .LDWlin41:
000002e2 fd0f0d00       1071 	ld.hu	12[r29],r1
000002e6 820a           1072 	shr	2,r1
000002e8 5d0f1e00       1073 	st.b	r1,30[r29]
000002ec b505*          1074 	br	.L346
                        1075 .L342:
                        1076 --265: 	}
                        1077 --266: 	else
                        1078 --267: 	{
                        1079 --268: 		tpms_NetClstrDspdRRTirePrs = 0;
                        1080 --line268
                        1081 ..lin.D.3A.5CRenesas_Electronics.5CD1x_RGL.5Crgl_ghs_D1Lx_obj_V1.2E2.2E0.5Cvlib.5Capp.5Cgfx_apps.5Csimple_draw_d1l2.5Ctarget.5Cd1lx_mango_ghs.5Cobj.5Ctpms.42::
                        1082 .LDWlin42:
000002ee 5d071e00       1083 	st.b	zero,30[r29]
                        1084 .L346:
                        1085 --269: 	}
                        1086 --270: }
000002f2 0000           1087 	nop
                        1088 --	    .ef
                        1089 .LDW71:
000002f4 4606ff70       1090 	dispose	3,{r25,r26,r27,r28,r29,r31},[lp]
                        1091 	.type	_tpms_TireValueProcess_100ms,@function
                        1092 	.size	_tpms_TireValueProcess_100ms,.-_tpms_TireValueProcess_100ms
                        1093 	.type	_tpms_TireValueProcess_100ms..D.3A.5CRenesas_Electronics.5CD1x_RGL.5Crgl_ghs_D1Lx_obj_V1.2E2.2E0.5Cvlib.5Capp.5Cgfx_apps.5Csimple_draw_d1l2.5Ctarget.5Cd1lx_mango_ghs.5Cobj.5Ctpms.,@function
                        1094 	.size	_tpms_TireValueProcess_100ms..D.3A.5CRenesas_Electronics.5CD1x_RGL.5Crgl_ghs_D1Lx_obj_V1.2E2.2E0.5Cvlib.5Capp.5Cgfx_apps.5Csimple_draw_d1l2.5Ctarget.5Cd1lx_mango_ghs.5Cobj.5Ctpms.,.-_tpms_TireValueProcess_100ms..D.3A.5CRenesas_Electronics.5CD1x_RGL.5Crgl_ghs_D1Lx_obj_V1.2E2.2E0.5Cvlib.5Capp.5Cgfx_apps.5Csimple_draw_d1l2.5Ctarget.5Cd1lx_mango_ghs.5Cobj.5Ctpms.
                        1095 	.align	2
                        1096 .LDW81:
                        1097 --_bValue	3[sp]	local
                        1098 
                        1099 	.data
                        1100 	.text
                        1101 
                        1102 
                        1103 --272: /**************************************************
                        1104 --273: *Function :tpms_TireStsProcess_100ms
                        1105 --274: *Description: TPMS Get Tire  Status Process
                        1106 --275: *Parameters:none
                        1107 --276: *Returns: none
                        1108 --277: **create&Verlog:
                        1109 --278: *Author Name xs  Date:2017-6-23    Ver:01
                        1110 --279: ***************************************************/
                        1111 --280: static void tpms_TireStsProcess_100ms(void)
                        1112 	.align	2
                        1113 	.align	2

                                                                      Page 21
                                                              C:\Users\YINGAO~1\AppData\Local\Temp\gh_00008t41.si
                        1114 	.global	_tpms_TireStsProcess_100ms..D.3A.5CRenesas_Electronics.5CD1x_RGL.5Crgl_ghs_D1Lx_obj_V1.2E2.2E0.5Cvlib.5Capp.5Cgfx_apps.5Csimple_draw_d1l2.5Ctarget.5Cd1lx_mango_ghs.5Cobj.5Ctpms.
                        1115 _tpms_TireStsProcess_100ms..D.3A.5CRenesas_Electronics.5CD1x_RGL.5Crgl_ghs_D1Lx_obj_V1.2E2.2E0.5Cvlib.5Capp.5Cgfx_apps.5Csimple_draw_d1l2.5Ctarget.5Cd1lx_mango_ghs.5Cobj.5Ctpms.:
                        1116 _tpms_TireStsProcess_100ms:
000002f8 8607e170       1117 	prepare	{r25,r26,r27,r28,r29,r31},3
000002fc 3d0600000000*  1118 	mov	_tpms_NetFLTirePrsV,r29
00000302 3c0600000000*  1119 	mov	_tpmsWrnngStatus,r28
00000308 3dde0a00       1120 	movea	10,r29,r27
0000030c 3dd60700       1121 	movea	7,r29,r26
00000310 3dce0400       1122 	movea	4,r29,r25
                        1123 --	    .bf
                        1124 .LDW91:
                        1125 --281: {
                        1126 --282:     BOOL bValue = 0;
00000314 43070300       1127 	st.b	zero,3[sp]
                        1128 --284:     COM_GetSignalValue_BOOL(INDEX_COM_RS_TPMSWNTRMDA, &bValue);
00000318 20363100       1129 	movea	49,zero,r6
0000031c 233e0300       1130 	movea	3,sp,r7
                        1131 	jarl	_COM_GetSignalValue_BOOL,lp
                        1131 <EXPANSION BEGIN>
                        1131 jarl22 _COM_GetSignalValue_BOOL , lp 
00000320 80ff0000*      1131 <EXPANSION END>
                        1132 --286: 	if((STATUS_TPMS_TIRE_NORMAL == tpms_NetFLTireSts)
                        1133 --line286
                        1134 ..lin.D.3A.5CRenesas_Electronics.5CD1x_RGL.5Crgl_ghs_D1Lx_obj_V1.2E2.2E0.5Cvlib.5Capp.5Cgfx_apps.5Csimple_draw_d1l2.5Ctarget.5Cd1lx_mango_ghs.5Cobj.5Ctpms.43::
                        1135 .LDWlin43:
00000324 bd0f0100       1136 	ld.bu	1[r29],r1
00000328 e009           1137 	cmp	zero,r1
0000032a fa0d*          1138 	bne	.L578
0000032c 210600000000*  1139 	mov	_tpms_NetFLTirePrsV,r1
00000332 810f0100       1140 	ld.bu	0[r1],r1
00000336 e009           1141 	cmp	zero,r1
00000338 8a0d*          1142 	bne	.L578
0000033a a30f0300       1143 	ld.bu	3[sp],r1
0000033e e009           1144 	cmp	zero,r1
00000340 ca05*          1145 	bne	.L578
                        1146 --287:      &&(VALID == tpms_NetFLTirePrsV)
                        1147 --288:      &&(FALSE == bValue))
                        1148 --289: 	{
                        1149 --290: 		tpms_NetClstrDspdFLTireSts = FALSE;
                        1150 --line290
                        1151 ..lin.D.3A.5CRenesas_Electronics.5CD1x_RGL.5Crgl_ghs_D1Lx_obj_V1.2E2.2E0.5Cvlib.5Capp.5Cgfx_apps.5Csimple_draw_d1l2.5Ctarget.5Cd1lx_mango_ghs.5Cobj.5Ctpms.44::
                        1152 .LDWlin44:
00000342 5d071000       1153 	st.b	zero,16[r29]
00000346 c505*          1154 	br	.L582
                        1155 .L578:
                        1156 --291: 	}
                        1157 --292: 	else
                        1158 --293: 	{
                        1159 --294: 		tpms_NetClstrDspdFLTireSts = TRUE;
                        1160 --line294
                        1161 ..lin.D.3A.5CRenesas_Electronics.5CD1x_RGL.5Crgl_ghs_D1Lx_obj_V1.2E2.2E0.5Cvlib.5Capp.5Cgfx_apps.5Csimple_draw_d1l2.5Ctarget.5Cd1lx_mango_ghs.5Cobj.5Ctpms.45::
                        1162 .LDWlin45:
00000348 010a           1163 	mov	1,r1
0000034a 5d0f1000       1164 	st.b	r1,16[r29]
                        1165 .L582:
                        1166 --295: 	}
                        1167 --296: 	
                        1168 --297: 	if((STATUS_TPMS_TIRE_NORMAL == tpms_NetFRTireSts)
0000034e 9d0f0500       1169 	ld.bu	4[r29],r1
00000352 e009           1170 	cmp	zero,r1
00000354 ca0d*          1171 	bne	.L583

                                                                      Page 22
                                                              C:\Users\YINGAO~1\AppData\Local\Temp\gh_00008t41.si
00000356 bd0f0300       1172 	ld.bu	3[r29],r1
0000035a e009           1173 	cmp	zero,r1
0000035c 8a0d*          1174 	bne	.L583
0000035e a30f0300       1175 	ld.bu	3[sp],r1
00000362 e009           1176 	cmp	zero,r1
00000364 ca05*          1177 	bne	.L583
                        1178 --298:      &&(VALID == tpms_NetFRTirePrsV)
                        1179 --299:      &&(FALSE == bValue))
                        1180 --300: 	{
                        1181 --301: 		tpms_NetClstrDspdFRTireSts = FALSE;
                        1182 --line301
                        1183 ..lin.D.3A.5CRenesas_Electronics.5CD1x_RGL.5Crgl_ghs_D1Lx_obj_V1.2E2.2E0.5Cvlib.5Capp.5Cgfx_apps.5Csimple_draw_d1l2.5Ctarget.5Cd1lx_mango_ghs.5Cobj.5Ctpms.46::
                        1184 .LDWlin46:
00000366 5d071100       1185 	st.b	zero,17[r29]
0000036a c505*          1186 	br	.L587
                        1187 .L583:
                        1188 --302: 	}
                        1189 --303: 	else
                        1190 --304: 	{
                        1191 --305: 		tpms_NetClstrDspdFRTireSts = TRUE;
                        1192 --line305
                        1193 ..lin.D.3A.5CRenesas_Electronics.5CD1x_RGL.5Crgl_ghs_D1Lx_obj_V1.2E2.2E0.5Cvlib.5Capp.5Cgfx_apps.5Csimple_draw_d1l2.5Ctarget.5Cd1lx_mango_ghs.5Cobj.5Ctpms.47::
                        1194 .LDWlin47:
0000036c 010a           1195 	mov	1,r1
0000036e 5d0f1100       1196 	st.b	r1,17[r29]
                        1197 .L587:
                        1198 --306: 	}
                        1199 --307: 	
                        1200 --308: 	if((STATUS_TPMS_TIRE_NORMAL == tpms_NetRLTireSts)
00000372 bd0f0700       1201 	ld.bu	7[r29],r1
00000376 e009           1202 	cmp	zero,r1
00000378 ca0d*          1203 	bne	.L588
0000037a 9d0f0700       1204 	ld.bu	6[r29],r1
0000037e e009           1205 	cmp	zero,r1
00000380 8a0d*          1206 	bne	.L588
00000382 a30f0300       1207 	ld.bu	3[sp],r1
00000386 e009           1208 	cmp	zero,r1
00000388 ca05*          1209 	bne	.L588
                        1210 --309:      &&(VALID == tpms_NetRLTirePrsV)
                        1211 --310:      &&(FALSE == bValue))
                        1212 --311: 	{
                        1213 --312: 		tpms_NetClstrDspdRLTireSts = FALSE;
                        1214 --line312
                        1215 ..lin.D.3A.5CRenesas_Electronics.5CD1x_RGL.5Crgl_ghs_D1Lx_obj_V1.2E2.2E0.5Cvlib.5Capp.5Cgfx_apps.5Csimple_draw_d1l2.5Ctarget.5Cd1lx_mango_ghs.5Cobj.5Ctpms.48::
                        1216 .LDWlin48:
0000038a 5d071300       1217 	st.b	zero,19[r29]
0000038e c505*          1218 	br	.L592
                        1219 .L588:
                        1220 --313: 	}
                        1221 --314: 	else
                        1222 --315: 	{
                        1223 --316: 		tpms_NetClstrDspdRLTireSts = TRUE;
                        1224 --line316
                        1225 ..lin.D.3A.5CRenesas_Electronics.5CD1x_RGL.5Crgl_ghs_D1Lx_obj_V1.2E2.2E0.5Cvlib.5Capp.5Cgfx_apps.5Csimple_draw_d1l2.5Ctarget.5Cd1lx_mango_ghs.5Cobj.5Ctpms.49::
                        1226 .LDWlin49:
00000390 010a           1227 	mov	1,r1
00000392 5d0f1300       1228 	st.b	r1,19[r29]
                        1229 .L592:
                        1230 --317: 	}
                        1231 --318: 	
                        1232 --319: 	if((STATUS_TPMS_TIRE_NORMAL == tpms_NetRRTireSts)

                                                                      Page 23
                                                              C:\Users\YINGAO~1\AppData\Local\Temp\gh_00008t41.si
00000396 9d0f0b00       1233 	ld.bu	10[r29],r1
0000039a e009           1234 	cmp	zero,r1
0000039c ca0d*          1235 	bne	.L593
0000039e bd0f0900       1236 	ld.bu	9[r29],r1
000003a2 e009           1237 	cmp	zero,r1
000003a4 8a0d*          1238 	bne	.L593
000003a6 a30f0300       1239 	ld.bu	3[sp],r1
000003aa e009           1240 	cmp	zero,r1
000003ac ca05*          1241 	bne	.L593
                        1242 --320:      &&(VALID == tpms_NetRRTirePrsV)
                        1243 --321:      &&(FALSE == bValue))
                        1244 --322: 	{
                        1245 --323: 		tpms_NetClstrDspdRRTireSts = FALSE;
                        1246 --line323
                        1247 ..lin.D.3A.5CRenesas_Electronics.5CD1x_RGL.5Crgl_ghs_D1Lx_obj_V1.2E2.2E0.5Cvlib.5Capp.5Cgfx_apps.5Csimple_draw_d1l2.5Ctarget.5Cd1lx_mango_ghs.5Cobj.5Ctpms.50::
                        1248 .LDWlin50:
000003ae 5d071200       1249 	st.b	zero,18[r29]
000003b2 c505*          1250 	br	.L597
                        1251 .L593:
                        1252 --324: 	}
                        1253 --325: 	else
                        1254 --326: 	{
                        1255 --327: 		tpms_NetClstrDspdRRTireSts = TRUE;
                        1256 --line327
                        1257 ..lin.D.3A.5CRenesas_Electronics.5CD1x_RGL.5Crgl_ghs_D1Lx_obj_V1.2E2.2E0.5Cvlib.5Capp.5Cgfx_apps.5Csimple_draw_d1l2.5Ctarget.5Cd1lx_mango_ghs.5Cobj.5Ctpms.51::
                        1258 .LDWlin51:
000003b4 010a           1259 	mov	1,r1
000003b6 5d0f1200       1260 	st.b	r1,18[r29]
                        1261 .L597:
                        1262 --328: 	}
                        1263 --330: 	if((STATUS_TPMS_TIRE_LOW == tpms_NetFLTireSts) 
000003ba bd0f0100       1264 	ld.bu	1[r29],r1
000003be 620a           1265 	cmp	2,r1
000003c0 d20d*          1266 	be	.L599
000003c2 9d0f0500       1267 	ld.bu	4[r29],r1
000003c6 620a           1268 	cmp	2,r1
000003c8 920d*          1269 	be	.L599
000003ca bd0f0700       1270 	ld.bu	7[r29],r1
000003ce 620a           1271 	cmp	2,r1
000003d0 d205*          1272 	be	.L599
000003d2 9d0f0b00       1273 	ld.bu	10[r29],r1
000003d6 620a           1274 	cmp	2,r1
000003d8 8a0d*          1275 	bne	.L598
                        1276 .L599:
                        1277 --331: 		|| (STATUS_TPMS_TIRE_LOW == tpms_NetFRTireSts) 
                        1278 --332: 		|| (STATUS_TPMS_TIRE_LOW == tpms_NetRLTireSts) 
                        1279 --333: 		|| (STATUS_TPMS_TIRE_LOW == tpms_NetRRTireSts))
                        1280 --334: 	{
                        1281 --335: 		tpmsWrnngStatus.TPMS_TIRE_LOW = TRUE;
                        1282 --line335
                        1283 ..lin.D.3A.5CRenesas_Electronics.5CD1x_RGL.5Crgl_ghs_D1Lx_obj_V1.2E2.2E0.5Cvlib.5Capp.5Cgfx_apps.5Csimple_draw_d1l2.5Ctarget.5Cd1lx_mango_ghs.5Cobj.5Ctpms.52::
                        1284 .LDWlin52:
000003da 9c0f0100       1285 	ld.bu	0[r28],r1
000003de 810e0100       1286 	ori	1,r1,r1
000003e2 5c0f0000       1287 	st.b	r1,0[r28]
000003e6 f505*          1288 	br	.L603
                        1289 .L598:
                        1290 --336: 	}
                        1291 --337: 	else
                        1292 --338: 	{
                        1293 --339: 		tpmsWrnngStatus.TPMS_TIRE_LOW = FALSE;

                                                                      Page 24
                                                              C:\Users\YINGAO~1\AppData\Local\Temp\gh_00008t41.si
                        1294 --line339
                        1295 ..lin.D.3A.5CRenesas_Electronics.5CD1x_RGL.5Crgl_ghs_D1Lx_obj_V1.2E2.2E0.5Cvlib.5Capp.5Cgfx_apps.5Csimple_draw_d1l2.5Ctarget.5Cd1lx_mango_ghs.5Cobj.5Ctpms.53::
                        1296 .LDWlin53:
000003e8 9c0f0100       1297 	ld.bu	0[r28],r1
000003ec c10efe00       1298 	andi	254,r1,r1
000003f0 5c0f0000       1299 	st.b	r1,0[r28]
                        1300 .L603:
                        1301 --340: 	}
                        1302 --341: 		
                        1303 --342: 	if((STATUS_TPMS_TIRE_LEAKAGE == tpms_NetFLTireSts) 
000003f4 bd0f0100       1304 	ld.bu	1[r29],r1
000003f8 630a           1305 	cmp	3,r1
000003fa d20d*          1306 	be	.L605
000003fc 9d0f0500       1307 	ld.bu	4[r29],r1
00000400 630a           1308 	cmp	3,r1
00000402 920d*          1309 	be	.L605
00000404 bd0f0700       1310 	ld.bu	7[r29],r1
00000408 630a           1311 	cmp	3,r1
0000040a d205*          1312 	be	.L605
0000040c 9d0f0b00       1313 	ld.bu	10[r29],r1
00000410 630a           1314 	cmp	3,r1
00000412 8a0d*          1315 	bne	.L604
                        1316 .L605:
                        1317 --343: 		|| (STATUS_TPMS_TIRE_LEAKAGE == tpms_NetFRTireSts) 
                        1318 --344: 		|| (STATUS_TPMS_TIRE_LEAKAGE == tpms_NetRLTireSts) 
                        1319 --345: 		|| (STATUS_TPMS_TIRE_LEAKAGE == tpms_NetRRTireSts))
                        1320 --346: 	{
                        1321 --347: 		tpmsWrnngStatus.TPMS_TIRE_LEAKAGE = TRUE;
                        1322 --line347
                        1323 ..lin.D.3A.5CRenesas_Electronics.5CD1x_RGL.5Crgl_ghs_D1Lx_obj_V1.2E2.2E0.5Cvlib.5Capp.5Cgfx_apps.5Csimple_draw_d1l2.5Ctarget.5Cd1lx_mango_ghs.5Cobj.5Ctpms.54::
                        1324 .LDWlin54:
00000414 9c0f0100       1325 	ld.bu	0[r28],r1
00000418 810e0200       1326 	ori	2,r1,r1
0000041c 5c0f0000       1327 	st.b	r1,0[r28]
00000420 f505*          1328 	br	.L609
                        1329 .L604:
                        1330 --348: 	}
                        1331 --349: 	else
                        1332 --350: 	{
                        1333 --351: 		tpmsWrnngStatus.TPMS_TIRE_LEAKAGE = FALSE;
                        1334 --line351
                        1335 ..lin.D.3A.5CRenesas_Electronics.5CD1x_RGL.5Crgl_ghs_D1Lx_obj_V1.2E2.2E0.5Cvlib.5Capp.5Cgfx_apps.5Csimple_draw_d1l2.5Ctarget.5Cd1lx_mango_ghs.5Cobj.5Ctpms.55::
                        1336 .LDWlin55:
00000422 9c0f0100       1337 	ld.bu	0[r28],r1
00000426 c10efd00       1338 	andi	253,r1,r1
0000042a 5c0f0000       1339 	st.b	r1,0[r28]
                        1340 .L609:
                        1341 --352: 	}
                        1342 --353: 		
                        1343 --354: 	if((STATUS_TPMS_TIRE_HIGH == tpms_NetFLTireSts) 
0000042e bd0f0100       1344 	ld.bu	1[r29],r1
00000432 640a           1345 	cmp	4,r1
00000434 d20d*          1346 	be	.L611
00000436 9d0f0500       1347 	ld.bu	4[r29],r1
0000043a 640a           1348 	cmp	4,r1
0000043c 920d*          1349 	be	.L611
0000043e bd0f0700       1350 	ld.bu	7[r29],r1
00000442 640a           1351 	cmp	4,r1
00000444 d205*          1352 	be	.L611
00000446 9d0f0b00       1353 	ld.bu	10[r29],r1
0000044a 640a           1354 	cmp	4,r1

                                                                      Page 25
                                                              C:\Users\YINGAO~1\AppData\Local\Temp\gh_00008t41.si
0000044c 8a0d*          1355 	bne	.L610
                        1356 .L611:
                        1357 --355: 		|| (STATUS_TPMS_TIRE_HIGH == tpms_NetFRTireSts) 
                        1358 --356: 		|| (STATUS_TPMS_TIRE_HIGH == tpms_NetRLTireSts) 
                        1359 --357: 		|| (STATUS_TPMS_TIRE_HIGH == tpms_NetRRTireSts))
                        1360 --358: 	{
                        1361 --359: 		tpmsWrnngStatus.TPMS_TIRE_HIGH = TRUE;
                        1362 --line359
                        1363 ..lin.D.3A.5CRenesas_Electronics.5CD1x_RGL.5Crgl_ghs_D1Lx_obj_V1.2E2.2E0.5Cvlib.5Capp.5Cgfx_apps.5Csimple_draw_d1l2.5Ctarget.5Cd1lx_mango_ghs.5Cobj.5Ctpms.56::
                        1364 .LDWlin56:
0000044e 9c0f0100       1365 	ld.bu	0[r28],r1
00000452 810e0400       1366 	ori	4,r1,r1
00000456 5c0f0000       1367 	st.b	r1,0[r28]
0000045a f505*          1368 	br	.L615
                        1369 .L610:
                        1370 --360: 	}
                        1371 --361: 	else
                        1372 --362: 	{
                        1373 --363: 		tpmsWrnngStatus.TPMS_TIRE_HIGH = FALSE;
                        1374 --line363
                        1375 ..lin.D.3A.5CRenesas_Electronics.5CD1x_RGL.5Crgl_ghs_D1Lx_obj_V1.2E2.2E0.5Cvlib.5Capp.5Cgfx_apps.5Csimple_draw_d1l2.5Ctarget.5Cd1lx_mango_ghs.5Cobj.5Ctpms.57::
                        1376 .LDWlin57:
0000045c 9c0f0100       1377 	ld.bu	0[r28],r1
00000460 c10efb00       1378 	andi	251,r1,r1
00000464 5c0f0000       1379 	st.b	r1,0[r28]
                        1380 .L615:
                        1381 --364: 	}
                        1382 --365: 		
                        1383 --366: 	if((STATUS_TPMS_TEMP_HIGH == tpms_NetFLTireSts) 
00000468 bd0f0100       1384 	ld.bu	1[r29],r1
0000046c 650a           1385 	cmp	5,r1
0000046e d20d*          1386 	be	.L617
00000470 9d0f0500       1387 	ld.bu	4[r29],r1
00000474 650a           1388 	cmp	5,r1
00000476 920d*          1389 	be	.L617
00000478 bd0f0700       1390 	ld.bu	7[r29],r1
0000047c 650a           1391 	cmp	5,r1
0000047e d205*          1392 	be	.L617
00000480 9d0f0b00       1393 	ld.bu	10[r29],r1
00000484 650a           1394 	cmp	5,r1
00000486 8a0d*          1395 	bne	.L616
                        1396 .L617:
                        1397 --367: 		|| (STATUS_TPMS_TEMP_HIGH == tpms_NetFRTireSts) 
                        1398 --368: 		|| (STATUS_TPMS_TEMP_HIGH == tpms_NetRLTireSts) 
                        1399 --369: 		|| (STATUS_TPMS_TEMP_HIGH == tpms_NetRRTireSts))
                        1400 --370: 	{
                        1401 --371: 		tpmsWrnngStatus.TPMS_TEMP_HIGH = TRUE;
                        1402 --line371
                        1403 ..lin.D.3A.5CRenesas_Electronics.5CD1x_RGL.5Crgl_ghs_D1Lx_obj_V1.2E2.2E0.5Cvlib.5Capp.5Cgfx_apps.5Csimple_draw_d1l2.5Ctarget.5Cd1lx_mango_ghs.5Cobj.5Ctpms.58::
                        1404 .LDWlin58:
00000488 9c0f0100       1405 	ld.bu	0[r28],r1
0000048c 810e0800       1406 	ori	8,r1,r1
00000490 5c0f0000       1407 	st.b	r1,0[r28]
00000494 f505*          1408 	br	.L621
                        1409 .L616:
                        1410 --372: 	}
                        1411 --373: 	else
                        1412 --374: 	{
                        1413 --375: 		tpmsWrnngStatus.TPMS_TEMP_HIGH = FALSE;
                        1414 --line375
                        1415 ..lin.D.3A.5CRenesas_Electronics.5CD1x_RGL.5Crgl_ghs_D1Lx_obj_V1.2E2.2E0.5Cvlib.5Capp.5Cgfx_apps.5Csimple_draw_d1l2.5Ctarget.5Cd1lx_mango_ghs.5Cobj.5Ctpms.59::

                                                                      Page 26
                                                              C:\Users\YINGAO~1\AppData\Local\Temp\gh_00008t41.si
                        1416 .LDWlin59:
00000496 9c0f0100       1417 	ld.bu	0[r28],r1
0000049a c10ef700       1418 	andi	247,r1,r1
0000049e 5c0f0000       1419 	st.b	r1,0[r28]
                        1420 .L621:
                        1421 --376: 	}
                        1422 --377: 		
                        1423 --378: 	if((STATUS_TPMS_BALANCE_FAIL == tpms_NetFLTireSts) 
000004a2 bd0f0100       1424 	ld.bu	1[r29],r1
000004a6 660a           1425 	cmp	6,r1
000004a8 d20d*          1426 	be	.L623
000004aa 9d0f0500       1427 	ld.bu	4[r29],r1
000004ae 660a           1428 	cmp	6,r1
000004b0 920d*          1429 	be	.L623
000004b2 bd0f0700       1430 	ld.bu	7[r29],r1
000004b6 660a           1431 	cmp	6,r1
000004b8 d205*          1432 	be	.L623
000004ba 9d0f0b00       1433 	ld.bu	10[r29],r1
000004be 660a           1434 	cmp	6,r1
000004c0 8a0d*          1435 	bne	.L622
                        1436 .L623:
                        1437 --379: 		|| (STATUS_TPMS_BALANCE_FAIL == tpms_NetFRTireSts) 
                        1438 --380: 		|| (STATUS_TPMS_BALANCE_FAIL == tpms_NetRLTireSts) 
                        1439 --381: 		|| (STATUS_TPMS_BALANCE_FAIL == tpms_NetRRTireSts))
                        1440 --382: 	{
                        1441 --383: 		tpmsWrnngStatus.TPMS_BALANCE_FAIL = TRUE;
                        1442 --line383
                        1443 ..lin.D.3A.5CRenesas_Electronics.5CD1x_RGL.5Crgl_ghs_D1Lx_obj_V1.2E2.2E0.5Cvlib.5Capp.5Cgfx_apps.5Csimple_draw_d1l2.5Ctarget.5Cd1lx_mango_ghs.5Cobj.5Ctpms.60::
                        1444 .LDWlin60:
000004c2 9c0f0100       1445 	ld.bu	0[r28],r1
000004c6 810e1000       1446 	ori	16,r1,r1
000004ca 5c0f0000       1447 	st.b	r1,0[r28]
000004ce f505*          1448 	br	.L627
                        1449 .L622:
                        1450 --384: 	}
                        1451 --385: 	else
                        1452 --386: 	{
                        1453 --387: 		tpmsWrnngStatus.TPMS_BALANCE_FAIL = FALSE;
                        1454 --line387
                        1455 ..lin.D.3A.5CRenesas_Electronics.5CD1x_RGL.5Crgl_ghs_D1Lx_obj_V1.2E2.2E0.5Cvlib.5Capp.5Cgfx_apps.5Csimple_draw_d1l2.5Ctarget.5Cd1lx_mango_ghs.5Cobj.5Ctpms.61::
                        1456 .LDWlin61:
000004d0 9c0f0100       1457 	ld.bu	0[r28],r1
000004d4 c10eef00       1458 	andi	239,r1,r1
000004d8 5c0f0000       1459 	st.b	r1,0[r28]
                        1460 .L627:
                        1461 --388: 	}
                        1462 --389: 		
                        1463 --390: 	if((STATUS_TPMS_BAT_LOW == tpms_NetFLTireSts) 
000004dc bd0f0100       1464 	ld.bu	1[r29],r1
000004e0 670a           1465 	cmp	7,r1
000004e2 d20d*          1466 	be	.L629
000004e4 9d0f0500       1467 	ld.bu	4[r29],r1
000004e8 670a           1468 	cmp	7,r1
000004ea 920d*          1469 	be	.L629
000004ec bd0f0700       1470 	ld.bu	7[r29],r1
000004f0 670a           1471 	cmp	7,r1
000004f2 d205*          1472 	be	.L629
000004f4 9d0f0b00       1473 	ld.bu	10[r29],r1
000004f8 670a           1474 	cmp	7,r1
000004fa 8a0d*          1475 	bne	.L628
                        1476 .L629:

                                                                      Page 27
                                                              C:\Users\YINGAO~1\AppData\Local\Temp\gh_00008t41.si
                        1477 --391: 		|| (STATUS_TPMS_BAT_LOW == tpms_NetFRTireSts) 
                        1478 --392: 		|| (STATUS_TPMS_BAT_LOW == tpms_NetRLTireSts) 
                        1479 --393: 		|| (STATUS_TPMS_BAT_LOW == tpms_NetRRTireSts))
                        1480 --394: 	{
                        1481 --395: 		tpmsWrnngStatus.TPMS_BAT_LOW = TRUE;
                        1482 --line395
                        1483 ..lin.D.3A.5CRenesas_Electronics.5CD1x_RGL.5Crgl_ghs_D1Lx_obj_V1.2E2.2E0.5Cvlib.5Capp.5Cgfx_apps.5Csimple_draw_d1l2.5Ctarget.5Cd1lx_mango_ghs.5Cobj.5Ctpms.62::
                        1484 .LDWlin62:
000004fc 9c0f0100       1485 	ld.bu	0[r28],r1
00000500 810e2000       1486 	ori	32,r1,r1
00000504 5c0f0000       1487 	st.b	r1,0[r28]
00000508 f505*          1488 	br	.L633
                        1489 .L628:
                        1490 --396: 	}
                        1491 --397: 	else
                        1492 --398: 	{
                        1493 --399: 		tpmsWrnngStatus.TPMS_BAT_LOW = FALSE;
                        1494 --line399
                        1495 ..lin.D.3A.5CRenesas_Electronics.5CD1x_RGL.5Crgl_ghs_D1Lx_obj_V1.2E2.2E0.5Cvlib.5Capp.5Cgfx_apps.5Csimple_draw_d1l2.5Ctarget.5Cd1lx_mango_ghs.5Cobj.5Ctpms.63::
                        1496 .LDWlin63:
0000050a 9c0f0100       1497 	ld.bu	0[r28],r1
0000050e c10edf00       1498 	andi	223,r1,r1
00000512 5c0f0000       1499 	st.b	r1,0[r28]
                        1500 .L633:
                        1501 --400: 	}
                        1502 --401: }
00000516 0000           1503 	nop
                        1504 --	    .ef
                        1505 .LDW02:
00000518 4606ff70       1506 	dispose	3,{r25,r26,r27,r28,r29,r31},[lp]
                        1507 	.type	_tpms_TireStsProcess_100ms,@function
                        1508 	.size	_tpms_TireStsProcess_100ms,.-_tpms_TireStsProcess_100ms
                        1509 	.type	_tpms_TireStsProcess_100ms..D.3A.5CRenesas_Electronics.5CD1x_RGL.5Crgl_ghs_D1Lx_obj_V1.2E2.2E0.5Cvlib.5Capp.5Cgfx_apps.5Csimple_draw_d1l2.5Ctarget.5Cd1lx_mango_ghs.5Cobj.5Ctpms.,@function
                        1510 	.size	_tpms_TireStsProcess_100ms..D.3A.5CRenesas_Electronics.5CD1x_RGL.5Crgl_ghs_D1Lx_obj_V1.2E2.2E0.5Cvlib.5Capp.5Cgfx_apps.5Csimple_draw_d1l2.5Ctarget.5Cd1lx_mango_ghs.5Cobj.5Ctpms.,.-_tpms_TireStsProcess_100ms..D.3A.5CRenesas_Electronics.5CD1x_RGL.5Crgl_ghs_D1Lx_obj_V1.2E2.2E0.5Cvlib.5Capp.5Cgfx_apps.5Csimple_draw_d1l2.5Ctarget.5Cd1lx_mango_ghs.5Cobj.5Ctpms.
                        1511 	.align	2
                        1512 .LDW12:
                        1513 --_bValue	3[sp]	local
                        1514 
                        1515 	.data
                        1516 	.text
                        1517 
                        1518 
                        1519 --403: /**************************************************
                        1520 --404: *Function :tpms_SetDistUnitProcess
                        1521 --405: *Description: TPMS Set Dist Unit Process
                        1522 --406: *Parameters:none
                        1523 --407: *Returns: none
                        1524 --408: **create&Verlog:
                        1525 --409: *Author Name xs  Date:2017-6-23    Ver:01
                        1526 --410: ***************************************************/
                        1527 --411: static void tpms_SetDistUnitProcess(void)
                        1528 	.align	2
                        1529 	.align	2
                        1530 	.global	_tpms_SetDistUnitProcess..D.3A.5CRenesas_Electronics.5CD1x_RGL.5Crgl_ghs_D1Lx_obj_V1.2E2.2E0.5Cvlib.5Capp.5Cgfx_apps.5Csimple_draw_d1l2.5Ctarget.5Cd1lx_mango_ghs.5Cobj.5Ctpms.
                        1531 _tpms_SetDistUnitProcess..D.3A.5CRenesas_Electronics.5CD1x_RGL.5Crgl_ghs_D1Lx_obj_V1.2E2.2E0.5Cvlib.5Capp.5Cgfx_apps.5Csimple_draw_d1l2.5Ctarget.5Cd1lx_mango_ghs.5Cobj.5Ctpms.:
                        1532 _tpms_SetDistUnitProcess:
0000051c 8007e110       1533 	prepare	{r27,r28,r29,r31},0
00000520 3d0600000000*  1534 	mov	_tpms_NetFICMDistUntAdj,r29
00000526 1de0           1535 	mov	r29,r28
00000528 3dde0400       1536 	movea	4,r29,r27
                        1537 --	    .bf

                                                                      Page 28
                                                              C:\Users\YINGAO~1\AppData\Local\Temp\gh_00008t41.si
                        1538 .LDW22:
                        1539 --412: {
                        1540 --413: 	COM_GetSignalValue_BOOL(INDEX_COM_RS_FICMDISTUNITADJTREQA, &tpms_NetFICMDistUnitAdjtReqA);
0000052c 1b38           1541 	mov	r27,r7
0000052e 20360701       1542 	movea	263,zero,r6
                        1543 	jarl	_COM_GetSignalValue_BOOL,lp
                        1543 <EXPANSION BEGIN>
                        1543 jarl22 _COM_GetSignalValue_BOOL , lp 
00000532 80ff0000*      1543 <EXPANSION END>
                        1544 --414: 	if(TRUE == tpms_NetFICMDistUnitAdjtReqA)
                        1545 --line414
                        1546 ..lin.D.3A.5CRenesas_Electronics.5CD1x_RGL.5Crgl_ghs_D1Lx_obj_V1.2E2.2E0.5Cvlib.5Capp.5Cgfx_apps.5Csimple_draw_d1l2.5Ctarget.5Cd1lx_mango_ghs.5Cobj.5Ctpms.64::
                        1547 .LDWlin64:
00000536 9d0f0500       1548 	ld.bu	4[r29],r1
0000053a 610a           1549 	cmp	1,r1
0000053c ea0d*          1550 	bne	.L953
                        1551 --415: 	{
                        1552 --416: 		COM_GetSignalValue_8(INDEX_COM_RS_FICMDISTUNITADJ, &tpms_NetFICMDistUntAdj);
                        1553 --line416
                        1554 ..lin.D.3A.5CRenesas_Electronics.5CD1x_RGL.5Crgl_ghs_D1Lx_obj_V1.2E2.2E0.5Cvlib.5Capp.5Cgfx_apps.5Csimple_draw_d1l2.5Ctarget.5Cd1lx_mango_ghs.5Cobj.5Ctpms.65::
                        1555 .LDWlin65:
0000053e 1c38           1556 	mov	r28,r7
00000540 20368c00       1557 	movea	140,zero,r6
                        1558 	jarl	_COM_GetSignalValue_8,lp
                        1558 <EXPANSION BEGIN>
                        1558 jarl22 _COM_GetSignalValue_8 , lp 
00000544 80ff0000*      1558 <EXPANSION END>
                        1559 --417: 		DIAG_SetDistanceUnits(tpms_NetFICMDistUntAdj);
                        1560 --line417
                        1561 ..lin.D.3A.5CRenesas_Electronics.5CD1x_RGL.5Crgl_ghs_D1Lx_obj_V1.2E2.2E0.5Cvlib.5Capp.5Cgfx_apps.5Csimple_draw_d1l2.5Ctarget.5Cd1lx_mango_ghs.5Cobj.5Ctpms.66::
                        1562 .LDWlin66:
00000548 9d370100       1563 	ld.bu	0[r29],r6
                        1564 	jarl	_DIAG_SetDistanceUnits,lp
                        1564 <EXPANSION BEGIN>
                        1564 jarl22 _DIAG_SetDistanceUnits , lp 
0000054c 80ff0000*      1564 <EXPANSION END>
                        1565 --418: 		tpms_NetClstrDistUnt = tpms_NetFICMDistUntAdj;
                        1566 --line418
                        1567 ..lin.D.3A.5CRenesas_Electronics.5CD1x_RGL.5Crgl_ghs_D1Lx_obj_V1.2E2.2E0.5Cvlib.5Capp.5Cgfx_apps.5Csimple_draw_d1l2.5Ctarget.5Cd1lx_mango_ghs.5Cobj.5Ctpms.67::
                        1568 .LDWlin67:
00000550 9d0f0100       1569 	ld.bu	0[r29],r1
00000554 5d0f0800       1570 	st.b	r1,8[r29]
                        1571 .L953:
                        1572 --419: 	}
                        1573 --420: 	else
                        1574 --421: 	{
                        1575 --422: 		/*do nothing*/
                        1576 --423: 	}
                        1577 --424: }
00000558 0000           1578 	nop
                        1579 --	    .ef
                        1580 .LDW32:
0000055a 4006ff10       1581 	dispose	0,{r27,r28,r29,r31},[lp]
                        1582 	.type	_tpms_SetDistUnitProcess,@function
                        1583 	.size	_tpms_SetDistUnitProcess,.-_tpms_SetDistUnitProcess
                        1584 	.type	_tpms_SetDistUnitProcess..D.3A.5CRenesas_Electronics.5CD1x_RGL.5Crgl_ghs_D1Lx_obj_V1.2E2.2E0.5Cvlib.5Capp.5Cgfx_apps.5Csimple_draw_d1l2.5Ctarget.5Cd1lx_mango_ghs.5Cobj.5Ctpms.,@function
                        1585 	.size	_tpms_SetDistUnitProcess..D.3A.5CRenesas_Electronics.5CD1x_RGL.5Crgl_ghs_D1Lx_obj_V1.2E2.2E0.5Cvlib.5Capp.5Cgfx_apps.5Csimple_draw_d1l2.5Ctarget.5Cd1lx_mango_ghs.5Cobj.5Ctpms.,.-_tpms_SetDistUnitProcess..D.3A.5CRenesas_Electronics.5CD1x_RGL.5Crgl_ghs_D1Lx_obj_V1.2E2.2E0.5Cvlib.5Capp.5Cgfx_apps.5Csimple_draw_d1l2.5Ctarget.5Cd1lx_mango_ghs.5Cobj.5Ctpms.
                        1586 	.align	2
                        1587 .LDW42:
                        1588 
                        1589 	.data

                                                                      Page 29
                                                              C:\Users\YINGAO~1\AppData\Local\Temp\gh_00008t41.si
                        1590 	.text
                        1591 
                        1592 
                        1593 --426: /**************************************************
                        1594 --427: *Function :tpms_SetFuelConUnitsProcess
                        1595 --428: *Description: TPMS Set FuelCsump Unit Process
                        1596 --429: *Parameters:none
                        1597 --430: *Returns: none
                        1598 --431: **create&Verlog:
                        1599 --432: *Author Name xs  Date:2017-6-23    Ver:01
                        1600 --433: ***************************************************/
                        1601 --434: static void tpms_SetFuelConUnitsProcess(void)
                        1602 	.align	2
                        1603 	.align	2
                        1604 	.global	_tpms_SetFuelConUnitsProcess..D.3A.5CRenesas_Electronics.5CD1x_RGL.5Crgl_ghs_D1Lx_obj_V1.2E2.2E0.5Cvlib.5Capp.5Cgfx_apps.5Csimple_draw_d1l2.5Ctarget.5Cd1lx_mango_ghs.5Cobj.5Ctpms.
                        1605 _tpms_SetFuelConUnitsProcess..D.3A.5CRenesas_Electronics.5CD1x_RGL.5Crgl_ghs_D1Lx_obj_V1.2E2.2E0.5Cvlib.5Capp.5Cgfx_apps.5Csimple_draw_d1l2.5Ctarget.5Cd1lx_mango_ghs.5Cobj.5Ctpms.:
                        1606 _tpms_SetFuelConUnitsProcess:
0000055e 8007e110       1607 	prepare	{r27,r28,r29,r31},0
00000562 3c0600000000*  1608 	mov	_tpms_NetFICMFuelCsumpUntAdj,r28
00000568 1ceeffff       1609 	addi	-1,r28,r29
0000056c 3cde0400       1610 	movea	4,r28,r27
                        1611 --	    .bf
                        1612 .LDW52:
                        1613 --435: {
                        1614 --436: 	COM_GetSignalValue_BOOL(INDEX_COM_RS_FICMFUELCSUMPUNTADJRA, &tpms_NetFICMFuelCsumpUntAdjARA);
00000570 1b38           1615 	mov	r27,r7
00000572 20360801       1616 	movea	264,zero,r6
                        1617 	jarl	_COM_GetSignalValue_BOOL,lp
                        1617 <EXPANSION BEGIN>
                        1617 jarl22 _COM_GetSignalValue_BOOL , lp 
00000576 80ff0000*      1617 <EXPANSION END>
                        1618 --437: 	if(FALSE != tpms_NetFICMFuelCsumpUntAdjARA)
                        1619 --line437
                        1620 ..lin.D.3A.5CRenesas_Electronics.5CD1x_RGL.5Crgl_ghs_D1Lx_obj_V1.2E2.2E0.5Cvlib.5Capp.5Cgfx_apps.5Csimple_draw_d1l2.5Ctarget.5Cd1lx_mango_ghs.5Cobj.5Ctpms.68::
                        1621 .LDWlin68:
0000057a bd0f0500       1622 	ld.bu	5[r29],r1
0000057e e009           1623 	cmp	zero,r1
00000580 e20d*          1624 	be	.L1008
                        1625 --438: 	{
                        1626 --439: 		COM_GetSignalValue_8(INDEX_COM_RS_FICMFUELCSUMPUNTADJ, &tpms_NetFICMFuelCsumpUntAdj);
                        1627 --line439
                        1628 ..lin.D.3A.5CRenesas_Electronics.5CD1x_RGL.5Crgl_ghs_D1Lx_obj_V1.2E2.2E0.5Cvlib.5Capp.5Cgfx_apps.5Csimple_draw_d1l2.5Ctarget.5Cd1lx_mango_ghs.5Cobj.5Ctpms.69::
                        1629 .LDWlin69:
00000582 1c38           1630 	mov	r28,r7
00000584 20368d00       1631 	movea	141,zero,r6
                        1632 	jarl	_COM_GetSignalValue_8,lp
                        1632 <EXPANSION BEGIN>
                        1632 jarl22 _COM_GetSignalValue_8 , lp 
00000588 80ff0000*      1632 <EXPANSION END>
                        1633 --440: 		DIAG_SetFuelConUnits(tpms_NetFICMFuelCsumpUntAdj);
                        1634 --line440
                        1635 ..lin.D.3A.5CRenesas_Electronics.5CD1x_RGL.5Crgl_ghs_D1Lx_obj_V1.2E2.2E0.5Cvlib.5Capp.5Cgfx_apps.5Csimple_draw_d1l2.5Ctarget.5Cd1lx_mango_ghs.5Cobj.5Ctpms.70::
                        1636 .LDWlin70:
0000058c bd370100       1637 	ld.bu	1[r29],r6
                        1638 	jarl	_DIAG_SetFuelConUnits,lp
                        1638 <EXPANSION BEGIN>
                        1638 jarl22 _DIAG_SetFuelConUnits , lp 
00000590 80ff0000*      1638 <EXPANSION END>
                        1639 --441: 		tpms_NetClstrFuelCsumpUnt = tpms_NetFICMFuelCsumpUntAdj;
                        1640 --line441
                        1641 ..lin.D.3A.5CRenesas_Electronics.5CD1x_RGL.5Crgl_ghs_D1Lx_obj_V1.2E2.2E0.5Cvlib.5Capp.5Cgfx_apps.5Csimple_draw_d1l2.5Ctarget.5Cd1lx_mango_ghs.5Cobj.5Ctpms.71::

                                                                      Page 30
                                                              C:\Users\YINGAO~1\AppData\Local\Temp\gh_00008t41.si
                        1642 .LDWlin71:
00000594 bd0f0100       1643 	ld.bu	1[r29],r1
00000598 5d0f0900       1644 	st.b	r1,9[r29]
                        1645 .L1008:
                        1646 --442: 	}
                        1647 --443: 	else
                        1648 --444: 	{
                        1649 --445: 		/*do nothing*/
                        1650 --446: 	}
                        1651 --447: }
0000059c 0000           1652 	nop
                        1653 --	    .ef
                        1654 .LDW62:
0000059e 4006ff10       1655 	dispose	0,{r27,r28,r29,r31},[lp]
                        1656 	.type	_tpms_SetFuelConUnitsProcess,@function
                        1657 	.size	_tpms_SetFuelConUnitsProcess,.-_tpms_SetFuelConUnitsProcess
                        1658 	.type	_tpms_SetFuelConUnitsProcess..D.3A.5CRenesas_Electronics.5CD1x_RGL.5Crgl_ghs_D1Lx_obj_V1.2E2.2E0.5Cvlib.5Capp.5Cgfx_apps.5Csimple_draw_d1l2.5Ctarget.5Cd1lx_mango_ghs.5Cobj.5Ctpms.,@function
                        1659 	.size	_tpms_SetFuelConUnitsProcess..D.3A.5CRenesas_Electronics.5CD1x_RGL.5Crgl_ghs_D1Lx_obj_V1.2E2.2E0.5Cvlib.5Capp.5Cgfx_apps.5Csimple_draw_d1l2.5Ctarget.5Cd1lx_mango_ghs.5Cobj.5Ctpms.,.-_tpms_SetFuelConUnitsProcess..D.3A.5CRenesas_Electronics.5CD1x_RGL.5Crgl_ghs_D1Lx_obj_V1.2E2.2E0.5Cvlib.5Capp.5Cgfx_apps.5Csimple_draw_d1l2.5Ctarget.5Cd1lx_mango_ghs.5Cobj.5Ctpms.
                        1660 	.align	2
                        1661 .LDW72:
                        1662 
                        1663 	.data
                        1664 	.text
                        1665 
                        1666 
                        1667 --449: /**************************************************
                        1668 --450: *Function :tpms_SetTemUntProcess
                        1669 --451: *Description: TPMS Set Temp Unit Process
                        1670 --452: *Parameters:none
                        1671 --453: *Returns: none
                        1672 --454: **create&Verlog:
                        1673 --455: *Author Name xs  Date:2017-6-23    Ver:01
                        1674 --456: ***************************************************/
                        1675 --457: static void tpms_SetTemUntProcess(void)
                        1676 	.align	2
                        1677 	.align	2
                        1678 	.global	_tpms_SetTemUntProcess..D.3A.5CRenesas_Electronics.5CD1x_RGL.5Crgl_ghs_D1Lx_obj_V1.2E2.2E0.5Cvlib.5Capp.5Cgfx_apps.5Csimple_draw_d1l2.5Ctarget.5Cd1lx_mango_ghs.5Cobj.5Ctpms.
                        1679 _tpms_SetTemUntProcess..D.3A.5CRenesas_Electronics.5CD1x_RGL.5Crgl_ghs_D1Lx_obj_V1.2E2.2E0.5Cvlib.5Capp.5Cgfx_apps.5Csimple_draw_d1l2.5Ctarget.5Cd1lx_mango_ghs.5Cobj.5Ctpms.:
                        1680 _tpms_SetTemUntProcess:
000005a2 8007e110       1681 	prepare	{r27,r28,r29,r31},0
000005a6 3c0600000000*  1682 	mov	_tpms_NetFICMTemUntAdj,r28
000005ac 1ceefeff       1683 	addi	-2,r28,r29
000005b0 3cde0400       1684 	movea	4,r28,r27
                        1685 --	    .bf
                        1686 .LDW82:
                        1687 --458: {
                        1688 --459: 	COM_GetSignalValue_BOOL(INDEX_COM_RS_FICMTEMUNTADJTREQA, &tpms_NetFICMTemUntAdjtReqA);
000005b4 1b38           1689 	mov	r27,r7
000005b6 20360a01       1690 	movea	266,zero,r6
                        1691 	jarl	_COM_GetSignalValue_BOOL,lp
                        1691 <EXPANSION BEGIN>
                        1691 jarl22 _COM_GetSignalValue_BOOL , lp 
000005ba 80ff0000*      1691 <EXPANSION END>
                        1692 --460: 	if(FALSE != tpms_NetFICMTemUntAdjtReqA)
                        1693 --line460
                        1694 ..lin.D.3A.5CRenesas_Electronics.5CD1x_RGL.5Crgl_ghs_D1Lx_obj_V1.2E2.2E0.5Cvlib.5Capp.5Cgfx_apps.5Csimple_draw_d1l2.5Ctarget.5Cd1lx_mango_ghs.5Cobj.5Ctpms.72::
                        1695 .LDWlin72:
000005be 9d0f0700       1696 	ld.bu	6[r29],r1
000005c2 e009           1697 	cmp	zero,r1
000005c4 e20d*          1698 	be	.L1056
                        1699 --461: 	{

                                                                      Page 31
                                                              C:\Users\YINGAO~1\AppData\Local\Temp\gh_00008t41.si
                        1700 --462: 		COM_GetSignalValue_8(INDEX_COM_RS_FICMTEMUNTADJ, &tpms_NetFICMTemUntAdj);
                        1701 --line462
                        1702 ..lin.D.3A.5CRenesas_Electronics.5CD1x_RGL.5Crgl_ghs_D1Lx_obj_V1.2E2.2E0.5Cvlib.5Capp.5Cgfx_apps.5Csimple_draw_d1l2.5Ctarget.5Cd1lx_mango_ghs.5Cobj.5Ctpms.73::
                        1703 .LDWlin73:
000005c6 1c38           1704 	mov	r28,r7
000005c8 20369000       1705 	movea	144,zero,r6
                        1706 	jarl	_COM_GetSignalValue_8,lp
                        1706 <EXPANSION BEGIN>
                        1706 jarl22 _COM_GetSignalValue_8 , lp 
000005cc 80ff0000*      1706 <EXPANSION END>
                        1707 --463: 		DIAG_SetTempUnits(tpms_NetFICMTemUntAdj);
                        1708 --line463
                        1709 ..lin.D.3A.5CRenesas_Electronics.5CD1x_RGL.5Crgl_ghs_D1Lx_obj_V1.2E2.2E0.5Cvlib.5Capp.5Cgfx_apps.5Csimple_draw_d1l2.5Ctarget.5Cd1lx_mango_ghs.5Cobj.5Ctpms.74::
                        1710 .LDWlin74:
000005d0 9d370300       1711 	ld.bu	2[r29],r6
                        1712 	jarl	_DIAG_SetTempUnits,lp
                        1712 <EXPANSION BEGIN>
                        1712 jarl22 _DIAG_SetTempUnits , lp 
000005d4 80ff0000*      1712 <EXPANSION END>
                        1713 --464: 		tpms_NetClstrTemUnt = tpms_NetFICMTemUntAdj;
                        1714 --line464
                        1715 ..lin.D.3A.5CRenesas_Electronics.5CD1x_RGL.5Crgl_ghs_D1Lx_obj_V1.2E2.2E0.5Cvlib.5Capp.5Cgfx_apps.5Csimple_draw_d1l2.5Ctarget.5Cd1lx_mango_ghs.5Cobj.5Ctpms.75::
                        1716 .LDWlin75:
000005d8 9d0f0300       1717 	ld.bu	2[r29],r1
000005dc 5d0f0a00       1718 	st.b	r1,10[r29]
                        1719 .L1056:
                        1720 --465: 	}
                        1721 --466: 	else
                        1722 --467: 	{
                        1723 --468: 		/*do nothing*/
                        1724 --469: 	}
                        1725 --470: }
000005e0 0000           1726 	nop
                        1727 --	    .ef
                        1728 .LDW92:
000005e2 4006ff10       1729 	dispose	0,{r27,r28,r29,r31},[lp]
                        1730 	.type	_tpms_SetTemUntProcess,@function
                        1731 	.size	_tpms_SetTemUntProcess,.-_tpms_SetTemUntProcess
                        1732 	.type	_tpms_SetTemUntProcess..D.3A.5CRenesas_Electronics.5CD1x_RGL.5Crgl_ghs_D1Lx_obj_V1.2E2.2E0.5Cvlib.5Capp.5Cgfx_apps.5Csimple_draw_d1l2.5Ctarget.5Cd1lx_mango_ghs.5Cobj.5Ctpms.,@function
                        1733 	.size	_tpms_SetTemUntProcess..D.3A.5CRenesas_Electronics.5CD1x_RGL.5Crgl_ghs_D1Lx_obj_V1.2E2.2E0.5Cvlib.5Capp.5Cgfx_apps.5Csimple_draw_d1l2.5Ctarget.5Cd1lx_mango_ghs.5Cobj.5Ctpms.,.-_tpms_SetTemUntProcess..D.3A.5CRenesas_Electronics.5CD1x_RGL.5Crgl_ghs_D1Lx_obj_V1.2E2.2E0.5Cvlib.5Capp.5Cgfx_apps.5Csimple_draw_d1l2.5Ctarget.5Cd1lx_mango_ghs.5Cobj.5Ctpms.
                        1734 	.align	2
                        1735 .LDW03:
                        1736 
                        1737 	.data
                        1738 	.text
                        1739 
                        1740 
                        1741 --472: /**************************************************
                        1742 --473: *Function :tpms_SetTyrePressureUntProcess
                        1743 --474: *Description: TPMS Set TyrePressure Unit Process
                        1744 --475: *Parameters:none
                        1745 --476: *Returns: none
                        1746 --477: **create&Verlog:
                        1747 --478: *Author Name xs  Date:2017-6-23    Ver:01
                        1748 --479: ***************************************************/
                        1749 --480: static void tpms_SetTyrePressureUntProcess(void)
                        1750 	.align	2
                        1751 	.align	2
                        1752 	.global	_tpms_SetTyrePressureUntProcess..D.3A.5CRenesas_Electronics.5CD1x_RGL.5Crgl_ghs_D1Lx_obj_V1.2E2.2E0.5Cvlib.5Capp.5Cgfx_apps.5Csimple_draw_d1l2.5Ctarget.5Cd1lx_mango_ghs.5Cobj.5Ctpms.
                        1753 _tpms_SetTyrePressureUntProcess..D.3A.5CRenesas_Electronics.5CD1x_RGL.5Crgl_ghs_D1Lx_obj_V1.2E2.2E0.5Cvlib.5Capp.5Cgfx_apps.5Csimple_draw_d1l2.5Ctarget.5Cd1lx_mango_ghs.5Cobj.5Ctpms.:
                        1754 _tpms_SetTyrePressureUntProcess:

                                                                      Page 32
                                                              C:\Users\YINGAO~1\AppData\Local\Temp\gh_00008t41.si
000005e6 8007e110       1755 	prepare	{r27,r28,r29,r31},0
000005ea 3c0600000000*  1756 	mov	_tpms_NetFICMTyrePressureUntAdj,r28
000005f0 1ceefdff       1757 	addi	-3,r28,r29
000005f4 3cde0400       1758 	movea	4,r28,r27
                        1759 --	    .bf
                        1760 .LDW13:
                        1761 --481: {
                        1762 --482: 	COM_GetSignalValue_BOOL(INDEX_COM_RS_FICMTYREPRESSUREUNTADJTREQA, &tpms_NetFICMTyrePressureUntAdjtReqA);
000005f8 1b38           1763 	mov	r27,r7
000005fa 20360b01       1764 	movea	267,zero,r6
                        1765 	jarl	_COM_GetSignalValue_BOOL,lp
                        1765 <EXPANSION BEGIN>
                        1765 jarl22 _COM_GetSignalValue_BOOL , lp 
000005fe 80ff0000*      1765 <EXPANSION END>
                        1766 --483: 	if(FALSE != tpms_NetFICMTyrePressureUntAdjtReqA)
                        1767 --line483
                        1768 ..lin.D.3A.5CRenesas_Electronics.5CD1x_RGL.5Crgl_ghs_D1Lx_obj_V1.2E2.2E0.5Cvlib.5Capp.5Cgfx_apps.5Csimple_draw_d1l2.5Ctarget.5Cd1lx_mango_ghs.5Cobj.5Ctpms.76::
                        1769 .LDWlin76:
00000602 bd0f0700       1770 	ld.bu	7[r29],r1
00000606 e009           1771 	cmp	zero,r1
00000608 e20d*          1772 	be	.L1104
                        1773 --484: 	{
                        1774 --485: 		COM_GetSignalValue_8(INDEX_COM_RS_FICMTYREPRESSUREUNTADJ, &tpms_NetFICMTyrePressureUntAdj);
                        1775 --line485
                        1776 ..lin.D.3A.5CRenesas_Electronics.5CD1x_RGL.5Crgl_ghs_D1Lx_obj_V1.2E2.2E0.5Cvlib.5Capp.5Cgfx_apps.5Csimple_draw_d1l2.5Ctarget.5Cd1lx_mango_ghs.5Cobj.5Ctpms.77::
                        1777 .LDWlin77:
0000060a 1c38           1778 	mov	r28,r7
0000060c 20369100       1779 	movea	145,zero,r6
                        1780 	jarl	_COM_GetSignalValue_8,lp
                        1780 <EXPANSION BEGIN>
                        1780 jarl22 _COM_GetSignalValue_8 , lp 
00000610 80ff0000*      1780 <EXPANSION END>
                        1781 --486: 		DIAG_SetTyrePresUnits(tpms_NetFICMTyrePressureUntAdj);
                        1782 --line486
                        1783 ..lin.D.3A.5CRenesas_Electronics.5CD1x_RGL.5Crgl_ghs_D1Lx_obj_V1.2E2.2E0.5Cvlib.5Capp.5Cgfx_apps.5Csimple_draw_d1l2.5Ctarget.5Cd1lx_mango_ghs.5Cobj.5Ctpms.78::
                        1784 .LDWlin78:
00000614 bd370300       1785 	ld.bu	3[r29],r6
                        1786 	jarl	_DIAG_SetTyrePresUnits,lp
                        1786 <EXPANSION BEGIN>
                        1786 jarl22 _DIAG_SetTyrePresUnits , lp 
00000618 80ff0000*      1786 <EXPANSION END>
                        1787 --487: 		tpms_NetClstrTyrePressureUnt = tpms_NetFICMTyrePressureUntAdj;
                        1788 --line487
                        1789 ..lin.D.3A.5CRenesas_Electronics.5CD1x_RGL.5Crgl_ghs_D1Lx_obj_V1.2E2.2E0.5Cvlib.5Capp.5Cgfx_apps.5Csimple_draw_d1l2.5Ctarget.5Cd1lx_mango_ghs.5Cobj.5Ctpms.79::
                        1790 .LDWlin79:
0000061c bd0f0300       1791 	ld.bu	3[r29],r1
00000620 5d0f0b00       1792 	st.b	r1,11[r29]
                        1793 .L1104:
                        1794 --488: 	}
                        1795 --489: 	else
                        1796 --490: 	{
                        1797 --491: 		/*do nothing*/
                        1798 --492: 	}
                        1799 --493: }
00000624 0000           1800 	nop
                        1801 --	    .ef
                        1802 .LDW23:
00000626 4006ff10       1803 	dispose	0,{r27,r28,r29,r31},[lp]
                        1804 	.type	_tpms_SetTyrePressureUntProcess,@function
                        1805 	.size	_tpms_SetTyrePressureUntProcess,.-_tpms_SetTyrePressureUntProcess
                        1806 	.type	_tpms_SetTyrePressureUntProcess..D.3A.5CRenesas_Electronics.5CD1x_RGL.5Crgl_ghs_D1Lx_obj_V1.2E2.2E0.5Cvlib.5Capp.5Cgfx_apps.5Csimple_draw_d1l2.5Ctarget.5Cd1lx_mango_ghs.5Cobj.5Ctpms.,@function

                                                                      Page 33
                                                              C:\Users\YINGAO~1\AppData\Local\Temp\gh_00008t41.si
                        1807 	.size	_tpms_SetTyrePressureUntProcess..D.3A.5CRenesas_Electronics.5CD1x_RGL.5Crgl_ghs_D1Lx_obj_V1.2E2.2E0.5Cvlib.5Capp.5Cgfx_apps.5Csimple_draw_d1l2.5Ctarget.5Cd1lx_mango_ghs.5Cobj.5Ctpms.,.-_tpms_SetTyrePressureUntProcess..D.3A.5CRenesas_Electronics.5CD1x_RGL.5Crgl_ghs_D1Lx_obj_V1.2E2.2E0.5Cvlib.5Capp.5Cgfx_apps.5Csimple_draw_d1l2.5Ctarget.5Cd1lx_mango_ghs.5Cobj.5Ctpms.
                        1808 	.align	2
                        1809 .LDW33:
                        1810 
                        1811 	.data
                        1812 	.text
                        1813 
                        1814 
                        1815 --496: /**************************************************
                        1816 --497: *Function :TPMS_SendNetSignal_100ms
                        1817 --498: *Description: TPMS Send Tire Value and Status Signal  Process
                        1818 --499: *Parameters:none
                        1819 --500: *Returns: none
                        1820 --501: **create&Verlog:
                        1821 --502: *Author Name xs  Date:2017-6-23    Ver:01
                        1822 --503: ***************************************************/
                        1823 --504: void TPMS_SendNetSignal_100ms(void)
                        1824 	.align	2
                        1825 	.align	2
                        1826 	.global	_TPMS_SendNetSignal_100ms
                        1827 _TPMS_SendNetSignal_100ms:
0000062a 80076100       1828 	prepare	{r29,r31},0
0000062e 3d0600000000*  1829 	mov	_tpms_NetClstrDspdFLTirePrs,r29
                        1830 --	    .bf
                        1831 .LDW43:
                        1832 --505: {
                        1833 --506:     v_wr_8(ClstrDspdFLTirePrs_handle, tpms_NetClstrDspdFLTirePrs);
00000634 270600000000*  1834 	mov	_tpms_NetClstrDspdFLTirePrs,r7
0000063a 873f0100       1835 	ld.bu	0[r7],r7
0000063e 2606b82a3f00   1836 	mov	4139704,r6
                        1837 	jarl	_v_wr_8,lp
                        1837 <EXPANSION BEGIN>
                        1837 jarl22 _v_wr_8 , lp 
00000644 80ff0000*      1837 <EXPANSION END>
                        1838 --507:     v_wr_8(ClstrDspdFLTireSts_handle, tpms_NetClstrDspdFLTireSts);
                        1839 --line507
                        1840 ..lin.D.3A.5CRenesas_Electronics.5CD1x_RGL.5Crgl_ghs_D1Lx_obj_V1.2E2.2E0.5Cvlib.5Capp.5Cgfx_apps.5Csimple_draw_d1l2.5Ctarget.5Cd1lx_mango_ghs.5Cobj.5Ctpms.80::
                        1841 .LDWlin80:
00000648 9d3f0500       1842 	ld.bu	4[r29],r7
0000064c 2606dc2a3f00   1843 	mov	4139740,r6
                        1844 	jarl	_v_wr_8,lp
                        1844 <EXPANSION BEGIN>
                        1844 jarl22 _v_wr_8 , lp 
00000652 80ff0000*      1844 <EXPANSION END>
                        1845 --508:     v_wr_8(ClstrDspdFRTirePrs_handle, tpms_NetClstrDspdFRTirePrs);
                        1846 --line508
                        1847 ..lin.D.3A.5CRenesas_Electronics.5CD1x_RGL.5Crgl_ghs_D1Lx_obj_V1.2E2.2E0.5Cvlib.5Capp.5Cgfx_apps.5Csimple_draw_d1l2.5Ctarget.5Cd1lx_mango_ghs.5Cobj.5Ctpms.81::
                        1848 .LDWlin81:
00000656 bd3f0100       1849 	ld.bu	1[r29],r7
0000065a 2606002b3f00   1850 	mov	4139776,r6
                        1851 	jarl	_v_wr_8,lp
                        1851 <EXPANSION BEGIN>
                        1851 jarl22 _v_wr_8 , lp 
00000660 80ff0000*      1851 <EXPANSION END>
                        1852 --509:     v_wr_8(ClstrDspdFRTireSts_handle, tpms_NetClstrDspdFRTireSts);
                        1853 --line509
                        1854 ..lin.D.3A.5CRenesas_Electronics.5CD1x_RGL.5Crgl_ghs_D1Lx_obj_V1.2E2.2E0.5Cvlib.5Capp.5Cgfx_apps.5Csimple_draw_d1l2.5Ctarget.5Cd1lx_mango_ghs.5Cobj.5Ctpms.82::
                        1855 .LDWlin82:
00000664 bd3f0500       1856 	ld.bu	5[r29],r7
00000668 2606242b3f00   1857 	mov	4139812,r6
                        1858 	jarl	_v_wr_8,lp

                                                                      Page 34
                                                              C:\Users\YINGAO~1\AppData\Local\Temp\gh_00008t41.si
                        1858 <EXPANSION BEGIN>
                        1858 jarl22 _v_wr_8 , lp 
0000066e 80ff0000*      1858 <EXPANSION END>
                        1859 --510:     v_wr_8(ClstrDspdRLTirePrs_handle, tpms_NetClstrDspdRLTirePrs);
                        1860 --line510
                        1861 ..lin.D.3A.5CRenesas_Electronics.5CD1x_RGL.5Crgl_ghs_D1Lx_obj_V1.2E2.2E0.5Cvlib.5Capp.5Cgfx_apps.5Csimple_draw_d1l2.5Ctarget.5Cd1lx_mango_ghs.5Cobj.5Ctpms.83::
                        1862 .LDWlin83:
00000672 bd3f0300       1863 	ld.bu	3[r29],r7
00000676 2606f42d3f00   1864 	mov	4140532,r6
                        1865 	jarl	_v_wr_8,lp
                        1865 <EXPANSION BEGIN>
                        1865 jarl22 _v_wr_8 , lp 
0000067c 80ff0000*      1865 <EXPANSION END>
                        1866 --511:     v_wr_8(ClstrDspdRLTireSts_handle, tpms_NetClstrDspdRLTireSts);
                        1867 --line511
                        1868 ..lin.D.3A.5CRenesas_Electronics.5CD1x_RGL.5Crgl_ghs_D1Lx_obj_V1.2E2.2E0.5Cvlib.5Capp.5Cgfx_apps.5Csimple_draw_d1l2.5Ctarget.5Cd1lx_mango_ghs.5Cobj.5Ctpms.84::
                        1869 .LDWlin84:
00000680 bd3f0700       1870 	ld.bu	7[r29],r7
00000684 2606182e3f00   1871 	mov	4140568,r6
                        1872 	jarl	_v_wr_8,lp
                        1872 <EXPANSION BEGIN>
                        1872 jarl22 _v_wr_8 , lp 
0000068a 80ff0000*      1872 <EXPANSION END>
                        1873 --512:     v_wr_8(ClstrDspdRRTirePrs_handle, tpms_NetClstrDspdRRTirePrs);
                        1874 --line512
                        1875 ..lin.D.3A.5CRenesas_Electronics.5CD1x_RGL.5Crgl_ghs_D1Lx_obj_V1.2E2.2E0.5Cvlib.5Capp.5Cgfx_apps.5Csimple_draw_d1l2.5Ctarget.5Cd1lx_mango_ghs.5Cobj.5Ctpms.85::
                        1876 .LDWlin85:
0000068e 9d3f0300       1877 	ld.bu	2[r29],r7
00000692 2606602e3f00   1878 	mov	4140640,r6
                        1879 	jarl	_v_wr_8,lp
                        1879 <EXPANSION BEGIN>
                        1879 jarl22 _v_wr_8 , lp 
00000698 80ff0000*      1879 <EXPANSION END>
                        1880 --513:     v_wr_8(ClstrDspdRRTireSts_handle, tpms_NetClstrDspdRRTireSts);
                        1881 --line513
                        1882 ..lin.D.3A.5CRenesas_Electronics.5CD1x_RGL.5Crgl_ghs_D1Lx_obj_V1.2E2.2E0.5Cvlib.5Capp.5Cgfx_apps.5Csimple_draw_d1l2.5Ctarget.5Cd1lx_mango_ghs.5Cobj.5Ctpms.86::
                        1883 .LDWlin86:
0000069c 9d3f0700       1884 	ld.bu	6[r29],r7
000006a0 2606842e3f00   1885 	mov	4140676,r6
                        1886 	jarl	_v_wr_8,lp
                        1886 <EXPANSION BEGIN>
                        1886 jarl22 _v_wr_8 , lp 
000006a6 80ff0000*      1886 <EXPANSION END>
                        1887 --514: }
                        1888 --line514
                        1889 ..lin.D.3A.5CRenesas_Electronics.5CD1x_RGL.5Crgl_ghs_D1Lx_obj_V1.2E2.2E0.5Cvlib.5Capp.5Cgfx_apps.5Csimple_draw_d1l2.5Ctarget.5Cd1lx_mango_ghs.5Cobj.5Ctpms.87::
                        1890 .LDWlin87:
000006aa 0000           1891 	nop
                        1892 --	    .ef
                        1893 .LDW53:
000006ac 40067f00       1894 	dispose	0,{r29,r31},[lp]
                        1895 	.type	_TPMS_SendNetSignal_100ms,@function
                        1896 	.size	_TPMS_SendNetSignal_100ms,.-_TPMS_SendNetSignal_100ms
                        1897 	.align	2
                        1898 .LDW63:
                        1899 
                        1900 	.data
                        1901 	.text
                        1902 
                        1903 
                        1904 --516: /**************************************************

                                                                      Page 35
                                                              C:\Users\YINGAO~1\AppData\Local\Temp\gh_00008t41.si
                        1905 --517: *Function :TPMS_SendUnitSignal_50ms
                        1906 --518: *Description: TPMS Send Tire Dist temp Fuel Unit Signal  Process
                        1907 --519: *Parameters:none
                        1908 --520: *Returns: none
                        1909 --521: **create&Verlog:
                        1910 --522: *Author Name xs  Date:2017-6-23    Ver:01
                        1911 --523: ***************************************************/
                        1912 --524: void TPMS_SendUnitSignal_50ms(void)
                        1913 	.align	2
                        1914 	.align	2
                        1915 	.global	_TPMS_SendUnitSignal_50ms
                        1916 _TPMS_SendUnitSignal_50ms:
000006b0 80076100       1917 	prepare	{r29,r31},0
000006b4 3d0600000000*  1918 	mov	_tpms_NetClstrDistUnt,r29
                        1919 --	    .bf
                        1920 .LDW73:
                        1921 --525: {
                        1922 --526: 	v_wr_8(ClstrDistUnt_handle, tpms_NetClstrDistUnt);
000006ba 270600000000*  1923 	mov	_tpms_NetClstrDistUnt,r7
000006c0 873f0100       1924 	ld.bu	0[r7],r7
000006c4 26069c283f00   1925 	mov	4139164,r6
                        1926 	jarl	_v_wr_8,lp
                        1926 <EXPANSION BEGIN>
                        1926 jarl22 _v_wr_8 , lp 
000006ca 80ff0000*      1926 <EXPANSION END>
                        1927 --527: 	v_wr_8(ClstrFuelCsumpUnt_handle, tpms_NetClstrFuelCsumpUnt);
                        1928 --line527
                        1929 ..lin.D.3A.5CRenesas_Electronics.5CD1x_RGL.5Crgl_ghs_D1Lx_obj_V1.2E2.2E0.5Cvlib.5Capp.5Cgfx_apps.5Csimple_draw_d1l2.5Ctarget.5Cd1lx_mango_ghs.5Cobj.5Ctpms.88::
                        1930 .LDWlin88:
000006ce bd3f0100       1931 	ld.bu	1[r29],r7
000006d2 260634303f00   1932 	mov	4141108,r6
                        1933 	jarl	_v_wr_8,lp
                        1933 <EXPANSION BEGIN>
                        1933 jarl22 _v_wr_8 , lp 
000006d8 80ff0000*      1933 <EXPANSION END>
                        1934 --528: 	v_wr_8(ClstrTemUnt_handle, tpms_NetClstrTemUnt);
                        1935 --line528
                        1936 ..lin.D.3A.5CRenesas_Electronics.5CD1x_RGL.5Crgl_ghs_D1Lx_obj_V1.2E2.2E0.5Cvlib.5Capp.5Cgfx_apps.5Csimple_draw_d1l2.5Ctarget.5Cd1lx_mango_ghs.5Cobj.5Ctpms.89::
                        1937 .LDWlin89:
000006dc 9d3f0300       1938 	ld.bu	2[r29],r7
000006e0 2606a0303f00   1939 	mov	4141216,r6
                        1940 	jarl	_v_wr_8,lp
                        1940 <EXPANSION BEGIN>
                        1940 jarl22 _v_wr_8 , lp 
000006e6 80ff0000*      1940 <EXPANSION END>
                        1941 --529: 	v_wr_8(ClstrTyrePressureUnt_handle, tpms_NetClstrTyrePressureUnt);
                        1942 --line529
                        1943 ..lin.D.3A.5CRenesas_Electronics.5CD1x_RGL.5Crgl_ghs_D1Lx_obj_V1.2E2.2E0.5Cvlib.5Capp.5Cgfx_apps.5Csimple_draw_d1l2.5Ctarget.5Cd1lx_mango_ghs.5Cobj.5Ctpms.90::
                        1944 .LDWlin90:
000006ea bd3f0300       1945 	ld.bu	3[r29],r7
000006ee 2606c4303f00   1946 	mov	4141252,r6
                        1947 	jarl	_v_wr_8,lp
                        1947 <EXPANSION BEGIN>
                        1947 jarl22 _v_wr_8 , lp 
000006f4 80ff0000*      1947 <EXPANSION END>
                        1948 --530: }	
                        1949 --line530
                        1950 ..lin.D.3A.5CRenesas_Electronics.5CD1x_RGL.5Crgl_ghs_D1Lx_obj_V1.2E2.2E0.5Cvlib.5Capp.5Cgfx_apps.5Csimple_draw_d1l2.5Ctarget.5Cd1lx_mango_ghs.5Cobj.5Ctpms.91::
                        1951 .LDWlin91:
000006f8 0000           1952 	nop
                        1953 --	    .ef

                                                                      Page 36
                                                              C:\Users\YINGAO~1\AppData\Local\Temp\gh_00008t41.si
                        1954 .LDW83:
000006fa 40067f00       1955 	dispose	0,{r29,r31},[lp]
                        1956 	.type	_TPMS_SendUnitSignal_50ms,@function
                        1957 	.size	_TPMS_SendUnitSignal_50ms,.-_TPMS_SendUnitSignal_50ms
                        1958 	.align	2
                        1959 .LDW93:
                        1960 
                        1961 	.data
                        1962 	.text
                        1963 
                        1964 
                        1965 --532: /**************************************************
                        1966 --533: *Function :TPMS_GetTPMSWarnSts
                        1967 --534: *Description: TPMS interface for Get Tire Warn Type
                        1968 --535: *Parameters:none
                        1969 --536: *Returns: none
                        1970 --537: **create&Verlog:
                        1971 --538: *Author Name xs  Date:2017-6-23    Ver:01
                        1972 --539: ***************************************************/
                        1973 --540: U8 TPMS_GetTPMSWarnSts(TPMS_WarnType_ST *Sts)
                        1974 	.align	2
                        1975 	.align	2
                        1976 	.global	_TPMS_GetTPMSWarnSts
                        1977 _TPMS_GetTPMSWarnSts:
000006fe 06f0           1978 	mov	r6,ep
                        1979 --	    .bf
                        1980 .LDW04:
                        1981 --541: {
                        1982 --542: 	U8 res = RET_FAIL;
00000700 000a           1983 	mov	0,r1
                        1984 --543: 	
                        1985 --544: 	if (FALSE == tpms_InitSts)
00000702 2e0600000000*  1986 	mov	_tpms_InitSts,r14
00000708 8e770100       1987 	ld.bu	0[r14],r14
0000070c e071           1988 	cmp	zero,r14
0000070e ba05*          1989 	bne	.L1257
                        1990 --545: 	{
                        1991 --546:         res = RET_FAIL;
                        1992 --line546
                        1993 ..lin.D.3A.5CRenesas_Electronics.5CD1x_RGL.5Crgl_ghs_D1Lx_obj_V1.2E2.2E0.5Cvlib.5Capp.5Cgfx_apps.5Csimple_draw_d1l2.5Ctarget.5Cd1lx_mango_ghs.5Cobj.5Ctpms.92::
                        1994 .LDWlin92:
00000710 000a           1995 	mov	0,r1
00000712 c50d*          1996 	br	.L1259
                        1997 .L1257:
                        1998 --547:     }
                        1999 --548:     else if (NULL_PTR == Sts)
                        2000 --line548
                        2001 ..lin.D.3A.5CRenesas_Electronics.5CD1x_RGL.5Crgl_ghs_D1Lx_obj_V1.2E2.2E0.5Cvlib.5Capp.5Cgfx_apps.5Csimple_draw_d1l2.5Ctarget.5Cd1lx_mango_ghs.5Cobj.5Ctpms.93::
                        2002 .LDWlin93:
00000714 e0f1           2003 	cmp	zero,ep
00000716 ba05*          2004 	bne	.L1260
                        2005 --549:     {
                        2006 --550:         res = RET_INVALID;
                        2007 --line550
                        2008 ..lin.D.3A.5CRenesas_Electronics.5CD1x_RGL.5Crgl_ghs_D1Lx_obj_V1.2E2.2E0.5Cvlib.5Capp.5Cgfx_apps.5Csimple_draw_d1l2.5Ctarget.5Cd1lx_mango_ghs.5Cobj.5Ctpms.94::
                        2009 .LDWlin94:
00000718 020a           2010 	mov	2,r1
0000071a 850d*          2011 	br	.L1259
                        2012 .L1260:
                        2013 --551:     }
                        2014 --552:     else

                                                                      Page 37
                                                              C:\Users\YINGAO~1\AppData\Local\Temp\gh_00008t41.si
                        2015 --553:     {
                        2016 --554:     	*Sts = tpmsWrnngStatus;
                        2017 --line554
                        2018 ..lin.D.3A.5CRenesas_Electronics.5CD1x_RGL.5Crgl_ghs_D1Lx_obj_V1.2E2.2E0.5Cvlib.5Capp.5Cgfx_apps.5Csimple_draw_d1l2.5Ctarget.5Cd1lx_mango_ghs.5Cobj.5Ctpms.95::
                        2019 .LDWlin95:
0000071c 2e0600000000*  2020 	mov	_tpmsWrnngStatus,r14
00000722 8e770100       2021 	ld.bu	0[r14],r14
00000726 8073           2022 	sst.b	r14,0[ep]
                        2023 --555:         res = RET_OK;
00000728 010a           2024 	mov	1,r1
                        2025 .L1259:
                        2026 --556:     }
                        2027 --557: 	
                        2028 --558:     return res;
0000072a 0150           2029 	mov	r1,r10
                        2030 --	    .ef
                        2031 .LDW14:
0000072c 7f00           2032 	jmp	[lp]
                        2033 	.type	_TPMS_GetTPMSWarnSts,@function
                        2034 	.size	_TPMS_GetTPMSWarnSts,.-_TPMS_GetTPMSWarnSts
                        2035 	.align	2
                        2036 .LDW24:
                        2037 --_res	r1	local
                        2038 
                        2039 --_Sts	ep	param
                        2040 
                        2041 	.data
                        2042 	.text
                        2043 
                        2044 --559: }
                        2045 
                        2046 --561: /**************************************************
                        2047 --562: *Function :TPMS_GetTPMSDATA
                        2048 --563: *Description: Get tpms data
                        2049 --564: *Parameters:output
                        2050 --565: *Returns: RET_OK
                        2051 --566: **create&Verlog:
                        2052 --567: *Author Name xs  Date:2017-6-23    Ver:01
                        2053 --568: ***************************************************/
                        2054 --570: U8 TPMS_GetTPMSDATA(Dm_TC_TirePress_ST *pData)
                        2055 	.align	2
                        2056 	.align	2
                        2057 	.global	_TPMS_GetTPMSDATA
                        2058 _TPMS_GetTPMSDATA:
0000072e 8807e170       2059 	prepare	{r25,r26,r27,r28,r29,r31},4
00000732 3d0600000000*  2060 	mov	_tpms_NetFLTirePrs,r29
00000738 06e0           2061 	mov	r6,r28
0000073a 3dde1a00       2062 	movea	26,r29,r27
0000073e 3dd61700       2063 	movea	23,r29,r26
00000742 3dce1400       2064 	movea	20,r29,r25
                        2065 --	    .bf
                        2066 .LDW34:
                        2067 --571: {
                        2068 --572: 	BOOL bValue;
                        2069 --573:     COM_GetSignalValue_BOOL(INDEX_COM_RS_TPMSWNTRMDA, &bValue);
00000746 20363100       2070 	movea	49,zero,r6
0000074a 233e0300       2071 	movea	3,sp,r7
                        2072 	jarl	_COM_GetSignalValue_BOOL,lp
                        2072 <EXPANSION BEGIN>
                        2072 jarl22 _COM_GetSignalValue_BOOL , lp 
0000074e 80ff0000*      2072 <EXPANSION END>

                                                                      Page 38
                                                              C:\Users\YINGAO~1\AppData\Local\Temp\gh_00008t41.si
                        2073 --575:     if(FALSE == bValue)
                        2074 --line575
                        2075 ..lin.D.3A.5CRenesas_Electronics.5CD1x_RGL.5Crgl_ghs_D1Lx_obj_V1.2E2.2E0.5Cvlib.5Capp.5Cgfx_apps.5Csimple_draw_d1l2.5Ctarget.5Cd1lx_mango_ghs.5Cobj.5Ctpms.96::
                        2076 .LDWlin96:
00000752 a30f0300       2077 	ld.bu	3[sp],r1
00000756 e009           2078 	cmp	zero,r1
00000758 da55*          2079 	bne	.L1320
                        2080 --576: 	{
                        2081 --577: 		pData->FLTirePressV = tpms_NetFLTirePrsV;
                        2082 --line577
                        2083 ..lin.D.3A.5CRenesas_Electronics.5CD1x_RGL.5Crgl_ghs_D1Lx_obj_V1.2E2.2E0.5Cvlib.5Capp.5Cgfx_apps.5Csimple_draw_d1l2.5Ctarget.5Cd1lx_mango_ghs.5Cobj.5Ctpms.97::
                        2084 .LDWlin97:
0000075a 9d0f1100       2085 	ld.bu	16[r29],r1
0000075e 5c0f0000       2086 	st.b	r1,0[r28]
                        2087 --578: 		pData->FLTireTempV = tpms_NetFLTireTemV;
00000762 9d0f1300       2088 	ld.bu	18[r29],r1
00000766 5c0f0100       2089 	st.b	r1,1[r28]
                        2090 --579: 		pData->FRTirePressV = tpms_NetFRTirePrsV;
0000076a bd0f1300       2091 	ld.bu	19[r29],r1
0000076e 5c0f0200       2092 	st.b	r1,2[r28]
                        2093 --580: 		pData->FRTireTempV = tpms_NetFRTireTemV;
00000772 bd0f1500       2094 	ld.bu	21[r29],r1
00000776 5c0f0300       2095 	st.b	r1,3[r28]
                        2096 --581: 		pData->RLTirePressV = tpms_NetRLTirePrsV;
0000077a 9d0f1700       2097 	ld.bu	22[r29],r1
0000077e 5c0f0400       2098 	st.b	r1,4[r28]
                        2099 --582: 		pData->RLTireTempV = tpms_NetRLTireTemV;
00000782 9d0f1900       2100 	ld.bu	24[r29],r1
00000786 5c0f0500       2101 	st.b	r1,5[r28]
                        2102 --583: 		pData->RRTirePressV = tpms_NetRRTirePrsV;
0000078a bd0f1900       2103 	ld.bu	25[r29],r1
0000078e 5c0f0600       2104 	st.b	r1,6[r28]
                        2105 --584: 		pData->RRTireTempV = tpms_NetRRTireTemV;
00000792 bd0f1b00       2106 	ld.bu	27[r29],r1
00000796 5c0f0700       2107 	st.b	r1,7[r28]
                        2108 --585: 		pData->FLTirePress = tpms_NetFLTirePrs;
0000079a 210600000000*  2109 	mov	_tpms_NetFLTirePrs,r1
000007a0 e10f0100       2110 	ld.hu	0[r1],r1
000007a4 7c0f0800       2111 	st.h	r1,8[r28]
                        2112 --586: 		pData->FLTireTemp = tpms_NetFLTireTem;
000007a8 3d0f0200       2113 	ld.h	2[r29],r1
000007ac 7c0f0a00       2114 	st.h	r1,10[r28]
                        2115 --587: 		pData->FRTirePress = tpms_NetFRTirePrs;
000007b0 fd0f0500       2116 	ld.hu	4[r29],r1
000007b4 7c0f0c00       2117 	st.h	r1,12[r28]
                        2118 --588: 		pData->FRTireTemp = tpms_NetFRTireTem ;
000007b8 3d0f0600       2119 	ld.h	6[r29],r1
000007bc 7c0f0e00       2120 	st.h	r1,14[r28]
                        2121 --589: 		pData->RLTirePress = tpms_NetRLTirePrs;
000007c0 fd0f0900       2122 	ld.hu	8[r29],r1
000007c4 7c0f1000       2123 	st.h	r1,16[r28]
                        2124 --590: 		pData->RLTireTemp = tpms_NetRLTireTem;
000007c8 3d0f0a00       2125 	ld.h	10[r29],r1
000007cc 7c0f1200       2126 	st.h	r1,18[r28]
                        2127 --591: 		pData->RRTirePress = tpms_NetRRTirePrs;
000007d0 fd0f0d00       2128 	ld.hu	12[r29],r1
000007d4 7c0f1400       2129 	st.h	r1,20[r28]
                        2130 --592: 		pData->RRTireTemp = tpms_NetRRTireTem;
000007d8 3d0f0e00       2131 	ld.h	14[r29],r1
000007dc 7c0f1600       2132 	st.h	r1,22[r28]
                        2133 --593: 		pData->FLTireSts = tpms_NetFLTireSts;

                                                                      Page 39
                                                              C:\Users\YINGAO~1\AppData\Local\Temp\gh_00008t41.si
000007e0 bd0f1100       2134 	ld.bu	17[r29],r1
000007e4 5c0f1800       2135 	st.b	r1,24[r28]
                        2136 --594: 		pData->FRTireSts = tpms_NetFRTireSts;
000007e8 9d0f1500       2137 	ld.bu	20[r29],r1
000007ec 5c0f1900       2138 	st.b	r1,25[r28]
                        2139 --595: 		pData->RLTireSts = tpms_NetRLTireSts;
000007f0 bd0f1700       2140 	ld.bu	23[r29],r1
000007f4 5c0f1a00       2141 	st.b	r1,26[r28]
                        2142 --596: 		pData->RRTireSts = tpms_NetRRTireSts;
000007f8 9d0f1b00       2143 	ld.bu	26[r29],r1
000007fc 5c0f1b00       2144 	st.b	r1,27[r28]
00000800 c54d*          2145 	br	.L1322
                        2146 .L1320:
                        2147 --597: 	}
                        2148 --598: 	else
                        2149 --599: 	{
                        2150 --600: 		pData->FLTirePressV = INVALID;
                        2151 --line600
                        2152 ..lin.D.3A.5CRenesas_Electronics.5CD1x_RGL.5Crgl_ghs_D1Lx_obj_V1.2E2.2E0.5Cvlib.5Capp.5Cgfx_apps.5Csimple_draw_d1l2.5Ctarget.5Cd1lx_mango_ghs.5Cobj.5Ctpms.98::
                        2153 .LDWlin98:
00000802 010a           2154 	mov	1,r1
00000804 5c0f0000       2155 	st.b	r1,0[r28]
                        2156 --601: 		pData->FLTireTempV = INVALID;
00000808 010a           2157 	mov	1,r1
0000080a 5c0f0100       2158 	st.b	r1,1[r28]
                        2159 --602: 		pData->FRTirePressV = INVALID;
0000080e 010a           2160 	mov	1,r1
00000810 5c0f0200       2161 	st.b	r1,2[r28]
                        2162 --603: 		pData->FRTireTempV = INVALID;
00000814 010a           2163 	mov	1,r1
00000816 5c0f0300       2164 	st.b	r1,3[r28]
                        2165 --604: 		pData->RLTirePressV = INVALID;
0000081a 010a           2166 	mov	1,r1
0000081c 5c0f0400       2167 	st.b	r1,4[r28]
                        2168 --605: 		pData->RLTireTempV = INVALID;
00000820 010a           2169 	mov	1,r1
00000822 5c0f0500       2170 	st.b	r1,5[r28]
                        2171 --606: 		pData->RRTirePressV = INVALID;
00000826 010a           2172 	mov	1,r1
00000828 5c0f0600       2173 	st.b	r1,6[r28]
                        2174 --607: 		pData->RRTireTempV = INVALID;
0000082c 010a           2175 	mov	1,r1
0000082e 5c0f0700       2176 	st.b	r1,7[r28]
                        2177 --608: 		pData->FLTirePress = tpms_NetFLTirePrs;
00000832 210600000000*  2178 	mov	_tpms_NetFLTirePrs,r1
00000838 e10f0100       2179 	ld.hu	0[r1],r1
0000083c 7c0f0800       2180 	st.h	r1,8[r28]
                        2181 --609: 		pData->FLTireTemp = tpms_NetFLTireTem;
00000840 3d0f0200       2182 	ld.h	2[r29],r1
00000844 7c0f0a00       2183 	st.h	r1,10[r28]
                        2184 --610: 		pData->FRTirePress = tpms_NetFRTirePrs;
00000848 fd0f0500       2185 	ld.hu	4[r29],r1
0000084c 7c0f0c00       2186 	st.h	r1,12[r28]
                        2187 --611: 		pData->FRTireTemp = tpms_NetFRTireTem ;
00000850 3d0f0600       2188 	ld.h	6[r29],r1
00000854 7c0f0e00       2189 	st.h	r1,14[r28]
                        2190 --612: 		pData->RLTirePress = tpms_NetRLTirePrs;
00000858 fd0f0900       2191 	ld.hu	8[r29],r1
0000085c 7c0f1000       2192 	st.h	r1,16[r28]
                        2193 --613: 		pData->RLTireTemp = tpms_NetRLTireTem;
00000860 3d0f0a00       2194 	ld.h	10[r29],r1

                                                                      Page 40
                                                              C:\Users\YINGAO~1\AppData\Local\Temp\gh_00008t41.si
00000864 7c0f1200       2195 	st.h	r1,18[r28]
                        2196 --614: 		pData->RRTirePress = tpms_NetRRTirePrs;
00000868 fd0f0d00       2197 	ld.hu	12[r29],r1
0000086c 7c0f1400       2198 	st.h	r1,20[r28]
                        2199 --615: 		pData->RRTireTemp = tpms_NetRRTireTem;
00000870 3d0f0e00       2200 	ld.h	14[r29],r1
00000874 7c0f1600       2201 	st.h	r1,22[r28]
                        2202 --616: 		pData->FLTireSts = tpms_NetFLTireSts;
00000878 bd0f1100       2203 	ld.bu	17[r29],r1
0000087c 5c0f1800       2204 	st.b	r1,24[r28]
                        2205 --617: 		pData->FRTireSts = tpms_NetFRTireSts;
00000880 9d0f1500       2206 	ld.bu	20[r29],r1
00000884 5c0f1900       2207 	st.b	r1,25[r28]
                        2208 --618: 		pData->RLTireSts = tpms_NetRLTireSts;
00000888 bd0f1700       2209 	ld.bu	23[r29],r1
0000088c 5c0f1a00       2210 	st.b	r1,26[r28]
                        2211 --619: 		pData->RRTireSts = tpms_NetRRTireSts;
00000890 9d0f1b00       2212 	ld.bu	26[r29],r1
00000894 5c0f1b00       2213 	st.b	r1,27[r28]
                        2214 .L1322:
                        2215 --620: 		
                        2216 --621: 	}
                        2217 --622: 	
                        2218 --623: 	return RET_OK;
00000898 0152           2219 	mov	1,r10
                        2220 --	    .ef
                        2221 .LDW44:
0000089a 4806ff70       2222 	dispose	4,{r25,r26,r27,r28,r29,r31},[lp]
                        2223 	.type	_TPMS_GetTPMSDATA,@function
                        2224 	.size	_TPMS_GetTPMSDATA,.-_TPMS_GetTPMSDATA
                        2225 	.align	2
                        2226 .LDW54:
                        2227 --_bValue	3[sp]	local
                        2228 
                        2229 --_pData	r28	param
                        2230 
                        2231 	.data
                        2232 	.text
                        2233 
                        2234 --624: }
                        2235 	.align	2
                        2236 --_tpms_NetFLTirePrs	_tpms_NetFLTirePrs	static
                        2237 --_tpms_NetFLTirePrsV	_tpms_NetFLTirePrsV	static
                        2238 --_tpms_NetFLTireSts	_tpms_NetFLTireSts	static
                        2239 --_tpms_NetFLTireTem	_tpms_NetFLTireTem	static
                        2240 --_tpms_NetFLTireTemV	_tpms_NetFLTireTemV	static
                        2241 --_tpms_NetFRTirePrs	_tpms_NetFRTirePrs	static
                        2242 --_tpms_NetFRTirePrsV	_tpms_NetFRTirePrsV	static
                        2243 --_tpms_NetFRTireSts	_tpms_NetFRTireSts	static
                        2244 --_tpms_NetFRTireTem	_tpms_NetFRTireTem	static
                        2245 --_tpms_NetFRTireTemV	_tpms_NetFRTireTemV	static
                        2246 --_tpms_NetRLTirePrs	_tpms_NetRLTirePrs	static
                        2247 --_tpms_NetRLTirePrsV	_tpms_NetRLTirePrsV	static
                        2248 --_tpms_NetRLTireSts	_tpms_NetRLTireSts	static
                        2249 --_tpms_NetRLTireTem	_tpms_NetRLTireTem	static
                        2250 --_tpms_NetRLTireTemV	_tpms_NetRLTireTemV	static
                        2251 --_tpms_NetRRTirePrs	_tpms_NetRRTirePrs	static
                        2252 --_tpms_NetRRTirePrsV	_tpms_NetRRTirePrsV	static
                        2253 --_tpms_NetRRTireSts	_tpms_NetRRTireSts	static
                        2254 --_tpms_NetRRTireTem	_tpms_NetRRTireTem	static
                        2255 --_tpms_NetRRTireTemV	_tpms_NetRRTireTemV	static

                                                                      Page 41
                                                              C:\Users\YINGAO~1\AppData\Local\Temp\gh_00008t41.si
                        2256 --_tpms_NetClstrDspdFLTirePrs	_tpms_NetClstrDspdFLTirePrs	static
                        2257 --_tpms_NetClstrDspdFRTirePrs	_tpms_NetClstrDspdFRTirePrs	static
                        2258 --_tpms_NetClstrDspdRRTirePrs	_tpms_NetClstrDspdRRTirePrs	static
                        2259 --_tpms_NetClstrDspdRLTirePrs	_tpms_NetClstrDspdRLTirePrs	static
                        2260 --_tpms_NetClstrDspdFLTireSts	_tpms_NetClstrDspdFLTireSts	static
                        2261 --_tpms_NetClstrDspdFRTireSts	_tpms_NetClstrDspdFRTireSts	static
                        2262 --_tpms_NetClstrDspdRRTireSts	_tpms_NetClstrDspdRRTireSts	static
                        2263 --_tpms_NetClstrDspdRLTireSts	_tpms_NetClstrDspdRLTireSts	static
                        2264 --_tpms_NetFICMDistUntAdj	_tpms_NetFICMDistUntAdj	static
                        2265 --_tpms_NetFICMFuelCsumpUntAdj	_tpms_NetFICMFuelCsumpUntAdj	static
                        2266 --_tpms_NetFICMTemUntAdj	_tpms_NetFICMTemUntAdj	static
                        2267 --_tpms_NetFICMTyrePressureUntAdj	_tpms_NetFICMTyrePressureUntAdj	static
                        2268 --_tpms_NetFICMDistUnitAdjtReqA	_tpms_NetFICMDistUnitAdjtReqA	static
                        2269 --_tpms_NetFICMFuelCsumpUntAdjARA	_tpms_NetFICMFuelCsumpUntAdjARA	static
                        2270 --_tpms_NetFICMTemUntAdjtReqA	_tpms_NetFICMTemUntAdjtReqA	static
                        2271 --_tpms_NetFICMTyrePressureUntAdjtReqA	_tpms_NetFICMTyrePressureUntAdjtReqA	static
                        2272 --_tpms_NetClstrDistUnt	_tpms_NetClstrDistUnt	static
                        2273 --_tpms_NetClstrFuelCsumpUnt	_tpms_NetClstrFuelCsumpUnt	static
                        2274 --_tpms_NetClstrTemUnt	_tpms_NetClstrTemUnt	static
                        2275 --_tpms_NetClstrTyrePressureUnt	_tpms_NetClstrTyrePressureUnt	static
                        2276 --_insTyrePresUnitsPrm	_insTyrePresUnitsPrm	static
                        2277 --_insDistanceUnitsPrm	_insDistanceUnitsPrm	static
                        2278 --_insFuelConUnitsPrm	_insFuelConUnitsPrm	static
                        2279 --_insTempUnitsPrm	_insTempUnitsPrm	static
                        2280 --_tpms_InitSts	_tpms_InitSts	static
                        2281 --_tpmsWrnngStatus	_tpmsWrnngStatus	static
                        2282 --_tpms_Process100MsPRO	_tpms_Process100MsPRO	static
                        2283 
                        2284 	.data
                        2285 	.ghsnote version,14
                        2286 	.ghsnote tools,3
                        2287 	.ghsnote options,144
                        2288 	.text
                        2289 	.align	2
                        2290 ..eof.D.3A.5CRenesas_Electronics.5CD1x_RGL.5Crgl_ghs_D1Lx_obj_V1.2E2.2E0.5Cvlib.5Capp.5Cgfx_apps.5Csimple_draw_d1l2.5Ctarget.5Cd1lx_mango_ghs.5Cobj.5Ctpms...44.3A.5CRenesas_Electronics.5CD1x_RGL.5Crgl_ghs_D1Lx_obj_V1.2E2.2E0.5Cvlib.5Capp.5Cgfx_apps.5Csimple_draw_d1l2.5Ctarget.5Cd1lx_mango_ghs..5A740377..0::
                        2291 .rh850_flags REGMODE22,DATA_ALIGN8,GP_FIX,EP_NONFIX,TP_FIX,REG2_RESERVE,G3M
