                                                                      Page 1
                                                              C:\Users\YINGAO~1\AppData\Local\Temp\gh_00007n81.si
Command Line: C:\ghs\comp_201355\ease850.exe -w -elf -b0 -I../../../../../Device -I../../../../../Driver/ADCE -I../../../../../Driver/CLOCK -I../../../../../Driver/DIO -I../../../../../Driver/DSPI -I../../../../../Driver/Interrupt -I../../../../../Driver/ISM -I../../../../../Driver/OSTM -I../../../../../Driver/PWM -I../../../../../Driver/RSTC -I../../../../../Driver/RTCA -I../../../../../Driver/STBC -I../../../../../Driver/TAUB -I../../../../../Driver/WDT -I../../../../../middleware\ADM -I../../../../../middleware\BPM -I../../../../../middleware\EED -I../../../../../middleware\IOM -I../../../../../middleware\LRM -I../../../../../middleware\MOM -I../../../../../middleware\PWMM -I../../../../../Common -I../../../../../Applayer\DSM -I../../../../../Applayer\FM -I../../../../../Applayer\TPM -I../../../../../Applayer\ACC -I../../../../../Applayer\ASS -I../../../../../Applayer\BAT -I../../../../../Applayer\COM -I../../../../../Applayer\COM\vtp -I../../../../../Applayer\COM\vtp\lib -I../../../../../Applayer\CRUS -I../../../../../Applayer\DIAG -I../../../../../Applayer\FC -I../../../../../Applayer\FL -I../../../../../Applayer\HSD -I../../../../../Applayer\IDLE -I../../../../../Applayer\ILLU -I../../../../../Applayer\LED -I../../../../../Applayer\MSG -I../../../../../Applayer\NVM -I../../../../../Applayer\ODO -I../../../../../Applayer\PWR -I../../../../../Applayer\RANG -I../../../../../Applayer\RST -I../../../../../Applayer\RTC -I../../../../../Applayer\SCS -I../../../../../Applayer\SSB -I../../../../../Applayer\ST -I../../../../../Applayer\STSMG -I../../../../../Applayer\SYS -I../../../../../Applayer\TIP -I../../../../../Applayer\TRIP -I../../../../../Applayer\CHM -I../../../../../Applayer\DM -I../../../../../Applayer\EVT -I../../../../../Applayer\FTR -I../../../../../Applayer\SLF -I../../../../../Applayer\NWD -I../../../../../Applayer\TPMS -I../../../../../Applayer\WFM -I../../../../../Applayer\NZM -I../../../../../app/gfx_apps/simple_draw_d1l2/src -I../../../../../bsp/board//config -I../../../../../bsp/board//src/gfx -I../../../../../bsp/board//src/hmi -I../../../../../bsp/board//src/stdio -I../../../../../bsp/board/d1lx_mango/config -I../../../../../bsp/board/d1lx_mango/src -I../../../../../bsp/board/d1lx_mango/src/gfx -I../../../../../bsp/board/d1lx_mango/src/hmi -I../../../../../bsp/board/d1lx_mango/src/stdio -I../../../../../bsp/gfx/lib -I../../../../../bsp/gfx/src -I../../../../../bsp/hmi/lib -I../../../../../bsp/hmi/src -I../../../../../bsp/lib -I../../../../../bsp/stdio/lib -I../../../../../bsp/stdio/src -I../../../../../cdi/lib -I../../../../../cdi/src -I../../../../../compiler/rh850_ghs/inc -I../../../../../device/d1lx/lib -I../../../../../device/d1lx/macro_cfg -I../../../../../device/d1lx/src/dev -I../../../../../device/d1lx/src/rh850_ghs -I../../../../../device/d1x_common/macro_cfg -I../../../../../device/d1x_common/src/csisw -I../../../../../device/d1x_common/src/ddb -I../../../../../device/d1x_common/src/dev -I../../../../../device/d1x_common/src/gfxbus -I../../../../../device/d1x_common/src/gpio -I../../../../../device/d1x_common/src/ostm -I../../../../../device/d1x_common/src/pbg -I../../../../../device/d1x_common/src/riic -I../../../../../device/d1x_common/src/sfma -I../../../../../device/d1x_common/src/spea -I../../../../../device/d1x_common/src/tauj -I../../../../../device/d1x_common/src/tick -I../../../../../device/d1x_common/src/vdce -I../../../../../device/d1x_common/src/wm -I../../../../../device/d1x_common/src/xbus -I../../../../../device/lib -I../../../../../macro/bus/pbg/lib -I../../../../../macro/bus/pbg/src -I../../../../../macro/csi/csisw/lib -I../../../../../macro/csi/csisw/src -I../../../../../macro/drw2d/lib -I../../../../../macro/drw2d/platform/cpu -I../../../../../macro/drw2d/platform/os/no_os -I../../../../../macro/drw2d/src -I../../../../../macro/flashc/sfcdb/lib -I../../../../../macro/flashc/sfcdb/src -I../../../../../macro/flashc/sfma/lib -I../../../../../macro/flashc/sfma/src -I../../../../../macro/gfxbus/lib -I../../../../../macro/gfxbus/src -I../../../../../macro/gfxbus/xbus/lib -I../../../../../macro/gfxbus/xbus/src -I../../../../../macro/gpio/lib -I../../../../../macro/gpio/src -I../../../../../macro/i2c/riic/lib -I../../../../../macro/i2c/riic/src -I../../../../../macro/tick/lib -I../../../../../macro/tick/src -I../../../../../macro/timer/ostm/lib -I../../../../../macro/timer/ostm/src -I../../../../../macro/timer/tauj/lib -I../../../../../macro/timer/tauj/src -I../../../../../macro/vdce/lib -I../../../../../macro/vdce/src -I../../../../../macro/vo/ddb/lib -I../../../../../macro/vo/ddb/src -I../../../../../macro/vo/spea/lib -I../../../../../macro/vo/spea/src -I../../../../../macro/wm/lib -I../../../../../macro/wm/src -I../../../../../app/gfx_apps/simple_draw_d1l2/src/QD_HMI -I../../../../../app/gfx_apps/simple_draw_d1l2/src/QD_HMI/HMI_Data -IC:\ghs\comp_201355\lib\rh850_22 -cg_underscore -cpu=rh850g3m -no_v850_simd -nomacro -patch_dbo=D:\Renesas_Electronics\D1x_RGL\rgl_ghs_D1Lx_obj_V1.2.0\vlib\app\gfx_apps\simple_draw_d1l2\target\d1lx_mango_ghs\obj\wfm.dbo -source=wfm.c -o .\obj\gh_00007n81.o -list=.\obj\wfm.lst C:\Users\YINGAO~1\AppData\Local\Temp\gh_00007n81.si 
Original File: C:\Users\YINGAO~1\AppData\Local\Temp\gh_00007n81.si
Source File: wfm.c
Directory: D:\Renesas_Electronics\D1x_RGL\rgl_ghs_D1Lx_obj_V1.2.0\vlib\app\gfx_apps\simple_draw_d1l2\target\d1lx_mango_ghs
Host OS: Windows 7 Service Pack 1
EASE: Copyright (C) 1983-2013 Green Hills Software.  All Rights Reversed.
Release: Compiler v2013.5.5
Build Directory: [Directory] BTOWINBOX:c:/build_2013_5_bto/2013-10-04.1311-2013_5_bto/win32-comp-ecom
Revision: [VCInfo] http://toolsvc/branches/release-branch-2013-5-bto/src@496240 (built by build)
Revision Date: Sat Oct 05 04:54:43 2013

Release Date: Sat Oct 05 05:20:49 2013

                           1 --Driver Command: ccv850 -c -MD -I../../../../../Device
                           2 --		-I../../../../../Driver/ADCE -I../../../../../Driver/CLOCK
                           3 --		-I../../../../../Driver/DIO -I../../../../../Driver/DSPI
                           4 --		-I../../../../../Driver/Interrupt -I../../../../../Driver/ISM
                           5 --		-I../../../../../Driver/OSTM -I../../../../../Driver/PWM
                           6 --		-I../../../../../Driver/RSTC -I../../../../../Driver/RTCA
                           7 --		-I../../../../../Driver/STBC -I../../../../../Driver/TAUB
                           8 --		-I../../../../../Driver/WDT -I../../../../../middleware\ADM
                           9 --		-I../../../../../middleware\BPM -I../../../../../middleware\EED
                          10 --		-I../../../../../middleware\IOM -I../../../../../middleware\LRM
                          11 --		-I../../../../../middleware\MOM -I../../../../../middleware\PWMM
                          12 --		-I../../../../../Common -I../../../../../Applayer\DSM
                          13 --		-I../../../../../Applayer\FM -I../../../../../Applayer\TPM
                          14 --		-I../../../../../Applayer\ACC -I../../../../../Applayer\ASS
                          15 --		-I../../../../../Applayer\BAT -I../../../../../Applayer\COM
                          16 --		-I../../../../../Applayer\COM\vtp
                          17 --		-I../../../../../Applayer\COM\vtp\lib
                          18 --		-I../../../../../Applayer\CRUS -I../../../../../Applayer\DIAG
                          19 --		-I../../../../../Applayer\FC -I../../../../../Applayer\FL
                          20 --		-I../../../../../Applayer\HSD -I../../../../../Applayer\IDLE
                          21 --		-I../../../../../Applayer\ILLU -I../../../../../Applayer\LED
                          22 --		-I../../../../../Applayer\MSG -I../../../../../Applayer\NVM
                          23 --		-I../../../../../Applayer\ODO -I../../../../../Applayer\PWR
                          24 --		-I../../../../../Applayer\RANG -I../../../../../Applayer\RST
                          25 --		-I../../../../../Applayer\RTC -I../../../../../Applayer\SCS
                          26 --		-I../../../../../Applayer\SSB -I../../../../../Applayer\ST
                          27 --		-I../../../../../Applayer\STSMG -I../../../../../Applayer\SYS
                          28 --		-I../../../../../Applayer\TIP -I../../../../../Applayer\TRIP
                          29 --		-I../../../../../Applayer\CHM -I../../../../../Applayer\DM
                          30 --		-I../../../../../Applayer\EVT -I../../../../../Applayer\FTR
                          31 --		-I../../../../../Applayer\SLF -I../../../../../Applayer\NWD
                          32 --		-I../../../../../Applayer\TPMS -I../../../../../Applayer\WFM
                          33 --		-I../../../../../Applayer\NZM
                          34 --		-I../../../../../app/gfx_apps/simple_draw_d1l2/src
                          35 --		-I../../../../../bsp/board//config
                          36 --		-I../../../../../bsp/board//src/gfx
                          37 --		-I../../../../../bsp/board//src/hmi
                          38 --		-I../../../../../bsp/board//src/stdio
                          39 --		-I../../../../../bsp/board/d1lx_mango/config
                          40 --		-I../../../../../bsp/board/d1lx_mango/src
                          41 --		-I../../../../../bsp/board/d1lx_mango/src/gfx
                          42 --		-I../../../../../bsp/board/d1lx_mango/src/hmi
                          43 --		-I../../../../../bsp/board/d1lx_mango/src/stdio
                          44 --		-I../../../../../bsp/gfx/lib -I../../../../../bsp/gfx/src
                          45 --		-I../../../../../bsp/hmi/lib -I../../../../../bsp/hmi/src
                          46 --		-I../../../../../bsp/lib -I../../../../../bsp/stdio/lib
                          47 --		-I../../../../../bsp/stdio/src -I../../../../../cdi/lib
                          48 --		-I../../../../../cdi/src -I../../../../../compiler/rh850_ghs/inc
                          49 --		-I../../../../../device/d1lx/lib
                          50 --		-I../../../../../device/d1lx/macro_cfg

                                                                      Page 2
                                                              C:\Users\YINGAO~1\AppData\Local\Temp\gh_00007n81.si
                          51 --		-I../../../../../device/d1lx/src/dev
                          52 --		-I../../../../../device/d1lx/src/rh850_ghs
                          53 --		-I../../../../../device/d1x_common/macro_cfg
                          54 --		-I../../../../../device/d1x_common/src/csisw
                          55 --		-I../../../../../device/d1x_common/src/ddb
                          56 --		-I../../../../../device/d1x_common/src/dev
                          57 --		-I../../../../../device/d1x_common/src/gfxbus
                          58 --		-I../../../../../device/d1x_common/src/gpio
                          59 --		-I../../../../../device/d1x_common/src/ostm
                          60 --		-I../../../../../device/d1x_common/src/pbg
                          61 --		-I../../../../../device/d1x_common/src/riic
                          62 --		-I../../../../../device/d1x_common/src/sfma
                          63 --		-I../../../../../device/d1x_common/src/spea
                          64 --		-I../../../../../device/d1x_common/src/tauj
                          65 --		-I../../../../../device/d1x_common/src/tick
                          66 --		-I../../../../../device/d1x_common/src/vdce
                          67 --		-I../../../../../device/d1x_common/src/wm
                          68 --		-I../../../../../device/d1x_common/src/xbus
                          69 --		-I../../../../../device/lib -I../../../../../macro/bus/pbg/lib
                          70 --		-I../../../../../macro/bus/pbg/src
                          71 --		-I../../../../../macro/csi/csisw/lib
                          72 --		-I../../../../../macro/csi/csisw/src
                          73 --		-I../../../../../macro/drw2d/lib
                          74 --		-I../../../../../macro/drw2d/platform/cpu
                          75 --		-I../../../../../macro/drw2d/platform/os/no_os
                          76 --		-I../../../../../macro/drw2d/src
                          77 --		-I../../../../../macro/flashc/sfcdb/lib
                          78 --		-I../../../../../macro/flashc/sfcdb/src
                          79 --		-I../../../../../macro/flashc/sfma/lib
                          80 --		-I../../../../../macro/flashc/sfma/src
                          81 --		-I../../../../../macro/gfxbus/lib
                          82 --		-I../../../../../macro/gfxbus/src
                          83 --		-I../../../../../macro/gfxbus/xbus/lib
                          84 --		-I../../../../../macro/gfxbus/xbus/src
                          85 --		-I../../../../../macro/gpio/lib -I../../../../../macro/gpio/src
                          86 --		-I../../../../../macro/i2c/riic/lib
                          87 --		-I../../../../../macro/i2c/riic/src
                          88 --		-I../../../../../macro/tick/lib -I../../../../../macro/tick/src
                          89 --		-I../../../../../macro/timer/ostm/lib
                          90 --		-I../../../../../macro/timer/ostm/src
                          91 --		-I../../../../../macro/timer/tauj/lib
                          92 --		-I../../../../../macro/timer/tauj/src
                          93 --		-I../../../../../macro/vdce/lib -I../../../../../macro/vdce/src
                          94 --		-I../../../../../macro/vo/ddb/lib
                          95 --		-I../../../../../macro/vo/ddb/src
                          96 --		-I../../../../../macro/vo/spea/lib
                          97 --		-I../../../../../macro/vo/spea/src -I../../../../../macro/wm/lib
                          98 --		-I../../../../../macro/wm/src
                          99 --		-I../../../../../app/gfx_apps/simple_draw_d1l2/src/QD_HMI
                         100 --		-I../../../../../app/gfx_apps/simple_draw_d1l2/src/QD_HMI/HMI_Data
                         101 --		-G --no_commons --no_implicit_include --prototype_errors
                         102 --		-DR_DRW2D_OS_NO_OS -DR_DRW2D_SYS_CPU -DUSED_CPU=RH850G3M
                         103 --		-DUSE_BSP_GFX -DUSE_BSP_HMI -DUSE_BSP_STDIO -DUSE_CDI -DUSE_CSISW
                         104 --		-DUSE_DDB -DUSE_DRW2D -DUSE_GFXBUS -DUSE_GPIO -DUSE_OSTM
                         105 --		-DUSE_PBG -DUSE_RIIC -DUSE_SFCDB -DUSE_SFMA -DUSE_SPEA -DUSE_TAUJ
                         106 --		-DUSE_TICK -DUSE_VDCE -DUSE_WM -DUSE_XBUS -MD -Mn -Mx -Zuse1bit
                         107 --		-allocate_ep -cpu=rh850g3m -entry=_RESET -large_sda -list
                         108 --		-no_callt -notda -passsource -preprocess_assembly_files
                         109 --		-registermode=22 -reserve_r2 --diag_warning 1 -object_dir=./obj
                         110 --		-filetype.c
                         111 --		D:\Renesas_Electronics\D1x_RGL\rgl_ghs_D1Lx_obj_V1.2.0\vlib\Applayer\WFM\wfm.c

                                                                      Page 3
                                                              C:\Users\YINGAO~1\AppData\Local\Temp\gh_00007n81.si
                         112 --		-o .\obj\wfm.o
                         113 --Source File:   D:\Renesas_Electronics\D1x_RGL\rgl_ghs_D1Lx_obj_V1.2.0\vlib\Applayer\WFM\wfm.c
                         114 --Directory:     
                         115 --		D:\Renesas_Electronics\D1x_RGL\rgl_ghs_D1Lx_obj_V1.2.0\vlib\app\gfx_apps\simple_draw_d1l2\target\d1lx_mango_ghs
                         116 --Compile Date:  Fri Feb 02 14:21:44 2018
                         117 --Host OS:       Win32
                         118 --Version:       C-RH850 2013.5.5 DEVELOPMENT VERSION
                         119 --Release:       Compiler v2013.5.5
                         120 --Revision Date: Sat Oct 05 05:01:20 2013
                         121 --Release Date:  Sat Oct 05 05:22:44 2013
                         122 -- ecom  -g -w
                         123 
                         124 --2: /**************************************************************************
                         125 --3: |                                Copyright
                         126 --4: |------------------------------------------------------------------------
                         127 --5: |Copyright(c) by YEEDON MultiMedia Co.LTD. All rights reserved.
                         128 --6: |
                         129 --7: |    this software if furnished under a license and may be used and copied
                         130 --8: |    only in accordance with the terms of such license and with the inclusion
                         131 --9: |    of he above copyright notic.This software or any other copies thereof
                         132 --10: |    may not be provided of otherwise made available to any other persion.
                         133 --11: |    No title to and ownership of the software is hereby transferred.
                         134 --12: |
                         135 --13: |    the information in this software is subject to change without notice
                         136 --14: |   and should not be construed as a commitment by
                         137 --15: |   YEEDON MultiMedia Co.LTD.
                         138 --16: |
                         139 --17: |     YEEDON MultiMedia Co.LTD. assumes no responsibility for the use or reliability
                         140 --18: |     of its Software on equipment which is not supported by YEEDON MultiMedia Co.LTD.
                         141 --19: |--------------------------------------------------------------
                         142 --20: **************************************************************************/
                         143 --24: /*-----------------------------------------------------------------------*/
                         144 --25: /*----Description of file-----------------------------------------------------*/
                         145 --26: /*-----------------------------------------------------------------------*/
                         146 --30: /*************************************************************************
                         147 --31: LED source file used for LED ON,OFF,FLASH control when warn or other event trigged
                         148 --32: *************************************************************************/
                         149 --35: /*------------------------------------------------------------------------*/
                         150 --36: /*-----Head of file----------------------------------------------------------*/
                         151 --37: /*------------------------------------------------------------------------*/
                         152 --38: #include "wfm_info.inc"
                         153 --40: /*==========variables=================*/
                         154 --41: static U8 ClstrDspdFuelSts = 0;
                         155 --42: static U8 wfm_WTFault = 0;
                         156 --43: static U8 wfm_fuelSeg = 0;
                         157 --44: static U8 wfm_TmptSeg = 0;
                         158 --45: static U8 wfm_InvalidFltTmptSeg = 0;
                         159 --46: static U8 wfm_ecmNodeMiss = FALSE;
                         160 --47: static U8 wfm_coolantInvalidFlt = FALSE;
                         161 --48: static DBL wfm_DisplayFuel = 0;
                         162 --49: static S16 wfm_NetEnClntTem = 0;
                         163 --50: static U8 wfm_NetEnClntTemV = 0;
                         164 --51: static U8 wfm_FuelFault = 0;
                         165 --52: static U8 wfm_NetClstrDspdFuelLvlSgmt = 0;
                         166 --53: static U8 wfm_NetClstrDspdClntTemWrnng = 0;
                         167 --54: static U16 wfm_NetFuelTotCapct = 0;
                         168 --55: static U8 wfm_InitSts = FALSE;
                         169 --56: static U8 wfm_WrnngProssPRO = 0;
                         170 --57: static U8 wfm_fuelsnsflt = 0;
                         171 --58: static IgnCYCLE_ENUM wfm_Cycle = STATE_CYCLE_NORMAL;
                         172 --59: static U16 insFuelSeg1ThresPrm;

                                                                      Page 4
                                                              C:\Users\YINGAO~1\AppData\Local\Temp\gh_00007n81.si
                         173 --60: static U16 insFuelSeg2ThresPrm;
                         174 --61: static U16 insFuelSeg3ThresPrm;
                         175 --62: static U16 insFuelSeg4ThresPrm;
                         176 --63: static U16 insFuelSeg5ThresPrm;
                         177 --64: static U16 insFuelSeg6ThresPrm;
                         178 --65: static U16 insFuelSeg7ThresPrm;
                         179 --66: static U16 insFuelSeg8ThresPrm;
                         180 --67: static S16 insTempSeg2ThresPrm;
                         181 --68: static S16 insTempSeg3ThresPrm;
                         182 --69: static S16 insTempSeg4ThresPrm;
                         183 --70: static S16 insTempSeg5ThresPrm;
                         184 --71: static S16 insTempSeg6ThresPrm;
                         185 --72: static S16 insTempSeg7ThresPrm;
                         186 --73: static S16 insTempSeg8ThresPrm;
                         187 --74: static U8 insTempDisplayHysPrm;
                         188 --76: /**************************************************
                         189 --77: *Function :WFM_Init
                         190 --78: *Description: WFM Module Inital
                         191 --79: *Parameters:none
                         192 --80: *Returns: none
                         193 --81: **create&Verlog:
                         194 --82: *Author Name xs  Date:2017-6-22    Ver:2.0
                         195 --83: ***************************************************/
                         196 --84: void WFM_Init(void)
                         197 	.text
                         198 ..bof.D.3A.5CRenesas_Electronics.5CD1x_RGL.5Crgl_ghs_D1Lx_obj_V1.2E2.2E0.5Cvlib.5Capp.5Cgfx_apps.5Csimple_draw_d1l2.5Ctarget.5Cd1lx_mango_ghs.5Cobj.5Cwfm...44.3A.5CRenesas_Electronics.5CD1x_RGL.5Crgl_ghs_D1Lx_obj_V1.2E2.2E0.5Cvlib.5Capp.5Cgfx_apps.5Csimple_draw_d1l2.5Ctarget.5Cd1lx_mango_ghs..5A740378..0::
                         199 	.align	2
                         200 	.global	_WFM_Init
                         201 _WFM_Init:
00000000 8007e100        202 	prepare	{r28,r29,r31},0
00000004 3d0600000000*   203 	mov	.L86,r29
0000000a 3de61900        204 	movea	25,r29,r28
                         205 --	    .bf
                         206 .LDW01:
                         207 --85: {
                         208 --86: 	wfm_InitSts = FALSE;
0000000e 5d071900        209 	st.b	zero,25[r29]
                         210 --87: 	wfm_WTFault = 0;
00000012 5d071000        211 	st.b	zero,16[r29]
                         212 --88: 	wfm_fuelSeg = 0;
00000016 5d071100        213 	st.b	zero,17[r29]
                         214 --89: 	wfm_TmptSeg = 0;
0000001a 5d071200        215 	st.b	zero,18[r29]
                         216 --90:     wfm_InvalidFltTmptSeg = 0;
0000001e 5d071300        217 	st.b	zero,19[r29]
                         218 --91:     wfm_ecmNodeMiss = FALSE;
00000022 5d071400        219 	st.b	zero,20[r29]
                         220 --93: 	wfm_DisplayFuel = 0;
00000026 006a            221 	mov	0,r13
00000028 0062            222 	mov	0,r12
0000002a bd070f600000    223 	st.dw	r12,0[r29]
                         224 --94: 	wfm_NetEnClntTemV = INVALID;
00000030 010a            225 	mov	1,r1
00000032 5d0f1600        226 	st.b	r1,22[r29]
                         227 --95: 	wfm_NetEnClntTem = 0;
00000036 7d070c00        228 	st.h	zero,12[r29]
                         229 --96: 	wfm_NetFuelTotCapct = FUEL_CAPACITY_MAX;
0000003a 200e3000        230 	movea	48,zero,r1
0000003e 7d0f0e00        231 	st.h	r1,14[r29]
                         232 --97:  	wfm_InitSts = TRUE;
00000042 010a            233 	mov	1,r1

                                                                      Page 5
                                                              C:\Users\YINGAO~1\AppData\Local\Temp\gh_00007n81.si
00000044 5d0f1900        234 	st.b	r1,25[r29]
                         235 --98: 	wfm_WrnngProssPRO = 0;
00000048 5d071a00        236 	st.b	zero,26[r29]
                         237 --99:     wfm_fuelsnsflt = 0;
0000004c 5d071b00        238 	st.b	zero,27[r29]
                         239 --100: 	wfm_Cycle = STATE_CYCLE_NORMAL;
00000050 7d070900        240 	st.w	zero,8[r29]
                         241 --101: 	insFuelSeg1ThresPrm = DIAG_GetFuelSeg1Thres();
                         242 	jarl	_DIAG_GetFuelSeg1Thres,lp
                         242 <EXPANSION BEGIN>
                         242 jarl22 _DIAG_GetFuelSeg1Thres , lp 
00000054 80ff0000*       242 <EXPANSION END>
00000058 2b0600000000*   243 	mov	_insFuelSeg1ThresPrm,r11
0000005e 6b570000        244 	st.h	r10,0[r11]
                         245 --102: 	insFuelSeg2ThresPrm = DIAG_GetFuelSeg2Thres();
                         246 --line102
                         247 ..lin.D.3A.5CRenesas_Electronics.5CD1x_RGL.5Crgl_ghs_D1Lx_obj_V1.2E2.2E0.5Cvlib.5Capp.5Cgfx_apps.5Csimple_draw_d1l2.5Ctarget.5Cd1lx_mango_ghs.5Cobj.5Cwfm.1::
                         248 .LDWlin1:
                         249 	jarl	_DIAG_GetFuelSeg2Thres,lp
                         249 <EXPANSION BEGIN>
                         249 jarl22 _DIAG_GetFuelSeg2Thres , lp 
00000062 80ff0000*       249 <EXPANSION END>
00000066 2b0600000000*   250 	mov	_insFuelSeg2ThresPrm,r11
0000006c 6b570000        251 	st.h	r10,0[r11]
                         252 --103: 	insFuelSeg3ThresPrm = DIAG_GetFuelSeg3Thres();
                         253 --line103
                         254 ..lin.D.3A.5CRenesas_Electronics.5CD1x_RGL.5Crgl_ghs_D1Lx_obj_V1.2E2.2E0.5Cvlib.5Capp.5Cgfx_apps.5Csimple_draw_d1l2.5Ctarget.5Cd1lx_mango_ghs.5Cobj.5Cwfm.2::
                         255 .LDWlin2:
                         256 	jarl	_DIAG_GetFuelSeg3Thres,lp
                         256 <EXPANSION BEGIN>
                         256 jarl22 _DIAG_GetFuelSeg3Thres , lp 
00000070 80ff0000*       256 <EXPANSION END>
00000074 2b0600000000*   257 	mov	_insFuelSeg3ThresPrm,r11
0000007a 6b570000        258 	st.h	r10,0[r11]
                         259 --104: 	insFuelSeg4ThresPrm = DIAG_GetFuelSeg4Thres();
                         260 --line104
                         261 ..lin.D.3A.5CRenesas_Electronics.5CD1x_RGL.5Crgl_ghs_D1Lx_obj_V1.2E2.2E0.5Cvlib.5Capp.5Cgfx_apps.5Csimple_draw_d1l2.5Ctarget.5Cd1lx_mango_ghs.5Cobj.5Cwfm.3::
                         262 .LDWlin3:
                         263 	jarl	_DIAG_GetFuelSeg4Thres,lp
                         263 <EXPANSION BEGIN>
                         263 jarl22 _DIAG_GetFuelSeg4Thres , lp 
0000007e 80ff0000*       263 <EXPANSION END>
00000082 2b0600000000*   264 	mov	_insFuelSeg4ThresPrm,r11
00000088 6b570000        265 	st.h	r10,0[r11]
                         266 --105: 	insFuelSeg5ThresPrm = DIAG_GetFuelSeg5Thres();
                         267 --line105
                         268 ..lin.D.3A.5CRenesas_Electronics.5CD1x_RGL.5Crgl_ghs_D1Lx_obj_V1.2E2.2E0.5Cvlib.5Capp.5Cgfx_apps.5Csimple_draw_d1l2.5Ctarget.5Cd1lx_mango_ghs.5Cobj.5Cwfm.4::
                         269 .LDWlin4:
                         270 	jarl	_DIAG_GetFuelSeg5Thres,lp
                         270 <EXPANSION BEGIN>
                         270 jarl22 _DIAG_GetFuelSeg5Thres , lp 
0000008c 80ff0000*       270 <EXPANSION END>
00000090 2b0600000000*   271 	mov	_insFuelSeg5ThresPrm,r11
00000096 6b570000        272 	st.h	r10,0[r11]
                         273 --106: 	insFuelSeg6ThresPrm = DIAG_GetFuelSeg6Thres();
                         274 --line106
                         275 ..lin.D.3A.5CRenesas_Electronics.5CD1x_RGL.5Crgl_ghs_D1Lx_obj_V1.2E2.2E0.5Cvlib.5Capp.5Cgfx_apps.5Csimple_draw_d1l2.5Ctarget.5Cd1lx_mango_ghs.5Cobj.5Cwfm.5::
                         276 .LDWlin5:
                         277 	jarl	_DIAG_GetFuelSeg6Thres,lp
                         277 <EXPANSION BEGIN>
                         277 jarl22 _DIAG_GetFuelSeg6Thres , lp 

                                                                      Page 6
                                                              C:\Users\YINGAO~1\AppData\Local\Temp\gh_00007n81.si
0000009a 80ff0000*       277 <EXPANSION END>
0000009e 2b0600000000*   278 	mov	_insFuelSeg6ThresPrm,r11
000000a4 6b570000        279 	st.h	r10,0[r11]
                         280 --107: 	insFuelSeg7ThresPrm = DIAG_GetFuelSeg7Thres();
                         281 --line107
                         282 ..lin.D.3A.5CRenesas_Electronics.5CD1x_RGL.5Crgl_ghs_D1Lx_obj_V1.2E2.2E0.5Cvlib.5Capp.5Cgfx_apps.5Csimple_draw_d1l2.5Ctarget.5Cd1lx_mango_ghs.5Cobj.5Cwfm.6::
                         283 .LDWlin6:
                         284 	jarl	_DIAG_GetFuelSeg7Thres,lp
                         284 <EXPANSION BEGIN>
                         284 jarl22 _DIAG_GetFuelSeg7Thres , lp 
000000a8 80ff0000*       284 <EXPANSION END>
000000ac 2b0600000000*   285 	mov	_insFuelSeg7ThresPrm,r11
000000b2 6b570000        286 	st.h	r10,0[r11]
                         287 --108: 	insFuelSeg8ThresPrm = DIAG_GetFuelSeg8Thres();
                         288 --line108
                         289 ..lin.D.3A.5CRenesas_Electronics.5CD1x_RGL.5Crgl_ghs_D1Lx_obj_V1.2E2.2E0.5Cvlib.5Capp.5Cgfx_apps.5Csimple_draw_d1l2.5Ctarget.5Cd1lx_mango_ghs.5Cobj.5Cwfm.7::
                         290 .LDWlin7:
                         291 	jarl	_DIAG_GetFuelSeg8Thres,lp
                         291 <EXPANSION BEGIN>
                         291 jarl22 _DIAG_GetFuelSeg8Thres , lp 
000000b6 80ff0000*       291 <EXPANSION END>
000000ba 2b0600000000*   292 	mov	_insFuelSeg8ThresPrm,r11
000000c0 6b570000        293 	st.h	r10,0[r11]
                         294 --109: 	insTempSeg2ThresPrm = DIAG_GetTempSeg2Thres();	
                         295 --line109
                         296 ..lin.D.3A.5CRenesas_Electronics.5CD1x_RGL.5Crgl_ghs_D1Lx_obj_V1.2E2.2E0.5Cvlib.5Capp.5Cgfx_apps.5Csimple_draw_d1l2.5Ctarget.5Cd1lx_mango_ghs.5Cobj.5Cwfm.8::
                         297 .LDWlin8:
                         298 	jarl	_DIAG_GetTempSeg2Thres,lp
                         298 <EXPANSION BEGIN>
                         298 jarl22 _DIAG_GetTempSeg2Thres , lp 
000000c4 80ff0000*       298 <EXPANSION END>
000000c8 2b0600000000*   299 	mov	_insTempSeg2ThresPrm,r11
000000ce 6b570000        300 	st.h	r10,0[r11]
                         301 --110: 	insTempSeg3ThresPrm = DIAG_GetTempSeg3Thres();	
                         302 --line110
                         303 ..lin.D.3A.5CRenesas_Electronics.5CD1x_RGL.5Crgl_ghs_D1Lx_obj_V1.2E2.2E0.5Cvlib.5Capp.5Cgfx_apps.5Csimple_draw_d1l2.5Ctarget.5Cd1lx_mango_ghs.5Cobj.5Cwfm.9::
                         304 .LDWlin9:
                         305 	jarl	_DIAG_GetTempSeg3Thres,lp
                         305 <EXPANSION BEGIN>
                         305 jarl22 _DIAG_GetTempSeg3Thres , lp 
000000d2 80ff0000*       305 <EXPANSION END>
000000d6 2b0600000000*   306 	mov	_insTempSeg3ThresPrm,r11
000000dc 6b570000        307 	st.h	r10,0[r11]
                         308 --111: 	insTempSeg4ThresPrm = DIAG_GetTempSeg4Thres();	
                         309 --line111
                         310 ..lin.D.3A.5CRenesas_Electronics.5CD1x_RGL.5Crgl_ghs_D1Lx_obj_V1.2E2.2E0.5Cvlib.5Capp.5Cgfx_apps.5Csimple_draw_d1l2.5Ctarget.5Cd1lx_mango_ghs.5Cobj.5Cwfm.10::
                         311 .LDWlin10:
                         312 	jarl	_DIAG_GetTempSeg4Thres,lp
                         312 <EXPANSION BEGIN>
                         312 jarl22 _DIAG_GetTempSeg4Thres , lp 
000000e0 80ff0000*       312 <EXPANSION END>
000000e4 2b0600000000*   313 	mov	_insTempSeg4ThresPrm,r11
000000ea 6b570000        314 	st.h	r10,0[r11]
                         315 --112: 	insTempSeg5ThresPrm = DIAG_GetTempSeg5Thres();
                         316 --line112
                         317 ..lin.D.3A.5CRenesas_Electronics.5CD1x_RGL.5Crgl_ghs_D1Lx_obj_V1.2E2.2E0.5Cvlib.5Capp.5Cgfx_apps.5Csimple_draw_d1l2.5Ctarget.5Cd1lx_mango_ghs.5Cobj.5Cwfm.11::
                         318 .LDWlin11:
                         319 	jarl	_DIAG_GetTempSeg5Thres,lp
                         319 <EXPANSION BEGIN>
                         319 jarl22 _DIAG_GetTempSeg5Thres , lp 
000000ee 80ff0000*       319 <EXPANSION END>

                                                                      Page 7
                                                              C:\Users\YINGAO~1\AppData\Local\Temp\gh_00007n81.si
000000f2 2b0600000000*   320 	mov	_insTempSeg5ThresPrm,r11
000000f8 6b570000        321 	st.h	r10,0[r11]
                         322 --113: 	insTempSeg6ThresPrm = DIAG_GetTempSeg6Thres();	
                         323 --line113
                         324 ..lin.D.3A.5CRenesas_Electronics.5CD1x_RGL.5Crgl_ghs_D1Lx_obj_V1.2E2.2E0.5Cvlib.5Capp.5Cgfx_apps.5Csimple_draw_d1l2.5Ctarget.5Cd1lx_mango_ghs.5Cobj.5Cwfm.12::
                         325 .LDWlin12:
                         326 	jarl	_DIAG_GetTempSeg6Thres,lp
                         326 <EXPANSION BEGIN>
                         326 jarl22 _DIAG_GetTempSeg6Thres , lp 
000000fc 80ff0000*       326 <EXPANSION END>
00000100 2b0600000000*   327 	mov	_insTempSeg6ThresPrm,r11
00000106 6b570000        328 	st.h	r10,0[r11]
                         329 --114: 	insTempSeg7ThresPrm = DIAG_GetTempSeg7Thres();	
                         330 --line114
                         331 ..lin.D.3A.5CRenesas_Electronics.5CD1x_RGL.5Crgl_ghs_D1Lx_obj_V1.2E2.2E0.5Cvlib.5Capp.5Cgfx_apps.5Csimple_draw_d1l2.5Ctarget.5Cd1lx_mango_ghs.5Cobj.5Cwfm.13::
                         332 .LDWlin13:
                         333 	jarl	_DIAG_GetTempSeg7Thres,lp
                         333 <EXPANSION BEGIN>
                         333 jarl22 _DIAG_GetTempSeg7Thres , lp 
0000010a 80ff0000*       333 <EXPANSION END>
0000010e 2b0600000000*   334 	mov	_insTempSeg7ThresPrm,r11
00000114 6b570000        335 	st.h	r10,0[r11]
                         336 --115: 	insTempSeg8ThresPrm = DIAG_GetTempSeg8Thres();
                         337 --line115
                         338 ..lin.D.3A.5CRenesas_Electronics.5CD1x_RGL.5Crgl_ghs_D1Lx_obj_V1.2E2.2E0.5Cvlib.5Capp.5Cgfx_apps.5Csimple_draw_d1l2.5Ctarget.5Cd1lx_mango_ghs.5Cobj.5Cwfm.14::
                         339 .LDWlin14:
                         340 	jarl	_DIAG_GetTempSeg8Thres,lp
                         340 <EXPANSION BEGIN>
                         340 jarl22 _DIAG_GetTempSeg8Thres , lp 
00000118 80ff0000*       340 <EXPANSION END>
0000011c 2b0600000000*   341 	mov	_insTempSeg8ThresPrm,r11
00000122 6b570000        342 	st.h	r10,0[r11]
                         343 --116: 	insTempDisplayHysPrm = DIAG_GetTempDisplayHys();
                         344 --line116
                         345 ..lin.D.3A.5CRenesas_Electronics.5CD1x_RGL.5Crgl_ghs_D1Lx_obj_V1.2E2.2E0.5Cvlib.5Capp.5Cgfx_apps.5Csimple_draw_d1l2.5Ctarget.5Cd1lx_mango_ghs.5Cobj.5Cwfm.15::
                         346 .LDWlin15:
                         347 	jarl	_DIAG_GetTempDisplayHys,lp
                         347 <EXPANSION BEGIN>
                         347 jarl22 _DIAG_GetTempDisplayHys , lp 
00000126 80ff0000*       347 <EXPANSION END>
0000012a 2b0600000000*   348 	mov	_insTempDisplayHysPrm,r11
00000130 4b570000        349 	st.b	r10,0[r11]
                         350 --117: 	wfm_InitSts = TRUE;
                         351 --line117
                         352 ..lin.D.3A.5CRenesas_Electronics.5CD1x_RGL.5Crgl_ghs_D1Lx_obj_V1.2E2.2E0.5Cvlib.5Capp.5Cgfx_apps.5Csimple_draw_d1l2.5Ctarget.5Cd1lx_mango_ghs.5Cobj.5Cwfm.16::
                         353 .LDWlin16:
00000134 010a            354 	mov	1,r1
00000136 5d0f1900        355 	st.b	r1,25[r29]
                         356 --118: }
0000013a 0000            357 	nop
                         358 --	    .ef
                         359 .LDW11:
0000013c 4006ff00        360 	dispose	0,{r28,r29,r31},[lp]
                         361 	.type	_WFM_Init,@function
                         362 	.size	_WFM_Init,.-_WFM_Init
                         363 	.align	2
                         364 .LDW21:
                         365 
                         366 	.data
                         367 	.align	8
                         368 .L86:

                                                                      Page 8
                                                              C:\Users\YINGAO~1\AppData\Local\Temp\gh_00007n81.si
                         369 	.type	.L86,@object
                         370 	.size	.L86,0
                         371 	.global	_wfm_DisplayFuel..D.3A.5CRenesas_Electronics.5CD1x_RGL.5Crgl_ghs_D1Lx_obj_V1.2E2.2E0.5Cvlib.5Capp.5Cgfx_apps.5Csimple_draw_d1l2.5Ctarget.5Cd1lx_mango_ghs.5Cobj.5Cwfm.
                         372 _wfm_DisplayFuel..D.3A.5CRenesas_Electronics.5CD1x_RGL.5Crgl_ghs_D1Lx_obj_V1.2E2.2E0.5Cvlib.5Capp.5Cgfx_apps.5Csimple_draw_d1l2.5Ctarget.5Cd1lx_mango_ghs.5Cobj.5Cwfm.:
                         373 	.type	_wfm_DisplayFuel..D.3A.5CRenesas_Electronics.5CD1x_RGL.5Crgl_ghs_D1Lx_obj_V1.2E2.2E0.5Cvlib.5Capp.5Cgfx_apps.5Csimple_draw_d1l2.5Ctarget.5Cd1lx_mango_ghs.5Cobj.5Cwfm.,@object
                         374 	.size	_wfm_DisplayFuel..D.3A.5CRenesas_Electronics.5CD1x_RGL.5Crgl_ghs_D1Lx_obj_V1.2E2.2E0.5Cvlib.5Capp.5Cgfx_apps.5Csimple_draw_d1l2.5Ctarget.5Cd1lx_mango_ghs.5Cobj.5Cwfm.,8
00000000 00000000        375 _wfm_DisplayFuel:	.byte	0,0,0,0
00000004 00000000        376 	.byte	0,0,0,0
                         377 	.type	_wfm_DisplayFuel,@object
                         378 	.size	_wfm_DisplayFuel,8
                         379 	.global	_wfm_Cycle..D.3A.5CRenesas_Electronics.5CD1x_RGL.5Crgl_ghs_D1Lx_obj_V1.2E2.2E0.5Cvlib.5Capp.5Cgfx_apps.5Csimple_draw_d1l2.5Ctarget.5Cd1lx_mango_ghs.5Cobj.5Cwfm.
                         380 _wfm_Cycle..D.3A.5CRenesas_Electronics.5CD1x_RGL.5Crgl_ghs_D1Lx_obj_V1.2E2.2E0.5Cvlib.5Capp.5Cgfx_apps.5Csimple_draw_d1l2.5Ctarget.5Cd1lx_mango_ghs.5Cobj.5Cwfm.:
                         381 	.type	_wfm_Cycle..D.3A.5CRenesas_Electronics.5CD1x_RGL.5Crgl_ghs_D1Lx_obj_V1.2E2.2E0.5Cvlib.5Capp.5Cgfx_apps.5Csimple_draw_d1l2.5Ctarget.5Cd1lx_mango_ghs.5Cobj.5Cwfm.,@object
                         382 	.size	_wfm_Cycle..D.3A.5CRenesas_Electronics.5CD1x_RGL.5Crgl_ghs_D1Lx_obj_V1.2E2.2E0.5Cvlib.5Capp.5Cgfx_apps.5Csimple_draw_d1l2.5Ctarget.5Cd1lx_mango_ghs.5Cobj.5Cwfm.,4
00000008 00000000        383 _wfm_Cycle:	.byte	0,0,0,0
                         384 	.type	_wfm_Cycle,@object
                         385 	.size	_wfm_Cycle,4
                         386 	.global	_wfm_NetEnClntTem..D.3A.5CRenesas_Electronics.5CD1x_RGL.5Crgl_ghs_D1Lx_obj_V1.2E2.2E0.5Cvlib.5Capp.5Cgfx_apps.5Csimple_draw_d1l2.5Ctarget.5Cd1lx_mango_ghs.5Cobj.5Cwfm.
                         387 _wfm_NetEnClntTem..D.3A.5CRenesas_Electronics.5CD1x_RGL.5Crgl_ghs_D1Lx_obj_V1.2E2.2E0.5Cvlib.5Capp.5Cgfx_apps.5Csimple_draw_d1l2.5Ctarget.5Cd1lx_mango_ghs.5Cobj.5Cwfm.:
                         388 	.type	_wfm_NetEnClntTem..D.3A.5CRenesas_Electronics.5CD1x_RGL.5Crgl_ghs_D1Lx_obj_V1.2E2.2E0.5Cvlib.5Capp.5Cgfx_apps.5Csimple_draw_d1l2.5Ctarget.5Cd1lx_mango_ghs.5Cobj.5Cwfm.,@object
                         389 	.size	_wfm_NetEnClntTem..D.3A.5CRenesas_Electronics.5CD1x_RGL.5Crgl_ghs_D1Lx_obj_V1.2E2.2E0.5Cvlib.5Capp.5Cgfx_apps.5Csimple_draw_d1l2.5Ctarget.5Cd1lx_mango_ghs.5Cobj.5Cwfm.,2
0000000c 0000            390 _wfm_NetEnClntTem:	.byte	0,0
                         391 	.type	_wfm_NetEnClntTem,@object
                         392 	.size	_wfm_NetEnClntTem,2
                         393 	.global	_wfm_NetFuelTotCapct..D.3A.5CRenesas_Electronics.5CD1x_RGL.5Crgl_ghs_D1Lx_obj_V1.2E2.2E0.5Cvlib.5Capp.5Cgfx_apps.5Csimple_draw_d1l2.5Ctarget.5Cd1lx_mango_ghs.5Cobj.5Cwfm.
                         394 _wfm_NetFuelTotCapct..D.3A.5CRenesas_Electronics.5CD1x_RGL.5Crgl_ghs_D1Lx_obj_V1.2E2.2E0.5Cvlib.5Capp.5Cgfx_apps.5Csimple_draw_d1l2.5Ctarget.5Cd1lx_mango_ghs.5Cobj.5Cwfm.:
                         395 	.type	_wfm_NetFuelTotCapct..D.3A.5CRenesas_Electronics.5CD1x_RGL.5Crgl_ghs_D1Lx_obj_V1.2E2.2E0.5Cvlib.5Capp.5Cgfx_apps.5Csimple_draw_d1l2.5Ctarget.5Cd1lx_mango_ghs.5Cobj.5Cwfm.,@object
                         396 	.size	_wfm_NetFuelTotCapct..D.3A.5CRenesas_Electronics.5CD1x_RGL.5Crgl_ghs_D1Lx_obj_V1.2E2.2E0.5Cvlib.5Capp.5Cgfx_apps.5Csimple_draw_d1l2.5Ctarget.5Cd1lx_mango_ghs.5Cobj.5Cwfm.,2
0000000e 0000            397 _wfm_NetFuelTotCapct:	.byte	0,0
                         398 	.type	_wfm_NetFuelTotCapct,@object
                         399 	.size	_wfm_NetFuelTotCapct,2
                         400 	.section ".bss","awb"
                         401 	.align	2
                         402 	.global	_insFuelSeg1ThresPrm..D.3A.5CRenesas_Electronics.5CD1x_RGL.5Crgl_ghs_D1Lx_obj_V1.2E2.2E0.5Cvlib.5Capp.5Cgfx_apps.5Csimple_draw_d1l2.5Ctarget.5Cd1lx_mango_ghs.5Cobj.5Cwfm.
                         403 _insFuelSeg1ThresPrm..D.3A.5CRenesas_Electronics.5CD1x_RGL.5Crgl_ghs_D1Lx_obj_V1.2E2.2E0.5Cvlib.5Capp.5Cgfx_apps.5Csimple_draw_d1l2.5Ctarget.5Cd1lx_mango_ghs.5Cobj.5Cwfm.:
                         404 	.type	_insFuelSeg1ThresPrm..D.3A.5CRenesas_Electronics.5CD1x_RGL.5Crgl_ghs_D1Lx_obj_V1.2E2.2E0.5Cvlib.5Capp.5Cgfx_apps.5Csimple_draw_d1l2.5Ctarget.5Cd1lx_mango_ghs.5Cobj.5Cwfm.,@object
                         405 	.size	_insFuelSeg1ThresPrm..D.3A.5CRenesas_Electronics.5CD1x_RGL.5Crgl_ghs_D1Lx_obj_V1.2E2.2E0.5Cvlib.5Capp.5Cgfx_apps.5Csimple_draw_d1l2.5Ctarget.5Cd1lx_mango_ghs.5Cobj.5Cwfm.,2
00000000 0000            406 _insFuelSeg1ThresPrm:	.space	2
                         407 	.type	_insFuelSeg1ThresPrm,@object
                         408 	.size	_insFuelSeg1ThresPrm,2
                         409 	.global	_insFuelSeg2ThresPrm..D.3A.5CRenesas_Electronics.5CD1x_RGL.5Crgl_ghs_D1Lx_obj_V1.2E2.2E0.5Cvlib.5Capp.5Cgfx_apps.5Csimple_draw_d1l2.5Ctarget.5Cd1lx_mango_ghs.5Cobj.5Cwfm.
                         410 _insFuelSeg2ThresPrm..D.3A.5CRenesas_Electronics.5CD1x_RGL.5Crgl_ghs_D1Lx_obj_V1.2E2.2E0.5Cvlib.5Capp.5Cgfx_apps.5Csimple_draw_d1l2.5Ctarget.5Cd1lx_mango_ghs.5Cobj.5Cwfm.:
                         411 	.type	_insFuelSeg2ThresPrm..D.3A.5CRenesas_Electronics.5CD1x_RGL.5Crgl_ghs_D1Lx_obj_V1.2E2.2E0.5Cvlib.5Capp.5Cgfx_apps.5Csimple_draw_d1l2.5Ctarget.5Cd1lx_mango_ghs.5Cobj.5Cwfm.,@object
                         412 	.size	_insFuelSeg2ThresPrm..D.3A.5CRenesas_Electronics.5CD1x_RGL.5Crgl_ghs_D1Lx_obj_V1.2E2.2E0.5Cvlib.5Capp.5Cgfx_apps.5Csimple_draw_d1l2.5Ctarget.5Cd1lx_mango_ghs.5Cobj.5Cwfm.,2
00000002 0000            413 _insFuelSeg2ThresPrm:	.space	2
                         414 	.type	_insFuelSeg2ThresPrm,@object
                         415 	.size	_insFuelSeg2ThresPrm,2
                         416 	.global	_insFuelSeg3ThresPrm..D.3A.5CRenesas_Electronics.5CD1x_RGL.5Crgl_ghs_D1Lx_obj_V1.2E2.2E0.5Cvlib.5Capp.5Cgfx_apps.5Csimple_draw_d1l2.5Ctarget.5Cd1lx_mango_ghs.5Cobj.5Cwfm.
                         417 _insFuelSeg3ThresPrm..D.3A.5CRenesas_Electronics.5CD1x_RGL.5Crgl_ghs_D1Lx_obj_V1.2E2.2E0.5Cvlib.5Capp.5Cgfx_apps.5Csimple_draw_d1l2.5Ctarget.5Cd1lx_mango_ghs.5Cobj.5Cwfm.:
                         418 	.type	_insFuelSeg3ThresPrm..D.3A.5CRenesas_Electronics.5CD1x_RGL.5Crgl_ghs_D1Lx_obj_V1.2E2.2E0.5Cvlib.5Capp.5Cgfx_apps.5Csimple_draw_d1l2.5Ctarget.5Cd1lx_mango_ghs.5Cobj.5Cwfm.,@object
                         419 	.size	_insFuelSeg3ThresPrm..D.3A.5CRenesas_Electronics.5CD1x_RGL.5Crgl_ghs_D1Lx_obj_V1.2E2.2E0.5Cvlib.5Capp.5Cgfx_apps.5Csimple_draw_d1l2.5Ctarget.5Cd1lx_mango_ghs.5Cobj.5Cwfm.,2
00000004 0000            420 _insFuelSeg3ThresPrm:	.space	2
                         421 	.type	_insFuelSeg3ThresPrm,@object
                         422 	.size	_insFuelSeg3ThresPrm,2
                         423 	.global	_insFuelSeg4ThresPrm..D.3A.5CRenesas_Electronics.5CD1x_RGL.5Crgl_ghs_D1Lx_obj_V1.2E2.2E0.5Cvlib.5Capp.5Cgfx_apps.5Csimple_draw_d1l2.5Ctarget.5Cd1lx_mango_ghs.5Cobj.5Cwfm.
                         424 _insFuelSeg4ThresPrm..D.3A.5CRenesas_Electronics.5CD1x_RGL.5Crgl_ghs_D1Lx_obj_V1.2E2.2E0.5Cvlib.5Capp.5Cgfx_apps.5Csimple_draw_d1l2.5Ctarget.5Cd1lx_mango_ghs.5Cobj.5Cwfm.:
                         425 	.type	_insFuelSeg4ThresPrm..D.3A.5CRenesas_Electronics.5CD1x_RGL.5Crgl_ghs_D1Lx_obj_V1.2E2.2E0.5Cvlib.5Capp.5Cgfx_apps.5Csimple_draw_d1l2.5Ctarget.5Cd1lx_mango_ghs.5Cobj.5Cwfm.,@object
                         426 	.size	_insFuelSeg4ThresPrm..D.3A.5CRenesas_Electronics.5CD1x_RGL.5Crgl_ghs_D1Lx_obj_V1.2E2.2E0.5Cvlib.5Capp.5Cgfx_apps.5Csimple_draw_d1l2.5Ctarget.5Cd1lx_mango_ghs.5Cobj.5Cwfm.,2
00000006 0000            427 _insFuelSeg4ThresPrm:	.space	2
                         428 	.type	_insFuelSeg4ThresPrm,@object
                         429 	.size	_insFuelSeg4ThresPrm,2

                                                                      Page 9
                                                              C:\Users\YINGAO~1\AppData\Local\Temp\gh_00007n81.si
                         430 	.global	_insFuelSeg5ThresPrm..D.3A.5CRenesas_Electronics.5CD1x_RGL.5Crgl_ghs_D1Lx_obj_V1.2E2.2E0.5Cvlib.5Capp.5Cgfx_apps.5Csimple_draw_d1l2.5Ctarget.5Cd1lx_mango_ghs.5Cobj.5Cwfm.
                         431 _insFuelSeg5ThresPrm..D.3A.5CRenesas_Electronics.5CD1x_RGL.5Crgl_ghs_D1Lx_obj_V1.2E2.2E0.5Cvlib.5Capp.5Cgfx_apps.5Csimple_draw_d1l2.5Ctarget.5Cd1lx_mango_ghs.5Cobj.5Cwfm.:
                         432 	.type	_insFuelSeg5ThresPrm..D.3A.5CRenesas_Electronics.5CD1x_RGL.5Crgl_ghs_D1Lx_obj_V1.2E2.2E0.5Cvlib.5Capp.5Cgfx_apps.5Csimple_draw_d1l2.5Ctarget.5Cd1lx_mango_ghs.5Cobj.5Cwfm.,@object
                         433 	.size	_insFuelSeg5ThresPrm..D.3A.5CRenesas_Electronics.5CD1x_RGL.5Crgl_ghs_D1Lx_obj_V1.2E2.2E0.5Cvlib.5Capp.5Cgfx_apps.5Csimple_draw_d1l2.5Ctarget.5Cd1lx_mango_ghs.5Cobj.5Cwfm.,2
00000008 0000            434 _insFuelSeg5ThresPrm:	.space	2
                         435 	.type	_insFuelSeg5ThresPrm,@object
                         436 	.size	_insFuelSeg5ThresPrm,2
                         437 	.global	_insFuelSeg6ThresPrm..D.3A.5CRenesas_Electronics.5CD1x_RGL.5Crgl_ghs_D1Lx_obj_V1.2E2.2E0.5Cvlib.5Capp.5Cgfx_apps.5Csimple_draw_d1l2.5Ctarget.5Cd1lx_mango_ghs.5Cobj.5Cwfm.
                         438 _insFuelSeg6ThresPrm..D.3A.5CRenesas_Electronics.5CD1x_RGL.5Crgl_ghs_D1Lx_obj_V1.2E2.2E0.5Cvlib.5Capp.5Cgfx_apps.5Csimple_draw_d1l2.5Ctarget.5Cd1lx_mango_ghs.5Cobj.5Cwfm.:
                         439 	.type	_insFuelSeg6ThresPrm..D.3A.5CRenesas_Electronics.5CD1x_RGL.5Crgl_ghs_D1Lx_obj_V1.2E2.2E0.5Cvlib.5Capp.5Cgfx_apps.5Csimple_draw_d1l2.5Ctarget.5Cd1lx_mango_ghs.5Cobj.5Cwfm.,@object
                         440 	.size	_insFuelSeg6ThresPrm..D.3A.5CRenesas_Electronics.5CD1x_RGL.5Crgl_ghs_D1Lx_obj_V1.2E2.2E0.5Cvlib.5Capp.5Cgfx_apps.5Csimple_draw_d1l2.5Ctarget.5Cd1lx_mango_ghs.5Cobj.5Cwfm.,2
0000000a 0000            441 _insFuelSeg6ThresPrm:	.space	2
                         442 	.type	_insFuelSeg6ThresPrm,@object
                         443 	.size	_insFuelSeg6ThresPrm,2
                         444 	.global	_insFuelSeg7ThresPrm..D.3A.5CRenesas_Electronics.5CD1x_RGL.5Crgl_ghs_D1Lx_obj_V1.2E2.2E0.5Cvlib.5Capp.5Cgfx_apps.5Csimple_draw_d1l2.5Ctarget.5Cd1lx_mango_ghs.5Cobj.5Cwfm.
                         445 _insFuelSeg7ThresPrm..D.3A.5CRenesas_Electronics.5CD1x_RGL.5Crgl_ghs_D1Lx_obj_V1.2E2.2E0.5Cvlib.5Capp.5Cgfx_apps.5Csimple_draw_d1l2.5Ctarget.5Cd1lx_mango_ghs.5Cobj.5Cwfm.:
                         446 	.type	_insFuelSeg7ThresPrm..D.3A.5CRenesas_Electronics.5CD1x_RGL.5Crgl_ghs_D1Lx_obj_V1.2E2.2E0.5Cvlib.5Capp.5Cgfx_apps.5Csimple_draw_d1l2.5Ctarget.5Cd1lx_mango_ghs.5Cobj.5Cwfm.,@object
                         447 	.size	_insFuelSeg7ThresPrm..D.3A.5CRenesas_Electronics.5CD1x_RGL.5Crgl_ghs_D1Lx_obj_V1.2E2.2E0.5Cvlib.5Capp.5Cgfx_apps.5Csimple_draw_d1l2.5Ctarget.5Cd1lx_mango_ghs.5Cobj.5Cwfm.,2
0000000c 0000            448 _insFuelSeg7ThresPrm:	.space	2
                         449 	.type	_insFuelSeg7ThresPrm,@object
                         450 	.size	_insFuelSeg7ThresPrm,2
                         451 	.global	_insFuelSeg8ThresPrm..D.3A.5CRenesas_Electronics.5CD1x_RGL.5Crgl_ghs_D1Lx_obj_V1.2E2.2E0.5Cvlib.5Capp.5Cgfx_apps.5Csimple_draw_d1l2.5Ctarget.5Cd1lx_mango_ghs.5Cobj.5Cwfm.
                         452 _insFuelSeg8ThresPrm..D.3A.5CRenesas_Electronics.5CD1x_RGL.5Crgl_ghs_D1Lx_obj_V1.2E2.2E0.5Cvlib.5Capp.5Cgfx_apps.5Csimple_draw_d1l2.5Ctarget.5Cd1lx_mango_ghs.5Cobj.5Cwfm.:
                         453 	.type	_insFuelSeg8ThresPrm..D.3A.5CRenesas_Electronics.5CD1x_RGL.5Crgl_ghs_D1Lx_obj_V1.2E2.2E0.5Cvlib.5Capp.5Cgfx_apps.5Csimple_draw_d1l2.5Ctarget.5Cd1lx_mango_ghs.5Cobj.5Cwfm.,@object
                         454 	.size	_insFuelSeg8ThresPrm..D.3A.5CRenesas_Electronics.5CD1x_RGL.5Crgl_ghs_D1Lx_obj_V1.2E2.2E0.5Cvlib.5Capp.5Cgfx_apps.5Csimple_draw_d1l2.5Ctarget.5Cd1lx_mango_ghs.5Cobj.5Cwfm.,2
0000000e 0000            455 _insFuelSeg8ThresPrm:	.space	2
                         456 	.type	_insFuelSeg8ThresPrm,@object
                         457 	.size	_insFuelSeg8ThresPrm,2
                         458 	.global	_insTempSeg2ThresPrm..D.3A.5CRenesas_Electronics.5CD1x_RGL.5Crgl_ghs_D1Lx_obj_V1.2E2.2E0.5Cvlib.5Capp.5Cgfx_apps.5Csimple_draw_d1l2.5Ctarget.5Cd1lx_mango_ghs.5Cobj.5Cwfm.
                         459 _insTempSeg2ThresPrm..D.3A.5CRenesas_Electronics.5CD1x_RGL.5Crgl_ghs_D1Lx_obj_V1.2E2.2E0.5Cvlib.5Capp.5Cgfx_apps.5Csimple_draw_d1l2.5Ctarget.5Cd1lx_mango_ghs.5Cobj.5Cwfm.:
                         460 	.type	_insTempSeg2ThresPrm..D.3A.5CRenesas_Electronics.5CD1x_RGL.5Crgl_ghs_D1Lx_obj_V1.2E2.2E0.5Cvlib.5Capp.5Cgfx_apps.5Csimple_draw_d1l2.5Ctarget.5Cd1lx_mango_ghs.5Cobj.5Cwfm.,@object
                         461 	.size	_insTempSeg2ThresPrm..D.3A.5CRenesas_Electronics.5CD1x_RGL.5Crgl_ghs_D1Lx_obj_V1.2E2.2E0.5Cvlib.5Capp.5Cgfx_apps.5Csimple_draw_d1l2.5Ctarget.5Cd1lx_mango_ghs.5Cobj.5Cwfm.,2
00000010 0000            462 _insTempSeg2ThresPrm:	.space	2
                         463 	.type	_insTempSeg2ThresPrm,@object
                         464 	.size	_insTempSeg2ThresPrm,2
                         465 	.global	_insTempSeg3ThresPrm..D.3A.5CRenesas_Electronics.5CD1x_RGL.5Crgl_ghs_D1Lx_obj_V1.2E2.2E0.5Cvlib.5Capp.5Cgfx_apps.5Csimple_draw_d1l2.5Ctarget.5Cd1lx_mango_ghs.5Cobj.5Cwfm.
                         466 _insTempSeg3ThresPrm..D.3A.5CRenesas_Electronics.5CD1x_RGL.5Crgl_ghs_D1Lx_obj_V1.2E2.2E0.5Cvlib.5Capp.5Cgfx_apps.5Csimple_draw_d1l2.5Ctarget.5Cd1lx_mango_ghs.5Cobj.5Cwfm.:
                         467 	.type	_insTempSeg3ThresPrm..D.3A.5CRenesas_Electronics.5CD1x_RGL.5Crgl_ghs_D1Lx_obj_V1.2E2.2E0.5Cvlib.5Capp.5Cgfx_apps.5Csimple_draw_d1l2.5Ctarget.5Cd1lx_mango_ghs.5Cobj.5Cwfm.,@object
                         468 	.size	_insTempSeg3ThresPrm..D.3A.5CRenesas_Electronics.5CD1x_RGL.5Crgl_ghs_D1Lx_obj_V1.2E2.2E0.5Cvlib.5Capp.5Cgfx_apps.5Csimple_draw_d1l2.5Ctarget.5Cd1lx_mango_ghs.5Cobj.5Cwfm.,2
00000012 0000            469 _insTempSeg3ThresPrm:	.space	2
                         470 	.type	_insTempSeg3ThresPrm,@object
                         471 	.size	_insTempSeg3ThresPrm,2
                         472 	.global	_insTempSeg4ThresPrm..D.3A.5CRenesas_Electronics.5CD1x_RGL.5Crgl_ghs_D1Lx_obj_V1.2E2.2E0.5Cvlib.5Capp.5Cgfx_apps.5Csimple_draw_d1l2.5Ctarget.5Cd1lx_mango_ghs.5Cobj.5Cwfm.
                         473 _insTempSeg4ThresPrm..D.3A.5CRenesas_Electronics.5CD1x_RGL.5Crgl_ghs_D1Lx_obj_V1.2E2.2E0.5Cvlib.5Capp.5Cgfx_apps.5Csimple_draw_d1l2.5Ctarget.5Cd1lx_mango_ghs.5Cobj.5Cwfm.:
                         474 	.type	_insTempSeg4ThresPrm..D.3A.5CRenesas_Electronics.5CD1x_RGL.5Crgl_ghs_D1Lx_obj_V1.2E2.2E0.5Cvlib.5Capp.5Cgfx_apps.5Csimple_draw_d1l2.5Ctarget.5Cd1lx_mango_ghs.5Cobj.5Cwfm.,@object
                         475 	.size	_insTempSeg4ThresPrm..D.3A.5CRenesas_Electronics.5CD1x_RGL.5Crgl_ghs_D1Lx_obj_V1.2E2.2E0.5Cvlib.5Capp.5Cgfx_apps.5Csimple_draw_d1l2.5Ctarget.5Cd1lx_mango_ghs.5Cobj.5Cwfm.,2
00000014 0000            476 _insTempSeg4ThresPrm:	.space	2
                         477 	.type	_insTempSeg4ThresPrm,@object
                         478 	.size	_insTempSeg4ThresPrm,2
                         479 	.global	_insTempSeg5ThresPrm..D.3A.5CRenesas_Electronics.5CD1x_RGL.5Crgl_ghs_D1Lx_obj_V1.2E2.2E0.5Cvlib.5Capp.5Cgfx_apps.5Csimple_draw_d1l2.5Ctarget.5Cd1lx_mango_ghs.5Cobj.5Cwfm.
                         480 _insTempSeg5ThresPrm..D.3A.5CRenesas_Electronics.5CD1x_RGL.5Crgl_ghs_D1Lx_obj_V1.2E2.2E0.5Cvlib.5Capp.5Cgfx_apps.5Csimple_draw_d1l2.5Ctarget.5Cd1lx_mango_ghs.5Cobj.5Cwfm.:
                         481 	.type	_insTempSeg5ThresPrm..D.3A.5CRenesas_Electronics.5CD1x_RGL.5Crgl_ghs_D1Lx_obj_V1.2E2.2E0.5Cvlib.5Capp.5Cgfx_apps.5Csimple_draw_d1l2.5Ctarget.5Cd1lx_mango_ghs.5Cobj.5Cwfm.,@object
                         482 	.size	_insTempSeg5ThresPrm..D.3A.5CRenesas_Electronics.5CD1x_RGL.5Crgl_ghs_D1Lx_obj_V1.2E2.2E0.5Cvlib.5Capp.5Cgfx_apps.5Csimple_draw_d1l2.5Ctarget.5Cd1lx_mango_ghs.5Cobj.5Cwfm.,2
00000016 0000            483 _insTempSeg5ThresPrm:	.space	2
                         484 	.type	_insTempSeg5ThresPrm,@object
                         485 	.size	_insTempSeg5ThresPrm,2
                         486 	.global	_insTempSeg6ThresPrm..D.3A.5CRenesas_Electronics.5CD1x_RGL.5Crgl_ghs_D1Lx_obj_V1.2E2.2E0.5Cvlib.5Capp.5Cgfx_apps.5Csimple_draw_d1l2.5Ctarget.5Cd1lx_mango_ghs.5Cobj.5Cwfm.
                         487 _insTempSeg6ThresPrm..D.3A.5CRenesas_Electronics.5CD1x_RGL.5Crgl_ghs_D1Lx_obj_V1.2E2.2E0.5Cvlib.5Capp.5Cgfx_apps.5Csimple_draw_d1l2.5Ctarget.5Cd1lx_mango_ghs.5Cobj.5Cwfm.:
                         488 	.type	_insTempSeg6ThresPrm..D.3A.5CRenesas_Electronics.5CD1x_RGL.5Crgl_ghs_D1Lx_obj_V1.2E2.2E0.5Cvlib.5Capp.5Cgfx_apps.5Csimple_draw_d1l2.5Ctarget.5Cd1lx_mango_ghs.5Cobj.5Cwfm.,@object
                         489 	.size	_insTempSeg6ThresPrm..D.3A.5CRenesas_Electronics.5CD1x_RGL.5Crgl_ghs_D1Lx_obj_V1.2E2.2E0.5Cvlib.5Capp.5Cgfx_apps.5Csimple_draw_d1l2.5Ctarget.5Cd1lx_mango_ghs.5Cobj.5Cwfm.,2
00000018 0000            490 _insTempSeg6ThresPrm:	.space	2

                                                                      Page 10
                                                              C:\Users\YINGAO~1\AppData\Local\Temp\gh_00007n81.si
                         491 	.type	_insTempSeg6ThresPrm,@object
                         492 	.size	_insTempSeg6ThresPrm,2
                         493 	.global	_insTempSeg7ThresPrm..D.3A.5CRenesas_Electronics.5CD1x_RGL.5Crgl_ghs_D1Lx_obj_V1.2E2.2E0.5Cvlib.5Capp.5Cgfx_apps.5Csimple_draw_d1l2.5Ctarget.5Cd1lx_mango_ghs.5Cobj.5Cwfm.
                         494 _insTempSeg7ThresPrm..D.3A.5CRenesas_Electronics.5CD1x_RGL.5Crgl_ghs_D1Lx_obj_V1.2E2.2E0.5Cvlib.5Capp.5Cgfx_apps.5Csimple_draw_d1l2.5Ctarget.5Cd1lx_mango_ghs.5Cobj.5Cwfm.:
                         495 	.type	_insTempSeg7ThresPrm..D.3A.5CRenesas_Electronics.5CD1x_RGL.5Crgl_ghs_D1Lx_obj_V1.2E2.2E0.5Cvlib.5Capp.5Cgfx_apps.5Csimple_draw_d1l2.5Ctarget.5Cd1lx_mango_ghs.5Cobj.5Cwfm.,@object
                         496 	.size	_insTempSeg7ThresPrm..D.3A.5CRenesas_Electronics.5CD1x_RGL.5Crgl_ghs_D1Lx_obj_V1.2E2.2E0.5Cvlib.5Capp.5Cgfx_apps.5Csimple_draw_d1l2.5Ctarget.5Cd1lx_mango_ghs.5Cobj.5Cwfm.,2
0000001a 0000            497 _insTempSeg7ThresPrm:	.space	2
                         498 	.type	_insTempSeg7ThresPrm,@object
                         499 	.size	_insTempSeg7ThresPrm,2
                         500 	.global	_insTempSeg8ThresPrm..D.3A.5CRenesas_Electronics.5CD1x_RGL.5Crgl_ghs_D1Lx_obj_V1.2E2.2E0.5Cvlib.5Capp.5Cgfx_apps.5Csimple_draw_d1l2.5Ctarget.5Cd1lx_mango_ghs.5Cobj.5Cwfm.
                         501 _insTempSeg8ThresPrm..D.3A.5CRenesas_Electronics.5CD1x_RGL.5Crgl_ghs_D1Lx_obj_V1.2E2.2E0.5Cvlib.5Capp.5Cgfx_apps.5Csimple_draw_d1l2.5Ctarget.5Cd1lx_mango_ghs.5Cobj.5Cwfm.:
                         502 	.type	_insTempSeg8ThresPrm..D.3A.5CRenesas_Electronics.5CD1x_RGL.5Crgl_ghs_D1Lx_obj_V1.2E2.2E0.5Cvlib.5Capp.5Cgfx_apps.5Csimple_draw_d1l2.5Ctarget.5Cd1lx_mango_ghs.5Cobj.5Cwfm.,@object
                         503 	.size	_insTempSeg8ThresPrm..D.3A.5CRenesas_Electronics.5CD1x_RGL.5Crgl_ghs_D1Lx_obj_V1.2E2.2E0.5Cvlib.5Capp.5Cgfx_apps.5Csimple_draw_d1l2.5Ctarget.5Cd1lx_mango_ghs.5Cobj.5Cwfm.,2
0000001c 0000            504 _insTempSeg8ThresPrm:	.space	2
                         505 	.type	_insTempSeg8ThresPrm,@object
                         506 	.size	_insTempSeg8ThresPrm,2
                         507 	.data
                         508 	.global	_wfm_WTFault..D.3A.5CRenesas_Electronics.5CD1x_RGL.5Crgl_ghs_D1Lx_obj_V1.2E2.2E0.5Cvlib.5Capp.5Cgfx_apps.5Csimple_draw_d1l2.5Ctarget.5Cd1lx_mango_ghs.5Cobj.5Cwfm.
                         509 _wfm_WTFault..D.3A.5CRenesas_Electronics.5CD1x_RGL.5Crgl_ghs_D1Lx_obj_V1.2E2.2E0.5Cvlib.5Capp.5Cgfx_apps.5Csimple_draw_d1l2.5Ctarget.5Cd1lx_mango_ghs.5Cobj.5Cwfm.:
                         510 	.type	_wfm_WTFault..D.3A.5CRenesas_Electronics.5CD1x_RGL.5Crgl_ghs_D1Lx_obj_V1.2E2.2E0.5Cvlib.5Capp.5Cgfx_apps.5Csimple_draw_d1l2.5Ctarget.5Cd1lx_mango_ghs.5Cobj.5Cwfm.,@object
                         511 	.size	_wfm_WTFault..D.3A.5CRenesas_Electronics.5CD1x_RGL.5Crgl_ghs_D1Lx_obj_V1.2E2.2E0.5Cvlib.5Capp.5Cgfx_apps.5Csimple_draw_d1l2.5Ctarget.5Cd1lx_mango_ghs.5Cobj.5Cwfm.,1
00000010 00              512 _wfm_WTFault:	.byte	0
                         513 	.type	_wfm_WTFault,@object
                         514 	.size	_wfm_WTFault,1
                         515 	.global	_wfm_fuelSeg..D.3A.5CRenesas_Electronics.5CD1x_RGL.5Crgl_ghs_D1Lx_obj_V1.2E2.2E0.5Cvlib.5Capp.5Cgfx_apps.5Csimple_draw_d1l2.5Ctarget.5Cd1lx_mango_ghs.5Cobj.5Cwfm.
                         516 _wfm_fuelSeg..D.3A.5CRenesas_Electronics.5CD1x_RGL.5Crgl_ghs_D1Lx_obj_V1.2E2.2E0.5Cvlib.5Capp.5Cgfx_apps.5Csimple_draw_d1l2.5Ctarget.5Cd1lx_mango_ghs.5Cobj.5Cwfm.:
                         517 	.type	_wfm_fuelSeg..D.3A.5CRenesas_Electronics.5CD1x_RGL.5Crgl_ghs_D1Lx_obj_V1.2E2.2E0.5Cvlib.5Capp.5Cgfx_apps.5Csimple_draw_d1l2.5Ctarget.5Cd1lx_mango_ghs.5Cobj.5Cwfm.,@object
                         518 	.size	_wfm_fuelSeg..D.3A.5CRenesas_Electronics.5CD1x_RGL.5Crgl_ghs_D1Lx_obj_V1.2E2.2E0.5Cvlib.5Capp.5Cgfx_apps.5Csimple_draw_d1l2.5Ctarget.5Cd1lx_mango_ghs.5Cobj.5Cwfm.,1
00000011 00              519 _wfm_fuelSeg:	.byte	0
                         520 	.type	_wfm_fuelSeg,@object
                         521 	.size	_wfm_fuelSeg,1
                         522 	.global	_wfm_TmptSeg..D.3A.5CRenesas_Electronics.5CD1x_RGL.5Crgl_ghs_D1Lx_obj_V1.2E2.2E0.5Cvlib.5Capp.5Cgfx_apps.5Csimple_draw_d1l2.5Ctarget.5Cd1lx_mango_ghs.5Cobj.5Cwfm.
                         523 _wfm_TmptSeg..D.3A.5CRenesas_Electronics.5CD1x_RGL.5Crgl_ghs_D1Lx_obj_V1.2E2.2E0.5Cvlib.5Capp.5Cgfx_apps.5Csimple_draw_d1l2.5Ctarget.5Cd1lx_mango_ghs.5Cobj.5Cwfm.:
                         524 	.type	_wfm_TmptSeg..D.3A.5CRenesas_Electronics.5CD1x_RGL.5Crgl_ghs_D1Lx_obj_V1.2E2.2E0.5Cvlib.5Capp.5Cgfx_apps.5Csimple_draw_d1l2.5Ctarget.5Cd1lx_mango_ghs.5Cobj.5Cwfm.,@object
                         525 	.size	_wfm_TmptSeg..D.3A.5CRenesas_Electronics.5CD1x_RGL.5Crgl_ghs_D1Lx_obj_V1.2E2.2E0.5Cvlib.5Capp.5Cgfx_apps.5Csimple_draw_d1l2.5Ctarget.5Cd1lx_mango_ghs.5Cobj.5Cwfm.,1
00000012 00              526 _wfm_TmptSeg:	.byte	0
                         527 	.type	_wfm_TmptSeg,@object
                         528 	.size	_wfm_TmptSeg,1
                         529 	.global	_wfm_InvalidFltTmptSeg..D.3A.5CRenesas_Electronics.5CD1x_RGL.5Crgl_ghs_D1Lx_obj_V1.2E2.2E0.5Cvlib.5Capp.5Cgfx_apps.5Csimple_draw_d1l2.5Ctarget.5Cd1lx_mango_ghs.5Cobj.5Cwfm.
                         530 _wfm_InvalidFltTmptSeg..D.3A.5CRenesas_Electronics.5CD1x_RGL.5Crgl_ghs_D1Lx_obj_V1.2E2.2E0.5Cvlib.5Capp.5Cgfx_apps.5Csimple_draw_d1l2.5Ctarget.5Cd1lx_mango_ghs.5Cobj.5Cwfm.:
                         531 	.type	_wfm_InvalidFltTmptSeg..D.3A.5CRenesas_Electronics.5CD1x_RGL.5Crgl_ghs_D1Lx_obj_V1.2E2.2E0.5Cvlib.5Capp.5Cgfx_apps.5Csimple_draw_d1l2.5Ctarget.5Cd1lx_mango_ghs.5Cobj.5Cwfm.,@object
                         532 	.size	_wfm_InvalidFltTmptSeg..D.3A.5CRenesas_Electronics.5CD1x_RGL.5Crgl_ghs_D1Lx_obj_V1.2E2.2E0.5Cvlib.5Capp.5Cgfx_apps.5Csimple_draw_d1l2.5Ctarget.5Cd1lx_mango_ghs.5Cobj.5Cwfm.,1
00000013 00              533 _wfm_InvalidFltTmptSeg:	.byte	0
                         534 	.type	_wfm_InvalidFltTmptSeg,@object
                         535 	.size	_wfm_InvalidFltTmptSeg,1
                         536 	.global	_wfm_ecmNodeMiss..D.3A.5CRenesas_Electronics.5CD1x_RGL.5Crgl_ghs_D1Lx_obj_V1.2E2.2E0.5Cvlib.5Capp.5Cgfx_apps.5Csimple_draw_d1l2.5Ctarget.5Cd1lx_mango_ghs.5Cobj.5Cwfm.
                         537 _wfm_ecmNodeMiss..D.3A.5CRenesas_Electronics.5CD1x_RGL.5Crgl_ghs_D1Lx_obj_V1.2E2.2E0.5Cvlib.5Capp.5Cgfx_apps.5Csimple_draw_d1l2.5Ctarget.5Cd1lx_mango_ghs.5Cobj.5Cwfm.:
                         538 	.type	_wfm_ecmNodeMiss..D.3A.5CRenesas_Electronics.5CD1x_RGL.5Crgl_ghs_D1Lx_obj_V1.2E2.2E0.5Cvlib.5Capp.5Cgfx_apps.5Csimple_draw_d1l2.5Ctarget.5Cd1lx_mango_ghs.5Cobj.5Cwfm.,@object
                         539 	.size	_wfm_ecmNodeMiss..D.3A.5CRenesas_Electronics.5CD1x_RGL.5Crgl_ghs_D1Lx_obj_V1.2E2.2E0.5Cvlib.5Capp.5Cgfx_apps.5Csimple_draw_d1l2.5Ctarget.5Cd1lx_mango_ghs.5Cobj.5Cwfm.,1
00000014 00              540 _wfm_ecmNodeMiss:	.byte	0
                         541 	.type	_wfm_ecmNodeMiss,@object
                         542 	.size	_wfm_ecmNodeMiss,1
                         543 	.global	_wfm_coolantInvalidFlt..D.3A.5CRenesas_Electronics.5CD1x_RGL.5Crgl_ghs_D1Lx_obj_V1.2E2.2E0.5Cvlib.5Capp.5Cgfx_apps.5Csimple_draw_d1l2.5Ctarget.5Cd1lx_mango_ghs.5Cobj.5Cwfm.
                         544 _wfm_coolantInvalidFlt..D.3A.5CRenesas_Electronics.5CD1x_RGL.5Crgl_ghs_D1Lx_obj_V1.2E2.2E0.5Cvlib.5Capp.5Cgfx_apps.5Csimple_draw_d1l2.5Ctarget.5Cd1lx_mango_ghs.5Cobj.5Cwfm.:
                         545 	.type	_wfm_coolantInvalidFlt..D.3A.5CRenesas_Electronics.5CD1x_RGL.5Crgl_ghs_D1Lx_obj_V1.2E2.2E0.5Cvlib.5Capp.5Cgfx_apps.5Csimple_draw_d1l2.5Ctarget.5Cd1lx_mango_ghs.5Cobj.5Cwfm.,@object
                         546 	.size	_wfm_coolantInvalidFlt..D.3A.5CRenesas_Electronics.5CD1x_RGL.5Crgl_ghs_D1Lx_obj_V1.2E2.2E0.5Cvlib.5Capp.5Cgfx_apps.5Csimple_draw_d1l2.5Ctarget.5Cd1lx_mango_ghs.5Cobj.5Cwfm.,1
00000015 00              547 _wfm_coolantInvalidFlt:	.byte	0
                         548 	.type	_wfm_coolantInvalidFlt,@object
                         549 	.size	_wfm_coolantInvalidFlt,1
                         550 	.global	_wfm_NetEnClntTemV..D.3A.5CRenesas_Electronics.5CD1x_RGL.5Crgl_ghs_D1Lx_obj_V1.2E2.2E0.5Cvlib.5Capp.5Cgfx_apps.5Csimple_draw_d1l2.5Ctarget.5Cd1lx_mango_ghs.5Cobj.5Cwfm.
                         551 _wfm_NetEnClntTemV..D.3A.5CRenesas_Electronics.5CD1x_RGL.5Crgl_ghs_D1Lx_obj_V1.2E2.2E0.5Cvlib.5Capp.5Cgfx_apps.5Csimple_draw_d1l2.5Ctarget.5Cd1lx_mango_ghs.5Cobj.5Cwfm.:

                                                                      Page 11
                                                              C:\Users\YINGAO~1\AppData\Local\Temp\gh_00007n81.si
                         552 	.type	_wfm_NetEnClntTemV..D.3A.5CRenesas_Electronics.5CD1x_RGL.5Crgl_ghs_D1Lx_obj_V1.2E2.2E0.5Cvlib.5Capp.5Cgfx_apps.5Csimple_draw_d1l2.5Ctarget.5Cd1lx_mango_ghs.5Cobj.5Cwfm.,@object
                         553 	.size	_wfm_NetEnClntTemV..D.3A.5CRenesas_Electronics.5CD1x_RGL.5Crgl_ghs_D1Lx_obj_V1.2E2.2E0.5Cvlib.5Capp.5Cgfx_apps.5Csimple_draw_d1l2.5Ctarget.5Cd1lx_mango_ghs.5Cobj.5Cwfm.,1
00000016 00              554 _wfm_NetEnClntTemV:	.byte	0
                         555 	.type	_wfm_NetEnClntTemV,@object
                         556 	.size	_wfm_NetEnClntTemV,1
                         557 	.global	_wfm_FuelFault..D.3A.5CRenesas_Electronics.5CD1x_RGL.5Crgl_ghs_D1Lx_obj_V1.2E2.2E0.5Cvlib.5Capp.5Cgfx_apps.5Csimple_draw_d1l2.5Ctarget.5Cd1lx_mango_ghs.5Cobj.5Cwfm.
                         558 _wfm_FuelFault..D.3A.5CRenesas_Electronics.5CD1x_RGL.5Crgl_ghs_D1Lx_obj_V1.2E2.2E0.5Cvlib.5Capp.5Cgfx_apps.5Csimple_draw_d1l2.5Ctarget.5Cd1lx_mango_ghs.5Cobj.5Cwfm.:
                         559 	.type	_wfm_FuelFault..D.3A.5CRenesas_Electronics.5CD1x_RGL.5Crgl_ghs_D1Lx_obj_V1.2E2.2E0.5Cvlib.5Capp.5Cgfx_apps.5Csimple_draw_d1l2.5Ctarget.5Cd1lx_mango_ghs.5Cobj.5Cwfm.,@object
                         560 	.size	_wfm_FuelFault..D.3A.5CRenesas_Electronics.5CD1x_RGL.5Crgl_ghs_D1Lx_obj_V1.2E2.2E0.5Cvlib.5Capp.5Cgfx_apps.5Csimple_draw_d1l2.5Ctarget.5Cd1lx_mango_ghs.5Cobj.5Cwfm.,1
00000017 00              561 _wfm_FuelFault:	.byte	0
                         562 	.type	_wfm_FuelFault,@object
                         563 	.size	_wfm_FuelFault,1
                         564 	.global	_wfm_NetClstrDspdFuelLvlSgmt..D.3A.5CRenesas_Electronics.5CD1x_RGL.5Crgl_ghs_D1Lx_obj_V1.2E2.2E0.5Cvlib.5Capp.5Cgfx_apps.5Csimple_draw_d1l2.5Ctarget.5Cd1lx_mango_ghs.5Cobj.5Cwfm.
                         565 _wfm_NetClstrDspdFuelLvlSgmt..D.3A.5CRenesas_Electronics.5CD1x_RGL.5Crgl_ghs_D1Lx_obj_V1.2E2.2E0.5Cvlib.5Capp.5Cgfx_apps.5Csimple_draw_d1l2.5Ctarget.5Cd1lx_mango_ghs.5Cobj.5Cwfm.:
                         566 	.type	_wfm_NetClstrDspdFuelLvlSgmt..D.3A.5CRenesas_Electronics.5CD1x_RGL.5Crgl_ghs_D1Lx_obj_V1.2E2.2E0.5Cvlib.5Capp.5Cgfx_apps.5Csimple_draw_d1l2.5Ctarget.5Cd1lx_mango_ghs.5Cobj.5Cwfm.,@object
                         567 	.size	_wfm_NetClstrDspdFuelLvlSgmt..D.3A.5CRenesas_Electronics.5CD1x_RGL.5Crgl_ghs_D1Lx_obj_V1.2E2.2E0.5Cvlib.5Capp.5Cgfx_apps.5Csimple_draw_d1l2.5Ctarget.5Cd1lx_mango_ghs.5Cobj.5Cwfm.,1
00000018 00              568 _wfm_NetClstrDspdFuelLvlSgmt:	.byte	0
                         569 	.type	_wfm_NetClstrDspdFuelLvlSgmt,@object
                         570 	.size	_wfm_NetClstrDspdFuelLvlSgmt,1
                         571 	.global	_wfm_InitSts..D.3A.5CRenesas_Electronics.5CD1x_RGL.5Crgl_ghs_D1Lx_obj_V1.2E2.2E0.5Cvlib.5Capp.5Cgfx_apps.5Csimple_draw_d1l2.5Ctarget.5Cd1lx_mango_ghs.5Cobj.5Cwfm.
                         572 _wfm_InitSts..D.3A.5CRenesas_Electronics.5CD1x_RGL.5Crgl_ghs_D1Lx_obj_V1.2E2.2E0.5Cvlib.5Capp.5Cgfx_apps.5Csimple_draw_d1l2.5Ctarget.5Cd1lx_mango_ghs.5Cobj.5Cwfm.:
                         573 	.type	_wfm_InitSts..D.3A.5CRenesas_Electronics.5CD1x_RGL.5Crgl_ghs_D1Lx_obj_V1.2E2.2E0.5Cvlib.5Capp.5Cgfx_apps.5Csimple_draw_d1l2.5Ctarget.5Cd1lx_mango_ghs.5Cobj.5Cwfm.,@object
                         574 	.size	_wfm_InitSts..D.3A.5CRenesas_Electronics.5CD1x_RGL.5Crgl_ghs_D1Lx_obj_V1.2E2.2E0.5Cvlib.5Capp.5Cgfx_apps.5Csimple_draw_d1l2.5Ctarget.5Cd1lx_mango_ghs.5Cobj.5Cwfm.,1
00000019 00              575 _wfm_InitSts:	.byte	0
                         576 	.type	_wfm_InitSts,@object
                         577 	.size	_wfm_InitSts,1
                         578 	.global	_wfm_WrnngProssPRO..D.3A.5CRenesas_Electronics.5CD1x_RGL.5Crgl_ghs_D1Lx_obj_V1.2E2.2E0.5Cvlib.5Capp.5Cgfx_apps.5Csimple_draw_d1l2.5Ctarget.5Cd1lx_mango_ghs.5Cobj.5Cwfm.
                         579 _wfm_WrnngProssPRO..D.3A.5CRenesas_Electronics.5CD1x_RGL.5Crgl_ghs_D1Lx_obj_V1.2E2.2E0.5Cvlib.5Capp.5Cgfx_apps.5Csimple_draw_d1l2.5Ctarget.5Cd1lx_mango_ghs.5Cobj.5Cwfm.:
                         580 	.type	_wfm_WrnngProssPRO..D.3A.5CRenesas_Electronics.5CD1x_RGL.5Crgl_ghs_D1Lx_obj_V1.2E2.2E0.5Cvlib.5Capp.5Cgfx_apps.5Csimple_draw_d1l2.5Ctarget.5Cd1lx_mango_ghs.5Cobj.5Cwfm.,@object
                         581 	.size	_wfm_WrnngProssPRO..D.3A.5CRenesas_Electronics.5CD1x_RGL.5Crgl_ghs_D1Lx_obj_V1.2E2.2E0.5Cvlib.5Capp.5Cgfx_apps.5Csimple_draw_d1l2.5Ctarget.5Cd1lx_mango_ghs.5Cobj.5Cwfm.,1
0000001a 00              582 _wfm_WrnngProssPRO:	.byte	0
                         583 	.type	_wfm_WrnngProssPRO,@object
                         584 	.size	_wfm_WrnngProssPRO,1
                         585 	.global	_wfm_fuelsnsflt..D.3A.5CRenesas_Electronics.5CD1x_RGL.5Crgl_ghs_D1Lx_obj_V1.2E2.2E0.5Cvlib.5Capp.5Cgfx_apps.5Csimple_draw_d1l2.5Ctarget.5Cd1lx_mango_ghs.5Cobj.5Cwfm.
                         586 _wfm_fuelsnsflt..D.3A.5CRenesas_Electronics.5CD1x_RGL.5Crgl_ghs_D1Lx_obj_V1.2E2.2E0.5Cvlib.5Capp.5Cgfx_apps.5Csimple_draw_d1l2.5Ctarget.5Cd1lx_mango_ghs.5Cobj.5Cwfm.:
                         587 	.type	_wfm_fuelsnsflt..D.3A.5CRenesas_Electronics.5CD1x_RGL.5Crgl_ghs_D1Lx_obj_V1.2E2.2E0.5Cvlib.5Capp.5Cgfx_apps.5Csimple_draw_d1l2.5Ctarget.5Cd1lx_mango_ghs.5Cobj.5Cwfm.,@object
                         588 	.size	_wfm_fuelsnsflt..D.3A.5CRenesas_Electronics.5CD1x_RGL.5Crgl_ghs_D1Lx_obj_V1.2E2.2E0.5Cvlib.5Capp.5Cgfx_apps.5Csimple_draw_d1l2.5Ctarget.5Cd1lx_mango_ghs.5Cobj.5Cwfm.,1
0000001b 00              589 _wfm_fuelsnsflt:	.byte	0
                         590 	.type	_wfm_fuelsnsflt,@object
                         591 	.size	_wfm_fuelsnsflt,1
                         592 	.section ".bss","awb"
                         593 	.global	_insTempDisplayHysPrm..D.3A.5CRenesas_Electronics.5CD1x_RGL.5Crgl_ghs_D1Lx_obj_V1.2E2.2E0.5Cvlib.5Capp.5Cgfx_apps.5Csimple_draw_d1l2.5Ctarget.5Cd1lx_mango_ghs.5Cobj.5Cwfm.
                         594 _insTempDisplayHysPrm..D.3A.5CRenesas_Electronics.5CD1x_RGL.5Crgl_ghs_D1Lx_obj_V1.2E2.2E0.5Cvlib.5Capp.5Cgfx_apps.5Csimple_draw_d1l2.5Ctarget.5Cd1lx_mango_ghs.5Cobj.5Cwfm.:
                         595 	.type	_insTempDisplayHysPrm..D.3A.5CRenesas_Electronics.5CD1x_RGL.5Crgl_ghs_D1Lx_obj_V1.2E2.2E0.5Cvlib.5Capp.5Cgfx_apps.5Csimple_draw_d1l2.5Ctarget.5Cd1lx_mango_ghs.5Cobj.5Cwfm.,@object
                         596 	.size	_insTempDisplayHysPrm..D.3A.5CRenesas_Electronics.5CD1x_RGL.5Crgl_ghs_D1Lx_obj_V1.2E2.2E0.5Cvlib.5Capp.5Cgfx_apps.5Csimple_draw_d1l2.5Ctarget.5Cd1lx_mango_ghs.5Cobj.5Cwfm.,1
0000001e 00              597 _insTempDisplayHysPrm:	.space	1
                         598 	.type	_insTempDisplayHysPrm,@object
                         599 	.size	_insTempDisplayHysPrm,1
                         600 	.data
                         601 	.text
                         602 
                         603 
                         604 --120: /**************************************************
                         605 --121: *Function :WFM_Process_20ms
                         606 --122: *Description: WFM Module Process
                         607 --123: *Parameters:none
                         608 --124: *Returns: none
                         609 --125: **create&Verlog:
                         610 --126: *Author Name xs  Date:2017-6-22    Ver:2.0
                         611 --127: ***************************************************/
                         612 --128: void WFM_Process_20ms(void)

                                                                      Page 12
                                                              C:\Users\YINGAO~1\AppData\Local\Temp\gh_00007n81.si
                         613 	.align	2
                         614 	.align	2
                         615 	.global	_WFM_Process_20ms
                         616 _WFM_Process_20ms:
00000140 8007e100        617 	prepare	{r28,r29,r31},0
00000144 3d0600000000*   618 	mov	_wfm_ecmNodeMiss,r29
0000014a 3de60600        619 	movea	6,r29,r28
                         620 --	    .bf
                         621 .LDW31:
                         622 --129: {
                         623 --130: 	if(TRUE == wfm_InitSts)
0000014e bd0f0500        624 	ld.bu	5[r29],r1
00000152 610a            625 	cmp	1,r1
00000154 ea1d*           626 	bne	.L198
                         627 --131: 	{
                         628 --132: 		wfm_WrnngProssPRO ++;
                         629 --line132
                         630 ..lin.D.3A.5CRenesas_Electronics.5CD1x_RGL.5Crgl_ghs_D1Lx_obj_V1.2E2.2E0.5Cvlib.5Capp.5Cgfx_apps.5Csimple_draw_d1l2.5Ctarget.5Cd1lx_mango_ghs.5Cobj.5Cwfm.17::
                         631 .LDWlin17:
00000156 9d0f0700        632 	ld.bu	6[r29],r1
0000015a 410a            633 	add	1,r1
0000015c 5d0f0600        634 	st.b	r1,6[r29]
                         635 --134: 		if(WFM_WRNNG_PERIOD_CNT <= wfm_WrnngProssPRO)
00000160 9d0f0700        636 	ld.bu	6[r29],r1
00000164 650a            637 	cmp	5,r1
00000166 d115*           638 	bl	.L198
                         639 --135: 		{
                         640 --136: 			wfm_WrnngProssPRO = 0;
                         641 --line136
                         642 ..lin.D.3A.5CRenesas_Electronics.5CD1x_RGL.5Crgl_ghs_D1Lx_obj_V1.2E2.2E0.5Cvlib.5Capp.5Cgfx_apps.5Csimple_draw_d1l2.5Ctarget.5Cd1lx_mango_ghs.5Cobj.5Cwfm.18::
                         643 .LDWlin18:
00000168 5d070600        644 	st.b	zero,6[r29]
                         645 --137: 			NWD_GetNodeMissing(INDEX_ECM_NODE,&wfm_ecmNodeMiss);
0000016c 0032            646 	mov	0,r6
0000016e 270600000000*   647 	mov	_wfm_ecmNodeMiss,r7
                         648 	jarl	_NWD_GetNodeMissing,lp
                         648 <EXPANSION BEGIN>
                         648 jarl22 _NWD_GetNodeMissing , lp 
00000174 80ff0000*       648 <EXPANSION END>
                         649 --138: 			wfm_FuelSegmentProcess();
                         650 --line138
                         651 ..lin.D.3A.5CRenesas_Electronics.5CD1x_RGL.5Crgl_ghs_D1Lx_obj_V1.2E2.2E0.5Cvlib.5Capp.5Cgfx_apps.5Csimple_draw_d1l2.5Ctarget.5Cd1lx_mango_ghs.5Cobj.5Cwfm.19::
                         652 .LDWlin19:
                         653 	jarl	_wfm_FuelSegmentProcess,lp
                         653 <EXPANSION BEGIN>
                         653 jarl22 _wfm_FuelSegmentProcess , lp 
00000178 80ff1e00*       653 <EXPANSION END>
                         654 --139: 			wfm_WaterSegmentProcess();
                         655 --line139
                         656 ..lin.D.3A.5CRenesas_Electronics.5CD1x_RGL.5Crgl_ghs_D1Lx_obj_V1.2E2.2E0.5Cvlib.5Capp.5Cgfx_apps.5Csimple_draw_d1l2.5Ctarget.5Cd1lx_mango_ghs.5Cobj.5Cwfm.20::
                         657 .LDWlin20:
                         658 	jarl	_wfm_WaterSegmentProcess,lp
                         658 <EXPANSION BEGIN>
                         658 jarl22 _wfm_WaterSegmentProcess , lp 
0000017c 80ff5602*       658 <EXPANSION END>
                         659 --140:             wfm_WaterInvalidFltProcess();
                         660 --line140
                         661 ..lin.D.3A.5CRenesas_Electronics.5CD1x_RGL.5Crgl_ghs_D1Lx_obj_V1.2E2.2E0.5Cvlib.5Capp.5Cgfx_apps.5Csimple_draw_d1l2.5Ctarget.5Cd1lx_mango_ghs.5Cobj.5Cwfm.21::
                         662 .LDWlin21:
                         663 	jarl	_wfm_WaterInvalidFltProcess,lp
                         663 <EXPANSION BEGIN>

                                                                      Page 13
                                                              C:\Users\YINGAO~1\AppData\Local\Temp\gh_00007n81.si
                         663 jarl22 _wfm_WaterInvalidFltProcess , lp 
00000180 80ff0c04*       663 <EXPANSION END>
                         664 --141:             wfm_coolantInvalidSegProcess();            
                         665 --line141
                         666 ..lin.D.3A.5CRenesas_Electronics.5CD1x_RGL.5Crgl_ghs_D1Lx_obj_V1.2E2.2E0.5Cvlib.5Capp.5Cgfx_apps.5Csimple_draw_d1l2.5Ctarget.5Cd1lx_mango_ghs.5Cobj.5Cwfm.22::
                         667 .LDWlin22:
                         668 	jarl	_wfm_coolantInvalidSegProcess,lp
                         668 <EXPANSION BEGIN>
                         668 jarl22 _wfm_coolantInvalidSegProcess , lp 
00000184 80ff4a04*       668 <EXPANSION END>
                         669 --142:             wfm_FuelSensorOutRang_Process();
                         670 --line142
                         671 ..lin.D.3A.5CRenesas_Electronics.5CD1x_RGL.5Crgl_ghs_D1Lx_obj_V1.2E2.2E0.5Cvlib.5Capp.5Cgfx_apps.5Csimple_draw_d1l2.5Ctarget.5Cd1lx_mango_ghs.5Cobj.5Cwfm.23::
                         672 .LDWlin23:
                         673 	jarl	_wfm_FuelSensorOutRang_Process,lp
                         673 <EXPANSION BEGIN>
                         673 jarl22 _wfm_FuelSensorOutRang_Process , lp 
00000188 80ff7e05*       673 <EXPANSION END>
                         674 --143: 			wfm_Process_Flt_Segment_process();
                         675 --line143
                         676 ..lin.D.3A.5CRenesas_Electronics.5CD1x_RGL.5Crgl_ghs_D1Lx_obj_V1.2E2.2E0.5Cvlib.5Capp.5Cgfx_apps.5Csimple_draw_d1l2.5Ctarget.5Cd1lx_mango_ghs.5Cobj.5Cwfm.24::
                         677 .LDWlin24:
                         678 	jarl	_wfm_Process_Flt_Segment_process,lp
                         678 <EXPANSION BEGIN>
                         678 jarl22 _wfm_Process_Flt_Segment_process , lp 
0000018c 80ff2e05*       678 <EXPANSION END>
                         679 .L198:
                         680 --144: 		}
                         681 --145: 		else
                         682 --146: 		{
                         683 --147: 		/*do nothing*/
                         684 --148: 		}
                         685 --149: 	}
                         686 --150: 	else
                         687 --151: 	{
                         688 --152: 		/*do nothing*/
                         689 --153: 	}
                         690 --154: }
                         691 --line154
                         692 ..lin.D.3A.5CRenesas_Electronics.5CD1x_RGL.5Crgl_ghs_D1Lx_obj_V1.2E2.2E0.5Cvlib.5Capp.5Cgfx_apps.5Csimple_draw_d1l2.5Ctarget.5Cd1lx_mango_ghs.5Cobj.5Cwfm.25::
                         693 .LDWlin25:
00000190 0000            694 	nop
                         695 --	    .ef
                         696 .LDW41:
00000192 4006ff00        697 	dispose	0,{r28,r29,r31},[lp]
                         698 	.type	_WFM_Process_20ms,@function
                         699 	.size	_WFM_Process_20ms,.-_WFM_Process_20ms
                         700 	.align	2
                         701 .LDW51:
                         702 
                         703 	.data
                         704 	.text
                         705 
                         706 
                         707 --156: /**************************************************
                         708 --157: *Function :wfm_FuelSegmentProcess
                         709 --158: *Description: Process Fuel Information,SEG calculate,Fault detect,.etc
                         710 --159: *Parameters:none
                         711 --160: *Returns: NONE
                         712 --162: **create&Verlog:
                         713 --163: *Author Name xs  Date:2017-6-22    Ver:2.0

                                                                      Page 14
                                                              C:\Users\YINGAO~1\AppData\Local\Temp\gh_00007n81.si
                         714 --164: ***************************************************/
                         715 --165: static void wfm_FuelSegmentProcess( void )
                         716 	.align	2
                         717 	.align	2
                         718 	.global	_wfm_FuelSegmentProcess..D.3A.5CRenesas_Electronics.5CD1x_RGL.5Crgl_ghs_D1Lx_obj_V1.2E2.2E0.5Cvlib.5Capp.5Cgfx_apps.5Csimple_draw_d1l2.5Ctarget.5Cd1lx_mango_ghs.5Cobj.5Cwfm.
                         719 _wfm_FuelSegmentProcess..D.3A.5CRenesas_Electronics.5CD1x_RGL.5Crgl_ghs_D1Lx_obj_V1.2E2.2E0.5Cvlib.5Capp.5Cgfx_apps.5Csimple_draw_d1l2.5Ctarget.5Cd1lx_mango_ghs.5Cobj.5Cwfm.:
                         720 _wfm_FuelSegmentProcess:
00000196 8207e170        721 	prepare	{r25,r26,r27,r28,r29,r31},1
0000019a 3d0600000000*   722 	mov	_insFuelSeg1ThresPrm,r29
000001a0 3c0600000000*   723 	mov	_wfm_DisplayFuel,r28
000001a6 3b0600000000*   724 	mov	_wfm_fuelSeg,r27
000001ac 3a0600000000*   725 	mov	_wfm_FuelFault,r26
000001b2 3dce0c00        726 	movea	12,r29,r25
                         727 --	    .bf
                         728 .LDW61:
                         729 --166: {
                         730 --167:     U8 res;
                         731 --168:     U8 mode;
                         732 --169: 	
                         733 --170:     //res = PWR_GetPwrMode(&mode);
                         734 --171: 	//if ((RET_OK == res) && ((PWR_CRANK == mode) || (PWR_RUN ==mode)))
                         735 --172: 	if (TRUE == wfm_InitSts)
000001b6 210600000000*   736 	mov	_wfm_InitSts,r1
000001bc 810f0100        737 	ld.bu	0[r1],r1
000001c0 610a            738 	cmp	1,r1
000001c2 ea070102*       739 	bne	.L284
                         740 --173: 	{
                         741 --174: 		/*process fuel and water temperature internal*/
                         742 --175: 		wfm_DisplayFuel = FL_GetDisplayFuel();
                         743 --line175
                         744 ..lin.D.3A.5CRenesas_Electronics.5CD1x_RGL.5Crgl_ghs_D1Lx_obj_V1.2E2.2E0.5Cvlib.5Capp.5Cgfx_apps.5Csimple_draw_d1l2.5Ctarget.5Cd1lx_mango_ghs.5Cobj.5Cwfm.26::
                         745 .LDWlin26:
                         746 	jarl	_FL_GetDisplayFuel,lp
                         746 <EXPANSION BEGIN>
                         746 jarl22 _FL_GetDisplayFuel , lp 
000001c6 80ff0000*       746 <EXPANSION END>
000001ca bc070f500000    747 	st.dw	r10,0[r28]
                         748 --176: 		/*SEG CALCULATE*/
                         749 --177: 		if (wfm_DisplayFuel < insFuelSeg1ThresPrm)
                         750 --line177
                         751 ..lin.D.3A.5CRenesas_Electronics.5CD1x_RGL.5Crgl_ghs_D1Lx_obj_V1.2E2.2E0.5Cvlib.5Capp.5Cgfx_apps.5Csimple_draw_d1l2.5Ctarget.5Cd1lx_mango_ghs.5Cobj.5Cwfm.27::
                         752 .LDWlin27:
000001d0 210600000000*   753 	mov	_insFuelSeg1ThresPrm,r1
000001d6 e10f0100        754 	ld.hu	0[r1],r1
000001da bc0709500000    755 	ld.dw	0[r28],r10
000001e0 f00f5264        756 	cvtf.uwd	r1,r12
000001e4 ea673074        757 	cmpf.d	le,r12,r10,0
000001e8 e0070004        758 	trfsr	0
000001ec d205*           759 	be	.L286
                         760 --178: 		{
                         761 --179: 			wfm_fuelSeg = LEVEL_WFM_SEGNONE;
                         762 --line179
                         763 ..lin.D.3A.5CRenesas_Electronics.5CD1x_RGL.5Crgl_ghs_D1Lx_obj_V1.2E2.2E0.5Cvlib.5Capp.5Cgfx_apps.5Csimple_draw_d1l2.5Ctarget.5Cd1lx_mango_ghs.5Cobj.5Cwfm.28::
                         764 .LDWlin28:
000001ee 5b070000        765 	st.b	zero,0[r27]
000001f2 80079c01*       766 	br	.L288
                         767 .L286:
                         768 --180: 		}
                         769 --181: 		else if ((wfm_DisplayFuel >= insFuelSeg1ThresPrm)
                         770 --line181
                         771 ..lin.D.3A.5CRenesas_Electronics.5CD1x_RGL.5Crgl_ghs_D1Lx_obj_V1.2E2.2E0.5Cvlib.5Capp.5Cgfx_apps.5Csimple_draw_d1l2.5Ctarget.5Cd1lx_mango_ghs.5Cobj.5Cwfm.29::

                                                                      Page 15
                                                              C:\Users\YINGAO~1\AppData\Local\Temp\gh_00007n81.si
                         772 .LDWlin29:
000001f6 210600000000*   773 	mov	_insFuelSeg1ThresPrm,r1
000001fc e10f0100        774 	ld.hu	0[r1],r1
00000200 bc0709500000    775 	ld.dw	0[r28],r10
00000206 f00f5264        776 	cvtf.uwd	r1,r12
0000020a ec573264        777 	cmpf.d	lt,r10,r12,1
0000020e e0070204        778 	trfsr	1
00000212 a215*           779 	be	.L289
00000214 fd0f0300        780 	ld.hu	2[r29],r1
00000218 bc0709500000    781 	ld.dw	0[r28],r10
0000021e f00f5264        782 	cvtf.uwd	r1,r12
00000222 ea673474        783 	cmpf.d	le,r12,r10,2
00000226 e0070404        784 	trfsr	2
0000022a e205*           785 	be	.L289
                         786 --182: 			&& (wfm_DisplayFuel < insFuelSeg2ThresPrm))
                         787 --183: 		{
                         788 --184: 			wfm_fuelSeg = LEVEL_WFM_SEG1;
                         789 --line184
                         790 ..lin.D.3A.5CRenesas_Electronics.5CD1x_RGL.5Crgl_ghs_D1Lx_obj_V1.2E2.2E0.5Cvlib.5Capp.5Cgfx_apps.5Csimple_draw_d1l2.5Ctarget.5Cd1lx_mango_ghs.5Cobj.5Cwfm.30::
                         791 .LDWlin30:
0000022c 010a            792 	mov	1,r1
0000022e 5b0f0000        793 	st.b	r1,0[r27]
00000232 80075c01*       794 	br	.L288
                         795 .L289:
                         796 --185: 		}
                         797 --186: 		else if ((wfm_DisplayFuel >= insFuelSeg2ThresPrm)
                         798 --line186
                         799 ..lin.D.3A.5CRenesas_Electronics.5CD1x_RGL.5Crgl_ghs_D1Lx_obj_V1.2E2.2E0.5Cvlib.5Capp.5Cgfx_apps.5Csimple_draw_d1l2.5Ctarget.5Cd1lx_mango_ghs.5Cobj.5Cwfm.31::
                         800 .LDWlin31:
00000236 fd0f0300        801 	ld.hu	2[r29],r1
0000023a bc0709500000    802 	ld.dw	0[r28],r10
00000240 f00f5264        803 	cvtf.uwd	r1,r12
00000244 ec573664        804 	cmpf.d	lt,r10,r12,3
00000248 e0070604        805 	trfsr	3
0000024c a215*           806 	be	.L293
0000024e fd0f0500        807 	ld.hu	4[r29],r1
00000252 bc0709500000    808 	ld.dw	0[r28],r10
00000258 f00f5264        809 	cvtf.uwd	r1,r12
0000025c ea673874        810 	cmpf.d	le,r12,r10,4
00000260 e0070804        811 	trfsr	4
00000264 e205*           812 	be	.L293
                         813 --187: 			&& (wfm_DisplayFuel < insFuelSeg3ThresPrm))
                         814 --188: 		{
                         815 --189: 			wfm_fuelSeg = LEVEL_WFM_SEG2;
                         816 --line189
                         817 ..lin.D.3A.5CRenesas_Electronics.5CD1x_RGL.5Crgl_ghs_D1Lx_obj_V1.2E2.2E0.5Cvlib.5Capp.5Cgfx_apps.5Csimple_draw_d1l2.5Ctarget.5Cd1lx_mango_ghs.5Cobj.5Cwfm.32::
                         818 .LDWlin32:
00000266 020a            819 	mov	2,r1
00000268 5b0f0000        820 	st.b	r1,0[r27]
0000026c 80072201*       821 	br	.L288
                         822 .L293:
                         823 --190: 		}
                         824 --191: 		else if ((wfm_DisplayFuel >= insFuelSeg3ThresPrm)
                         825 --line191
                         826 ..lin.D.3A.5CRenesas_Electronics.5CD1x_RGL.5Crgl_ghs_D1Lx_obj_V1.2E2.2E0.5Cvlib.5Capp.5Cgfx_apps.5Csimple_draw_d1l2.5Ctarget.5Cd1lx_mango_ghs.5Cobj.5Cwfm.33::
                         827 .LDWlin33:
00000270 fd0f0500        828 	ld.hu	4[r29],r1
00000274 bc0709500000    829 	ld.dw	0[r28],r10
0000027a f00f5264        830 	cvtf.uwd	r1,r12
0000027e ec573a64        831 	cmpf.d	lt,r10,r12,5
00000282 e0070a04        832 	trfsr	5

                                                                      Page 16
                                                              C:\Users\YINGAO~1\AppData\Local\Temp\gh_00007n81.si
00000286 9215*           833 	be	.L297
00000288 fd0f0700        834 	ld.hu	6[r29],r1
0000028c bc0709500000    835 	ld.dw	0[r28],r10
00000292 f00f5264        836 	cvtf.uwd	r1,r12
00000296 ea673c74        837 	cmpf.d	le,r12,r10,6
0000029a e0070c04        838 	trfsr	6
0000029e d205*           839 	be	.L297
                         840 --192: 			&& (wfm_DisplayFuel < insFuelSeg4ThresPrm))
                         841 --193: 		{
                         842 --194: 			wfm_fuelSeg = LEVEL_WFM_SEG3;
                         843 --line194
                         844 ..lin.D.3A.5CRenesas_Electronics.5CD1x_RGL.5Crgl_ghs_D1Lx_obj_V1.2E2.2E0.5Cvlib.5Capp.5Cgfx_apps.5Csimple_draw_d1l2.5Ctarget.5Cd1lx_mango_ghs.5Cobj.5Cwfm.34::
                         845 .LDWlin34:
000002a0 030a            846 	mov	3,r1
000002a2 5b0f0000        847 	st.b	r1,0[r27]
000002a6 c575*           848 	br	.L288
                         849 .L297:
                         850 --195: 		}
                         851 --196: 		else if ((wfm_DisplayFuel >= insFuelSeg4ThresPrm)
                         852 --line196
                         853 ..lin.D.3A.5CRenesas_Electronics.5CD1x_RGL.5Crgl_ghs_D1Lx_obj_V1.2E2.2E0.5Cvlib.5Capp.5Cgfx_apps.5Csimple_draw_d1l2.5Ctarget.5Cd1lx_mango_ghs.5Cobj.5Cwfm.35::
                         854 .LDWlin35:
000002a8 fd0f0700        855 	ld.hu	6[r29],r1
000002ac bc0709500000    856 	ld.dw	0[r28],r10
000002b2 f00f5264        857 	cvtf.uwd	r1,r12
000002b6 ec573e64        858 	cmpf.d	lt,r10,r12,7
000002ba e0070e04        859 	trfsr	7
000002be 9215*           860 	be	.L301
000002c0 fd0f0900        861 	ld.hu	8[r29],r1
000002c4 bc0709500000    862 	ld.dw	0[r28],r10
000002ca f00f5264        863 	cvtf.uwd	r1,r12
000002ce ea673074        864 	cmpf.d	le,r12,r10,0
000002d2 e0070004        865 	trfsr	0
000002d6 d205*           866 	be	.L301
                         867 --197: 			&& (wfm_DisplayFuel < insFuelSeg5ThresPrm))
                         868 --198: 		{
                         869 --199: 			wfm_fuelSeg = LEVEL_WFM_SEG4;
                         870 --line199
                         871 ..lin.D.3A.5CRenesas_Electronics.5CD1x_RGL.5Crgl_ghs_D1Lx_obj_V1.2E2.2E0.5Cvlib.5Capp.5Cgfx_apps.5Csimple_draw_d1l2.5Ctarget.5Cd1lx_mango_ghs.5Cobj.5Cwfm.36::
                         872 .LDWlin36:
000002d8 040a            873 	mov	4,r1
000002da 5b0f0000        874 	st.b	r1,0[r27]
000002de 855d*           875 	br	.L288
                         876 .L301:
                         877 --200: 		}
                         878 --201: 		else if ((wfm_DisplayFuel >= insFuelSeg5ThresPrm)
                         879 --line201
                         880 ..lin.D.3A.5CRenesas_Electronics.5CD1x_RGL.5Crgl_ghs_D1Lx_obj_V1.2E2.2E0.5Cvlib.5Capp.5Cgfx_apps.5Csimple_draw_d1l2.5Ctarget.5Cd1lx_mango_ghs.5Cobj.5Cwfm.37::
                         881 .LDWlin37:
000002e0 fd0f0900        882 	ld.hu	8[r29],r1
000002e4 bc0709500000    883 	ld.dw	0[r28],r10
000002ea f00f5264        884 	cvtf.uwd	r1,r12
000002ee ec573264        885 	cmpf.d	lt,r10,r12,1
000002f2 e0070204        886 	trfsr	1
000002f6 9215*           887 	be	.L305
000002f8 fd0f0b00        888 	ld.hu	10[r29],r1
000002fc bc0709500000    889 	ld.dw	0[r28],r10
00000302 f00f5264        890 	cvtf.uwd	r1,r12
00000306 ea673474        891 	cmpf.d	le,r12,r10,2
0000030a e0070404        892 	trfsr	2
0000030e d205*           893 	be	.L305

                                                                      Page 17
                                                              C:\Users\YINGAO~1\AppData\Local\Temp\gh_00007n81.si
                         894 --202: 			&& (wfm_DisplayFuel < insFuelSeg6ThresPrm))
                         895 --203: 		{
                         896 --204: 			wfm_fuelSeg = LEVEL_WFM_SEG5;
                         897 --line204
                         898 ..lin.D.3A.5CRenesas_Electronics.5CD1x_RGL.5Crgl_ghs_D1Lx_obj_V1.2E2.2E0.5Cvlib.5Capp.5Cgfx_apps.5Csimple_draw_d1l2.5Ctarget.5Cd1lx_mango_ghs.5Cobj.5Cwfm.38::
                         899 .LDWlin38:
00000310 050a            900 	mov	5,r1
00000312 5b0f0000        901 	st.b	r1,0[r27]
00000316 c53d*           902 	br	.L288
                         903 .L305:
                         904 --205: 		}
                         905 --206: 		else if ((wfm_DisplayFuel >= insFuelSeg6ThresPrm)
                         906 --line206
                         907 ..lin.D.3A.5CRenesas_Electronics.5CD1x_RGL.5Crgl_ghs_D1Lx_obj_V1.2E2.2E0.5Cvlib.5Capp.5Cgfx_apps.5Csimple_draw_d1l2.5Ctarget.5Cd1lx_mango_ghs.5Cobj.5Cwfm.39::
                         908 .LDWlin39:
00000318 fd0f0b00        909 	ld.hu	10[r29],r1
0000031c bc0709500000    910 	ld.dw	0[r28],r10
00000322 f00f5264        911 	cvtf.uwd	r1,r12
00000326 ec573664        912 	cmpf.d	lt,r10,r12,3
0000032a e0070604        913 	trfsr	3
0000032e 9215*           914 	be	.L309
00000330 fd0f0d00        915 	ld.hu	12[r29],r1
00000334 bc0709500000    916 	ld.dw	0[r28],r10
0000033a f00f5264        917 	cvtf.uwd	r1,r12
0000033e ea673874        918 	cmpf.d	le,r12,r10,4
00000342 e0070804        919 	trfsr	4
00000346 d205*           920 	be	.L309
                         921 --207: 			&& (wfm_DisplayFuel < insFuelSeg7ThresPrm))
                         922 --208: 		{
                         923 --209: 			wfm_fuelSeg = LEVEL_WFM_SEG6;
                         924 --line209
                         925 ..lin.D.3A.5CRenesas_Electronics.5CD1x_RGL.5Crgl_ghs_D1Lx_obj_V1.2E2.2E0.5Cvlib.5Capp.5Cgfx_apps.5Csimple_draw_d1l2.5Ctarget.5Cd1lx_mango_ghs.5Cobj.5Cwfm.40::
                         926 .LDWlin40:
00000348 060a            927 	mov	6,r1
0000034a 5b0f0000        928 	st.b	r1,0[r27]
0000034e 8525*           929 	br	.L288
                         930 .L309:
                         931 --210: 		}
                         932 --211: 		else if ((wfm_DisplayFuel >= insFuelSeg7ThresPrm)
                         933 --line211
                         934 ..lin.D.3A.5CRenesas_Electronics.5CD1x_RGL.5Crgl_ghs_D1Lx_obj_V1.2E2.2E0.5Cvlib.5Capp.5Cgfx_apps.5Csimple_draw_d1l2.5Ctarget.5Cd1lx_mango_ghs.5Cobj.5Cwfm.41::
                         935 .LDWlin41:
00000350 fd0f0d00        936 	ld.hu	12[r29],r1
00000354 bc0709500000    937 	ld.dw	0[r28],r10
0000035a f00f5264        938 	cvtf.uwd	r1,r12
0000035e ec573a64        939 	cmpf.d	lt,r10,r12,5
00000362 e0070a04        940 	trfsr	5
00000366 9215*           941 	be	.L313
00000368 fd0f0f00        942 	ld.hu	14[r29],r1
0000036c bc0709500000    943 	ld.dw	0[r28],r10
00000372 f00f5264        944 	cvtf.uwd	r1,r12
00000376 ea673c74        945 	cmpf.d	le,r12,r10,6
0000037a e0070c04        946 	trfsr	6
0000037e d205*           947 	be	.L313
                         948 --212: 			&& (wfm_DisplayFuel < insFuelSeg8ThresPrm))
                         949 --213: 		{
                         950 --214: 			wfm_fuelSeg = LEVEL_WFM_SEG7;
                         951 --line214
                         952 ..lin.D.3A.5CRenesas_Electronics.5CD1x_RGL.5Crgl_ghs_D1Lx_obj_V1.2E2.2E0.5Cvlib.5Capp.5Cgfx_apps.5Csimple_draw_d1l2.5Ctarget.5Cd1lx_mango_ghs.5Cobj.5Cwfm.42::
                         953 .LDWlin42:
00000380 070a            954 	mov	7,r1

                                                                      Page 18
                                                              C:\Users\YINGAO~1\AppData\Local\Temp\gh_00007n81.si
00000382 5b0f0000        955 	st.b	r1,0[r27]
00000386 c505*           956 	br	.L288
                         957 .L313:
                         958 --215: 		}
                         959 --216: 		else
                         960 --217: 		{
                         961 --218: 			wfm_fuelSeg	= LEVEL_WFM_SEG8;
                         962 --line218
                         963 ..lin.D.3A.5CRenesas_Electronics.5CD1x_RGL.5Crgl_ghs_D1Lx_obj_V1.2E2.2E0.5Cvlib.5Capp.5Cgfx_apps.5Csimple_draw_d1l2.5Ctarget.5Cd1lx_mango_ghs.5Cobj.5Cwfm.43::
                         964 .LDWlin43:
00000388 080a            965 	mov	8,r1
0000038a 5b0f0000        966 	st.b	r1,0[r27]
                         967 .L288:
                         968 --219: 		}
                         969 --221: 		/*NetWork output value update*/
                         970 --222: 		wfm_NetClstrDspdFuelLvlSgmt = wfm_fuelSeg;
0000038e 9b0f0100        971 	ld.bu	0[r27],r1
00000392 2b0600000000*   972 	mov	_wfm_NetClstrDspdFuelLvlSgmt,r11
00000398 4b0f0000        973 	st.b	r1,0[r11]
                         974 --225: 		/*FAULT DETECT*/
                         975 --226: 		if(LEVEL_WFM_SEGNONE == wfm_fuelSeg)
0000039c 9b0f0100        976 	ld.bu	0[r27],r1
000003a0 e009            977 	cmp	zero,r1
000003a2 da05*           978 	bne	.L317
                         979 --227: 		{
                         980 --228: 			wfm_FuelFault = TYPE_WARN_FUEL_CRITICAL;
                         981 --line228
                         982 ..lin.D.3A.5CRenesas_Electronics.5CD1x_RGL.5Crgl_ghs_D1Lx_obj_V1.2E2.2E0.5Cvlib.5Capp.5Cgfx_apps.5Csimple_draw_d1l2.5Ctarget.5Cd1lx_mango_ghs.5Cobj.5Cwfm.44::
                         983 .LDWlin44:
000003a4 020a            984 	mov	2,r1
000003a6 5a0f0000        985 	st.b	r1,0[r26]
000003aa 9515*           986 	br	.L323
                         987 .L317:
                         988 --229: 		}
                         989 --230: 		else if(LEVEL_WFM_SEG1== wfm_fuelSeg)
                         990 --line230
                         991 ..lin.D.3A.5CRenesas_Electronics.5CD1x_RGL.5Crgl_ghs_D1Lx_obj_V1.2E2.2E0.5Cvlib.5Capp.5Cgfx_apps.5Csimple_draw_d1l2.5Ctarget.5Cd1lx_mango_ghs.5Cobj.5Cwfm.45::
                         992 .LDWlin45:
000003ac 9b0f0100        993 	ld.bu	0[r27],r1
000003b0 610a            994 	cmp	1,r1
000003b2 da05*           995 	bne	.L320
                         996 --231: 		{
                         997 --232: 			wfm_FuelFault = TYPE_WARN_FUEL_LOW;
                         998 --line232
                         999 ..lin.D.3A.5CRenesas_Electronics.5CD1x_RGL.5Crgl_ghs_D1Lx_obj_V1.2E2.2E0.5Cvlib.5Capp.5Cgfx_apps.5Csimple_draw_d1l2.5Ctarget.5Cd1lx_mango_ghs.5Cobj.5Cwfm.46::
                        1000 .LDWlin46:
000003b4 010a           1001 	mov	1,r1
000003b6 5a0f0000       1002 	st.b	r1,0[r26]
000003ba 950d*          1003 	br	.L323
                        1004 .L320:
                        1005 --233: 		}
                        1006 --234: 		else
                        1007 --235: 		{
                        1008 --236: 			wfm_FuelFault = TYPE_WARN_FUEL_OK;
                        1009 --line236
                        1010 ..lin.D.3A.5CRenesas_Electronics.5CD1x_RGL.5Crgl_ghs_D1Lx_obj_V1.2E2.2E0.5Cvlib.5Capp.5Cgfx_apps.5Csimple_draw_d1l2.5Ctarget.5Cd1lx_mango_ghs.5Cobj.5Cwfm.47::
                        1011 .LDWlin47:
000003bc 5a070000       1012 	st.b	zero,0[r26]
000003c0 e505*          1013 	br	.L323
                        1014 .L284:
                        1015 --237: 		}

                                                                      Page 19
                                                              C:\Users\YINGAO~1\AppData\Local\Temp\gh_00007n81.si
                        1016 --238:    }
                        1017 --239:    else
                        1018 --240:    {
                        1019 --241:         wfm_fuelSeg = LEVEL_WFM_ALL;
                        1020 --line241
                        1021 ..lin.D.3A.5CRenesas_Electronics.5CD1x_RGL.5Crgl_ghs_D1Lx_obj_V1.2E2.2E0.5Cvlib.5Capp.5Cgfx_apps.5Csimple_draw_d1l2.5Ctarget.5Cd1lx_mango_ghs.5Cobj.5Cwfm.48::
                        1022 .LDWlin48:
000003c2 090a           1023 	mov	9,r1
000003c4 5b0f0000       1024 	st.b	r1,0[r27]
                        1025 --242:         wfm_FuelFault = TYPE_WARN_FUEL_OK;
000003c8 5a070000       1026 	st.b	zero,0[r26]
                        1027 .L323:
                        1028 --243:    }
                        1029 --244: }
000003cc 0000           1030 	nop
                        1031 --	    .ef
                        1032 .LDW71:
000003ce 4206ff70       1033 	dispose	1,{r25,r26,r27,r28,r29,r31},[lp]
                        1034 	.type	_wfm_FuelSegmentProcess,@function
                        1035 	.size	_wfm_FuelSegmentProcess,.-_wfm_FuelSegmentProcess
                        1036 	.type	_wfm_FuelSegmentProcess..D.3A.5CRenesas_Electronics.5CD1x_RGL.5Crgl_ghs_D1Lx_obj_V1.2E2.2E0.5Cvlib.5Capp.5Cgfx_apps.5Csimple_draw_d1l2.5Ctarget.5Cd1lx_mango_ghs.5Cobj.5Cwfm.,@function
                        1037 	.size	_wfm_FuelSegmentProcess..D.3A.5CRenesas_Electronics.5CD1x_RGL.5Crgl_ghs_D1Lx_obj_V1.2E2.2E0.5Cvlib.5Capp.5Cgfx_apps.5Csimple_draw_d1l2.5Ctarget.5Cd1lx_mango_ghs.5Cobj.5Cwfm.,.-_wfm_FuelSegmentProcess..D.3A.5CRenesas_Electronics.5CD1x_RGL.5Crgl_ghs_D1Lx_obj_V1.2E2.2E0.5Cvlib.5Capp.5Cgfx_apps.5Csimple_draw_d1l2.5Ctarget.5Cd1lx_mango_ghs.5Cobj.5Cwfm.
                        1038 	.align	2
                        1039 .LDW81:
                        1040 
                        1041 	.data
                        1042 	.text
                        1043 
                        1044 
                        1045 --246: /**************************************************
                        1046 --247: *Function :led_WaterSegmentProcess
                        1047 --248: *Description: Process water temperature Information,SEG calculate,Fault detect,.etc
                        1048 --249: *Parameters:none
                        1049 --250: *Returns: NONE
                        1050 --252: **create&Verlog:
                        1051 --253: *Author Name xs  Date:2017-6-22    Ver:2.0
                        1052 --254: ***************************************************/
                        1053 --255: static void wfm_WaterSegmentProcess( void)
                        1054 	.align	2
                        1055 	.align	2
                        1056 	.global	_wfm_WaterSegmentProcess..D.3A.5CRenesas_Electronics.5CD1x_RGL.5Crgl_ghs_D1Lx_obj_V1.2E2.2E0.5Cvlib.5Capp.5Cgfx_apps.5Csimple_draw_d1l2.5Ctarget.5Cd1lx_mango_ghs.5Cobj.5Cwfm.
                        1057 _wfm_WaterSegmentProcess..D.3A.5CRenesas_Electronics.5CD1x_RGL.5Crgl_ghs_D1Lx_obj_V1.2E2.2E0.5Cvlib.5Capp.5Cgfx_apps.5Csimple_draw_d1l2.5Ctarget.5Cd1lx_mango_ghs.5Cobj.5Cwfm.:
                        1058 _wfm_WaterSegmentProcess:
000003d2 8807e170       1059 	prepare	{r25,r26,r27,r28,r29,r31},4
000003d6 3d0600000000*  1060 	mov	_insTempSeg2ThresPrm,r29
000003dc 3b0600000000*  1061 	mov	_wfm_TmptSeg,r27
000003e2 3a0600000000*  1062 	mov	_wfm_NetEnClntTem,r26
000003e8 390600000000*  1063 	mov	_wfm_WTFault,r25
                        1064 --	    .bf
                        1065 .LDW91:
                        1066 --256: {
                        1067 --257:     U8 res;
                        1068 --258:     U8 mode;
                        1069 --259: 	S16 Value;
                        1070 --260: 	static BOOL isDec = FALSE;
                        1071 --261: 	U8 threshHold = 0;
000003ee 00e2           1072 	mov	0,r28
                        1073 --263:     res = PWR_GetPwrMode(&mode);
000003f0 23360000       1074 	movea	0,sp,r6
                        1075 	jarl	_PWR_GetPwrMode,lp
                        1075 <EXPANSION BEGIN>

                                                                      Page 20
                                                              C:\Users\YINGAO~1\AppData\Local\Temp\gh_00007n81.si
                        1075 jarl22 _PWR_GetPwrMode , lp 
000003f4 80ff0000*      1075 <EXPANSION END>
000003f8 43570100       1076 	st.b	r10,1[sp]
                        1077 --264:     COM_GetSignalValue_16(INDEX_COM_RS_ENCLNTTEM, (&Value));
                        1078 --line264
                        1079 ..lin.D.3A.5CRenesas_Electronics.5CD1x_RGL.5Crgl_ghs_D1Lx_obj_V1.2E2.2E0.5Cvlib.5Capp.5Cgfx_apps.5Csimple_draw_d1l2.5Ctarget.5Cd1lx_mango_ghs.5Cobj.5Cwfm.49::
                        1080 .LDWlin49:
000003fc 233e0200       1081 	movea	2,sp,r7
00000400 20362000       1082 	movea	32,zero,r6
                        1083 	jarl	_COM_GetSignalValue_16,lp
                        1083 <EXPANSION BEGIN>
                        1083 jarl22 _COM_GetSignalValue_16 , lp 
00000404 80ff0000*      1083 <EXPANSION END>
                        1084 --265:     COM_GetSignalValue_8(INDEX_COM_RS_ENCLNTTEMV, &wfm_NetEnClntTemV);
                        1085 --line265
                        1086 ..lin.D.3A.5CRenesas_Electronics.5CD1x_RGL.5Crgl_ghs_D1Lx_obj_V1.2E2.2E0.5Cvlib.5Capp.5Cgfx_apps.5Csimple_draw_d1l2.5Ctarget.5Cd1lx_mango_ghs.5Cobj.5Cwfm.50::
                        1087 .LDWlin50:
00000408 270600000000*  1088 	mov	_wfm_NetEnClntTemV,r7
0000040e 20362100       1089 	movea	33,zero,r6
                        1090 	jarl	_COM_GetSignalValue_8,lp
                        1090 <EXPANSION BEGIN>
                        1090 jarl22 _COM_GetSignalValue_8 , lp 
00000412 80ff0000*      1090 <EXPANSION END>
                        1091 --266: 	
                        1092 --267: 	if ((RET_OK == res) && ((PWR_CRANK == mode) || (PWR_RUN ==mode)))
                        1093 --line267
                        1094 ..lin.D.3A.5CRenesas_Electronics.5CD1x_RGL.5Crgl_ghs_D1Lx_obj_V1.2E2.2E0.5Cvlib.5Capp.5Cgfx_apps.5Csimple_draw_d1l2.5Ctarget.5Cd1lx_mango_ghs.5Cobj.5Cwfm.51::
                        1095 .LDWlin51:
00000416 a35f0100       1096 	ld.bu	1[sp],r11
0000041a 615a           1097 	cmp	1,r11
0000041c ea076101*      1098 	bne	.L527
00000420 830f0100       1099 	ld.bu	0[sp],r1
00000424 630a           1100 	cmp	3,r1
00000426 e205*          1101 	be	.L528
00000428 830f0100       1102 	ld.bu	0[sp],r1
0000042c 620a           1103 	cmp	2,r1
0000042e ea074f01*      1104 	bne	.L527
                        1105 .L528:
                        1106 --268: 	{
                        1107 --269: 		if(Value - wfm_NetEnClntTem > 0)
                        1108 --line269
                        1109 ..lin.D.3A.5CRenesas_Electronics.5CD1x_RGL.5Crgl_ghs_D1Lx_obj_V1.2E2.2E0.5Cvlib.5Capp.5Cgfx_apps.5Csimple_draw_d1l2.5Ctarget.5Cd1lx_mango_ghs.5Cobj.5Cwfm.52::
                        1110 .LDWlin52:
00000432 230f0200       1111 	ld.h	2[sp],r1
00000436 3a770000       1112 	ld.h	0[r26],r14
0000043a ae09           1113 	sub	r14,r1
0000043c e009           1114 	cmp	zero,r1
0000043e e705*          1115 	ble	.L533
                        1116 --270: 		{
                        1117 --271: 			isDec = FALSE;
                        1118 --line271
                        1119 ..lin.D.3A.5CRenesas_Electronics.5CD1x_RGL.5Crgl_ghs_D1Lx_obj_V1.2E2.2E0.5Cvlib.5Capp.5Cgfx_apps.5Csimple_draw_d1l2.5Ctarget.5Cd1lx_mango_ghs.5Cobj.5Cwfm.53::
                        1120 .LDWlin53:
00000440 2b0600000000*  1121 	mov	.L756,r11
00000446 4b070000       1122 	st.b	zero,0[r11]
                        1123 .L533:
                        1124 --272: 		}
                        1125 --273: 		else
                        1126 --274: 		{
                        1127 --275: 		}
                        1128 --276: 		if(Value - wfm_NetEnClntTem < 0)

                                                                      Page 21
                                                              C:\Users\YINGAO~1\AppData\Local\Temp\gh_00007n81.si
0000044a 230f0200       1129 	ld.h	2[sp],r1
0000044e 3a770000       1130 	ld.h	0[r26],r14
00000452 ae09           1131 	sub	r14,r1
00000454 fc05*          1132 	bp	.L536
                        1133 --277: 		{
                        1134 --278: 			isDec = TRUE;
                        1135 --line278
                        1136 ..lin.D.3A.5CRenesas_Electronics.5CD1x_RGL.5Crgl_ghs_D1Lx_obj_V1.2E2.2E0.5Cvlib.5Capp.5Cgfx_apps.5Csimple_draw_d1l2.5Ctarget.5Cd1lx_mango_ghs.5Cobj.5Cwfm.54::
                        1137 .LDWlin54:
00000456 2b0600000000*  1138 	mov	.L756,r11
0000045c 010a           1139 	mov	1,r1
0000045e 4b0f0000       1140 	st.b	r1,0[r11]
                        1141 .L536:
                        1142 --279: 		}
                        1143 --280: 		else
                        1144 --281: 		{
                        1145 --282: 		}
                        1146 --284: 		if(TRUE == isDec)
00000462 210600000000*  1147 	mov	.L756,r1
00000468 810f0100       1148 	ld.bu	0[r1],r1
0000046c 610a           1149 	cmp	1,r1
0000046e ca05*          1150 	bne	.L537
                        1151 --285: 		{
                        1152 --286: 			threshHold = insTempDisplayHysPrm;
                        1153 --line286
                        1154 ..lin.D.3A.5CRenesas_Electronics.5CD1x_RGL.5Crgl_ghs_D1Lx_obj_V1.2E2.2E0.5Cvlib.5Capp.5Cgfx_apps.5Csimple_draw_d1l2.5Ctarget.5Cd1lx_mango_ghs.5Cobj.5Cwfm.55::
                        1155 .LDWlin55:
00000470 9de70f00       1156 	ld.bu	14[r29],r28
00000474 a505*          1157 	br	.L539
                        1158 .L537:
                        1159 --287: 		}
                        1160 --288: 		else
                        1161 --289: 		{
                        1162 --290: 			threshHold = 0;
                        1163 --line290
                        1164 ..lin.D.3A.5CRenesas_Electronics.5CD1x_RGL.5Crgl_ghs_D1Lx_obj_V1.2E2.2E0.5Cvlib.5Capp.5Cgfx_apps.5Csimple_draw_d1l2.5Ctarget.5Cd1lx_mango_ghs.5Cobj.5Cwfm.56::
                        1165 .LDWlin56:
00000476 00e2           1166 	mov	0,r28
                        1167 .L539:
                        1168 --291: 		}
                        1169 --293: 		wfm_NetEnClntTem = Value;
00000478 230f0200       1170 	ld.h	2[sp],r1
0000047c 7a0f0000       1171 	st.h	r1,0[r26]
                        1172 --294: 	  
                        1173 --295: 		if((VALID == wfm_NetEnClntTemV) && (FALSE == wfm_ecmNodeMiss))
00000480 210600000000*  1174 	mov	_wfm_NetEnClntTemV,r1
00000486 810f0100       1175 	ld.bu	0[r1],r1
0000048a e009           1176 	cmp	zero,r1
0000048c ca5d*          1177 	bne	.L540
0000048e 210600000000*  1178 	mov	_wfm_ecmNodeMiss,r1
00000494 810f0100       1179 	ld.bu	0[r1],r1
00000498 e009           1180 	cmp	zero,r1
0000049a da55*          1181 	bne	.L540
                        1182 --296: 		{
                        1183 --297: 	    	if(wfm_NetEnClntTem < insTempSeg2ThresPrm - threshHold)
                        1184 --line297
                        1185 ..lin.D.3A.5CRenesas_Electronics.5CD1x_RGL.5Crgl_ghs_D1Lx_obj_V1.2E2.2E0.5Cvlib.5Capp.5Cgfx_apps.5Csimple_draw_d1l2.5Ctarget.5Cd1lx_mango_ghs.5Cobj.5Cwfm.57::
                        1186 .LDWlin57:
0000049c 210600000000*  1187 	mov	_insTempSeg2ThresPrm,r1
000004a2 210f0000       1188 	ld.h	0[r1],r1
000004a6 3a770000       1189 	ld.h	0[r26],r14

                                                                      Page 22
                                                              C:\Users\YINGAO~1\AppData\Local\Temp\gh_00007n81.si
000004aa bc09           1190 	sub	r28,r1
000004ac e171           1191 	cmp	r1,r14
000004ae de05*          1192 	bge	.L543
                        1193 --298: 	    	{
                        1194 --299: 	    		wfm_TmptSeg = LEVEL_WFM_SEG1;
                        1195 --line299
                        1196 ..lin.D.3A.5CRenesas_Electronics.5CD1x_RGL.5Crgl_ghs_D1Lx_obj_V1.2E2.2E0.5Cvlib.5Capp.5Cgfx_apps.5Csimple_draw_d1l2.5Ctarget.5Cd1lx_mango_ghs.5Cobj.5Cwfm.58::
                        1197 .LDWlin58:
000004b0 010a           1198 	mov	1,r1
000004b2 5b0f0000       1199 	st.b	r1,0[r27]
000004b6 8555*          1200 	br	.L564
                        1201 .L543:
                        1202 --300: 	    	}
                        1203 --301: 	    	else if(wfm_NetEnClntTem < insTempSeg3ThresPrm - threshHold)
                        1204 --line301
                        1205 ..lin.D.3A.5CRenesas_Electronics.5CD1x_RGL.5Crgl_ghs_D1Lx_obj_V1.2E2.2E0.5Cvlib.5Capp.5Cgfx_apps.5Csimple_draw_d1l2.5Ctarget.5Cd1lx_mango_ghs.5Cobj.5Cwfm.59::
                        1206 .LDWlin59:
000004b8 3d0f0200       1207 	ld.h	2[r29],r1
000004bc 3a770000       1208 	ld.h	0[r26],r14
000004c0 bc09           1209 	sub	r28,r1
000004c2 e171           1210 	cmp	r1,r14
000004c4 de05*          1211 	bge	.L546
                        1212 --302: 	    	{
                        1213 --303: 	    		wfm_TmptSeg = LEVEL_WFM_SEG2;
                        1214 --line303
                        1215 ..lin.D.3A.5CRenesas_Electronics.5CD1x_RGL.5Crgl_ghs_D1Lx_obj_V1.2E2.2E0.5Cvlib.5Capp.5Cgfx_apps.5Csimple_draw_d1l2.5Ctarget.5Cd1lx_mango_ghs.5Cobj.5Cwfm.60::
                        1216 .LDWlin60:
000004c6 020a           1217 	mov	2,r1
000004c8 5b0f0000       1218 	st.b	r1,0[r27]
000004cc d545*          1219 	br	.L564
                        1220 .L546:
                        1221 --304: 	    	}
                        1222 --305: 	    	else if(wfm_NetEnClntTem < insTempSeg4ThresPrm - threshHold)
                        1223 --line305
                        1224 ..lin.D.3A.5CRenesas_Electronics.5CD1x_RGL.5Crgl_ghs_D1Lx_obj_V1.2E2.2E0.5Cvlib.5Capp.5Cgfx_apps.5Csimple_draw_d1l2.5Ctarget.5Cd1lx_mango_ghs.5Cobj.5Cwfm.61::
                        1225 .LDWlin61:
000004ce 3d0f0400       1226 	ld.h	4[r29],r1
000004d2 3a770000       1227 	ld.h	0[r26],r14
000004d6 bc09           1228 	sub	r28,r1
000004d8 e171           1229 	cmp	r1,r14
000004da de05*          1230 	bge	.L549
                        1231 --306: 	    	{
                        1232 --307: 	    		wfm_TmptSeg = LEVEL_WFM_SEG3;
                        1233 --line307
                        1234 ..lin.D.3A.5CRenesas_Electronics.5CD1x_RGL.5Crgl_ghs_D1Lx_obj_V1.2E2.2E0.5Cvlib.5Capp.5Cgfx_apps.5Csimple_draw_d1l2.5Ctarget.5Cd1lx_mango_ghs.5Cobj.5Cwfm.62::
                        1235 .LDWlin62:
000004dc 030a           1236 	mov	3,r1
000004de 5b0f0000       1237 	st.b	r1,0[r27]
000004e2 a53d*          1238 	br	.L564
                        1239 .L549:
                        1240 --308: 	    	}
                        1241 --309: 	    	else if(wfm_NetEnClntTem<insTempSeg5ThresPrm - threshHold)
                        1242 --line309
                        1243 ..lin.D.3A.5CRenesas_Electronics.5CD1x_RGL.5Crgl_ghs_D1Lx_obj_V1.2E2.2E0.5Cvlib.5Capp.5Cgfx_apps.5Csimple_draw_d1l2.5Ctarget.5Cd1lx_mango_ghs.5Cobj.5Cwfm.63::
                        1244 .LDWlin63:
000004e4 3d0f0600       1245 	ld.h	6[r29],r1
000004e8 3a770000       1246 	ld.h	0[r26],r14
000004ec bc09           1247 	sub	r28,r1
000004ee e171           1248 	cmp	r1,r14
000004f0 de05*          1249 	bge	.L552
                        1250 --310: 	    	{

                                                                      Page 23
                                                              C:\Users\YINGAO~1\AppData\Local\Temp\gh_00007n81.si
                        1251 --311: 	    		wfm_TmptSeg = LEVEL_WFM_SEG4;
                        1252 --line311
                        1253 ..lin.D.3A.5CRenesas_Electronics.5CD1x_RGL.5Crgl_ghs_D1Lx_obj_V1.2E2.2E0.5Cvlib.5Capp.5Cgfx_apps.5Csimple_draw_d1l2.5Ctarget.5Cd1lx_mango_ghs.5Cobj.5Cwfm.64::
                        1254 .LDWlin64:
000004f2 040a           1255 	mov	4,r1
000004f4 5b0f0000       1256 	st.b	r1,0[r27]
000004f8 f52d*          1257 	br	.L564
                        1258 .L552:
                        1259 --312: 	    	}
                        1260 --313: 	    	else if(wfm_NetEnClntTem < insTempSeg6ThresPrm - threshHold)
                        1261 --line313
                        1262 ..lin.D.3A.5CRenesas_Electronics.5CD1x_RGL.5Crgl_ghs_D1Lx_obj_V1.2E2.2E0.5Cvlib.5Capp.5Cgfx_apps.5Csimple_draw_d1l2.5Ctarget.5Cd1lx_mango_ghs.5Cobj.5Cwfm.65::
                        1263 .LDWlin65:
000004fa 3d0f0800       1264 	ld.h	8[r29],r1
000004fe 3a770000       1265 	ld.h	0[r26],r14
00000502 bc09           1266 	sub	r28,r1
00000504 e171           1267 	cmp	r1,r14
00000506 de05*          1268 	bge	.L555
                        1269 --314: 	    	{
                        1270 --315: 	    		wfm_TmptSeg = LEVEL_WFM_SEG5;
                        1271 --line315
                        1272 ..lin.D.3A.5CRenesas_Electronics.5CD1x_RGL.5Crgl_ghs_D1Lx_obj_V1.2E2.2E0.5Cvlib.5Capp.5Cgfx_apps.5Csimple_draw_d1l2.5Ctarget.5Cd1lx_mango_ghs.5Cobj.5Cwfm.66::
                        1273 .LDWlin66:
00000508 050a           1274 	mov	5,r1
0000050a 5b0f0000       1275 	st.b	r1,0[r27]
0000050e c525*          1276 	br	.L564
                        1277 .L555:
                        1278 --316: 	    	}
                        1279 --317: 	    	else if(wfm_NetEnClntTem < insTempSeg7ThresPrm - threshHold)
                        1280 --line317
                        1281 ..lin.D.3A.5CRenesas_Electronics.5CD1x_RGL.5Crgl_ghs_D1Lx_obj_V1.2E2.2E0.5Cvlib.5Capp.5Cgfx_apps.5Csimple_draw_d1l2.5Ctarget.5Cd1lx_mango_ghs.5Cobj.5Cwfm.67::
                        1282 .LDWlin67:
00000510 3d0f0a00       1283 	ld.h	10[r29],r1
00000514 3a770000       1284 	ld.h	0[r26],r14
00000518 bc09           1285 	sub	r28,r1
0000051a e171           1286 	cmp	r1,r14
0000051c de05*          1287 	bge	.L558
                        1288 --318: 	    	{
                        1289 --319: 	    		wfm_TmptSeg = LEVEL_WFM_SEG6;
                        1290 --line319
                        1291 ..lin.D.3A.5CRenesas_Electronics.5CD1x_RGL.5Crgl_ghs_D1Lx_obj_V1.2E2.2E0.5Cvlib.5Capp.5Cgfx_apps.5Csimple_draw_d1l2.5Ctarget.5Cd1lx_mango_ghs.5Cobj.5Cwfm.68::
                        1292 .LDWlin68:
0000051e 060a           1293 	mov	6,r1
00000520 5b0f0000       1294 	st.b	r1,0[r27]
00000524 951d*          1295 	br	.L564
                        1296 .L558:
                        1297 --320: 	    	}
                        1298 --321: 	    	else if(wfm_NetEnClntTem < insTempSeg8ThresPrm - threshHold)
                        1299 --line321
                        1300 ..lin.D.3A.5CRenesas_Electronics.5CD1x_RGL.5Crgl_ghs_D1Lx_obj_V1.2E2.2E0.5Cvlib.5Capp.5Cgfx_apps.5Csimple_draw_d1l2.5Ctarget.5Cd1lx_mango_ghs.5Cobj.5Cwfm.69::
                        1301 .LDWlin69:
00000526 3d0f0c00       1302 	ld.h	12[r29],r1
0000052a 3a770000       1303 	ld.h	0[r26],r14
0000052e bc09           1304 	sub	r28,r1
00000530 e171           1305 	cmp	r1,r14
00000532 de05*          1306 	bge	.L561
                        1307 --322: 	    	{
                        1308 --323: 	    		wfm_TmptSeg = LEVEL_WFM_SEG7;
                        1309 --line323
                        1310 ..lin.D.3A.5CRenesas_Electronics.5CD1x_RGL.5Crgl_ghs_D1Lx_obj_V1.2E2.2E0.5Cvlib.5Capp.5Cgfx_apps.5Csimple_draw_d1l2.5Ctarget.5Cd1lx_mango_ghs.5Cobj.5Cwfm.70::
                        1311 .LDWlin70:

                                                                      Page 24
                                                              C:\Users\YINGAO~1\AppData\Local\Temp\gh_00007n81.si
00000534 070a           1312 	mov	7,r1
00000536 5b0f0000       1313 	st.b	r1,0[r27]
0000053a e50d*          1314 	br	.L564
                        1315 .L561:
                        1316 --324: 	    	}
                        1317 --325: 	    	else
                        1318 --326: 	    	{
                        1319 --327: 	    		wfm_TmptSeg = LEVEL_WFM_SEG8;
                        1320 --line327
                        1321 ..lin.D.3A.5CRenesas_Electronics.5CD1x_RGL.5Crgl_ghs_D1Lx_obj_V1.2E2.2E0.5Cvlib.5Capp.5Cgfx_apps.5Csimple_draw_d1l2.5Ctarget.5Cd1lx_mango_ghs.5Cobj.5Cwfm.71::
                        1322 .LDWlin71:
0000053c 080a           1323 	mov	8,r1
0000053e 5b0f0000       1324 	st.b	r1,0[r27]
00000542 a50d*          1325 	br	.L564
                        1326 .L540:
                        1327 --328: 	    	}
                        1328 --329: 			
                        1329 --331: 	    	
                        1330 --332: 		}
                        1331 --333: 		else
                        1332 --334: 		{
                        1333 --335: 			/*do nothing*/
                        1334 --336:             if(TRUE == wfm_ecmNodeMiss)
                        1335 --line336
                        1336 ..lin.D.3A.5CRenesas_Electronics.5CD1x_RGL.5Crgl_ghs_D1Lx_obj_V1.2E2.2E0.5Cvlib.5Capp.5Cgfx_apps.5Csimple_draw_d1l2.5Ctarget.5Cd1lx_mango_ghs.5Cobj.5Cwfm.72::
                        1337 .LDWlin72:
00000544 210600000000*  1338 	mov	_wfm_ecmNodeMiss,r1
0000054a 810f0100       1339 	ld.bu	0[r1],r1
0000054e 610a           1340 	cmp	1,r1
00000550 ba05*          1341 	bne	.L564
                        1342 --337:             {
                        1343 --338: 		        wfm_TmptSeg = LEVEL_WFM_SEGNONE;
                        1344 --line338
                        1345 ..lin.D.3A.5CRenesas_Electronics.5CD1x_RGL.5Crgl_ghs_D1Lx_obj_V1.2E2.2E0.5Cvlib.5Capp.5Cgfx_apps.5Csimple_draw_d1l2.5Ctarget.5Cd1lx_mango_ghs.5Cobj.5Cwfm.73::
                        1346 .LDWlin73:
00000552 5b070000       1347 	st.b	zero,0[r27]
                        1348 .L564:
                        1349 --339:             }
                        1350 --340:             else
                        1351 --341:             {
                        1352 --342:             }
                        1353 --343: 		}
                        1354 --344: 		/*FAULT DETECT*/
                        1355 --345:     	if(LEVEL_WFM_SEG8 == wfm_TmptSeg)
00000556 9b0f0100       1356 	ld.bu	0[r27],r1
0000055a 680a           1357 	cmp	8,r1
0000055c da05*          1358 	bne	.L568
                        1359 --346:     	{
                        1360 --347:     		wfm_WTFault = TYPE_WARN_TEMP_CRITICAL;
                        1361 --line347
                        1362 ..lin.D.3A.5CRenesas_Electronics.5CD1x_RGL.5Crgl_ghs_D1Lx_obj_V1.2E2.2E0.5Cvlib.5Capp.5Cgfx_apps.5Csimple_draw_d1l2.5Ctarget.5Cd1lx_mango_ghs.5Cobj.5Cwfm.74::
                        1363 .LDWlin74:
0000055e 020a           1364 	mov	2,r1
00000560 590f0000       1365 	st.b	r1,0[r25]
00000564 9515*          1366 	br	.L574
                        1367 .L568:
                        1368 --348:     	}
                        1369 --349:     	else if(LEVEL_WFM_SEG7 == wfm_TmptSeg)
                        1370 --line349
                        1371 ..lin.D.3A.5CRenesas_Electronics.5CD1x_RGL.5Crgl_ghs_D1Lx_obj_V1.2E2.2E0.5Cvlib.5Capp.5Cgfx_apps.5Csimple_draw_d1l2.5Ctarget.5Cd1lx_mango_ghs.5Cobj.5Cwfm.75::
                        1372 .LDWlin75:

                                                                      Page 25
                                                              C:\Users\YINGAO~1\AppData\Local\Temp\gh_00007n81.si
00000566 9b0f0100       1373 	ld.bu	0[r27],r1
0000056a 670a           1374 	cmp	7,r1
0000056c da05*          1375 	bne	.L571
                        1376 --350:     	{
                        1377 --351:     		wfm_WTFault = TYPE_WARN_TEMP_HIGH;
                        1378 --line351
                        1379 ..lin.D.3A.5CRenesas_Electronics.5CD1x_RGL.5Crgl_ghs_D1Lx_obj_V1.2E2.2E0.5Cvlib.5Capp.5Cgfx_apps.5Csimple_draw_d1l2.5Ctarget.5Cd1lx_mango_ghs.5Cobj.5Cwfm.76::
                        1380 .LDWlin76:
0000056e 010a           1381 	mov	1,r1
00000570 590f0000       1382 	st.b	r1,0[r25]
00000574 950d*          1383 	br	.L574
                        1384 .L571:
                        1385 --352:     	}
                        1386 --353:     	else
                        1387 --354:     	{
                        1388 --355:     		wfm_WTFault = TYPE_WARN_TEMP_OK;
                        1389 --line355
                        1390 ..lin.D.3A.5CRenesas_Electronics.5CD1x_RGL.5Crgl_ghs_D1Lx_obj_V1.2E2.2E0.5Cvlib.5Capp.5Cgfx_apps.5Csimple_draw_d1l2.5Ctarget.5Cd1lx_mango_ghs.5Cobj.5Cwfm.77::
                        1391 .LDWlin77:
00000576 59070000       1392 	st.b	zero,0[r25]
0000057a e505*          1393 	br	.L574
                        1394 .L527:
                        1395 --356:     	}
                        1396 --357: 	}
                        1397 --358: 	else
                        1398 --359: 	{
                        1399 --360: 	    wfm_TmptSeg = LEVEL_WFM_ALL;
                        1400 --line360
                        1401 ..lin.D.3A.5CRenesas_Electronics.5CD1x_RGL.5Crgl_ghs_D1Lx_obj_V1.2E2.2E0.5Cvlib.5Capp.5Cgfx_apps.5Csimple_draw_d1l2.5Ctarget.5Cd1lx_mango_ghs.5Cobj.5Cwfm.78::
                        1402 .LDWlin78:
0000057c 090a           1403 	mov	9,r1
0000057e 5b0f0000       1404 	st.b	r1,0[r27]
                        1405 --361: 	    wfm_WTFault = TYPE_WARN_TEMP_OK;
00000582 59070000       1406 	st.b	zero,0[r25]
                        1407 .L574:
                        1408 --362: 	} 
                        1409 --363: }
00000586 0000           1410 	nop
                        1411 --	    .ef
                        1412 .LDW02:
00000588 4806ff70       1413 	dispose	4,{r25,r26,r27,r28,r29,r31},[lp]
                        1414 	.type	_wfm_WaterSegmentProcess,@function
                        1415 	.size	_wfm_WaterSegmentProcess,.-_wfm_WaterSegmentProcess
                        1416 	.type	_wfm_WaterSegmentProcess..D.3A.5CRenesas_Electronics.5CD1x_RGL.5Crgl_ghs_D1Lx_obj_V1.2E2.2E0.5Cvlib.5Capp.5Cgfx_apps.5Csimple_draw_d1l2.5Ctarget.5Cd1lx_mango_ghs.5Cobj.5Cwfm.,@function
                        1417 	.size	_wfm_WaterSegmentProcess..D.3A.5CRenesas_Electronics.5CD1x_RGL.5Crgl_ghs_D1Lx_obj_V1.2E2.2E0.5Cvlib.5Capp.5Cgfx_apps.5Csimple_draw_d1l2.5Ctarget.5Cd1lx_mango_ghs.5Cobj.5Cwfm.,.-_wfm_WaterSegmentProcess..D.3A.5CRenesas_Electronics.5CD1x_RGL.5Crgl_ghs_D1Lx_obj_V1.2E2.2E0.5Cvlib.5Capp.5Cgfx_apps.5Csimple_draw_d1l2.5Ctarget.5Cd1lx_mango_ghs.5Cobj.5Cwfm.
                        1418 	.align	2
                        1419 .LDW12:
                        1420 --_isDec	.L756	static
                        1421 --_res	1[sp]	local
                        1422 --_mode	0[sp]	local
                        1423 --_Value	2[sp]	local
                        1424 --_threshHold	r28	local
                        1425 
                        1426 	.data
                        1427 .L756:
                        1428 	.global	_isDec.wfm_WaterSegmentProcess.D.3A.5CRenesas_Electronics.5CD1x_RGL.5Crgl_ghs_D1Lx_obj_V1.2E2.2E0.5Cvlib.5Capp.5Cgfx_apps.5Csimple_draw_d1l2.5Ctarget.5Cd1lx_mango_ghs.5Cobj.5Cwfm..32
                        1429 _isDec.wfm_WaterSegmentProcess.D.3A.5CRenesas_Electronics.5CD1x_RGL.5Crgl_ghs_D1Lx_obj_V1.2E2.2E0.5Cvlib.5Capp.5Cgfx_apps.5Csimple_draw_d1l2.5Ctarget.5Cd1lx_mango_ghs.5Cobj.5Cwfm..32:
                        1430 	.type	_isDec.wfm_WaterSegmentProcess.D.3A.5CRenesas_Electronics.5CD1x_RGL.5Crgl_ghs_D1Lx_obj_V1.2E2.2E0.5Cvlib.5Capp.5Cgfx_apps.5Csimple_draw_d1l2.5Ctarget.5Cd1lx_mango_ghs.5Cobj.5Cwfm..32,@object
                        1431 	.size	_isDec.wfm_WaterSegmentProcess.D.3A.5CRenesas_Electronics.5CD1x_RGL.5Crgl_ghs_D1Lx_obj_V1.2E2.2E0.5Cvlib.5Capp.5Cgfx_apps.5Csimple_draw_d1l2.5Ctarget.5Cd1lx_mango_ghs.5Cobj.5Cwfm..32,1
0000001c 00             1432 	.byte	0
                        1433 	.type	.L756,@object

                                                                      Page 26
                                                              C:\Users\YINGAO~1\AppData\Local\Temp\gh_00007n81.si
                        1434 	.size	.L756,1
                        1435 	.text
                        1436 
                        1437 
                        1438 --365: /**************************************************
                        1439 --366: *Function :wfm_WaterInvalidFltProcess
                        1440 --367: *Description: Water Invalid Flt Process
                        1441 --368: *Parameters:none
                        1442 --369: *Returns: NONE
                        1443 --371: **create&Verlog:
                        1444 --372: *Author Name xs  Date:2017-6-22    Ver:2.0
                        1445 --373: ***************************************************/
                        1446 --374: static void wfm_WaterInvalidFltProcess(void)
                        1447 	.align	2
                        1448 	.align	2
                        1449 	.global	_wfm_WaterInvalidFltProcess..D.3A.5CRenesas_Electronics.5CD1x_RGL.5Crgl_ghs_D1Lx_obj_V1.2E2.2E0.5Cvlib.5Capp.5Cgfx_apps.5Csimple_draw_d1l2.5Ctarget.5Cd1lx_mango_ghs.5Cobj.5Cwfm.
                        1450 _wfm_WaterInvalidFltProcess..D.3A.5CRenesas_Electronics.5CD1x_RGL.5Crgl_ghs_D1Lx_obj_V1.2E2.2E0.5Cvlib.5Capp.5Cgfx_apps.5Csimple_draw_d1l2.5Ctarget.5Cd1lx_mango_ghs.5Cobj.5Cwfm.:
                        1451 _wfm_WaterInvalidFltProcess:
0000058c 210600000000*  1452 	mov	_wfm_coolantInvalidFlt-1,r1
00000592 216e0a00       1453 	movea	10,r1,r13
00000596 01660100       1454 	addi	1,r1,r12
                        1455 --	    .bf
                        1456 .LDW22:
                        1457 --375: {
                        1458 --376:     static U16  cur_cnt = 0;
                        1459 --377:    
                        1460 --378:    if(INVALID == wfm_NetEnClntTemV)
0000059a 81770300       1461 	ld.bu	2[r1],r14
0000059e 6172           1462 	cmp	1,r14
000005a0 9a15*          1463 	bne	.L803
                        1464 --379:     {
                        1465 --380:         cur_cnt ++;
                        1466 --line380
                        1467 ..lin.D.3A.5CRenesas_Electronics.5CD1x_RGL.5Crgl_ghs_D1Lx_obj_V1.2E2.2E0.5Cvlib.5Capp.5Cgfx_apps.5Csimple_draw_d1l2.5Ctarget.5Cd1lx_mango_ghs.5Cobj.5Cwfm.79::
                        1468 .LDWlin79:
000005a2 e1770b00       1469 	ld.hu	10[r1],r14
000005a6 4172           1470 	add	1,r14
000005a8 61770a00       1471 	st.h	r14,10[r1]
                        1472 --381:         if(WFM_WATERINVALIDFLT_CNT <= cur_cnt)
000005ac e1770b00       1473 	ld.hu	10[r1],r14
000005b0 0e06ceff       1474 	addi	-50,r14,zero
000005b4 b90d*          1475 	bnl	.L808
                        1476 --382:         {
                        1477 --383:             cur_cnt = 0;
                        1478 --line383
                        1479 ..lin.D.3A.5CRenesas_Electronics.5CD1x_RGL.5Crgl_ghs_D1Lx_obj_V1.2E2.2E0.5Cvlib.5Capp.5Cgfx_apps.5Csimple_draw_d1l2.5Ctarget.5Cd1lx_mango_ghs.5Cobj.5Cwfm.80::
                        1480 .LDWlin80:
000005b6 61070a00       1481 	st.h	zero,10[r1]
                        1482 --384:             wfm_coolantInvalidFlt = TRUE;
000005ba 0172           1483 	mov	1,r14
000005bc 41770100       1484 	st.b	r14,1[r1]
000005c0 d505*          1485 	br	.L808
                        1486 .L803:
                        1487 --385:         }
                        1488 --386: 		else
                        1489 --387: 		{
                        1490 --388: 		}
                        1491 --389:     }
                        1492 --390:     else
                        1493 --391:     {   
                        1494 --392:         cur_cnt = 0;        

                                                                      Page 27
                                                              C:\Users\YINGAO~1\AppData\Local\Temp\gh_00007n81.si
                        1495 --line392
                        1496 ..lin.D.3A.5CRenesas_Electronics.5CD1x_RGL.5Crgl_ghs_D1Lx_obj_V1.2E2.2E0.5Cvlib.5Capp.5Cgfx_apps.5Csimple_draw_d1l2.5Ctarget.5Cd1lx_mango_ghs.5Cobj.5Cwfm.81::
                        1497 .LDWlin81:
000005c2 61070a00       1498 	st.h	zero,10[r1]
                        1499 --393:         wfm_coolantInvalidFlt = FALSE;
000005c6 41070100       1500 	st.b	zero,1[r1]
                        1501 .L808:
                        1502 --394:     }
                        1503 --395: }
000005ca 0000           1504 	nop
                        1505 --	    .ef
                        1506 .LDW32:
000005cc 7f00           1507 	jmp	[lp]
                        1508 	.type	_wfm_WaterInvalidFltProcess,@function
                        1509 	.size	_wfm_WaterInvalidFltProcess,.-_wfm_WaterInvalidFltProcess
                        1510 	.type	_wfm_WaterInvalidFltProcess..D.3A.5CRenesas_Electronics.5CD1x_RGL.5Crgl_ghs_D1Lx_obj_V1.2E2.2E0.5Cvlib.5Capp.5Cgfx_apps.5Csimple_draw_d1l2.5Ctarget.5Cd1lx_mango_ghs.5Cobj.5Cwfm.,@function
                        1511 	.size	_wfm_WaterInvalidFltProcess..D.3A.5CRenesas_Electronics.5CD1x_RGL.5Crgl_ghs_D1Lx_obj_V1.2E2.2E0.5Cvlib.5Capp.5Cgfx_apps.5Csimple_draw_d1l2.5Ctarget.5Cd1lx_mango_ghs.5Cobj.5Cwfm.,.-_wfm_WaterInvalidFltProcess..D.3A.5CRenesas_Electronics.5CD1x_RGL.5Crgl_ghs_D1Lx_obj_V1.2E2.2E0.5Cvlib.5Capp.5Cgfx_apps.5Csimple_draw_d1l2.5Ctarget.5Cd1lx_mango_ghs.5Cobj.5Cwfm.
                        1512 	.align	2
                        1513 .LDW42:
                        1514 --_cur_cnt	.L860	static
                        1515 
                        1516 	.data
0000001d 00             1517 	.space	1
                        1518 .L860:
                        1519 	.global	_cur_cnt.wfm_WaterInvalidFltProcess.D.3A.5CRenesas_Electronics.5CD1x_RGL.5Crgl_ghs_D1Lx_obj_V1.2E2.2E0.5Cvlib.5Capp.5Cgfx_apps.5Csimple_draw_d1l2.5Ctarget.5Cd1lx_mango_ghs.5Cobj.5Cwfm..33
                        1520 _cur_cnt.wfm_WaterInvalidFltProcess.D.3A.5CRenesas_Electronics.5CD1x_RGL.5Crgl_ghs_D1Lx_obj_V1.2E2.2E0.5Cvlib.5Capp.5Cgfx_apps.5Csimple_draw_d1l2.5Ctarget.5Cd1lx_mango_ghs.5Cobj.5Cwfm..33:
                        1521 	.type	_cur_cnt.wfm_WaterInvalidFltProcess.D.3A.5CRenesas_Electronics.5CD1x_RGL.5Crgl_ghs_D1Lx_obj_V1.2E2.2E0.5Cvlib.5Capp.5Cgfx_apps.5Csimple_draw_d1l2.5Ctarget.5Cd1lx_mango_ghs.5Cobj.5Cwfm..33,@object
                        1522 	.size	_cur_cnt.wfm_WaterInvalidFltProcess.D.3A.5CRenesas_Electronics.5CD1x_RGL.5Crgl_ghs_D1Lx_obj_V1.2E2.2E0.5Cvlib.5Capp.5Cgfx_apps.5Csimple_draw_d1l2.5Ctarget.5Cd1lx_mango_ghs.5Cobj.5Cwfm..33,2
0000001e 0000           1523 	.byte	0,0
                        1524 	.type	.L860,@object
                        1525 	.size	.L860,2
                        1526 	.text
                        1527 
                        1528 
                        1529 --397: /**************************************************
                        1530 --398: *Function :wfm_coolantInvalidSegProcess
                        1531 --399: *Description: Coolant  Invalid Flt Process
                        1532 --400: *Parameters:none
                        1533 --401: *Returns: NONE
                        1534 --403: **create&Verlog:
                        1535 --404: *Author Name xs  Date:2017-6-22    Ver:2.0
                        1536 --405: ***************************************************/
                        1537 --406: static void wfm_coolantInvalidSegProcess(void)
                        1538 	.align	2
                        1539 	.align	2
                        1540 	.global	_wfm_coolantInvalidSegProcess..D.3A.5CRenesas_Electronics.5CD1x_RGL.5Crgl_ghs_D1Lx_obj_V1.2E2.2E0.5Cvlib.5Capp.5Cgfx_apps.5Csimple_draw_d1l2.5Ctarget.5Cd1lx_mango_ghs.5Cobj.5Cwfm.
                        1541 _wfm_coolantInvalidSegProcess..D.3A.5CRenesas_Electronics.5CD1x_RGL.5Crgl_ghs_D1Lx_obj_V1.2E2.2E0.5Cvlib.5Capp.5Cgfx_apps.5Csimple_draw_d1l2.5Ctarget.5Cd1lx_mango_ghs.5Cobj.5Cwfm.:
                        1542 _wfm_coolantInvalidSegProcess:
000005ce 8207e130       1543 	prepare	{r26,r27,r28,r29,r31},1
000005d2 3d0600000000*  1544 	mov	_wfm_TmptSeg-2,r29
000005d8 3dde1000       1545 	movea	16,r29,r27
000005dc 3dd60300       1546 	movea	3,r29,r26
                        1547 --	    .bf
                        1548 .LDW52:
                        1549 --407: {
                        1550 --408:     
                        1551 --409:     U8 res;
                        1552 --410:     U8 mode;
                        1553 --411:     static U8 TempCnt = 0;
                        1554 --412:     res = PWR_GetPwrMode(&mode);  
000005e0 23360300       1555 	movea	3,sp,r6

                                                                      Page 28
                                                              C:\Users\YINGAO~1\AppData\Local\Temp\gh_00007n81.si
                        1556 	jarl	_PWR_GetPwrMode,lp
                        1556 <EXPANSION BEGIN>
                        1556 jarl22 _PWR_GetPwrMode , lp 
000005e4 80ff0000*      1556 <EXPANSION END>
000005e8 0ae0           1557 	mov	r10,r28
                        1558 --413:     
                        1559 --414:     if(TRUE == wfm_coolantInvalidFlt)
                        1560 --line414
                        1561 ..lin.D.3A.5CRenesas_Electronics.5CD1x_RGL.5Crgl_ghs_D1Lx_obj_V1.2E2.2E0.5Cvlib.5Capp.5Cgfx_apps.5Csimple_draw_d1l2.5Ctarget.5Cd1lx_mango_ghs.5Cobj.5Cwfm.82::
                        1562 .LDWlin82:
000005ea bd0f0500       1563 	ld.bu	5[r29],r1
000005ee 610a           1564 	cmp	1,r1
000005f0 8a2d*          1565 	bne	.L873
                        1566 --415:     {
                        1567 --416:         if ((RET_OK == res) 
                        1568 --line416
                        1569 ..lin.D.3A.5CRenesas_Electronics.5CD1x_RGL.5Crgl_ghs_D1Lx_obj_V1.2E2.2E0.5Cvlib.5Capp.5Cgfx_apps.5Csimple_draw_d1l2.5Ctarget.5Cd1lx_mango_ghs.5Cobj.5Cwfm.83::
                        1570 .LDWlin83:
000005f2 61e2           1571 	cmp	1,r28
000005f4 9a25*          1572 	bne	.L875
000005f6 a30f0300       1573 	ld.bu	3[sp],r1
000005fa 630a           1574 	cmp	3,r1
000005fc d205*          1575 	be	.L876
000005fe a30f0300       1576 	ld.bu	3[sp],r1
00000602 620a           1577 	cmp	2,r1
00000604 9a1d*          1578 	bne	.L875
                        1579 .L876:
                        1580 --417:             && ((PWR_CRANK == mode) || (PWR_RUN ==mode)))
                        1581 --418: 	    {
                        1582 --419:     	     if(wfm_InvalidFltTmptSeg !=0)
                        1583 --line419
                        1584 ..lin.D.3A.5CRenesas_Electronics.5CD1x_RGL.5Crgl_ghs_D1Lx_obj_V1.2E2.2E0.5Cvlib.5Capp.5Cgfx_apps.5Csimple_draw_d1l2.5Ctarget.5Cd1lx_mango_ghs.5Cobj.5Cwfm.84::
                        1585 .LDWlin84:
00000606 bd0f0300       1586 	ld.bu	3[r29],r1
0000060a e009           1587 	cmp	zero,r1
0000060c a215*          1588 	be	.L879
                        1589 --420:              {
                        1590 --421:                 TempCnt ++;
                        1591 --line421
                        1592 ..lin.D.3A.5CRenesas_Electronics.5CD1x_RGL.5Crgl_ghs_D1Lx_obj_V1.2E2.2E0.5Cvlib.5Capp.5Cgfx_apps.5Csimple_draw_d1l2.5Ctarget.5Cd1lx_mango_ghs.5Cobj.5Cwfm.85::
                        1593 .LDWlin85:
0000060e 9d0f1100       1594 	ld.bu	16[r29],r1
00000612 410a           1595 	add	1,r1
00000614 5d0f1000       1596 	st.b	r1,16[r29]
                        1597 --422:                 if(WFM_TEMP_NODEMISSING_LEDOFF_CNT < TempCnt)
00000618 9d0f1100       1598 	ld.bu	16[r29],r1
0000061c 6a0a           1599 	cmp	10,r1
0000061e a31d*          1600 	bnh	.L885
                        1601 --423:                 {
                        1602 --424:                     TempCnt = 0;
                        1603 --line424
                        1604 ..lin.D.3A.5CRenesas_Electronics.5CD1x_RGL.5Crgl_ghs_D1Lx_obj_V1.2E2.2E0.5Cvlib.5Capp.5Cgfx_apps.5Csimple_draw_d1l2.5Ctarget.5Cd1lx_mango_ghs.5Cobj.5Cwfm.86::
                        1605 .LDWlin86:
00000620 5d071000       1606 	st.b	zero,16[r29]
                        1607 --425:                     wfm_InvalidFltTmptSeg --;
00000624 bd0f0300       1608 	ld.bu	3[r29],r1
00000628 5f0a           1609 	add	-1,r1
0000062a 5d0f0300       1610 	st.b	r1,3[r29]
0000062e a515*          1611 	br	.L885
                        1612 .L879:
                        1613 --426:                 }

                                                                      Page 29
                                                              C:\Users\YINGAO~1\AppData\Local\Temp\gh_00007n81.si
                        1614 --427:              }
                        1615 --428:              else
                        1616 --429:              {
                        1617 --430:                 TempCnt = 0;
                        1618 --line430
                        1619 ..lin.D.3A.5CRenesas_Electronics.5CD1x_RGL.5Crgl_ghs_D1Lx_obj_V1.2E2.2E0.5Cvlib.5Capp.5Cgfx_apps.5Csimple_draw_d1l2.5Ctarget.5Cd1lx_mango_ghs.5Cobj.5Cwfm.87::
                        1620 .LDWlin87:
00000630 5d071000       1621 	st.b	zero,16[r29]
00000634 f50d*          1622 	br	.L885
                        1623 .L875:
                        1624 --431:              }
                        1625 --432:         }
                        1626 --433:         else
                        1627 --434:         {
                        1628 --435:             wfm_InvalidFltTmptSeg = 0;
                        1629 --line435
                        1630 ..lin.D.3A.5CRenesas_Electronics.5CD1x_RGL.5Crgl_ghs_D1Lx_obj_V1.2E2.2E0.5Cvlib.5Capp.5Cgfx_apps.5Csimple_draw_d1l2.5Ctarget.5Cd1lx_mango_ghs.5Cobj.5Cwfm.88::
                        1631 .LDWlin88:
00000636 5d070300       1632 	st.b	zero,3[r29]
                        1633 --436:             TempCnt = 0;
0000063a 5d071000       1634 	st.b	zero,16[r29]
0000063e a50d*          1635 	br	.L885
                        1636 .L873:
                        1637 --437:         }
                        1638 --438:     }
                        1639 --439:     else
                        1640 --440:     {
                        1641 --441:         wfm_InvalidFltTmptSeg = wfm_TmptSeg;
                        1642 --line441
                        1643 ..lin.D.3A.5CRenesas_Electronics.5CD1x_RGL.5Crgl_ghs_D1Lx_obj_V1.2E2.2E0.5Cvlib.5Capp.5Cgfx_apps.5Csimple_draw_d1l2.5Ctarget.5Cd1lx_mango_ghs.5Cobj.5Cwfm.89::
                        1644 .LDWlin89:
00000640 210600000000*  1645 	mov	_wfm_TmptSeg,r1
00000646 810f0100       1646 	ld.bu	0[r1],r1
0000064a 5d0f0300       1647 	st.b	r1,3[r29]
                        1648 --442:         TempCnt = 0;
0000064e 5d071000       1649 	st.b	zero,16[r29]
                        1650 .L885:
                        1651 --443:     }
                        1652 --444: }
00000652 0000           1653 	nop
                        1654 --	    .ef
                        1655 .LDW62:
00000654 4206ff30       1656 	dispose	1,{r26,r27,r28,r29,r31},[lp]
                        1657 	.type	_wfm_coolantInvalidSegProcess,@function
                        1658 	.size	_wfm_coolantInvalidSegProcess,.-_wfm_coolantInvalidSegProcess
                        1659 	.type	_wfm_coolantInvalidSegProcess..D.3A.5CRenesas_Electronics.5CD1x_RGL.5Crgl_ghs_D1Lx_obj_V1.2E2.2E0.5Cvlib.5Capp.5Cgfx_apps.5Csimple_draw_d1l2.5Ctarget.5Cd1lx_mango_ghs.5Cobj.5Cwfm.,@function
                        1660 	.size	_wfm_coolantInvalidSegProcess..D.3A.5CRenesas_Electronics.5CD1x_RGL.5Crgl_ghs_D1Lx_obj_V1.2E2.2E0.5Cvlib.5Capp.5Cgfx_apps.5Csimple_draw_d1l2.5Ctarget.5Cd1lx_mango_ghs.5Cobj.5Cwfm.,.-_wfm_coolantInvalidSegProcess..D.3A.5CRenesas_Electronics.5CD1x_RGL.5Crgl_ghs_D1Lx_obj_V1.2E2.2E0.5Cvlib.5Capp.5Cgfx_apps.5Csimple_draw_d1l2.5Ctarget.5Cd1lx_mango_ghs.5Cobj.5Cwfm.
                        1661 	.align	2
                        1662 .LDW72:
                        1663 --_TempCnt	.L972	static
                        1664 --_res	r28	local
                        1665 --_mode	3[sp]	local
                        1666 
                        1667 	.data
                        1668 .L972:
                        1669 	.global	_TempCnt.wfm_coolantInvalidSegProcess.D.3A.5CRenesas_Electronics.5CD1x_RGL.5Crgl_ghs_D1Lx_obj_V1.2E2.2E0.5Cvlib.5Capp.5Cgfx_apps.5Csimple_draw_d1l2.5Ctarget.5Cd1lx_mango_ghs.5Cobj.5Cwfm..34
                        1670 _TempCnt.wfm_coolantInvalidSegProcess.D.3A.5CRenesas_Electronics.5CD1x_RGL.5Crgl_ghs_D1Lx_obj_V1.2E2.2E0.5Cvlib.5Capp.5Cgfx_apps.5Csimple_draw_d1l2.5Ctarget.5Cd1lx_mango_ghs.5Cobj.5Cwfm..34:
                        1671 	.type	_TempCnt.wfm_coolantInvalidSegProcess.D.3A.5CRenesas_Electronics.5CD1x_RGL.5Crgl_ghs_D1Lx_obj_V1.2E2.2E0.5Cvlib.5Capp.5Cgfx_apps.5Csimple_draw_d1l2.5Ctarget.5Cd1lx_mango_ghs.5Cobj.5Cwfm..34,@object
                        1672 	.size	_TempCnt.wfm_coolantInvalidSegProcess.D.3A.5CRenesas_Electronics.5CD1x_RGL.5Crgl_ghs_D1Lx_obj_V1.2E2.2E0.5Cvlib.5Capp.5Cgfx_apps.5Csimple_draw_d1l2.5Ctarget.5Cd1lx_mango_ghs.5Cobj.5Cwfm..34,1
00000020 00             1673 	.byte	0
                        1674 	.type	.L972,@object

                                                                      Page 30
                                                              C:\Users\YINGAO~1\AppData\Local\Temp\gh_00007n81.si
                        1675 	.size	.L972,1
                        1676 	.text
                        1677 
                        1678 
                        1679 --445: /**************************************************
                        1680 --446: *Function :WFM_SendNetSignal_50ms
                        1681 --447: *Description: send fuel and temperature display signal
                        1682 --448: 1.wfm_NetClstrDspdFuelLvlSgmt
                        1683 --449: 2.wfm_NetFuelTotCapct
                        1684 --450: 3.ClstrDspdFuelSts
                        1685 --452: *Parameters:   NONE
                        1686 --453: *Returns:      NONE
                        1687 --455: **create&Verlog:
                        1688 --456: *Author Name xs  Date:2017-6-22    Ver:2.0
                        1689 --457: ***************************************************/
                        1690 --458: void WFM_SendNetSignal_50ms(void)
                        1691 	.align	2
                        1692 	.align	2
                        1693 	.global	_WFM_SendNetSignal_50ms
                        1694 _WFM_SendNetSignal_50ms:
00000658 8007e110       1695 	prepare	{r27,r28,r29,r31},0
0000065c 3d0600000000*  1696 	mov	_wfm_NetFuelTotCapct-2,r29
00000662 3dde0b00       1697 	movea	11,r29,r27
                        1698 --	    .bf
                        1699 .LDW82:
                        1700 --459: {
                        1701 --460:     U8 fuelWrn = 0;
00000666 00e2           1702 	mov	0,r28
                        1703 --461:     
                        1704 --462:     v_wr_8(ClstrDspdFuelLvlSgmt_handle, wfm_NetClstrDspdFuelLvlSgmt);      
00000668 9d3f0d00       1705 	ld.bu	12[r29],r7
0000066c 2606482b3f00   1706 	mov	4139848,r6
                        1707 	jarl	_v_wr_8,lp
                        1707 <EXPANSION BEGIN>
                        1707 jarl22 _v_wr_8 , lp 
00000672 80ff0000*      1707 <EXPANSION END>
                        1708 --464:     if(TYPE_WARN_FUEL_OK != wfm_FuelFault)
                        1709 --line464
                        1710 ..lin.D.3A.5CRenesas_Electronics.5CD1x_RGL.5Crgl_ghs_D1Lx_obj_V1.2E2.2E0.5Cvlib.5Capp.5Cgfx_apps.5Csimple_draw_d1l2.5Ctarget.5Cd1lx_mango_ghs.5Cobj.5Cwfm.90::
                        1711 .LDWlin90:
00000676 bd0f0b00       1712 	ld.bu	11[r29],r1
0000067a e009           1713 	cmp	zero,r1
0000067c a205*          1714 	be	.L995
                        1715 --465:     {
                        1716 --466:         fuelWrn = 1;
                        1717 --line466
                        1718 ..lin.D.3A.5CRenesas_Electronics.5CD1x_RGL.5Crgl_ghs_D1Lx_obj_V1.2E2.2E0.5Cvlib.5Capp.5Cgfx_apps.5Csimple_draw_d1l2.5Ctarget.5Cd1lx_mango_ghs.5Cobj.5Cwfm.91::
                        1719 .LDWlin91:
0000067e 01e2           1720 	mov	1,r28
                        1721 .L995:
                        1722 --467:     }
                        1723 --468:     else
                        1724 --469:     {
                        1725 --470:     }
                        1726 --471: 	
                        1727 --472: 	v_wr_8(ClstrDspdFuelSts_handle, wfm_FuelFault);
00000680 bd3f0b00       1728 	ld.bu	11[r29],r7
00000684 2606902b3f00   1729 	mov	4139920,r6
                        1730 	jarl	_v_wr_8,lp
                        1730 <EXPANSION BEGIN>
                        1730 jarl22 _v_wr_8 , lp 

                                                                      Page 31
                                                              C:\Users\YINGAO~1\AppData\Local\Temp\gh_00007n81.si
0000068a 80ff0000*      1730 <EXPANSION END>
                        1731 --473:     v_wr_8(ClstrDspdFuelSnsrWrnng_handle, fuelWrn);
                        1732 --line473
                        1733 ..lin.D.3A.5CRenesas_Electronics.5CD1x_RGL.5Crgl_ghs_D1Lx_obj_V1.2E2.2E0.5Cvlib.5Capp.5Cgfx_apps.5Csimple_draw_d1l2.5Ctarget.5Cd1lx_mango_ghs.5Cobj.5Cwfm.92::
                        1734 .LDWlin92:
0000068e 1c38           1735 	mov	r28,r7
00000690 26066c2b3f00   1736 	mov	4139884,r6
                        1737 	jarl	_v_wr_8,lp
                        1737 <EXPANSION BEGIN>
                        1737 jarl22 _v_wr_8 , lp 
00000696 80ff0000*      1737 <EXPANSION END>
                        1738 --474:     v_wr_16(FuelTotCapct_handle, wfm_NetFuelTotCapct*WFM_FUELCAP_SCALE);
                        1739 --line474
                        1740 ..lin.D.3A.5CRenesas_Electronics.5CD1x_RGL.5Crgl_ghs_D1Lx_obj_V1.2E2.2E0.5Cvlib.5Capp.5Cgfx_apps.5Csimple_draw_d1l2.5Ctarget.5Cd1lx_mango_ghs.5Cobj.5Cwfm.93::
                        1741 .LDWlin93:
0000069a 210600000000*  1742 	mov	_wfm_NetFuelTotCapct,r1
000006a0 e10f0100       1743 	ld.hu	0[r1],r1
000006a4 260674323f00   1744 	mov	4141684,r6
000006aa c30a           1745 	shl	3,r1
000006ac 0138           1746 	mov	r1,r7
000006ae c700           1747 	zxh	r7
                        1748 	jarl	_v_wr_16,lp
                        1748 <EXPANSION BEGIN>
                        1748 jarl22 _v_wr_16 , lp 
000006b0 80ff0000*      1748 <EXPANSION END>
                        1749 --475: }
                        1750 --line475
                        1751 ..lin.D.3A.5CRenesas_Electronics.5CD1x_RGL.5Crgl_ghs_D1Lx_obj_V1.2E2.2E0.5Cvlib.5Capp.5Cgfx_apps.5Csimple_draw_d1l2.5Ctarget.5Cd1lx_mango_ghs.5Cobj.5Cwfm.94::
                        1752 .LDWlin94:
000006b4 0000           1753 	nop
                        1754 --	    .ef
                        1755 .LDW92:
000006b6 4006ff10       1756 	dispose	0,{r27,r28,r29,r31},[lp]
                        1757 	.type	_WFM_SendNetSignal_50ms,@function
                        1758 	.size	_WFM_SendNetSignal_50ms,.-_WFM_SendNetSignal_50ms
                        1759 	.align	2
                        1760 .LDW03:
                        1761 --_fuelWrn	r28	local
                        1762 
                        1763 	.data
                        1764 	.text
                        1765 
                        1766 
                        1767 --477: /**************************************************
                        1768 --478: *Function :wfm_Process_Flt_Segment_process
                        1769 --479: *Description: when bat is low or high,close fuel and temp seg
                        1770 --480: *Parameters:   NONE
                        1771 --481: *Returns:      NONE
                        1772 --483: **create&Verlog:
                        1773 --484: *Author Name xs  Date:2017-6-22    Ver:2.0
                        1774 --485: ***************************************************/
                        1775 --486: static void wfm_Process_Flt_Segment_process(void)
                        1776 	.align	2
                        1777 	.align	2
                        1778 	.global	_wfm_Process_Flt_Segment_process..D.3A.5CRenesas_Electronics.5CD1x_RGL.5Crgl_ghs_D1Lx_obj_V1.2E2.2E0.5Cvlib.5Capp.5Cgfx_apps.5Csimple_draw_d1l2.5Ctarget.5Cd1lx_mango_ghs.5Cobj.5Cwfm.
                        1779 _wfm_Process_Flt_Segment_process..D.3A.5CRenesas_Electronics.5CD1x_RGL.5Crgl_ghs_D1Lx_obj_V1.2E2.2E0.5Cvlib.5Capp.5Cgfx_apps.5Csimple_draw_d1l2.5Ctarget.5Cd1lx_mango_ghs.5Cobj.5Cwfm.:
                        1780 _wfm_Process_Flt_Segment_process:
000006ba 8207e110       1781 	prepare	{r27,r28,r29,r31},1
000006be 3b0600000000*  1782 	mov	_wfm_fuelSeg,r27
000006c4 1beeffff       1783 	addi	-1,r27,r29
                        1784 --	    .bf

                                                                      Page 32
                                                              C:\Users\YINGAO~1\AppData\Local\Temp\gh_00007n81.si
                        1785 .LDW13:
                        1786 --487: {
                        1787 --488: 	U8 status;
                        1788 --489: 	U8 ret = 0;
000006c8 00e2           1789 	mov	0,r28
                        1790 --491: 	ret = BAT_GetBatFltSts(TYPE_BATDET_TD,&status);
000006ca 0032           1791 	mov	0,r6
000006cc 233e0300       1792 	movea	3,sp,r7
                        1793 	jarl	_BAT_GetBatFltSts,lp
                        1793 <EXPANSION BEGIN>
                        1793 jarl22 _BAT_GetBatFltSts , lp 
000006d0 80ff0000*      1793 <EXPANSION END>
000006d4 0ae0           1794 	mov	r10,r28
                        1795 --493: 	if(RET_OK == ret)
                        1796 --line493
                        1797 ..lin.D.3A.5CRenesas_Electronics.5CD1x_RGL.5Crgl_ghs_D1Lx_obj_V1.2E2.2E0.5Cvlib.5Capp.5Cgfx_apps.5Csimple_draw_d1l2.5Ctarget.5Cd1lx_mango_ghs.5Cobj.5Cwfm.95::
                        1798 .LDWlin95:
000006d6 61e2           1799 	cmp	1,r28
000006d8 ca15*          1800 	bne	.L1073
                        1801 --494: 	{
                        1802 --495: 		if((FLT_BAT_VOL_HIGH == status)
                        1803 --line495
                        1804 ..lin.D.3A.5CRenesas_Electronics.5CD1x_RGL.5Crgl_ghs_D1Lx_obj_V1.2E2.2E0.5Cvlib.5Capp.5Cgfx_apps.5Csimple_draw_d1l2.5Ctarget.5Cd1lx_mango_ghs.5Cobj.5Cwfm.96::
                        1805 .LDWlin96:
000006da a30f0300       1806 	ld.bu	3[sp],r1
000006de 610a           1807 	cmp	1,r1
000006e0 d205*          1808 	be	.L1067
000006e2 a30f0300       1809 	ld.bu	3[sp],r1
000006e6 620a           1810 	cmp	2,r1
000006e8 ea05*          1811 	bne	.L1066
                        1812 .L1067:
                        1813 --496: 			||(FLT_BAT_VOL_LOW == status))
                        1814 --497: 		{
                        1815 --498: 			wfm_fuelSeg = LEVEL_WFM_SEGNONE;
                        1816 --line498
                        1817 ..lin.D.3A.5CRenesas_Electronics.5CD1x_RGL.5Crgl_ghs_D1Lx_obj_V1.2E2.2E0.5Cvlib.5Capp.5Cgfx_apps.5Csimple_draw_d1l2.5Ctarget.5Cd1lx_mango_ghs.5Cobj.5Cwfm.97::
                        1818 .LDWlin97:
000006ea 5d070100       1819 	st.b	zero,1[r29]
                        1820 --499: 			wfm_TmptSeg = LEVEL_WFM_SEGNONE;
000006ee 5d070200       1821 	st.b	zero,2[r29]
000006f2 f505*          1822 	br	.L1073
                        1823 .L1066:
                        1824 --500: 		}
                        1825 --501: 		else if(TRUE == FL_GetFuelSensorFaultFlag())
                        1826 --line501
                        1827 ..lin.D.3A.5CRenesas_Electronics.5CD1x_RGL.5Crgl_ghs_D1Lx_obj_V1.2E2.2E0.5Cvlib.5Capp.5Cgfx_apps.5Csimple_draw_d1l2.5Ctarget.5Cd1lx_mango_ghs.5Cobj.5Cwfm.98::
                        1828 .LDWlin98:
                        1829 	jarl	_FL_GetFuelSensorFaultFlag,lp
                        1829 <EXPANSION BEGIN>
                        1829 jarl22 _FL_GetFuelSensorFaultFlag , lp 
000006f4 80ff0000*      1829 <EXPANSION END>
000006f8 6152           1830 	cmp	1,r10
000006fa ba05*          1831 	bne	.L1073
                        1832 --502: 		{
                        1833 --503: 			wfm_fuelSeg = LEVEL_WFM_SEGNONE;
                        1834 --line503
                        1835 ..lin.D.3A.5CRenesas_Electronics.5CD1x_RGL.5Crgl_ghs_D1Lx_obj_V1.2E2.2E0.5Cvlib.5Capp.5Cgfx_apps.5Csimple_draw_d1l2.5Ctarget.5Cd1lx_mango_ghs.5Cobj.5Cwfm.99::
                        1836 .LDWlin99:
000006fc 5d070100       1837 	st.b	zero,1[r29]
                        1838 .L1073:
                        1839 --504: 		}

                                                                      Page 33
                                                              C:\Users\YINGAO~1\AppData\Local\Temp\gh_00007n81.si
                        1840 --505: 		else
                        1841 --506: 		{
                        1842 --507: 			/*do nothing*/
                        1843 --508: 		}
                        1844 --509: 	}
                        1845 --510: 	else
                        1846 --511: 	{
                        1847 --512: 		/*do nothing*/
                        1848 --513: 	}
                        1849 --514: }
00000700 0000           1850 	nop
                        1851 --	    .ef
                        1852 .LDW23:
00000702 4206ff10       1853 	dispose	1,{r27,r28,r29,r31},[lp]
                        1854 	.type	_wfm_Process_Flt_Segment_process,@function
                        1855 	.size	_wfm_Process_Flt_Segment_process,.-_wfm_Process_Flt_Segment_process
                        1856 	.type	_wfm_Process_Flt_Segment_process..D.3A.5CRenesas_Electronics.5CD1x_RGL.5Crgl_ghs_D1Lx_obj_V1.2E2.2E0.5Cvlib.5Capp.5Cgfx_apps.5Csimple_draw_d1l2.5Ctarget.5Cd1lx_mango_ghs.5Cobj.5Cwfm.,@function
                        1857 	.size	_wfm_Process_Flt_Segment_process..D.3A.5CRenesas_Electronics.5CD1x_RGL.5Crgl_ghs_D1Lx_obj_V1.2E2.2E0.5Cvlib.5Capp.5Cgfx_apps.5Csimple_draw_d1l2.5Ctarget.5Cd1lx_mango_ghs.5Cobj.5Cwfm.,.-_wfm_Process_Flt_Segment_process..D.3A.5CRenesas_Electronics.5CD1x_RGL.5Crgl_ghs_D1Lx_obj_V1.2E2.2E0.5Cvlib.5Capp.5Cgfx_apps.5Csimple_draw_d1l2.5Ctarget.5Cd1lx_mango_ghs.5Cobj.5Cwfm.
                        1858 	.align	2
                        1859 .LDW33:
                        1860 --_status	3[sp]	local
                        1861 --_ret	r28	local
                        1862 
                        1863 	.data
                        1864 	.text
                        1865 
                        1866 
                        1867 --516: /**************************************************
                        1868 --517: *Function :wfm_FuelSensorOutRang_Flt_Process
                        1869 --518: *Description: send the Temp Fault status
                        1870 --520: *Parameters:   Sts
                        1871 --521: *Returns:      wfm_WTFault
                        1872 --523: **create&Verlog:
                        1873 --524: *Author Name xs  Date:2017-6-22    Ver:2.0
                        1874 --525: ***************************************************/
                        1875 --526: static void wfm_FuelSensorOutRang_Process(void)
                        1876 	.align	2
                        1877 	.align	2
                        1878 	.global	_wfm_FuelSensorOutRang_Process..D.3A.5CRenesas_Electronics.5CD1x_RGL.5Crgl_ghs_D1Lx_obj_V1.2E2.2E0.5Cvlib.5Capp.5Cgfx_apps.5Csimple_draw_d1l2.5Ctarget.5Cd1lx_mango_ghs.5Cobj.5Cwfm.
                        1879 _wfm_FuelSensorOutRang_Process..D.3A.5CRenesas_Electronics.5CD1x_RGL.5Crgl_ghs_D1Lx_obj_V1.2E2.2E0.5Cvlib.5Capp.5Cgfx_apps.5Csimple_draw_d1l2.5Ctarget.5Cd1lx_mango_ghs.5Cobj.5Cwfm.:
                        1880 _wfm_FuelSensorOutRang_Process:
00000706 8207e170       1881 	prepare	{r25,r26,r27,r28,r29,r31},1
0000070a 3d0600000000*  1882 	mov	_wfm_Cycle,r29
00000710 1dd8           1883 	mov	r29,r27
00000712 3dd61a00       1884 	movea	26,r29,r26
00000716 3dce1900       1885 	movea	25,r29,r25
                        1886 --	    .bf
                        1887 .LDW43:
                        1888 --527: {
                        1889 --528:      U8 res,PwrMode = PWR_OFF;
0000071a 43070300       1890 	st.b	zero,3[sp]
                        1891 --529:      static U8 SensorFlt = 0;
                        1892 --530:      static U8 wfm_PwrMode = PWR_OFF;
                        1893 --531:      
                        1894 --532:      res = PWR_GetPwrMode(&PwrMode);
0000071e 23360300       1895 	movea	3,sp,r6
                        1896 	jarl	_PWR_GetPwrMode,lp
                        1896 <EXPANSION BEGIN>
                        1896 jarl22 _PWR_GetPwrMode , lp 
00000722 80ff0000*      1896 <EXPANSION END>
00000726 0ae0           1897 	mov	r10,r28

                                                                      Page 34
                                                              C:\Users\YINGAO~1\AppData\Local\Temp\gh_00007n81.si
                        1898 --533:      if(RET_OK == res)
                        1899 --line533
                        1900 ..lin.D.3A.5CRenesas_Electronics.5CD1x_RGL.5Crgl_ghs_D1Lx_obj_V1.2E2.2E0.5Cvlib.5Capp.5Cgfx_apps.5Csimple_draw_d1l2.5Ctarget.5Cd1lx_mango_ghs.5Cobj.5Cwfm.100::
                        1901 .LDWlin100:
00000728 61e2           1902 	cmp	1,r28
0000072a aa3d*          1903 	bne	.L1154
                        1904 --534:      {     	
                        1905 --535: 		if(FALSE == FL_GetFuelSensorFaultFlag())
                        1906 --line535
                        1907 ..lin.D.3A.5CRenesas_Electronics.5CD1x_RGL.5Crgl_ghs_D1Lx_obj_V1.2E2.2E0.5Cvlib.5Capp.5Cgfx_apps.5Csimple_draw_d1l2.5Ctarget.5Cd1lx_mango_ghs.5Cobj.5Cwfm.101::
                        1908 .LDWlin101:
                        1909 	jarl	_FL_GetFuelSensorFaultFlag,lp
                        1909 <EXPANSION BEGIN>
                        1909 jarl22 _FL_GetFuelSensorFaultFlag , lp 
0000072c 80ff0000*      1909 <EXPANSION END>
00000730 e051           1910 	cmp	zero,r10
00000732 ca05*          1911 	bne	.L1156
                        1912 --536: 		{
                        1913 --537: 			wfm_Cycle = STATE_CYCLE_NORMAL;
                        1914 --line537
                        1915 ..lin.D.3A.5CRenesas_Electronics.5CD1x_RGL.5Crgl_ghs_D1Lx_obj_V1.2E2.2E0.5Cvlib.5Capp.5Cgfx_apps.5Csimple_draw_d1l2.5Ctarget.5Cd1lx_mango_ghs.5Cobj.5Cwfm.102::
                        1916 .LDWlin102:
00000734 7d070100       1917 	st.w	zero,0[r29]
00000738 c515*          1918 	br	.L1158
                        1919 .L1156:
                        1920 --538: 		}
                        1921 --539: 		else if((TRUE == FL_GetFuelSensorFaultFlag()) 
                        1922 --line539
                        1923 ..lin.D.3A.5CRenesas_Electronics.5CD1x_RGL.5Crgl_ghs_D1Lx_obj_V1.2E2.2E0.5Cvlib.5Capp.5Cgfx_apps.5Csimple_draw_d1l2.5Ctarget.5Cd1lx_mango_ghs.5Cobj.5Cwfm.103::
                        1924 .LDWlin103:
                        1925 	jarl	_FL_GetFuelSensorFaultFlag,lp
                        1925 <EXPANSION BEGIN>
                        1925 jarl22 _FL_GetFuelSensorFaultFlag , lp 
0000073a 80ff0000*      1925 <EXPANSION END>
0000073e 6152           1926 	cmp	1,r10
00000740 8a15*          1927 	bne	.L1158
00000742 bd0f1900       1928 	ld.bu	25[r29],r1
00000746 e009           1929 	cmp	zero,r1
00000748 ca0d*          1930 	bne	.L1158
0000074a a30f0300       1931 	ld.bu	3[sp],r1
0000074e 620a           1932 	cmp	2,r1
00000750 d205*          1933 	be	.L1160
00000752 a30f0300       1934 	ld.bu	3[sp],r1
00000756 630a           1935 	cmp	3,r1
00000758 ca05*          1936 	bne	.L1158
                        1937 .L1160:
                        1938 --540: 			&& (FALSE == SensorFlt)
                        1939 --541: 			&& ((PWR_RUN == PwrMode)
                        1940 --542:            || (PWR_CRANK== PwrMode)))
                        1941 --543: 		{
                        1942 --544:         	wfm_Cycle = STATE_CYCLE_CURRENT;
                        1943 --line544
                        1944 ..lin.D.3A.5CRenesas_Electronics.5CD1x_RGL.5Crgl_ghs_D1Lx_obj_V1.2E2.2E0.5Cvlib.5Capp.5Cgfx_apps.5Csimple_draw_d1l2.5Ctarget.5Cd1lx_mango_ghs.5Cobj.5Cwfm.104::
                        1945 .LDWlin104:
0000075a 010a           1946 	mov	1,r1
0000075c 7d0f0100       1947 	st.w	r1,0[r29]
                        1948 .L1158:
                        1949 --545: 		}
                        1950 --546: 		else
                        1951 --547: 		{
                        1952 --548: 		}

                                                                      Page 35
                                                              C:\Users\YINGAO~1\AppData\Local\Temp\gh_00007n81.si
                        1953 --549:         
                        1954 --550: 		SensorFlt = FL_GetFuelSensorFaultFlag();		
                        1955 	jarl	_FL_GetFuelSensorFaultFlag,lp
                        1955 <EXPANSION BEGIN>
                        1955 jarl22 _FL_GetFuelSensorFaultFlag , lp 
00000760 80ff0000*      1955 <EXPANSION END>
00000764 5d571900       1956 	st.b	r10,25[r29]
                        1957 --551:         if(((PWR_RUN == PwrMode)
                        1958 --line551
                        1959 ..lin.D.3A.5CRenesas_Electronics.5CD1x_RGL.5Crgl_ghs_D1Lx_obj_V1.2E2.2E0.5Cvlib.5Capp.5Cgfx_apps.5Csimple_draw_d1l2.5Ctarget.5Cd1lx_mango_ghs.5Cobj.5Cwfm.105::
                        1960 .LDWlin105:
00000768 a30f0300       1961 	ld.bu	3[sp],r1
0000076c 620a           1962 	cmp	2,r1
0000076e d205*          1963 	be	.L1167
00000770 a30f0300       1964 	ld.bu	3[sp],r1
00000774 630a           1965 	cmp	3,r1
00000776 ca15*          1966 	bne	.L1154
                        1967 .L1167:
00000778 9d0f1b00       1968 	ld.bu	26[r29],r1
0000077c 610a           1969 	cmp	1,r1
0000077e d205*          1970 	be	.L1166
00000780 9d0f1b00       1971 	ld.bu	26[r29],r1
00000784 e009           1972 	cmp	zero,r1
00000786 ca0d*          1973 	bne	.L1154
                        1974 .L1166:
                        1975 --552:            ||(PWR_CRANK== PwrMode)) 
                        1976 --553:            && ((PWR_ACC == wfm_PwrMode)
                        1977 --554:            ||(PWR_OFF== wfm_PwrMode)))
                        1978 --555:         {
                        1979 --556:         	if(TRUE == FL_GetFuelSensorFaultFlag() 
                        1980 --line556
                        1981 ..lin.D.3A.5CRenesas_Electronics.5CD1x_RGL.5Crgl_ghs_D1Lx_obj_V1.2E2.2E0.5Cvlib.5Capp.5Cgfx_apps.5Csimple_draw_d1l2.5Ctarget.5Cd1lx_mango_ghs.5Cobj.5Cwfm.106::
                        1982 .LDWlin106:
                        1983 	jarl	_FL_GetFuelSensorFaultFlag,lp
                        1983 <EXPANSION BEGIN>
                        1983 jarl22 _FL_GetFuelSensorFaultFlag , lp 
00000788 80ff0000*      1983 <EXPANSION END>
0000078c 6152           1984 	cmp	1,r10
0000078e 8a0d*          1985 	bne	.L1154
00000790 3d0f0100       1986 	ld.w	0[r29],r1
00000794 610a           1987 	cmp	1,r1
00000796 ca05*          1988 	bne	.L1154
                        1989 --557: 				&& (STATE_CYCLE_CURRENT ==wfm_Cycle))
                        1990 --558:     		{
                        1991 --559:     			wfm_Cycle = STATE_CYCLE_NEXT;
                        1992 --line559
                        1993 ..lin.D.3A.5CRenesas_Electronics.5CD1x_RGL.5Crgl_ghs_D1Lx_obj_V1.2E2.2E0.5Cvlib.5Capp.5Cgfx_apps.5Csimple_draw_d1l2.5Ctarget.5Cd1lx_mango_ghs.5Cobj.5Cwfm.107::
                        1994 .LDWlin107:
00000798 020a           1995 	mov	2,r1
0000079a 7d0f0100       1996 	st.w	r1,0[r29]
                        1997 .L1154:
                        1998 --560:     		}
                        1999 --561: 			else
                        2000 --562: 			{
                        2001 --563: 			}
                        2002 --564:         }
                        2003 --565: 		else
                        2004 --566: 		{
                        2005 --567: 		}
                        2006 --568:      }
                        2007 --569:      wfm_PwrMode = PwrMode;

                                                                      Page 36
                                                              C:\Users\YINGAO~1\AppData\Local\Temp\gh_00007n81.si
0000079e a30f0300       2008 	ld.bu	3[sp],r1
000007a2 5d0f1a00       2009 	st.b	r1,26[r29]
                        2010 --570: }
000007a6 0000           2011 	nop
                        2012 --	    .ef
                        2013 .LDW53:
000007a8 4206ff70       2014 	dispose	1,{r25,r26,r27,r28,r29,r31},[lp]
                        2015 	.type	_wfm_FuelSensorOutRang_Process,@function
                        2016 	.size	_wfm_FuelSensorOutRang_Process,.-_wfm_FuelSensorOutRang_Process
                        2017 	.type	_wfm_FuelSensorOutRang_Process..D.3A.5CRenesas_Electronics.5CD1x_RGL.5Crgl_ghs_D1Lx_obj_V1.2E2.2E0.5Cvlib.5Capp.5Cgfx_apps.5Csimple_draw_d1l2.5Ctarget.5Cd1lx_mango_ghs.5Cobj.5Cwfm.,@function
                        2018 	.size	_wfm_FuelSensorOutRang_Process..D.3A.5CRenesas_Electronics.5CD1x_RGL.5Crgl_ghs_D1Lx_obj_V1.2E2.2E0.5Cvlib.5Capp.5Cgfx_apps.5Csimple_draw_d1l2.5Ctarget.5Cd1lx_mango_ghs.5Cobj.5Cwfm.,.-_wfm_FuelSensorOutRang_Process..D.3A.5CRenesas_Electronics.5CD1x_RGL.5Crgl_ghs_D1Lx_obj_V1.2E2.2E0.5Cvlib.5Capp.5Cgfx_apps.5Csimple_draw_d1l2.5Ctarget.5Cd1lx_mango_ghs.5Cobj.5Cwfm.
                        2019 	.align	2
                        2020 .LDW63:
                        2021 --_SensorFlt	.L1276	static
                        2022 --_wfm_PwrMode	.L1277	static
                        2023 --_res	r28	local
                        2024 --_PwrMode	3[sp]	local
                        2025 
                        2026 	.data
                        2027 .L1276:
                        2028 	.global	_SensorFlt.wfm_FuelSensorOutRang_Process.D.3A.5CRenesas_Electronics.5CD1x_RGL.5Crgl_ghs_D1Lx_obj_V1.2E2.2E0.5Cvlib.5Capp.5Cgfx_apps.5Csimple_draw_d1l2.5Ctarget.5Cd1lx_mango_ghs.5Cobj.5Cwfm..35
                        2029 _SensorFlt.wfm_FuelSensorOutRang_Process.D.3A.5CRenesas_Electronics.5CD1x_RGL.5Crgl_ghs_D1Lx_obj_V1.2E2.2E0.5Cvlib.5Capp.5Cgfx_apps.5Csimple_draw_d1l2.5Ctarget.5Cd1lx_mango_ghs.5Cobj.5Cwfm..35:
                        2030 	.type	_SensorFlt.wfm_FuelSensorOutRang_Process.D.3A.5CRenesas_Electronics.5CD1x_RGL.5Crgl_ghs_D1Lx_obj_V1.2E2.2E0.5Cvlib.5Capp.5Cgfx_apps.5Csimple_draw_d1l2.5Ctarget.5Cd1lx_mango_ghs.5Cobj.5Cwfm..35,@object
                        2031 	.size	_SensorFlt.wfm_FuelSensorOutRang_Process.D.3A.5CRenesas_Electronics.5CD1x_RGL.5Crgl_ghs_D1Lx_obj_V1.2E2.2E0.5Cvlib.5Capp.5Cgfx_apps.5Csimple_draw_d1l2.5Ctarget.5Cd1lx_mango_ghs.5Cobj.5Cwfm..35,1
00000021 00             2032 	.byte	0
                        2033 	.type	.L1276,@object
                        2034 	.size	.L1276,1
                        2035 .L1277:
                        2036 	.global	_wfm_PwrMode.wfm_FuelSensorOutRang_Process.D.3A.5CRenesas_Electronics.5CD1x_RGL.5Crgl_ghs_D1Lx_obj_V1.2E2.2E0.5Cvlib.5Capp.5Cgfx_apps.5Csimple_draw_d1l2.5Ctarget.5Cd1lx_mango_ghs.5Cobj.5Cwfm..36
                        2037 _wfm_PwrMode.wfm_FuelSensorOutRang_Process.D.3A.5CRenesas_Electronics.5CD1x_RGL.5Crgl_ghs_D1Lx_obj_V1.2E2.2E0.5Cvlib.5Capp.5Cgfx_apps.5Csimple_draw_d1l2.5Ctarget.5Cd1lx_mango_ghs.5Cobj.5Cwfm..36:
                        2038 	.type	_wfm_PwrMode.wfm_FuelSensorOutRang_Process.D.3A.5CRenesas_Electronics.5CD1x_RGL.5Crgl_ghs_D1Lx_obj_V1.2E2.2E0.5Cvlib.5Capp.5Cgfx_apps.5Csimple_draw_d1l2.5Ctarget.5Cd1lx_mango_ghs.5Cobj.5Cwfm..36,@object
                        2039 	.size	_wfm_PwrMode.wfm_FuelSensorOutRang_Process.D.3A.5CRenesas_Electronics.5CD1x_RGL.5Crgl_ghs_D1Lx_obj_V1.2E2.2E0.5Cvlib.5Capp.5Cgfx_apps.5Csimple_draw_d1l2.5Ctarget.5Cd1lx_mango_ghs.5Cobj.5Cwfm..36,1
00000022 00             2040 	.byte	0
                        2041 	.type	.L1277,@object
                        2042 	.size	.L1277,1
                        2043 	.text
                        2044 
                        2045 
                        2046 --571: /**************************************************
                        2047 --572: *Function :WFM_GetTpmsFltStatus
                        2048 --573: *Description: send the Temp Fault status
                        2049 --575: *Parameters:   Sts
                        2050 --576: *Returns:      wfm_WTFault
                        2051 --578: **create&Verlog:
                        2052 --579: *Author Name xs  Date:2017-6-22    Ver:2.0
                        2053 --580: ***************************************************/
                        2054 --581: U8 WFM_GetTempFltStatus(PU8 Sts)
                        2055 	.align	2
                        2056 	.align	2
                        2057 	.global	_WFM_GetTempFltStatus
                        2058 _WFM_GetTempFltStatus:
000007ac 06f0           2059 	mov	r6,ep
000007ae 210600000000*  2060 	mov	_wfm_WTFault,r1
                        2061 --	    .bf
                        2062 .LDW73:
                        2063 --582: {
                        2064 --583: 	U8 res = RET_FAIL;
000007b4 0072           2065 	mov	0,r14
                        2066 --584: 	
                        2067 --585: 	if (FALSE == wfm_InitSts)
000007b6 a16f0900       2068 	ld.bu	9[r1],r13

                                                                      Page 37
                                                              C:\Users\YINGAO~1\AppData\Local\Temp\gh_00007n81.si
000007ba e069           2069 	cmp	zero,r13
000007bc ba05*          2070 	bne	.L1302
                        2071 --586: 	{
                        2072 --587:         res = RET_FAIL;
                        2073 --line587
                        2074 ..lin.D.3A.5CRenesas_Electronics.5CD1x_RGL.5Crgl_ghs_D1Lx_obj_V1.2E2.2E0.5Cvlib.5Capp.5Cgfx_apps.5Csimple_draw_d1l2.5Ctarget.5Cd1lx_mango_ghs.5Cobj.5Cwfm.108::
                        2075 .LDWlin108:
000007be 0072           2076 	mov	0,r14
000007c0 c50d*          2077 	br	.L1304
                        2078 .L1302:
                        2079 --588:     }
                        2080 --589:     else if (NULL_PTR == Sts)
                        2081 --line589
                        2082 ..lin.D.3A.5CRenesas_Electronics.5CD1x_RGL.5Crgl_ghs_D1Lx_obj_V1.2E2.2E0.5Cvlib.5Capp.5Cgfx_apps.5Csimple_draw_d1l2.5Ctarget.5Cd1lx_mango_ghs.5Cobj.5Cwfm.109::
                        2083 .LDWlin109:
000007c2 e0f1           2084 	cmp	zero,ep
000007c4 ba05*          2085 	bne	.L1305
                        2086 --590:     {
                        2087 --591:         res = RET_INVALID;
                        2088 --line591
                        2089 ..lin.D.3A.5CRenesas_Electronics.5CD1x_RGL.5Crgl_ghs_D1Lx_obj_V1.2E2.2E0.5Cvlib.5Capp.5Cgfx_apps.5Csimple_draw_d1l2.5Ctarget.5Cd1lx_mango_ghs.5Cobj.5Cwfm.110::
                        2090 .LDWlin110:
000007c6 0272           2091 	mov	2,r14
000007c8 850d*          2092 	br	.L1304
                        2093 .L1305:
                        2094 --592:     }
                        2095 --593:     else
                        2096 --594:     {
                        2097 --595:     	*Sts = wfm_WTFault;
                        2098 --line595
                        2099 ..lin.D.3A.5CRenesas_Electronics.5CD1x_RGL.5Crgl_ghs_D1Lx_obj_V1.2E2.2E0.5Cvlib.5Capp.5Cgfx_apps.5Csimple_draw_d1l2.5Ctarget.5Cd1lx_mango_ghs.5Cobj.5Cwfm.111::
                        2100 .LDWlin111:
000007ca 210600000000*  2101 	mov	_wfm_WTFault,r1
000007d0 810f0100       2102 	ld.bu	0[r1],r1
000007d4 800b           2103 	sst.b	r1,0[ep]
                        2104 --596:         res = RET_OK;
000007d6 0172           2105 	mov	1,r14
                        2106 .L1304:
                        2107 --597:     }
                        2108 --598: 	
                        2109 --599:     return res;
000007d8 0e50           2110 	mov	r14,r10
                        2111 --	    .ef
                        2112 .LDW83:
000007da 7f00           2113 	jmp	[lp]
                        2114 	.type	_WFM_GetTempFltStatus,@function
                        2115 	.size	_WFM_GetTempFltStatus,.-_WFM_GetTempFltStatus
                        2116 	.align	2
                        2117 .LDW93:
                        2118 --_res	r14	local
                        2119 
                        2120 --_Sts	ep	param
                        2121 
                        2122 	.data
                        2123 	.text
                        2124 
                        2125 --600: }
                        2126 
                        2127 --602: /**************************************************
                        2128 --603: *Function :WFM_GetFuelFltStatus
                        2129 --604: *Description: send the Fuel Fault status

                                                                      Page 38
                                                              C:\Users\YINGAO~1\AppData\Local\Temp\gh_00007n81.si
                        2130 --606: *Parameters:   Sts
                        2131 --607: *Returns:      wfm_FuelFault
                        2132 --609: **create&Verlog:
                        2133 --610: *Author Name xs  Date:2017-6-22    Ver:2.0
                        2134 --611: ***************************************************/
                        2135 --612: U8 WFM_GetFuelFltStatus(PU8 Sts)
                        2136 	.align	2
                        2137 	.align	2
                        2138 	.global	_WFM_GetFuelFltStatus
                        2139 _WFM_GetFuelFltStatus:
000007dc 06f0           2140 	mov	r6,ep
000007de 210600000000*  2141 	mov	_wfm_FuelFault-3,r1
                        2142 --	    .bf
                        2143 .LDW04:
                        2144 --613: {
                        2145 --614: 	U8 res = RET_FAIL;
000007e4 0072           2146 	mov	0,r14
                        2147 --615: 	
                        2148 --616: 	if (FALSE == wfm_InitSts)
000007e6 a16f0500       2149 	ld.bu	5[r1],r13
000007ea e069           2150 	cmp	zero,r13
000007ec ba05*          2151 	bne	.L1368
                        2152 --617: 	{
                        2153 --618:         res = RET_FAIL;
                        2154 --line618
                        2155 ..lin.D.3A.5CRenesas_Electronics.5CD1x_RGL.5Crgl_ghs_D1Lx_obj_V1.2E2.2E0.5Cvlib.5Capp.5Cgfx_apps.5Csimple_draw_d1l2.5Ctarget.5Cd1lx_mango_ghs.5Cobj.5Cwfm.112::
                        2156 .LDWlin112:
000007ee 0072           2157 	mov	0,r14
000007f0 c50d*          2158 	br	.L1370
                        2159 .L1368:
                        2160 --619:     }
                        2161 --620:     else if (NULL_PTR == Sts)
                        2162 --line620
                        2163 ..lin.D.3A.5CRenesas_Electronics.5CD1x_RGL.5Crgl_ghs_D1Lx_obj_V1.2E2.2E0.5Cvlib.5Capp.5Cgfx_apps.5Csimple_draw_d1l2.5Ctarget.5Cd1lx_mango_ghs.5Cobj.5Cwfm.113::
                        2164 .LDWlin113:
000007f2 e0f1           2165 	cmp	zero,ep
000007f4 ba05*          2166 	bne	.L1371
                        2167 --621:     {
                        2168 --622:         res = RET_INVALID;
                        2169 --line622
                        2170 ..lin.D.3A.5CRenesas_Electronics.5CD1x_RGL.5Crgl_ghs_D1Lx_obj_V1.2E2.2E0.5Cvlib.5Capp.5Cgfx_apps.5Csimple_draw_d1l2.5Ctarget.5Cd1lx_mango_ghs.5Cobj.5Cwfm.114::
                        2171 .LDWlin114:
000007f6 0272           2172 	mov	2,r14
000007f8 850d*          2173 	br	.L1370
                        2174 .L1371:
                        2175 --623:     }
                        2176 --624:     else
                        2177 --625:     {
                        2178 --626:     	*Sts = wfm_FuelFault;
                        2179 --line626
                        2180 ..lin.D.3A.5CRenesas_Electronics.5CD1x_RGL.5Crgl_ghs_D1Lx_obj_V1.2E2.2E0.5Cvlib.5Capp.5Cgfx_apps.5Csimple_draw_d1l2.5Ctarget.5Cd1lx_mango_ghs.5Cobj.5Cwfm.115::
                        2181 .LDWlin115:
000007fa 210600000000*  2182 	mov	_wfm_FuelFault,r1
00000800 810f0100       2183 	ld.bu	0[r1],r1
00000804 800b           2184 	sst.b	r1,0[ep]
                        2185 --627:         res = RET_OK;
00000806 0172           2186 	mov	1,r14
                        2187 .L1370:
                        2188 --628:     }
                        2189 --629: 	
                        2190 --630:     return res;

                                                                      Page 39
                                                              C:\Users\YINGAO~1\AppData\Local\Temp\gh_00007n81.si
00000808 0e50           2191 	mov	r14,r10
                        2192 --	    .ef
                        2193 .LDW14:
0000080a 7f00           2194 	jmp	[lp]
                        2195 	.type	_WFM_GetFuelFltStatus,@function
                        2196 	.size	_WFM_GetFuelFltStatus,.-_WFM_GetFuelFltStatus
                        2197 	.align	2
                        2198 .LDW24:
                        2199 --_res	r14	local
                        2200 
                        2201 --_Sts	ep	param
                        2202 
                        2203 	.data
                        2204 	.text
                        2205 
                        2206 --631: }
                        2207 
                        2208 --633: /**************************************************
                        2209 --634: *Function :WFM_GetCoolantSegmentNum
                        2210 --635: *Description: send the info aboat TMP which seg have been lighted
                        2211 --637: *Parameters:   pNum
                        2212 --638: *Returns:      wfm_TmptSeg
                        2213 --640: **create&Verlog:
                        2214 --641: *Author Name xs  Date:2017-6-22    Ver:2.0
                        2215 --642: ***************************************************/
                        2216 --643: U8 WFM_GetCoolantSegmentNum(PU8 pNum)
                        2217 	.align	2
                        2218 	.align	2
                        2219 	.global	_WFM_GetCoolantSegmentNum
                        2220 _WFM_GetCoolantSegmentNum:
0000080c 8207e130       2221 	prepare	{r26,r27,r28,r29,r31},1
00000810 06d8           2222 	mov	r6,r27
00000812 3d0600000000*  2223 	mov	_wfm_TmptSeg-2,r29
                        2224 --	    .bf
                        2225 .LDW34:
                        2226 --644: {
                        2227 --645: 	U8 res = RET_FAIL;
00000818 00e2           2228 	mov	0,r28
                        2229 --646: 	U8 checksts;
                        2230 --647:     BOOL busOffFlt = FALSE;
0000081a 00d2           2231 	mov	0,r26
                        2232 --648: 	
                        2233 --649: 	if (FALSE == wfm_InitSts)
0000081c bd0f0900       2234 	ld.bu	9[r29],r1
00000820 e009           2235 	cmp	zero,r1
00000822 ba05*          2236 	bne	.L1432
                        2237 --650: 	{
                        2238 --651:         res = RET_FAIL;
                        2239 --line651
                        2240 ..lin.D.3A.5CRenesas_Electronics.5CD1x_RGL.5Crgl_ghs_D1Lx_obj_V1.2E2.2E0.5Cvlib.5Capp.5Cgfx_apps.5Csimple_draw_d1l2.5Ctarget.5Cd1lx_mango_ghs.5Cobj.5Cwfm.116::
                        2241 .LDWlin116:
00000824 00e2           2242 	mov	0,r28
00000826 c52d*          2243 	br	.L1434
                        2244 .L1432:
                        2245 --652:     }
                        2246 --653:     else if (NULL_PTR == pNum)
                        2247 --line653
                        2248 ..lin.D.3A.5CRenesas_Electronics.5CD1x_RGL.5Crgl_ghs_D1Lx_obj_V1.2E2.2E0.5Cvlib.5Capp.5Cgfx_apps.5Csimple_draw_d1l2.5Ctarget.5Cd1lx_mango_ghs.5Cobj.5Cwfm.117::
                        2249 .LDWlin117:
00000828 e0d9           2250 	cmp	zero,r27
0000082a ba05*          2251 	bne	.L1435

                                                                      Page 40
                                                              C:\Users\YINGAO~1\AppData\Local\Temp\gh_00007n81.si
                        2252 --654:     {
                        2253 --655:         res = RET_INVALID;
                        2254 --line655
                        2255 ..lin.D.3A.5CRenesas_Electronics.5CD1x_RGL.5Crgl_ghs_D1Lx_obj_V1.2E2.2E0.5Cvlib.5Capp.5Cgfx_apps.5Csimple_draw_d1l2.5Ctarget.5Cd1lx_mango_ghs.5Cobj.5Cwfm.118::
                        2256 .LDWlin118:
0000082c 02e2           2257 	mov	2,r28
0000082e 852d*          2258 	br	.L1434
                        2259 .L1435:
                        2260 --656:     }
                        2261 --657:     else
                        2262 --658:     {
                        2263 --659:      res = PWR_GetChkStatus(&checksts);
                        2264 --line659
                        2265 ..lin.D.3A.5CRenesas_Electronics.5CD1x_RGL.5Crgl_ghs_D1Lx_obj_V1.2E2.2E0.5Cvlib.5Capp.5Cgfx_apps.5Csimple_draw_d1l2.5Ctarget.5Cd1lx_mango_ghs.5Cobj.5Cwfm.119::
                        2266 .LDWlin119:
00000830 23360300       2267 	movea	3,sp,r6
                        2268 	jarl	_PWR_GetChkStatus,lp
                        2268 <EXPANSION BEGIN>
                        2268 jarl22 _PWR_GetChkStatus , lp 
00000834 80ff0000*      2268 <EXPANSION END>
00000838 0ae0           2269 	mov	r10,r28
                        2270 --660:      busOffFlt = NWD_GetBusOffFlt();
                        2271 --line660
                        2272 ..lin.D.3A.5CRenesas_Electronics.5CD1x_RGL.5Crgl_ghs_D1Lx_obj_V1.2E2.2E0.5Cvlib.5Capp.5Cgfx_apps.5Csimple_draw_d1l2.5Ctarget.5Cd1lx_mango_ghs.5Cobj.5Cwfm.120::
                        2273 .LDWlin120:
                        2274 	jarl	_NWD_GetBusOffFlt,lp
                        2274 <EXPANSION BEGIN>
                        2274 jarl22 _NWD_GetBusOffFlt , lp 
0000083a 80ff0000*      2274 <EXPANSION END>
0000083e 0ad0           2275 	mov	r10,r26
                        2276 --661: 	 switch(checksts)
                        2277 --line661
                        2278 ..lin.D.3A.5CRenesas_Electronics.5CD1x_RGL.5Crgl_ghs_D1Lx_obj_V1.2E2.2E0.5Cvlib.5Capp.5Cgfx_apps.5Csimple_draw_d1l2.5Ctarget.5Cd1lx_mango_ghs.5Cobj.5Cwfm.121::
                        2279 .LDWlin121:
00000840 a30f0300       2280 	ld.bu	3[sp],r1
00000844 620a           2281 	cmp	2,r1
00000846 bb1d*          2282 	bh	.L1438
00000848 c905*          2283 	bnl	.L1441
                        2284 --662:         {
                        2285 --663:            
                        2286 --664:             case STATUS_SLFCHK_ING:	
                        2287 --665:             case STATUS_SLFCHK_NOT_READY: 
                        2288 --666: 				*pNum = 0;
                        2289 --line666
                        2290 ..lin.D.3A.5CRenesas_Electronics.5CD1x_RGL.5Crgl_ghs_D1Lx_obj_V1.2E2.2E0.5Cvlib.5Capp.5Cgfx_apps.5Csimple_draw_d1l2.5Ctarget.5Cd1lx_mango_ghs.5Cobj.5Cwfm.122::
                        2291 .LDWlin122:
0000084a 5b070000       2292 	st.b	zero,0[r27]
0000084e f515*          2293 	br	.L1438
                        2294 .L1441:
                        2295 --667: 				break;
                        2296 --668:             case STATUS_SLFCHK_FINISH:
                        2297 --669:                 
                        2298 --670:                 if(TRUE == busOffFlt)
                        2299 --line670
                        2300 ..lin.D.3A.5CRenesas_Electronics.5CD1x_RGL.5Crgl_ghs_D1Lx_obj_V1.2E2.2E0.5Cvlib.5Capp.5Cgfx_apps.5Csimple_draw_d1l2.5Ctarget.5Cd1lx_mango_ghs.5Cobj.5Cwfm.123::
                        2301 .LDWlin123:
00000850 61d2           2302 	cmp	1,r26
00000852 ca05*          2303 	bne	.L1442
                        2304 --671:                 {
                        2305 --672: 		            *pNum = 0;
                        2306 --line672

                                                                      Page 41
                                                              C:\Users\YINGAO~1\AppData\Local\Temp\gh_00007n81.si
                        2307 ..lin.D.3A.5CRenesas_Electronics.5CD1x_RGL.5Crgl_ghs_D1Lx_obj_V1.2E2.2E0.5Cvlib.5Capp.5Cgfx_apps.5Csimple_draw_d1l2.5Ctarget.5Cd1lx_mango_ghs.5Cobj.5Cwfm.124::
                        2308 .LDWlin124:
00000854 5b070000       2309 	st.b	zero,0[r27]
00000858 9515*          2310 	br	.L1444
                        2311 .L1442:
                        2312 --673:                 }
                        2313 --674: 				else if(TRUE == wfm_coolantInvalidFlt)
                        2314 --line674
                        2315 ..lin.D.3A.5CRenesas_Electronics.5CD1x_RGL.5Crgl_ghs_D1Lx_obj_V1.2E2.2E0.5Cvlib.5Capp.5Cgfx_apps.5Csimple_draw_d1l2.5Ctarget.5Cd1lx_mango_ghs.5Cobj.5Cwfm.125::
                        2316 .LDWlin125:
0000085a bd0f0500       2317 	ld.bu	5[r29],r1
0000085e 610a           2318 	cmp	1,r1
00000860 ea05*          2319 	bne	.L1445
                        2320 --675: 				{
                        2321 --676: 					*pNum = wfm_InvalidFltTmptSeg;
                        2322 --line676
                        2323 ..lin.D.3A.5CRenesas_Electronics.5CD1x_RGL.5Crgl_ghs_D1Lx_obj_V1.2E2.2E0.5Cvlib.5Capp.5Cgfx_apps.5Csimple_draw_d1l2.5Ctarget.5Cd1lx_mango_ghs.5Cobj.5Cwfm.126::
                        2324 .LDWlin126:
00000862 bd0f0300       2325 	ld.bu	3[r29],r1
00000866 5b0f0000       2326 	st.b	r1,0[r27]
0000086a 850d*          2327 	br	.L1444
                        2328 .L1445:
                        2329 --677: 				}
                        2330 --678: 				else
                        2331 --679: 				{
                        2332 --680: 					*pNum = wfm_TmptSeg;
                        2333 --line680
                        2334 ..lin.D.3A.5CRenesas_Electronics.5CD1x_RGL.5Crgl_ghs_D1Lx_obj_V1.2E2.2E0.5Cvlib.5Capp.5Cgfx_apps.5Csimple_draw_d1l2.5Ctarget.5Cd1lx_mango_ghs.5Cobj.5Cwfm.127::
                        2335 .LDWlin127:
0000086c 210600000000*  2336 	mov	_wfm_TmptSeg,r1
00000872 810f0100       2337 	ld.bu	0[r1],r1
00000876 5b0f0000       2338 	st.b	r1,0[r27]
                        2339 .L1444:
0000087a 0000           2340 	nop
                        2341 .L1438:
                        2342 --681: 				}
                        2343 --682:                 break;
                        2344 --683:         } 
                        2345 --684:         res = RET_OK;
0000087c 01e2           2346 	mov	1,r28
                        2347 .L1434:
                        2348 --685:     }
                        2349 --686: 	
                        2350 --687:     return res;
0000087e 1c50           2351 	mov	r28,r10
                        2352 --	    .ef
                        2353 .LDW44:
00000880 4206ff30       2354 	dispose	1,{r26,r27,r28,r29,r31},[lp]
                        2355 	.type	_WFM_GetCoolantSegmentNum,@function
                        2356 	.size	_WFM_GetCoolantSegmentNum,.-_WFM_GetCoolantSegmentNum
                        2357 	.align	2
                        2358 .LDW54:
                        2359 --_res	r28	local
                        2360 --_checksts	3[sp]	local
                        2361 --_busOffFlt	r26	local
                        2362 
                        2363 --_pNum	r27	param
                        2364 
                        2365 	.data
                        2366 	.text
                        2367 

                                                                      Page 42
                                                              C:\Users\YINGAO~1\AppData\Local\Temp\gh_00007n81.si
                        2368 --688: }
                        2369 
                        2370 --690: /**************************************************
                        2371 --691: *Function :WFM_GetFuelSegmentNum
                        2372 --692: *Description: send the info aboat FUEL which seg have been lighted
                        2373 --694: *Parameters:   pNum
                        2374 --695: *Returns:      wfm_fuelSeg
                        2375 --697: **create&Verlog:
                        2376 --698: *Author Name xs  Date:2017-6-22    Ver:2.0
                        2377 --699: ***************************************************/
                        2378 --700: U8 WFM_GetFuelSegmentNum(PU8 pNum)
                        2379 	.align	2
                        2380 	.align	2
                        2381 	.global	_WFM_GetFuelSegmentNum
                        2382 _WFM_GetFuelSegmentNum:
00000884 8207e130       2383 	prepare	{r26,r27,r28,r29,r31},1
00000888 06d8           2384 	mov	r6,r27
0000088a 3d0600000000*  2385 	mov	_wfm_fuelSeg-1,r29
                        2386 --	    .bf
                        2387 .LDW64:
                        2388 --701: {
                        2389 --702: 	U8 res = RET_FAIL;
00000890 00e2           2390 	mov	0,r28
                        2391 --703: 	U8 checksts = 0;
00000892 43070300       2392 	st.b	zero,3[sp]
                        2393 --704:     BOOL busOffFlt = FALSE;
00000896 00d2           2394 	mov	0,r26
                        2395 --705: 	
                        2396 --706: 	if (FALSE == wfm_InitSts)
00000898 bd0f0900       2397 	ld.bu	9[r29],r1
0000089c e009           2398 	cmp	zero,r1
0000089e ba05*          2399 	bne	.L1570
                        2400 --707: 	{
                        2401 --708:         res = RET_FAIL;
                        2402 --line708
                        2403 ..lin.D.3A.5CRenesas_Electronics.5CD1x_RGL.5Crgl_ghs_D1Lx_obj_V1.2E2.2E0.5Cvlib.5Capp.5Cgfx_apps.5Csimple_draw_d1l2.5Ctarget.5Cd1lx_mango_ghs.5Cobj.5Cwfm.128::
                        2404 .LDWlin128:
000008a0 00e2           2405 	mov	0,r28
000008a2 b525*          2406 	br	.L1572
                        2407 .L1570:
                        2408 --709:     }
                        2409 --710:     else if (NULL_PTR == pNum)
                        2410 --line710
                        2411 ..lin.D.3A.5CRenesas_Electronics.5CD1x_RGL.5Crgl_ghs_D1Lx_obj_V1.2E2.2E0.5Cvlib.5Capp.5Cgfx_apps.5Csimple_draw_d1l2.5Ctarget.5Cd1lx_mango_ghs.5Cobj.5Cwfm.129::
                        2412 .LDWlin129:
000008a4 e0d9           2413 	cmp	zero,r27
000008a6 ba05*          2414 	bne	.L1573
                        2415 --711:     {
                        2416 --712:         res = RET_INVALID;
                        2417 --line712
                        2418 ..lin.D.3A.5CRenesas_Electronics.5CD1x_RGL.5Crgl_ghs_D1Lx_obj_V1.2E2.2E0.5Cvlib.5Capp.5Cgfx_apps.5Csimple_draw_d1l2.5Ctarget.5Cd1lx_mango_ghs.5Cobj.5Cwfm.130::
                        2419 .LDWlin130:
000008a8 02e2           2420 	mov	2,r28
000008aa f51d*          2421 	br	.L1572
                        2422 .L1573:
                        2423 --713:     }
                        2424 --714:     else
                        2425 --715:     {
                        2426 --716: 	 res = PWR_GetChkStatus(&checksts);
                        2427 --line716
                        2428 ..lin.D.3A.5CRenesas_Electronics.5CD1x_RGL.5Crgl_ghs_D1Lx_obj_V1.2E2.2E0.5Cvlib.5Capp.5Cgfx_apps.5Csimple_draw_d1l2.5Ctarget.5Cd1lx_mango_ghs.5Cobj.5Cwfm.131::

                                                                      Page 43
                                                              C:\Users\YINGAO~1\AppData\Local\Temp\gh_00007n81.si
                        2429 .LDWlin131:
000008ac 23360300       2430 	movea	3,sp,r6
                        2431 	jarl	_PWR_GetChkStatus,lp
                        2431 <EXPANSION BEGIN>
                        2431 jarl22 _PWR_GetChkStatus , lp 
000008b0 80ff0000*      2431 <EXPANSION END>
000008b4 0ae0           2432 	mov	r10,r28
                        2433 --717:      busOffFlt = NWD_GetBusOffFlt();
                        2434 --line717
                        2435 ..lin.D.3A.5CRenesas_Electronics.5CD1x_RGL.5Crgl_ghs_D1Lx_obj_V1.2E2.2E0.5Cvlib.5Capp.5Cgfx_apps.5Csimple_draw_d1l2.5Ctarget.5Cd1lx_mango_ghs.5Cobj.5Cwfm.132::
                        2436 .LDWlin132:
                        2437 	jarl	_NWD_GetBusOffFlt,lp
                        2437 <EXPANSION BEGIN>
                        2437 jarl22 _NWD_GetBusOffFlt , lp 
000008b6 80ff0000*      2437 <EXPANSION END>
000008ba 0ad0           2438 	mov	r10,r26
                        2439 --718: 	 switch(checksts)
                        2440 --line718
                        2441 ..lin.D.3A.5CRenesas_Electronics.5CD1x_RGL.5Crgl_ghs_D1Lx_obj_V1.2E2.2E0.5Cvlib.5Capp.5Cgfx_apps.5Csimple_draw_d1l2.5Ctarget.5Cd1lx_mango_ghs.5Cobj.5Cwfm.133::
                        2442 .LDWlin133:
000008bc a30f0300       2443 	ld.bu	3[sp],r1
000008c0 620a           2444 	cmp	2,r1
000008c2 ab15*          2445 	bh	.L1576
000008c4 c905*          2446 	bnl	.L1579
                        2447 --719:         {
                        2448 --720:            
                        2449 --721:             case STATUS_SLFCHK_ING:	
                        2450 --722:             case STATUS_SLFCHK_NOT_READY: 
                        2451 --723: 				*pNum = 0;
                        2452 --line723
                        2453 ..lin.D.3A.5CRenesas_Electronics.5CD1x_RGL.5Crgl_ghs_D1Lx_obj_V1.2E2.2E0.5Cvlib.5Capp.5Cgfx_apps.5Csimple_draw_d1l2.5Ctarget.5Cd1lx_mango_ghs.5Cobj.5Cwfm.134::
                        2454 .LDWlin134:
000008c6 5b070000       2455 	st.b	zero,0[r27]
000008ca e50d*          2456 	br	.L1576
                        2457 .L1579:
                        2458 --724: 				break;
                        2459 --725:             case STATUS_SLFCHK_FINISH:
                        2460 --726:                 if(FALSE == busOffFlt)
                        2461 --line726
                        2462 ..lin.D.3A.5CRenesas_Electronics.5CD1x_RGL.5Crgl_ghs_D1Lx_obj_V1.2E2.2E0.5Cvlib.5Capp.5Cgfx_apps.5Csimple_draw_d1l2.5Ctarget.5Cd1lx_mango_ghs.5Cobj.5Cwfm.135::
                        2463 .LDWlin135:
000008cc e0d1           2464 	cmp	zero,r26
000008ce 9a0d*          2465 	bne	.L1580
                        2466 --727:                 {
                        2467 --728:                     *pNum = wfm_fuelSeg;
                        2468 --line728
                        2469 ..lin.D.3A.5CRenesas_Electronics.5CD1x_RGL.5Crgl_ghs_D1Lx_obj_V1.2E2.2E0.5Cvlib.5Capp.5Cgfx_apps.5Csimple_draw_d1l2.5Ctarget.5Cd1lx_mango_ghs.5Cobj.5Cwfm.136::
                        2470 .LDWlin136:
000008d0 210600000000*  2471 	mov	_wfm_fuelSeg,r1
000008d6 810f0100       2472 	ld.bu	0[r1],r1
000008da 5b0f0000       2473 	st.b	r1,0[r27]
000008de b505*          2474 	br	.L1582
                        2475 .L1580:
                        2476 --729:                 }
                        2477 --730:                 else
                        2478 --731:                 {
                        2479 --732:                     *pNum = 0;
                        2480 --line732
                        2481 ..lin.D.3A.5CRenesas_Electronics.5CD1x_RGL.5Crgl_ghs_D1Lx_obj_V1.2E2.2E0.5Cvlib.5Capp.5Cgfx_apps.5Csimple_draw_d1l2.5Ctarget.5Cd1lx_mango_ghs.5Cobj.5Cwfm.137::
                        2482 .LDWlin137:
000008e0 5b070000       2483 	st.b	zero,0[r27]

                                                                      Page 44
                                                              C:\Users\YINGAO~1\AppData\Local\Temp\gh_00007n81.si
                        2484 .L1582:
000008e4 0000           2485 	nop
                        2486 .L1576:
                        2487 --733:                 }                    
                        2488 --734:                 break;
                        2489 --735:         } 
                        2490 --736:         res = RET_OK;
000008e6 01e2           2491 	mov	1,r28
                        2492 .L1572:
                        2493 --737:     }
                        2494 --738: 	
                        2495 --739:     return res;
000008e8 1c50           2496 	mov	r28,r10
                        2497 --	    .ef
                        2498 .LDW74:
000008ea 4206ff30       2499 	dispose	1,{r26,r27,r28,r29,r31},[lp]
                        2500 	.type	_WFM_GetFuelSegmentNum,@function
                        2501 	.size	_WFM_GetFuelSegmentNum,.-_WFM_GetFuelSegmentNum
                        2502 	.align	2
                        2503 .LDW84:
                        2504 --_res	r28	local
                        2505 --_checksts	3[sp]	local
                        2506 --_busOffFlt	r26	local
                        2507 
                        2508 --_pNum	r27	param
                        2509 
                        2510 	.data
                        2511 	.text
                        2512 
                        2513 --740: }
                        2514 
                        2515 --742: /**************************************************
                        2516 --743: *Function :WFM_GetFuelSegmentNum
                        2517 --744: *Description: send the info aboat FUEL which seg have been lighted
                        2518 --746: *Parameters:   pNum
                        2519 --747: *Returns:      wfm_fuelSeg
                        2520 --749: **create&Verlog:
                        2521 --750: *Author Name xs  Date:2017-6-22    Ver:2.0
                        2522 --751: ***************************************************/
                        2523 --752: U8 WFM_GetCoolantTemp(PU8 pValue)
                        2524 	.align	2
                        2525 	.align	2
                        2526 	.global	_WFM_GetCoolantTemp
                        2527 _WFM_GetCoolantTemp:
000008ee 06f0           2528 	mov	r6,ep
000008f0 210600000000*  2529 	mov	_wfm_NetEnClntTem,r1
                        2530 --	    .bf
                        2531 .LDW94:
                        2532 --753: {
                        2533 --754: 	U8 res = RET_FAIL;
000008f6 0072           2534 	mov	0,r14
                        2535 --755: 	
                        2536 --756: 	if (FALSE == wfm_InitSts)
000008f8 a16f0d00       2537 	ld.bu	13[r1],r13
000008fc e069           2538 	cmp	zero,r13
000008fe ba05*          2539 	bne	.L1693
                        2540 --757: 	{
                        2541 --758:         res = RET_FAIL;
                        2542 --line758
                        2543 ..lin.D.3A.5CRenesas_Electronics.5CD1x_RGL.5Crgl_ghs_D1Lx_obj_V1.2E2.2E0.5Cvlib.5Capp.5Cgfx_apps.5Csimple_draw_d1l2.5Ctarget.5Cd1lx_mango_ghs.5Cobj.5Cwfm.138::
                        2544 .LDWlin138:

                                                                      Page 45
                                                              C:\Users\YINGAO~1\AppData\Local\Temp\gh_00007n81.si
00000900 0072           2545 	mov	0,r14
00000902 c50d*          2546 	br	.L1695
                        2547 .L1693:
                        2548 --759:     }
                        2549 --760:     else if (NULL_PTR == pValue)
                        2550 --line760
                        2551 ..lin.D.3A.5CRenesas_Electronics.5CD1x_RGL.5Crgl_ghs_D1Lx_obj_V1.2E2.2E0.5Cvlib.5Capp.5Cgfx_apps.5Csimple_draw_d1l2.5Ctarget.5Cd1lx_mango_ghs.5Cobj.5Cwfm.139::
                        2552 .LDWlin139:
00000904 e0f1           2553 	cmp	zero,ep
00000906 ba05*          2554 	bne	.L1696
                        2555 --761:     {
                        2556 --762:         res = RET_INVALID;
                        2557 --line762
                        2558 ..lin.D.3A.5CRenesas_Electronics.5CD1x_RGL.5Crgl_ghs_D1Lx_obj_V1.2E2.2E0.5Cvlib.5Capp.5Cgfx_apps.5Csimple_draw_d1l2.5Ctarget.5Cd1lx_mango_ghs.5Cobj.5Cwfm.140::
                        2559 .LDWlin140:
00000908 0272           2560 	mov	2,r14
0000090a 850d*          2561 	br	.L1695
                        2562 .L1696:
                        2563 --763:     }
                        2564 --764:     else
                        2565 --765:     {
                        2566 --766:        
                        2567 --767:        *pValue = wfm_NetEnClntTem;        
                        2568 --line767
                        2569 ..lin.D.3A.5CRenesas_Electronics.5CD1x_RGL.5Crgl_ghs_D1Lx_obj_V1.2E2.2E0.5Cvlib.5Capp.5Cgfx_apps.5Csimple_draw_d1l2.5Ctarget.5Cd1lx_mango_ghs.5Cobj.5Cwfm.141::
                        2570 .LDWlin141:
0000090c 210600000000*  2571 	mov	_wfm_NetEnClntTem,r1
00000912 210f0000       2572 	ld.h	0[r1],r1
00000916 800b           2573 	sst.b	r1,0[ep]
                        2574 --768:        res = RET_OK;
00000918 0172           2575 	mov	1,r14
                        2576 .L1695:
                        2577 --769:     }
                        2578 --770: 	
                        2579 --771:     return res;
0000091a 0e50           2580 	mov	r14,r10
                        2581 --	    .ef
                        2582 .LDW05:
0000091c 7f00           2583 	jmp	[lp]
                        2584 	.type	_WFM_GetCoolantTemp,@function
                        2585 	.size	_WFM_GetCoolantTemp,.-_WFM_GetCoolantTemp
                        2586 	.align	2
                        2587 .LDW15:
                        2588 --_res	r14	local
                        2589 
                        2590 --_pValue	ep	param
                        2591 
                        2592 	.data
                        2593 	.text
                        2594 
                        2595 --772: }
                        2596 
                        2597 --774: /**************************************************
                        2598 --775: *Function :WFM_GetCoolantSensorFltSts
                        2599 --776: *Description: send the info aboat FUEL which seg have been lighted
                        2600 --778: *Parameters:   psts
                        2601 --779: *Returns:      ret
                        2602 --781: **create&Verlog:
                        2603 --782: *Author Name liuyingying  Date:2017-09-13    Ver:2.0
                        2604 --783: ***************************************************/
                        2605 --784: U8 WFM_GetCoolantSensorFltSts(PU8 SrFlt,PU8 pnodeMiss)

                                                                      Page 46
                                                              C:\Users\YINGAO~1\AppData\Local\Temp\gh_00007n81.si
                        2606 	.align	2
                        2607 	.align	2
                        2608 	.global	_WFM_GetCoolantSensorFltSts
                        2609 _WFM_GetCoolantSensorFltSts:
0000091e 06f0           2610 	mov	r6,ep
00000920 0768           2611 	mov	r7,r13
00000922 210600000000*  2612 	mov	_wfm_ecmNodeMiss,r1
                        2613 --	    .bf
                        2614 .LDW25:
                        2615 --785: {
                        2616 --787:     U8 res = RET_FAIL;
00000928 0072           2617 	mov	0,r14
                        2618 --788: 	
                        2619 --789: 	if (FALSE == wfm_InitSts)
0000092a a1670500       2620 	ld.bu	5[r1],r12
0000092e e061           2621 	cmp	zero,r12
00000930 ba05*          2622 	bne	.L1768
                        2623 --790: 	{
                        2624 --791:         res = RET_FAIL;
                        2625 --line791
                        2626 ..lin.D.3A.5CRenesas_Electronics.5CD1x_RGL.5Crgl_ghs_D1Lx_obj_V1.2E2.2E0.5Cvlib.5Capp.5Cgfx_apps.5Csimple_draw_d1l2.5Ctarget.5Cd1lx_mango_ghs.5Cobj.5Cwfm.142::
                        2627 .LDWlin142:
00000932 0072           2628 	mov	0,r14
00000934 a515*          2629 	br	.L1770
                        2630 .L1768:
                        2631 --792:     }
                        2632 --793:     else if ((NULL_PTR == SrFlt)||(NULL_PTR == pnodeMiss))
                        2633 --line793
                        2634 ..lin.D.3A.5CRenesas_Electronics.5CD1x_RGL.5Crgl_ghs_D1Lx_obj_V1.2E2.2E0.5Cvlib.5Capp.5Cgfx_apps.5Csimple_draw_d1l2.5Ctarget.5Cd1lx_mango_ghs.5Cobj.5Cwfm.143::
                        2635 .LDWlin143:
00000936 e0f1           2636 	cmp	zero,ep
00000938 b205*          2637 	be	.L1772
0000093a e069           2638 	cmp	zero,r13
0000093c ba05*          2639 	bne	.L1771
                        2640 .L1772:
                        2641 --794:     {
                        2642 --795:         res = RET_INVALID;
                        2643 --line795
                        2644 ..lin.D.3A.5CRenesas_Electronics.5CD1x_RGL.5Crgl_ghs_D1Lx_obj_V1.2E2.2E0.5Cvlib.5Capp.5Cgfx_apps.5Csimple_draw_d1l2.5Ctarget.5Cd1lx_mango_ghs.5Cobj.5Cwfm.144::
                        2645 .LDWlin144:
0000093e 0272           2646 	mov	2,r14
00000940 c50d*          2647 	br	.L1770
                        2648 .L1771:
                        2649 --796:     }
                        2650 --797:     else
                        2651 --798:     {
                        2652 --799:        *SrFlt = wfm_coolantInvalidFlt;  
                        2653 --line799
                        2654 ..lin.D.3A.5CRenesas_Electronics.5CD1x_RGL.5Crgl_ghs_D1Lx_obj_V1.2E2.2E0.5Cvlib.5Capp.5Cgfx_apps.5Csimple_draw_d1l2.5Ctarget.5Cd1lx_mango_ghs.5Cobj.5Cwfm.145::
                        2655 .LDWlin145:
00000942 a1670100       2656 	ld.bu	1[r1],r12
00000946 8063           2657 	sst.b	r12,0[ep]
                        2658 --800:        *pnodeMiss = wfm_ecmNodeMiss;
00000948 210600000000*  2659 	mov	_wfm_ecmNodeMiss,r1
0000094e 810f0100       2660 	ld.bu	0[r1],r1
00000952 4d0f0000       2661 	st.b	r1,0[r13]
                        2662 --801:         res = RET_OK;
00000956 0172           2663 	mov	1,r14
                        2664 .L1770:
                        2665 --802:     }	
                        2666 --803:     return res;

                                                                      Page 47
                                                              C:\Users\YINGAO~1\AppData\Local\Temp\gh_00007n81.si
00000958 0e50           2667 	mov	r14,r10
                        2668 --	    .ef
                        2669 .LDW35:
0000095a 7f00           2670 	jmp	[lp]
                        2671 	.type	_WFM_GetCoolantSensorFltSts,@function
                        2672 	.size	_WFM_GetCoolantSensorFltSts,.-_WFM_GetCoolantSensorFltSts
                        2673 	.align	2
                        2674 .LDW45:
                        2675 --_res	r14	local
                        2676 
                        2677 --_SrFlt	ep	param
                        2678 --_pnodeMiss	r13	param
                        2679 
                        2680 	.data
                        2681 	.text
                        2682 
                        2683 --804: }
                        2684 
                        2685 --806: /**************************************************
                        2686 --807: *Function :WFM_GetFuelSensorCycle
                        2687 --808: *Description: Get Fuel Sensor Cycle
                        2688 --810: *Parameters:   none
                        2689 --811: *Returns:      cycle Value
                        2690 --813: **create&Verlog:
                        2691 --814: *Author Name liuyingying  Date:2017-09-13    Ver:2.0
                        2692 --815: ***************************************************/
                        2693 --816: U8 WFM_GetFuelSensorCycle(void)
                        2694 	.align	2
                        2695 	.align	2
                        2696 	.global	_WFM_GetFuelSensorCycle
                        2697 _WFM_GetFuelSensorCycle:
0000095c 210600000000*  2698 	mov	_wfm_Cycle,r1
                        2699 --	    .bf
                        2700 .LDW55:
                        2701 --817: {
                        2702 --818:     return wfm_Cycle;
00000962 810f0100       2703 	ld.bu	0[r1],r1
00000966 0150           2704 	mov	r1,r10
                        2705 --	    .ef
                        2706 .LDW65:
00000968 7f00           2707 	jmp	[lp]
                        2708 	.type	_WFM_GetFuelSensorCycle,@function
                        2709 	.size	_WFM_GetFuelSensorCycle,.-_WFM_GetFuelSensorCycle
                        2710 	.align	2
                        2711 .LDW75:
                        2712 
                        2713 	.data
                        2714 	.text
                        2715 
                        2716 --819: }
                        2717 	.align	2
                        2718 --_wfm_WTFault	_wfm_WTFault	static
                        2719 --_wfm_fuelSeg	_wfm_fuelSeg	static
                        2720 --_wfm_TmptSeg	_wfm_TmptSeg	static
                        2721 --_wfm_InvalidFltTmptSeg	_wfm_InvalidFltTmptSeg	static
                        2722 --_wfm_ecmNodeMiss	_wfm_ecmNodeMiss	static
                        2723 --_wfm_coolantInvalidFlt	_wfm_coolantInvalidFlt	static
                        2724 --_wfm_DisplayFuel	_wfm_DisplayFuel	static
                        2725 --_wfm_NetEnClntTem	_wfm_NetEnClntTem	static
                        2726 --_wfm_NetEnClntTemV	_wfm_NetEnClntTemV	static
                        2727 --_wfm_FuelFault	_wfm_FuelFault	static

                                                                      Page 48
                                                              C:\Users\YINGAO~1\AppData\Local\Temp\gh_00007n81.si
                        2728 --_wfm_NetClstrDspdFuelLvlSgmt	_wfm_NetClstrDspdFuelLvlSgmt	static
                        2729 --_wfm_NetFuelTotCapct	_wfm_NetFuelTotCapct	static
                        2730 --_wfm_InitSts	_wfm_InitSts	static
                        2731 --_wfm_WrnngProssPRO	_wfm_WrnngProssPRO	static
                        2732 --_wfm_fuelsnsflt	_wfm_fuelsnsflt	static
                        2733 --_wfm_Cycle	_wfm_Cycle	static
                        2734 --_insFuelSeg1ThresPrm	_insFuelSeg1ThresPrm	static
                        2735 --_insFuelSeg2ThresPrm	_insFuelSeg2ThresPrm	static
                        2736 --_insFuelSeg3ThresPrm	_insFuelSeg3ThresPrm	static
                        2737 --_insFuelSeg4ThresPrm	_insFuelSeg4ThresPrm	static
                        2738 --_insFuelSeg5ThresPrm	_insFuelSeg5ThresPrm	static
                        2739 --_insFuelSeg6ThresPrm	_insFuelSeg6ThresPrm	static
                        2740 --_insFuelSeg7ThresPrm	_insFuelSeg7ThresPrm	static
                        2741 --_insFuelSeg8ThresPrm	_insFuelSeg8ThresPrm	static
                        2742 --_insTempSeg2ThresPrm	_insTempSeg2ThresPrm	static
                        2743 --_insTempSeg3ThresPrm	_insTempSeg3ThresPrm	static
                        2744 --_insTempSeg4ThresPrm	_insTempSeg4ThresPrm	static
                        2745 --_insTempSeg5ThresPrm	_insTempSeg5ThresPrm	static
                        2746 --_insTempSeg6ThresPrm	_insTempSeg6ThresPrm	static
                        2747 --_insTempSeg7ThresPrm	_insTempSeg7ThresPrm	static
                        2748 --_insTempSeg8ThresPrm	_insTempSeg8ThresPrm	static
                        2749 --_insTempDisplayHysPrm	_insTempDisplayHysPrm	static
                        2750 
                        2751 	.data
                        2752 	.ghsnote version,14
                        2753 	.ghsnote tools,3
                        2754 	.ghsnote options,144
                        2755 	.text
                        2756 	.align	2
                        2757 ..eof.D.3A.5CRenesas_Electronics.5CD1x_RGL.5Crgl_ghs_D1Lx_obj_V1.2E2.2E0.5Cvlib.5Capp.5Cgfx_apps.5Csimple_draw_d1l2.5Ctarget.5Cd1lx_mango_ghs.5Cobj.5Cwfm...44.3A.5CRenesas_Electronics.5CD1x_RGL.5Crgl_ghs_D1Lx_obj_V1.2E2.2E0.5Cvlib.5Capp.5Cgfx_apps.5Csimple_draw_d1l2.5Ctarget.5Cd1lx_mango_ghs..5A740378..0::
                        2758 .rh850_flags DOUBLE,REGMODE22,DATA_ALIGN8,GP_FIX,EP_NONFIX,TP_FIX,REG2_RESERVE,DOUBLE64,G3M
