                                                                      Page 1
                                                              C:\Users\YINGAO~1\AppData\Local\Temp\gh_00007ak1.si
Command Line: C:\ghs\comp_201355\ease850.exe -w -elf -b0 -ID:\Renesas_Electronics\D1x_RGL\rgl_ghs_D1Lx_obj_V1.2.0\vlib\macro\flashc\sfma\lib -I../../../../../Device -I../../../../../Driver/ADCE -I../../../../../Driver/CLOCK -I../../../../../Driver/DIO -I../../../../../Driver/DSPI -I../../../../../Driver/Interrupt -I../../../../../Driver/ISM -I../../../../../Driver/OSTM -I../../../../../Driver/PWM -I../../../../../Driver/RSTC -I../../../../../Driver/RTCA -I../../../../../Driver/STBC -I../../../../../Driver/TAUB -I../../../../../Driver/WDT -I../../../../../middleware\ADM -I../../../../../middleware\BPM -I../../../../../middleware\EED -I../../../../../middleware\IOM -I../../../../../middleware\LRM -I../../../../../middleware\MOM -I../../../../../middleware\PWMM -I../../../../../Common -I../../../../../Applayer\DSM -I../../../../../Applayer\FM -I../../../../../Applayer\TPM -I../../../../../Applayer\ACC -I../../../../../Applayer\ASS -I../../../../../Applayer\BAT -I../../../../../Applayer\COM -I../../../../../Applayer\COM\vtp -I../../../../../Applayer\COM\vtp\lib -I../../../../../Applayer\CRUS -I../../../../../Applayer\DIAG -I../../../../../Applayer\FC -I../../../../../Applayer\FL -I../../../../../Applayer\HSD -I../../../../../Applayer\IDLE -I../../../../../Applayer\ILLU -I../../../../../Applayer\LED -I../../../../../Applayer\MSG -I../../../../../Applayer\NVM -I../../../../../Applayer\ODO -I../../../../../Applayer\PWR -I../../../../../Applayer\RANG -I../../../../../Applayer\RST -I../../../../../Applayer\RTC -I../../../../../Applayer\SCS -I../../../../../Applayer\SSB -I../../../../../Applayer\ST -I../../../../../Applayer\STSMG -I../../../../../Applayer\SYS -I../../../../../Applayer\TIP -I../../../../../Applayer\TRIP -I../../../../../Applayer\CHM -I../../../../../Applayer\DM -I../../../../../Applayer\EVT -I../../../../../Applayer\FTR -I../../../../../Applayer\SLF -I../../../../../Applayer\NWD -I../../../../../Applayer\TPMS -I../../../../../Applayer\WFM -I../../../../../Applayer\NZM -I../../../../../app/gfx_apps/simple_draw_d1l2/src -I../../../../../bsp/board//config -I../../../../../bsp/board//src/gfx -I../../../../../bsp/board//src/hmi -I../../../../../bsp/board//src/stdio -I../../../../../bsp/board/d1lx_mango/config -I../../../../../bsp/board/d1lx_mango/src -I../../../../../bsp/board/d1lx_mango/src/gfx -I../../../../../bsp/board/d1lx_mango/src/hmi -I../../../../../bsp/board/d1lx_mango/src/stdio -I../../../../../bsp/gfx/lib -I../../../../../bsp/gfx/src -I../../../../../bsp/hmi/lib -I../../../../../bsp/hmi/src -I../../../../../bsp/lib -I../../../../../bsp/stdio/lib -I../../../../../bsp/stdio/src -I../../../../../cdi/lib -I../../../../../cdi/src -I../../../../../compiler/rh850_ghs/inc -I../../../../../device/d1lx/lib -I../../../../../device/d1lx/macro_cfg -I../../../../../device/d1lx/src/dev -I../../../../../device/d1lx/src/rh850_ghs -I../../../../../device/d1x_common/macro_cfg -I../../../../../device/d1x_common/src/csisw -I../../../../../device/d1x_common/src/ddb -I../../../../../device/d1x_common/src/dev -I../../../../../device/d1x_common/src/gfxbus -I../../../../../device/d1x_common/src/gpio -I../../../../../device/d1x_common/src/ostm -I../../../../../device/d1x_common/src/pbg -I../../../../../device/d1x_common/src/riic -I../../../../../device/d1x_common/src/sfma -I../../../../../device/d1x_common/src/spea -I../../../../../device/d1x_common/src/tauj -I../../../../../device/d1x_common/src/tick -I../../../../../device/d1x_common/src/vdce -I../../../../../device/d1x_common/src/wm -I../../../../../device/d1x_common/src/xbus -I../../../../../device/lib -I../../../../../macro/bus/pbg/lib -I../../../../../macro/bus/pbg/src -I../../../../../macro/csi/csisw/lib -I../../../../../macro/csi/csisw/src -I../../../../../macro/drw2d/lib -I../../../../../macro/drw2d/platform/cpu -I../../../../../macro/drw2d/platform/os/no_os -I../../../../../macro/drw2d/src -I../../../../../macro/flashc/sfcdb/lib -I../../../../../macro/flashc/sfcdb/src -I../../../../../macro/flashc/sfma/lib -I../../../../../macro/flashc/sfma/src -I../../../../../macro/gfxbus/lib -I../../../../../macro/gfxbus/src -I../../../../../macro/gfxbus/xbus/lib -I../../../../../macro/gfxbus/xbus/src -I../../../../../macro/gpio/lib -I../../../../../macro/gpio/src -I../../../../../macro/i2c/riic/lib -I../../../../../macro/i2c/riic/src -I../../../../../macro/tick/lib -I../../../../../macro/tick/src -I../../../../../macro/timer/ostm/lib -I../../../../../macro/timer/ostm/src -I../../../../../macro/timer/tauj/lib -I../../../../../macro/timer/tauj/src -I../../../../../macro/vdce/lib -I../../../../../macro/vdce/src -I../../../../../macro/vo/ddb/lib -I../../../../../macro/vo/ddb/src -I../../../../../macro/vo/spea/lib -I../../../../../macro/vo/spea/src -I../../../../../macro/wm/lib -I../../../../../macro/wm/src -I../../../../../app/gfx_apps/simple_draw_d1l2/src/QD_HMI -I../../../../../app/gfx_apps/simple_draw_d1l2/src/QD_HMI/HMI_Data -IC:\ghs\comp_201355\lib\rh850_22 -cg_underscore -cpu=rh850g3m -no_v850_simd -nomacro -patch_dbo=D:\Renesas_Electronics\D1x_RGL\rgl_ghs_D1Lx_obj_V1.2.0\vlib\app\gfx_apps\simple_draw_d1l2\target\d1lx_mango_ghs\obj\yd_sfma_flash.dbo -source=yd_sfma_flash.c -o .\obj\gh_00007ak1.o -list=.\obj\yd_sfma_flash.lst C:\Users\YINGAO~1\AppData\Local\Temp\gh_00007ak1.si 
Original File: C:\Users\YINGAO~1\AppData\Local\Temp\gh_00007ak1.si
Source File: yd_sfma_flash.c
Directory: D:\Renesas_Electronics\D1x_RGL\rgl_ghs_D1Lx_obj_V1.2.0\vlib\app\gfx_apps\simple_draw_d1l2\target\d1lx_mango_ghs
Host OS: Windows 7 Service Pack 1
EASE: Copyright (C) 1983-2013 Green Hills Software.  All Rights Reversed.
Release: Compiler v2013.5.5
Build Directory: [Directory] BTOWINBOX:c:/build_2013_5_bto/2013-10-04.1311-2013_5_bto/win32-comp-ecom
Revision: [VCInfo] http://toolsvc/branches/release-branch-2013-5-bto/src@496240 (built by build)
Revision Date: Sat Oct 05 04:54:43 2013

Release Date: Sat Oct 05 05:20:49 2013

                           1 --Driver Command: ccv850 -c -MD
                           2 --		-ID:\Renesas_Electronics\D1x_RGL\rgl_ghs_D1Lx_obj_V1.2.0\vlib\macro\flashc\sfma\lib
                           3 --		-I../../../../../Device -I../../../../../Driver/ADCE
                           4 --		-I../../../../../Driver/CLOCK -I../../../../../Driver/DIO
                           5 --		-I../../../../../Driver/DSPI -I../../../../../Driver/Interrupt
                           6 --		-I../../../../../Driver/ISM -I../../../../../Driver/OSTM
                           7 --		-I../../../../../Driver/PWM -I../../../../../Driver/RSTC
                           8 --		-I../../../../../Driver/RTCA -I../../../../../Driver/STBC
                           9 --		-I../../../../../Driver/TAUB -I../../../../../Driver/WDT
                          10 --		-I../../../../../middleware\ADM -I../../../../../middleware\BPM
                          11 --		-I../../../../../middleware\EED -I../../../../../middleware\IOM
                          12 --		-I../../../../../middleware\LRM -I../../../../../middleware\MOM
                          13 --		-I../../../../../middleware\PWMM -I../../../../../Common
                          14 --		-I../../../../../Applayer\DSM -I../../../../../Applayer\FM
                          15 --		-I../../../../../Applayer\TPM -I../../../../../Applayer\ACC
                          16 --		-I../../../../../Applayer\ASS -I../../../../../Applayer\BAT
                          17 --		-I../../../../../Applayer\COM -I../../../../../Applayer\COM\vtp
                          18 --		-I../../../../../Applayer\COM\vtp\lib
                          19 --		-I../../../../../Applayer\CRUS -I../../../../../Applayer\DIAG
                          20 --		-I../../../../../Applayer\FC -I../../../../../Applayer\FL
                          21 --		-I../../../../../Applayer\HSD -I../../../../../Applayer\IDLE
                          22 --		-I../../../../../Applayer\ILLU -I../../../../../Applayer\LED
                          23 --		-I../../../../../Applayer\MSG -I../../../../../Applayer\NVM
                          24 --		-I../../../../../Applayer\ODO -I../../../../../Applayer\PWR
                          25 --		-I../../../../../Applayer\RANG -I../../../../../Applayer\RST
                          26 --		-I../../../../../Applayer\RTC -I../../../../../Applayer\SCS
                          27 --		-I../../../../../Applayer\SSB -I../../../../../Applayer\ST
                          28 --		-I../../../../../Applayer\STSMG -I../../../../../Applayer\SYS
                          29 --		-I../../../../../Applayer\TIP -I../../../../../Applayer\TRIP
                          30 --		-I../../../../../Applayer\CHM -I../../../../../Applayer\DM
                          31 --		-I../../../../../Applayer\EVT -I../../../../../Applayer\FTR
                          32 --		-I../../../../../Applayer\SLF -I../../../../../Applayer\NWD
                          33 --		-I../../../../../Applayer\TPMS -I../../../../../Applayer\WFM
                          34 --		-I../../../../../Applayer\NZM
                          35 --		-I../../../../../app/gfx_apps/simple_draw_d1l2/src
                          36 --		-I../../../../../bsp/board//config
                          37 --		-I../../../../../bsp/board//src/gfx
                          38 --		-I../../../../../bsp/board//src/hmi
                          39 --		-I../../../../../bsp/board//src/stdio
                          40 --		-I../../../../../bsp/board/d1lx_mango/config
                          41 --		-I../../../../../bsp/board/d1lx_mango/src
                          42 --		-I../../../../../bsp/board/d1lx_mango/src/gfx
                          43 --		-I../../../../../bsp/board/d1lx_mango/src/hmi
                          44 --		-I../../../../../bsp/board/d1lx_mango/src/stdio
                          45 --		-I../../../../../bsp/gfx/lib -I../../../../../bsp/gfx/src
                          46 --		-I../../../../../bsp/hmi/lib -I../../../../../bsp/hmi/src
                          47 --		-I../../../../../bsp/lib -I../../../../../bsp/stdio/lib
                          48 --		-I../../../../../bsp/stdio/src -I../../../../../cdi/lib
                          49 --		-I../../../../../cdi/src -I../../../../../compiler/rh850_ghs/inc
                          50 --		-I../../../../../device/d1lx/lib

                                                                      Page 2
                                                              C:\Users\YINGAO~1\AppData\Local\Temp\gh_00007ak1.si
                          51 --		-I../../../../../device/d1lx/macro_cfg
                          52 --		-I../../../../../device/d1lx/src/dev
                          53 --		-I../../../../../device/d1lx/src/rh850_ghs
                          54 --		-I../../../../../device/d1x_common/macro_cfg
                          55 --		-I../../../../../device/d1x_common/src/csisw
                          56 --		-I../../../../../device/d1x_common/src/ddb
                          57 --		-I../../../../../device/d1x_common/src/dev
                          58 --		-I../../../../../device/d1x_common/src/gfxbus
                          59 --		-I../../../../../device/d1x_common/src/gpio
                          60 --		-I../../../../../device/d1x_common/src/ostm
                          61 --		-I../../../../../device/d1x_common/src/pbg
                          62 --		-I../../../../../device/d1x_common/src/riic
                          63 --		-I../../../../../device/d1x_common/src/sfma
                          64 --		-I../../../../../device/d1x_common/src/spea
                          65 --		-I../../../../../device/d1x_common/src/tauj
                          66 --		-I../../../../../device/d1x_common/src/tick
                          67 --		-I../../../../../device/d1x_common/src/vdce
                          68 --		-I../../../../../device/d1x_common/src/wm
                          69 --		-I../../../../../device/d1x_common/src/xbus
                          70 --		-I../../../../../device/lib -I../../../../../macro/bus/pbg/lib
                          71 --		-I../../../../../macro/bus/pbg/src
                          72 --		-I../../../../../macro/csi/csisw/lib
                          73 --		-I../../../../../macro/csi/csisw/src
                          74 --		-I../../../../../macro/drw2d/lib
                          75 --		-I../../../../../macro/drw2d/platform/cpu
                          76 --		-I../../../../../macro/drw2d/platform/os/no_os
                          77 --		-I../../../../../macro/drw2d/src
                          78 --		-I../../../../../macro/flashc/sfcdb/lib
                          79 --		-I../../../../../macro/flashc/sfcdb/src
                          80 --		-I../../../../../macro/flashc/sfma/lib
                          81 --		-I../../../../../macro/flashc/sfma/src
                          82 --		-I../../../../../macro/gfxbus/lib
                          83 --		-I../../../../../macro/gfxbus/src
                          84 --		-I../../../../../macro/gfxbus/xbus/lib
                          85 --		-I../../../../../macro/gfxbus/xbus/src
                          86 --		-I../../../../../macro/gpio/lib -I../../../../../macro/gpio/src
                          87 --		-I../../../../../macro/i2c/riic/lib
                          88 --		-I../../../../../macro/i2c/riic/src
                          89 --		-I../../../../../macro/tick/lib -I../../../../../macro/tick/src
                          90 --		-I../../../../../macro/timer/ostm/lib
                          91 --		-I../../../../../macro/timer/ostm/src
                          92 --		-I../../../../../macro/timer/tauj/lib
                          93 --		-I../../../../../macro/timer/tauj/src
                          94 --		-I../../../../../macro/vdce/lib -I../../../../../macro/vdce/src
                          95 --		-I../../../../../macro/vo/ddb/lib
                          96 --		-I../../../../../macro/vo/ddb/src
                          97 --		-I../../../../../macro/vo/spea/lib
                          98 --		-I../../../../../macro/vo/spea/src -I../../../../../macro/wm/lib
                          99 --		-I../../../../../macro/wm/src
                         100 --		-I../../../../../app/gfx_apps/simple_draw_d1l2/src/QD_HMI
                         101 --		-I../../../../../app/gfx_apps/simple_draw_d1l2/src/QD_HMI/HMI_Data
                         102 --		-G --no_commons --no_implicit_include --prototype_errors
                         103 --		-DR_DRW2D_OS_NO_OS -DR_DRW2D_SYS_CPU -DUSED_CPU=RH850G3M
                         104 --		-DUSE_BSP_GFX -DUSE_BSP_HMI -DUSE_BSP_STDIO -DUSE_CDI -DUSE_CSISW
                         105 --		-DUSE_DDB -DUSE_DRW2D -DUSE_GFXBUS -DUSE_GPIO -DUSE_OSTM
                         106 --		-DUSE_PBG -DUSE_RIIC -DUSE_SFCDB -DUSE_SFMA -DUSE_SPEA -DUSE_TAUJ
                         107 --		-DUSE_TICK -DUSE_VDCE -DUSE_WM -DUSE_XBUS -MD -Mn -Mx -Zuse1bit
                         108 --		-allocate_ep -cpu=rh850g3m -entry=_RESET -large_sda -list
                         109 --		-no_callt -notda -passsource -preprocess_assembly_files
                         110 --		-registermode=22 -reserve_r2 --diag_warning 1 -object_dir=./obj
                         111 --		-filetype.c ..\..\..\..\..\macro\flashc\sfma\lib\yd_sfma_flash.c

                                                                      Page 3
                                                              C:\Users\YINGAO~1\AppData\Local\Temp\gh_00007ak1.si
                         112 --		-o .\obj\yd_sfma_flash.o
                         113 --Source File:   ..\..\..\..\..\macro\flashc\sfma\lib\yd_sfma_flash.c
                         114 --Directory:     
                         115 --		D:\Renesas_Electronics\D1x_RGL\rgl_ghs_D1Lx_obj_V1.2.0\vlib\app\gfx_apps\simple_draw_d1l2\target\d1lx_mango_ghs
                         116 --Compile Date:  Fri Feb 02 14:21:45 2018
                         117 --Host OS:       Win32
                         118 --Version:       C-RH850 2013.5.5 DEVELOPMENT VERSION
                         119 --Release:       Compiler v2013.5.5
                         120 --Revision Date: Sat Oct 05 05:01:20 2013
                         121 --Release Date:  Sat Oct 05 05:22:44 2013
                         122 -- ecom  -g -w
                         123 
                         124 --1: /*
                         125 --2: ****************************************************************************
                         126 --3: PROJECT : SFMA driver
                         127 --4: FILE    : $Id: yd_sfma_flash.c 3935 2014-09-23 08:52:32Z golczewskim $
                         128 --5: ============================================================================
                         129 --6: DESCRIPTION
                         130 --7: Driver for the SFMA(Serial Flash Memory Interface) macro
                         131 --8: ============================================================================
                         132 --9:                             C O P Y R I G H T
                         133 --10: ============================================================================
                         134 --11:                            Copyright (c) 2013 - 2014
                         135 --12:                                   by
                         136 --13:                        Renesas Electronics (Europe) GmbH.
                         137 --14:                            Arcadiastrasse 10
                         138 --15:                           D-40472 Duesseldorf
                         139 --16:                                Germany
                         140 --17:                           All rights reserved.
                         141 --18: ============================================================================
                         142 --20: DISCLAIMER
                         143 --22: LICENSEE has read, understood and accepted the terms and conditions defined in
                         144 --23: the license agreement, especially the usage rights. In any case, it is
                         145 --24: LICENSEE's responsibility to make sure that any user of the software complies
                         146 --25: with the terms and conditions of the signed license agreement.
                         147 --27: ****************************************************************************
                         148 --28: */
                         149 --30: /***************************************************************************
                         150 --31:   Title: SFMA Flash Driver
                         151 --33:   SFMA Internal Interface
                         152 --35: */
                         153 --37: /***************************************************************************
                         154 --38:   Section: Includes
                         155 --39: */
                         156 --40: #include "r_typedefs.h"
                         157 --41: #include "yd_sfma_api.h"
                         158 --42: #include "r_sfma_api.h"
                         159 --43: #include "yd_sfma_spibsc.h"
                         160 --44: #include "yd_sfma_flash.h"
                         161 --46: /***************************************************************************
                         162 --47:   Section: Local Defines
                         163 --48: */
                         164 --49: /***************************************************************************
                         165 --50:   Constants: LOC_YD_SFMA_SHIFT_BIT
                         166 --52:   This constant is the bit shift.
                         167 --53: */
                         168 --54: #define LOC_YD_SFMA_SHIFT_BIT  (1uL)
                         169 --56: /***************************************************************************
                         170 --57:   Constants: LOC_YD_SFMA_UNIT
                         171 --59:   This constant is the size to have aligned.
                         172 --61:   LOC_YD_SFMA_UNIT_8BIT  - Specifies that the size to have aligned by 8 bit.

                                                                      Page 4
                                                              C:\Users\YINGAO~1\AppData\Local\Temp\gh_00007ak1.si
                         173 --62:   LOC_YD_SFMA_UNIT_16BIT - Specifies that the size to have aligned by 16 bit.
                         174 --63:   LOC_YD_SFMA_UNIT_32BIT - Specifies that the size to have aligned by 24 bit.
                         175 --64:   LOC_YD_SFMA_UNIT_64BIT - Specifies that the size to have aligned by 32 bit.
                         176 --65: */
                         177 --66: #define LOC_YD_SFMA_UNIT_8BIT  (1)
                         178 --67: #define LOC_YD_SFMA_UNIT_16BIT (2)
                         179 --68: #define LOC_YD_SFMA_UNIT_32BIT (4)
                         180 --69: #define LOC_YD_SFMA_UNIT_64BIT (8)
                         181 --71: /***************************************************************************
                         182 --72:   Constants: LOC_YD_SFMA_DUMMY_WRITE_DATA
                         183 --74:   This constant is the dummy data.
                         184 --75: */
                         185 --76: #define LOC_YD_SFMA_DUMMY_WRITE_DATA  (0xffuL)
                         186 --78: /***************************************************************************
                         187 --79:   Section: Local functions
                         188 --80: */
                         189 --82: /***************************************************************************
                         190 --83:   Function: loc_SFMA_8bitDataWrite
                         191 --85:   Description:
                         192 --86:   This function writes 8 bit data to the serial flash memory.
                         193 --88:   Parameter:
                         194 --89:   Unit     - The parameter specifies the instance number.
                         195 --90:   r_Spibsc - This is a pointer to the yd_sfma_SpibscSpimdReg_t
                         196 --91:              structure to the register setting to transfer data.
                         197 --92:   Buffer   - This is a pointer to the address of buffer.
                         198 --93:   Size     - The parameter specifies the data size (in bytes) to read.
                         199 --95:   Return value:
                         200 --96:   See <yd_sfma_Error_t>.
                         201 --97: */
                         202 --98: static yd_sfma_Error_t YD_SFMA_8bitDataWrite(const uint32_t                Unit,
                         203 --99:                                                    yd_sfma_SpibscSpimdReg_t *SpibscReg,
                         204 --100:                                              const uint8_t                 *Buffer,
                         205 --101:                                                    int32_t                 Size);
                         206 --103: static yd_sfma_Error_t YD_SFMA_8bitDataWrite(const uint32_t                Unit,
                         207 	.text
                         208 ..bof.D.3A.5CRenesas_Electronics.5CD1x_RGL.5Crgl_ghs_D1Lx_obj_V1.2E2.2E0.5Cvlib.5Capp.5Cgfx_apps.5Csimple_draw_d1l2.5Ctarget.5Cd1lx_mango_ghs.5Cobj.5Cyd_sfma_flash...44.3A.5CRenesas_Electronics.5CD1x_RGL.5Crgl_ghs_D1Lx_obj_V1.2E2.2E0.5Cvlib.5Capp.5Cgfx_apps.5Csimple_draw_d1l2.5Ctarget.5Cd1lx_mango_ghs..5A740379..0::
                         209 	.align	2
                         210 	.global	_YD_SFMA_8bitDataWrite..D.3A.5CRenesas_Electronics.5CD1x_RGL.5Crgl_ghs_D1Lx_obj_V1.2E2.2E0.5Cvlib.5Capp.5Cgfx_apps.5Csimple_draw_d1l2.5Ctarget.5Cd1lx_mango_ghs.5Cobj.5Cyd_sfma_flash.
                         211 _YD_SFMA_8bitDataWrite..D.3A.5CRenesas_Electronics.5CD1x_RGL.5Crgl_ghs_D1Lx_obj_V1.2E2.2E0.5Cvlib.5Capp.5Cgfx_apps.5Csimple_draw_d1l2.5Ctarget.5Cd1lx_mango_ghs.5Cobj.5Cyd_sfma_flash.:
                         212 _YD_SFMA_8bitDataWrite:
00000000 8407e170        213 	prepare	{r25,r26,r27,r28,r29,r31},2
00000004 63370500        214 	st.w	r6,4[sp]
00000008 07c8            215 	mov	r7,r25
0000000a 63470100        216 	st.w	r8,0[sp]
0000000e 09e0            217 	mov	r9,r28
                         218 --	    .bf
                         219 .LDW01:
                         220 --104:                                                    yd_sfma_SpibscSpimdReg_t *SpibscReg,
                         221 --105:                                              const uint8_t                 *Buffer,
                         222 --106:                                                    int32_t                 Size)
                         223 --107: {
                         224 --108:     yd_sfma_Error_t ret = YD_SFMA_ERR_OK;
00000010 00ea            225 	mov	0,r29
                         226 --109:     uint32_t       tmp32;
                         227 --110:     uint32_t       buf_point;
                         228 --112:     if ((Buffer == R_NULL) ||
00000012 235f0100        229 	ld.w	0[sp],r11
00000016 e059            230 	cmp	zero,r11
00000018 b205*           231 	be	.L5
0000001a e0c9            232 	cmp	zero,r25
0000001c ba05*           233 	bne	.L4

                                                                      Page 5
                                                              C:\Users\YINGAO~1\AppData\Local\Temp\gh_00007ak1.si
                         234 .L5:
                         235 --113:         (SpibscReg == R_NULL))
                         236 --114:     {
                         237 --115:         ret = YD_SFMA_ERR_PARAM_INCORRECT;
                         238 --line115
                         239 ..lin.D.3A.5CRenesas_Electronics.5CD1x_RGL.5Crgl_ghs_D1Lx_obj_V1.2E2.2E0.5Cvlib.5Capp.5Cgfx_apps.5Csimple_draw_d1l2.5Ctarget.5Cd1lx_mango_ghs.5Cobj.5Cyd_sfma_flash.1::
                         240 .LDWlin1:
0000001e 02ea            241 	mov	2,r29
00000020 c51d*           242 	br	.L7
                         243 .L4:
                         244 --116:     }
                         245 --117:     else
                         246 --118:     {
                         247 --119:         buf_point = 0;
                         248 --line119
                         249 ..lin.D.3A.5CRenesas_Electronics.5CD1x_RGL.5Crgl_ghs_D1Lx_obj_V1.2E2.2E0.5Cvlib.5Capp.5Cgfx_apps.5Csimple_draw_d1l2.5Ctarget.5Cd1lx_mango_ghs.5Cobj.5Cyd_sfma_flash.2::
                         250 .LDWlin2:
00000022 00d2            251 	mov	0,r26
                         252 --120:         while (Size > 0L)
00000024 851d*           253 	br	.L8
                         254 .L10:
                         255 --121:         {
                         256 --122:             tmp32 = *(Buffer + buf_point);
                         257 --line122
                         258 ..lin.D.3A.5CRenesas_Electronics.5CD1x_RGL.5Crgl_ghs_D1Lx_obj_V1.2E2.2E0.5Cvlib.5Capp.5Cgfx_apps.5Csimple_draw_d1l2.5Ctarget.5Cd1lx_mango_ghs.5Cobj.5Cyd_sfma_flash.3::
                         259 .LDWlin3:
00000026 235f0100        260 	ld.w	0[sp],r11
0000002a 1af0            261 	mov	r26,ep
0000002c cbf1            262 	add	r11,ep
0000002e 60d8            263 	sld.bu	0[ep],r27
                         264 --123:             tmp32 = (tmp32 << YD_SFMA_SHIFT_3BYTE);
00000030 d8da            265 	shl	24,r27
                         266 --124:             SpibscReg->Smwdr[YD_SFMA_SMWDR_DATA_0] = tmp32;
00000032 79df5100        267 	st.w	r27,80[r25]
                         268 --126:             buf_point++;
00000036 41d2            269 	add	1,r26
                         270 --127:             Size -= LOC_YD_SFMA_UNIT_8BIT;
00000038 5fe2            271 	add	-1,r28
                         272 --128:             if (Size <= 0)
0000003a e0e1            273 	cmp	zero,r28
0000003c bf05*           274 	bgt	.L11
                         275 --129:             {
                         276 --130:                 SpibscReg->Sslkp = YD_SFMA_SPIBSC_SPISSL_NEGATE;
                         277 --line130
                         278 ..lin.D.3A.5CRenesas_Electronics.5CD1x_RGL.5Crgl_ghs_D1Lx_obj_V1.2E2.2E0.5Cvlib.5Capp.5Cgfx_apps.5Csimple_draw_d1l2.5Ctarget.5Cd1lx_mango_ghs.5Cobj.5Cyd_sfma_flash.4::
                         279 .LDWlin4:
0000003e 79072900        280 	st.w	zero,40[r25]
                         281 .L11:
                         282 --131:             }
                         283 --133:             ret = YD_SFMA_SpibscWriteTransfer(Unit, SpibscReg);
00000042 23370500        284 	ld.w	4[sp],r6
00000046 1938            285 	mov	r25,r7
                         286 	jarl	_YD_SFMA_SpibscWriteTransfer,lp
                         286 <EXPANSION BEGIN>
                         286 jarl22 _YD_SFMA_SpibscWriteTransfer , lp 
00000048 80ff0000*       286 <EXPANSION END>
0000004c 0ae8            287 	mov	r10,r29
                         288 --134:             if (ret != YD_SFMA_ERR_OK)
                         289 --line134
                         290 ..lin.D.3A.5CRenesas_Electronics.5CD1x_RGL.5Crgl_ghs_D1Lx_obj_V1.2E2.2E0.5Cvlib.5Capp.5Cgfx_apps.5Csimple_draw_d1l2.5Ctarget.5Cd1lx_mango_ghs.5Cobj.5Cyd_sfma_flash.5::
                         291 .LDWlin5:

                                                                      Page 6
                                                              C:\Users\YINGAO~1\AppData\Local\Temp\gh_00007ak1.si
0000004e e0e9            292 	cmp	zero,r29
00000050 a205*           293 	be	.L8
                         294 --135:             {
                         295 --136:                 break;
                         296 --line136
                         297 ..lin.D.3A.5CRenesas_Electronics.5CD1x_RGL.5Crgl_ghs_D1Lx_obj_V1.2E2.2E0.5Cvlib.5Capp.5Cgfx_apps.5Csimple_draw_d1l2.5Ctarget.5Cd1lx_mango_ghs.5Cobj.5Cyd_sfma_flash.6::
                         298 .LDWlin6:
00000052 b505*           299 	br	.L7
                         300 .L8:
                         301 --line120
                         302 ..lin.D.3A.5CRenesas_Electronics.5CD1x_RGL.5Crgl_ghs_D1Lx_obj_V1.2E2.2E0.5Cvlib.5Capp.5Cgfx_apps.5Csimple_draw_d1l2.5Ctarget.5Cd1lx_mango_ghs.5Cobj.5Cyd_sfma_flash.7::
                         303 .LDWlin7:
00000054 e0e1            304 	cmp	zero,r28
00000056 8fed*           305 	bgt	.L10
                         306 .L7:
                         307 --137:             }
                         308 --138:         }
                         309 --139:     }
                         310 --141:     return ret;
                         311 --line141
                         312 ..lin.D.3A.5CRenesas_Electronics.5CD1x_RGL.5Crgl_ghs_D1Lx_obj_V1.2E2.2E0.5Cvlib.5Capp.5Cgfx_apps.5Csimple_draw_d1l2.5Ctarget.5Cd1lx_mango_ghs.5Cobj.5Cyd_sfma_flash.8::
                         313 .LDWlin8:
00000058 1d50            314 	mov	r29,r10
                         315 --	    .ef
                         316 .LDW11:
0000005a 4406ff70        317 	dispose	2,{r25,r26,r27,r28,r29,r31},[lp]
                         318 	.type	_YD_SFMA_8bitDataWrite,@function
                         319 	.size	_YD_SFMA_8bitDataWrite,.-_YD_SFMA_8bitDataWrite
                         320 	.type	_YD_SFMA_8bitDataWrite..D.3A.5CRenesas_Electronics.5CD1x_RGL.5Crgl_ghs_D1Lx_obj_V1.2E2.2E0.5Cvlib.5Capp.5Cgfx_apps.5Csimple_draw_d1l2.5Ctarget.5Cd1lx_mango_ghs.5Cobj.5Cyd_sfma_flash.,@function
                         321 	.size	_YD_SFMA_8bitDataWrite..D.3A.5CRenesas_Electronics.5CD1x_RGL.5Crgl_ghs_D1Lx_obj_V1.2E2.2E0.5Cvlib.5Capp.5Cgfx_apps.5Csimple_draw_d1l2.5Ctarget.5Cd1lx_mango_ghs.5Cobj.5Cyd_sfma_flash.,.-_YD_SFMA_8bitDataWrite..D.3A.5CRenesas_Electronics.5CD1x_RGL.5Crgl_ghs_D1Lx_obj_V1.2E2.2E0.5Cvlib.5Capp.5Cgfx_apps.5Csimple_draw_d1l2.5Ctarget.5Cd1lx_mango_ghs.5Cobj.5Cyd_sfma_flash.
                         322 	.align	2
                         323 .LDW21:
                         324 --_ret	r29	local
                         325 --_tmp32	r27	local
                         326 --_buf_point	r26	local
                         327 
                         328 --_Unit	4[sp]	param
                         329 --_SpibscReg	r25	param
                         330 --_Buffer	0[sp]	param
                         331 --_Size	r28	param
                         332 
                         333 	.section ".bss","awb"
                         334 .L58:
                         335 	.type	.L58,@object
                         336 	.size	.L58,0
                         337 	.data
                         338 	.text
                         339 
                         340 --142: }
                         341 
                         342 --144: /***************************************************************************
                         343 --145:   Function: loc_SFMA_16bitDataWrite
                         344 --147:   Description:
                         345 --148:   This function writes 16 bit data to the serial flash memory.
                         346 --150:   Parameter:
                         347 --151:   Unit     - The parameter specifies the instance number.
                         348 --152:   r_Spibsc - This is a pointer to the yd_sfma_SpibscSpimdReg_t
                         349 --153:              structure to the register setting to transfer data.
                         350 --154:   Buffer   - This is a pointer to the address of buffer.
                         351 --155:   Size     - The parameter specifies the data size (in bytes) to read.
                         352 --157:   Return value:

                                                                      Page 7
                                                              C:\Users\YINGAO~1\AppData\Local\Temp\gh_00007ak1.si
                         353 --158:   See <yd_sfma_Error_t>.
                         354 --159: */
                         355 --160: static yd_sfma_Error_t YD_SFMA_16bitDataWrite(const uint32_t                Unit,
                         356 --161:                                                     yd_sfma_SpibscSpimdReg_t *SpibscReg,
                         357 --162:                                               const uint8_t                 *Buffer,
                         358 --163:                                                     int32_t                 Size);
                         359 --165: static yd_sfma_Error_t YD_SFMA_16bitDataWrite(const uint32_t                Unit,
                         360 	.align	2
                         361 	.align	2
                         362 	.global	_YD_SFMA_16bitDataWrite..D.3A.5CRenesas_Electronics.5CD1x_RGL.5Crgl_ghs_D1Lx_obj_V1.2E2.2E0.5Cvlib.5Capp.5Cgfx_apps.5Csimple_draw_d1l2.5Ctarget.5Cd1lx_mango_ghs.5Cobj.5Cyd_sfma_flash.
                         363 _YD_SFMA_16bitDataWrite..D.3A.5CRenesas_Electronics.5CD1x_RGL.5Crgl_ghs_D1Lx_obj_V1.2E2.2E0.5Cvlib.5Capp.5Cgfx_apps.5Csimple_draw_d1l2.5Ctarget.5Cd1lx_mango_ghs.5Cobj.5Cyd_sfma_flash.:
                         364 _YD_SFMA_16bitDataWrite:
0000005e 8407e170        365 	prepare	{r25,r26,r27,r28,r29,r31},2
00000062 63370500        366 	st.w	r6,4[sp]
00000066 07e8            367 	mov	r7,r29
00000068 63470100        368 	st.w	r8,0[sp]
0000006c 09d0            369 	mov	r9,r26
                         370 --	    .bf
                         371 .LDW31:
                         372 --166:                                                     yd_sfma_SpibscSpimdReg_t *SpibscReg,
                         373 --167:                                               const uint8_t                 *Buffer,
                         374 --168:                                                     int32_t                 Size)
                         375 --169: {
                         376 --170:     yd_sfma_Error_t ret = YD_SFMA_ERR_OK;
0000006e 00da            377 	mov	0,r27
                         378 --171:     uint32_t       tmp32;
                         379 --172:     uint32_t       buf_point;
                         380 --174:     if ((Buffer == R_NULL) ||
00000070 235f0100        381 	ld.w	0[sp],r11
00000074 e059            382 	cmp	zero,r11
00000076 b205*           383 	be	.L124
00000078 e0e9            384 	cmp	zero,r29
0000007a ba05*           385 	bne	.L123
                         386 .L124:
                         387 --175:         (SpibscReg == R_NULL))
                         388 --176:     {
                         389 --177:         ret = YD_SFMA_ERR_PARAM_INCORRECT;
                         390 --line177
                         391 ..lin.D.3A.5CRenesas_Electronics.5CD1x_RGL.5Crgl_ghs_D1Lx_obj_V1.2E2.2E0.5Cvlib.5Capp.5Cgfx_apps.5Csimple_draw_d1l2.5Ctarget.5Cd1lx_mango_ghs.5Cobj.5Cyd_sfma_flash.9::
                         392 .LDWlin9:
0000007c 02da            393 	mov	2,r27
0000007e d535*           394 	br	.L126
                         395 .L123:
                         396 --178:     }
                         397 --179:     else
                         398 --180:     {
                         399 --181:         buf_point = 0;
                         400 --line181
                         401 ..lin.D.3A.5CRenesas_Electronics.5CD1x_RGL.5Crgl_ghs_D1Lx_obj_V1.2E2.2E0.5Cvlib.5Capp.5Cgfx_apps.5Csimple_draw_d1l2.5Ctarget.5Cd1lx_mango_ghs.5Cobj.5Cyd_sfma_flash.10::
                         402 .LDWlin10:
00000080 00e2            403 	mov	0,r28
                         404 --182:         while (Size > 0L)
00000082 9535*           405 	br	.L127
                         406 .L129:
                         407 --183:         {
                         408 --184:             SpibscReg->Smwdr[YD_SFMA_SMWDR_DATA_0] = *(Buffer + buf_point);
                         409 --line184
                         410 ..lin.D.3A.5CRenesas_Electronics.5CD1x_RGL.5Crgl_ghs_D1Lx_obj_V1.2E2.2E0.5Cvlib.5Capp.5Cgfx_apps.5Csimple_draw_d1l2.5Ctarget.5Cd1lx_mango_ghs.5Cobj.5Cyd_sfma_flash.11::
                         411 .LDWlin11:
00000084 235f0100        412 	ld.w	0[sp],r11
00000088 1cf0            413 	mov	r28,ep

                                                                      Page 8
                                                              C:\Users\YINGAO~1\AppData\Local\Temp\gh_00007ak1.si
0000008a cbf1            414 	add	r11,ep
0000008c 6008            415 	sld.bu	0[ep],r1
0000008e 7d0f5100        416 	st.w	r1,80[r29]
                         417 --185:             if (Size >= LOC_YD_SFMA_UNIT_16BIT)
00000092 62d2            418 	cmp	2,r26
00000094 f60d*           419 	blt	.L130
                         420 --186:             {
                         421 --187:                 buf_point++;
                         422 --line187
                         423 ..lin.D.3A.5CRenesas_Electronics.5CD1x_RGL.5Crgl_ghs_D1Lx_obj_V1.2E2.2E0.5Cvlib.5Capp.5Cgfx_apps.5Csimple_draw_d1l2.5Ctarget.5Cd1lx_mango_ghs.5Cobj.5Cyd_sfma_flash.12::
                         424 .LDWlin12:
00000096 41e2            425 	add	1,r28
                         426 --188:                 tmp32 = *(Buffer + buf_point);
00000098 235f0100        427 	ld.w	0[sp],r11
0000009c 1cf0            428 	mov	r28,ep
0000009e cbf1            429 	add	r11,ep
000000a0 60c8            430 	sld.bu	0[ep],r25
                         431 --189:                 buf_point++;
000000a2 41e2            432 	add	1,r28
                         433 --190:                 tmp32 = (tmp32 << YD_SFMA_SHIFT_BYTE);
000000a4 c8ca            434 	shl	8,r25
                         435 --191:                 SpibscReg->Smwdr[YD_SFMA_SMWDR_DATA_0] |= tmp32;
000000a6 3d0f5100        436 	ld.w	80[r29],r1
000000aa 1909            437 	or	r25,r1
000000ac 7d0f5100        438 	st.w	r1,80[r29]
000000b0 f505*           439 	br	.L132
                         440 .L130:
                         441 --192:             }
                         442 --193:             else
                         443 --194:             {
                         444 --195:                 SpibscReg->Smwdr[YD_SFMA_SMWDR_DATA_0] |=
                         445 --line195
                         446 ..lin.D.3A.5CRenesas_Electronics.5CD1x_RGL.5Crgl_ghs_D1Lx_obj_V1.2E2.2E0.5Cvlib.5Capp.5Cgfx_apps.5Csimple_draw_d1l2.5Ctarget.5Cd1lx_mango_ghs.5Cobj.5Cyd_sfma_flash.13::
                         447 .LDWlin13:
000000b2 3d0f5100        448 	ld.w	80[r29],r1
000000b6 810e00ff        449 	ori	65280,r1,r1
000000ba 7d0f5100        450 	st.w	r1,80[r29]
                         451 .L132:
                         452 --196:                                          (LOC_YD_SFMA_DUMMY_WRITE_DATA << YD_SFMA_SHIFT_BYTE);
                         453 --197:             }
                         454 --198:             SpibscReg->Smwdr[YD_SFMA_SMWDR_DATA_0]  =
000000be 3d0f5100        455 	ld.w	80[r29],r1
000000c2 d00a            456 	shl	16,r1
000000c4 7d0f5100        457 	st.w	r1,80[r29]
                         458 --199:                             (SpibscReg->Smwdr[YD_SFMA_SMWDR_DATA_0] << YD_SFMA_SHIFT_2BYTE);
                         459 --201:             Size -= LOC_YD_SFMA_UNIT_16BIT;
000000c8 5ed2            460 	add	-2,r26
                         461 --202:             if (Size <= 0)
000000ca e0d1            462 	cmp	zero,r26
000000cc bf05*           463 	bgt	.L133
                         464 --203:             {
                         465 --204:                 SpibscReg->Sslkp = YD_SFMA_SPIBSC_SPISSL_NEGATE;
                         466 --line204
                         467 ..lin.D.3A.5CRenesas_Electronics.5CD1x_RGL.5Crgl_ghs_D1Lx_obj_V1.2E2.2E0.5Cvlib.5Capp.5Cgfx_apps.5Csimple_draw_d1l2.5Ctarget.5Cd1lx_mango_ghs.5Cobj.5Cyd_sfma_flash.14::
                         468 .LDWlin14:
000000ce 7d072900        469 	st.w	zero,40[r29]
                         470 .L133:
                         471 --205:             }
                         472 --207:             ret = YD_SFMA_SpibscWriteTransfer(Unit, SpibscReg);
000000d2 23370500        473 	ld.w	4[sp],r6
000000d6 1d38            474 	mov	r29,r7

                                                                      Page 9
                                                              C:\Users\YINGAO~1\AppData\Local\Temp\gh_00007ak1.si
                         475 	jarl	_YD_SFMA_SpibscWriteTransfer,lp
                         475 <EXPANSION BEGIN>
                         475 jarl22 _YD_SFMA_SpibscWriteTransfer , lp 
000000d8 80ff0000*       475 <EXPANSION END>
000000dc 0ad8            476 	mov	r10,r27
                         477 --208:             if (ret != YD_SFMA_ERR_OK)
                         478 --line208
                         479 ..lin.D.3A.5CRenesas_Electronics.5CD1x_RGL.5Crgl_ghs_D1Lx_obj_V1.2E2.2E0.5Cvlib.5Capp.5Cgfx_apps.5Csimple_draw_d1l2.5Ctarget.5Cd1lx_mango_ghs.5Cobj.5Cyd_sfma_flash.15::
                         480 .LDWlin15:
000000de e0d9            481 	cmp	zero,r27
000000e0 a205*           482 	be	.L127
                         483 --209:             {
                         484 --210:                 break;
                         485 --line210
                         486 ..lin.D.3A.5CRenesas_Electronics.5CD1x_RGL.5Crgl_ghs_D1Lx_obj_V1.2E2.2E0.5Cvlib.5Capp.5Cgfx_apps.5Csimple_draw_d1l2.5Ctarget.5Cd1lx_mango_ghs.5Cobj.5Cyd_sfma_flash.16::
                         487 .LDWlin16:
000000e2 b505*           488 	br	.L126
                         489 .L127:
                         490 --line182
                         491 ..lin.D.3A.5CRenesas_Electronics.5CD1x_RGL.5Crgl_ghs_D1Lx_obj_V1.2E2.2E0.5Cvlib.5Capp.5Cgfx_apps.5Csimple_draw_d1l2.5Ctarget.5Cd1lx_mango_ghs.5Cobj.5Cyd_sfma_flash.17::
                         492 .LDWlin17:
000000e4 e0d1            493 	cmp	zero,r26
000000e6 ffcd*           494 	bgt	.L129
                         495 .L126:
                         496 --211:             }
                         497 --212:         }
                         498 --213:     }
                         499 --215:     return ret;
                         500 --line215
                         501 ..lin.D.3A.5CRenesas_Electronics.5CD1x_RGL.5Crgl_ghs_D1Lx_obj_V1.2E2.2E0.5Cvlib.5Capp.5Cgfx_apps.5Csimple_draw_d1l2.5Ctarget.5Cd1lx_mango_ghs.5Cobj.5Cyd_sfma_flash.18::
                         502 .LDWlin18:
000000e8 1b50            503 	mov	r27,r10
                         504 --	    .ef
                         505 .LDW41:
000000ea 4406ff70        506 	dispose	2,{r25,r26,r27,r28,r29,r31},[lp]
                         507 	.type	_YD_SFMA_16bitDataWrite,@function
                         508 	.size	_YD_SFMA_16bitDataWrite,.-_YD_SFMA_16bitDataWrite
                         509 	.type	_YD_SFMA_16bitDataWrite..D.3A.5CRenesas_Electronics.5CD1x_RGL.5Crgl_ghs_D1Lx_obj_V1.2E2.2E0.5Cvlib.5Capp.5Cgfx_apps.5Csimple_draw_d1l2.5Ctarget.5Cd1lx_mango_ghs.5Cobj.5Cyd_sfma_flash.,@function
                         510 	.size	_YD_SFMA_16bitDataWrite..D.3A.5CRenesas_Electronics.5CD1x_RGL.5Crgl_ghs_D1Lx_obj_V1.2E2.2E0.5Cvlib.5Capp.5Cgfx_apps.5Csimple_draw_d1l2.5Ctarget.5Cd1lx_mango_ghs.5Cobj.5Cyd_sfma_flash.,.-_YD_SFMA_16bitDataWrite..D.3A.5CRenesas_Electronics.5CD1x_RGL.5Crgl_ghs_D1Lx_obj_V1.2E2.2E0.5Cvlib.5Capp.5Cgfx_apps.5Csimple_draw_d1l2.5Ctarget.5Cd1lx_mango_ghs.5Cobj.5Cyd_sfma_flash.
                         511 	.align	2
                         512 .LDW51:
                         513 --_ret	r27	local
                         514 --_tmp32	r25	local
                         515 --_buf_point	r28	local
                         516 
                         517 --_Unit	4[sp]	param
                         518 --_SpibscReg	r29	param
                         519 --_Buffer	0[sp]	param
                         520 --_Size	r26	param
                         521 
                         522 	.section ".bss","awb"
                         523 .L196:
                         524 	.type	.L196,@object
                         525 	.size	.L196,0
                         526 	.data
                         527 	.text
                         528 
                         529 --216: }
                         530 
                         531 --218: /***************************************************************************
                         532 --219:   Function: loc_SFMA_32bitDataWrite

                                                                      Page 10
                                                              C:\Users\YINGAO~1\AppData\Local\Temp\gh_00007ak1.si
                         533 --221:   Description:
                         534 --222:   This function writes 32 bit data to the serial flash memory.
                         535 --224:   Parameter:
                         536 --225:   Unit     - The parameter specifies the instance number.
                         537 --226:   r_Spibsc - This is a pointer to the yd_sfma_SpibscSpimdReg_t
                         538 --227:              structure to the register setting to transfer data.
                         539 --228:   Buffer   - This is a pointer to the address of buffer.
                         540 --229:   Size     - The parameter specifies the data size (in bytes) to read.
                         541 --231:   Return value:
                         542 --232:   See <yd_sfma_Error_t>.
                         543 --233: */
                         544 --234: static yd_sfma_Error_t YD_SFMA_32bitDataWrite(const uint32_t                Unit,
                         545 --235:                                                     yd_sfma_SpibscSpimdReg_t *SpibscReg,
                         546 --236:                                               const uint8_t                 *Buffer,
                         547 --237:                                                     int32_t                 Size);
                         548 --239: static yd_sfma_Error_t YD_SFMA_32bitDataWrite(const uint32_t                Unit,
                         549 	.align	2
                         550 	.align	2
                         551 	.global	_YD_SFMA_32bitDataWrite..D.3A.5CRenesas_Electronics.5CD1x_RGL.5Crgl_ghs_D1Lx_obj_V1.2E2.2E0.5Cvlib.5Capp.5Cgfx_apps.5Csimple_draw_d1l2.5Ctarget.5Cd1lx_mango_ghs.5Cobj.5Cyd_sfma_flash.
                         552 _YD_SFMA_32bitDataWrite..D.3A.5CRenesas_Electronics.5CD1x_RGL.5Crgl_ghs_D1Lx_obj_V1.2E2.2E0.5Cvlib.5Capp.5Cgfx_apps.5Csimple_draw_d1l2.5Ctarget.5Cd1lx_mango_ghs.5Cobj.5Cyd_sfma_flash.:
                         553 _YD_SFMA_32bitDataWrite:
000000ee 8407e170        554 	prepare	{r25,r26,r27,r28,r29,r31},2
000000f2 63370500        555 	st.w	r6,4[sp]
000000f6 07d8            556 	mov	r7,r27
000000f8 634f0100        557 	st.w	r9,0[sp]
000000fc 08c8            558 	mov	r8,r25
                         559 --	    .bf
                         560 .LDW61:
                         561 --240:                                                     yd_sfma_SpibscSpimdReg_t *SpibscReg,
                         562 --241:                                               const uint8_t                 *Buffer,
                         563 --242:                                                     int32_t                 Size)
                         564 --243: {
                         565 --244:     yd_sfma_Error_t ret = YD_SFMA_ERR_OK;
000000fe 00d2            566 	mov	0,r26
                         567 --245:     uint32_t       tmp32;
                         568 --246:     uint32_t       buf_point;
                         569 --248:     if ((Buffer == R_NULL) ||
00000100 e0c9            570 	cmp	zero,r25
00000102 b205*           571 	be	.L277
00000104 e0d9            572 	cmp	zero,r27
00000106 ba05*           573 	bne	.L276
                         574 .L277:
                         575 --249:         (SpibscReg == R_NULL))
                         576 --250:     {
                         577 --251:         ret = YD_SFMA_ERR_PARAM_INCORRECT;
                         578 --line251
                         579 ..lin.D.3A.5CRenesas_Electronics.5CD1x_RGL.5Crgl_ghs_D1Lx_obj_V1.2E2.2E0.5Cvlib.5Capp.5Cgfx_apps.5Csimple_draw_d1l2.5Ctarget.5Cd1lx_mango_ghs.5Cobj.5Cyd_sfma_flash.19::
                         580 .LDWlin19:
00000108 02d2            581 	mov	2,r26
0000010a f53d*           582 	br	.L279
                         583 .L276:
                         584 --252:     }
                         585 --253:     else
                         586 --254:     {
                         587 --255:         buf_point = 0;
                         588 --line255
                         589 ..lin.D.3A.5CRenesas_Electronics.5CD1x_RGL.5Crgl_ghs_D1Lx_obj_V1.2E2.2E0.5Cvlib.5Capp.5Cgfx_apps.5Csimple_draw_d1l2.5Ctarget.5Cd1lx_mango_ghs.5Cobj.5Cyd_sfma_flash.20::
                         590 .LDWlin20:
0000010c 00e2            591 	mov	0,r28
                         592 --256:         while (Size > 0L)
0000010e 953d*           593 	br	.L280

                                                                      Page 11
                                                              C:\Users\YINGAO~1\AppData\Local\Temp\gh_00007ak1.si
                         594 .L282:
                         595 --257:         {
                         596 --258:             SpibscReg->Smwdr[YD_SFMA_SMWDR_DATA_0] = *(Buffer + buf_point);
                         597 --line258
                         598 ..lin.D.3A.5CRenesas_Electronics.5CD1x_RGL.5Crgl_ghs_D1Lx_obj_V1.2E2.2E0.5Cvlib.5Capp.5Cgfx_apps.5Csimple_draw_d1l2.5Ctarget.5Cd1lx_mango_ghs.5Cobj.5Cyd_sfma_flash.21::
                         599 .LDWlin21:
00000110 1cf0            600 	mov	r28,ep
00000112 d9f1            601 	add	r25,ep
00000114 6008            602 	sld.bu	0[ep],r1
00000116 7b0f5100        603 	st.w	r1,80[r27]
                         604 --259:             buf_point++;
0000011a 41e2            605 	add	1,r28
                         606 --260:             tmp32 = *(Buffer + buf_point);
0000011c 1cf0            607 	mov	r28,ep
0000011e d9f1            608 	add	r25,ep
00000120 60e8            609 	sld.bu	0[ep],r29
                         610 --261:             buf_point++;
00000122 41e2            611 	add	1,r28
                         612 --262:             tmp32 = (tmp32 << YD_SFMA_SHIFT_BYTE);
00000124 c8ea            613 	shl	8,r29
                         614 --263:             SpibscReg->Smwdr[YD_SFMA_SMWDR_DATA_0] |= tmp32;
00000126 3b0f5100        615 	ld.w	80[r27],r1
0000012a 1d09            616 	or	r29,r1
0000012c 7b0f5100        617 	st.w	r1,80[r27]
                         618 --264:             tmp32 = *(Buffer + buf_point);
00000130 1cf0            619 	mov	r28,ep
00000132 d9f1            620 	add	r25,ep
00000134 60e8            621 	sld.bu	0[ep],r29
                         622 --265:             buf_point++;
00000136 41e2            623 	add	1,r28
                         624 --266:             tmp32 = (tmp32 << YD_SFMA_SHIFT_2BYTE);
00000138 d0ea            625 	shl	16,r29
                         626 --267:             SpibscReg->Smwdr[YD_SFMA_SMWDR_DATA_0] |= tmp32;
0000013a 3b0f5100        627 	ld.w	80[r27],r1
0000013e 1d09            628 	or	r29,r1
00000140 7b0f5100        629 	st.w	r1,80[r27]
                         630 --268:             tmp32 = *(Buffer + buf_point);
00000144 1cf0            631 	mov	r28,ep
00000146 d9f1            632 	add	r25,ep
00000148 60e8            633 	sld.bu	0[ep],r29
                         634 --269:             buf_point++;
0000014a 41e2            635 	add	1,r28
                         636 --270:             tmp32 = (tmp32 << YD_SFMA_SHIFT_3BYTE);
0000014c d8ea            637 	shl	24,r29
                         638 --271:             SpibscReg->Smwdr[YD_SFMA_SMWDR_DATA_0] |= tmp32;
0000014e 3b0f5100        639 	ld.w	80[r27],r1
00000152 1d09            640 	or	r29,r1
00000154 7b0f5100        641 	st.w	r1,80[r27]
                         642 --273:             Size -= LOC_YD_SFMA_UNIT_32BIT;
00000158 235f0100        643 	ld.w	0[sp],r11
0000015c 5c5a            644 	add	-4,r11
0000015e 635f0100        645 	st.w	r11,0[sp]
                         646 --274:             if (Size <= 0)
00000162 235f0100        647 	ld.w	0[sp],r11
00000166 e059            648 	cmp	zero,r11
00000168 bf05*           649 	bgt	.L283
                         650 --275:             {
                         651 --276:                 SpibscReg->Sslkp = YD_SFMA_SPIBSC_SPISSL_NEGATE;
                         652 --line276
                         653 ..lin.D.3A.5CRenesas_Electronics.5CD1x_RGL.5Crgl_ghs_D1Lx_obj_V1.2E2.2E0.5Cvlib.5Capp.5Cgfx_apps.5Csimple_draw_d1l2.5Ctarget.5Cd1lx_mango_ghs.5Cobj.5Cyd_sfma_flash.22::
                         654 .LDWlin22:

                                                                      Page 12
                                                              C:\Users\YINGAO~1\AppData\Local\Temp\gh_00007ak1.si
0000016a 7b072900        655 	st.w	zero,40[r27]
                         656 .L283:
                         657 --277:             }
                         658 --279:             ret = YD_SFMA_SpibscWriteTransfer(Unit, SpibscReg);
0000016e 23370500        659 	ld.w	4[sp],r6
00000172 1b38            660 	mov	r27,r7
                         661 	jarl	_YD_SFMA_SpibscWriteTransfer,lp
                         661 <EXPANSION BEGIN>
                         661 jarl22 _YD_SFMA_SpibscWriteTransfer , lp 
00000174 80ff0000*       661 <EXPANSION END>
00000178 0ad0            662 	mov	r10,r26
                         663 --280:             if (ret != YD_SFMA_ERR_OK)
                         664 --line280
                         665 ..lin.D.3A.5CRenesas_Electronics.5CD1x_RGL.5Crgl_ghs_D1Lx_obj_V1.2E2.2E0.5Cvlib.5Capp.5Cgfx_apps.5Csimple_draw_d1l2.5Ctarget.5Cd1lx_mango_ghs.5Cobj.5Cyd_sfma_flash.23::
                         666 .LDWlin23:
0000017a e0d1            667 	cmp	zero,r26
0000017c a205*           668 	be	.L280
                         669 --281:             {
                         670 --282:                 break;
                         671 --line282
                         672 ..lin.D.3A.5CRenesas_Electronics.5CD1x_RGL.5Crgl_ghs_D1Lx_obj_V1.2E2.2E0.5Cvlib.5Capp.5Cgfx_apps.5Csimple_draw_d1l2.5Ctarget.5Cd1lx_mango_ghs.5Cobj.5Cyd_sfma_flash.24::
                         673 .LDWlin24:
0000017e d505*           674 	br	.L279
                         675 .L280:
                         676 --line256
                         677 ..lin.D.3A.5CRenesas_Electronics.5CD1x_RGL.5Crgl_ghs_D1Lx_obj_V1.2E2.2E0.5Cvlib.5Capp.5Cgfx_apps.5Csimple_draw_d1l2.5Ctarget.5Cd1lx_mango_ghs.5Cobj.5Cyd_sfma_flash.25::
                         678 .LDWlin25:
00000180 235f0100        679 	ld.w	0[sp],r11
00000184 e059            680 	cmp	zero,r11
00000186 dfc5*           681 	bgt	.L282
                         682 .L279:
                         683 --283:             }
                         684 --284:         }
                         685 --285:     }
                         686 --287:     return ret;
                         687 --line287
                         688 ..lin.D.3A.5CRenesas_Electronics.5CD1x_RGL.5Crgl_ghs_D1Lx_obj_V1.2E2.2E0.5Cvlib.5Capp.5Cgfx_apps.5Csimple_draw_d1l2.5Ctarget.5Cd1lx_mango_ghs.5Cobj.5Cyd_sfma_flash.26::
                         689 .LDWlin26:
00000188 1a50            690 	mov	r26,r10
                         691 --	    .ef
                         692 .LDW71:
0000018a 4406ff70        693 	dispose	2,{r25,r26,r27,r28,r29,r31},[lp]
                         694 	.type	_YD_SFMA_32bitDataWrite,@function
                         695 	.size	_YD_SFMA_32bitDataWrite,.-_YD_SFMA_32bitDataWrite
                         696 	.type	_YD_SFMA_32bitDataWrite..D.3A.5CRenesas_Electronics.5CD1x_RGL.5Crgl_ghs_D1Lx_obj_V1.2E2.2E0.5Cvlib.5Capp.5Cgfx_apps.5Csimple_draw_d1l2.5Ctarget.5Cd1lx_mango_ghs.5Cobj.5Cyd_sfma_flash.,@function
                         697 	.size	_YD_SFMA_32bitDataWrite..D.3A.5CRenesas_Electronics.5CD1x_RGL.5Crgl_ghs_D1Lx_obj_V1.2E2.2E0.5Cvlib.5Capp.5Cgfx_apps.5Csimple_draw_d1l2.5Ctarget.5Cd1lx_mango_ghs.5Cobj.5Cyd_sfma_flash.,.-_YD_SFMA_32bitDataWrite..D.3A.5CRenesas_Electronics.5CD1x_RGL.5Crgl_ghs_D1Lx_obj_V1.2E2.2E0.5Cvlib.5Capp.5Cgfx_apps.5Csimple_draw_d1l2.5Ctarget.5Cd1lx_mango_ghs.5Cobj.5Cyd_sfma_flash.
                         698 	.align	2
                         699 .LDW81:
                         700 --_ret	r26	local
                         701 --_tmp32	r29	local
                         702 --_buf_point	r28	local
                         703 
                         704 --_Unit	4[sp]	param
                         705 --_SpibscReg	r27	param
                         706 --_Buffer	r25	param
                         707 --_Size	0[sp]	param
                         708 
                         709 	.section ".bss","awb"
                         710 .L350:
                         711 	.type	.L350,@object
                         712 	.size	.L350,0

                                                                      Page 13
                                                              C:\Users\YINGAO~1\AppData\Local\Temp\gh_00007ak1.si
                         713 	.data
                         714 	.text
                         715 
                         716 --288: }
                         717 
                         718 --290: /***************************************************************************
                         719 --291:   Function: loc_SFMA_64bitDataWrite
                         720 --293:   Description:
                         721 --294:   This function writes 64 bit data to the serial flash memory.
                         722 --296:   Parameter:
                         723 --297:   Unit     - The parameter specifies the instance number.
                         724 --298:   r_Spibsc - This is a pointer to the yd_sfma_SpibscSpimdReg_t
                         725 --299:              structure to the register setting to transfer data.
                         726 --300:   Buffer   - This is a pointer to the address of buffer.
                         727 --301:   Size     - The parameter specifies the data size (in bytes) to read.
                         728 --303:   Return value:
                         729 --304:   See <yd_sfma_Error_t>.
                         730 --305: */
                         731 --306: static yd_sfma_Error_t YD_SFMA_64bitDataWrite(const uint32_t                Unit,
                         732 --307:                                                     yd_sfma_SpibscSpimdReg_t *SpibscReg,
                         733 --308:                                               const uint8_t                 *Buffer,
                         734 --309:                                                     int32_t                 Size);
                         735 --311: static yd_sfma_Error_t YD_SFMA_64bitDataWrite(const uint32_t                Unit,
                         736 	.align	2
                         737 	.align	2
                         738 	.global	_YD_SFMA_64bitDataWrite..D.3A.5CRenesas_Electronics.5CD1x_RGL.5Crgl_ghs_D1Lx_obj_V1.2E2.2E0.5Cvlib.5Capp.5Cgfx_apps.5Csimple_draw_d1l2.5Ctarget.5Cd1lx_mango_ghs.5Cobj.5Cyd_sfma_flash.
                         739 _YD_SFMA_64bitDataWrite..D.3A.5CRenesas_Electronics.5CD1x_RGL.5Crgl_ghs_D1Lx_obj_V1.2E2.2E0.5Cvlib.5Capp.5Cgfx_apps.5Csimple_draw_d1l2.5Ctarget.5Cd1lx_mango_ghs.5Cobj.5Cyd_sfma_flash.:
                         740 _YD_SFMA_64bitDataWrite:
0000018e 8407e170        741 	prepare	{r25,r26,r27,r28,r29,r31},2
00000192 63370500        742 	st.w	r6,4[sp]
00000196 07d8            743 	mov	r7,r27
00000198 634f0100        744 	st.w	r9,0[sp]
0000019c 08d0            745 	mov	r8,r26
                         746 --	    .bf
                         747 .LDW91:
                         748 --312:                                                     yd_sfma_SpibscSpimdReg_t *SpibscReg,
                         749 --313:                                               const uint8_t                 *Buffer,
                         750 --314:                                                     int32_t                 Size)
                         751 --315: {
                         752 --316:     yd_sfma_Error_t ret = YD_SFMA_ERR_OK;
0000019e 00ca            753 	mov	0,r25
                         754 --317:     uint32_t       tmp32;
                         755 --318:     uint32_t       buf_point;
                         756 --320:     if ((Buffer == R_NULL) ||
000001a0 e0d1            757 	cmp	zero,r26
000001a2 b205*           758 	be	.L446
000001a4 e0d9            759 	cmp	zero,r27
000001a6 ba05*           760 	bne	.L445
                         761 .L446:
                         762 --321:         (SpibscReg == R_NULL))
                         763 --322:     {
                         764 --323:         ret = YD_SFMA_ERR_PARAM_INCORRECT;
                         765 --line323
                         766 ..lin.D.3A.5CRenesas_Electronics.5CD1x_RGL.5Crgl_ghs_D1Lx_obj_V1.2E2.2E0.5Cvlib.5Capp.5Cgfx_apps.5Csimple_draw_d1l2.5Ctarget.5Cd1lx_mango_ghs.5Cobj.5Cyd_sfma_flash.27::
                         767 .LDWlin27:
000001a8 02ca            768 	mov	2,r25
000001aa b565*           769 	br	.L448
                         770 .L445:
                         771 --324:     }
                         772 --325:     else
                         773 --326:     {

                                                                      Page 14
                                                              C:\Users\YINGAO~1\AppData\Local\Temp\gh_00007ak1.si
                         774 --327:         buf_point = 0;
                         775 --line327
                         776 ..lin.D.3A.5CRenesas_Electronics.5CD1x_RGL.5Crgl_ghs_D1Lx_obj_V1.2E2.2E0.5Cvlib.5Capp.5Cgfx_apps.5Csimple_draw_d1l2.5Ctarget.5Cd1lx_mango_ghs.5Cobj.5Cyd_sfma_flash.28::
                         777 .LDWlin28:
000001ac 00e2            778 	mov	0,r28
                         779 --328:         while (Size > 0L)
000001ae d55d*           780 	br	.L449
                         781 .L451:
                         782 --329:         {
                         783 --330:             SpibscReg->Smwdr[YD_SFMA_SMWDR_DATA_1] = *(Buffer + buf_point);
                         784 --line330
                         785 ..lin.D.3A.5CRenesas_Electronics.5CD1x_RGL.5Crgl_ghs_D1Lx_obj_V1.2E2.2E0.5Cvlib.5Capp.5Cgfx_apps.5Csimple_draw_d1l2.5Ctarget.5Cd1lx_mango_ghs.5Cobj.5Cyd_sfma_flash.29::
                         786 .LDWlin29:
000001b0 1cf0            787 	mov	r28,ep
000001b2 daf1            788 	add	r26,ep
000001b4 6008            789 	sld.bu	0[ep],r1
000001b6 7b0f5500        790 	st.w	r1,84[r27]
                         791 --331:             buf_point++;
000001ba 41e2            792 	add	1,r28
                         793 --332:             tmp32 = *(Buffer + buf_point);
000001bc 1cf0            794 	mov	r28,ep
000001be daf1            795 	add	r26,ep
000001c0 60e8            796 	sld.bu	0[ep],r29
                         797 --333:             buf_point++;
000001c2 41e2            798 	add	1,r28
                         799 --334:             tmp32 = (tmp32 << YD_SFMA_SHIFT_BYTE);
000001c4 c8ea            800 	shl	8,r29
                         801 --335:             SpibscReg->Smwdr[YD_SFMA_SMWDR_DATA_1] |= tmp32;
000001c6 3b0f5500        802 	ld.w	84[r27],r1
000001ca 1d09            803 	or	r29,r1
000001cc 7b0f5500        804 	st.w	r1,84[r27]
                         805 --336:             tmp32 = *(Buffer + buf_point);
000001d0 1cf0            806 	mov	r28,ep
000001d2 daf1            807 	add	r26,ep
000001d4 60e8            808 	sld.bu	0[ep],r29
                         809 --337:             buf_point++;
000001d6 41e2            810 	add	1,r28
                         811 --338:             tmp32 = (tmp32 << YD_SFMA_SHIFT_2BYTE);
000001d8 d0ea            812 	shl	16,r29
                         813 --339:             SpibscReg->Smwdr[YD_SFMA_SMWDR_DATA_1] |= tmp32;
000001da 3b0f5500        814 	ld.w	84[r27],r1
000001de 1d09            815 	or	r29,r1
000001e0 7b0f5500        816 	st.w	r1,84[r27]
                         817 --340:             tmp32 = *(Buffer + buf_point);
000001e4 1cf0            818 	mov	r28,ep
000001e6 daf1            819 	add	r26,ep
000001e8 60e8            820 	sld.bu	0[ep],r29
                         821 --341:             buf_point++;
000001ea 41e2            822 	add	1,r28
                         823 --342:             tmp32 = (tmp32 << YD_SFMA_SHIFT_3BYTE);
000001ec d8ea            824 	shl	24,r29
                         825 --343:             SpibscReg->Smwdr[YD_SFMA_SMWDR_DATA_1] |= tmp32;
000001ee 3b0f5500        826 	ld.w	84[r27],r1
000001f2 1d09            827 	or	r29,r1
000001f4 7b0f5500        828 	st.w	r1,84[r27]
                         829 --345:             SpibscReg->Smwdr[YD_SFMA_SMWDR_DATA_0] = *(Buffer + buf_point);
000001f8 1cf0            830 	mov	r28,ep
000001fa daf1            831 	add	r26,ep
000001fc 6008            832 	sld.bu	0[ep],r1
000001fe 7b0f5100        833 	st.w	r1,80[r27]
                         834 --346:             buf_point++;

                                                                      Page 15
                                                              C:\Users\YINGAO~1\AppData\Local\Temp\gh_00007ak1.si
00000202 41e2            835 	add	1,r28
                         836 --347:             tmp32 = *(Buffer + buf_point);
00000204 1cf0            837 	mov	r28,ep
00000206 daf1            838 	add	r26,ep
00000208 60e8            839 	sld.bu	0[ep],r29
                         840 --348:             buf_point++;
0000020a 41e2            841 	add	1,r28
                         842 --349:             tmp32 = (tmp32 << YD_SFMA_SHIFT_BYTE);
0000020c c8ea            843 	shl	8,r29
                         844 --350:             SpibscReg->Smwdr[YD_SFMA_SMWDR_DATA_0] |= tmp32;
0000020e 3b0f5100        845 	ld.w	80[r27],r1
00000212 1d09            846 	or	r29,r1
00000214 7b0f5100        847 	st.w	r1,80[r27]
                         848 --351:             tmp32 = *(Buffer + buf_point);
00000218 1cf0            849 	mov	r28,ep
0000021a daf1            850 	add	r26,ep
0000021c 60e8            851 	sld.bu	0[ep],r29
                         852 --352:             buf_point++;
0000021e 41e2            853 	add	1,r28
                         854 --353:             tmp32 = (tmp32 << YD_SFMA_SHIFT_2BYTE);
00000220 d0ea            855 	shl	16,r29
                         856 --354:             SpibscReg->Smwdr[YD_SFMA_SMWDR_DATA_0] |= tmp32;
00000222 3b0f5100        857 	ld.w	80[r27],r1
00000226 1d09            858 	or	r29,r1
00000228 7b0f5100        859 	st.w	r1,80[r27]
                         860 --355:             tmp32 = *(Buffer + buf_point);
0000022c 1cf0            861 	mov	r28,ep
0000022e daf1            862 	add	r26,ep
00000230 60e8            863 	sld.bu	0[ep],r29
                         864 --356:             buf_point++;
00000232 41e2            865 	add	1,r28
                         866 --357:             tmp32 = (tmp32 << YD_SFMA_SHIFT_3BYTE);
00000234 d8ea            867 	shl	24,r29
                         868 --358:             SpibscReg->Smwdr[YD_SFMA_SMWDR_DATA_0] |= tmp32;
00000236 3b0f5100        869 	ld.w	80[r27],r1
0000023a 1d09            870 	or	r29,r1
0000023c 7b0f5100        871 	st.w	r1,80[r27]
                         872 --360:             Size -= LOC_YD_SFMA_UNIT_64BIT;
00000240 235f0100        873 	ld.w	0[sp],r11
00000244 585a            874 	add	-8,r11
00000246 635f0100        875 	st.w	r11,0[sp]
                         876 --361:             if (Size <= 0)
0000024a 235f0100        877 	ld.w	0[sp],r11
0000024e e059            878 	cmp	zero,r11
00000250 bf05*           879 	bgt	.L452
                         880 --362:             {
                         881 --363:                 SpibscReg->Sslkp = YD_SFMA_SPIBSC_SPISSL_NEGATE;
                         882 --line363
                         883 ..lin.D.3A.5CRenesas_Electronics.5CD1x_RGL.5Crgl_ghs_D1Lx_obj_V1.2E2.2E0.5Cvlib.5Capp.5Cgfx_apps.5Csimple_draw_d1l2.5Ctarget.5Cd1lx_mango_ghs.5Cobj.5Cyd_sfma_flash.30::
                         884 .LDWlin30:
00000252 7b072900        885 	st.w	zero,40[r27]
                         886 .L452:
                         887 --364:             }
                         888 --366:             ret = YD_SFMA_SpibscWriteTransfer(Unit, SpibscReg);
00000256 23370500        889 	ld.w	4[sp],r6
0000025a 1b38            890 	mov	r27,r7
                         891 	jarl	_YD_SFMA_SpibscWriteTransfer,lp
                         891 <EXPANSION BEGIN>
                         891 jarl22 _YD_SFMA_SpibscWriteTransfer , lp 
0000025c 80ff0000*       891 <EXPANSION END>
00000260 0ac8            892 	mov	r10,r25

                                                                      Page 16
                                                              C:\Users\YINGAO~1\AppData\Local\Temp\gh_00007ak1.si
                         893 --367:             if (ret != YD_SFMA_ERR_OK)
                         894 --line367
                         895 ..lin.D.3A.5CRenesas_Electronics.5CD1x_RGL.5Crgl_ghs_D1Lx_obj_V1.2E2.2E0.5Cvlib.5Capp.5Cgfx_apps.5Csimple_draw_d1l2.5Ctarget.5Cd1lx_mango_ghs.5Cobj.5Cyd_sfma_flash.31::
                         896 .LDWlin31:
00000262 e0c9            897 	cmp	zero,r25
00000264 a205*           898 	be	.L449
                         899 --368:             {
                         900 --369:                 break;
                         901 --line369
                         902 ..lin.D.3A.5CRenesas_Electronics.5CD1x_RGL.5Crgl_ghs_D1Lx_obj_V1.2E2.2E0.5Cvlib.5Capp.5Cgfx_apps.5Csimple_draw_d1l2.5Ctarget.5Cd1lx_mango_ghs.5Cobj.5Cyd_sfma_flash.32::
                         903 .LDWlin32:
00000266 d505*           904 	br	.L448
                         905 .L449:
                         906 --line328
                         907 ..lin.D.3A.5CRenesas_Electronics.5CD1x_RGL.5Crgl_ghs_D1Lx_obj_V1.2E2.2E0.5Cvlib.5Capp.5Cgfx_apps.5Csimple_draw_d1l2.5Ctarget.5Cd1lx_mango_ghs.5Cobj.5Cyd_sfma_flash.33::
                         908 .LDWlin33:
00000268 235f0100        909 	ld.w	0[sp],r11
0000026c e059            910 	cmp	zero,r11
0000026e 9fa5*           911 	bgt	.L451
                         912 .L448:
                         913 --370:             }
                         914 --371:         }
                         915 --372:     }
                         916 --374:     return ret;
                         917 --line374
                         918 ..lin.D.3A.5CRenesas_Electronics.5CD1x_RGL.5Crgl_ghs_D1Lx_obj_V1.2E2.2E0.5Cvlib.5Capp.5Cgfx_apps.5Csimple_draw_d1l2.5Ctarget.5Cd1lx_mango_ghs.5Cobj.5Cyd_sfma_flash.34::
                         919 .LDWlin34:
00000270 1950            920 	mov	r25,r10
                         921 --	    .ef
                         922 .LDW02:
00000272 4406ff70        923 	dispose	2,{r25,r26,r27,r28,r29,r31},[lp]
                         924 	.type	_YD_SFMA_64bitDataWrite,@function
                         925 	.size	_YD_SFMA_64bitDataWrite,.-_YD_SFMA_64bitDataWrite
                         926 	.type	_YD_SFMA_64bitDataWrite..D.3A.5CRenesas_Electronics.5CD1x_RGL.5Crgl_ghs_D1Lx_obj_V1.2E2.2E0.5Cvlib.5Capp.5Cgfx_apps.5Csimple_draw_d1l2.5Ctarget.5Cd1lx_mango_ghs.5Cobj.5Cyd_sfma_flash.,@function
                         927 	.size	_YD_SFMA_64bitDataWrite..D.3A.5CRenesas_Electronics.5CD1x_RGL.5Crgl_ghs_D1Lx_obj_V1.2E2.2E0.5Cvlib.5Capp.5Cgfx_apps.5Csimple_draw_d1l2.5Ctarget.5Cd1lx_mango_ghs.5Cobj.5Cyd_sfma_flash.,.-_YD_SFMA_64bitDataWrite..D.3A.5CRenesas_Electronics.5CD1x_RGL.5Crgl_ghs_D1Lx_obj_V1.2E2.2E0.5Cvlib.5Capp.5Cgfx_apps.5Csimple_draw_d1l2.5Ctarget.5Cd1lx_mango_ghs.5Cobj.5Cyd_sfma_flash.
                         928 	.align	2
                         929 .LDW12:
                         930 --_ret	r25	local
                         931 --_tmp32	r29	local
                         932 --_buf_point	r28	local
                         933 
                         934 --_Unit	4[sp]	param
                         935 --_SpibscReg	r27	param
                         936 --_Buffer	r26	param
                         937 --_Size	0[sp]	param
                         938 
                         939 	.section ".bss","awb"
                         940 .L554:
                         941 	.type	.L554,@object
                         942 	.size	.L554,0
                         943 	.data
                         944 	.text
                         945 
                         946 --375: }
                         947 
                         948 --377: /***************************************************************************
                         949 --378:   Function: loc_SFMA_8bitDataRead
                         950 --380:   Description:
                         951 --381:   This function reads 8 bit data from the serial flash memory.
                         952 --383:   Parameter:
                         953 --384:   Unit     - The parameter specifies the instance number.

                                                                      Page 17
                                                              C:\Users\YINGAO~1\AppData\Local\Temp\gh_00007ak1.si
                         954 --385:   r_Spibsc - This is a pointer to the yd_sfma_SpibscSpimdReg_t structure to
                         955 --386:              the register setting to transfer data.
                         956 --387:   Buffer   - This is a pointer to the address of buffer.
                         957 --388:   Size     - The parameter specifies the data size (in bytes) to read.
                         958 --390:   Return value:
                         959 --391:   See <yd_sfma_Error_t>.
                         960 --392: */
                         961 --393: static yd_sfma_Error_t YD_SFMA_8bitDataRead(const uint32_t                Unit,
                         962 --394:                                                   yd_sfma_SpibscSpimdReg_t *SpibscReg,
                         963 --395:                                                   uint8_t                 *Buffer,
                         964 --396:                                                   int32_t                 Size);
                         965 --398: static yd_sfma_Error_t YD_SFMA_8bitDataRead(const uint32_t                Unit,
                         966 	.align	2
                         967 	.align	2
                         968 	.global	_YD_SFMA_8bitDataRead..D.3A.5CRenesas_Electronics.5CD1x_RGL.5Crgl_ghs_D1Lx_obj_V1.2E2.2E0.5Cvlib.5Capp.5Cgfx_apps.5Csimple_draw_d1l2.5Ctarget.5Cd1lx_mango_ghs.5Cobj.5Cyd_sfma_flash.
                         969 _YD_SFMA_8bitDataRead..D.3A.5CRenesas_Electronics.5CD1x_RGL.5Crgl_ghs_D1Lx_obj_V1.2E2.2E0.5Cvlib.5Capp.5Cgfx_apps.5Csimple_draw_d1l2.5Ctarget.5Cd1lx_mango_ghs.5Cobj.5Cyd_sfma_flash.:
                         970 _YD_SFMA_8bitDataRead:
00000276 8207e170        971 	prepare	{r25,r26,r27,r28,r29,r31},1
0000027a 63370100        972 	st.w	r6,0[sp]
0000027e 07d0            973 	mov	r7,r26
00000280 08c8            974 	mov	r8,r25
00000282 09e0            975 	mov	r9,r28
                         976 --	    .bf
                         977 .LDW22:
                         978 --399:                                                   yd_sfma_SpibscSpimdReg_t *SpibscReg,
                         979 --400:                                                   uint8_t                 *Buffer,
                         980 --401:                                                   int32_t                 Size)
                         981 --402: {
                         982 --403:     yd_sfma_Error_t ret = YD_SFMA_ERR_OK;
00000284 00ea            983 	mov	0,r29
                         984 --404:     uint32_t       buf_point;
                         985 --406:     if ((Buffer == R_NULL) ||
00000286 e0c9            986 	cmp	zero,r25
00000288 b205*           987 	be	.L692
0000028a e0d1            988 	cmp	zero,r26
0000028c ba05*           989 	bne	.L691
                         990 .L692:
                         991 --407:         (SpibscReg == R_NULL))
                         992 --408:     {
                         993 --409:         ret = YD_SFMA_ERR_PARAM_INCORRECT;
                         994 --line409
                         995 ..lin.D.3A.5CRenesas_Electronics.5CD1x_RGL.5Crgl_ghs_D1Lx_obj_V1.2E2.2E0.5Cvlib.5Capp.5Cgfx_apps.5Csimple_draw_d1l2.5Ctarget.5Cd1lx_mango_ghs.5Cobj.5Cyd_sfma_flash.35::
                         996 .LDWlin35:
0000028e 02ea            997 	mov	2,r29
00000290 d51d*           998 	br	.L694
                         999 .L691:
                        1000 --410:     }
                        1001 --411:     else
                        1002 --412:     {
                        1003 --413:         buf_point = 0;
                        1004 --line413
                        1005 ..lin.D.3A.5CRenesas_Electronics.5CD1x_RGL.5Crgl_ghs_D1Lx_obj_V1.2E2.2E0.5Cvlib.5Capp.5Cgfx_apps.5Csimple_draw_d1l2.5Ctarget.5Cd1lx_mango_ghs.5Cobj.5Cyd_sfma_flash.36::
                        1006 .LDWlin36:
00000292 00da           1007 	mov	0,r27
                        1008 --414:         while (Size > 0L)
00000294 951d*          1009 	br	.L695
                        1010 .L697:
                        1011 --415:         {
                        1012 --416:             if ((Size - LOC_YD_SFMA_UNIT_8BIT) <= 0)
                        1013 --line416
                        1014 ..lin.D.3A.5CRenesas_Electronics.5CD1x_RGL.5Crgl_ghs_D1Lx_obj_V1.2E2.2E0.5Cvlib.5Capp.5Cgfx_apps.5Csimple_draw_d1l2.5Ctarget.5Cd1lx_mango_ghs.5Cobj.5Cyd_sfma_flash.37::

                                                                      Page 18
                                                              C:\Users\YINGAO~1\AppData\Local\Temp\gh_00007ak1.si
                        1015 .LDWlin37:
00000296 1c0effff       1016 	addi	-1,r28,r1
0000029a e009           1017 	cmp	zero,r1
0000029c bf05*          1018 	bgt	.L698
                        1019 --417:             {
                        1020 --418:                 SpibscReg->Sslkp = YD_SFMA_SPIBSC_SPISSL_NEGATE;
                        1021 --line418
                        1022 ..lin.D.3A.5CRenesas_Electronics.5CD1x_RGL.5Crgl_ghs_D1Lx_obj_V1.2E2.2E0.5Cvlib.5Capp.5Cgfx_apps.5Csimple_draw_d1l2.5Ctarget.5Cd1lx_mango_ghs.5Cobj.5Cyd_sfma_flash.38::
                        1023 .LDWlin38:
0000029e 7a072900       1024 	st.w	zero,40[r26]
                        1025 .L698:
                        1026 --419:             }
                        1027 --421:             ret = YD_SFMA_SpibscReadTransfer(Unit, SpibscReg);
000002a2 23370100       1028 	ld.w	0[sp],r6
000002a6 1a38           1029 	mov	r26,r7
                        1030 	jarl	_YD_SFMA_SpibscReadTransfer,lp
                        1030 <EXPANSION BEGIN>
                        1030 jarl22 _YD_SFMA_SpibscReadTransfer , lp 
000002a8 80ff0000*      1030 <EXPANSION END>
000002ac 0ae8           1031 	mov	r10,r29
                        1032 --422:             if (ret == YD_SFMA_ERR_OK)
                        1033 --line422
                        1034 ..lin.D.3A.5CRenesas_Electronics.5CD1x_RGL.5Crgl_ghs_D1Lx_obj_V1.2E2.2E0.5Cvlib.5Capp.5Cgfx_apps.5Csimple_draw_d1l2.5Ctarget.5Cd1lx_mango_ghs.5Cobj.5Cyd_sfma_flash.39::
                        1035 .LDWlin39:
000002ae e0e9           1036 	cmp	zero,r29
000002b0 aa0d*          1037 	bne	.L700
                        1038 --423:             {
                        1039 --424:                 *(Buffer + buf_point) = (uint8_t)(SpibscReg->Smrdr[YD_SFMA_SMRDR_DATA_0]
                        1040 --line424
                        1041 ..lin.D.3A.5CRenesas_Electronics.5CD1x_RGL.5Crgl_ghs_D1Lx_obj_V1.2E2.2E0.5Cvlib.5Capp.5Cgfx_apps.5Csimple_draw_d1l2.5Ctarget.5Cd1lx_mango_ghs.5Cobj.5Cyd_sfma_flash.40::
                        1042 .LDWlin40:
000002b2 3a0f4900       1043 	ld.w	72[r26],r1
000002b6 1bf0           1044 	mov	r27,ep
000002b8 d9f1           1045 	add	r25,ep
000002ba 980a           1046 	shr	24,r1
000002bc 800b           1047 	sst.b	r1,0[ep]
                        1048 --425:                             >> YD_SFMA_SHIFT_3BYTE);
                        1049 --426:                 buf_point++;
000002be 41da           1050 	add	1,r27
                        1051 --427:                 Size -= LOC_YD_SFMA_UNIT_8BIT;
000002c0 5fe2           1052 	add	-1,r28
000002c2 a505*          1053 	br	.L695
                        1054 .L700:
                        1055 --428:             }
                        1056 --429:             else
                        1057 --430:             {
                        1058 --431:                 break;
                        1059 --line431
                        1060 ..lin.D.3A.5CRenesas_Electronics.5CD1x_RGL.5Crgl_ghs_D1Lx_obj_V1.2E2.2E0.5Cvlib.5Capp.5Cgfx_apps.5Csimple_draw_d1l2.5Ctarget.5Cd1lx_mango_ghs.5Cobj.5Cyd_sfma_flash.41::
                        1061 .LDWlin41:
000002c4 b505*          1062 	br	.L694
                        1063 .L695:
                        1064 --line414
                        1065 ..lin.D.3A.5CRenesas_Electronics.5CD1x_RGL.5Crgl_ghs_D1Lx_obj_V1.2E2.2E0.5Cvlib.5Capp.5Cgfx_apps.5Csimple_draw_d1l2.5Ctarget.5Cd1lx_mango_ghs.5Cobj.5Cyd_sfma_flash.42::
                        1066 .LDWlin42:
000002c6 e0e1           1067 	cmp	zero,r28
000002c8 ffe5*          1068 	bgt	.L697
                        1069 .L694:
                        1070 --432:             }
                        1071 --433:         }
                        1072 --434:     }

                                                                      Page 19
                                                              C:\Users\YINGAO~1\AppData\Local\Temp\gh_00007ak1.si
                        1073 --436:     return ret;
                        1074 --line436
                        1075 ..lin.D.3A.5CRenesas_Electronics.5CD1x_RGL.5Crgl_ghs_D1Lx_obj_V1.2E2.2E0.5Cvlib.5Capp.5Cgfx_apps.5Csimple_draw_d1l2.5Ctarget.5Cd1lx_mango_ghs.5Cobj.5Cyd_sfma_flash.43::
                        1076 .LDWlin43:
000002ca 1d50           1077 	mov	r29,r10
                        1078 --	    .ef
                        1079 .LDW32:
000002cc 4206ff70       1080 	dispose	1,{r25,r26,r27,r28,r29,r31},[lp]
                        1081 	.type	_YD_SFMA_8bitDataRead,@function
                        1082 	.size	_YD_SFMA_8bitDataRead,.-_YD_SFMA_8bitDataRead
                        1083 	.type	_YD_SFMA_8bitDataRead..D.3A.5CRenesas_Electronics.5CD1x_RGL.5Crgl_ghs_D1Lx_obj_V1.2E2.2E0.5Cvlib.5Capp.5Cgfx_apps.5Csimple_draw_d1l2.5Ctarget.5Cd1lx_mango_ghs.5Cobj.5Cyd_sfma_flash.,@function
                        1084 	.size	_YD_SFMA_8bitDataRead..D.3A.5CRenesas_Electronics.5CD1x_RGL.5Crgl_ghs_D1Lx_obj_V1.2E2.2E0.5Cvlib.5Capp.5Cgfx_apps.5Csimple_draw_d1l2.5Ctarget.5Cd1lx_mango_ghs.5Cobj.5Cyd_sfma_flash.,.-_YD_SFMA_8bitDataRead..D.3A.5CRenesas_Electronics.5CD1x_RGL.5Crgl_ghs_D1Lx_obj_V1.2E2.2E0.5Cvlib.5Capp.5Cgfx_apps.5Csimple_draw_d1l2.5Ctarget.5Cd1lx_mango_ghs.5Cobj.5Cyd_sfma_flash.
                        1085 	.align	2
                        1086 .LDW42:
                        1087 --_ret	r29	local
                        1088 --_buf_point	r27	local
                        1089 
                        1090 --_Unit	0[sp]	param
                        1091 --_SpibscReg	r26	param
                        1092 --_Buffer	r25	param
                        1093 --_Size	r28	param
                        1094 
                        1095 	.section ".bss","awb"
                        1096 .L742:
                        1097 	.type	.L742,@object
                        1098 	.size	.L742,0
                        1099 	.data
                        1100 	.text
                        1101 
                        1102 --437: }
                        1103 
                        1104 --439: /***************************************************************************
                        1105 --440:   Function: loc_SFMA_16bitDataRead
                        1106 --442:   Description:
                        1107 --443:   This function reads 16 bit data from the serial flash memory.
                        1108 --445:   Parameter:
                        1109 --446:   Unit     - The parameter specifies the instance number.
                        1110 --447:   r_Spibsc - This is a pointer to the yd_sfma_SpibscSpimdReg_t structure to
                        1111 --448:              the register setting to transfer data.
                        1112 --449:   Buffer   - This is a pointer to the address of buffer.
                        1113 --450:   Size     - The parameter specifies the data size (in bytes) to read.
                        1114 --452:   Return value:
                        1115 --453:   See <yd_sfma_Error_t>.
                        1116 --454: */
                        1117 --455: static yd_sfma_Error_t YD_SFMA_16bitDataRead(const uint32_t                Unit,
                        1118 --456:                                                    yd_sfma_SpibscSpimdReg_t *SpibscReg,
                        1119 --457:                                                    uint8_t                 *Buffer,
                        1120 --458:                                                    int32_t                 Size);
                        1121 --461: static yd_sfma_Error_t YD_SFMA_16bitDataRead(const uint32_t                Unit,
                        1122 	.align	2
                        1123 	.align	2
                        1124 	.global	_YD_SFMA_16bitDataRead..D.3A.5CRenesas_Electronics.5CD1x_RGL.5Crgl_ghs_D1Lx_obj_V1.2E2.2E0.5Cvlib.5Capp.5Cgfx_apps.5Csimple_draw_d1l2.5Ctarget.5Cd1lx_mango_ghs.5Cobj.5Cyd_sfma_flash.
                        1125 _YD_SFMA_16bitDataRead..D.3A.5CRenesas_Electronics.5CD1x_RGL.5Crgl_ghs_D1Lx_obj_V1.2E2.2E0.5Cvlib.5Capp.5Cgfx_apps.5Csimple_draw_d1l2.5Ctarget.5Cd1lx_mango_ghs.5Cobj.5Cyd_sfma_flash.:
                        1126 _YD_SFMA_16bitDataRead:
000002d0 8207e170       1127 	prepare	{r25,r26,r27,r28,r29,r31},1
000002d4 63370100       1128 	st.w	r6,0[sp]
000002d8 07d0           1129 	mov	r7,r26
000002da 08c8           1130 	mov	r8,r25
000002dc 09e0           1131 	mov	r9,r28
                        1132 --	    .bf
                        1133 .LDW52:

                                                                      Page 20
                                                              C:\Users\YINGAO~1\AppData\Local\Temp\gh_00007ak1.si
                        1134 --462:                                                    yd_sfma_SpibscSpimdReg_t *SpibscReg,
                        1135 --463:                                                    uint8_t                 *Buffer,
                        1136 --464:                                                    int32_t                 Size)
                        1137 --465: {
                        1138 --466:     yd_sfma_Error_t ret = YD_SFMA_ERR_OK;
000002de 00da           1139 	mov	0,r27
                        1140 --467:     uint32_t       buf_point;
                        1141 --469:     if ((Buffer == R_NULL) ||
000002e0 e0c9           1142 	cmp	zero,r25
000002e2 b205*          1143 	be	.L802
000002e4 e0d1           1144 	cmp	zero,r26
000002e6 ba05*          1145 	bne	.L801
                        1146 .L802:
                        1147 --470:         (SpibscReg == R_NULL))
                        1148 --471:     {
                        1149 --472:         ret = YD_SFMA_ERR_PARAM_INCORRECT;
                        1150 --line472
                        1151 ..lin.D.3A.5CRenesas_Electronics.5CD1x_RGL.5Crgl_ghs_D1Lx_obj_V1.2E2.2E0.5Cvlib.5Capp.5Cgfx_apps.5Csimple_draw_d1l2.5Ctarget.5Cd1lx_mango_ghs.5Cobj.5Cyd_sfma_flash.44::
                        1152 .LDWlin44:
000002e8 02da           1153 	mov	2,r27
000002ea e525*          1154 	br	.L804
                        1155 .L801:
                        1156 --473:     }
                        1157 --474:     else
                        1158 --475:     {
                        1159 --476:         buf_point = 0;
                        1160 --line476
                        1161 ..lin.D.3A.5CRenesas_Electronics.5CD1x_RGL.5Crgl_ghs_D1Lx_obj_V1.2E2.2E0.5Cvlib.5Capp.5Cgfx_apps.5Csimple_draw_d1l2.5Ctarget.5Cd1lx_mango_ghs.5Cobj.5Cyd_sfma_flash.45::
                        1162 .LDWlin45:
000002ec 00ea           1163 	mov	0,r29
                        1164 --477:         while (Size > 0L)
000002ee a525*          1165 	br	.L805
                        1166 .L807:
                        1167 --478:         {
                        1168 --479:             if ((Size - LOC_YD_SFMA_UNIT_16BIT) <= 0)
                        1169 --line479
                        1170 ..lin.D.3A.5CRenesas_Electronics.5CD1x_RGL.5Crgl_ghs_D1Lx_obj_V1.2E2.2E0.5Cvlib.5Capp.5Cgfx_apps.5Csimple_draw_d1l2.5Ctarget.5Cd1lx_mango_ghs.5Cobj.5Cyd_sfma_flash.46::
                        1171 .LDWlin46:
000002f0 1c0efeff       1172 	addi	-2,r28,r1
000002f4 e009           1173 	cmp	zero,r1
000002f6 bf05*          1174 	bgt	.L808
                        1175 --480:             {
                        1176 --481:                 SpibscReg->Sslkp = YD_SFMA_SPIBSC_SPISSL_NEGATE;
                        1177 --line481
                        1178 ..lin.D.3A.5CRenesas_Electronics.5CD1x_RGL.5Crgl_ghs_D1Lx_obj_V1.2E2.2E0.5Cvlib.5Capp.5Cgfx_apps.5Csimple_draw_d1l2.5Ctarget.5Cd1lx_mango_ghs.5Cobj.5Cyd_sfma_flash.47::
                        1179 .LDWlin47:
000002f8 7a072900       1180 	st.w	zero,40[r26]
                        1181 .L808:
                        1182 --482:             }
                        1183 --484:             ret = YD_SFMA_SpibscReadTransfer(Unit, SpibscReg);
000002fc 23370100       1184 	ld.w	0[sp],r6
00000300 1a38           1185 	mov	r26,r7
                        1186 	jarl	_YD_SFMA_SpibscReadTransfer,lp
                        1186 <EXPANSION BEGIN>
                        1186 jarl22 _YD_SFMA_SpibscReadTransfer , lp 
00000302 80ff0000*      1186 <EXPANSION END>
00000306 0ad8           1187 	mov	r10,r27
                        1188 --485:             if (ret == YD_SFMA_ERR_OK)
                        1189 --line485
                        1190 ..lin.D.3A.5CRenesas_Electronics.5CD1x_RGL.5Crgl_ghs_D1Lx_obj_V1.2E2.2E0.5Cvlib.5Capp.5Cgfx_apps.5Csimple_draw_d1l2.5Ctarget.5Cd1lx_mango_ghs.5Cobj.5Cyd_sfma_flash.48::
                        1191 .LDWlin48:

                                                                      Page 21
                                                              C:\Users\YINGAO~1\AppData\Local\Temp\gh_00007ak1.si
00000308 e0d9           1192 	cmp	zero,r27
0000030a ba15*          1193 	bne	.L810
                        1194 --486:             {
                        1195 --487:                 *(Buffer + buf_point) = (uint8_t)(SpibscReg->Smrdr[YD_SFMA_SMRDR_DATA_0]
                        1196 --line487
                        1197 ..lin.D.3A.5CRenesas_Electronics.5CD1x_RGL.5Crgl_ghs_D1Lx_obj_V1.2E2.2E0.5Cvlib.5Capp.5Cgfx_apps.5Csimple_draw_d1l2.5Ctarget.5Cd1lx_mango_ghs.5Cobj.5Cyd_sfma_flash.49::
                        1198 .LDWlin49:
0000030c 3a0f4900       1199 	ld.w	72[r26],r1
00000310 1df0           1200 	mov	r29,ep
00000312 d9f1           1201 	add	r25,ep
00000314 900a           1202 	shr	16,r1
00000316 800b           1203 	sst.b	r1,0[ep]
                        1204 --488:                                         >> YD_SFMA_SHIFT_2BYTE);
                        1205 --489:                 if (Size >= LOC_YD_SFMA_UNIT_16BIT)
00000318 62e2           1206 	cmp	2,r28
0000031a 960d*          1207 	blt	.L812
                        1208 --490:                 {
                        1209 --491:                     buf_point++;
                        1210 --line491
                        1211 ..lin.D.3A.5CRenesas_Electronics.5CD1x_RGL.5Crgl_ghs_D1Lx_obj_V1.2E2.2E0.5Cvlib.5Capp.5Cgfx_apps.5Csimple_draw_d1l2.5Ctarget.5Cd1lx_mango_ghs.5Cobj.5Cyd_sfma_flash.50::
                        1212 .LDWlin50:
0000031c 41ea           1213 	add	1,r29
                        1214 --492:                     *(Buffer + buf_point) = (uint8_t)(SpibscReg->Smrdr[YD_SFMA_SMRDR_DATA_0]
0000031e 3a0f4900       1215 	ld.w	72[r26],r1
00000322 1df0           1216 	mov	r29,ep
00000324 d9f1           1217 	add	r25,ep
00000326 980a           1218 	shr	24,r1
00000328 800b           1219 	sst.b	r1,0[ep]
                        1220 --493:                                             >> YD_SFMA_SHIFT_3BYTE);
                        1221 --494:                     buf_point++;
0000032a 41ea           1222 	add	1,r29
                        1223 .L812:
                        1224 --495:                 }
                        1225 --496:                 Size -= LOC_YD_SFMA_UNIT_16BIT;
0000032c 5ee2           1226 	add	-2,r28
0000032e a505*          1227 	br	.L805
                        1228 .L810:
                        1229 --497:             }
                        1230 --498:             else
                        1231 --499:             {
                        1232 --500:                 break;
                        1233 --line500
                        1234 ..lin.D.3A.5CRenesas_Electronics.5CD1x_RGL.5Crgl_ghs_D1Lx_obj_V1.2E2.2E0.5Cvlib.5Capp.5Cgfx_apps.5Csimple_draw_d1l2.5Ctarget.5Cd1lx_mango_ghs.5Cobj.5Cyd_sfma_flash.51::
                        1235 .LDWlin51:
00000330 b505*          1236 	br	.L804
                        1237 .L805:
                        1238 --line477
                        1239 ..lin.D.3A.5CRenesas_Electronics.5CD1x_RGL.5Crgl_ghs_D1Lx_obj_V1.2E2.2E0.5Cvlib.5Capp.5Cgfx_apps.5Csimple_draw_d1l2.5Ctarget.5Cd1lx_mango_ghs.5Cobj.5Cyd_sfma_flash.52::
                        1240 .LDWlin52:
00000332 e0e1           1241 	cmp	zero,r28
00000334 efdd*          1242 	bgt	.L807
                        1243 .L804:
                        1244 --501:             }
                        1245 --502:         }
                        1246 --503:     }
                        1247 --505:     return ret;
                        1248 --line505
                        1249 ..lin.D.3A.5CRenesas_Electronics.5CD1x_RGL.5Crgl_ghs_D1Lx_obj_V1.2E2.2E0.5Cvlib.5Capp.5Cgfx_apps.5Csimple_draw_d1l2.5Ctarget.5Cd1lx_mango_ghs.5Cobj.5Cyd_sfma_flash.53::
                        1250 .LDWlin53:
00000336 1b50           1251 	mov	r27,r10
                        1252 --	    .ef

                                                                      Page 22
                                                              C:\Users\YINGAO~1\AppData\Local\Temp\gh_00007ak1.si
                        1253 .LDW62:
00000338 4206ff70       1254 	dispose	1,{r25,r26,r27,r28,r29,r31},[lp]
                        1255 	.type	_YD_SFMA_16bitDataRead,@function
                        1256 	.size	_YD_SFMA_16bitDataRead,.-_YD_SFMA_16bitDataRead
                        1257 	.type	_YD_SFMA_16bitDataRead..D.3A.5CRenesas_Electronics.5CD1x_RGL.5Crgl_ghs_D1Lx_obj_V1.2E2.2E0.5Cvlib.5Capp.5Cgfx_apps.5Csimple_draw_d1l2.5Ctarget.5Cd1lx_mango_ghs.5Cobj.5Cyd_sfma_flash.,@function
                        1258 	.size	_YD_SFMA_16bitDataRead..D.3A.5CRenesas_Electronics.5CD1x_RGL.5Crgl_ghs_D1Lx_obj_V1.2E2.2E0.5Cvlib.5Capp.5Cgfx_apps.5Csimple_draw_d1l2.5Ctarget.5Cd1lx_mango_ghs.5Cobj.5Cyd_sfma_flash.,.-_YD_SFMA_16bitDataRead..D.3A.5CRenesas_Electronics.5CD1x_RGL.5Crgl_ghs_D1Lx_obj_V1.2E2.2E0.5Cvlib.5Capp.5Cgfx_apps.5Csimple_draw_d1l2.5Ctarget.5Cd1lx_mango_ghs.5Cobj.5Cyd_sfma_flash.
                        1259 	.align	2
                        1260 .LDW72:
                        1261 --_ret	r27	local
                        1262 --_buf_point	r29	local
                        1263 
                        1264 --_Unit	0[sp]	param
                        1265 --_SpibscReg	r26	param
                        1266 --_Buffer	r25	param
                        1267 --_Size	r28	param
                        1268 
                        1269 	.section ".bss","awb"
                        1270 .L860:
                        1271 	.type	.L860,@object
                        1272 	.size	.L860,0
                        1273 	.data
                        1274 	.text
                        1275 
                        1276 --506: }
                        1277 
                        1278 --508: /***************************************************************************
                        1279 --509:   Function: loc_SFMA_32bitDataRead
                        1280 --511:   Description:
                        1281 --512:   This function reads 32 bit data from the serial flash memory.
                        1282 --514:   Parameter:
                        1283 --515:   Unit     - The parameter specifies the instance number.
                        1284 --516:   r_Spibsc - This is a pointer to the yd_sfma_SpibscSpimdReg_t structure to
                        1285 --517:              the register setting to transfer data.
                        1286 --518:   Buffer   - This is a pointer to the address of buffer.
                        1287 --519:   Size     - The parameter specifies the data size (in bytes) to read.
                        1288 --521:   Return value:
                        1289 --522:   See <yd_sfma_Error_t>.
                        1290 --523: */
                        1291 --524: static yd_sfma_Error_t YD_SFMA_32bitDataRead(const uint32_t                Unit,
                        1292 --525:                                                    yd_sfma_SpibscSpimdReg_t *SpibscReg,
                        1293 --526:                                                    uint8_t                 *Buffer,
                        1294 --527:                                                    int32_t                 Size);
                        1295 --529: static yd_sfma_Error_t YD_SFMA_32bitDataRead(const uint32_t                Unit,
                        1296 	.align	2
                        1297 	.align	2
                        1298 	.global	_YD_SFMA_32bitDataRead..D.3A.5CRenesas_Electronics.5CD1x_RGL.5Crgl_ghs_D1Lx_obj_V1.2E2.2E0.5Cvlib.5Capp.5Cgfx_apps.5Csimple_draw_d1l2.5Ctarget.5Cd1lx_mango_ghs.5Cobj.5Cyd_sfma_flash.
                        1299 _YD_SFMA_32bitDataRead..D.3A.5CRenesas_Electronics.5CD1x_RGL.5Crgl_ghs_D1Lx_obj_V1.2E2.2E0.5Cvlib.5Capp.5Cgfx_apps.5Csimple_draw_d1l2.5Ctarget.5Cd1lx_mango_ghs.5Cobj.5Cyd_sfma_flash.:
                        1300 _YD_SFMA_32bitDataRead:
0000033c 8207e170       1301 	prepare	{r25,r26,r27,r28,r29,r31},1
00000340 63370100       1302 	st.w	r6,0[sp]
00000344 07e0           1303 	mov	r7,r28
00000346 08c8           1304 	mov	r8,r25
00000348 09d0           1305 	mov	r9,r26
                        1306 --	    .bf
                        1307 .LDW82:
                        1308 --530:                                                    yd_sfma_SpibscSpimdReg_t *SpibscReg,
                        1309 --531:                                                    uint8_t                 *Buffer,
                        1310 --532:                                                    int32_t                 Size)
                        1311 --533: {
                        1312 --534:     yd_sfma_Error_t ret = YD_SFMA_ERR_OK;
0000034a 00da           1313 	mov	0,r27

                                                                      Page 23
                                                              C:\Users\YINGAO~1\AppData\Local\Temp\gh_00007ak1.si
                        1314 --535:     uint32_t       buf_point;
                        1315 --537:     if ((Buffer == R_NULL) ||
0000034c e0c9           1316 	cmp	zero,r25
0000034e b205*          1317 	be	.L929
00000350 e0e1           1318 	cmp	zero,r28
00000352 ba05*          1319 	bne	.L928
                        1320 .L929:
                        1321 --538:         (SpibscReg == R_NULL))
                        1322 --539:     {
                        1323 --540:         ret = YD_SFMA_ERR_PARAM_INCORRECT;
                        1324 --line540
                        1325 ..lin.D.3A.5CRenesas_Electronics.5CD1x_RGL.5Crgl_ghs_D1Lx_obj_V1.2E2.2E0.5Cvlib.5Capp.5Cgfx_apps.5Csimple_draw_d1l2.5Ctarget.5Cd1lx_mango_ghs.5Cobj.5Cyd_sfma_flash.54::
                        1326 .LDWlin54:
00000354 02da           1327 	mov	2,r27
00000356 9535*          1328 	br	.L931
                        1329 .L928:
                        1330 --541:     }
                        1331 --542:     else
                        1332 --543:     {
                        1333 --544:         buf_point = 0;
                        1334 --line544
                        1335 ..lin.D.3A.5CRenesas_Electronics.5CD1x_RGL.5Crgl_ghs_D1Lx_obj_V1.2E2.2E0.5Cvlib.5Capp.5Cgfx_apps.5Csimple_draw_d1l2.5Ctarget.5Cd1lx_mango_ghs.5Cobj.5Cyd_sfma_flash.55::
                        1336 .LDWlin55:
00000358 00ea           1337 	mov	0,r29
                        1338 --545:         while (Size > 0L)
0000035a d52d*          1339 	br	.L932
                        1340 .L934:
                        1341 --546:         {
                        1342 --547:             if ((Size - LOC_YD_SFMA_UNIT_32BIT) <= 0)
                        1343 --line547
                        1344 ..lin.D.3A.5CRenesas_Electronics.5CD1x_RGL.5Crgl_ghs_D1Lx_obj_V1.2E2.2E0.5Cvlib.5Capp.5Cgfx_apps.5Csimple_draw_d1l2.5Ctarget.5Cd1lx_mango_ghs.5Cobj.5Cyd_sfma_flash.56::
                        1345 .LDWlin56:
0000035c 1a0efcff       1346 	addi	-4,r26,r1
00000360 e009           1347 	cmp	zero,r1
00000362 bf05*          1348 	bgt	.L935
                        1349 --548:             {
                        1350 --549:                 SpibscReg->Sslkp = YD_SFMA_SPIBSC_SPISSL_NEGATE;
                        1351 --line549
                        1352 ..lin.D.3A.5CRenesas_Electronics.5CD1x_RGL.5Crgl_ghs_D1Lx_obj_V1.2E2.2E0.5Cvlib.5Capp.5Cgfx_apps.5Csimple_draw_d1l2.5Ctarget.5Cd1lx_mango_ghs.5Cobj.5Cyd_sfma_flash.57::
                        1353 .LDWlin57:
00000364 7c072900       1354 	st.w	zero,40[r28]
                        1355 .L935:
                        1356 --550:             }
                        1357 --552:             ret = YD_SFMA_SpibscReadTransfer(Unit, SpibscReg);
00000368 23370100       1358 	ld.w	0[sp],r6
0000036c 1c38           1359 	mov	r28,r7
                        1360 	jarl	_YD_SFMA_SpibscReadTransfer,lp
                        1360 <EXPANSION BEGIN>
                        1360 jarl22 _YD_SFMA_SpibscReadTransfer , lp 
0000036e 80ff0000*      1360 <EXPANSION END>
00000372 0ad8           1361 	mov	r10,r27
                        1362 --553:             if (ret == YD_SFMA_ERR_OK)
                        1363 --line553
                        1364 ..lin.D.3A.5CRenesas_Electronics.5CD1x_RGL.5Crgl_ghs_D1Lx_obj_V1.2E2.2E0.5Cvlib.5Capp.5Cgfx_apps.5Csimple_draw_d1l2.5Ctarget.5Cd1lx_mango_ghs.5Cobj.5Cyd_sfma_flash.58::
                        1365 .LDWlin58:
00000374 e0d9           1366 	cmp	zero,r27
00000376 ea1d*          1367 	bne	.L937
                        1368 --554:             {
                        1369 --555:                 *(Buffer + buf_point) = (uint8_t)SpibscReg->Smrdr[YD_SFMA_SMRDR_DATA_0];
                        1370 --line555
                        1371 ..lin.D.3A.5CRenesas_Electronics.5CD1x_RGL.5Crgl_ghs_D1Lx_obj_V1.2E2.2E0.5Cvlib.5Capp.5Cgfx_apps.5Csimple_draw_d1l2.5Ctarget.5Cd1lx_mango_ghs.5Cobj.5Cyd_sfma_flash.59::

                                                                      Page 24
                                                              C:\Users\YINGAO~1\AppData\Local\Temp\gh_00007ak1.si
                        1372 .LDWlin59:
00000378 3c0f4900       1373 	ld.w	72[r28],r1
0000037c 1df0           1374 	mov	r29,ep
0000037e d9f1           1375 	add	r25,ep
00000380 800b           1376 	sst.b	r1,0[ep]
                        1377 --556:                 buf_point++;
00000382 41ea           1378 	add	1,r29
                        1379 --557:                 *(Buffer + buf_point) = (uint8_t)(SpibscReg->Smrdr[YD_SFMA_SMRDR_DATA_0]
00000384 3c0f4900       1380 	ld.w	72[r28],r1
00000388 1df0           1381 	mov	r29,ep
0000038a d9f1           1382 	add	r25,ep
0000038c 880a           1383 	shr	8,r1
0000038e 800b           1384 	sst.b	r1,0[ep]
                        1385 --558:                                       >> YD_SFMA_SHIFT_BYTE);
                        1386 --559:                 buf_point++;
00000390 41ea           1387 	add	1,r29
                        1388 --560:                 *(Buffer + buf_point) = (uint8_t)(SpibscReg->Smrdr[YD_SFMA_SMRDR_DATA_0]
00000392 3c0f4900       1389 	ld.w	72[r28],r1
00000396 1df0           1390 	mov	r29,ep
00000398 d9f1           1391 	add	r25,ep
0000039a 900a           1392 	shr	16,r1
0000039c 800b           1393 	sst.b	r1,0[ep]
                        1394 --561:                                       >> YD_SFMA_SHIFT_2BYTE);
                        1395 --562:                 buf_point++;
0000039e 41ea           1396 	add	1,r29
                        1397 --563:                 *(Buffer + buf_point) = (uint8_t)(SpibscReg->Smrdr[YD_SFMA_SMRDR_DATA_0]
000003a0 3c0f4900       1398 	ld.w	72[r28],r1
000003a4 1df0           1399 	mov	r29,ep
000003a6 d9f1           1400 	add	r25,ep
000003a8 980a           1401 	shr	24,r1
000003aa 800b           1402 	sst.b	r1,0[ep]
                        1403 --564:                                       >> YD_SFMA_SHIFT_3BYTE);
                        1404 --565:                 buf_point++;
000003ac 41ea           1405 	add	1,r29
                        1406 --567:                 Size -= LOC_YD_SFMA_UNIT_32BIT;
000003ae 5cd2           1407 	add	-4,r26
000003b0 a505*          1408 	br	.L932
                        1409 .L937:
                        1410 --568:             }
                        1411 --569:             else
                        1412 --570:             {
                        1413 --571:                 break;
                        1414 --line571
                        1415 ..lin.D.3A.5CRenesas_Electronics.5CD1x_RGL.5Crgl_ghs_D1Lx_obj_V1.2E2.2E0.5Cvlib.5Capp.5Cgfx_apps.5Csimple_draw_d1l2.5Ctarget.5Cd1lx_mango_ghs.5Cobj.5Cyd_sfma_flash.60::
                        1416 .LDWlin60:
000003b2 b505*          1417 	br	.L931
                        1418 .L932:
                        1419 --line545
                        1420 ..lin.D.3A.5CRenesas_Electronics.5CD1x_RGL.5Crgl_ghs_D1Lx_obj_V1.2E2.2E0.5Cvlib.5Capp.5Cgfx_apps.5Csimple_draw_d1l2.5Ctarget.5Cd1lx_mango_ghs.5Cobj.5Cyd_sfma_flash.61::
                        1421 .LDWlin61:
000003b4 e0d1           1422 	cmp	zero,r26
000003b6 bfd5*          1423 	bgt	.L934
                        1424 .L931:
                        1425 --572:             }
                        1426 --573:         }
                        1427 --574:     }
                        1428 --576:     return ret;
                        1429 --line576
                        1430 ..lin.D.3A.5CRenesas_Electronics.5CD1x_RGL.5Crgl_ghs_D1Lx_obj_V1.2E2.2E0.5Cvlib.5Capp.5Cgfx_apps.5Csimple_draw_d1l2.5Ctarget.5Cd1lx_mango_ghs.5Cobj.5Cyd_sfma_flash.62::
                        1431 .LDWlin62:
000003b8 1b50           1432 	mov	r27,r10

                                                                      Page 25
                                                              C:\Users\YINGAO~1\AppData\Local\Temp\gh_00007ak1.si
                        1433 --	    .ef
                        1434 .LDW92:
000003ba 4206ff70       1435 	dispose	1,{r25,r26,r27,r28,r29,r31},[lp]
                        1436 	.type	_YD_SFMA_32bitDataRead,@function
                        1437 	.size	_YD_SFMA_32bitDataRead,.-_YD_SFMA_32bitDataRead
                        1438 	.type	_YD_SFMA_32bitDataRead..D.3A.5CRenesas_Electronics.5CD1x_RGL.5Crgl_ghs_D1Lx_obj_V1.2E2.2E0.5Cvlib.5Capp.5Cgfx_apps.5Csimple_draw_d1l2.5Ctarget.5Cd1lx_mango_ghs.5Cobj.5Cyd_sfma_flash.,@function
                        1439 	.size	_YD_SFMA_32bitDataRead..D.3A.5CRenesas_Electronics.5CD1x_RGL.5Crgl_ghs_D1Lx_obj_V1.2E2.2E0.5Cvlib.5Capp.5Cgfx_apps.5Csimple_draw_d1l2.5Ctarget.5Cd1lx_mango_ghs.5Cobj.5Cyd_sfma_flash.,.-_YD_SFMA_32bitDataRead..D.3A.5CRenesas_Electronics.5CD1x_RGL.5Crgl_ghs_D1Lx_obj_V1.2E2.2E0.5Cvlib.5Capp.5Cgfx_apps.5Csimple_draw_d1l2.5Ctarget.5Cd1lx_mango_ghs.5Cobj.5Cyd_sfma_flash.
                        1440 	.align	2
                        1441 .LDW03:
                        1442 --_ret	r27	local
                        1443 --_buf_point	r29	local
                        1444 
                        1445 --_Unit	0[sp]	param
                        1446 --_SpibscReg	r28	param
                        1447 --_Buffer	r25	param
                        1448 --_Size	r26	param
                        1449 
                        1450 	.section ".bss","awb"
                        1451 .L994:
                        1452 	.type	.L994,@object
                        1453 	.size	.L994,0
                        1454 	.data
                        1455 	.text
                        1456 
                        1457 --577: }
                        1458 
                        1459 --579: /***************************************************************************
                        1460 --580:   Function: loc_SFMA_64bitDataRead
                        1461 --582:   Description:
                        1462 --583:   This function reads 64 bit data from the serial flash memory.
                        1463 --585:   Parameter:
                        1464 --586:   Unit     - The parameter specifies the instance number.
                        1465 --587:   r_Spibsc - This is a pointer to the yd_sfma_SpibscSpimdReg_t structure to
                        1466 --588:              the register setting to transfer data.
                        1467 --589:   Buffer   - This is a pointer to the address of buffer.
                        1468 --590:   Size     - The parameter specifies the data size (in bytes) to read.
                        1469 --592:   Return value:
                        1470 --593:   See <yd_sfma_Error_t>.
                        1471 --594: */
                        1472 --595: static yd_sfma_Error_t YD_SFMA_64bitDataRead(const uint32_t                Unit,
                        1473 --596:                                                    yd_sfma_SpibscSpimdReg_t *SpibscReg,
                        1474 --597:                                                    uint8_t                 *Buffer,
                        1475 --598:                                                    int32_t                 Size);
                        1476 --600: static yd_sfma_Error_t YD_SFMA_64bitDataRead(const uint32_t                Unit,
                        1477 	.align	2
                        1478 	.align	2
                        1479 	.global	_YD_SFMA_64bitDataRead..D.3A.5CRenesas_Electronics.5CD1x_RGL.5Crgl_ghs_D1Lx_obj_V1.2E2.2E0.5Cvlib.5Capp.5Cgfx_apps.5Csimple_draw_d1l2.5Ctarget.5Cd1lx_mango_ghs.5Cobj.5Cyd_sfma_flash.
                        1480 _YD_SFMA_64bitDataRead..D.3A.5CRenesas_Electronics.5CD1x_RGL.5Crgl_ghs_D1Lx_obj_V1.2E2.2E0.5Cvlib.5Capp.5Cgfx_apps.5Csimple_draw_d1l2.5Ctarget.5Cd1lx_mango_ghs.5Cobj.5Cyd_sfma_flash.:
                        1481 _YD_SFMA_64bitDataRead:
000003be 8207e170       1482 	prepare	{r25,r26,r27,r28,r29,r31},1
000003c2 63370100       1483 	st.w	r6,0[sp]
000003c6 07e0           1484 	mov	r7,r28
000003c8 08d8           1485 	mov	r8,r27
000003ca 09c8           1486 	mov	r9,r25
                        1487 --	    .bf
                        1488 .LDW13:
                        1489 --601:                                                    yd_sfma_SpibscSpimdReg_t *SpibscReg,
                        1490 --602:                                                    uint8_t                 *Buffer,
                        1491 --603:                                                    int32_t                 Size)
                        1492 --604: {
                        1493 --605:     yd_sfma_Error_t ret = YD_SFMA_ERR_OK;

                                                                      Page 26
                                                              C:\Users\YINGAO~1\AppData\Local\Temp\gh_00007ak1.si
000003cc 00d2           1494 	mov	0,r26
                        1495 --606:     uint32_t       buf_point;
                        1496 --608:     if ((Buffer == R_NULL) ||
000003ce e0d9           1497 	cmp	zero,r27
000003d0 b205*          1498 	be	.L1072
000003d2 e0e1           1499 	cmp	zero,r28
000003d4 ba05*          1500 	bne	.L1071
                        1501 .L1072:
                        1502 --609:         (SpibscReg == R_NULL))
                        1503 --610:     {
                        1504 --611:         ret = YD_SFMA_ERR_PARAM_INCORRECT;
                        1505 --line611
                        1506 ..lin.D.3A.5CRenesas_Electronics.5CD1x_RGL.5Crgl_ghs_D1Lx_obj_V1.2E2.2E0.5Cvlib.5Capp.5Cgfx_apps.5Csimple_draw_d1l2.5Ctarget.5Cd1lx_mango_ghs.5Cobj.5Cyd_sfma_flash.63::
                        1507 .LDWlin63:
000003d6 02d2           1508 	mov	2,r26
000003d8 c54d*          1509 	br	.L1074
                        1510 .L1071:
                        1511 --612:     }
                        1512 --613:     else
                        1513 --614:     {
                        1514 --615:         buf_point = 0;
                        1515 --line615
                        1516 ..lin.D.3A.5CRenesas_Electronics.5CD1x_RGL.5Crgl_ghs_D1Lx_obj_V1.2E2.2E0.5Cvlib.5Capp.5Cgfx_apps.5Csimple_draw_d1l2.5Ctarget.5Cd1lx_mango_ghs.5Cobj.5Cyd_sfma_flash.64::
                        1517 .LDWlin64:
000003da 00ea           1518 	mov	0,r29
                        1519 --616:         while (Size > 0L)
000003dc 854d*          1520 	br	.L1075
                        1521 .L1077:
                        1522 --617:         {
                        1523 --618:             if ((Size - LOC_YD_SFMA_UNIT_64BIT) <= 0)
                        1524 --line618
                        1525 ..lin.D.3A.5CRenesas_Electronics.5CD1x_RGL.5Crgl_ghs_D1Lx_obj_V1.2E2.2E0.5Cvlib.5Capp.5Cgfx_apps.5Csimple_draw_d1l2.5Ctarget.5Cd1lx_mango_ghs.5Cobj.5Cyd_sfma_flash.65::
                        1526 .LDWlin65:
000003de 190ef8ff       1527 	addi	-8,r25,r1
000003e2 e009           1528 	cmp	zero,r1
000003e4 bf05*          1529 	bgt	.L1078
                        1530 --619:             {
                        1531 --620:                 SpibscReg->Sslkp = YD_SFMA_SPIBSC_SPISSL_NEGATE;
                        1532 --line620
                        1533 ..lin.D.3A.5CRenesas_Electronics.5CD1x_RGL.5Crgl_ghs_D1Lx_obj_V1.2E2.2E0.5Cvlib.5Capp.5Cgfx_apps.5Csimple_draw_d1l2.5Ctarget.5Cd1lx_mango_ghs.5Cobj.5Cyd_sfma_flash.66::
                        1534 .LDWlin66:
000003e6 7c072900       1535 	st.w	zero,40[r28]
                        1536 .L1078:
                        1537 --621:             }
                        1538 --623:             ret = YD_SFMA_SpibscReadTransfer(Unit, SpibscReg);
000003ea 23370100       1539 	ld.w	0[sp],r6
000003ee 1c38           1540 	mov	r28,r7
                        1541 	jarl	_YD_SFMA_SpibscReadTransfer,lp
                        1541 <EXPANSION BEGIN>
                        1541 jarl22 _YD_SFMA_SpibscReadTransfer , lp 
000003f0 80ff0000*      1541 <EXPANSION END>
000003f4 0ad0           1542 	mov	r10,r26
                        1543 --624:             if (ret == YD_SFMA_ERR_OK)
                        1544 --line624
                        1545 ..lin.D.3A.5CRenesas_Electronics.5CD1x_RGL.5Crgl_ghs_D1Lx_obj_V1.2E2.2E0.5Cvlib.5Capp.5Cgfx_apps.5Csimple_draw_d1l2.5Ctarget.5Cd1lx_mango_ghs.5Cobj.5Cyd_sfma_flash.67::
                        1546 .LDWlin67:
000003f6 e0d1           1547 	cmp	zero,r26
000003f8 9a3d*          1548 	bne	.L1080
                        1549 --625:             {
                        1550 --626:                 *(Buffer + buf_point) = (uint8_t)SpibscReg->Smrdr[YD_SFMA_SMRDR_DATA_1];
                        1551 --line626

                                                                      Page 27
                                                              C:\Users\YINGAO~1\AppData\Local\Temp\gh_00007ak1.si
                        1552 ..lin.D.3A.5CRenesas_Electronics.5CD1x_RGL.5Crgl_ghs_D1Lx_obj_V1.2E2.2E0.5Cvlib.5Capp.5Cgfx_apps.5Csimple_draw_d1l2.5Ctarget.5Cd1lx_mango_ghs.5Cobj.5Cyd_sfma_flash.68::
                        1553 .LDWlin68:
000003fa 3c0f4d00       1554 	ld.w	76[r28],r1
000003fe 1df0           1555 	mov	r29,ep
00000400 dbf1           1556 	add	r27,ep
00000402 800b           1557 	sst.b	r1,0[ep]
                        1558 --627:                 buf_point++;
00000404 41ea           1559 	add	1,r29
                        1560 --628:                 *(Buffer + buf_point) = (uint8_t)(SpibscReg->Smrdr[YD_SFMA_SMRDR_DATA_1]
00000406 3c0f4d00       1561 	ld.w	76[r28],r1
0000040a 1df0           1562 	mov	r29,ep
0000040c dbf1           1563 	add	r27,ep
0000040e 880a           1564 	shr	8,r1
00000410 800b           1565 	sst.b	r1,0[ep]
                        1566 --629:                                       >> YD_SFMA_SHIFT_BYTE);
                        1567 --630:                 buf_point++;
00000412 41ea           1568 	add	1,r29
                        1569 --631:                 *(Buffer + buf_point) = (uint8_t)(SpibscReg->Smrdr[YD_SFMA_SMRDR_DATA_1]
00000414 3c0f4d00       1570 	ld.w	76[r28],r1
00000418 1df0           1571 	mov	r29,ep
0000041a dbf1           1572 	add	r27,ep
0000041c 900a           1573 	shr	16,r1
0000041e 800b           1574 	sst.b	r1,0[ep]
                        1575 --632:                                       >> YD_SFMA_SHIFT_2BYTE);
                        1576 --633:                 buf_point++;
00000420 41ea           1577 	add	1,r29
                        1578 --634:                 *(Buffer + buf_point) = (uint8_t)(SpibscReg->Smrdr[YD_SFMA_SMRDR_DATA_1]
00000422 3c0f4d00       1579 	ld.w	76[r28],r1
00000426 1df0           1580 	mov	r29,ep
00000428 dbf1           1581 	add	r27,ep
0000042a 980a           1582 	shr	24,r1
0000042c 800b           1583 	sst.b	r1,0[ep]
                        1584 --635:                                       >> YD_SFMA_SHIFT_3BYTE);
                        1585 --636:                 buf_point++;
0000042e 41ea           1586 	add	1,r29
                        1587 --638:                 *(Buffer + buf_point) = (uint8_t)SpibscReg->Smrdr[YD_SFMA_SMRDR_DATA_0];
00000430 3c0f4900       1588 	ld.w	72[r28],r1
00000434 1df0           1589 	mov	r29,ep
00000436 dbf1           1590 	add	r27,ep
00000438 800b           1591 	sst.b	r1,0[ep]
                        1592 --639:                 buf_point++;
0000043a 41ea           1593 	add	1,r29
                        1594 --640:                 *(Buffer + buf_point) = (uint8_t)(SpibscReg->Smrdr[YD_SFMA_SMRDR_DATA_0]
0000043c 3c0f4900       1595 	ld.w	72[r28],r1
00000440 1df0           1596 	mov	r29,ep
00000442 dbf1           1597 	add	r27,ep
00000444 880a           1598 	shr	8,r1
00000446 800b           1599 	sst.b	r1,0[ep]
                        1600 --641:                                       >> YD_SFMA_SHIFT_BYTE);
                        1601 --642:                 buf_point++;
00000448 41ea           1602 	add	1,r29
                        1603 --643:                 *(Buffer + buf_point) = (uint8_t)(SpibscReg->Smrdr[YD_SFMA_SMRDR_DATA_0]
0000044a 3c0f4900       1604 	ld.w	72[r28],r1
0000044e 1df0           1605 	mov	r29,ep
00000450 dbf1           1606 	add	r27,ep
00000452 900a           1607 	shr	16,r1
00000454 800b           1608 	sst.b	r1,0[ep]
                        1609 --644:                                       >> YD_SFMA_SHIFT_2BYTE);
                        1610 --645:                 buf_point++;
00000456 41ea           1611 	add	1,r29
                        1612 --646:                 *(Buffer + buf_point) = (uint8_t)(SpibscReg->Smrdr[YD_SFMA_SMRDR_DATA_0]

                                                                      Page 28
                                                              C:\Users\YINGAO~1\AppData\Local\Temp\gh_00007ak1.si
00000458 3c0f4900       1613 	ld.w	72[r28],r1
0000045c 1df0           1614 	mov	r29,ep
0000045e dbf1           1615 	add	r27,ep
00000460 980a           1616 	shr	24,r1
00000462 800b           1617 	sst.b	r1,0[ep]
                        1618 --647:                                       >> YD_SFMA_SHIFT_3BYTE);
                        1619 --648:                 buf_point++;
00000464 41ea           1620 	add	1,r29
                        1621 --650:                 Size -= LOC_YD_SFMA_UNIT_64BIT;
00000466 58ca           1622 	add	-8,r25
00000468 a505*          1623 	br	.L1075
                        1624 .L1080:
                        1625 --651:             }
                        1626 --652:             else
                        1627 --653:             {
                        1628 --654:                 break;
                        1629 --line654
                        1630 ..lin.D.3A.5CRenesas_Electronics.5CD1x_RGL.5Crgl_ghs_D1Lx_obj_V1.2E2.2E0.5Cvlib.5Capp.5Cgfx_apps.5Csimple_draw_d1l2.5Ctarget.5Cd1lx_mango_ghs.5Cobj.5Cyd_sfma_flash.69::
                        1631 .LDWlin69:
0000046a b505*          1632 	br	.L1074
                        1633 .L1075:
                        1634 --line616
                        1635 ..lin.D.3A.5CRenesas_Electronics.5CD1x_RGL.5Crgl_ghs_D1Lx_obj_V1.2E2.2E0.5Cvlib.5Capp.5Cgfx_apps.5Csimple_draw_d1l2.5Ctarget.5Cd1lx_mango_ghs.5Cobj.5Cyd_sfma_flash.70::
                        1636 .LDWlin70:
0000046c e0c9           1637 	cmp	zero,r25
0000046e 8fbd*          1638 	bgt	.L1077
                        1639 .L1074:
                        1640 --655:             }
                        1641 --656:         }
                        1642 --657:     }
                        1643 --659:     return ret;
                        1644 --line659
                        1645 ..lin.D.3A.5CRenesas_Electronics.5CD1x_RGL.5Crgl_ghs_D1Lx_obj_V1.2E2.2E0.5Cvlib.5Capp.5Cgfx_apps.5Csimple_draw_d1l2.5Ctarget.5Cd1lx_mango_ghs.5Cobj.5Cyd_sfma_flash.71::
                        1646 .LDWlin71:
00000470 1a50           1647 	mov	r26,r10
                        1648 --	    .ef
                        1649 .LDW23:
00000472 4206ff70       1650 	dispose	1,{r25,r26,r27,r28,r29,r31},[lp]
                        1651 	.type	_YD_SFMA_64bitDataRead,@function
                        1652 	.size	_YD_SFMA_64bitDataRead,.-_YD_SFMA_64bitDataRead
                        1653 	.type	_YD_SFMA_64bitDataRead..D.3A.5CRenesas_Electronics.5CD1x_RGL.5Crgl_ghs_D1Lx_obj_V1.2E2.2E0.5Cvlib.5Capp.5Cgfx_apps.5Csimple_draw_d1l2.5Ctarget.5Cd1lx_mango_ghs.5Cobj.5Cyd_sfma_flash.,@function
                        1654 	.size	_YD_SFMA_64bitDataRead..D.3A.5CRenesas_Electronics.5CD1x_RGL.5Crgl_ghs_D1Lx_obj_V1.2E2.2E0.5Cvlib.5Capp.5Cgfx_apps.5Csimple_draw_d1l2.5Ctarget.5Cd1lx_mango_ghs.5Cobj.5Cyd_sfma_flash.,.-_YD_SFMA_64bitDataRead..D.3A.5CRenesas_Electronics.5CD1x_RGL.5Crgl_ghs_D1Lx_obj_V1.2E2.2E0.5Cvlib.5Capp.5Cgfx_apps.5Csimple_draw_d1l2.5Ctarget.5Cd1lx_mango_ghs.5Cobj.5Cyd_sfma_flash.
                        1655 	.align	2
                        1656 .LDW33:
                        1657 --_ret	r26	local
                        1658 --_buf_point	r29	local
                        1659 
                        1660 --_Unit	0[sp]	param
                        1661 --_SpibscReg	r28	param
                        1662 --_Buffer	r27	param
                        1663 --_Size	r25	param
                        1664 
                        1665 	.section ".bss","awb"
                        1666 .L1154:
                        1667 	.type	.L1154,@object
                        1668 	.size	.L1154,0
                        1669 	.data
                        1670 	.text
                        1671 
                        1672 --660: }
                        1673 

                                                                      Page 29
                                                              C:\Users\YINGAO~1\AppData\Local\Temp\gh_00007ak1.si
                        1674 --662: /***************************************************************************
                        1675 --663:   Function: loc_SFMA_DataWriteSelect
                        1676 --665:   Description:
                        1677 --666:   This function selects an appropriate writing function in the data size.
                        1678 --668:   Parameter:
                        1679 --669:   Unit     - The parameter specifies the instance number.
                        1680 --670:   r_Spibsc - This is a pointer to the yd_sfma_SpibscSpimdReg_t
                        1681 --671:              structure to the register setting to transfer data.
                        1682 --672:   Buffer   - This is a pointer to the address of buffer.
                        1683 --673:   Size     - The parameter specifies the data size (in bytes) to read.
                        1684 --674:   Config   - This is a pointer to the yd_sfma_SpiConfig_t structure to the
                        1685 --675:              configuration of the unit.
                        1686 --677:   Return value:
                        1687 --678:   See <yd_sfma_Error_t>.
                        1688 --679: */
                        1689 --680: static yd_sfma_Error_t YD_SFMA_DataWriteSelect(const uint32_t                Unit,
                        1690 --681:                                                      yd_sfma_SpibscSpimdReg_t *SpibscReg,
                        1691 --682:                                                const uint8_t * const         Buf,
                        1692 --683:                                                const int32_t                 Size,
                        1693 --684:                                                const yd_sfma_SpiConfig_t      *Config);
                        1694 --686: static yd_sfma_Error_t YD_SFMA_DataWriteSelect(const uint32_t                Unit,
                        1695 	.align	2
                        1696 	.align	2
                        1697 	.global	_YD_SFMA_DataWriteSelect..D.3A.5CRenesas_Electronics.5CD1x_RGL.5Crgl_ghs_D1Lx_obj_V1.2E2.2E0.5Cvlib.5Capp.5Cgfx_apps.5Csimple_draw_d1l2.5Ctarget.5Cd1lx_mango_ghs.5Cobj.5Cyd_sfma_flash.
                        1698 _YD_SFMA_DataWriteSelect..D.3A.5CRenesas_Electronics.5CD1x_RGL.5Crgl_ghs_D1Lx_obj_V1.2E2.2E0.5Cvlib.5Capp.5Cgfx_apps.5Csimple_draw_d1l2.5Ctarget.5Cd1lx_mango_ghs.5Cobj.5Cyd_sfma_flash.:
                        1699 _YD_SFMA_DataWriteSelect:
00000476 8007e170       1700 	prepare	{r25,r26,r27,r28,r29,r31},0
0000047a 06d0           1701 	mov	r6,r26
0000047c 07e0           1702 	mov	r7,r28
0000047e 08c8           1703 	mov	r8,r25
00000480 09d8           1704 	mov	r9,r27
                        1705 --	    .bf
                        1706 .LDW43:
                        1707 --687:                                                      yd_sfma_SpibscSpimdReg_t *SpibscReg,
                        1708 --688:                                                const uint8_t * const         Buf,
                        1709 --689:                                                const int32_t                 Size,
                        1710 --690:                                                const yd_sfma_SpiConfig_t      *Config)
                        1711 --691: {
                        1712 --692:     yd_sfma_Error_t ret;
                        1713 --694:     if ((Config == R_NULL) ||
00000482 230f1900       1714 	ld.w	24[sp],r1
00000486 e009           1715 	cmp	zero,r1
00000488 b205*          1716 	be	.L1256
0000048a e0e1           1717 	cmp	zero,r28
0000048c ba05*          1718 	bne	.L1255
                        1719 .L1256:
                        1720 --695:         (SpibscReg == R_NULL))
                        1721 --696:     {
                        1722 --697:         ret = YD_SFMA_ERR_PARAM_INCORRECT;
                        1723 --line697
                        1724 ..lin.D.3A.5CRenesas_Electronics.5CD1x_RGL.5Crgl_ghs_D1Lx_obj_V1.2E2.2E0.5Cvlib.5Capp.5Cgfx_apps.5Csimple_draw_d1l2.5Ctarget.5Cd1lx_mango_ghs.5Cobj.5Cyd_sfma_flash.72::
                        1725 .LDWlin72:
0000048e 02ea           1726 	mov	2,r29
00000490 9565*          1727 	br	.L1258
                        1728 .L1255:
                        1729 --698:     }
                        1730 --699:     else
                        1731 --700:     {
                        1732 --701:         /* ---- Data ---- */
                        1733 --702:         SpibscReg->Spidb = Config->DataWidth;
                        1734 --line702

                                                                      Page 30
                                                              C:\Users\YINGAO~1\AppData\Local\Temp\gh_00007ak1.si
                        1735 ..lin.D.3A.5CRenesas_Electronics.5CD1x_RGL.5Crgl_ghs_D1Lx_obj_V1.2E2.2E0.5Cvlib.5Capp.5Cgfx_apps.5Csimple_draw_d1l2.5Ctarget.5Cd1lx_mango_ghs.5Cobj.5Cyd_sfma_flash.73::
                        1736 .LDWlin73:
00000492 230f1900       1737 	ld.w	24[sp],r1
00000496 810f7100       1738 	ld.bu	112[r1],r1
0000049a 7c0f1100       1739 	st.w	r1,16[r28]
                        1740 --704:         if (Config->MemoryNum == YD_SFMA_SPIBSC_CMNCR_BSZ_DUAL)
0000049e 23f71900       1741 	ld.w	24[sp],ep
000004a2 000d           1742 	sld.w	0[ep],r1
000004a4 610a           1743 	cmp	1,r1
000004a6 8a2d*          1744 	bne	.L1259
                        1745 --705:         {
                        1746 --706:             if ((Size % LOC_YD_SFMA_UNIT_64BIT) == 0)
                        1747 --line706
                        1748 ..lin.D.3A.5CRenesas_Electronics.5CD1x_RGL.5Crgl_ghs_D1Lx_obj_V1.2E2.2E0.5Cvlib.5Capp.5Cgfx_apps.5Csimple_draw_d1l2.5Ctarget.5Cd1lx_mango_ghs.5Cobj.5Cyd_sfma_flash.74::
                        1749 .LDWlin74:
000004a8 db060700       1750 	andi	7,r27,zero
000004ac ca0d*          1751 	bne	.L1261
                        1752 --707:             {
                        1753 --708:                 SpibscReg->Spide = YD_SFMA_SPIBSC_OUTPUT_SPID_32;  /* Enable(64bit) */
                        1754 --line708
                        1755 ..lin.D.3A.5CRenesas_Electronics.5CD1x_RGL.5Crgl_ghs_D1Lx_obj_V1.2E2.2E0.5Cvlib.5Capp.5Cgfx_apps.5Csimple_draw_d1l2.5Ctarget.5Cd1lx_mango_ghs.5Cobj.5Cyd_sfma_flash.75::
                        1756 .LDWlin75:
000004ae 0f0a           1757 	mov	15,r1
000004b0 7c0f2500       1758 	st.w	r1,36[r28]
                        1759 --709:                 ret = YD_SFMA_64bitDataWrite(Unit, SpibscReg, Buf, Size);
000004b4 1a30           1760 	mov	r26,r6
000004b6 1c38           1761 	mov	r28,r7
000004b8 1940           1762 	mov	r25,r8
000004ba 1b48           1763 	mov	r27,r9
                        1764 	jarl	_YD_SFMA_64bitDataWrite,lp
                        1764 <EXPANSION BEGIN>
                        1764 jarl22 _YD_SFMA_64bitDataWrite , lp 
000004bc bfffd2fc*      1764 <EXPANSION END>
000004c0 0ae8           1765 	mov	r10,r29
000004c2 8545*          1766 	br	.L1267
                        1767 .L1261:
                        1768 --710:             }
                        1769 --711:             else if ((Size % LOC_YD_SFMA_UNIT_32BIT) == 0)
                        1770 --line711
                        1771 ..lin.D.3A.5CRenesas_Electronics.5CD1x_RGL.5Crgl_ghs_D1Lx_obj_V1.2E2.2E0.5Cvlib.5Capp.5Cgfx_apps.5Csimple_draw_d1l2.5Ctarget.5Cd1lx_mango_ghs.5Cobj.5Cyd_sfma_flash.76::
                        1772 .LDWlin76:
000004c4 db060300       1773 	andi	3,r27,zero
000004c8 ca0d*          1774 	bne	.L1264
                        1775 --712:             {
                        1776 --713:                 SpibscReg->Spide = YD_SFMA_SPIBSC_OUTPUT_SPID_16;  /* Enable(32bit) */
                        1777 --line713
                        1778 ..lin.D.3A.5CRenesas_Electronics.5CD1x_RGL.5Crgl_ghs_D1Lx_obj_V1.2E2.2E0.5Cvlib.5Capp.5Cgfx_apps.5Csimple_draw_d1l2.5Ctarget.5Cd1lx_mango_ghs.5Cobj.5Cyd_sfma_flash.77::
                        1779 .LDWlin77:
000004ca 0c0a           1780 	mov	12,r1
000004cc 7c0f2500       1781 	st.w	r1,36[r28]
                        1782 --714:                 ret = YD_SFMA_32bitDataWrite(Unit, SpibscReg, Buf, Size);
000004d0 1a30           1783 	mov	r26,r6
000004d2 1c38           1784 	mov	r28,r7
000004d4 1940           1785 	mov	r25,r8
000004d6 1b48           1786 	mov	r27,r9
                        1787 	jarl	_YD_SFMA_32bitDataWrite,lp
                        1787 <EXPANSION BEGIN>
                        1787 jarl22 _YD_SFMA_32bitDataWrite , lp 
000004d8 bfff16fc*      1787 <EXPANSION END>
000004dc 0ae8           1788 	mov	r10,r29
000004de a535*          1789 	br	.L1267

                                                                      Page 31
                                                              C:\Users\YINGAO~1\AppData\Local\Temp\gh_00007ak1.si
                        1790 .L1264:
                        1791 --715:             }
                        1792 --716:             else
                        1793 --717:             {
                        1794 --718:                 SpibscReg->Spide = YD_SFMA_SPIBSC_OUTPUT_SPID_8;   /* Enable(16bit) */
                        1795 --line718
                        1796 ..lin.D.3A.5CRenesas_Electronics.5CD1x_RGL.5Crgl_ghs_D1Lx_obj_V1.2E2.2E0.5Cvlib.5Capp.5Cgfx_apps.5Csimple_draw_d1l2.5Ctarget.5Cd1lx_mango_ghs.5Cobj.5Cyd_sfma_flash.78::
                        1797 .LDWlin78:
000004e0 080a           1798 	mov	8,r1
000004e2 7c0f2500       1799 	st.w	r1,36[r28]
                        1800 --719:                 ret = YD_SFMA_16bitDataWrite(Unit, SpibscReg, Buf, Size);
000004e6 1a30           1801 	mov	r26,r6
000004e8 1c38           1802 	mov	r28,r7
000004ea 1940           1803 	mov	r25,r8
000004ec 1b48           1804 	mov	r27,r9
                        1805 	jarl	_YD_SFMA_16bitDataWrite,lp
                        1805 <EXPANSION BEGIN>
                        1805 jarl22 _YD_SFMA_16bitDataWrite , lp 
000004ee bfff70fb*      1805 <EXPANSION END>
000004f2 0ae8           1806 	mov	r10,r29
000004f4 f525*          1807 	br	.L1267
                        1808 .L1259:
                        1809 --720:             }
                        1810 --721:         }
                        1811 --722:         else
                        1812 --723:         {
                        1813 --724:             if ((Size % LOC_YD_SFMA_UNIT_32BIT) == 0)
                        1814 --line724
                        1815 ..lin.D.3A.5CRenesas_Electronics.5CD1x_RGL.5Crgl_ghs_D1Lx_obj_V1.2E2.2E0.5Cvlib.5Capp.5Cgfx_apps.5Csimple_draw_d1l2.5Ctarget.5Cd1lx_mango_ghs.5Cobj.5Cyd_sfma_flash.79::
                        1816 .LDWlin79:
000004f6 db060300       1817 	andi	3,r27,zero
000004fa ca0d*          1818 	bne	.L1268
                        1819 --725:             {
                        1820 --726:                 SpibscReg->Spide = YD_SFMA_SPIBSC_OUTPUT_SPID_32;  /* Enable(32bit) */
                        1821 --line726
                        1822 ..lin.D.3A.5CRenesas_Electronics.5CD1x_RGL.5Crgl_ghs_D1Lx_obj_V1.2E2.2E0.5Cvlib.5Capp.5Cgfx_apps.5Csimple_draw_d1l2.5Ctarget.5Cd1lx_mango_ghs.5Cobj.5Cyd_sfma_flash.80::
                        1823 .LDWlin80:
000004fc 0f0a           1824 	mov	15,r1
000004fe 7c0f2500       1825 	st.w	r1,36[r28]
                        1826 --727:                 ret = YD_SFMA_32bitDataWrite(Unit, SpibscReg, Buf, Size);
00000502 1a30           1827 	mov	r26,r6
00000504 1c38           1828 	mov	r28,r7
00000506 1940           1829 	mov	r25,r8
00000508 1b48           1830 	mov	r27,r9
                        1831 	jarl	_YD_SFMA_32bitDataWrite,lp
                        1831 <EXPANSION BEGIN>
                        1831 jarl22 _YD_SFMA_32bitDataWrite , lp 
0000050a bfffe4fb*      1831 <EXPANSION END>
0000050e 0ae8           1832 	mov	r10,r29
00000510 951d*          1833 	br	.L1267
                        1834 .L1268:
                        1835 --728:             }
                        1836 --729:             else if ((Size % LOC_YD_SFMA_UNIT_16BIT) == 0)
                        1837 --line729
                        1838 ..lin.D.3A.5CRenesas_Electronics.5CD1x_RGL.5Crgl_ghs_D1Lx_obj_V1.2E2.2E0.5Cvlib.5Capp.5Cgfx_apps.5Csimple_draw_d1l2.5Ctarget.5Cd1lx_mango_ghs.5Cobj.5Cyd_sfma_flash.81::
                        1839 .LDWlin81:
00000512 db060100       1840 	andi	1,r27,zero
00000516 ca0d*          1841 	bne	.L1271
                        1842 --730:             {
                        1843 --731:                 SpibscReg->Spide = YD_SFMA_SPIBSC_OUTPUT_SPID_16;  /* Enable(16bit) */
                        1844 --line731

                                                                      Page 32
                                                              C:\Users\YINGAO~1\AppData\Local\Temp\gh_00007ak1.si
                        1845 ..lin.D.3A.5CRenesas_Electronics.5CD1x_RGL.5Crgl_ghs_D1Lx_obj_V1.2E2.2E0.5Cvlib.5Capp.5Cgfx_apps.5Csimple_draw_d1l2.5Ctarget.5Cd1lx_mango_ghs.5Cobj.5Cyd_sfma_flash.82::
                        1846 .LDWlin82:
00000518 0c0a           1847 	mov	12,r1
0000051a 7c0f2500       1848 	st.w	r1,36[r28]
                        1849 --732:                 ret = YD_SFMA_16bitDataWrite(Unit, SpibscReg, Buf, Size);
0000051e 1a30           1850 	mov	r26,r6
00000520 1c38           1851 	mov	r28,r7
00000522 1940           1852 	mov	r25,r8
00000524 1b48           1853 	mov	r27,r9
                        1854 	jarl	_YD_SFMA_16bitDataWrite,lp
                        1854 <EXPANSION BEGIN>
                        1854 jarl22 _YD_SFMA_16bitDataWrite , lp 
00000526 bfff38fb*      1854 <EXPANSION END>
0000052a 0ae8           1855 	mov	r10,r29
0000052c b50d*          1856 	br	.L1267
                        1857 .L1271:
                        1858 --733:             }
                        1859 --734:             else
                        1860 --735:             {
                        1861 --736:                 SpibscReg->Spide = YD_SFMA_SPIBSC_OUTPUT_SPID_8;   /* Enable(8bit) */
                        1862 --line736
                        1863 ..lin.D.3A.5CRenesas_Electronics.5CD1x_RGL.5Crgl_ghs_D1Lx_obj_V1.2E2.2E0.5Cvlib.5Capp.5Cgfx_apps.5Csimple_draw_d1l2.5Ctarget.5Cd1lx_mango_ghs.5Cobj.5Cyd_sfma_flash.83::
                        1864 .LDWlin83:
0000052e 080a           1865 	mov	8,r1
00000530 7c0f2500       1866 	st.w	r1,36[r28]
                        1867 --737:                 ret = YD_SFMA_8bitDataWrite(Unit, SpibscReg, Buf, Size);
00000534 1a30           1868 	mov	r26,r6
00000536 1c38           1869 	mov	r28,r7
00000538 1940           1870 	mov	r25,r8
0000053a 1b48           1871 	mov	r27,r9
                        1872 	jarl	_YD_SFMA_8bitDataWrite,lp
                        1872 <EXPANSION BEGIN>
                        1872 jarl22 _YD_SFMA_8bitDataWrite , lp 
0000053c bfffc4fa*      1872 <EXPANSION END>
00000540 0ae8           1873 	mov	r10,r29
                        1874 .L1267:
                        1875 --738:             }
                        1876 --739:         }
                        1877 --741:         if (ret == YD_SFMA_ERR_OK)
                        1878 --line741
                        1879 ..lin.D.3A.5CRenesas_Electronics.5CD1x_RGL.5Crgl_ghs_D1Lx_obj_V1.2E2.2E0.5Cvlib.5Capp.5Cgfx_apps.5Csimple_draw_d1l2.5Ctarget.5Cd1lx_mango_ghs.5Cobj.5Cyd_sfma_flash.84::
                        1880 .LDWlin84:
00000542 e0e9           1881 	cmp	zero,r29
00000544 fa05*          1882 	bne	.L1258
                        1883 --742:         {
                        1884 --743:             ret = YD_SFMA_SpibscBusyWait(Unit, Config);
                        1885 --line743
                        1886 ..lin.D.3A.5CRenesas_Electronics.5CD1x_RGL.5Crgl_ghs_D1Lx_obj_V1.2E2.2E0.5Cvlib.5Capp.5Cgfx_apps.5Csimple_draw_d1l2.5Ctarget.5Cd1lx_mango_ghs.5Cobj.5Cyd_sfma_flash.85::
                        1887 .LDWlin85:
00000546 233f1900       1888 	ld.w	24[sp],r7
0000054a 1a30           1889 	mov	r26,r6
                        1890 	jarl	_YD_SFMA_SpibscBusyWait,lp
                        1890 <EXPANSION BEGIN>
                        1890 jarl22 _YD_SFMA_SpibscBusyWait , lp 
0000054c 80ff0000*      1890 <EXPANSION END>
00000550 0ae8           1891 	mov	r10,r29
                        1892 .L1258:
                        1893 --744:         }
                        1894 --745:     }
                        1895 --747:     return ret;
                        1896 --line747

                                                                      Page 33
                                                              C:\Users\YINGAO~1\AppData\Local\Temp\gh_00007ak1.si
                        1897 ..lin.D.3A.5CRenesas_Electronics.5CD1x_RGL.5Crgl_ghs_D1Lx_obj_V1.2E2.2E0.5Cvlib.5Capp.5Cgfx_apps.5Csimple_draw_d1l2.5Ctarget.5Cd1lx_mango_ghs.5Cobj.5Cyd_sfma_flash.86::
                        1898 .LDWlin86:
00000552 1d50           1899 	mov	r29,r10
                        1900 --	    .ef
                        1901 .LDW53:
00000554 4006ff70       1902 	dispose	0,{r25,r26,r27,r28,r29,r31},[lp]
                        1903 	.type	_YD_SFMA_DataWriteSelect,@function
                        1904 	.size	_YD_SFMA_DataWriteSelect,.-_YD_SFMA_DataWriteSelect
                        1905 	.type	_YD_SFMA_DataWriteSelect..D.3A.5CRenesas_Electronics.5CD1x_RGL.5Crgl_ghs_D1Lx_obj_V1.2E2.2E0.5Cvlib.5Capp.5Cgfx_apps.5Csimple_draw_d1l2.5Ctarget.5Cd1lx_mango_ghs.5Cobj.5Cyd_sfma_flash.,@function
                        1906 	.size	_YD_SFMA_DataWriteSelect..D.3A.5CRenesas_Electronics.5CD1x_RGL.5Crgl_ghs_D1Lx_obj_V1.2E2.2E0.5Cvlib.5Capp.5Cgfx_apps.5Csimple_draw_d1l2.5Ctarget.5Cd1lx_mango_ghs.5Cobj.5Cyd_sfma_flash.,.-_YD_SFMA_DataWriteSelect..D.3A.5CRenesas_Electronics.5CD1x_RGL.5Crgl_ghs_D1Lx_obj_V1.2E2.2E0.5Cvlib.5Capp.5Cgfx_apps.5Csimple_draw_d1l2.5Ctarget.5Cd1lx_mango_ghs.5Cobj.5Cyd_sfma_flash.
                        1907 	.align	2
                        1908 .LDW63:
                        1909 --_ret	r29	local
                        1910 
                        1911 --_Unit	r26	param
                        1912 --_SpibscReg	r28	param
                        1913 --_Buf	r25	param
                        1914 --_Size	r27	param
                        1915 --_Config	24[sp]	param
                        1916 
                        1917 	.section ".bss","awb"
                        1918 .L1334:
                        1919 	.type	.L1334,@object
                        1920 	.size	.L1334,0
                        1921 	.data
                        1922 	.text
                        1923 
                        1924 --748: }
                        1925 
                        1926 --750: /***************************************************************************
                        1927 --751:   Function: loc_SFMA_DataReadSelect
                        1928 --753:   Description:
                        1929 --754:   This function selects an appropriate reading function in the data size.
                        1930 --756:   Parameter:
                        1931 --757:   Unit     - The parameter specifies the instance number.
                        1932 --758:   r_Spibsc - This is a pointer to the yd_sfma_SpibscSpimdReg_t
                        1933 --759:              structure to the register setting to transfer data.
                        1934 --760:   Buffer   - This is a pointer to the address of buffer.
                        1935 --761:   Size     - The parameter specifies the data size (in bytes) to read.
                        1936 --762:   Config   - This is a pointer to the yd_sfma_SpiConfig_t structure to the
                        1937 --763:              configuration of the unit.
                        1938 --765:   Return value:
                        1939 --766:   See <yd_sfma_Error_t>.
                        1940 --767: */
                        1941 --768: static yd_sfma_Error_t YD_SFMA_DataReadSelect(const uint32_t                Unit,
                        1942 --769:                                                     yd_sfma_SpibscSpimdReg_t *SpibscReg,
                        1943 --770:                                                     uint8_t * const         Buf,
                        1944 --771:                                               const int32_t                 Size,
                        1945 --772:                                               const yd_sfma_SpiConfig_t      *Config);
                        1946 --774: static yd_sfma_Error_t YD_SFMA_DataReadSelect(const uint32_t                Unit,
                        1947 	.align	2
                        1948 	.align	2
                        1949 	.global	_YD_SFMA_DataReadSelect..D.3A.5CRenesas_Electronics.5CD1x_RGL.5Crgl_ghs_D1Lx_obj_V1.2E2.2E0.5Cvlib.5Capp.5Cgfx_apps.5Csimple_draw_d1l2.5Ctarget.5Cd1lx_mango_ghs.5Cobj.5Cyd_sfma_flash.
                        1950 _YD_SFMA_DataReadSelect..D.3A.5CRenesas_Electronics.5CD1x_RGL.5Crgl_ghs_D1Lx_obj_V1.2E2.2E0.5Cvlib.5Capp.5Cgfx_apps.5Csimple_draw_d1l2.5Ctarget.5Cd1lx_mango_ghs.5Cobj.5Cyd_sfma_flash.:
                        1951 _YD_SFMA_DataReadSelect:
00000558 8007e170       1952 	prepare	{r25,r26,r27,r28,r29,r31},0
0000055c 06d0           1953 	mov	r6,r26
0000055e 07e8           1954 	mov	r7,r29
00000560 08c8           1955 	mov	r8,r25
00000562 09d8           1956 	mov	r9,r27
                        1957 --	    .bf

                                                                      Page 34
                                                              C:\Users\YINGAO~1\AppData\Local\Temp\gh_00007ak1.si
                        1958 .LDW73:
                        1959 --775:                                                     yd_sfma_SpibscSpimdReg_t *SpibscReg,
                        1960 --776:                                                     uint8_t * const         Buf,
                        1961 --777:                                               const int32_t                 Size,
                        1962 --778:                                               const yd_sfma_SpiConfig_t      *Config)
                        1963 --779: {
                        1964 --780:     yd_sfma_Error_t ret;
                        1965 --782:     if ((Config == R_NULL) ||
00000564 230f1900       1966 	ld.w	24[sp],r1
00000568 e009           1967 	cmp	zero,r1
0000056a b205*          1968 	be	.L1418
0000056c e0e9           1969 	cmp	zero,r29
0000056e ba05*          1970 	bne	.L1417
                        1971 .L1418:
                        1972 --783:         (SpibscReg == R_NULL))
                        1973 --784:     {
                        1974 --785:         ret = YD_SFMA_ERR_PARAM_INCORRECT;
                        1975 --line785
                        1976 ..lin.D.3A.5CRenesas_Electronics.5CD1x_RGL.5Crgl_ghs_D1Lx_obj_V1.2E2.2E0.5Cvlib.5Capp.5Cgfx_apps.5Csimple_draw_d1l2.5Ctarget.5Cd1lx_mango_ghs.5Cobj.5Cyd_sfma_flash.87::
                        1977 .LDWlin87:
00000570 02e2           1978 	mov	2,r28
00000572 955d*          1979 	br	.L1420
                        1980 .L1417:
                        1981 --786:     }
                        1982 --787:     else
                        1983 --788:     {
                        1984 --789:         /* ---- Data ---- */
                        1985 --790:         SpibscReg->Spidb = Config->DataWidth;
                        1986 --line790
                        1987 ..lin.D.3A.5CRenesas_Electronics.5CD1x_RGL.5Crgl_ghs_D1Lx_obj_V1.2E2.2E0.5Cvlib.5Capp.5Cgfx_apps.5Csimple_draw_d1l2.5Ctarget.5Cd1lx_mango_ghs.5Cobj.5Cyd_sfma_flash.88::
                        1988 .LDWlin88:
00000574 230f1900       1989 	ld.w	24[sp],r1
00000578 810f7100       1990 	ld.bu	112[r1],r1
0000057c 7d0f1100       1991 	st.w	r1,16[r29]
                        1992 --792:         if (Config->MemoryNum == YD_SFMA_SPIBSC_CMNCR_BSZ_DUAL)
00000580 23f71900       1993 	ld.w	24[sp],ep
00000584 000d           1994 	sld.w	0[ep],r1
00000586 610a           1995 	cmp	1,r1
00000588 8a2d*          1996 	bne	.L1421
                        1997 --793:         {
                        1998 --794:             if ((Size % LOC_YD_SFMA_UNIT_64BIT) == 0)
                        1999 --line794
                        2000 ..lin.D.3A.5CRenesas_Electronics.5CD1x_RGL.5Crgl_ghs_D1Lx_obj_V1.2E2.2E0.5Cvlib.5Capp.5Cgfx_apps.5Csimple_draw_d1l2.5Ctarget.5Cd1lx_mango_ghs.5Cobj.5Cyd_sfma_flash.89::
                        2001 .LDWlin89:
0000058a db060700       2002 	andi	7,r27,zero
0000058e ca0d*          2003 	bne	.L1423
                        2004 --795:             {
                        2005 --796:                 SpibscReg->Spide = YD_SFMA_SPIBSC_OUTPUT_SPID_32;  /* Enable(64bit) */
                        2006 --line796
                        2007 ..lin.D.3A.5CRenesas_Electronics.5CD1x_RGL.5Crgl_ghs_D1Lx_obj_V1.2E2.2E0.5Cvlib.5Capp.5Cgfx_apps.5Csimple_draw_d1l2.5Ctarget.5Cd1lx_mango_ghs.5Cobj.5Cyd_sfma_flash.90::
                        2008 .LDWlin90:
00000590 0f0a           2009 	mov	15,r1
00000592 7d0f2500       2010 	st.w	r1,36[r29]
                        2011 --797:                 ret = YD_SFMA_64bitDataRead(Unit, SpibscReg, Buf, Size);
00000596 1a30           2012 	mov	r26,r6
00000598 1d38           2013 	mov	r29,r7
0000059a 1940           2014 	mov	r25,r8
0000059c 1b48           2015 	mov	r27,r9
                        2016 	jarl	_YD_SFMA_64bitDataRead,lp
                        2016 <EXPANSION BEGIN>
                        2016 jarl22 _YD_SFMA_64bitDataRead , lp 

                                                                      Page 35
                                                              C:\Users\YINGAO~1\AppData\Local\Temp\gh_00007ak1.si
0000059e bfff20fe*      2016 <EXPANSION END>
000005a2 0ae0           2017 	mov	r10,r28
000005a4 8545*          2018 	br	.L1420
                        2019 .L1423:
                        2020 --798:             }
                        2021 --799:             else if ((Size % LOC_YD_SFMA_UNIT_32BIT) == 0)
                        2022 --line799
                        2023 ..lin.D.3A.5CRenesas_Electronics.5CD1x_RGL.5Crgl_ghs_D1Lx_obj_V1.2E2.2E0.5Cvlib.5Capp.5Cgfx_apps.5Csimple_draw_d1l2.5Ctarget.5Cd1lx_mango_ghs.5Cobj.5Cyd_sfma_flash.91::
                        2024 .LDWlin91:
000005a6 db060300       2025 	andi	3,r27,zero
000005aa ca0d*          2026 	bne	.L1426
                        2027 --800:             {
                        2028 --801:                 SpibscReg->Spide = YD_SFMA_SPIBSC_OUTPUT_SPID_16;  /* Enable(32bit) */
                        2029 --line801
                        2030 ..lin.D.3A.5CRenesas_Electronics.5CD1x_RGL.5Crgl_ghs_D1Lx_obj_V1.2E2.2E0.5Cvlib.5Capp.5Cgfx_apps.5Csimple_draw_d1l2.5Ctarget.5Cd1lx_mango_ghs.5Cobj.5Cyd_sfma_flash.92::
                        2031 .LDWlin92:
000005ac 0c0a           2032 	mov	12,r1
000005ae 7d0f2500       2033 	st.w	r1,36[r29]
                        2034 --802:                 ret = YD_SFMA_32bitDataRead(Unit, SpibscReg, Buf, Size);
000005b2 1a30           2035 	mov	r26,r6
000005b4 1d38           2036 	mov	r29,r7
000005b6 1940           2037 	mov	r25,r8
000005b8 1b48           2038 	mov	r27,r9
                        2039 	jarl	_YD_SFMA_32bitDataRead,lp
                        2039 <EXPANSION BEGIN>
                        2039 jarl22 _YD_SFMA_32bitDataRead , lp 
000005ba bfff82fd*      2039 <EXPANSION END>
000005be 0ae0           2040 	mov	r10,r28
000005c0 a535*          2041 	br	.L1420
                        2042 .L1426:
                        2043 --803:             }
                        2044 --804:             else
                        2045 --805:             {
                        2046 --806:                 SpibscReg->Spide = YD_SFMA_SPIBSC_OUTPUT_SPID_8;   /* Enable(16bit) */
                        2047 --line806
                        2048 ..lin.D.3A.5CRenesas_Electronics.5CD1x_RGL.5Crgl_ghs_D1Lx_obj_V1.2E2.2E0.5Cvlib.5Capp.5Cgfx_apps.5Csimple_draw_d1l2.5Ctarget.5Cd1lx_mango_ghs.5Cobj.5Cyd_sfma_flash.93::
                        2049 .LDWlin93:
000005c2 080a           2050 	mov	8,r1
000005c4 7d0f2500       2051 	st.w	r1,36[r29]
                        2052 --807:                 ret = YD_SFMA_16bitDataRead(Unit, SpibscReg, Buf, Size);
000005c8 1a30           2053 	mov	r26,r6
000005ca 1d38           2054 	mov	r29,r7
000005cc 1940           2055 	mov	r25,r8
000005ce 1b48           2056 	mov	r27,r9
                        2057 	jarl	_YD_SFMA_16bitDataRead,lp
                        2057 <EXPANSION BEGIN>
                        2057 jarl22 _YD_SFMA_16bitDataRead , lp 
000005d0 bfff00fd*      2057 <EXPANSION END>
000005d4 0ae0           2058 	mov	r10,r28
000005d6 f525*          2059 	br	.L1420
                        2060 .L1421:
                        2061 --808:             }
                        2062 --809:         }
                        2063 --810:         else
                        2064 --811:         {
                        2065 --812:             if ((Size % LOC_YD_SFMA_UNIT_32BIT) == 0)
                        2066 --line812
                        2067 ..lin.D.3A.5CRenesas_Electronics.5CD1x_RGL.5Crgl_ghs_D1Lx_obj_V1.2E2.2E0.5Cvlib.5Capp.5Cgfx_apps.5Csimple_draw_d1l2.5Ctarget.5Cd1lx_mango_ghs.5Cobj.5Cyd_sfma_flash.94::
                        2068 .LDWlin94:
000005d8 db060300       2069 	andi	3,r27,zero
000005dc ca0d*          2070 	bne	.L1430

                                                                      Page 36
                                                              C:\Users\YINGAO~1\AppData\Local\Temp\gh_00007ak1.si
                        2071 --813:             {
                        2072 --814:                 SpibscReg->Spide = YD_SFMA_SPIBSC_OUTPUT_SPID_32;  /* Enable(32bit) */
                        2073 --line814
                        2074 ..lin.D.3A.5CRenesas_Electronics.5CD1x_RGL.5Crgl_ghs_D1Lx_obj_V1.2E2.2E0.5Cvlib.5Capp.5Cgfx_apps.5Csimple_draw_d1l2.5Ctarget.5Cd1lx_mango_ghs.5Cobj.5Cyd_sfma_flash.95::
                        2075 .LDWlin95:
000005de 0f0a           2076 	mov	15,r1
000005e0 7d0f2500       2077 	st.w	r1,36[r29]
                        2078 --815:                 ret = YD_SFMA_32bitDataRead(Unit, SpibscReg, Buf, Size);
000005e4 1a30           2079 	mov	r26,r6
000005e6 1d38           2080 	mov	r29,r7
000005e8 1940           2081 	mov	r25,r8
000005ea 1b48           2082 	mov	r27,r9
                        2083 	jarl	_YD_SFMA_32bitDataRead,lp
                        2083 <EXPANSION BEGIN>
                        2083 jarl22 _YD_SFMA_32bitDataRead , lp 
000005ec bfff50fd*      2083 <EXPANSION END>
000005f0 0ae0           2084 	mov	r10,r28
000005f2 951d*          2085 	br	.L1420
                        2086 .L1430:
                        2087 --816:             }
                        2088 --817:             else if ((Size % LOC_YD_SFMA_UNIT_16BIT) == 0)
                        2089 --line817
                        2090 ..lin.D.3A.5CRenesas_Electronics.5CD1x_RGL.5Crgl_ghs_D1Lx_obj_V1.2E2.2E0.5Cvlib.5Capp.5Cgfx_apps.5Csimple_draw_d1l2.5Ctarget.5Cd1lx_mango_ghs.5Cobj.5Cyd_sfma_flash.96::
                        2091 .LDWlin96:
000005f4 db060100       2092 	andi	1,r27,zero
000005f8 ca0d*          2093 	bne	.L1433
                        2094 --818:             {
                        2095 --819:                 SpibscReg->Spide = YD_SFMA_SPIBSC_OUTPUT_SPID_16;  /* Enable(16bit) */
                        2096 --line819
                        2097 ..lin.D.3A.5CRenesas_Electronics.5CD1x_RGL.5Crgl_ghs_D1Lx_obj_V1.2E2.2E0.5Cvlib.5Capp.5Cgfx_apps.5Csimple_draw_d1l2.5Ctarget.5Cd1lx_mango_ghs.5Cobj.5Cyd_sfma_flash.97::
                        2098 .LDWlin97:
000005fa 0c0a           2099 	mov	12,r1
000005fc 7d0f2500       2100 	st.w	r1,36[r29]
                        2101 --820:                 ret = YD_SFMA_16bitDataRead(Unit, SpibscReg, Buf, Size);
00000600 1a30           2102 	mov	r26,r6
00000602 1d38           2103 	mov	r29,r7
00000604 1940           2104 	mov	r25,r8
00000606 1b48           2105 	mov	r27,r9
                        2106 	jarl	_YD_SFMA_16bitDataRead,lp
                        2106 <EXPANSION BEGIN>
                        2106 jarl22 _YD_SFMA_16bitDataRead , lp 
00000608 bfffc8fc*      2106 <EXPANSION END>
0000060c 0ae0           2107 	mov	r10,r28
0000060e b50d*          2108 	br	.L1420
                        2109 .L1433:
                        2110 --821:             }
                        2111 --822:             else
                        2112 --823:             {
                        2113 --824:                 SpibscReg->Spide = YD_SFMA_SPIBSC_OUTPUT_SPID_8;   /* Enable(8bit)  */
                        2114 --line824
                        2115 ..lin.D.3A.5CRenesas_Electronics.5CD1x_RGL.5Crgl_ghs_D1Lx_obj_V1.2E2.2E0.5Cvlib.5Capp.5Cgfx_apps.5Csimple_draw_d1l2.5Ctarget.5Cd1lx_mango_ghs.5Cobj.5Cyd_sfma_flash.98::
                        2116 .LDWlin98:
00000610 080a           2117 	mov	8,r1
00000612 7d0f2500       2118 	st.w	r1,36[r29]
                        2119 --825:                 ret = YD_SFMA_8bitDataRead(Unit, SpibscReg, Buf, Size);
00000616 1a30           2120 	mov	r26,r6
00000618 1d38           2121 	mov	r29,r7
0000061a 1940           2122 	mov	r25,r8
0000061c 1b48           2123 	mov	r27,r9
                        2124 	jarl	_YD_SFMA_8bitDataRead,lp
                        2124 <EXPANSION BEGIN>

                                                                      Page 37
                                                              C:\Users\YINGAO~1\AppData\Local\Temp\gh_00007ak1.si
                        2124 jarl22 _YD_SFMA_8bitDataRead , lp 
0000061e bfff58fc*      2124 <EXPANSION END>
00000622 0ae0           2125 	mov	r10,r28
                        2126 .L1420:
                        2127 --826:             }
                        2128 --827:         }
                        2129 --828:     }
                        2130 --830:     return ret;
                        2131 --line830
                        2132 ..lin.D.3A.5CRenesas_Electronics.5CD1x_RGL.5Crgl_ghs_D1Lx_obj_V1.2E2.2E0.5Cvlib.5Capp.5Cgfx_apps.5Csimple_draw_d1l2.5Ctarget.5Cd1lx_mango_ghs.5Cobj.5Cyd_sfma_flash.99::
                        2133 .LDWlin99:
00000624 1c50           2134 	mov	r28,r10
                        2135 --	    .ef
                        2136 .LDW83:
00000626 4006ff70       2137 	dispose	0,{r25,r26,r27,r28,r29,r31},[lp]
                        2138 	.type	_YD_SFMA_DataReadSelect,@function
                        2139 	.size	_YD_SFMA_DataReadSelect,.-_YD_SFMA_DataReadSelect
                        2140 	.type	_YD_SFMA_DataReadSelect..D.3A.5CRenesas_Electronics.5CD1x_RGL.5Crgl_ghs_D1Lx_obj_V1.2E2.2E0.5Cvlib.5Capp.5Cgfx_apps.5Csimple_draw_d1l2.5Ctarget.5Cd1lx_mango_ghs.5Cobj.5Cyd_sfma_flash.,@function
                        2141 	.size	_YD_SFMA_DataReadSelect..D.3A.5CRenesas_Electronics.5CD1x_RGL.5Crgl_ghs_D1Lx_obj_V1.2E2.2E0.5Cvlib.5Capp.5Cgfx_apps.5Csimple_draw_d1l2.5Ctarget.5Cd1lx_mango_ghs.5Cobj.5Cyd_sfma_flash.,.-_YD_SFMA_DataReadSelect..D.3A.5CRenesas_Electronics.5CD1x_RGL.5Crgl_ghs_D1Lx_obj_V1.2E2.2E0.5Cvlib.5Capp.5Cgfx_apps.5Csimple_draw_d1l2.5Ctarget.5Cd1lx_mango_ghs.5Cobj.5Cyd_sfma_flash.
                        2142 	.align	2
                        2143 .LDW93:
                        2144 --_ret	r28	local
                        2145 
                        2146 --_Unit	r26	param
                        2147 --_SpibscReg	r29	param
                        2148 --_Buf	r25	param
                        2149 --_Size	r27	param
                        2150 --_Config	24[sp]	param
                        2151 
                        2152 	.section ".bss","awb"
                        2153 .L1490:
                        2154 	.type	.L1490,@object
                        2155 	.size	.L1490,0
                        2156 	.data
                        2157 	.text
                        2158 
                        2159 --831: }
                        2160 
                        2161 --833: /***************************************************************************
                        2162 --834:   Function: loc_SFMA_CheckProtectMode
                        2163 --836:   Description:
                        2164 --837:   This function checks the protection mode of the connected the serial flash.
                        2165 --839:   Parameter:
                        2166 --840:   Unit   - The parameter specifies the instance number.
                        2167 --841:   Config - This is a pointer to the yd_sfma_SpiConfig_t structure to the
                        2168 --842:            configuration of the unit.
                        2169 --844:   Return value:
                        2170 --845:   See <yd_sfma_Error_t>.
                        2171 --846: */
                        2172 --847: static yd_sfma_Error_t YD_SFMA_CheckProtectMode(const uint32_t           Unit,
                        2173 --848:                                                 const yd_sfma_SpiConfig_t *Config);
                        2174 --850: static yd_sfma_Error_t YD_SFMA_CheckProtectMode(const uint32_t           Unit,
                        2175 	.align	2
                        2176 	.align	2
                        2177 	.global	_YD_SFMA_CheckProtectMode..D.3A.5CRenesas_Electronics.5CD1x_RGL.5Crgl_ghs_D1Lx_obj_V1.2E2.2E0.5Cvlib.5Capp.5Cgfx_apps.5Csimple_draw_d1l2.5Ctarget.5Cd1lx_mango_ghs.5Cobj.5Cyd_sfma_flash.
                        2178 _YD_SFMA_CheckProtectMode..D.3A.5CRenesas_Electronics.5CD1x_RGL.5Crgl_ghs_D1Lx_obj_V1.2E2.2E0.5Cvlib.5Capp.5Cgfx_apps.5Csimple_draw_d1l2.5Ctarget.5Cd1lx_mango_ghs.5Cobj.5Cyd_sfma_flash.:
                        2179 _YD_SFMA_CheckProtectMode:
0000062a 8207e110       2180 	prepare	{r27,r28,r29,r31},1
0000062e 06d8           2181 	mov	r6,r27
00000630 07e0           2182 	mov	r7,r28
                        2183 --	    .bf

                                                                      Page 38
                                                              C:\Users\YINGAO~1\AppData\Local\Temp\gh_00007ak1.si
                        2184 .LDW04:
                        2185 --851:                                                 const yd_sfma_SpiConfig_t *Config)
                        2186 --852: {
                        2187 --853:     uint8_t        status1 = 0;
00000632 43070200       2188 	st.b	zero,2[sp]
                        2189 --854:     uint8_t        status2 = 0;
00000636 43070300       2190 	st.b	zero,3[sp]
                        2191 --855:     yd_sfma_Error_t ret;
                        2192 --857:     if (Config == R_NULL)
0000063a e0e1           2193 	cmp	zero,r28
0000063c ba05*          2194 	bne	.L1567
                        2195 --858:     {
                        2196 --859:         ret = YD_SFMA_ERR_PARAM_INCORRECT;
                        2197 --line859
                        2198 ..lin.D.3A.5CRenesas_Electronics.5CD1x_RGL.5Crgl_ghs_D1Lx_obj_V1.2E2.2E0.5Cvlib.5Capp.5Cgfx_apps.5Csimple_draw_d1l2.5Ctarget.5Cd1lx_mango_ghs.5Cobj.5Cyd_sfma_flash.100::
                        2199 .LDWlin100:
0000063e 02ea           2200 	mov	2,r29
00000640 f525*          2201 	br	.L1569
                        2202 .L1567:
                        2203 --860:     }
                        2204 --861:     else
                        2205 --862:     {
                        2206 --863:         if (Config->Command.BlockProtect.Reg == YD_SFMA_STATUS_REG)
                        2207 --line863
                        2208 ..lin.D.3A.5CRenesas_Electronics.5CD1x_RGL.5Crgl_ghs_D1Lx_obj_V1.2E2.2E0.5Cvlib.5Capp.5Cgfx_apps.5Csimple_draw_d1l2.5Ctarget.5Cd1lx_mango_ghs.5Cobj.5Cyd_sfma_flash.101::
                        2209 .LDWlin101:
00000642 3c0f2100       2210 	ld.w	32[r28],r1
00000646 e009           2211 	cmp	zero,r1
00000648 ba0d*          2212 	bne	.L1570
                        2213 --864:         {
                        2214 --865:             ret = YD_SFMA_SpibscReadStatusRegister(Unit, &status1, &status2, Config);
                        2215 --line865
                        2216 ..lin.D.3A.5CRenesas_Electronics.5CD1x_RGL.5Crgl_ghs_D1Lx_obj_V1.2E2.2E0.5Cvlib.5Capp.5Cgfx_apps.5Csimple_draw_d1l2.5Ctarget.5Cd1lx_mango_ghs.5Cobj.5Cyd_sfma_flash.102::
                        2217 .LDWlin102:
0000064a 1b30           2218 	mov	r27,r6
0000064c 1c48           2219 	mov	r28,r9
0000064e 233e0200       2220 	movea	2,sp,r7
00000652 23460300       2221 	movea	3,sp,r8
                        2222 	jarl	_YD_SFMA_SpibscReadStatusRegister,lp
                        2222 <EXPANSION BEGIN>
                        2222 jarl22 _YD_SFMA_SpibscReadStatusRegister , lp 
00000656 80ff0000*      2222 <EXPANSION END>
0000065a 0ae8           2223 	mov	r10,r29
0000065c 8515*          2224 	br	.L1572
                        2225 .L1570:
                        2226 --866:         }
                        2227 --867:         else if (Config->Command.BlockProtect.Reg == YD_SFMA_CONFIG_REG)
                        2228 --line867
                        2229 ..lin.D.3A.5CRenesas_Electronics.5CD1x_RGL.5Crgl_ghs_D1Lx_obj_V1.2E2.2E0.5Cvlib.5Capp.5Cgfx_apps.5Csimple_draw_d1l2.5Ctarget.5Cd1lx_mango_ghs.5Cobj.5Cyd_sfma_flash.103::
                        2230 .LDWlin103:
0000065e 3c0f2100       2231 	ld.w	32[r28],r1
00000662 610a           2232 	cmp	1,r1
00000664 ba0d*          2233 	bne	.L1573
                        2234 --868:         {
                        2235 --869:             ret = YD_SFMA_SpibscReadConfigRegister(Unit, &status1, &status2, Config);
                        2236 --line869
                        2237 ..lin.D.3A.5CRenesas_Electronics.5CD1x_RGL.5Crgl_ghs_D1Lx_obj_V1.2E2.2E0.5Cvlib.5Capp.5Cgfx_apps.5Csimple_draw_d1l2.5Ctarget.5Cd1lx_mango_ghs.5Cobj.5Cyd_sfma_flash.104::
                        2238 .LDWlin104:
00000666 1b30           2239 	mov	r27,r6
00000668 1c48           2240 	mov	r28,r9
0000066a 233e0200       2241 	movea	2,sp,r7

                                                                      Page 39
                                                              C:\Users\YINGAO~1\AppData\Local\Temp\gh_00007ak1.si
0000066e 23460300       2242 	movea	3,sp,r8
                        2243 	jarl	_YD_SFMA_SpibscReadConfigRegister,lp
                        2243 <EXPANSION BEGIN>
                        2243 jarl22 _YD_SFMA_SpibscReadConfigRegister , lp 
00000672 80ff0000*      2243 <EXPANSION END>
00000676 0ae8           2244 	mov	r10,r29
00000678 a505*          2245 	br	.L1572
                        2246 .L1573:
                        2247 --870:         }
                        2248 --871:         else
                        2249 --872:         {
                        2250 --873:             ret = YD_SFMA_ERR_PARAM_INCORRECT;
                        2251 --line873
                        2252 ..lin.D.3A.5CRenesas_Electronics.5CD1x_RGL.5Crgl_ghs_D1Lx_obj_V1.2E2.2E0.5Cvlib.5Capp.5Cgfx_apps.5Csimple_draw_d1l2.5Ctarget.5Cd1lx_mango_ghs.5Cobj.5Cyd_sfma_flash.105::
                        2253 .LDWlin105:
0000067a 02ea           2254 	mov	2,r29
                        2255 .L1572:
                        2256 --874:         }
                        2257 --876:         if (ret == YD_SFMA_ERR_OK)
0000067c e0e9           2258 	cmp	zero,r29
0000067e 8a0d*          2259 	bne	.L1569
                        2260 --877:         {
                        2261 --878:             if ((status1 & Config->Command.BlockProtect.BitPosition) != 0)
                        2262 --line878
                        2263 ..lin.D.3A.5CRenesas_Electronics.5CD1x_RGL.5Crgl_ghs_D1Lx_obj_V1.2E2.2E0.5Cvlib.5Capp.5Cgfx_apps.5Csimple_draw_d1l2.5Ctarget.5Cd1lx_mango_ghs.5Cobj.5Cyd_sfma_flash.106::
                        2264 .LDWlin106:
00000680 9c0f2500       2265 	ld.bu	36[r28],r1
00000684 83770300       2266 	ld.bu	2[sp],r14
00000688 4e09           2267 	and	r14,r1
0000068a a205*          2268 	be	.L1569
                        2269 --879:             {
                        2270 --880:                 ret = YD_SFMA_ERR_SFLASH_PROTECTED;
                        2271 --line880
                        2272 ..lin.D.3A.5CRenesas_Electronics.5CD1x_RGL.5Crgl_ghs_D1Lx_obj_V1.2E2.2E0.5Cvlib.5Capp.5Cgfx_apps.5Csimple_draw_d1l2.5Ctarget.5Cd1lx_mango_ghs.5Cobj.5Cyd_sfma_flash.107::
                        2273 .LDWlin107:
0000068c 0aea           2274 	mov	10,r29
                        2275 .L1569:
                        2276 --881:             }
                        2277 --882:         }
                        2278 --883:     }
                        2279 --885:     return ret;
0000068e 1d50           2280 	mov	r29,r10
                        2281 --	    .ef
                        2282 .LDW14:
00000690 4206ff10       2283 	dispose	1,{r27,r28,r29,r31},[lp]
                        2284 	.type	_YD_SFMA_CheckProtectMode,@function
                        2285 	.size	_YD_SFMA_CheckProtectMode,.-_YD_SFMA_CheckProtectMode
                        2286 	.type	_YD_SFMA_CheckProtectMode..D.3A.5CRenesas_Electronics.5CD1x_RGL.5Crgl_ghs_D1Lx_obj_V1.2E2.2E0.5Cvlib.5Capp.5Cgfx_apps.5Csimple_draw_d1l2.5Ctarget.5Cd1lx_mango_ghs.5Cobj.5Cyd_sfma_flash.,@function
                        2287 	.size	_YD_SFMA_CheckProtectMode..D.3A.5CRenesas_Electronics.5CD1x_RGL.5Crgl_ghs_D1Lx_obj_V1.2E2.2E0.5Cvlib.5Capp.5Cgfx_apps.5Csimple_draw_d1l2.5Ctarget.5Cd1lx_mango_ghs.5Cobj.5Cyd_sfma_flash.,.-_YD_SFMA_CheckProtectMode..D.3A.5CRenesas_Electronics.5CD1x_RGL.5Crgl_ghs_D1Lx_obj_V1.2E2.2E0.5Cvlib.5Capp.5Cgfx_apps.5Csimple_draw_d1l2.5Ctarget.5Cd1lx_mango_ghs.5Cobj.5Cyd_sfma_flash.
                        2288 	.align	2
                        2289 .LDW24:
                        2290 --_status1	2[sp]	local
                        2291 --_status2	3[sp]	local
                        2292 --_ret	r29	local
                        2293 
                        2294 --_Unit	r27	param
                        2295 --_Config	r28	param
                        2296 
                        2297 	.section ".bss","awb"
                        2298 .L1616:
                        2299 	.type	.L1616,@object

                                                                      Page 40
                                                              C:\Users\YINGAO~1\AppData\Local\Temp\gh_00007ak1.si
                        2300 	.size	.L1616,0
                        2301 	.data
                        2302 	.text
                        2303 
                        2304 --886: }
                        2305 
                        2306 --888: /***************************************************************************
                        2307 --889:   Section: Global Functions
                        2308 --890: */
                        2309 --892: /***************************************************************************
                        2310 --893:   Function: YD_SFMA_FlashSectorErase
                        2311 --895:   see: <yd_sfma_flash.h>
                        2312 --896: */
                        2313 --897: yd_sfma_Error_t YD_SFMA_FlashSectorErase(const uint32_t           Unit,
                        2314 	.align	2
                        2315 	.align	2
                        2316 	.global	_YD_SFMA_FlashSectorErase
                        2317 _YD_SFMA_FlashSectorErase:
00000694 b007e130       2318 	prepare	{r26,r27,r28,r29,r31},24
00000698 06e0           2319 	mov	r6,r28
0000069a 08d0           2320 	mov	r8,r26
0000069c 09d8           2321 	mov	r9,r27
                        2322 --	    .bf
                        2323 .LDW34:
                        2324 --898:                                        const uint64_t           Addr,
                        2325 --899:                                        const yd_sfma_SpiConfig_t *Config)
                        2326 --900: {
                        2327 --901:     yd_sfma_SpibscSpimdReg_t spibsc_reg;
                        2328 --902:     yd_sfma_Error_t          ret;
                        2329 --904:     if (Config == R_NULL)
0000069e 230f7500       2330 	ld.w	116[sp],r1
000006a2 e009           2331 	cmp	zero,r1
000006a4 ba05*          2332 	bne	.L1666
                        2333 --905:     {
                        2334 --906:         ret = YD_SFMA_ERR_PARAM_INCORRECT;
                        2335 --line906
                        2336 ..lin.D.3A.5CRenesas_Electronics.5CD1x_RGL.5Crgl_ghs_D1Lx_obj_V1.2E2.2E0.5Cvlib.5Capp.5Cgfx_apps.5Csimple_draw_d1l2.5Ctarget.5Cd1lx_mango_ghs.5Cobj.5Cyd_sfma_flash.108::
                        2337 .LDWlin108:
000006a6 02ea           2338 	mov	2,r29
000006a8 c545*          2339 	br	.L1668
                        2340 .L1666:
                        2341 --907:     }
                        2342 --908:     else
                        2343 --909:     {
                        2344 --910:         /* check the protect status */
                        2345 --911:         ret = YD_SFMA_CheckProtectMode(Unit, Config);
                        2346 --line911
                        2347 ..lin.D.3A.5CRenesas_Electronics.5CD1x_RGL.5Crgl_ghs_D1Lx_obj_V1.2E2.2E0.5Cvlib.5Capp.5Cgfx_apps.5Csimple_draw_d1l2.5Ctarget.5Cd1lx_mango_ghs.5Cobj.5Cyd_sfma_flash.109::
                        2348 .LDWlin109:
000006aa 233f7500       2349 	ld.w	116[sp],r7
000006ae 1c30           2350 	mov	r28,r6
                        2351 	jarl	_YD_SFMA_CheckProtectMode,lp
                        2351 <EXPANSION BEGIN>
                        2351 jarl22 _YD_SFMA_CheckProtectMode , lp 
000006b0 bfff7aff*      2351 <EXPANSION END>
000006b4 0ae8           2352 	mov	r10,r29
                        2353 --912:         if (ret == YD_SFMA_ERR_OK)
                        2354 --line912
                        2355 ..lin.D.3A.5CRenesas_Electronics.5CD1x_RGL.5Crgl_ghs_D1Lx_obj_V1.2E2.2E0.5Cvlib.5Capp.5Cgfx_apps.5Csimple_draw_d1l2.5Ctarget.5Cd1lx_mango_ghs.5Cobj.5Cyd_sfma_flash.110::
                        2356 .LDWlin110:
000006b6 e0e9           2357 	cmp	zero,r29

                                                                      Page 41
                                                              C:\Users\YINGAO~1\AppData\Local\Temp\gh_00007ak1.si
000006b8 ca3d*          2358 	bne	.L1668
                        2359 --913:         {
                        2360 --914:             /* sector erase in Single-SPI   */
                        2361 --915:             ret = YD_SFMA_SpibscWriteEnableRegister(Unit, Config);
                        2362 --line915
                        2363 ..lin.D.3A.5CRenesas_Electronics.5CD1x_RGL.5Crgl_ghs_D1Lx_obj_V1.2E2.2E0.5Cvlib.5Capp.5Cgfx_apps.5Csimple_draw_d1l2.5Ctarget.5Cd1lx_mango_ghs.5Cobj.5Cyd_sfma_flash.111::
                        2364 .LDWlin111:
000006ba 233f7500       2365 	ld.w	116[sp],r7
000006be 1c30           2366 	mov	r28,r6
                        2367 	jarl	_YD_SFMA_SpibscWriteEnableRegister,lp
                        2367 <EXPANSION BEGIN>
                        2367 jarl22 _YD_SFMA_SpibscWriteEnableRegister , lp 
000006c0 80ff0000*      2367 <EXPANSION END>
000006c4 0ae8           2368 	mov	r10,r29
                        2369 --916:             if (ret == YD_SFMA_ERR_OK)
                        2370 --line916
                        2371 ..lin.D.3A.5CRenesas_Electronics.5CD1x_RGL.5Crgl_ghs_D1Lx_obj_V1.2E2.2E0.5Cvlib.5Capp.5Cgfx_apps.5Csimple_draw_d1l2.5Ctarget.5Cd1lx_mango_ghs.5Cobj.5Cyd_sfma_flash.112::
                        2372 .LDWlin112:
000006c6 e0e9           2373 	cmp	zero,r29
000006c8 ca35*          2374 	bne	.L1668
                        2375 --917:             {
                        2376 --918:                 ret = YD_SFMA_SpibscRegsetInit(&spibsc_reg);
                        2377 --line918
                        2378 ..lin.D.3A.5CRenesas_Electronics.5CD1x_RGL.5Crgl_ghs_D1Lx_obj_V1.2E2.2E0.5Cvlib.5Capp.5Cgfx_apps.5Csimple_draw_d1l2.5Ctarget.5Cd1lx_mango_ghs.5Cobj.5Cyd_sfma_flash.113::
                        2379 .LDWlin113:
000006ca 23360000       2380 	movea	0,sp,r6
                        2381 	jarl	_YD_SFMA_SpibscRegsetInit,lp
                        2381 <EXPANSION BEGIN>
                        2381 jarl22 _YD_SFMA_SpibscRegsetInit , lp 
000006ce 80ff0000*      2381 <EXPANSION END>
000006d2 0ae8           2382 	mov	r10,r29
                        2383 --919:                 if (ret == YD_SFMA_ERR_OK)
                        2384 --line919
                        2385 ..lin.D.3A.5CRenesas_Electronics.5CD1x_RGL.5Crgl_ghs_D1Lx_obj_V1.2E2.2E0.5Cvlib.5Capp.5Cgfx_apps.5Csimple_draw_d1l2.5Ctarget.5Cd1lx_mango_ghs.5Cobj.5Cyd_sfma_flash.114::
                        2386 .LDWlin114:
000006d4 e0e9           2387 	cmp	zero,r29
000006d6 da2d*          2388 	bne	.L1668
                        2389 --920:                 {
                        2390 --921:                     /* command */
                        2391 --922:                     spibsc_reg.Cmd   = Config->Command.Erase;
                        2392 --line922
                        2393 ..lin.D.3A.5CRenesas_Electronics.5CD1x_RGL.5Crgl_ghs_D1Lx_obj_V1.2E2.2E0.5Cvlib.5Capp.5Cgfx_apps.5Csimple_draw_d1l2.5Ctarget.5Cd1lx_mango_ghs.5Cobj.5Cyd_sfma_flash.115::
                        2394 .LDWlin115:
000006d8 230f7500       2395 	ld.w	116[sp],r1
000006dc a10f6500       2396 	ld.bu	101[r1],r1
000006e0 430f5a00       2397 	st.b	r1,90[sp]
                        2398 --923:                     /* address set */
                        2399 --924:                     spibsc_reg.Ade   = Config->AddressMode;
000006e4 230f7500       2400 	ld.w	116[sp],r1
000006e8 810f7300       2401 	ld.bu	114[r1],r1
000006ec 630f1d00       2402 	st.w	r1,28[sp]
                        2403 --925:                     spibsc_reg.Adb   = YD_SFMA_SPIBSC_1BIT;
000006f0 63070900       2404 	st.w	zero,8[sp]
                        2405 --926:                     if (Config->MemoryNum == YD_SFMA_SPIBSC_CMNCR_BSZ_DUAL)
000006f4 23f77500       2406 	ld.w	116[sp],ep
000006f8 000d           2407 	sld.w	0[ep],r1
000006fa 610a           2408 	cmp	1,r1
000006fc 9a0d*          2409 	bne	.L1675
                        2410 --927:                     {
                        2411 --928:                         spibsc_reg.Addr = (uint32_t)(Addr >> LOC_YD_SFMA_SHIFT_BIT);
                        2412 --line928

                                                                      Page 42
                                                              C:\Users\YINGAO~1\AppData\Local\Temp\gh_00007ak1.si
                        2413 ..lin.D.3A.5CRenesas_Electronics.5CD1x_RGL.5Crgl_ghs_D1Lx_obj_V1.2E2.2E0.5Cvlib.5Capp.5Cgfx_apps.5Csimple_draw_d1l2.5Ctarget.5Cd1lx_mango_ghs.5Cobj.5Cyd_sfma_flash.116::
                        2414 .LDWlin116:
000006fe 1b70           2415 	mov	r27,r14
00000700 df72           2416 	shl	31,r14
00000702 1a08           2417 	mov	r26,r1
00000704 810a           2418 	shr	1,r1
00000706 0e09           2419 	or	r14,r1
00000708 630f4500       2420 	st.w	r1,68[sp]
0000070c c505*          2421 	br	.L1677
                        2422 .L1675:
                        2423 --929:                     }
                        2424 --930:                     else
                        2425 --931:                     {
                        2426 --932:                         spibsc_reg.Addr = (uint32_t)Addr;
                        2427 --line932
                        2428 ..lin.D.3A.5CRenesas_Electronics.5CD1x_RGL.5Crgl_ghs_D1Lx_obj_V1.2E2.2E0.5Cvlib.5Capp.5Cgfx_apps.5Csimple_draw_d1l2.5Ctarget.5Cd1lx_mango_ghs.5Cobj.5Cyd_sfma_flash.117::
                        2429 .LDWlin117:
0000070e 1a08           2430 	mov	r26,r1
00000710 630f4500       2431 	st.w	r1,68[sp]
                        2432 .L1677:
                        2433 --933:                     }
                        2434 --935:                     ret = YD_SFMA_SpibscCommandTransfer(Unit, &spibsc_reg);
00000714 1c30           2435 	mov	r28,r6
00000716 233e0000       2436 	movea	0,sp,r7
                        2437 	jarl	_YD_SFMA_SpibscCommandTransfer,lp
                        2437 <EXPANSION BEGIN>
                        2437 jarl22 _YD_SFMA_SpibscCommandTransfer , lp 
0000071a 80ff0000*      2437 <EXPANSION END>
0000071e 0ae8           2438 	mov	r10,r29
                        2439 --936:                     if (ret == YD_SFMA_ERR_OK)
                        2440 --line936
                        2441 ..lin.D.3A.5CRenesas_Electronics.5CD1x_RGL.5Crgl_ghs_D1Lx_obj_V1.2E2.2E0.5Cvlib.5Capp.5Cgfx_apps.5Csimple_draw_d1l2.5Ctarget.5Cd1lx_mango_ghs.5Cobj.5Cyd_sfma_flash.118::
                        2442 .LDWlin118:
00000720 e0e9           2443 	cmp	zero,r29
00000722 fa05*          2444 	bne	.L1668
                        2445 --937:                     {
                        2446 --938:                         ret = YD_SFMA_SpibscBusyWait(Unit, Config);
                        2447 --line938
                        2448 ..lin.D.3A.5CRenesas_Electronics.5CD1x_RGL.5Crgl_ghs_D1Lx_obj_V1.2E2.2E0.5Cvlib.5Capp.5Cgfx_apps.5Csimple_draw_d1l2.5Ctarget.5Cd1lx_mango_ghs.5Cobj.5Cyd_sfma_flash.119::
                        2449 .LDWlin119:
00000724 233f7500       2450 	ld.w	116[sp],r7
00000728 1c30           2451 	mov	r28,r6
                        2452 	jarl	_YD_SFMA_SpibscBusyWait,lp
                        2452 <EXPANSION BEGIN>
                        2452 jarl22 _YD_SFMA_SpibscBusyWait , lp 
0000072a 80ff0000*      2452 <EXPANSION END>
0000072e 0ae8           2453 	mov	r10,r29
                        2454 .L1668:
                        2455 --939:                     }
                        2456 --940:                 }
                        2457 --941:             }
                        2458 --942:         }
                        2459 --943:     }
                        2460 --945:     return ret;
                        2461 --line945
                        2462 ..lin.D.3A.5CRenesas_Electronics.5CD1x_RGL.5Crgl_ghs_D1Lx_obj_V1.2E2.2E0.5Cvlib.5Capp.5Cgfx_apps.5Csimple_draw_d1l2.5Ctarget.5Cd1lx_mango_ghs.5Cobj.5Cyd_sfma_flash.120::
                        2463 .LDWlin120:
00000730 1d50           2464 	mov	r29,r10
                        2465 --	    .ef
                        2466 .LDW44:
00000732 7006ff30       2467 	dispose	24,{r26,r27,r28,r29,r31},[lp]

                                                                      Page 43
                                                              C:\Users\YINGAO~1\AppData\Local\Temp\gh_00007ak1.si
                        2468 	.type	_YD_SFMA_FlashSectorErase,@function
                        2469 	.size	_YD_SFMA_FlashSectorErase,.-_YD_SFMA_FlashSectorErase
                        2470 	.align	2
                        2471 .LDW54:
                        2472 --_spibsc_reg	0[sp]	local
                        2473 --_ret	r29	local
                        2474 
                        2475 --_Unit	r28	param
                        2476 --_Addr	r26	param
                        2477 --_Config	116[sp]	param
                        2478 
                        2479 	.section ".bss","awb"
                        2480 .L1722:
                        2481 	.type	.L1722,@object
                        2482 	.size	.L1722,0
                        2483 	.data
                        2484 	.text
                        2485 
                        2486 --946: }
                        2487 
                        2488 --949: /***************************************************************************
                        2489 --950:   Function: YD_SFMA_FlashBulkErase
                        2490 --952:   see: <yd_sfma_flash.h>
                        2491 --953: */
                        2492 --954: yd_sfma_Error_t YD_SFMA_FlashBulkErase(const uint32_t           Unit,
                        2493 	.align	2
                        2494 	.align	2
                        2495 	.global	_YD_SFMA_FlashBulkErase
                        2496 _YD_SFMA_FlashBulkErase:
00000736 b007e110       2497 	prepare	{r27,r28,r29,r31},24
0000073a 06d8           2498 	mov	r6,r27
0000073c 07e0           2499 	mov	r7,r28
                        2500 --	    .bf
                        2501 .LDW64:
                        2502 --955:                                        const yd_sfma_SpiConfig_t *Config)
                        2503 --956: {
                        2504 --957:     yd_sfma_SpibscSpimdReg_t spibsc_reg;
                        2505 --958:     yd_sfma_Error_t          ret;
                        2506 --960:     if (Config == R_NULL)
0000073e e0e1           2507 	cmp	zero,r28
00000740 ba05*          2508 	bne	.L1787
                        2509 --961:     {
                        2510 --962:         ret = YD_SFMA_ERR_PARAM_INCORRECT;
                        2511 --line962
                        2512 ..lin.D.3A.5CRenesas_Electronics.5CD1x_RGL.5Crgl_ghs_D1Lx_obj_V1.2E2.2E0.5Cvlib.5Capp.5Cgfx_apps.5Csimple_draw_d1l2.5Ctarget.5Cd1lx_mango_ghs.5Cobj.5Cyd_sfma_flash.121::
                        2513 .LDWlin121:
00000742 02ea           2514 	mov	2,r29
00000744 f525*          2515 	br	.L1789
                        2516 .L1787:
                        2517 --963:     }
                        2518 --964:     else
                        2519 --965:     {
                        2520 --966:         /* check the protect status */
                        2521 --967:         ret = YD_SFMA_CheckProtectMode(Unit, Config);
                        2522 --line967
                        2523 ..lin.D.3A.5CRenesas_Electronics.5CD1x_RGL.5Crgl_ghs_D1Lx_obj_V1.2E2.2E0.5Cvlib.5Capp.5Cgfx_apps.5Csimple_draw_d1l2.5Ctarget.5Cd1lx_mango_ghs.5Cobj.5Cyd_sfma_flash.122::
                        2524 .LDWlin122:
00000746 1b30           2525 	mov	r27,r6
00000748 1c38           2526 	mov	r28,r7
                        2527 	jarl	_YD_SFMA_CheckProtectMode,lp
                        2527 <EXPANSION BEGIN>

                                                                      Page 44
                                                              C:\Users\YINGAO~1\AppData\Local\Temp\gh_00007ak1.si
                        2527 jarl22 _YD_SFMA_CheckProtectMode , lp 
0000074a bfffe0fe*      2527 <EXPANSION END>
0000074e 0ae8           2528 	mov	r10,r29
                        2529 --968:         if (ret == YD_SFMA_ERR_OK)
                        2530 --line968
                        2531 ..lin.D.3A.5CRenesas_Electronics.5CD1x_RGL.5Crgl_ghs_D1Lx_obj_V1.2E2.2E0.5Cvlib.5Capp.5Cgfx_apps.5Csimple_draw_d1l2.5Ctarget.5Cd1lx_mango_ghs.5Cobj.5Cyd_sfma_flash.123::
                        2532 .LDWlin123:
00000750 e0e9           2533 	cmp	zero,r29
00000752 8a25*          2534 	bne	.L1789
                        2535 --969:         {
                        2536 --970:             /* sector erase in Single-SPI   */
                        2537 --971:             ret = YD_SFMA_SpibscWriteEnableRegister(Unit, Config);
                        2538 --line971
                        2539 ..lin.D.3A.5CRenesas_Electronics.5CD1x_RGL.5Crgl_ghs_D1Lx_obj_V1.2E2.2E0.5Cvlib.5Capp.5Cgfx_apps.5Csimple_draw_d1l2.5Ctarget.5Cd1lx_mango_ghs.5Cobj.5Cyd_sfma_flash.124::
                        2540 .LDWlin124:
00000754 1b30           2541 	mov	r27,r6
00000756 1c38           2542 	mov	r28,r7
                        2543 	jarl	_YD_SFMA_SpibscWriteEnableRegister,lp
                        2543 <EXPANSION BEGIN>
                        2543 jarl22 _YD_SFMA_SpibscWriteEnableRegister , lp 
00000758 80ff0000*      2543 <EXPANSION END>
0000075c 0ae8           2544 	mov	r10,r29
                        2545 --972:             if (ret == YD_SFMA_ERR_OK)
                        2546 --line972
                        2547 ..lin.D.3A.5CRenesas_Electronics.5CD1x_RGL.5Crgl_ghs_D1Lx_obj_V1.2E2.2E0.5Cvlib.5Capp.5Cgfx_apps.5Csimple_draw_d1l2.5Ctarget.5Cd1lx_mango_ghs.5Cobj.5Cyd_sfma_flash.125::
                        2548 .LDWlin125:
0000075e e0e9           2549 	cmp	zero,r29
00000760 9a1d*          2550 	bne	.L1789
                        2551 --973:             {
                        2552 --974:                 ret = YD_SFMA_SpibscRegsetInit(&spibsc_reg);
                        2553 --line974
                        2554 ..lin.D.3A.5CRenesas_Electronics.5CD1x_RGL.5Crgl_ghs_D1Lx_obj_V1.2E2.2E0.5Cvlib.5Capp.5Cgfx_apps.5Csimple_draw_d1l2.5Ctarget.5Cd1lx_mango_ghs.5Cobj.5Cyd_sfma_flash.126::
                        2555 .LDWlin126:
00000762 23360000       2556 	movea	0,sp,r6
                        2557 	jarl	_YD_SFMA_SpibscRegsetInit,lp
                        2557 <EXPANSION BEGIN>
                        2557 jarl22 _YD_SFMA_SpibscRegsetInit , lp 
00000766 80ff0000*      2557 <EXPANSION END>
0000076a 0ae8           2558 	mov	r10,r29
                        2559 --975:                 if (ret == YD_SFMA_ERR_OK)
                        2560 --line975
                        2561 ..lin.D.3A.5CRenesas_Electronics.5CD1x_RGL.5Crgl_ghs_D1Lx_obj_V1.2E2.2E0.5Cvlib.5Capp.5Cgfx_apps.5Csimple_draw_d1l2.5Ctarget.5Cd1lx_mango_ghs.5Cobj.5Cyd_sfma_flash.127::
                        2562 .LDWlin127:
0000076c e0e9           2563 	cmp	zero,r29
0000076e aa15*          2564 	bne	.L1789
                        2565 --976:                 {
                        2566 --977:                     /* command */
                        2567 --978:                     spibsc_reg.Cmd   = Config->Command.BulkErase;
                        2568 --line978
                        2569 ..lin.D.3A.5CRenesas_Electronics.5CD1x_RGL.5Crgl_ghs_D1Lx_obj_V1.2E2.2E0.5Cvlib.5Capp.5Cgfx_apps.5Csimple_draw_d1l2.5Ctarget.5Cd1lx_mango_ghs.5Cobj.5Cyd_sfma_flash.128::
                        2570 .LDWlin128:
00000770 bc0f6d00       2571 	ld.bu	109[r28],r1
00000774 430f5a00       2572 	st.b	r1,90[sp]
                        2573 --980:                     ret = YD_SFMA_SpibscCommandTransfer(Unit, &spibsc_reg);
00000778 1b30           2574 	mov	r27,r6
0000077a 233e0000       2575 	movea	0,sp,r7
                        2576 	jarl	_YD_SFMA_SpibscCommandTransfer,lp
                        2576 <EXPANSION BEGIN>
                        2576 jarl22 _YD_SFMA_SpibscCommandTransfer , lp 
0000077e 80ff0000*      2576 <EXPANSION END>
00000782 0ae8           2577 	mov	r10,r29

                                                                      Page 45
                                                              C:\Users\YINGAO~1\AppData\Local\Temp\gh_00007ak1.si
                        2578 --981:                     if (ret == YD_SFMA_ERR_OK)
                        2579 --line981
                        2580 ..lin.D.3A.5CRenesas_Electronics.5CD1x_RGL.5Crgl_ghs_D1Lx_obj_V1.2E2.2E0.5Cvlib.5Capp.5Cgfx_apps.5Csimple_draw_d1l2.5Ctarget.5Cd1lx_mango_ghs.5Cobj.5Cyd_sfma_flash.129::
                        2581 .LDWlin129:
00000784 e0e9           2582 	cmp	zero,r29
00000786 ea05*          2583 	bne	.L1789
                        2584 --982:                     {
                        2585 --983:                         ret = YD_SFMA_SpibscBusyWait(Unit, Config);
                        2586 --line983
                        2587 ..lin.D.3A.5CRenesas_Electronics.5CD1x_RGL.5Crgl_ghs_D1Lx_obj_V1.2E2.2E0.5Cvlib.5Capp.5Cgfx_apps.5Csimple_draw_d1l2.5Ctarget.5Cd1lx_mango_ghs.5Cobj.5Cyd_sfma_flash.130::
                        2588 .LDWlin130:
00000788 1b30           2589 	mov	r27,r6
0000078a 1c38           2590 	mov	r28,r7
                        2591 	jarl	_YD_SFMA_SpibscBusyWait,lp
                        2591 <EXPANSION BEGIN>
                        2591 jarl22 _YD_SFMA_SpibscBusyWait , lp 
0000078c 80ff0000*      2591 <EXPANSION END>
00000790 0ae8           2592 	mov	r10,r29
                        2593 .L1789:
                        2594 --984:                     }
                        2595 --985:                 }
                        2596 --986:             }
                        2597 --987:         }
                        2598 --988:     }
                        2599 --990:     return ret;
                        2600 --line990
                        2601 ..lin.D.3A.5CRenesas_Electronics.5CD1x_RGL.5Crgl_ghs_D1Lx_obj_V1.2E2.2E0.5Cvlib.5Capp.5Cgfx_apps.5Csimple_draw_d1l2.5Ctarget.5Cd1lx_mango_ghs.5Cobj.5Cyd_sfma_flash.131::
                        2602 .LDWlin131:
00000792 1d50           2603 	mov	r29,r10
                        2604 --	    .ef
                        2605 .LDW74:
00000794 7006ff10       2606 	dispose	24,{r27,r28,r29,r31},[lp]
                        2607 	.type	_YD_SFMA_FlashBulkErase,@function
                        2608 	.size	_YD_SFMA_FlashBulkErase,.-_YD_SFMA_FlashBulkErase
                        2609 	.align	2
                        2610 .LDW84:
                        2611 --_spibsc_reg	0[sp]	local
                        2612 --_ret	r29	local
                        2613 
                        2614 --_Unit	r27	param
                        2615 --_Config	r28	param
                        2616 
                        2617 	.section ".bss","awb"
                        2618 .L1840:
                        2619 	.type	.L1840,@object
                        2620 	.size	.L1840,0
                        2621 	.data
                        2622 	.text
                        2623 
                        2624 --991: }
                        2625 
                        2626 --993: /***************************************************************************
                        2627 --994:   Function: YD_SFMA_FlashDataWrite
                        2628 --996:   see: <yd_sfma_flash.h>
                        2629 --997: */
                        2630 --998: yd_sfma_Error_t YD_SFMA_FlashDataWrite(const uint32_t           Unit,
                        2631 	.align	2
                        2632 	.align	2
                        2633 	.global	_YD_SFMA_FlashDataWrite
                        2634 _YD_SFMA_FlashDataWrite:
00000798 b207e130       2635 	prepare	{r26,r27,r28,r29,r31},25

                                                                      Page 46
                                                              C:\Users\YINGAO~1\AppData\Local\Temp\gh_00007ak1.si
0000079c 06e0           2636 	mov	r6,r28
0000079e 08d0           2637 	mov	r8,r26
000007a0 09d8           2638 	mov	r9,r27
                        2639 --	    .bf
                        2640 .LDW94:
                        2641 --999:                                      const uint64_t           Addr,
                        2642 --1000:                                      const uint8_t * const    Buf,
                        2643 --1001:                                      const int32_t            Size,
                        2644 --1002:                                      const yd_sfma_SpiConfig_t *Config)
                        2645 --1003: {
                        2646 --1004:     yd_sfma_SpibscSpimdReg_t spibsc_reg;
                        2647 --1005:     yd_sfma_Error_t          ret;
                        2648 --1007:     if ((Buf == R_NULL) ||
000007a2 230f7900       2649 	ld.w	120[sp],r1
000007a6 e009           2650 	cmp	zero,r1
000007a8 d205*          2651 	be	.L1891
000007aa 230f8100       2652 	ld.w	128[sp],r1
000007ae e009           2653 	cmp	zero,r1
000007b0 ca05*          2654 	bne	.L1890
                        2655 .L1891:
                        2656 --1008:         (Config == R_NULL))
                        2657 --1009:     {
                        2658 --1010:         ret = YD_SFMA_ERR_PARAM_INCORRECT;
                        2659 --line1010
                        2660 ..lin.D.3A.5CRenesas_Electronics.5CD1x_RGL.5Crgl_ghs_D1Lx_obj_V1.2E2.2E0.5Cvlib.5Capp.5Cgfx_apps.5Csimple_draw_d1l2.5Ctarget.5Cd1lx_mango_ghs.5Cobj.5Cyd_sfma_flash.132::
                        2661 .LDWlin132:
000007b2 02ea           2662 	mov	2,r29
000007b4 80075a01*      2663 	br	.L1893
                        2664 .L1890:
                        2665 --1011:     }
                        2666 --1012:     else
                        2667 --1013:     {
                        2668 --1014:         /* check the protect status */
                        2669 --1015:         ret = YD_SFMA_CheckProtectMode(Unit, Config);
                        2670 --line1015
                        2671 ..lin.D.3A.5CRenesas_Electronics.5CD1x_RGL.5Crgl_ghs_D1Lx_obj_V1.2E2.2E0.5Cvlib.5Capp.5Cgfx_apps.5Csimple_draw_d1l2.5Ctarget.5Cd1lx_mango_ghs.5Cobj.5Cyd_sfma_flash.133::
                        2672 .LDWlin133:
000007b8 233f8100       2673 	ld.w	128[sp],r7
000007bc 1c30           2674 	mov	r28,r6
                        2675 	jarl	_YD_SFMA_CheckProtectMode,lp
                        2675 <EXPANSION BEGIN>
                        2675 jarl22 _YD_SFMA_CheckProtectMode , lp 
000007be bfff6cfe*      2675 <EXPANSION END>
000007c2 0ae8           2676 	mov	r10,r29
                        2677 --1016:         if (ret == YD_SFMA_ERR_OK)
                        2678 --line1016
                        2679 ..lin.D.3A.5CRenesas_Electronics.5CD1x_RGL.5Crgl_ghs_D1Lx_obj_V1.2E2.2E0.5Cvlib.5Capp.5Cgfx_apps.5Csimple_draw_d1l2.5Ctarget.5Cd1lx_mango_ghs.5Cobj.5Cyd_sfma_flash.134::
                        2680 .LDWlin134:
000007c4 e0e9           2681 	cmp	zero,r29
000007c6 ea074901*      2682 	bne	.L1893
                        2683 --1017:         {
                        2684 --1018:             ret = YD_SFMA_SpibscWriteEnableRegister(Unit, Config);
                        2685 --line1018
                        2686 ..lin.D.3A.5CRenesas_Electronics.5CD1x_RGL.5Crgl_ghs_D1Lx_obj_V1.2E2.2E0.5Cvlib.5Capp.5Cgfx_apps.5Csimple_draw_d1l2.5Ctarget.5Cd1lx_mango_ghs.5Cobj.5Cyd_sfma_flash.135::
                        2687 .LDWlin135:
000007ca 233f8100       2688 	ld.w	128[sp],r7
000007ce 1c30           2689 	mov	r28,r6
                        2690 	jarl	_YD_SFMA_SpibscWriteEnableRegister,lp
                        2690 <EXPANSION BEGIN>
                        2690 jarl22 _YD_SFMA_SpibscWriteEnableRegister , lp 
000007d0 80ff0000*      2690 <EXPANSION END>

                                                                      Page 47
                                                              C:\Users\YINGAO~1\AppData\Local\Temp\gh_00007ak1.si
000007d4 0ae8           2691 	mov	r10,r29
                        2692 --1019:             if (ret == YD_SFMA_ERR_OK)
                        2693 --line1019
                        2694 ..lin.D.3A.5CRenesas_Electronics.5CD1x_RGL.5Crgl_ghs_D1Lx_obj_V1.2E2.2E0.5Cvlib.5Capp.5Cgfx_apps.5Csimple_draw_d1l2.5Ctarget.5Cd1lx_mango_ghs.5Cobj.5Cyd_sfma_flash.136::
                        2695 .LDWlin136:
000007d6 e0e9           2696 	cmp	zero,r29
000007d8 ea073701*      2697 	bne	.L1893
                        2698 --1020:             {
                        2699 --1021:                 ret = YD_SFMA_SpibscRegsetInit(&spibsc_reg);
                        2700 --line1021
                        2701 ..lin.D.3A.5CRenesas_Electronics.5CD1x_RGL.5Crgl_ghs_D1Lx_obj_V1.2E2.2E0.5Cvlib.5Capp.5Cgfx_apps.5Csimple_draw_d1l2.5Ctarget.5Cd1lx_mango_ghs.5Cobj.5Cyd_sfma_flash.137::
                        2702 .LDWlin137:
000007dc 23360400       2703 	movea	4,sp,r6
                        2704 	jarl	_YD_SFMA_SpibscRegsetInit,lp
                        2704 <EXPANSION BEGIN>
                        2704 jarl22 _YD_SFMA_SpibscRegsetInit , lp 
000007e0 80ff0000*      2704 <EXPANSION END>
000007e4 0ae8           2705 	mov	r10,r29
                        2706 --1022:                 if (ret == YD_SFMA_ERR_OK)
                        2707 --line1022
                        2708 ..lin.D.3A.5CRenesas_Electronics.5CD1x_RGL.5Crgl_ghs_D1Lx_obj_V1.2E2.2E0.5Cvlib.5Capp.5Cgfx_apps.5Csimple_draw_d1l2.5Ctarget.5Cd1lx_mango_ghs.5Cobj.5Cyd_sfma_flash.138::
                        2709 .LDWlin138:
000007e6 e0e9           2710 	cmp	zero,r29
000007e8 ea072701*      2711 	bne	.L1893
                        2712 --1023:                 {
                        2713 --1024:                     /* command */
                        2714 --1025:                     if (Config->DataWidth == YD_SFMA_SPIBSC_4BIT)
                        2715 --line1025
                        2716 ..lin.D.3A.5CRenesas_Electronics.5CD1x_RGL.5Crgl_ghs_D1Lx_obj_V1.2E2.2E0.5Cvlib.5Capp.5Cgfx_apps.5Csimple_draw_d1l2.5Ctarget.5Cd1lx_mango_ghs.5Cobj.5Cyd_sfma_flash.139::
                        2717 .LDWlin139:
000007ec 230f8100       2718 	ld.w	128[sp],r1
000007f0 810f7100       2719 	ld.bu	112[r1],r1
000007f4 620a           2720 	cmp	2,r1
000007f6 da15*          2721 	bne	.L1900
                        2722 --1026:                     {
                        2723 --1027:                         /* PP: Quad Program */
                        2724 --1028:                         if (Config->TransferMode == YD_SFMA_SPIBSC_SDR_TRANS)
                        2725 --line1028
                        2726 ..lin.D.3A.5CRenesas_Electronics.5CD1x_RGL.5Crgl_ghs_D1Lx_obj_V1.2E2.2E0.5Cvlib.5Capp.5Cgfx_apps.5Csimple_draw_d1l2.5Ctarget.5Cd1lx_mango_ghs.5Cobj.5Cyd_sfma_flash.140::
                        2727 .LDWlin140:
000007f8 230f8100       2728 	ld.w	128[sp],r1
000007fc a10f7100       2729 	ld.bu	113[r1],r1
00000800 e009           2730 	cmp	zero,r1
00000802 8a0d*          2731 	bne	.L1902
                        2732 --1029:                         {
                        2733 --1030:                             spibsc_reg.Cmd = Config->Command.WriteSdrQuad;
                        2734 --line1030
                        2735 ..lin.D.3A.5CRenesas_Electronics.5CD1x_RGL.5Crgl_ghs_D1Lx_obj_V1.2E2.2E0.5Cvlib.5Capp.5Cgfx_apps.5Csimple_draw_d1l2.5Ctarget.5Cd1lx_mango_ghs.5Cobj.5Cyd_sfma_flash.141::
                        2736 .LDWlin141:
00000804 230f8100       2737 	ld.w	128[sp],r1
00000808 810f6100       2738 	ld.bu	96[r1],r1
0000080c 430f5e00       2739 	st.b	r1,94[sp]
00000810 d535*          2740 	br	.L1905
                        2741 .L1902:
                        2742 --1031:                         }
                        2743 --1032:                         else
                        2744 --1033:                         {
                        2745 --1034:                             spibsc_reg.Cmd = Config->Command.WriteDdrQuad;
                        2746 --line1034
                        2747 ..lin.D.3A.5CRenesas_Electronics.5CD1x_RGL.5Crgl_ghs_D1Lx_obj_V1.2E2.2E0.5Cvlib.5Capp.5Cgfx_apps.5Csimple_draw_d1l2.5Ctarget.5Cd1lx_mango_ghs.5Cobj.5Cyd_sfma_flash.142::
                        2748 .LDWlin142:

                                                                      Page 48
                                                              C:\Users\YINGAO~1\AppData\Local\Temp\gh_00007ak1.si
00000812 230f8100       2749 	ld.w	128[sp],r1
00000816 a10f6300       2750 	ld.bu	99[r1],r1
0000081a 430f5e00       2751 	st.b	r1,94[sp]
0000081e e52d*          2752 	br	.L1905
                        2753 .L1900:
                        2754 --1035:                         }
                        2755 --1036:                     }
                        2756 --1037:                     else if (Config->DataWidth == YD_SFMA_SPIBSC_2BIT)
                        2757 --line1037
                        2758 ..lin.D.3A.5CRenesas_Electronics.5CD1x_RGL.5Crgl_ghs_D1Lx_obj_V1.2E2.2E0.5Cvlib.5Capp.5Cgfx_apps.5Csimple_draw_d1l2.5Ctarget.5Cd1lx_mango_ghs.5Cobj.5Cyd_sfma_flash.143::
                        2759 .LDWlin143:
00000820 230f8100       2760 	ld.w	128[sp],r1
00000824 810f7100       2761 	ld.bu	112[r1],r1
00000828 610a           2762 	cmp	1,r1
0000082a da15*          2763 	bne	.L1906
                        2764 --1038:                     {
                        2765 --1039:                         if (Config->TransferMode == YD_SFMA_SPIBSC_SDR_TRANS)
                        2766 --line1039
                        2767 ..lin.D.3A.5CRenesas_Electronics.5CD1x_RGL.5Crgl_ghs_D1Lx_obj_V1.2E2.2E0.5Cvlib.5Capp.5Cgfx_apps.5Csimple_draw_d1l2.5Ctarget.5Cd1lx_mango_ghs.5Cobj.5Cyd_sfma_flash.144::
                        2768 .LDWlin144:
0000082c 230f8100       2769 	ld.w	128[sp],r1
00000830 a10f7100       2770 	ld.bu	113[r1],r1
00000834 e009           2771 	cmp	zero,r1
00000836 8a0d*          2772 	bne	.L1908
                        2773 --1040:                         {
                        2774 --1041:                             /* PP: Page Program */
                        2775 --1042:                             spibsc_reg.Cmd = Config->Command.WriteSdrDual;
                        2776 --line1042
                        2777 ..lin.D.3A.5CRenesas_Electronics.5CD1x_RGL.5Crgl_ghs_D1Lx_obj_V1.2E2.2E0.5Cvlib.5Capp.5Cgfx_apps.5Csimple_draw_d1l2.5Ctarget.5Cd1lx_mango_ghs.5Cobj.5Cyd_sfma_flash.145::
                        2778 .LDWlin145:
00000838 230f8100       2779 	ld.w	128[sp],r1
0000083c a10f5f00       2780 	ld.bu	95[r1],r1
00000840 430f5e00       2781 	st.b	r1,94[sp]
00000844 b51d*          2782 	br	.L1905
                        2783 .L1908:
                        2784 --1043:                         }
                        2785 --1044:                         else
                        2786 --1045:                         {
                        2787 --1046:                             spibsc_reg.Cmd = Config->Command.WriteDdrDual;
                        2788 --line1046
                        2789 ..lin.D.3A.5CRenesas_Electronics.5CD1x_RGL.5Crgl_ghs_D1Lx_obj_V1.2E2.2E0.5Cvlib.5Capp.5Cgfx_apps.5Csimple_draw_d1l2.5Ctarget.5Cd1lx_mango_ghs.5Cobj.5Cyd_sfma_flash.146::
                        2790 .LDWlin146:
00000846 230f8100       2791 	ld.w	128[sp],r1
0000084a 810f6300       2792 	ld.bu	98[r1],r1
0000084e 430f5e00       2793 	st.b	r1,94[sp]
00000852 c515*          2794 	br	.L1905
                        2795 .L1906:
                        2796 --1047:                         }
                        2797 --1048:                     }
                        2798 --1049:                     else
                        2799 --1050:                     {
                        2800 --1051:                         if (Config->TransferMode == YD_SFMA_SPIBSC_SDR_TRANS)
                        2801 --line1051
                        2802 ..lin.D.3A.5CRenesas_Electronics.5CD1x_RGL.5Crgl_ghs_D1Lx_obj_V1.2E2.2E0.5Cvlib.5Capp.5Cgfx_apps.5Csimple_draw_d1l2.5Ctarget.5Cd1lx_mango_ghs.5Cobj.5Cyd_sfma_flash.147::
                        2803 .LDWlin147:
00000854 230f8100       2804 	ld.w	128[sp],r1
00000858 a10f7100       2805 	ld.bu	113[r1],r1
0000085c e009           2806 	cmp	zero,r1
0000085e 8a0d*          2807 	bne	.L1912
                        2808 --1052:                         {
                        2809 --1053:                             /* PP: Page Program */

                                                                      Page 49
                                                              C:\Users\YINGAO~1\AppData\Local\Temp\gh_00007ak1.si
                        2810 --1054:                             spibsc_reg.Cmd = Config->Command.WriteSdr;
                        2811 --line1054
                        2812 ..lin.D.3A.5CRenesas_Electronics.5CD1x_RGL.5Crgl_ghs_D1Lx_obj_V1.2E2.2E0.5Cvlib.5Capp.5Cgfx_apps.5Csimple_draw_d1l2.5Ctarget.5Cd1lx_mango_ghs.5Cobj.5Cyd_sfma_flash.148::
                        2813 .LDWlin148:
00000860 230f8100       2814 	ld.w	128[sp],r1
00000864 810f5f00       2815 	ld.bu	94[r1],r1
00000868 430f5e00       2816 	st.b	r1,94[sp]
0000086c f505*          2817 	br	.L1905
                        2818 .L1912:
                        2819 --1055:                         }
                        2820 --1056:                         else
                        2821 --1057:                         {
                        2822 --1058:                             spibsc_reg.Cmd = Config->Command.WriteDdr;
                        2823 --line1058
                        2824 ..lin.D.3A.5CRenesas_Electronics.5CD1x_RGL.5Crgl_ghs_D1Lx_obj_V1.2E2.2E0.5Cvlib.5Capp.5Cgfx_apps.5Csimple_draw_d1l2.5Ctarget.5Cd1lx_mango_ghs.5Cobj.5Cyd_sfma_flash.149::
                        2825 .LDWlin149:
0000086e 230f8100       2826 	ld.w	128[sp],r1
00000872 a10f6100       2827 	ld.bu	97[r1],r1
00000876 430f5e00       2828 	st.b	r1,94[sp]
                        2829 .L1905:
                        2830 --1059:                         }
                        2831 --1060:                     }
                        2832 --1062:                     if (spibsc_reg.Cmd != YD_SFMA_NOT_SUPPORT_COMMAND)
0000087a 830f5f00       2833 	ld.bu	94[sp],r1
0000087e 010601ff       2834 	addi	-255,r1,zero
00000882 d245*          2835 	be	.L1915
                        2836 --1063:                     {
                        2837 --1064:                         /* address set */
                        2838 --1065:                         spibsc_reg.Ade = Config->AddressMode;
                        2839 --line1065
                        2840 ..lin.D.3A.5CRenesas_Electronics.5CD1x_RGL.5Crgl_ghs_D1Lx_obj_V1.2E2.2E0.5Cvlib.5Capp.5Cgfx_apps.5Csimple_draw_d1l2.5Ctarget.5Cd1lx_mango_ghs.5Cobj.5Cyd_sfma_flash.150::
                        2841 .LDWlin150:
00000884 230f8100       2842 	ld.w	128[sp],r1
00000888 810f7300       2843 	ld.bu	114[r1],r1
0000088c 630f2100       2844 	st.w	r1,32[sp]
                        2845 --1066:                         spibsc_reg.Adb = Config->Command.WriteAddressBit;
00000890 23f78100       2846 	ld.w	128[sp],ep
00000894 280d           2847 	sld.w	80[ep],r1
00000896 630f0d00       2848 	st.w	r1,12[sp]
                        2849 --1067:                         /* Keep after transfer */
                        2850 --1068:                         spibsc_reg.Sslkp = YD_SFMA_SPIBSC_SPISSL_KEEP;
0000089a 010a           2851 	mov	1,r1
0000089c 630f2d00       2852 	st.w	r1,44[sp]
                        2853 --1069:                         if (Config->MemoryNum == YD_SFMA_SPIBSC_CMNCR_BSZ_DUAL)
000008a0 23f78100       2854 	ld.w	128[sp],ep
000008a4 000d           2855 	sld.w	0[ep],r1
000008a6 610a           2856 	cmp	1,r1
000008a8 9a0d*          2857 	bne	.L1917
                        2858 --1070:                         {
                        2859 --1071:                             spibsc_reg.Addr = (uint32_t)(Addr >> LOC_YD_SFMA_SHIFT_BIT);
                        2860 --line1071
                        2861 ..lin.D.3A.5CRenesas_Electronics.5CD1x_RGL.5Crgl_ghs_D1Lx_obj_V1.2E2.2E0.5Cvlib.5Capp.5Cgfx_apps.5Csimple_draw_d1l2.5Ctarget.5Cd1lx_mango_ghs.5Cobj.5Cyd_sfma_flash.151::
                        2862 .LDWlin151:
000008aa 1b70           2863 	mov	r27,r14
000008ac df72           2864 	shl	31,r14
000008ae 1a08           2865 	mov	r26,r1
000008b0 810a           2866 	shr	1,r1
000008b2 0e09           2867 	or	r14,r1
000008b4 630f4900       2868 	st.w	r1,72[sp]
000008b8 c505*          2869 	br	.L1919
                        2870 .L1917:

                                                                      Page 50
                                                              C:\Users\YINGAO~1\AppData\Local\Temp\gh_00007ak1.si
                        2871 --1072:                         }
                        2872 --1073:                         else
                        2873 --1074:                         {
                        2874 --1075:                             spibsc_reg.Addr = (uint32_t)Addr;
                        2875 --line1075
                        2876 ..lin.D.3A.5CRenesas_Electronics.5CD1x_RGL.5Crgl_ghs_D1Lx_obj_V1.2E2.2E0.5Cvlib.5Capp.5Cgfx_apps.5Csimple_draw_d1l2.5Ctarget.5Cd1lx_mango_ghs.5Cobj.5Cyd_sfma_flash.152::
                        2877 .LDWlin152:
000008ba 1a08           2878 	mov	r26,r1
000008bc 630f4900       2879 	st.w	r1,72[sp]
                        2880 .L1919:
                        2881 --1076:                         }
                        2882 --1078:                         if (Config->TransferMode == YD_SFMA_SPIBSC_DDR_TRANS)
000008c0 230f8100       2883 	ld.w	128[sp],r1
000008c4 a10f7100       2884 	ld.bu	113[r1],r1
000008c8 610a           2885 	cmp	1,r1
000008ca aa0d*          2886 	bne	.L1920
                        2887 --1079:                         {
                        2888 --1080:                             spibsc_reg.Addre  = YD_SFMA_SPIBSC_DDR_TRANS;
                        2889 --line1080
                        2890 ..lin.D.3A.5CRenesas_Electronics.5CD1x_RGL.5Crgl_ghs_D1Lx_obj_V1.2E2.2E0.5Cvlib.5Capp.5Cgfx_apps.5Csimple_draw_d1l2.5Ctarget.5Cd1lx_mango_ghs.5Cobj.5Cyd_sfma_flash.153::
                        2891 .LDWlin153:
000008cc 010a           2892 	mov	1,r1
000008ce 630f3d00       2893 	st.w	r1,60[sp]
                        2894 --1081:                             spibsc_reg.Opdre  = YD_SFMA_SPIBSC_DDR_TRANS;
000008d2 010a           2895 	mov	1,r1
000008d4 630f4100       2896 	st.w	r1,64[sp]
                        2897 --1082:                             spibsc_reg.Spidre = YD_SFMA_SPIBSC_DDR_TRANS;
000008d8 010a           2898 	mov	1,r1
000008da 630f4500       2899 	st.w	r1,68[sp]
                        2900 .L1920:
                        2901 --1083:                         }
                        2902 --1084:                         ret = YD_SFMA_SpibscCommandTransfer(Unit, &spibsc_reg);
000008de 1c30           2903 	mov	r28,r6
000008e0 233e0400       2904 	movea	4,sp,r7
                        2905 	jarl	_YD_SFMA_SpibscCommandTransfer,lp
                        2905 <EXPANSION BEGIN>
                        2905 jarl22 _YD_SFMA_SpibscCommandTransfer , lp 
000008e4 80ff0000*      2905 <EXPANSION END>
000008e8 0ae8           2906 	mov	r10,r29
                        2907 --1086:                         if (ret == YD_SFMA_ERR_OK)
                        2908 --line1086
                        2909 ..lin.D.3A.5CRenesas_Electronics.5CD1x_RGL.5Crgl_ghs_D1Lx_obj_V1.2E2.2E0.5Cvlib.5Capp.5Cgfx_apps.5Csimple_draw_d1l2.5Ctarget.5Cd1lx_mango_ghs.5Cobj.5Cyd_sfma_flash.154::
                        2910 .LDWlin154:
000008ea e0e9           2911 	cmp	zero,r29
000008ec 9a15*          2912 	bne	.L1893
                        2913 --1087:                         {
                        2914 --1088:                             ret = YD_SFMA_DataWriteSelect(Unit,
                        2915 --line1088
                        2916 ..lin.D.3A.5CRenesas_Electronics.5CD1x_RGL.5Crgl_ghs_D1Lx_obj_V1.2E2.2E0.5Cvlib.5Capp.5Cgfx_apps.5Csimple_draw_d1l2.5Ctarget.5Cd1lx_mango_ghs.5Cobj.5Cyd_sfma_flash.155::
                        2917 .LDWlin155:
000008ee 230f8100       2918 	ld.w	128[sp],r1
000008f2 1c30           2919 	mov	r28,r6
000008f4 23477900       2920 	ld.w	120[sp],r8
000008f8 233e0400       2921 	movea	4,sp,r7
000008fc 234f7d00       2922 	ld.w	124[sp],r9
00000900 630f0100       2923 	st.w	r1,0[sp]
                        2924 	jarl	_YD_SFMA_DataWriteSelect,lp
                        2924 <EXPANSION BEGIN>
                        2924 jarl22 _YD_SFMA_DataWriteSelect , lp 
00000904 bfff72fb*      2924 <EXPANSION END>
00000908 0ae8           2925 	mov	r10,r29

                                                                      Page 51
                                                              C:\Users\YINGAO~1\AppData\Local\Temp\gh_00007ak1.si
0000090a a505*          2926 	br	.L1893
                        2927 .L1915:
                        2928 --1089:                                                            &spibsc_reg,
                        2929 --1090:                                                            Buf,
                        2930 --1091:                                                            Size,
                        2931 --1092:                                                            Config);
                        2932 --1093:                         }
                        2933 --1094:                     }
                        2934 --1095:                     else
                        2935 --1096:                     {
                        2936 --1097:                         ret = YD_SFMA_ERR_NOT_SUPPORT_TRANSFER;
                        2937 --line1097
                        2938 ..lin.D.3A.5CRenesas_Electronics.5CD1x_RGL.5Crgl_ghs_D1Lx_obj_V1.2E2.2E0.5Cvlib.5Capp.5Cgfx_apps.5Csimple_draw_d1l2.5Ctarget.5Cd1lx_mango_ghs.5Cobj.5Cyd_sfma_flash.156::
                        2939 .LDWlin156:
0000090c 09ea           2940 	mov	9,r29
                        2941 .L1893:
                        2942 --1098:                     }
                        2943 --1099:                 }
                        2944 --1100:             }
                        2945 --1101:         }
                        2946 --1102:     }
                        2947 --1104:     return ret;
0000090e 1d50           2948 	mov	r29,r10
                        2949 --	    .ef
                        2950 .LDW05:
00000910 7206ff30       2951 	dispose	25,{r26,r27,r28,r29,r31},[lp]
                        2952 	.type	_YD_SFMA_FlashDataWrite,@function
                        2953 	.size	_YD_SFMA_FlashDataWrite,.-_YD_SFMA_FlashDataWrite
                        2954 	.align	2
                        2955 .LDW15:
                        2956 --_spibsc_reg	4[sp]	local
                        2957 --_ret	r29	local
                        2958 
                        2959 --_Unit	r28	param
                        2960 --_Addr	r26	param
                        2961 --_Buf	120[sp]	param
                        2962 --_Size	124[sp]	param
                        2963 --_Config	128[sp]	param
                        2964 
                        2965 	.section ".bss","awb"
                        2966 .L2014:
                        2967 	.type	.L2014,@object
                        2968 	.size	.L2014,0
                        2969 	.data
                        2970 	.text
                        2971 
                        2972 --1105: }
                        2973 
                        2974 --1107: /***************************************************************************
                        2975 --1108:   Function: YD_SFMA_FlashDataRead
                        2976 --1110:   see: <yd_sfma_flash.h>
                        2977 --1111: */
                        2978 --1112: yd_sfma_Error_t YD_SFMA_FlashDataRead(const uint32_t           Unit,
                        2979 	.align	2
                        2980 	.align	2
                        2981 	.global	_YD_SFMA_FlashDataRead
                        2982 _YD_SFMA_FlashDataRead:
00000914 b207e130       2983 	prepare	{r26,r27,r28,r29,r31},25
00000918 06e0           2984 	mov	r6,r28
0000091a 08d0           2985 	mov	r8,r26
0000091c 09d8           2986 	mov	r9,r27

                                                                      Page 52
                                                              C:\Users\YINGAO~1\AppData\Local\Temp\gh_00007ak1.si
                        2987 --	    .bf
                        2988 .LDW25:
                        2989 --1113:                                     const uint64_t           Addr,
                        2990 --1114:                                           uint8_t * const    Buf,
                        2991 --1115:                                     const int32_t            Size,
                        2992 --1116:                                     const yd_sfma_SpiConfig_t *Config)
                        2993 --1117: {
                        2994 --1118:     yd_sfma_SpibscSpimdReg_t spibsc_reg;
                        2995 --1119:     yd_sfma_Error_t          ret;
                        2996 --1121:     if ((Buf == R_NULL) ||
0000091e 230f7900       2997 	ld.w	120[sp],r1
00000922 e009           2998 	cmp	zero,r1
00000924 d205*          2999 	be	.L2134
00000926 230f8100       3000 	ld.w	128[sp],r1
0000092a e009           3001 	cmp	zero,r1
0000092c ca05*          3002 	bne	.L2133
                        3003 .L2134:
                        3004 --1122:         (Config == R_NULL))
                        3005 --1123:     {
                        3006 --1124:         ret = YD_SFMA_ERR_PARAM_INCORRECT;
                        3007 --line1124
                        3008 ..lin.D.3A.5CRenesas_Electronics.5CD1x_RGL.5Crgl_ghs_D1Lx_obj_V1.2E2.2E0.5Cvlib.5Capp.5Cgfx_apps.5Csimple_draw_d1l2.5Ctarget.5Cd1lx_mango_ghs.5Cobj.5Cyd_sfma_flash.157::
                        3009 .LDWlin157:
0000092e 02ea           3010 	mov	2,r29
00000930 80074e01*      3011 	br	.L2136
                        3012 .L2133:
                        3013 --1125:     }
                        3014 --1126:     else
                        3015 --1127:     {
                        3016 --1128:         ret = YD_SFMA_SpibscRegsetInit(&spibsc_reg);
                        3017 --line1128
                        3018 ..lin.D.3A.5CRenesas_Electronics.5CD1x_RGL.5Crgl_ghs_D1Lx_obj_V1.2E2.2E0.5Cvlib.5Capp.5Cgfx_apps.5Csimple_draw_d1l2.5Ctarget.5Cd1lx_mango_ghs.5Cobj.5Cyd_sfma_flash.158::
                        3019 .LDWlin158:
00000934 23360400       3020 	movea	4,sp,r6
                        3021 	jarl	_YD_SFMA_SpibscRegsetInit,lp
                        3021 <EXPANSION BEGIN>
                        3021 jarl22 _YD_SFMA_SpibscRegsetInit , lp 
00000938 80ff0000*      3021 <EXPANSION END>
0000093c 0ae8           3022 	mov	r10,r29
                        3023 --1129:         if (ret == YD_SFMA_ERR_OK)
                        3024 --line1129
                        3025 ..lin.D.3A.5CRenesas_Electronics.5CD1x_RGL.5Crgl_ghs_D1Lx_obj_V1.2E2.2E0.5Cvlib.5Capp.5Cgfx_apps.5Csimple_draw_d1l2.5Ctarget.5Cd1lx_mango_ghs.5Cobj.5Cyd_sfma_flash.159::
                        3026 .LDWlin159:
0000093e e0e9           3027 	cmp	zero,r29
00000940 ea073f01*      3028 	bne	.L2136
                        3029 --1130:         {
                        3030 --1131:             /* command */
                        3031 --1132:             if (Config->DataWidth == YD_SFMA_SPIBSC_1BIT)
                        3032 --line1132
                        3033 ..lin.D.3A.5CRenesas_Electronics.5CD1x_RGL.5Crgl_ghs_D1Lx_obj_V1.2E2.2E0.5Cvlib.5Capp.5Cgfx_apps.5Csimple_draw_d1l2.5Ctarget.5Cd1lx_mango_ghs.5Cobj.5Cyd_sfma_flash.160::
                        3034 .LDWlin160:
00000944 230f8100       3035 	ld.w	128[sp],r1
00000948 810f7100       3036 	ld.bu	112[r1],r1
0000094c e009           3037 	cmp	zero,r1
0000094e da15*          3038 	bne	.L2139
                        3039 --1133:             {
                        3040 --1134:                 if (Config->TransferMode == YD_SFMA_SPIBSC_SDR_TRANS)
                        3041 --line1134
                        3042 ..lin.D.3A.5CRenesas_Electronics.5CD1x_RGL.5Crgl_ghs_D1Lx_obj_V1.2E2.2E0.5Cvlib.5Capp.5Cgfx_apps.5Csimple_draw_d1l2.5Ctarget.5Cd1lx_mango_ghs.5Cobj.5Cyd_sfma_flash.161::
                        3043 .LDWlin161:
00000950 230f8100       3044 	ld.w	128[sp],r1

                                                                      Page 53
                                                              C:\Users\YINGAO~1\AppData\Local\Temp\gh_00007ak1.si
00000954 a10f7100       3045 	ld.bu	113[r1],r1
00000958 e009           3046 	cmp	zero,r1
0000095a 8a0d*          3047 	bne	.L2141
                        3048 --1135:                 {
                        3049 --1136:                     spibsc_reg.Cmd = Config->Command.ReadSdr;
                        3050 --line1136
                        3051 ..lin.D.3A.5CRenesas_Electronics.5CD1x_RGL.5Crgl_ghs_D1Lx_obj_V1.2E2.2E0.5Cvlib.5Capp.5Cgfx_apps.5Csimple_draw_d1l2.5Ctarget.5Cd1lx_mango_ghs.5Cobj.5Cyd_sfma_flash.162::
                        3052 .LDWlin162:
0000095c 230f8100       3053 	ld.w	128[sp],r1
00000960 810f5500       3054 	ld.bu	84[r1],r1
00000964 430f5e00       3055 	st.b	r1,94[sp]
00000968 d535*          3056 	br	.L2144
                        3057 .L2141:
                        3058 --1137:                 }
                        3059 --1138:                 else
                        3060 --1139:                 {
                        3061 --1140:                     spibsc_reg.Cmd = Config->Command.ReadDdr;
                        3062 --line1140
                        3063 ..lin.D.3A.5CRenesas_Electronics.5CD1x_RGL.5Crgl_ghs_D1Lx_obj_V1.2E2.2E0.5Cvlib.5Capp.5Cgfx_apps.5Csimple_draw_d1l2.5Ctarget.5Cd1lx_mango_ghs.5Cobj.5Cyd_sfma_flash.163::
                        3064 .LDWlin163:
0000096a 230f8100       3065 	ld.w	128[sp],r1
0000096e a10f5900       3066 	ld.bu	89[r1],r1
00000972 430f5e00       3067 	st.b	r1,94[sp]
00000976 e52d*          3068 	br	.L2144
                        3069 .L2139:
                        3070 --1141:                 }
                        3071 --1142:             }
                        3072 --1143:             else if (Config->DataWidth == YD_SFMA_SPIBSC_2BIT)
                        3073 --line1143
                        3074 ..lin.D.3A.5CRenesas_Electronics.5CD1x_RGL.5Crgl_ghs_D1Lx_obj_V1.2E2.2E0.5Cvlib.5Capp.5Cgfx_apps.5Csimple_draw_d1l2.5Ctarget.5Cd1lx_mango_ghs.5Cobj.5Cyd_sfma_flash.164::
                        3075 .LDWlin164:
00000978 230f8100       3076 	ld.w	128[sp],r1
0000097c 810f7100       3077 	ld.bu	112[r1],r1
00000980 610a           3078 	cmp	1,r1
00000982 da15*          3079 	bne	.L2145
                        3080 --1144:             {
                        3081 --1145:                 if (Config->TransferMode == YD_SFMA_SPIBSC_SDR_TRANS)
                        3082 --line1145
                        3083 ..lin.D.3A.5CRenesas_Electronics.5CD1x_RGL.5Crgl_ghs_D1Lx_obj_V1.2E2.2E0.5Cvlib.5Capp.5Cgfx_apps.5Csimple_draw_d1l2.5Ctarget.5Cd1lx_mango_ghs.5Cobj.5Cyd_sfma_flash.165::
                        3084 .LDWlin165:
00000984 230f8100       3085 	ld.w	128[sp],r1
00000988 a10f7100       3086 	ld.bu	113[r1],r1
0000098c e009           3087 	cmp	zero,r1
0000098e 8a0d*          3088 	bne	.L2147
                        3089 --1146:                 {
                        3090 --1147:                     spibsc_reg.Cmd = Config->Command.ReadSdrDual;
                        3091 --line1147
                        3092 ..lin.D.3A.5CRenesas_Electronics.5CD1x_RGL.5Crgl_ghs_D1Lx_obj_V1.2E2.2E0.5Cvlib.5Capp.5Cgfx_apps.5Csimple_draw_d1l2.5Ctarget.5Cd1lx_mango_ghs.5Cobj.5Cyd_sfma_flash.166::
                        3093 .LDWlin166:
00000990 230f8100       3094 	ld.w	128[sp],r1
00000994 a10f5500       3095 	ld.bu	85[r1],r1
00000998 430f5e00       3096 	st.b	r1,94[sp]
0000099c b51d*          3097 	br	.L2144
                        3098 .L2147:
                        3099 --1148:                 }
                        3100 --1149:                 else
                        3101 --1150:                 {
                        3102 --1151:                     spibsc_reg.Cmd = Config->Command.ReadDdrDual;
                        3103 --line1151
                        3104 ..lin.D.3A.5CRenesas_Electronics.5CD1x_RGL.5Crgl_ghs_D1Lx_obj_V1.2E2.2E0.5Cvlib.5Capp.5Cgfx_apps.5Csimple_draw_d1l2.5Ctarget.5Cd1lx_mango_ghs.5Cobj.5Cyd_sfma_flash.167::
                        3105 .LDWlin167:

                                                                      Page 54
                                                              C:\Users\YINGAO~1\AppData\Local\Temp\gh_00007ak1.si
0000099e 230f8100       3106 	ld.w	128[sp],r1
000009a2 810f5b00       3107 	ld.bu	90[r1],r1
000009a6 430f5e00       3108 	st.b	r1,94[sp]
000009aa c515*          3109 	br	.L2144
                        3110 .L2145:
                        3111 --1152:                 }
                        3112 --1153:             }
                        3113 --1154:             else
                        3114 --1155:             {
                        3115 --1156:                 if (Config->TransferMode == YD_SFMA_SPIBSC_SDR_TRANS)
                        3116 --line1156
                        3117 ..lin.D.3A.5CRenesas_Electronics.5CD1x_RGL.5Crgl_ghs_D1Lx_obj_V1.2E2.2E0.5Cvlib.5Capp.5Cgfx_apps.5Csimple_draw_d1l2.5Ctarget.5Cd1lx_mango_ghs.5Cobj.5Cyd_sfma_flash.168::
                        3118 .LDWlin168:
000009ac 230f8100       3119 	ld.w	128[sp],r1
000009b0 a10f7100       3120 	ld.bu	113[r1],r1
000009b4 e009           3121 	cmp	zero,r1
000009b6 8a0d*          3122 	bne	.L2151
                        3123 --1157:                 {
                        3124 --1158:                     spibsc_reg.Cmd = Config->Command.ReadSdrQuad;
                        3125 --line1158
                        3126 ..lin.D.3A.5CRenesas_Electronics.5CD1x_RGL.5Crgl_ghs_D1Lx_obj_V1.2E2.2E0.5Cvlib.5Capp.5Cgfx_apps.5Csimple_draw_d1l2.5Ctarget.5Cd1lx_mango_ghs.5Cobj.5Cyd_sfma_flash.169::
                        3127 .LDWlin169:
000009b8 230f8100       3128 	ld.w	128[sp],r1
000009bc 810f5700       3129 	ld.bu	86[r1],r1
000009c0 430f5e00       3130 	st.b	r1,94[sp]
000009c4 f505*          3131 	br	.L2144
                        3132 .L2151:
                        3133 --1159:                 }
                        3134 --1160:                 else
                        3135 --1161:                 {
                        3136 --1162:                     spibsc_reg.Cmd = Config->Command.ReadDdrQuad;
                        3137 --line1162
                        3138 ..lin.D.3A.5CRenesas_Electronics.5CD1x_RGL.5Crgl_ghs_D1Lx_obj_V1.2E2.2E0.5Cvlib.5Capp.5Cgfx_apps.5Csimple_draw_d1l2.5Ctarget.5Cd1lx_mango_ghs.5Cobj.5Cyd_sfma_flash.170::
                        3139 .LDWlin170:
000009c6 230f8100       3140 	ld.w	128[sp],r1
000009ca a10f5b00       3141 	ld.bu	91[r1],r1
000009ce 430f5e00       3142 	st.b	r1,94[sp]
                        3143 .L2144:
                        3144 --1163:                 }
                        3145 --1164:             }
                        3146 --1165:             if (spibsc_reg.Cmd != YD_SFMA_NOT_SUPPORT_COMMAND)
000009d2 830f5f00       3147 	ld.bu	94[sp],r1
000009d6 010601ff       3148 	addi	-255,r1,zero
000009da 9255*          3149 	be	.L2154
                        3150 --1166:             {
                        3151 --1167:                 /* address set */
                        3152 --1168:                 spibsc_reg.Ade = Config->AddressMode;
                        3153 --line1168
                        3154 ..lin.D.3A.5CRenesas_Electronics.5CD1x_RGL.5Crgl_ghs_D1Lx_obj_V1.2E2.2E0.5Cvlib.5Capp.5Cgfx_apps.5Csimple_draw_d1l2.5Ctarget.5Cd1lx_mango_ghs.5Cobj.5Cyd_sfma_flash.171::
                        3155 .LDWlin171:
000009dc 230f8100       3156 	ld.w	128[sp],r1
000009e0 810f7300       3157 	ld.bu	114[r1],r1
000009e4 630f2100       3158 	st.w	r1,32[sp]
                        3159 --1169:                 spibsc_reg.Adb = YD_SFMA_SPIBSC_1BIT;
000009e8 63070d00       3160 	st.w	zero,12[sp]
                        3161 --1170:                 /* Keep after transfer */
                        3162 --1171:                 spibsc_reg.Sslkp = YD_SFMA_SPIBSC_SPISSL_KEEP;
000009ec 010a           3163 	mov	1,r1
000009ee 630f2d00       3164 	st.w	r1,44[sp]
                        3165 --1173:                 /* Dummy cycle insertion enable */
                        3166 --1174:                 if (Config->Command.ReadSdrDummyCycle != YD_SFMA_DUMMY_0CYC)

                                                                      Page 55
                                                              C:\Users\YINGAO~1\AppData\Local\Temp\gh_00007ak1.si
000009f2 23f78100       3167 	ld.w	128[sp],ep
000009f6 1c0d           3168 	sld.w	56[ep],r1
000009f8 680a           3169 	cmp	8,r1
000009fa c205*          3170 	be	.L2156
                        3171 --1175:                 {
                        3172 --1176:                     spibsc_reg.Dme   = YD_SFMA_SPIBSC_DUMMY_CYC_ENABLE;
                        3173 --line1176
                        3174 ..lin.D.3A.5CRenesas_Electronics.5CD1x_RGL.5Crgl_ghs_D1Lx_obj_V1.2E2.2E0.5Cvlib.5Capp.5Cgfx_apps.5Csimple_draw_d1l2.5Ctarget.5Cd1lx_mango_ghs.5Cobj.5Cyd_sfma_flash.172::
                        3175 .LDWlin172:
000009fc 010a           3176 	mov	1,r1
000009fe 630f3900       3177 	st.w	r1,56[sp]
                        3178 .L2156:
                        3179 --1177:                 }
                        3180 --1178:                 spibsc_reg.Dmdb  = YD_SFMA_SPIBSC_1BIT;
00000a02 43075c00       3181 	st.b	zero,92[sp]
                        3182 --1179:                 /* Latency Code of configuration */
                        3183 --1180:                 spibsc_reg.Dmcyc = Config->Command.ReadSdrDummyCycle;
00000a06 23f78100       3184 	ld.w	128[sp],ep
00000a0a 1c0d           3185 	sld.w	56[ep],r1
00000a0c 430f5d00       3186 	st.b	r1,93[sp]
                        3187 --1181:                 if (Config->MemoryNum == YD_SFMA_SPIBSC_CMNCR_BSZ_DUAL)
00000a10 23f78100       3188 	ld.w	128[sp],ep
00000a14 000d           3189 	sld.w	0[ep],r1
00000a16 610a           3190 	cmp	1,r1
00000a18 9a0d*          3191 	bne	.L2158
                        3192 --1182:                 {
                        3193 --1183:                     spibsc_reg.Addr = (uint32_t)(Addr >> LOC_YD_SFMA_SHIFT_BIT);
                        3194 --line1183
                        3195 ..lin.D.3A.5CRenesas_Electronics.5CD1x_RGL.5Crgl_ghs_D1Lx_obj_V1.2E2.2E0.5Cvlib.5Capp.5Cgfx_apps.5Csimple_draw_d1l2.5Ctarget.5Cd1lx_mango_ghs.5Cobj.5Cyd_sfma_flash.173::
                        3196 .LDWlin173:
00000a1a 1b70           3197 	mov	r27,r14
00000a1c df72           3198 	shl	31,r14
00000a1e 1a08           3199 	mov	r26,r1
00000a20 810a           3200 	shr	1,r1
00000a22 0e09           3201 	or	r14,r1
00000a24 630f4900       3202 	st.w	r1,72[sp]
00000a28 c505*          3203 	br	.L2160
                        3204 .L2158:
                        3205 --1184:                 }
                        3206 --1185:                 else
                        3207 --1186:                 {
                        3208 --1187:                     spibsc_reg.Addr = (uint32_t)Addr;
                        3209 --line1187
                        3210 ..lin.D.3A.5CRenesas_Electronics.5CD1x_RGL.5Crgl_ghs_D1Lx_obj_V1.2E2.2E0.5Cvlib.5Capp.5Cgfx_apps.5Csimple_draw_d1l2.5Ctarget.5Cd1lx_mango_ghs.5Cobj.5Cyd_sfma_flash.174::
                        3211 .LDWlin174:
00000a2a 1a08           3212 	mov	r26,r1
00000a2c 630f4900       3213 	st.w	r1,72[sp]
                        3214 .L2160:
                        3215 --1188:                 }
                        3216 --1190:                 if (Config->TransferMode == YD_SFMA_SPIBSC_DDR_TRANS)
00000a30 230f8100       3217 	ld.w	128[sp],r1
00000a34 a10f7100       3218 	ld.bu	113[r1],r1
00000a38 610a           3219 	cmp	1,r1
00000a3a aa0d*          3220 	bne	.L2161
                        3221 --1191:                 {
                        3222 --1192:                     spibsc_reg.Addre  = YD_SFMA_SPIBSC_DDR_TRANS;
                        3223 --line1192
                        3224 ..lin.D.3A.5CRenesas_Electronics.5CD1x_RGL.5Crgl_ghs_D1Lx_obj_V1.2E2.2E0.5Cvlib.5Capp.5Cgfx_apps.5Csimple_draw_d1l2.5Ctarget.5Cd1lx_mango_ghs.5Cobj.5Cyd_sfma_flash.175::
                        3225 .LDWlin175:
00000a3c 010a           3226 	mov	1,r1
00000a3e 630f3d00       3227 	st.w	r1,60[sp]

                                                                      Page 56
                                                              C:\Users\YINGAO~1\AppData\Local\Temp\gh_00007ak1.si
                        3228 --1193:                     spibsc_reg.Opdre  = YD_SFMA_SPIBSC_DDR_TRANS;
00000a42 010a           3229 	mov	1,r1
00000a44 630f4100       3230 	st.w	r1,64[sp]
                        3231 --1194:                     spibsc_reg.Spidre = YD_SFMA_SPIBSC_DDR_TRANS;
00000a48 010a           3232 	mov	1,r1
00000a4a 630f4500       3233 	st.w	r1,68[sp]
                        3234 .L2161:
                        3235 --1195:                 }
                        3236 --1196:                 ret = YD_SFMA_SpibscCommandTransfer(Unit, &spibsc_reg);
00000a4e 1c30           3237 	mov	r28,r6
00000a50 233e0400       3238 	movea	4,sp,r7
                        3239 	jarl	_YD_SFMA_SpibscCommandTransfer,lp
                        3239 <EXPANSION BEGIN>
                        3239 jarl22 _YD_SFMA_SpibscCommandTransfer , lp 
00000a54 80ff0000*      3239 <EXPANSION END>
00000a58 0ae8           3240 	mov	r10,r29
                        3241 --1197:                 if (ret == YD_SFMA_ERR_OK)
                        3242 --line1197
                        3243 ..lin.D.3A.5CRenesas_Electronics.5CD1x_RGL.5Crgl_ghs_D1Lx_obj_V1.2E2.2E0.5Cvlib.5Capp.5Cgfx_apps.5Csimple_draw_d1l2.5Ctarget.5Cd1lx_mango_ghs.5Cobj.5Cyd_sfma_flash.176::
                        3244 .LDWlin176:
00000a5a e0e9           3245 	cmp	zero,r29
00000a5c 9a15*          3246 	bne	.L2136
                        3247 --1198:                 {
                        3248 --1199:                     ret = YD_SFMA_DataReadSelect(Unit, &spibsc_reg, Buf, Size, Config);
                        3249 --line1199
                        3250 ..lin.D.3A.5CRenesas_Electronics.5CD1x_RGL.5Crgl_ghs_D1Lx_obj_V1.2E2.2E0.5Cvlib.5Capp.5Cgfx_apps.5Csimple_draw_d1l2.5Ctarget.5Cd1lx_mango_ghs.5Cobj.5Cyd_sfma_flash.177::
                        3251 .LDWlin177:
00000a5e 230f8100       3252 	ld.w	128[sp],r1
00000a62 1c30           3253 	mov	r28,r6
00000a64 23477900       3254 	ld.w	120[sp],r8
00000a68 233e0400       3255 	movea	4,sp,r7
00000a6c 234f7d00       3256 	ld.w	124[sp],r9
00000a70 630f0100       3257 	st.w	r1,0[sp]
                        3258 	jarl	_YD_SFMA_DataReadSelect,lp
                        3258 <EXPANSION BEGIN>
                        3258 jarl22 _YD_SFMA_DataReadSelect , lp 
00000a74 bfffe4fa*      3258 <EXPANSION END>
00000a78 0ae8           3259 	mov	r10,r29
00000a7a a505*          3260 	br	.L2136
                        3261 .L2154:
                        3262 --1200:                 }
                        3263 --1201:             }
                        3264 --1202:             else
                        3265 --1203:             {
                        3266 --1204:                 ret = YD_SFMA_ERR_NOT_SUPPORT_TRANSFER;
                        3267 --line1204
                        3268 ..lin.D.3A.5CRenesas_Electronics.5CD1x_RGL.5Crgl_ghs_D1Lx_obj_V1.2E2.2E0.5Cvlib.5Capp.5Cgfx_apps.5Csimple_draw_d1l2.5Ctarget.5Cd1lx_mango_ghs.5Cobj.5Cyd_sfma_flash.178::
                        3269 .LDWlin178:
00000a7c 09ea           3270 	mov	9,r29
                        3271 .L2136:
                        3272 --1205:             }
                        3273 --1206:         }
                        3274 --1207:     }
                        3275 --1209:     return ret;
00000a7e 1d50           3276 	mov	r29,r10
                        3277 --	    .ef
                        3278 .LDW35:
00000a80 7206ff30       3279 	dispose	25,{r26,r27,r28,r29,r31},[lp]
                        3280 	.type	_YD_SFMA_FlashDataRead,@function
                        3281 	.size	_YD_SFMA_FlashDataRead,.-_YD_SFMA_FlashDataRead
                        3282 	.align	2

                                                                      Page 57
                                                              C:\Users\YINGAO~1\AppData\Local\Temp\gh_00007ak1.si
                        3283 .LDW45:
                        3284 --_spibsc_reg	4[sp]	local
                        3285 --_ret	r29	local
                        3286 
                        3287 --_Unit	r28	param
                        3288 --_Addr	r26	param
                        3289 --_Buf	120[sp]	param
                        3290 --_Size	124[sp]	param
                        3291 --_Config	128[sp]	param
                        3292 
                        3293 	.section ".bss","awb"
                        3294 .L2254:
                        3295 	.type	.L2254,@object
                        3296 	.size	.L2254,0
                        3297 	.data
                        3298 	.text
                        3299 
                        3300 --1210: }
                        3301 
                        3302 --1212: /***************************************************************************
                        3303 --1213:   Function: YD_SFMA_FlashProtectModeSet
                        3304 --1215:   see: <yd_sfma_flash.h>
                        3305 --1216: */
                        3306 --1217: yd_sfma_Error_t YD_SFMA_FlashProtectModeSet(const uint32_t           Unit,
                        3307 	.align	2
                        3308 	.align	2
                        3309 	.global	_YD_SFMA_FlashProtectModeSet
                        3310 _YD_SFMA_FlashProtectModeSet:
00000a84 8207e130       3311 	prepare	{r26,r27,r28,r29,r31},1
00000a88 06d8           3312 	mov	r6,r27
00000a8a 07d0           3313 	mov	r7,r26
00000a8c 08e8           3314 	mov	r8,r29
                        3315 --	    .bf
                        3316 .LDW55:
                        3317 --1218:                                           const yd_sfma_Req_t       Req,
                        3318 --1219:                                           const yd_sfma_SpiConfig_t *Config)
                        3319 --1220: {
                        3320 --1221:     yd_sfma_Error_t ret;
                        3321 --1222:     uint8_t        st_reg1;
                        3322 --1223:     uint8_t        st_reg2;
                        3323 --1224:     uint8_t        cf_reg1;
                        3324 --1225:     uint8_t        cf_reg2;
                        3325 --1227:     if (Config == R_NULL)
00000a8e e0e9           3326 	cmp	zero,r29
00000a90 ba05*          3327 	bne	.L2373
                        3328 --1228:     {
                        3329 --1229:         ret = YD_SFMA_ERR_PARAM_INCORRECT;
                        3330 --line1229
                        3331 ..lin.D.3A.5CRenesas_Electronics.5CD1x_RGL.5Crgl_ghs_D1Lx_obj_V1.2E2.2E0.5Cvlib.5Capp.5Cgfx_apps.5Csimple_draw_d1l2.5Ctarget.5Cd1lx_mango_ghs.5Cobj.5Cyd_sfma_flash.179::
                        3332 .LDWlin179:
00000a92 02e2           3333 	mov	2,r28
00000a94 b55d*          3334 	br	.L2375
                        3335 .L2373:
                        3336 --1230:     }
                        3337 --1231:     else if ((Req != YD_SFMA_REQ_UNPROTECT) &&
                        3338 --line1231
                        3339 ..lin.D.3A.5CRenesas_Electronics.5CD1x_RGL.5Crgl_ghs_D1Lx_obj_V1.2E2.2E0.5Cvlib.5Capp.5Cgfx_apps.5Csimple_draw_d1l2.5Ctarget.5Cd1lx_mango_ghs.5Cobj.5Cyd_sfma_flash.180::
                        3340 .LDWlin180:
00000a96 61d2           3341 	cmp	1,r26
00000a98 d205*          3342 	be	.L2376
00000a9a e0d1           3343 	cmp	zero,r26

                                                                      Page 58
                                                              C:\Users\YINGAO~1\AppData\Local\Temp\gh_00007ak1.si
00000a9c b205*          3344 	be	.L2376
                        3345 --1232:              (Req != YD_SFMA_REQ_PROTECT))
                        3346 --1233:     {
                        3347 --1234:         ret = YD_SFMA_ERR_PARAM_INCORRECT;
                        3348 --line1234
                        3349 ..lin.D.3A.5CRenesas_Electronics.5CD1x_RGL.5Crgl_ghs_D1Lx_obj_V1.2E2.2E0.5Cvlib.5Capp.5Cgfx_apps.5Csimple_draw_d1l2.5Ctarget.5Cd1lx_mango_ghs.5Cobj.5Cyd_sfma_flash.181::
                        3350 .LDWlin181:
00000a9e 02e2           3351 	mov	2,r28
00000aa0 d555*          3352 	br	.L2375
                        3353 .L2376:
                        3354 --1235:     }
                        3355 --1236:     else
                        3356 --1237:     {
                        3357 --1238:         ret = YD_SFMA_SpibscReadStatusRegister(Unit, &st_reg1, &st_reg2, Config);
                        3358 --line1238
                        3359 ..lin.D.3A.5CRenesas_Electronics.5CD1x_RGL.5Crgl_ghs_D1Lx_obj_V1.2E2.2E0.5Cvlib.5Capp.5Cgfx_apps.5Csimple_draw_d1l2.5Ctarget.5Cd1lx_mango_ghs.5Cobj.5Cyd_sfma_flash.182::
                        3360 .LDWlin182:
00000aa2 1b30           3361 	mov	r27,r6
00000aa4 1d48           3362 	mov	r29,r9
00000aa6 233e0000       3363 	movea	0,sp,r7
00000aaa 23460100       3364 	movea	1,sp,r8
                        3365 	jarl	_YD_SFMA_SpibscReadStatusRegister,lp
                        3365 <EXPANSION BEGIN>
                        3365 jarl22 _YD_SFMA_SpibscReadStatusRegister , lp 
00000aae 80ff0000*      3365 <EXPANSION END>
00000ab2 0ae0           3366 	mov	r10,r28
                        3367 --1239:         if (ret == YD_SFMA_ERR_OK)
                        3368 --line1239
                        3369 ..lin.D.3A.5CRenesas_Electronics.5CD1x_RGL.5Crgl_ghs_D1Lx_obj_V1.2E2.2E0.5Cvlib.5Capp.5Cgfx_apps.5Csimple_draw_d1l2.5Ctarget.5Cd1lx_mango_ghs.5Cobj.5Cyd_sfma_flash.183::
                        3370 .LDWlin183:
00000ab4 e0e1           3371 	cmp	zero,r28
00000ab6 aa4d*          3372 	bne	.L2375
                        3373 --1240:         {
                        3374 --1241:             ret = YD_SFMA_SpibscReadConfigRegister(Unit, &cf_reg1, &cf_reg2, Config);
                        3375 --line1241
                        3376 ..lin.D.3A.5CRenesas_Electronics.5CD1x_RGL.5Crgl_ghs_D1Lx_obj_V1.2E2.2E0.5Cvlib.5Capp.5Cgfx_apps.5Csimple_draw_d1l2.5Ctarget.5Cd1lx_mango_ghs.5Cobj.5Cyd_sfma_flash.184::
                        3377 .LDWlin184:
00000ab8 1b30           3378 	mov	r27,r6
00000aba 1d48           3379 	mov	r29,r9
00000abc 233e0200       3380 	movea	2,sp,r7
00000ac0 23460300       3381 	movea	3,sp,r8
                        3382 	jarl	_YD_SFMA_SpibscReadConfigRegister,lp
                        3382 <EXPANSION BEGIN>
                        3382 jarl22 _YD_SFMA_SpibscReadConfigRegister , lp 
00000ac4 80ff0000*      3382 <EXPANSION END>
00000ac8 0ae0           3383 	mov	r10,r28
                        3384 --1242:             if (ret == YD_SFMA_ERR_OK)
                        3385 --line1242
                        3386 ..lin.D.3A.5CRenesas_Electronics.5CD1x_RGL.5Crgl_ghs_D1Lx_obj_V1.2E2.2E0.5Cvlib.5Capp.5Cgfx_apps.5Csimple_draw_d1l2.5Ctarget.5Cd1lx_mango_ghs.5Cobj.5Cyd_sfma_flash.185::
                        3387 .LDWlin185:
00000aca e0e1           3388 	cmp	zero,r28
00000acc fa3d*          3389 	bne	.L2375
                        3390 --1243:             {
                        3391 --1244:                 if (Req == YD_SFMA_REQ_UNPROTECT)
                        3392 --line1244
                        3393 ..lin.D.3A.5CRenesas_Electronics.5CD1x_RGL.5Crgl_ghs_D1Lx_obj_V1.2E2.2E0.5Cvlib.5Capp.5Cgfx_apps.5Csimple_draw_d1l2.5Ctarget.5Cd1lx_mango_ghs.5Cobj.5Cyd_sfma_flash.186::
                        3394 .LDWlin186:
00000ace 61d2           3395 	cmp	1,r26
00000ad0 da1d*          3396 	bne	.L2384
                        3397 --1245:                 {
                        3398 --1246:                     /* un-protect in all area */

                                                                      Page 59
                                                              C:\Users\YINGAO~1\AppData\Local\Temp\gh_00007ak1.si
                        3399 --1247:                     if (Config->Command.BlockProtect.Reg == YD_SFMA_STATUS_REG)
                        3400 --line1247
                        3401 ..lin.D.3A.5CRenesas_Electronics.5CD1x_RGL.5Crgl_ghs_D1Lx_obj_V1.2E2.2E0.5Cvlib.5Capp.5Cgfx_apps.5Csimple_draw_d1l2.5Ctarget.5Cd1lx_mango_ghs.5Cobj.5Cyd_sfma_flash.187::
                        3402 .LDWlin187:
00000ad2 3d0f2100       3403 	ld.w	32[r29],r1
00000ad6 e009           3404 	cmp	zero,r1
00000ad8 ba0d*          3405 	bne	.L2386
                        3406 --1248:                     {
                        3407 --1249:                         st_reg1 &= (uint8_t)~Config->Command.BlockProtect.BitPosition;
                        3408 --line1249
                        3409 ..lin.D.3A.5CRenesas_Electronics.5CD1x_RGL.5Crgl_ghs_D1Lx_obj_V1.2E2.2E0.5Cvlib.5Capp.5Cgfx_apps.5Csimple_draw_d1l2.5Ctarget.5Cd1lx_mango_ghs.5Cobj.5Cyd_sfma_flash.188::
                        3410 .LDWlin188:
00000ada 9d0f2500       3411 	ld.bu	36[r29],r1
00000ade 2170           3412 	not	r1,r14
00000ae0 830f0100       3413 	ld.bu	0[sp],r1
00000ae4 8e00           3414 	zxb	r14
00000ae6 4e09           3415 	and	r14,r1
00000ae8 430f0000       3416 	st.b	r1,0[sp]
00000aec e525*          3417 	br	.L2392
                        3418 .L2386:
                        3419 --1250:                     }
                        3420 --1251:                     else if (Config->Command.BlockProtect.Reg == YD_SFMA_CONFIG_REG)
                        3421 --line1251
                        3422 ..lin.D.3A.5CRenesas_Electronics.5CD1x_RGL.5Crgl_ghs_D1Lx_obj_V1.2E2.2E0.5Cvlib.5Capp.5Cgfx_apps.5Csimple_draw_d1l2.5Ctarget.5Cd1lx_mango_ghs.5Cobj.5Cyd_sfma_flash.189::
                        3423 .LDWlin189:
00000aee 3d0f2100       3424 	ld.w	32[r29],r1
00000af2 610a           3425 	cmp	1,r1
00000af4 aa25*          3426 	bne	.L2392
                        3427 --1252:                     {
                        3428 --1253:                         cf_reg1 &= (uint8_t)~Config->Command.BlockProtect.BitPosition;
                        3429 --line1253
                        3430 ..lin.D.3A.5CRenesas_Electronics.5CD1x_RGL.5Crgl_ghs_D1Lx_obj_V1.2E2.2E0.5Cvlib.5Capp.5Cgfx_apps.5Csimple_draw_d1l2.5Ctarget.5Cd1lx_mango_ghs.5Cobj.5Cyd_sfma_flash.190::
                        3431 .LDWlin190:
00000af6 9d0f2500       3432 	ld.bu	36[r29],r1
00000afa 2170           3433 	not	r1,r14
00000afc 830f0300       3434 	ld.bu	2[sp],r1
00000b00 8e00           3435 	zxb	r14
00000b02 4e09           3436 	and	r14,r1
00000b04 430f0200       3437 	st.b	r1,2[sp]
00000b08 851d*          3438 	br	.L2392
                        3439 .L2384:
                        3440 --1254:                     }
                        3441 --1255:                     else
                        3442 --1256:                     {
                        3443 --1257:                         /* Do Nothing */
                        3444 --1258:                         ;
                        3445 --1259:                     }
                        3446 --1260:                 }
                        3447 --1261:                 else
                        3448 --1262:                 {
                        3449 --1263:                     /* un-protect in all area */
                        3450 --1264:                     if (Config->Command.BlockProtect.Reg == YD_SFMA_STATUS_REG)
                        3451 --line1264
                        3452 ..lin.D.3A.5CRenesas_Electronics.5CD1x_RGL.5Crgl_ghs_D1Lx_obj_V1.2E2.2E0.5Cvlib.5Capp.5Cgfx_apps.5Csimple_draw_d1l2.5Ctarget.5Cd1lx_mango_ghs.5Cobj.5Cyd_sfma_flash.191::
                        3453 .LDWlin191:
00000b0a 3d0f2100       3454 	ld.w	32[r29],r1
00000b0e e009           3455 	cmp	zero,r1
00000b10 9a0d*          3456 	bne	.L2393
                        3457 --1265:                     {
                        3458 --1266:                         st_reg1 |= Config->Command.BlockProtect.BitPosition;
                        3459 --line1266

                                                                      Page 60
                                                              C:\Users\YINGAO~1\AppData\Local\Temp\gh_00007ak1.si
                        3460 ..lin.D.3A.5CRenesas_Electronics.5CD1x_RGL.5Crgl_ghs_D1Lx_obj_V1.2E2.2E0.5Cvlib.5Capp.5Cgfx_apps.5Csimple_draw_d1l2.5Ctarget.5Cd1lx_mango_ghs.5Cobj.5Cyd_sfma_flash.192::
                        3461 .LDWlin192:
00000b12 830f0100       3462 	ld.bu	0[sp],r1
00000b16 9d772500       3463 	ld.bu	36[r29],r14
00000b1a 0e09           3464 	or	r14,r1
00000b1c 430f0000       3465 	st.b	r1,0[sp]
00000b20 c50d*          3466 	br	.L2392
                        3467 .L2393:
                        3468 --1267:                     }
                        3469 --1268:                     else if (Config->Command.BlockProtect.Reg == YD_SFMA_CONFIG_REG)
                        3470 --line1268
                        3471 ..lin.D.3A.5CRenesas_Electronics.5CD1x_RGL.5Crgl_ghs_D1Lx_obj_V1.2E2.2E0.5Cvlib.5Capp.5Cgfx_apps.5Csimple_draw_d1l2.5Ctarget.5Cd1lx_mango_ghs.5Cobj.5Cyd_sfma_flash.193::
                        3472 .LDWlin193:
00000b22 3d0f2100       3473 	ld.w	32[r29],r1
00000b26 610a           3474 	cmp	1,r1
00000b28 8a0d*          3475 	bne	.L2392
                        3476 --1269:                     {
                        3477 --1270:                         cf_reg1 |= Config->Command.BlockProtect.BitPosition;
                        3478 --line1270
                        3479 ..lin.D.3A.5CRenesas_Electronics.5CD1x_RGL.5Crgl_ghs_D1Lx_obj_V1.2E2.2E0.5Cvlib.5Capp.5Cgfx_apps.5Csimple_draw_d1l2.5Ctarget.5Cd1lx_mango_ghs.5Cobj.5Cyd_sfma_flash.194::
                        3480 .LDWlin194:
00000b2a 830f0300       3481 	ld.bu	2[sp],r1
00000b2e 9d772500       3482 	ld.bu	36[r29],r14
00000b32 0e09           3483 	or	r14,r1
00000b34 430f0200       3484 	st.b	r1,2[sp]
                        3485 .L2392:
                        3486 --1271:                     }
                        3487 --1272:                     else
                        3488 --1273:                     {
                        3489 --1274:                         /* Do Nothing */
                        3490 --1275:                         ;
                        3491 --1276:                     }
                        3492 --1277:                 }
                        3493 --1279:                 /* ---- clear or set protect bit in status register ---- */
                        3494 --1280:                 ret = YD_SFMA_SpibscWriteStatusRegister(
00000b38 833f0100       3495 	ld.bu	0[sp],r7
00000b3c 1b30           3496 	mov	r27,r6
00000b3e 83470300       3497 	ld.bu	2[sp],r8
00000b42 1d48           3498 	mov	r29,r9
                        3499 	jarl	_YD_SFMA_SpibscWriteStatusRegister,lp
                        3499 <EXPANSION BEGIN>
                        3499 jarl22 _YD_SFMA_SpibscWriteStatusRegister , lp 
00000b44 80ff0000*      3499 <EXPANSION END>
00000b48 0ae0           3500 	mov	r10,r28
                        3501 .L2375:
                        3502 --1281:                                                      Unit,
                        3503 --1282:                                                      st_reg1,
                        3504 --1283:                                                      cf_reg1,
                        3505 --1284:                                                      Config);
                        3506 --1285:             }
                        3507 --1286:         }
                        3508 --1287:     }
                        3509 --1289:     return ret;
                        3510 --line1289
                        3511 ..lin.D.3A.5CRenesas_Electronics.5CD1x_RGL.5Crgl_ghs_D1Lx_obj_V1.2E2.2E0.5Cvlib.5Capp.5Cgfx_apps.5Csimple_draw_d1l2.5Ctarget.5Cd1lx_mango_ghs.5Cobj.5Cyd_sfma_flash.195::
                        3512 .LDWlin195:
00000b4a 1c50           3513 	mov	r28,r10
                        3514 --	    .ef
                        3515 .LDW65:
00000b4c 4206ff30       3516 	dispose	1,{r26,r27,r28,r29,r31},[lp]
                        3517 	.type	_YD_SFMA_FlashProtectModeSet,@function

                                                                      Page 61
                                                              C:\Users\YINGAO~1\AppData\Local\Temp\gh_00007ak1.si
                        3518 	.size	_YD_SFMA_FlashProtectModeSet,.-_YD_SFMA_FlashProtectModeSet
                        3519 	.align	2
                        3520 .LDW75:
                        3521 --_ret	r28	local
                        3522 --_st_reg1	0[sp]	local
                        3523 --_st_reg2	1[sp]	local
                        3524 --_cf_reg1	2[sp]	local
                        3525 --_cf_reg2	3[sp]	local
                        3526 
                        3527 --_Unit	r27	param
                        3528 --_Req	r26	param
                        3529 --_Config	r29	param
                        3530 
                        3531 	.section ".bss","awb"
                        3532 .L2446:
                        3533 	.type	.L2446,@object
                        3534 	.size	.L2446,0
                        3535 	.data
                        3536 	.text
                        3537 
                        3538 --1290: }
                        3539 	.align	2
                        3540 
                        3541 	.data
                        3542 	.ghsnote version,14
                        3543 	.ghsnote tools,3
                        3544 	.ghsnote options,144
                        3545 	.text
                        3546 	.align	2
                        3547 ..eof.D.3A.5CRenesas_Electronics.5CD1x_RGL.5Crgl_ghs_D1Lx_obj_V1.2E2.2E0.5Cvlib.5Capp.5Cgfx_apps.5Csimple_draw_d1l2.5Ctarget.5Cd1lx_mango_ghs.5Cobj.5Cyd_sfma_flash...44.3A.5CRenesas_Electronics.5CD1x_RGL.5Crgl_ghs_D1Lx_obj_V1.2E2.2E0.5Cvlib.5Capp.5Cgfx_apps.5Csimple_draw_d1l2.5Ctarget.5Cd1lx_mango_ghs..5A740379..0::
                        3548 .rh850_flags REGMODE22,DATA_ALIGN8,GP_FIX,EP_NONFIX,TP_FIX,REG2_RESERVE,G3M
